TMS320C2000 COFF Assembler PC v4.1.3 Thu May 05 10:06:00 2011

Tools Copyright (c) 1996-2006 Texas Instruments Incorporated
C:\DOCUME~1\ADMINI~1\LOCALS~1\Temp\TI1122                            PAGE    1

       1              ;***************************************************************
       2              ;* TMS320C2000 C/C++ Codegen                         PC v4.1.3 *
       3              ;* Date/Time created: Thu May 05 10:05:57 2011                 *
       4              ;***************************************************************
       5                      .compiler_opts --mem_model:code=flat --mem_model:data=large --silicon_version=28 
       6        0002  FP      .set    XAR2
       7              
       8              DW$CU   .dwtag  DW_TAG_compile_unit
       9                      .dwattr DW$CU, DW_AT_name("ff.c")
      10                      .dwattr DW$CU, DW_AT_producer("TMS320C2000 C/C++ Codegen PC v4.1.3 Copyright (c) 1996-2006 Texas Inst
      11                      .dwattr DW$CU, DW_AT_stmt_list(0x00)
      12                      .dwattr DW$CU, DW_AT_TI_VERSION(0x01)
      13              
      14              DW$1    .dwtag  DW_TAG_subprogram, DW_AT_name("ff_rel_grant"), DW_AT_symbol_name("_ff_rel_grant")
      15                      .dwattr DW$1, DW_AT_declaration(0x01)
      16                      .dwattr DW$1, DW_AT_external(0x01)
      17              DW$2    .dwtag  DW_TAG_formal_parameter, DW_AT_type(*DW$T$26)
      18                      .dwendtag DW$1
      19              
      20 00000000       _Fsid:  .usect  ".ebss",1,1,0
      21              DW$3    .dwtag  DW_TAG_variable, DW_AT_name("Fsid"), DW_AT_symbol_name("_Fsid")
      22                      .dwattr DW$3, DW_AT_type(*DW$T$24)
      23                      .dwattr DW$3, DW_AT_location[DW_OP_addr _Fsid]
      24              
      25              DW$4    .dwtag  DW_TAG_subprogram, DW_AT_name("disk_write"), DW_AT_symbol_name("_disk_write")
      26                      .dwattr DW$4, DW_AT_type(*DW$T$108)
      27                      .dwattr DW$4, DW_AT_declaration(0x01)
      28                      .dwattr DW$4, DW_AT_external(0x01)
      29              DW$5    .dwtag  DW_TAG_formal_parameter, DW_AT_type(*DW$T$23)
      30              DW$6    .dwtag  DW_TAG_formal_parameter, DW_AT_type(*DW$T$62)
      31              DW$7    .dwtag  DW_TAG_formal_parameter, DW_AT_type(*DW$T$27)
      32              DW$8    .dwtag  DW_TAG_formal_parameter, DW_AT_type(*DW$T$23)
      33                      .dwendtag DW$4
      34              
      35              
      36              DW$9    .dwtag  DW_TAG_subprogram, DW_AT_name("disk_ioctl"), DW_AT_symbol_name("_disk_ioctl")
      37                      .dwattr DW$9, DW_AT_type(*DW$T$108)
      38                      .dwattr DW$9, DW_AT_declaration(0x01)
      39                      .dwattr DW$9, DW_AT_external(0x01)
      40              DW$10   .dwtag  DW_TAG_formal_parameter, DW_AT_type(*DW$T$23)
      41              DW$11   .dwtag  DW_TAG_formal_parameter, DW_AT_type(*DW$T$23)
      42              DW$12   .dwtag  DW_TAG_formal_parameter, DW_AT_type(*DW$T$3)
      43                      .dwendtag DW$9
      44              
      45              
      46              DW$13   .dwtag  DW_TAG_subprogram, DW_AT_name("ff_del_syncobj"), DW_AT_symbol_name("_ff_del_syncobj")
      47                      .dwattr DW$13, DW_AT_type(*DW$T$6)
      48                      .dwattr DW$13, DW_AT_declaration(0x01)
      49                      .dwattr DW$13, DW_AT_external(0x01)
      50              DW$14   .dwtag  DW_TAG_formal_parameter, DW_AT_type(*DW$T$26)
      51                      .dwendtag DW$13
      52              
      53              
      54              DW$15   .dwtag  DW_TAG_subprogram, DW_AT_name("disk_initialize"), DW_AT_symbol_name("_disk_initialize")
      55                      .dwattr DW$15, DW_AT_type(*DW$T$58)
TMS320C2000 COFF Assembler PC v4.1.3 Thu May 05 10:06:00 2011

Tools Copyright (c) 1996-2006 Texas Instruments Incorporated
C:\DOCUME~1\ADMINI~1\LOCALS~1\Temp\TI1122                            PAGE    2

      56                      .dwattr DW$15, DW_AT_declaration(0x01)
      57                      .dwattr DW$15, DW_AT_external(0x01)
      58              DW$16   .dwtag  DW_TAG_formal_parameter, DW_AT_type(*DW$T$23)
      59                      .dwendtag DW$15
      60              
      61              
      62              DW$17   .dwtag  DW_TAG_subprogram, DW_AT_name("ff_cre_syncobj"), DW_AT_symbol_name("_ff_cre_syncobj")
      63                      .dwattr DW$17, DW_AT_type(*DW$T$6)
      64                      .dwattr DW$17, DW_AT_declaration(0x01)
      65                      .dwattr DW$17, DW_AT_external(0x01)
      66              DW$18   .dwtag  DW_TAG_formal_parameter, DW_AT_type(*DW$T$23)
      67              DW$19   .dwtag  DW_TAG_formal_parameter, DW_AT_type(*DW$T$74)
      68                      .dwendtag DW$17
      69              
      70              
      71              DW$20   .dwtag  DW_TAG_subprogram, DW_AT_name("disk_read"), DW_AT_symbol_name("_disk_read")
      72                      .dwattr DW$20, DW_AT_type(*DW$T$108)
      73                      .dwattr DW$20, DW_AT_declaration(0x01)
      74                      .dwattr DW$20, DW_AT_external(0x01)
      75              DW$21   .dwtag  DW_TAG_formal_parameter, DW_AT_type(*DW$T$23)
      76              DW$22   .dwtag  DW_TAG_formal_parameter, DW_AT_type(*DW$T$32)
      77              DW$23   .dwtag  DW_TAG_formal_parameter, DW_AT_type(*DW$T$27)
      78              DW$24   .dwtag  DW_TAG_formal_parameter, DW_AT_type(*DW$T$23)
      79                      .dwendtag DW$20
      80              
      81              
      82              DW$25   .dwtag  DW_TAG_subprogram, DW_AT_name("ff_req_grant"), DW_AT_symbol_name("_ff_req_grant")
      83                      .dwattr DW$25, DW_AT_type(*DW$T$6)
      84                      .dwattr DW$25, DW_AT_declaration(0x01)
      85                      .dwattr DW$25, DW_AT_external(0x01)
      86              DW$26   .dwtag  DW_TAG_formal_parameter, DW_AT_type(*DW$T$26)
      87                      .dwendtag DW$25
      88              
      89              
      90              DW$27   .dwtag  DW_TAG_subprogram, DW_AT_name("disk_status"), DW_AT_symbol_name("_disk_status")
      91                      .dwattr DW$27, DW_AT_type(*DW$T$58)
      92                      .dwattr DW$27, DW_AT_declaration(0x01)
      93                      .dwattr DW$27, DW_AT_external(0x01)
      94              DW$28   .dwtag  DW_TAG_formal_parameter, DW_AT_type(*DW$T$23)
      95                      .dwendtag DW$27
      96              
      97              
      98              DW$29   .dwtag  DW_TAG_subprogram, DW_AT_name("get_fattime"), DW_AT_symbol_name("_get_fattime")
      99                      .dwattr DW$29, DW_AT_type(*DW$T$27)
     100                      .dwattr DW$29, DW_AT_declaration(0x01)
     101                      .dwattr DW$29, DW_AT_external(0x01)
     102 00000002       _FatFs: .usect  ".ebss",2,1,1
     103              DW$30   .dwtag  DW_TAG_variable, DW_AT_name("FatFs"), DW_AT_symbol_name("_FatFs")
     104                      .dwattr DW$30, DW_AT_type(*DW$T$127)
     105                      .dwattr DW$30, DW_AT_location[DW_OP_addr _FatFs]
     106              ;       C:\CCStudio_v3.3\C2000\cgtools\bin\ac2000.exe -@C:\DOCUME~1\ADMINI~1\LOCALS~1\Temp\TI1124 
     107 00000000               .sect   ".text"
     108              
     109              DW$31   .dwtag  DW_TAG_subprogram, DW_AT_name("mem_cpy"), DW_AT_symbol_name("_mem_cpy")
     110                      .dwattr DW$31, DW_AT_low_pc(_mem_cpy)
TMS320C2000 COFF Assembler PC v4.1.3 Thu May 05 10:06:00 2011

Tools Copyright (c) 1996-2006 Texas Instruments Incorporated
C:\DOCUME~1\ADMINI~1\LOCALS~1\Temp\TI1122                            PAGE    3

     111                      .dwattr DW$31, DW_AT_high_pc(0x00)
     112                      .dwattr DW$31, DW_AT_begin_file("ff.c")
     113                      .dwattr DW$31, DW_AT_begin_line(0x20a)
     114                      .dwattr DW$31, DW_AT_begin_column(0x06)
     115                      .dwpsn  "ff.c",523,1
     116              
     117                      .dwfde DW$CIE
     118              
     119              ;***************************************************************
     120              ;* FNAME: _mem_cpy                      FR SIZE:  10           *
     121              ;*                                                             *
     122              ;* FUNCTION ENVIRONMENT                                        *
     123              ;*                                                             *
     124              ;* FUNCTION PROPERTIES                                         *
     125              ;*                            0 Parameter, 10 Auto,  0 SOE     *
     126              ;***************************************************************
     127              
     128              _mem_cpy:
     129                      .dwcfa  0x1d, -2
     130                      .dwcfa  0x1c, 26, 0
     131                      .dwcfa  0x09, 40, 26
     132 00000000 FE0A          ADDB      SP,#10
     133                      .dwcfa  0x1d, -12
     134              ;* AR4   assigned to _dst
     135              DW$32   .dwtag  DW_TAG_formal_parameter, DW_AT_name("dst"), DW_AT_symbol_name("_dst")
     136                      .dwattr DW$32, DW_AT_type(*DW$T$3)
     137                      .dwattr DW$32, DW_AT_location[DW_OP_reg12]
     138              ;* AR5   assigned to _src
     139              DW$33   .dwtag  DW_TAG_formal_parameter, DW_AT_name("src"), DW_AT_symbol_name("_src")
     140                      .dwattr DW$33, DW_AT_type(*DW$T$42)
     141                      .dwattr DW$33, DW_AT_location[DW_OP_reg14]
     142              ;* AL    assigned to _cnt
     143              DW$34   .dwtag  DW_TAG_formal_parameter, DW_AT_name("cnt"), DW_AT_symbol_name("_cnt")
     144                      .dwattr DW$34, DW_AT_type(*DW$T$43)
     145                      .dwattr DW$34, DW_AT_location[DW_OP_reg0]
     146              DW$35   .dwtag  DW_TAG_variable, DW_AT_name("dst"), DW_AT_symbol_name("_dst")
     147                      .dwattr DW$35, DW_AT_type(*DW$T$3)
     148                      .dwattr DW$35, DW_AT_location[DW_OP_breg20 -2]
     149              DW$36   .dwtag  DW_TAG_variable, DW_AT_name("src"), DW_AT_symbol_name("_src")
     150                      .dwattr DW$36, DW_AT_type(*DW$T$42)
     151                      .dwattr DW$36, DW_AT_location[DW_OP_breg20 -4]
     152              DW$37   .dwtag  DW_TAG_variable, DW_AT_name("cnt"), DW_AT_symbol_name("_cnt")
     153                      .dwattr DW$37, DW_AT_type(*DW$T$43)
     154                      .dwattr DW$37, DW_AT_location[DW_OP_breg20 -5]
     155              DW$38   .dwtag  DW_TAG_variable, DW_AT_name("d"), DW_AT_symbol_name("_d")
     156                      .dwattr DW$38, DW_AT_type(*DW$T$32)
     157                      .dwattr DW$38, DW_AT_location[DW_OP_breg20 -8]
     158              DW$39   .dwtag  DW_TAG_variable, DW_AT_name("s"), DW_AT_symbol_name("_s")
     159                      .dwattr DW$39, DW_AT_type(*DW$T$62)
     160                      .dwattr DW$39, DW_AT_location[DW_OP_breg20 -10]
     161 00000001 9645          MOV       *-SP[5],AL            ; |523| 
     162 00000002 A044          MOVL      *-SP[4],XAR5          ; |523| 
     163 00000003 A842          MOVL      *-SP[2],XAR4          ; |523| 
     164                      .dwpsn  "ff.c",524,8
     165 00000004 0642          MOVL      ACC,*-SP[2]           ; |524| 
TMS320C2000 COFF Assembler PC v4.1.3 Thu May 05 10:06:00 2011

Tools Copyright (c) 1996-2006 Texas Instruments Incorporated
C:\DOCUME~1\ADMINI~1\LOCALS~1\Temp\TI1122                            PAGE    4

     166 00000005 1E48          MOVL      *-SP[8],ACC           ; |524| 
     167                      .dwpsn  "ff.c",525,14
     168 00000006 0644          MOVL      ACC,*-SP[4]           ; |525| 
     169 00000007 1E4A          MOVL      *-SP[10],ACC          ; |525| 
     170                      .dwpsn  "ff.c",536,2
     171 00000008 9345          MOV       AH,*-SP[5]            ; |536| 
     172 00000009 0B45          DEC       *-SP[5]               ; |536| 
     173 0000000a 5300          CMPB      AH,#0                 ; |536| 
     174 0000000b EC0D          BF        L2,EQ                 ; |536| 
     175                      ; branchcc occurs ; |536| 
     176              L1:    
     177              DW$L$_mem_cpy$2$B:
     178                      .dwpsn  "ff.c",537,3
     179 0000000c 8348          MOVL      XAR5,*-SP[8]          ; |537| 
     180 0000000d 0201          MOVB      ACC,#1
     181 0000000e 07A5          ADDL      ACC,XAR5
     182 0000000f 1E48          MOVL      *-SP[8],ACC           ; |537| 
     183 00000010 8A4A          MOVL      XAR4,*-SP[10]         ; |537| 
     184 00000011 9284          MOV       AL,*XAR4++            ; |537| 
     185 00000012 A84A          MOVL      *-SP[10],XAR4         ; |537| 
     186 00000013 96C5          MOV       *+XAR5[0],AL          ; |537| 
     187 00000014 9345          MOV       AH,*-SP[5]            ; |537| 
     188 00000015 0B45          DEC       *-SP[5]               ; |537| 
     189 00000016 5300          CMPB      AH,#0                 ; |537| 
     190 00000017 EDF5          BF        L1,NEQ                ; |537| 
     191                      ; branchcc occurs ; |537| 
     192              DW$L$_mem_cpy$2$E:
     193              L2:    
     194                      .dwpsn  "ff.c",538,1
     195 00000018 FE8A          SUBB      SP,#10
     196                      .dwcfa  0x1d, -2
     197 00000019 0006          LRETR
     198                      ; return occurs
     199              
     200              DW$40   .dwtag  DW_TAG_loop
     201                      .dwattr DW$40, DW_AT_name("C:\DOCUME~1\ADMINI~1\LOCALS~1\Temp\TI1122:L1:1:1304561157")
     202                      .dwattr DW$40, DW_AT_begin_file("ff.c")
     203                      .dwattr DW$40, DW_AT_begin_line(0x218)
     204                      .dwattr DW$40, DW_AT_end_line(0x219)
     205              DW$41   .dwtag  DW_TAG_loop_range
     206                      .dwattr DW$41, DW_AT_low_pc(DW$L$_mem_cpy$2$B)
     207                      .dwattr DW$41, DW_AT_high_pc(DW$L$_mem_cpy$2$E)
     208                      .dwendtag DW$40
     209              
     210                      .dwattr DW$31, DW_AT_end_file("ff.c")
     211                      .dwattr DW$31, DW_AT_end_line(0x21a)
     212                      .dwattr DW$31, DW_AT_end_column(0x01)
     213                      .dwendentry
     214                      .dwendtag DW$31
     215              
     216 0000001a               .sect   ".text"
     217              
     218              DW$42   .dwtag  DW_TAG_subprogram, DW_AT_name("mem_set"), DW_AT_symbol_name("_mem_set")
     219                      .dwattr DW$42, DW_AT_low_pc(_mem_set)
     220                      .dwattr DW$42, DW_AT_high_pc(0x00)
TMS320C2000 COFF Assembler PC v4.1.3 Thu May 05 10:06:00 2011

Tools Copyright (c) 1996-2006 Texas Instruments Incorporated
C:\DOCUME~1\ADMINI~1\LOCALS~1\Temp\TI1122                            PAGE    5

     221                      .dwattr DW$42, DW_AT_begin_file("ff.c")
     222                      .dwattr DW$42, DW_AT_begin_line(0x21e)
     223                      .dwattr DW$42, DW_AT_begin_column(0x06)
     224                      .dwpsn  "ff.c",543,1
     225              
     226                      .dwfde DW$CIE
     227              
     228              ;***************************************************************
     229              ;* FNAME: _mem_set                      FR SIZE:   6           *
     230              ;*                                                             *
     231              ;* FUNCTION ENVIRONMENT                                        *
     232              ;*                                                             *
     233              ;* FUNCTION PROPERTIES                                         *
     234              ;*                            0 Parameter,  6 Auto,  0 SOE     *
     235              ;***************************************************************
     236              
     237              _mem_set:
     238                      .dwcfa  0x1d, -2
     239                      .dwcfa  0x1c, 26, 0
     240                      .dwcfa  0x09, 40, 26
     241 0000001a FE06          ADDB      SP,#6
     242                      .dwcfa  0x1d, -8
     243              ;* AR4   assigned to _dst
     244              DW$43   .dwtag  DW_TAG_formal_parameter, DW_AT_name("dst"), DW_AT_symbol_name("_dst")
     245                      .dwattr DW$43, DW_AT_type(*DW$T$3)
     246                      .dwattr DW$43, DW_AT_location[DW_OP_reg12]
     247              ;* AL    assigned to _val
     248              DW$44   .dwtag  DW_TAG_formal_parameter, DW_AT_name("val"), DW_AT_symbol_name("_val")
     249                      .dwattr DW$44, DW_AT_type(*DW$T$10)
     250                      .dwattr DW$44, DW_AT_location[DW_OP_reg0]
     251              ;* AH    assigned to _cnt
     252              DW$45   .dwtag  DW_TAG_formal_parameter, DW_AT_name("cnt"), DW_AT_symbol_name("_cnt")
     253                      .dwattr DW$45, DW_AT_type(*DW$T$43)
     254                      .dwattr DW$45, DW_AT_location[DW_OP_reg1]
     255              DW$46   .dwtag  DW_TAG_variable, DW_AT_name("dst"), DW_AT_symbol_name("_dst")
     256                      .dwattr DW$46, DW_AT_type(*DW$T$3)
     257                      .dwattr DW$46, DW_AT_location[DW_OP_breg20 -2]
     258              DW$47   .dwtag  DW_TAG_variable, DW_AT_name("val"), DW_AT_symbol_name("_val")
     259                      .dwattr DW$47, DW_AT_type(*DW$T$10)
     260                      .dwattr DW$47, DW_AT_location[DW_OP_breg20 -3]
     261              DW$48   .dwtag  DW_TAG_variable, DW_AT_name("cnt"), DW_AT_symbol_name("_cnt")
     262                      .dwattr DW$48, DW_AT_type(*DW$T$43)
     263                      .dwattr DW$48, DW_AT_location[DW_OP_breg20 -4]
     264              DW$49   .dwtag  DW_TAG_variable, DW_AT_name("d"), DW_AT_symbol_name("_d")
     265                      .dwattr DW$49, DW_AT_type(*DW$T$32)
     266                      .dwattr DW$49, DW_AT_location[DW_OP_breg20 -6]
     267 0000001b 9744          MOV       *-SP[4],AH            ; |543| 
     268 0000001c 9643          MOV       *-SP[3],AL            ; |543| 
     269 0000001d A842          MOVL      *-SP[2],XAR4          ; |543| 
     270                      .dwpsn  "ff.c",544,8
     271 0000001e 0642          MOVL      ACC,*-SP[2]           ; |544| 
     272 0000001f 1E46          MOVL      *-SP[6],ACC           ; |544| 
     273                      .dwpsn  "ff.c",546,2
     274 00000020 9344          MOV       AH,*-SP[4]            ; |546| 
     275 00000021 0B44          DEC       *-SP[4]               ; |546| 
TMS320C2000 COFF Assembler PC v4.1.3 Thu May 05 10:06:00 2011

Tools Copyright (c) 1996-2006 Texas Instruments Incorporated
C:\DOCUME~1\ADMINI~1\LOCALS~1\Temp\TI1122                            PAGE    6

     276 00000022 5300          CMPB      AH,#0                 ; |546| 
     277 00000023 EC0B          BF        L4,EQ                 ; |546| 
     278                      ; branchcc occurs ; |546| 
     279              L3:    
     280              DW$L$_mem_set$2$B:
     281                      .dwpsn  "ff.c",547,3
     282 00000024 8A46          MOVL      XAR4,*-SP[6]          ; |547| 
     283 00000025 0201          MOVB      ACC,#1
     284 00000026 07A4          ADDL      ACC,XAR4
     285 00000027 1E46          MOVL      *-SP[6],ACC           ; |547| 
     286 00000028 9243          MOV       AL,*-SP[3]            ; |547| 
     287 00000029 96C4          MOV       *+XAR4[0],AL          ; |547| 
     288 0000002a 9344          MOV       AH,*-SP[4]            ; |547| 
     289 0000002b 0B44          DEC       *-SP[4]               ; |547| 
     290 0000002c 5300          CMPB      AH,#0                 ; |547| 
     291 0000002d EDF7          BF        L3,NEQ                ; |547| 
     292                      ; branchcc occurs ; |547| 
     293              DW$L$_mem_set$2$E:
     294              L4:    
     295                      .dwpsn  "ff.c",548,1
     296 0000002e FE86          SUBB      SP,#6
     297                      .dwcfa  0x1d, -2
     298 0000002f 0006          LRETR
     299                      ; return occurs
     300              
     301              DW$50   .dwtag  DW_TAG_loop
     302                      .dwattr DW$50, DW_AT_name("C:\DOCUME~1\ADMINI~1\LOCALS~1\Temp\TI1122:L3:1:1304561157")
     303                      .dwattr DW$50, DW_AT_begin_file("ff.c")
     304                      .dwattr DW$50, DW_AT_begin_line(0x222)
     305                      .dwattr DW$50, DW_AT_end_line(0x223)
     306              DW$51   .dwtag  DW_TAG_loop_range
     307                      .dwattr DW$51, DW_AT_low_pc(DW$L$_mem_set$2$B)
     308                      .dwattr DW$51, DW_AT_high_pc(DW$L$_mem_set$2$E)
     309                      .dwendtag DW$50
     310              
     311                      .dwattr DW$42, DW_AT_end_file("ff.c")
     312                      .dwattr DW$42, DW_AT_end_line(0x224)
     313                      .dwattr DW$42, DW_AT_end_column(0x01)
     314                      .dwendentry
     315                      .dwendtag DW$42
     316              
     317 00000030               .sect   ".text"
     318              
     319              DW$52   .dwtag  DW_TAG_subprogram, DW_AT_name("mem_cmp"), DW_AT_symbol_name("_mem_cmp")
     320                      .dwattr DW$52, DW_AT_low_pc(_mem_cmp)
     321                      .dwattr DW$52, DW_AT_high_pc(0x00)
     322                      .dwattr DW$52, DW_AT_begin_file("ff.c")
     323                      .dwattr DW$52, DW_AT_begin_line(0x228)
     324                      .dwattr DW$52, DW_AT_begin_column(0x05)
     325                      .dwpsn  "ff.c",553,1
     326              
     327                      .dwfde DW$CIE
     328              
     329              ;***************************************************************
     330              ;* FNAME: _mem_cmp                      FR SIZE:  12           *
TMS320C2000 COFF Assembler PC v4.1.3 Thu May 05 10:06:00 2011

Tools Copyright (c) 1996-2006 Texas Instruments Incorporated
C:\DOCUME~1\ADMINI~1\LOCALS~1\Temp\TI1122                            PAGE    7

     331              ;*                                                             *
     332              ;* FUNCTION ENVIRONMENT                                        *
     333              ;*                                                             *
     334              ;* FUNCTION PROPERTIES                                         *
     335              ;*                            0 Parameter, 11 Auto,  0 SOE     *
     336              ;***************************************************************
     337              
     338              _mem_cmp:
     339                      .dwcfa  0x1d, -2
     340                      .dwcfa  0x1c, 26, 0
     341                      .dwcfa  0x09, 40, 26
     342 00000030 FE0C          ADDB      SP,#12
     343                      .dwcfa  0x1d, -14
     344              ;* AR4   assigned to _dst
     345              DW$53   .dwtag  DW_TAG_formal_parameter, DW_AT_name("dst"), DW_AT_symbol_name("_dst")
     346                      .dwattr DW$53, DW_AT_type(*DW$T$42)
     347                      .dwattr DW$53, DW_AT_location[DW_OP_reg12]
     348              ;* AR5   assigned to _src
     349              DW$54   .dwtag  DW_TAG_formal_parameter, DW_AT_name("src"), DW_AT_symbol_name("_src")
     350                      .dwattr DW$54, DW_AT_type(*DW$T$42)
     351                      .dwattr DW$54, DW_AT_location[DW_OP_reg14]
     352              ;* AL    assigned to _cnt
     353              DW$55   .dwtag  DW_TAG_formal_parameter, DW_AT_name("cnt"), DW_AT_symbol_name("_cnt")
     354                      .dwattr DW$55, DW_AT_type(*DW$T$43)
     355                      .dwattr DW$55, DW_AT_location[DW_OP_reg0]
     356              DW$56   .dwtag  DW_TAG_variable, DW_AT_name("dst"), DW_AT_symbol_name("_dst")
     357                      .dwattr DW$56, DW_AT_type(*DW$T$42)
     358                      .dwattr DW$56, DW_AT_location[DW_OP_breg20 -2]
     359              DW$57   .dwtag  DW_TAG_variable, DW_AT_name("src"), DW_AT_symbol_name("_src")
     360                      .dwattr DW$57, DW_AT_type(*DW$T$42)
     361                      .dwattr DW$57, DW_AT_location[DW_OP_breg20 -4]
     362              DW$58   .dwtag  DW_TAG_variable, DW_AT_name("cnt"), DW_AT_symbol_name("_cnt")
     363                      .dwattr DW$58, DW_AT_type(*DW$T$43)
     364                      .dwattr DW$58, DW_AT_location[DW_OP_breg20 -5]
     365              DW$59   .dwtag  DW_TAG_variable, DW_AT_name("d"), DW_AT_symbol_name("_d")
     366                      .dwattr DW$59, DW_AT_type(*DW$T$62)
     367                      .dwattr DW$59, DW_AT_location[DW_OP_breg20 -8]
     368              DW$60   .dwtag  DW_TAG_variable, DW_AT_name("s"), DW_AT_symbol_name("_s")
     369                      .dwattr DW$60, DW_AT_type(*DW$T$62)
     370                      .dwattr DW$60, DW_AT_location[DW_OP_breg20 -10]
     371              DW$61   .dwtag  DW_TAG_variable, DW_AT_name("r"), DW_AT_symbol_name("_r")
     372                      .dwattr DW$61, DW_AT_type(*DW$T$10)
     373                      .dwattr DW$61, DW_AT_location[DW_OP_breg20 -11]
     374 00000031 9645          MOV       *-SP[5],AL            ; |553| 
     375 00000032 A044          MOVL      *-SP[4],XAR5          ; |553| 
     376 00000033 A842          MOVL      *-SP[2],XAR4          ; |553| 
     377                      .dwpsn  "ff.c",554,14
     378 00000034 0642          MOVL      ACC,*-SP[2]           ; |554| 
     379 00000035 1E48          MOVL      *-SP[8],ACC           ; |554| 
     380                      .dwpsn  "ff.c",554,40
     381 00000036 0644          MOVL      ACC,*-SP[4]           ; |554| 
     382 00000037 1E4A          MOVL      *-SP[10],ACC          ; |554| 
     383                      .dwpsn  "ff.c",555,6
     384 00000038 2B4B          MOV       *-SP[11],#0           ; |555| 
     385                      .dwpsn  "ff.c",557,2
TMS320C2000 COFF Assembler PC v4.1.3 Thu May 05 10:06:00 2011

Tools Copyright (c) 1996-2006 Texas Instruments Incorporated
C:\DOCUME~1\ADMINI~1\LOCALS~1\Temp\TI1122                            PAGE    8

     386              L5:    
     387              DW$L$_mem_cmp$2$B:
     388                      .dwpsn  "ff.c",557,10
     389 00000039 9345          MOV       AH,*-SP[5]            ; |557| 
     390 0000003a 0B45          DEC       *-SP[5]               ; |557| 
     391 0000003b 5300          CMPB      AH,#0                 ; |557| 
     392 0000003c EC0A          BF        L6,EQ                 ; |557| 
     393                      ; branchcc occurs ; |557| 
     394 0000003d       DW$L$_mem_cmp$2$E:
     395 0000003d       DW$L$_mem_cmp$3$B:
     396 0000003d 8A4A          MOVL      XAR4,*-SP[10]         ; |557| 
     397 0000003e 9384          MOV       AH,*XAR4++            ; |557| 
     398 0000003f A84A          MOVL      *-SP[10],XAR4         ; |557| 
     399 00000040 8A48          MOVL      XAR4,*-SP[8]          ; |557| 
     400 00000041 9284          MOV       AL,*XAR4++            ; |557| 
     401 00000042 9EA8          SUB       AL,AH                 ; |557| 
     402 00000043 A848          MOVL      *-SP[8],XAR4          ; |557| 
     403 00000044 964B          MOV       *-SP[11],AL           ; |557| 
     404 00000045 ECF4          BF        L5,EQ                 ; |557| 
     405                      ; branchcc occurs ; |557| 
     406              DW$L$_mem_cmp$3$E:
     407              L6:    
     408                      .dwpsn  "ff.c",558,2
     409 00000046 924B          MOV       AL,*-SP[11]           ; |558| 
     410                      .dwpsn  "ff.c",559,1
     411 00000047 FE8C          SUBB      SP,#12                ; |558| 
     412                      .dwcfa  0x1d, -2
     413 00000048 0006          LRETR
     414                      ; return occurs
     415              
     416              DW$62   .dwtag  DW_TAG_loop
     417                      .dwattr DW$62, DW_AT_name("C:\DOCUME~1\ADMINI~1\LOCALS~1\Temp\TI1122:L5:1:1304561157")
     418                      .dwattr DW$62, DW_AT_begin_file("ff.c")
     419                      .dwattr DW$62, DW_AT_begin_line(0x22d)
     420                      .dwattr DW$62, DW_AT_end_line(0x22d)
     421              DW$63   .dwtag  DW_TAG_loop_range
     422                      .dwattr DW$63, DW_AT_low_pc(DW$L$_mem_cmp$2$B)
     423                      .dwattr DW$63, DW_AT_high_pc(DW$L$_mem_cmp$2$E)
     424              DW$64   .dwtag  DW_TAG_loop_range
     425                      .dwattr DW$64, DW_AT_low_pc(DW$L$_mem_cmp$3$B)
     426                      .dwattr DW$64, DW_AT_high_pc(DW$L$_mem_cmp$3$E)
     427                      .dwendtag DW$62
     428              
     429                      .dwattr DW$52, DW_AT_end_file("ff.c")
     430                      .dwattr DW$52, DW_AT_end_line(0x22f)
     431                      .dwattr DW$52, DW_AT_end_column(0x01)
     432                      .dwendentry
     433                      .dwendtag DW$52
     434              
     435 00000049               .sect   ".text"
     436              
     437              DW$65   .dwtag  DW_TAG_subprogram, DW_AT_name("chk_chr"), DW_AT_symbol_name("_chk_chr")
     438                      .dwattr DW$65, DW_AT_low_pc(_chk_chr)
     439                      .dwattr DW$65, DW_AT_high_pc(0x00)
     440                      .dwattr DW$65, DW_AT_begin_file("ff.c")
TMS320C2000 COFF Assembler PC v4.1.3 Thu May 05 10:06:00 2011

Tools Copyright (c) 1996-2006 Texas Instruments Incorporated
C:\DOCUME~1\ADMINI~1\LOCALS~1\Temp\TI1122                            PAGE    9

     441                      .dwattr DW$65, DW_AT_begin_line(0x233)
     442                      .dwattr DW$65, DW_AT_begin_column(0x05)
     443                      .dwpsn  "ff.c",564,1
     444              
     445                      .dwfde DW$CIE
     446              
     447              ;***************************************************************
     448              ;* FNAME: _chk_chr                      FR SIZE:   4           *
     449              ;*                                                             *
     450              ;* FUNCTION ENVIRONMENT                                        *
     451              ;*                                                             *
     452              ;* FUNCTION PROPERTIES                                         *
     453              ;*                            0 Parameter,  3 Auto,  0 SOE     *
     454              ;***************************************************************
     455              
     456              _chk_chr:
     457                      .dwcfa  0x1d, -2
     458                      .dwcfa  0x1c, 26, 0
     459                      .dwcfa  0x09, 40, 26
     460 00000049 FE04          ADDB      SP,#4
     461                      .dwcfa  0x1d, -6
     462              ;* AR4   assigned to _str
     463              DW$66   .dwtag  DW_TAG_formal_parameter, DW_AT_name("str"), DW_AT_symbol_name("_str")
     464                      .dwattr DW$66, DW_AT_type(*DW$T$83)
     465                      .dwattr DW$66, DW_AT_location[DW_OP_reg12]
     466              ;* AL    assigned to _chr
     467              DW$67   .dwtag  DW_TAG_formal_parameter, DW_AT_name("chr"), DW_AT_symbol_name("_chr")
     468                      .dwattr DW$67, DW_AT_type(*DW$T$10)
     469                      .dwattr DW$67, DW_AT_location[DW_OP_reg0]
     470              DW$68   .dwtag  DW_TAG_variable, DW_AT_name("str"), DW_AT_symbol_name("_str")
     471                      .dwattr DW$68, DW_AT_type(*DW$T$83)
     472                      .dwattr DW$68, DW_AT_location[DW_OP_breg20 -2]
     473              DW$69   .dwtag  DW_TAG_variable, DW_AT_name("chr"), DW_AT_symbol_name("_chr")
     474                      .dwattr DW$69, DW_AT_type(*DW$T$10)
     475                      .dwattr DW$69, DW_AT_location[DW_OP_breg20 -3]
     476 0000004a 9643          MOV       *-SP[3],AL            ; |564| 
     477 0000004b A842          MOVL      *-SP[2],XAR4          ; |564| 
     478                      .dwpsn  "ff.c",565,2
     479 0000004c 6F04          B         L8,UNC                ; |565| 
     480                      ; branch occurs ; |565| 
     481              L7:    
     482              DW$L$_chk_chr$2$B:
     483                      .dwpsn  "ff.c",565,32
     484 0000004d 0201          MOVB      ACC,#1
     485 0000004e 5601          ADDL      *-SP[2],ACC           ; |565| 
         0000004f 0042 
     486              DW$L$_chk_chr$2$E:
     487              L8:    
     488              DW$L$_chk_chr$3$B:
     489                      .dwpsn  "ff.c",565,10
     490 00000050 8A42          MOVL      XAR4,*-SP[2]          ; |565| 
     491 00000051 92C4          MOV       AL,*+XAR4[0]          ; |565| 
     492 00000052 EC05          BF        L9,EQ                 ; |565| 
     493                      ; branchcc occurs ; |565| 
     494 00000053       DW$L$_chk_chr$3$E:
TMS320C2000 COFF Assembler PC v4.1.3 Thu May 05 10:06:00 2011

Tools Copyright (c) 1996-2006 Texas Instruments Incorporated
C:\DOCUME~1\ADMINI~1\LOCALS~1\Temp\TI1122                            PAGE   10

     495 00000053       DW$L$_chk_chr$4$B:
     496 00000053 8A42          MOVL      XAR4,*-SP[2]          ; |565| 
     497 00000054 9243          MOV       AL,*-SP[3]            ; |565| 
     498 00000055 54C4          CMP       AL,*+XAR4[0]          ; |565| 
     499 00000056 EDF7          BF        L7,NEQ                ; |565| 
     500                      ; branchcc occurs ; |565| 
     501              DW$L$_chk_chr$4$E:
     502              L9:    
     503                      .dwpsn  "ff.c",566,2
     504 00000057 8A42          MOVL      XAR4,*-SP[2]          ; |566| 
     505 00000058 92C4          MOV       AL,*+XAR4[0]          ; |566| 
     506                      .dwpsn  "ff.c",567,1
     507 00000059 FE84          SUBB      SP,#4                 ; |566| 
     508                      .dwcfa  0x1d, -2
     509 0000005a 0006          LRETR
     510                      ; return occurs
     511              
     512              DW$70   .dwtag  DW_TAG_loop
     513                      .dwattr DW$70, DW_AT_name("C:\DOCUME~1\ADMINI~1\LOCALS~1\Temp\TI1122:L8:1:1304561157")
     514                      .dwattr DW$70, DW_AT_begin_file("ff.c")
     515                      .dwattr DW$70, DW_AT_begin_line(0x235)
     516                      .dwattr DW$70, DW_AT_end_line(0x235)
     517              DW$71   .dwtag  DW_TAG_loop_range
     518                      .dwattr DW$71, DW_AT_low_pc(DW$L$_chk_chr$3$B)
     519                      .dwattr DW$71, DW_AT_high_pc(DW$L$_chk_chr$3$E)
     520              DW$72   .dwtag  DW_TAG_loop_range
     521                      .dwattr DW$72, DW_AT_low_pc(DW$L$_chk_chr$4$B)
     522                      .dwattr DW$72, DW_AT_high_pc(DW$L$_chk_chr$4$E)
     523              DW$73   .dwtag  DW_TAG_loop_range
     524                      .dwattr DW$73, DW_AT_low_pc(DW$L$_chk_chr$2$B)
     525                      .dwattr DW$73, DW_AT_high_pc(DW$L$_chk_chr$2$E)
     526                      .dwendtag DW$70
     527              
     528                      .dwattr DW$65, DW_AT_end_file("ff.c")
     529                      .dwattr DW$65, DW_AT_end_line(0x237)
     530                      .dwattr DW$65, DW_AT_end_column(0x01)
     531                      .dwendentry
     532                      .dwendtag DW$65
     533              
     534 0000005b               .sect   ".text"
     535              
     536              DW$74   .dwtag  DW_TAG_subprogram, DW_AT_name("lock_fs"), DW_AT_symbol_name("_lock_fs")
     537                      .dwattr DW$74, DW_AT_low_pc(_lock_fs)
     538                      .dwattr DW$74, DW_AT_high_pc(0x00)
     539                      .dwattr DW$74, DW_AT_begin_file("ff.c")
     540                      .dwattr DW$74, DW_AT_begin_line(0x241)
     541                      .dwattr DW$74, DW_AT_begin_column(0x05)
     542                      .dwpsn  "ff.c",580,1
     543              
     544                      .dwfde DW$CIE
     545              
     546              ;***************************************************************
     547              ;* FNAME: _lock_fs                      FR SIZE:   2           *
     548              ;*                                                             *
     549              ;* FUNCTION ENVIRONMENT                                        *
TMS320C2000 COFF Assembler PC v4.1.3 Thu May 05 10:06:00 2011

Tools Copyright (c) 1996-2006 Texas Instruments Incorporated
C:\DOCUME~1\ADMINI~1\LOCALS~1\Temp\TI1122                            PAGE   11

     550              ;*                                                             *
     551              ;* FUNCTION PROPERTIES                                         *
     552              ;*                            0 Parameter,  2 Auto,  0 SOE     *
     553              ;***************************************************************
     554              
     555              _lock_fs:
     556                      .dwcfa  0x1d, -2
     557                      .dwcfa  0x1c, 26, 0
     558                      .dwcfa  0x09, 40, 26
     559 0000005b FE02          ADDB      SP,#2
     560                      .dwcfa  0x1d, -4
     561              ;* AR4   assigned to _fs
     562              DW$75   .dwtag  DW_TAG_formal_parameter, DW_AT_name("fs"), DW_AT_symbol_name("_fs")
     563                      .dwattr DW$75, DW_AT_type(*DW$T$31)
     564                      .dwattr DW$75, DW_AT_location[DW_OP_reg12]
     565              DW$76   .dwtag  DW_TAG_variable, DW_AT_name("fs"), DW_AT_symbol_name("_fs")
     566                      .dwattr DW$76, DW_AT_type(*DW$T$31)
     567                      .dwattr DW$76, DW_AT_location[DW_OP_breg20 -2]
     568 0000005c A842          MOVL      *-SP[2],XAR4          ; |580| 
     569                      .dwpsn  "ff.c",581,2
     570 0000005d 8A42          MOVL      XAR4,*-SP[2]          ; |581| 
     571 0000005e D008          MOVB      XAR0,#8               ; |581| 
     572 0000005f 8A94          MOVL      XAR4,*+XAR4[AR0]      ; |581| 
     573 00000060 7640!         LCR       #_ff_req_grant        ; |581| 
         00000061 0000 
     574                      ; call occurs [#_ff_req_grant] ; |581| 
     575                      .dwpsn  "ff.c",582,1
     576 00000062 FE82          SUBB      SP,#2                 ; |581| 
     577                      .dwcfa  0x1d, -2
     578 00000063 0006          LRETR
     579                      ; return occurs
     580                      .dwattr DW$74, DW_AT_end_file("ff.c")
     581                      .dwattr DW$74, DW_AT_end_line(0x246)
     582                      .dwattr DW$74, DW_AT_end_column(0x01)
     583                      .dwendentry
     584                      .dwendtag DW$74
     585              
     586 00000064               .sect   ".text"
     587              
     588              DW$77   .dwtag  DW_TAG_subprogram, DW_AT_name("unlock_fs"), DW_AT_symbol_name("_unlock_fs")
     589                      .dwattr DW$77, DW_AT_low_pc(_unlock_fs)
     590                      .dwattr DW$77, DW_AT_high_pc(0x00)
     591                      .dwattr DW$77, DW_AT_begin_file("ff.c")
     592                      .dwattr DW$77, DW_AT_begin_line(0x24a)
     593                      .dwattr DW$77, DW_AT_begin_column(0x06)
     594                      .dwpsn  "ff.c",590,1
     595              
     596                      .dwfde DW$CIE
     597              
     598              ;***************************************************************
     599              ;* FNAME: _unlock_fs                    FR SIZE:   4           *
     600              ;*                                                             *
     601              ;* FUNCTION ENVIRONMENT                                        *
     602              ;*                                                             *
     603              ;* FUNCTION PROPERTIES                                         *
TMS320C2000 COFF Assembler PC v4.1.3 Thu May 05 10:06:00 2011

Tools Copyright (c) 1996-2006 Texas Instruments Incorporated
C:\DOCUME~1\ADMINI~1\LOCALS~1\Temp\TI1122                            PAGE   12

     604              ;*                            0 Parameter,  3 Auto,  0 SOE     *
     605              ;***************************************************************
     606              
     607              _unlock_fs:
     608                      .dwcfa  0x1d, -2
     609                      .dwcfa  0x1c, 26, 0
     610                      .dwcfa  0x09, 40, 26
     611 00000064 FE04          ADDB      SP,#4
     612                      .dwcfa  0x1d, -6
     613              ;* AR4   assigned to _fs
     614              DW$78   .dwtag  DW_TAG_formal_parameter, DW_AT_name("fs"), DW_AT_symbol_name("_fs")
     615                      .dwattr DW$78, DW_AT_type(*DW$T$31)
     616                      .dwattr DW$78, DW_AT_location[DW_OP_reg12]
     617              ;* AL    assigned to _res
     618              DW$79   .dwtag  DW_TAG_formal_parameter, DW_AT_name("res"), DW_AT_symbol_name("_res")
     619                      .dwattr DW$79, DW_AT_type(*DW$T$49)
     620                      .dwattr DW$79, DW_AT_location[DW_OP_reg0]
     621              DW$80   .dwtag  DW_TAG_variable, DW_AT_name("fs"), DW_AT_symbol_name("_fs")
     622                      .dwattr DW$80, DW_AT_type(*DW$T$31)
     623                      .dwattr DW$80, DW_AT_location[DW_OP_breg20 -2]
     624              DW$81   .dwtag  DW_TAG_variable, DW_AT_name("res"), DW_AT_symbol_name("_res")
     625                      .dwattr DW$81, DW_AT_type(*DW$T$49)
     626                      .dwattr DW$81, DW_AT_location[DW_OP_breg20 -3]
     627 00000065 9643          MOV       *-SP[3],AL            ; |590| 
     628 00000066 A842          MOVL      *-SP[2],XAR4          ; |590| 
     629                      .dwpsn  "ff.c",591,2
     630 00000067 9243          MOV       AL,*-SP[3]            ; |591| 
     631 00000068 520C          CMPB      AL,#12                ; |591| 
     632 00000069 EC0C          BF        L10,EQ                ; |591| 
     633                      ; branchcc occurs ; |591| 
     634 0000006a 520B          CMPB      AL,#11                ; |591| 
     635 0000006b EC0A          BF        L10,EQ                ; |591| 
     636                      ; branchcc occurs ; |591| 
     637 0000006c 5209          CMPB      AL,#9                 ; |591| 
     638 0000006d EC08          BF        L10,EQ                ; |591| 
     639                      ; branchcc occurs ; |591| 
     640 0000006e 520F          CMPB      AL,#15                ; |591| 
     641 0000006f EC06          BF        L10,EQ                ; |591| 
     642                      ; branchcc occurs ; |591| 
     643                      .dwpsn  "ff.c",596,3
     644 00000070 8A42          MOVL      XAR4,*-SP[2]          ; |596| 
     645 00000071 D008          MOVB      XAR0,#8               ; |596| 
     646 00000072 8A94          MOVL      XAR4,*+XAR4[AR0]      ; |596| 
     647 00000073 7640!         LCR       #_ff_rel_grant        ; |596| 
         00000074 0000 
     648                      ; call occurs [#_ff_rel_grant] ; |596| 
     649                      .dwpsn  "ff.c",597,2
     650              L10:    
     651                      .dwpsn  "ff.c",598,1
     652 00000075 FE84          SUBB      SP,#4
     653                      .dwcfa  0x1d, -2
     654 00000076 0006          LRETR
     655                      ; return occurs
     656                      .dwattr DW$77, DW_AT_end_file("ff.c")
     657                      .dwattr DW$77, DW_AT_end_line(0x256)
TMS320C2000 COFF Assembler PC v4.1.3 Thu May 05 10:06:00 2011

Tools Copyright (c) 1996-2006 Texas Instruments Incorporated
C:\DOCUME~1\ADMINI~1\LOCALS~1\Temp\TI1122                            PAGE   13

     658                      .dwattr DW$77, DW_AT_end_column(0x01)
     659                      .dwendentry
     660                      .dwendtag DW$77
     661              
     662 00000077               .sect   ".text"
     663              
     664              DW$82   .dwtag  DW_TAG_subprogram, DW_AT_name("move_window"), DW_AT_symbol_name("_move_window")
     665                      .dwattr DW$82, DW_AT_low_pc(_move_window)
     666                      .dwattr DW$82, DW_AT_high_pc(0x00)
     667                      .dwattr DW$82, DW_AT_begin_file("ff.c")
     668                      .dwattr DW$82, DW_AT_begin_line(0x2db)
     669                      .dwattr DW$82, DW_AT_begin_column(0x09)
     670                      .dwpsn  "ff.c",735,1
     671              
     672                      .dwfde DW$CIE
     673              
     674              ;***************************************************************
     675              ;* FNAME: _move_window                  FR SIZE:  10           *
     676              ;*                                                             *
     677              ;* FUNCTION ENVIRONMENT                                        *
     678              ;*                                                             *
     679              ;* FUNCTION PROPERTIES                                         *
     680              ;*                            1 Parameter,  8 Auto,  0 SOE     *
     681              ;***************************************************************
     682              
     683              _move_window:
     684                      .dwcfa  0x1d, -2
     685                      .dwcfa  0x1c, 26, 0
     686                      .dwcfa  0x09, 40, 26
     687 00000077 FE0A          ADDB      SP,#10
     688                      .dwcfa  0x1d, -12
     689              ;* AR4   assigned to _fs
     690              DW$83   .dwtag  DW_TAG_formal_parameter, DW_AT_name("fs"), DW_AT_symbol_name("_fs")
     691                      .dwattr DW$83, DW_AT_type(*DW$T$31)
     692                      .dwattr DW$83, DW_AT_location[DW_OP_reg12]
     693              ;* AL    assigned to _sector
     694              DW$84   .dwtag  DW_TAG_formal_parameter, DW_AT_name("sector"), DW_AT_symbol_name("_sector")
     695                      .dwattr DW$84, DW_AT_type(*DW$T$27)
     696                      .dwattr DW$84, DW_AT_location[DW_OP_reg0]
     697              DW$85   .dwtag  DW_TAG_variable, DW_AT_name("fs"), DW_AT_symbol_name("_fs")
     698                      .dwattr DW$85, DW_AT_type(*DW$T$31)
     699                      .dwattr DW$85, DW_AT_location[DW_OP_breg20 -4]
     700              DW$86   .dwtag  DW_TAG_variable, DW_AT_name("sector"), DW_AT_symbol_name("_sector")
     701                      .dwattr DW$86, DW_AT_type(*DW$T$27)
     702                      .dwattr DW$86, DW_AT_location[DW_OP_breg20 -6]
     703              DW$87   .dwtag  DW_TAG_variable, DW_AT_name("wsect"), DW_AT_symbol_name("_wsect")
     704                      .dwattr DW$87, DW_AT_type(*DW$T$27)
     705                      .dwattr DW$87, DW_AT_location[DW_OP_breg20 -8]
     706 00000078 1E46          MOVL      *-SP[6],ACC           ; |735| 
     707 00000079 A844          MOVL      *-SP[4],XAR4          ; |735| 
     708                      .dwpsn  "ff.c",739,2
     709 0000007a 8A44          MOVL      XAR4,*-SP[4]          ; |739| 
     710 0000007b D01A          MOVB      XAR0,#26              ; |739| 
     711 0000007c 0694          MOVL      ACC,*+XAR4[AR0]       ; |739| 
     712 0000007d 1E48          MOVL      *-SP[8],ACC           ; |739| 
TMS320C2000 COFF Assembler PC v4.1.3 Thu May 05 10:06:00 2011

Tools Copyright (c) 1996-2006 Texas Instruments Incorporated
C:\DOCUME~1\ADMINI~1\LOCALS~1\Temp\TI1122                            PAGE   14

     713                      .dwpsn  "ff.c",740,2
     714 0000007e 0646          MOVL      ACC,*-SP[6]           ; |740| 
     715 0000007f 0F48          CMPL      ACC,*-SP[8]           ; |740| 
     716 00000080 EC45          BF        L16,EQ                ; |740| 
     717                      ; branchcc occurs ; |740| 
     718                      .dwpsn  "ff.c",743,3
     719 00000081 8A44          MOVL      XAR4,*-SP[4]          ; |743| 
     720 00000082 92E4          MOV       AL,*+XAR4[4]          ; |743| 
     721 00000083 EC2F          BF        L14,EQ                ; |743| 
     722                      ; branchcc occurs ; |743| 
     723                      .dwpsn  "ff.c",745,4
     724 00000084 2841          MOV       *-SP[1],#1            ; |745| 
         00000085 0001 
     725 00000086 8A44          MOVL      XAR4,*-SP[4]          ; |745| 
     726 00000087 5DCC          MOVZ      AR5,*+XAR4[1]         ; |745| 
     727 00000088 8A44          MOVL      XAR4,*-SP[4]          ; |745| 
     728 00000089 0648          MOVL      ACC,*-SP[8]           ; |745| 
     729 0000008a DC1C          ADDB      XAR4,#28              ; |745| 
     730 0000008b 7640!         LCR       #_disk_write          ; |745| 
         0000008c 0000 
     731                      ; call occurs [#_disk_write] ; |745| 
     732 0000008d 5200          CMPB      AL,#0                 ; |745| 
     733 0000008e EC03          BF        L11,EQ                ; |745| 
     734                      ; branchcc occurs ; |745| 
     735                      .dwpsn  "ff.c",746,5
     736 0000008f 9A01          MOVB      AL,#1                 ; |746| 
     737 00000090 6F36          B         L17,UNC               ; |746| 
     738                      ; branch occurs ; |746| 
     739              L11:    
     740                      .dwpsn  "ff.c",747,4
     741 00000091 8A44          MOVL      XAR4,*-SP[4]          ; |747| 
     742 00000092 2BE4          MOV       *+XAR4[4],#0          ; |747| 
     743                      .dwpsn  "ff.c",748,4
     744 00000093 8A44          MOVL      XAR4,*-SP[4]          ; |748| 
     745 00000094 D012          MOVB      XAR0,#18              ; |748| 
     746 00000095 0694          MOVL      ACC,*+XAR4[AR0]       ; |748| 
     747 00000096 8A44          MOVL      XAR4,*-SP[4]          ; |748| 
     748 00000097 D014          MOVB      XAR0,#20              ; |748| 
     749 00000098 0794          ADDL      ACC,*+XAR4[AR0]       ; |748| 
     750 00000099 0F48          CMPL      ACC,*-SP[8]           ; |748| 
     751 0000009a 6918          B         L14,LOS               ; |748| 
     752                      ; branchcc occurs ; |748| 
     753              
     754              DW$88   .dwtag  DW_TAG_lexical_block, DW_AT_low_pc(0x00), DW_AT_high_pc(0x00)
     755              DW$89   .dwtag  DW_TAG_variable, DW_AT_name("nf"), DW_AT_symbol_name("_nf")
     756                      .dwattr DW$89, DW_AT_type(*DW$T$23)
     757                      .dwattr DW$89, DW_AT_location[DW_OP_breg20 -9]
     758                      .dwpsn  "ff.c",751,11
     759 0000009b 8A44          MOVL      XAR4,*-SP[4]          ; |751| 
     760 0000009c 92DC          MOV       AL,*+XAR4[3]          ; |751| 
     761 0000009d 9649          MOV       *-SP[9],AL            ; |751| 
     762                      .dwpsn  "ff.c",751,28
     763 0000009e 5201          CMPB      AL,#1                 ; |751| 
     764 0000009f 6913          B         L13,LOS               ; |751| 
     765                      ; branchcc occurs ; |751| 
TMS320C2000 COFF Assembler PC v4.1.3 Thu May 05 10:06:00 2011

Tools Copyright (c) 1996-2006 Texas Instruments Incorporated
C:\DOCUME~1\ADMINI~1\LOCALS~1\Temp\TI1122                            PAGE   15

     766              L12:    
     767              DW$L$_move_window$7$B:
     768                      .dwpsn  "ff.c",753,6
     769 000000a0 8A44          MOVL      XAR4,*-SP[4]          ; |753| 
     770 000000a1 D012          MOVB      XAR0,#18              ; |753| 
     771 000000a2 0694          MOVL      ACC,*+XAR4[AR0]       ; |753| 
     772 000000a3 0748          ADDL      ACC,*-SP[8]           ; |753| 
     773 000000a4 1E48          MOVL      *-SP[8],ACC           ; |753| 
     774                      .dwpsn  "ff.c",754,6
     775 000000a5 2841          MOV       *-SP[1],#1            ; |754| 
         000000a6 0001 
     776 000000a7 8A44          MOVL      XAR4,*-SP[4]          ; |754| 
     777 000000a8 5DCC          MOVZ      AR5,*+XAR4[1]         ; |754| 
     778 000000a9 8A44          MOVL      XAR4,*-SP[4]          ; |754| 
     779 000000aa 0648          MOVL      ACC,*-SP[8]           ; |754| 
     780 000000ab DC1C          ADDB      XAR4,#28              ; |754| 
     781 000000ac 7640!         LCR       #_disk_write          ; |754| 
         000000ad 0000 
     782                      ; call occurs [#_disk_write] ; |754| 
     783                      .dwpsn  "ff.c",751,36
     784 000000ae 0B49          DEC       *-SP[9]               ; |751| 
     785                      .dwpsn  "ff.c",751,28
     786 000000af 9249          MOV       AL,*-SP[9]            ; |751| 
     787 000000b0 5201          CMPB      AL,#1                 ; |751| 
     788 000000b1 66EF          B         L12,HI                ; |751| 
     789                      ; branchcc occurs ; |751| 
     790              DW$L$_move_window$7$E:
     791              L13:    
     792                      .dwendtag DW$88
     793              
     794              L14:    
     795                      .dwpsn  "ff.c",759,3
     796 000000b2 0646          MOVL      ACC,*-SP[6]           ; |759| 
     797 000000b3 EC12          BF        L16,EQ                ; |759| 
     798                      ; branchcc occurs ; |759| 
     799                      .dwpsn  "ff.c",761,4
     800 000000b4 2841          MOV       *-SP[1],#1            ; |761| 
         000000b5 0001 
     801 000000b6 8A44          MOVL      XAR4,*-SP[4]          ; |761| 
     802 000000b7 5DCC          MOVZ      AR5,*+XAR4[1]         ; |761| 
     803 000000b8 8A44          MOVL      XAR4,*-SP[4]          ; |761| 
     804 000000b9 0646          MOVL      ACC,*-SP[6]           ; |761| 
     805 000000ba DC1C          ADDB      XAR4,#28              ; |761| 
     806 000000bb 7640!         LCR       #_disk_read           ; |761| 
         000000bc 0000 
     807                      ; call occurs [#_disk_read] ; |761| 
     808 000000bd 5200          CMPB      AL,#0                 ; |761| 
     809 000000be EC03          BF        L15,EQ                ; |761| 
     810                      ; branchcc occurs ; |761| 
     811                      .dwpsn  "ff.c",762,5
     812 000000bf 9A01          MOVB      AL,#1                 ; |762| 
     813 000000c0 6F06          B         L17,UNC               ; |762| 
     814                      ; branch occurs ; |762| 
     815              L15:    
     816                      .dwpsn  "ff.c",763,4
TMS320C2000 COFF Assembler PC v4.1.3 Thu May 05 10:06:00 2011

Tools Copyright (c) 1996-2006 Texas Instruments Incorporated
C:\DOCUME~1\ADMINI~1\LOCALS~1\Temp\TI1122                            PAGE   16

     817 000000c1 0646          MOVL      ACC,*-SP[6]           ; |763| 
     818 000000c2 8A44          MOVL      XAR4,*-SP[4]          ; |763| 
     819 000000c3 D01A          MOVB      XAR0,#26              ; |763| 
     820 000000c4 1E94          MOVL      *+XAR4[AR0],ACC       ; |763| 
     821              L16:    
     822                      .dwpsn  "ff.c",767,2
     823 000000c5 9A00          MOVB      AL,#0
     824              L17:    
     825                      .dwpsn  "ff.c",768,1
     826 000000c6 FE8A          SUBB      SP,#10                ; |767| 
     827                      .dwcfa  0x1d, -2
     828 000000c7 0006          LRETR
     829                      ; return occurs
     830              
     831              DW$90   .dwtag  DW_TAG_loop
     832                      .dwattr DW$90, DW_AT_name("C:\DOCUME~1\ADMINI~1\LOCALS~1\Temp\TI1122:L12:1:1304561157")
     833                      .dwattr DW$90, DW_AT_begin_file("ff.c")
     834                      .dwattr DW$90, DW_AT_begin_line(0x2ef)
     835                      .dwattr DW$90, DW_AT_end_line(0x2f3)
     836              DW$91   .dwtag  DW_TAG_loop_range
     837                      .dwattr DW$91, DW_AT_low_pc(DW$L$_move_window$7$B)
     838                      .dwattr DW$91, DW_AT_high_pc(DW$L$_move_window$7$E)
     839                      .dwendtag DW$90
     840              
     841                      .dwattr DW$82, DW_AT_end_file("ff.c")
     842                      .dwattr DW$82, DW_AT_end_line(0x300)
     843                      .dwattr DW$82, DW_AT_end_column(0x01)
     844                      .dwendentry
     845                      .dwendtag DW$82
     846              
     847 000000c8               .sect   ".text"
     848              
     849              DW$92   .dwtag  DW_TAG_subprogram, DW_AT_name("sync"), DW_AT_symbol_name("_sync")
     850                      .dwattr DW$92, DW_AT_low_pc(_sync)
     851                      .dwattr DW$92, DW_AT_high_pc(0x00)
     852                      .dwattr DW$92, DW_AT_begin_file("ff.c")
     853                      .dwattr DW$92, DW_AT_begin_line(0x30a)
     854                      .dwattr DW$92, DW_AT_begin_column(0x09)
     855                      .dwpsn  "ff.c",781,1
     856              
     857                      .dwfde DW$CIE
     858              
     859              ;***************************************************************
     860              ;* FNAME: _sync                         FR SIZE:   6           *
     861              ;*                                                             *
     862              ;* FUNCTION ENVIRONMENT                                        *
     863              ;*                                                             *
     864              ;* FUNCTION PROPERTIES                                         *
     865              ;*                            1 Parameter,  4 Auto,  0 SOE     *
     866              ;***************************************************************
     867              
     868              _sync:
     869                      .dwcfa  0x1d, -2
     870                      .dwcfa  0x1c, 26, 0
     871                      .dwcfa  0x09, 40, 26
TMS320C2000 COFF Assembler PC v4.1.3 Thu May 05 10:06:00 2011

Tools Copyright (c) 1996-2006 Texas Instruments Incorporated
C:\DOCUME~1\ADMINI~1\LOCALS~1\Temp\TI1122                            PAGE   17

     872 000000c8 FE06          ADDB      SP,#6
     873                      .dwcfa  0x1d, -8
     874              ;* AR4   assigned to _fs
     875              DW$93   .dwtag  DW_TAG_formal_parameter, DW_AT_name("fs"), DW_AT_symbol_name("_fs")
     876                      .dwattr DW$93, DW_AT_type(*DW$T$31)
     877                      .dwattr DW$93, DW_AT_location[DW_OP_reg12]
     878              DW$94   .dwtag  DW_TAG_variable, DW_AT_name("fs"), DW_AT_symbol_name("_fs")
     879                      .dwattr DW$94, DW_AT_type(*DW$T$31)
     880                      .dwattr DW$94, DW_AT_location[DW_OP_breg20 -4]
     881              DW$95   .dwtag  DW_TAG_variable, DW_AT_name("res"), DW_AT_symbol_name("_res")
     882                      .dwattr DW$95, DW_AT_type(*DW$T$49)
     883                      .dwattr DW$95, DW_AT_location[DW_OP_breg20 -5]
     884 000000c9 A844          MOVL      *-SP[4],XAR4          ; |781| 
     885                      .dwpsn  "ff.c",785,2
     886 000000ca 8A44          MOVL      XAR4,*-SP[4]          ; |785| 
     887 000000cb 0200          MOVB      ACC,#0
     888 000000cc 7640'         LCR       #_move_window         ; |785| 
         000000cd 0077 
     889                      ; call occurs [#_move_window] ; |785| 
     890 000000ce 9645          MOV       *-SP[5],AL            ; |785| 
     891                      .dwpsn  "ff.c",786,2
     892 000000cf 5200          CMPB      AL,#0                 ; |786| 
     893 000000d0 56C0          BF        L19,NEQ               ; |786| 
         000000d1 009B 
     894                      ; branchcc occurs ; |786| 
     895                      .dwpsn  "ff.c",789,3
     896 000000d2 8A44          MOVL      XAR4,*-SP[4]          ; |789| 
     897 000000d3 92C4          MOV       AL,*+XAR4[0]          ; |789| 
     898 000000d4 5203          CMPB      AL,#3                 ; |789| 
     899 000000d5 56C0          BF        L18,NEQ               ; |789| 
         000000d6 008C 
     900                      ; branchcc occurs ; |789| 
     901 000000d7 8A44          MOVL      XAR4,*-SP[4]          ; |789| 
     902 000000d8 92EC          MOV       AL,*+XAR4[5]          ; |789| 
     903 000000d9 56C1          BF        L18,EQ                ; |789| 
         000000da 0088 
     904                      ; branchcc occurs ; |789| 
     905                      .dwpsn  "ff.c",791,4
     906 000000db 8A44          MOVL      XAR4,*-SP[4]          ; |791| 
     907 000000dc 0200          MOVB      ACC,#0
     908 000000dd D01A          MOVB      XAR0,#26              ; |791| 
     909 000000de 1E94          MOVL      *+XAR4[AR0],ACC       ; |791| 
     910                      .dwpsn  "ff.c",793,4
     911 000000df 8A44          MOVL      XAR4,*-SP[4]          ; |793| 
     912 000000e0 9A00          MOVB      AL,#0
     913 000000e1 28A8          MOV       AH,#512               ; |793| 
         000000e2 0200 
     914 000000e3 DC1C          ADDB      XAR4,#28              ; |793| 
     915 000000e4 7640'         LCR       #_mem_set             ; |793| 
         000000e5 001A 
     916                      ; call occurs [#_mem_set] ; |793| 
     917                      .dwpsn  "ff.c",794,4
     918 000000e6 8D00          MOVL      XAR0,#538             ; |794| 
         000000e7 021A 
     919 000000e8 8A44          MOVL      XAR4,*-SP[4]          ; |794| 
TMS320C2000 COFF Assembler PC v4.1.3 Thu May 05 10:06:00 2011

Tools Copyright (c) 1996-2006 Texas Instruments Incorporated
C:\DOCUME~1\ADMINI~1\LOCALS~1\Temp\TI1122                            PAGE   18

     920 000000e9 2894          MOV       *+XAR4[AR0],#43605    ; |794| 
         000000ea AA55 
     921 000000eb 8D00          MOVL      XAR0,#539             ; |794| 
         000000ec 021B 
     922 000000ed 8A44          MOVL      XAR4,*-SP[4]          ; |794| 
     923 000000ee 2894          MOV       *+XAR4[AR0],#170      ; |794| 
         000000ef 00AA 
     924                      .dwpsn  "ff.c",795,4
     925 000000f0 8A44          MOVL      XAR4,*-SP[4]          ; |795| 
     926 000000f1 D01C          MOVB      XAR0,#28              ; |795| 
     927 000000f2 2894          MOV       *+XAR4[AR0],#21074    ; |795| 
         000000f3 5252 
     928 000000f4 8A44          MOVL      XAR4,*-SP[4]          ; |795| 
     929 000000f5 D01D          MOVB      XAR0,#29              ; |795| 
     930 000000f6 2894          MOV       *+XAR4[AR0],#82       ; |795| 
         000000f7 0052 
     931 000000f8 8A44          MOVL      XAR4,*-SP[4]          ; |795| 
     932 000000f9 D01E          MOVB      XAR0,#30              ; |795| 
     933 000000fa 2894          MOV       *+XAR4[AR0],#16737    ; |795| 
         000000fb 4161 
     934 000000fc 8A44          MOVL      XAR4,*-SP[4]          ; |795| 
     935 000000fd D01F          MOVB      XAR0,#31              ; |795| 
     936 000000fe 2894          MOV       *+XAR4[AR0],#65       ; |795| 
         000000ff 0041 
     937                      .dwpsn  "ff.c",796,4
     938 00000100 8D00          MOVL      XAR0,#512             ; |796| 
         00000101 0200 
     939 00000102 8A44          MOVL      XAR4,*-SP[4]          ; |796| 
     940 00000103 2894          MOV       *+XAR4[AR0],#29298    ; |796| 
         00000104 7272 
     941 00000105 8D00          MOVL      XAR0,#513             ; |796| 
         00000106 0201 
     942 00000107 8A44          MOVL      XAR4,*-SP[4]          ; |796| 
     943 00000108 2894          MOV       *+XAR4[AR0],#114      ; |796| 
         00000109 0072 
     944 0000010a 8D00          MOVL      XAR0,#514             ; |796| 
         0000010b 0202 
     945 0000010c 8A44          MOVL      XAR4,*-SP[4]          ; |796| 
     946 0000010d 2894          MOV       *+XAR4[AR0],#24897    ; |796| 
         0000010e 6141 
     947 0000010f 8D00          MOVL      XAR0,#515             ; |796| 
         00000110 0203 
     948 00000111 8A44          MOVL      XAR4,*-SP[4]          ; |796| 
     949 00000112 2894          MOV       *+XAR4[AR0],#97       ; |796| 
         00000113 0061 
     950                      .dwpsn  "ff.c",797,4
     951 00000114 8A44          MOVL      XAR4,*-SP[4]          ; |797| 
     952 00000115 D00C          MOVB      XAR0,#12              ; |797| 
     953 00000116 9294          MOV       AL,*+XAR4[AR0]        ; |797| 
     954 00000117 8D00          MOVL      XAR0,#516             ; |797| 
         00000118 0204 
     955 00000119 8A44          MOVL      XAR4,*-SP[4]          ; |797| 
     956 0000011a 9694          MOV       *+XAR4[AR0],AL        ; |797| 
     957 0000011b 8A44          MOVL      XAR4,*-SP[4]          ; |797| 
     958 0000011c D00C          MOVB      XAR0,#12              ; |797| 
TMS320C2000 COFF Assembler PC v4.1.3 Thu May 05 10:06:00 2011

Tools Copyright (c) 1996-2006 Texas Instruments Incorporated
C:\DOCUME~1\ADMINI~1\LOCALS~1\Temp\TI1122                            PAGE   19

     959 0000011d 9294          MOV       AL,*+XAR4[AR0]        ; |797| 
     960 0000011e 8D00          MOVL      XAR0,#517             ; |797| 
         0000011f 0205 
     961 00000120 8A44          MOVL      XAR4,*-SP[4]          ; |797| 
     962 00000121 FFC7          LSR       AL,8                  ; |797| 
     963 00000122 9694          MOV       *+XAR4[AR0],AL        ; |797| 
     964 00000123 8A44          MOVL      XAR4,*-SP[4]          ; |797| 
     965 00000124 D00C          MOVB      XAR0,#12              ; |797| 
     966 00000125 0694          MOVL      ACC,*+XAR4[AR0]       ; |797| 
     967 00000126 8D00          MOVL      XAR0,#518             ; |797| 
         00000127 0206 
     968 00000128 8A44          MOVL      XAR4,*-SP[4]          ; |797| 
     969 00000129 9794          MOVH      *+XAR4[AR0],ACC << 0  ; |797| 
     970 0000012a 8A44          MOVL      XAR4,*-SP[4]          ; |797| 
     971 0000012b D00C          MOVB      XAR0,#12              ; |797| 
     972 0000012c 0694          MOVL      ACC,*+XAR4[AR0]       ; |797| 
     973 0000012d 8D00          MOVL      XAR0,#519             ; |797| 
         0000012e 0207 
     974 0000012f 8A44          MOVL      XAR4,*-SP[4]          ; |797| 
     975 00000130 28AC          MOV       T,#24                 ; |797| 
         00000131 0018 
     976 00000132 5622          LSRL      ACC,T                 ; |797| 
     977 00000133 9694          MOV       *+XAR4[AR0],AL        ; |797| 
     978                      .dwpsn  "ff.c",798,4
     979 00000134 8A44          MOVL      XAR4,*-SP[4]          ; |798| 
     980 00000135 D00A          MOVB      XAR0,#10              ; |798| 
     981 00000136 9294          MOV       AL,*+XAR4[AR0]        ; |798| 
     982 00000137 8D00          MOVL      XAR0,#520             ; |798| 
         00000138 0208 
     983 00000139 8A44          MOVL      XAR4,*-SP[4]          ; |798| 
     984 0000013a 9694          MOV       *+XAR4[AR0],AL        ; |798| 
     985 0000013b 8A44          MOVL      XAR4,*-SP[4]          ; |798| 
     986 0000013c D00A          MOVB      XAR0,#10              ; |798| 
     987 0000013d 9294          MOV       AL,*+XAR4[AR0]        ; |798| 
     988 0000013e 8D00          MOVL      XAR0,#521             ; |798| 
         0000013f 0209 
     989 00000140 8A44          MOVL      XAR4,*-SP[4]          ; |798| 
     990 00000141 FFC7          LSR       AL,8                  ; |798| 
     991 00000142 9694          MOV       *+XAR4[AR0],AL        ; |798| 
     992 00000143 8A44          MOVL      XAR4,*-SP[4]          ; |798| 
     993 00000144 D00A          MOVB      XAR0,#10              ; |798| 
     994 00000145 0694          MOVL      ACC,*+XAR4[AR0]       ; |798| 
     995 00000146 8D00          MOVL      XAR0,#522             ; |798| 
         00000147 020A 
     996 00000148 8A44          MOVL      XAR4,*-SP[4]          ; |798| 
     997 00000149 9794          MOVH      *+XAR4[AR0],ACC << 0  ; |798| 
     998 0000014a 8A44          MOVL      XAR4,*-SP[4]          ; |798| 
     999 0000014b D00A          MOVB      XAR0,#10              ; |798| 
    1000 0000014c 0694          MOVL      ACC,*+XAR4[AR0]       ; |798| 
    1001 0000014d 8D00          MOVL      XAR0,#523             ; |798| 
         0000014e 020B 
    1002 0000014f 8A44          MOVL      XAR4,*-SP[4]          ; |798| 
    1003 00000150 28AC          MOV       T,#24                 ; |798| 
         00000151 0018 
    1004 00000152 5622          LSRL      ACC,T                 ; |798| 
TMS320C2000 COFF Assembler PC v4.1.3 Thu May 05 10:06:00 2011

Tools Copyright (c) 1996-2006 Texas Instruments Incorporated
C:\DOCUME~1\ADMINI~1\LOCALS~1\Temp\TI1122                            PAGE   20

    1005 00000153 9694          MOV       *+XAR4[AR0],AL        ; |798| 
    1006                      .dwpsn  "ff.c",800,4
    1007 00000154 2841          MOV       *-SP[1],#1            ; |800| 
         00000155 0001 
    1008 00000156 8A44          MOVL      XAR4,*-SP[4]          ; |800| 
    1009 00000157 C444          MOVL      XAR6,*-SP[4]          ; |800| 
    1010 00000158 5DCC          MOVZ      AR5,*+XAR4[1]         ; |800| 
    1011 00000159 8A44          MOVL      XAR4,*-SP[4]          ; |800| 
    1012 0000015a D00E          MOVB      XAR0,#14              ; |800| 
    1013 0000015b 0696          MOVL      ACC,*+XAR6[AR0]       ; |800| 
    1014 0000015c DC1C          ADDB      XAR4,#28              ; |800| 
    1015 0000015d 7640!         LCR       #_disk_write          ; |800| 
         0000015e 0000 
    1016                      ; call occurs [#_disk_write] ; |800| 
    1017                      .dwpsn  "ff.c",801,4
    1018 0000015f 8A44          MOVL      XAR4,*-SP[4]          ; |801| 
    1019 00000160 2BEC          MOV       *+XAR4[5],#0          ; |801| 
    1020              L18:    
    1021                      .dwpsn  "ff.c",804,3
    1022 00000161 8A44          MOVL      XAR4,*-SP[4]          ; |804| 
    1023 00000162 92CC          MOV       AL,*+XAR4[1]          ; |804| 
    1024 00000163 D400          MOVB      XAR4,#0
    1025 00000164 9B00          MOVB      AH,#0
    1026 00000165 7640!         LCR       #_disk_ioctl          ; |804| 
         00000166 0000 
    1027                      ; call occurs [#_disk_ioctl] ; |804| 
    1028 00000167 5200          CMPB      AL,#0                 ; |804| 
    1029 00000168 EC03          BF        L19,EQ                ; |804| 
    1030                      ; branchcc occurs ; |804| 
    1031                      .dwpsn  "ff.c",805,4
    1032 00000169 2845          MOV       *-SP[5],#1            ; |805| 
         0000016a 0001 
    1033              L19:    
    1034                      .dwpsn  "ff.c",808,2
    1035 0000016b 9245          MOV       AL,*-SP[5]            ; |808| 
    1036                      .dwpsn  "ff.c",809,1
    1037 0000016c FE86          SUBB      SP,#6                 ; |808| 
    1038                      .dwcfa  0x1d, -2
    1039 0000016d 0006          LRETR
    1040                      ; return occurs
    1041                      .dwattr DW$92, DW_AT_end_file("ff.c")
    1042                      .dwattr DW$92, DW_AT_end_line(0x329)
    1043                      .dwattr DW$92, DW_AT_end_column(0x01)
    1044                      .dwendentry
    1045                      .dwendtag DW$92
    1046              
    1047 0000016e               .sect   ".text"
    1048                      .global _clust2sect
    1049              
    1050              DW$96   .dwtag  DW_TAG_subprogram, DW_AT_name("clust2sect"), DW_AT_symbol_name("_clust2sect")
    1051                      .dwattr DW$96, DW_AT_low_pc(_clust2sect)
    1052                      .dwattr DW$96, DW_AT_high_pc(0x00)
    1053                      .dwattr DW$96, DW_AT_begin_file("ff.c")
    1054                      .dwattr DW$96, DW_AT_begin_line(0x334)
    1055                      .dwattr DW$96, DW_AT_begin_column(0x07)
TMS320C2000 COFF Assembler PC v4.1.3 Thu May 05 10:06:00 2011

Tools Copyright (c) 1996-2006 Texas Instruments Incorporated
C:\DOCUME~1\ADMINI~1\LOCALS~1\Temp\TI1122                            PAGE   21

    1056                      .dwpsn  "ff.c",824,1
    1057              
    1058                      .dwfde DW$CIE
    1059              
    1060              ;***************************************************************
    1061              ;* FNAME: _clust2sect                   FR SIZE:   4           *
    1062              ;*                                                             *
    1063              ;* FUNCTION ENVIRONMENT                                        *
    1064              ;*                                                             *
    1065              ;* FUNCTION PROPERTIES                                         *
    1066              ;*                            0 Parameter,  4 Auto,  0 SOE     *
    1067              ;***************************************************************
    1068              
    1069              _clust2sect:
    1070                      .dwcfa  0x1d, -2
    1071                      .dwcfa  0x1c, 26, 0
    1072                      .dwcfa  0x09, 40, 26
    1073 0000016e FE04          ADDB      SP,#4
    1074                      .dwcfa  0x1d, -6
    1075              ;* AR4   assigned to _fs
    1076              DW$97   .dwtag  DW_TAG_formal_parameter, DW_AT_name("fs"), DW_AT_symbol_name("_fs")
    1077                      .dwattr DW$97, DW_AT_type(*DW$T$31)
    1078                      .dwattr DW$97, DW_AT_location[DW_OP_reg12]
    1079              ;* AL    assigned to _clst
    1080              DW$98   .dwtag  DW_TAG_formal_parameter, DW_AT_name("clst"), DW_AT_symbol_name("_clst")
    1081                      .dwattr DW$98, DW_AT_type(*DW$T$27)
    1082                      .dwattr DW$98, DW_AT_location[DW_OP_reg0]
    1083              DW$99   .dwtag  DW_TAG_variable, DW_AT_name("fs"), DW_AT_symbol_name("_fs")
    1084                      .dwattr DW$99, DW_AT_type(*DW$T$31)
    1085                      .dwattr DW$99, DW_AT_location[DW_OP_breg20 -2]
    1086              DW$100  .dwtag  DW_TAG_variable, DW_AT_name("clst"), DW_AT_symbol_name("_clst")
    1087                      .dwattr DW$100, DW_AT_type(*DW$T$27)
    1088                      .dwattr DW$100, DW_AT_location[DW_OP_breg20 -4]
    1089 0000016f 1E44          MOVL      *-SP[4],ACC           ; |824| 
    1090 00000170 A842          MOVL      *-SP[2],XAR4          ; |824| 
    1091                      .dwpsn  "ff.c",825,2
    1092 00000171 0202          MOVB      ACC,#2
    1093 00000172 5641          SUBL      *-SP[4],ACC           ; |825| 
         00000173 0044 
    1094                      .dwpsn  "ff.c",826,2
    1095 00000174 8A42          MOVL      XAR4,*-SP[2]          ; |826| 
    1096 00000175 D010          MOVB      XAR0,#16              ; |826| 
    1097 00000176 0694          MOVL      ACC,*+XAR4[AR0]       ; |826| 
    1098 00000177 1902          SUBB      ACC,#2                ; |826| 
    1099 00000178 0F44          CMPL      ACC,*-SP[4]           ; |826| 
    1100 00000179 6603          B         L20,HI                ; |826| 
    1101                      ; branchcc occurs ; |826| 
    1102                      .dwpsn  "ff.c",826,38
    1103 0000017a 0200          MOVB      ACC,#0
    1104 0000017b 6F09          B         L21,UNC               ; |826| 
    1105                      ; branch occurs ; |826| 
    1106              L20:    
    1107                      .dwpsn  "ff.c",827,2
    1108 0000017c 8A42          MOVL      XAR4,*-SP[2]          ; |827| 
    1109 0000017d 8342          MOVL      XAR5,*-SP[2]          ; |827| 
TMS320C2000 COFF Assembler PC v4.1.3 Thu May 05 10:06:00 2011

Tools Copyright (c) 1996-2006 Texas Instruments Incorporated
C:\DOCUME~1\ADMINI~1\LOCALS~1\Temp\TI1122                            PAGE   22

    1110 0000017e 0ED4          MOVU      ACC,*+XAR4[2]
    1111 0000017f 1EAC          MOVL      XT,ACC                ; |827| 
    1112 00000180 5644          IMPYL     ACC,XT,*-SP[4]        ; |827| 
         00000181 0044 
    1113 00000182 D018          MOVB      XAR0,#24              ; |827| 
    1114 00000183 0795          ADDL      ACC,*+XAR5[AR0]       ; |827| 
    1115              L21:    
    1116                      .dwpsn  "ff.c",828,1
    1117 00000184 FE84          SUBB      SP,#4                 ; |827| 
    1118                      .dwcfa  0x1d, -2
    1119 00000185 0006          LRETR
    1120                      ; return occurs
    1121                      .dwattr DW$96, DW_AT_end_file("ff.c")
    1122                      .dwattr DW$96, DW_AT_end_line(0x33c)
    1123                      .dwattr DW$96, DW_AT_end_column(0x01)
    1124                      .dwendentry
    1125                      .dwendtag DW$96
    1126              
    1127 00000186               .sect   ".text"
    1128                      .global _get_fat
    1129              
    1130              DW$101  .dwtag  DW_TAG_subprogram, DW_AT_name("get_fat"), DW_AT_symbol_name("_get_fat")
    1131                      .dwattr DW$101, DW_AT_low_pc(_get_fat)
    1132                      .dwattr DW$101, DW_AT_high_pc(0x00)
    1133                      .dwattr DW$101, DW_AT_begin_file("ff.c")
    1134                      .dwattr DW$101, DW_AT_begin_line(0x346)
    1135                      .dwattr DW$101, DW_AT_begin_column(0x07)
    1136                      .dwpsn  "ff.c",842,1
    1137              
    1138                      .dwfde DW$CIE
    1139              
    1140              ;***************************************************************
    1141              ;* FNAME: _get_fat                      FR SIZE:  10           *
    1142              ;*                                                             *
    1143              ;* FUNCTION ENVIRONMENT                                        *
    1144              ;*                                                             *
    1145              ;* FUNCTION PROPERTIES                                         *
    1146              ;*                            0 Parameter, 10 Auto,  0 SOE     *
    1147              ;***************************************************************
    1148              
    1149              _get_fat:
    1150                      .dwcfa  0x1d, -2
    1151                      .dwcfa  0x1c, 26, 0
    1152                      .dwcfa  0x09, 40, 26
    1153 00000186 FE0A          ADDB      SP,#10
    1154                      .dwcfa  0x1d, -12
    1155              ;* AR4   assigned to _fs
    1156              DW$102  .dwtag  DW_TAG_formal_parameter, DW_AT_name("fs"), DW_AT_symbol_name("_fs")
    1157                      .dwattr DW$102, DW_AT_type(*DW$T$31)
    1158                      .dwattr DW$102, DW_AT_location[DW_OP_reg12]
    1159              ;* AL    assigned to _clst
    1160              DW$103  .dwtag  DW_TAG_formal_parameter, DW_AT_name("clst"), DW_AT_symbol_name("_clst")
    1161                      .dwattr DW$103, DW_AT_type(*DW$T$27)
    1162                      .dwattr DW$103, DW_AT_location[DW_OP_reg0]
    1163              DW$104  .dwtag  DW_TAG_variable, DW_AT_name("fs"), DW_AT_symbol_name("_fs")
TMS320C2000 COFF Assembler PC v4.1.3 Thu May 05 10:06:00 2011

Tools Copyright (c) 1996-2006 Texas Instruments Incorporated
C:\DOCUME~1\ADMINI~1\LOCALS~1\Temp\TI1122                            PAGE   23

    1164                      .dwattr DW$104, DW_AT_type(*DW$T$31)
    1165                      .dwattr DW$104, DW_AT_location[DW_OP_breg20 -2]
    1166              DW$105  .dwtag  DW_TAG_variable, DW_AT_name("clst"), DW_AT_symbol_name("_clst")
    1167                      .dwattr DW$105, DW_AT_type(*DW$T$27)
    1168                      .dwattr DW$105, DW_AT_location[DW_OP_breg20 -4]
    1169              DW$106  .dwtag  DW_TAG_variable, DW_AT_name("wc"), DW_AT_symbol_name("_wc")
    1170                      .dwattr DW$106, DW_AT_type(*DW$T$43)
    1171                      .dwattr DW$106, DW_AT_location[DW_OP_breg20 -5]
    1172              DW$107  .dwtag  DW_TAG_variable, DW_AT_name("bc"), DW_AT_symbol_name("_bc")
    1173                      .dwattr DW$107, DW_AT_type(*DW$T$43)
    1174                      .dwattr DW$107, DW_AT_location[DW_OP_breg20 -6]
    1175              DW$108  .dwtag  DW_TAG_variable, DW_AT_name("p"), DW_AT_symbol_name("_p")
    1176                      .dwattr DW$108, DW_AT_type(*DW$T$32)
    1177                      .dwattr DW$108, DW_AT_location[DW_OP_breg20 -8]
    1178 00000187 1E44          MOVL      *-SP[4],ACC           ; |842| 
    1179 00000188 A842          MOVL      *-SP[2],XAR4          ; |842| 
    1180                      .dwpsn  "ff.c",847,2
    1181 00000189 0202          MOVB      ACC,#2
    1182 0000018a 0F44          CMPL      ACC,*-SP[4]           ; |847| 
    1183 0000018b 6607          B         L22,HI                ; |847| 
    1184                      ; branchcc occurs ; |847| 
    1185 0000018c 8A42          MOVL      XAR4,*-SP[2]          ; |847| 
    1186 0000018d D010          MOVB      XAR0,#16              ; |847| 
    1187 0000018e 0694          MOVL      ACC,*+XAR4[AR0]       ; |847| 
    1188 0000018f 0F44          CMPL      ACC,*-SP[4]           ; |847| 
    1189 00000190 FFE6          B         L28,HI                ; |847| 
         00000191 0091 
    1190                      ; branchcc occurs ; |847| 
    1191              L22:    
    1192                      .dwpsn  "ff.c",848,3
    1193 00000192 0201          MOVB      ACC,#1
    1194 00000193 FFEF          B         L30,UNC               ; |848| 
         00000194 0099 
    1195                      ; branch occurs ; |848| 
    1196              L23:    
    1197                      .dwpsn  "ff.c",853,3
    1198 00000195 9244          MOV       AL,*-SP[4]            ; |853| 
    1199 00000196 9646          MOV       *-SP[6],AL            ; |853| 
    1200                      .dwpsn  "ff.c",854,3
    1201 00000197 FFC0          LSR       AL,1                  ; |854| 
    1202 00000198 7246          ADD       *-SP[6],AL            ; |854| 
    1203                      .dwpsn  "ff.c",855,3
    1204 00000199 9246          MOV       AL,*-SP[6]            ; |855| 
    1205 0000019a 8A42          MOVL      XAR4,*-SP[2]          ; |855| 
    1206 0000019b FFC8          LSR       AL,9                  ; |855| 
    1207 0000019c D014          MOVB      XAR0,#20              ; |855| 
    1208 0000019d 0EA9          MOVU      ACC,AL
    1209 0000019e 0794          ADDL      ACC,*+XAR4[AR0]       ; |855| 
    1210 0000019f 8A42          MOVL      XAR4,*-SP[2]          ; |855| 
    1211 000001a0 7640'         LCR       #_move_window         ; |855| 
         000001a1 0077 
    1212                      ; call occurs [#_move_window] ; |855| 
    1213 000001a2 5200          CMPB      AL,#0                 ; |855| 
    1214 000001a3 56C0          BF        L29,NEQ               ; |855| 
         000001a4 0087 
TMS320C2000 COFF Assembler PC v4.1.3 Thu May 05 10:06:00 2011

Tools Copyright (c) 1996-2006 Texas Instruments Incorporated
C:\DOCUME~1\ADMINI~1\LOCALS~1\Temp\TI1122                            PAGE   24

    1215                      ; branchcc occurs ; |855| 
    1216                      .dwpsn  "ff.c",855,61
    1217                      .dwpsn  "ff.c",856,3
    1218 000001a5 CC46          AND       AL,*-SP[6],#0x01ff    ; |856| 
         000001a6 01FF 
    1219 000001a7 88A9          MOVZ      AR6,AL                ; |856| 
    1220 000001a8 0642          MOVL      ACC,*-SP[2]           ; |856| 
    1221 000001a9 0DA6          ADDU      ACC,AR6               ; |856| 
    1222 000001aa 8AA9          MOVL      XAR4,ACC              ; |856| 
    1223 000001ab D01C          MOVB      XAR0,#28              ; |856| 
    1224 000001ac 9294          MOV       AL,*+XAR4[AR0]        ; |856| 
    1225 000001ad 9645          MOV       *-SP[5],AL            ; |856| 
    1226                      .dwpsn  "ff.c",857,3
    1227 000001ae 0A46          INC       *-SP[6]               ; |857| 
    1228                      .dwpsn  "ff.c",858,3
    1229 000001af 9246          MOV       AL,*-SP[6]            ; |858| 
    1230 000001b0 8A42          MOVL      XAR4,*-SP[2]          ; |858| 
    1231 000001b1 FFC8          LSR       AL,9                  ; |858| 
    1232 000001b2 D014          MOVB      XAR0,#20              ; |858| 
    1233 000001b3 0EA9          MOVU      ACC,AL
    1234 000001b4 0794          ADDL      ACC,*+XAR4[AR0]       ; |858| 
    1235 000001b5 8A42          MOVL      XAR4,*-SP[2]          ; |858| 
    1236 000001b6 7640'         LCR       #_move_window         ; |858| 
         000001b7 0077 
    1237                      ; call occurs [#_move_window] ; |858| 
    1238 000001b8 5200          CMPB      AL,#0                 ; |858| 
    1239 000001b9 ED71          BF        L29,NEQ               ; |858| 
    1240                      ; branchcc occurs ; |858| 
    1241                      .dwpsn  "ff.c",858,61
    1242                      .dwpsn  "ff.c",859,3
    1243 000001ba CC46          AND       AL,*-SP[6],#0x01ff    ; |859| 
         000001bb 01FF 
    1244 000001bc 88A9          MOVZ      AR6,AL                ; |859| 
    1245 000001bd 0642          MOVL      ACC,*-SP[2]           ; |859| 
    1246 000001be 0DA6          ADDU      ACC,AR6               ; |859| 
    1247 000001bf 8AA9          MOVL      XAR4,ACC              ; |859| 
    1248 000001c0 D01C          MOVB      XAR0,#28              ; |859| 
    1249 000001c1 5603          MOV       ACC,*+XAR4[AR0] << #8 ; |859| 
         000001c2 0894 
    1250 000001c3 9845          OR        *-SP[5],AL            ; |859| 
    1251                      .dwpsn  "ff.c",860,3
    1252 000001c4 0644          MOVL      ACC,*-SP[4]           ; |860| 
    1253 000001c5 9001          ANDB      AL,#0x01              ; |860| 
    1254 000001c6 9B00          MOVB      AH,#0
    1255 000001c7 FF58          TEST      ACC                   ; |860| 
    1256 000001c8 EC04          BF        L24,EQ                ; |860| 
    1257                      ; branchcc occurs ; |860| 
    1258 000001c9 9245          MOV       AL,*-SP[5]            ; |860| 
    1259 000001ca FFC3          LSR       AL,4                  ; |860| 
    1260 000001cb 6F03          B         L25,UNC               ; |860| 
    1261                      ; branch occurs ; |860| 
    1262 000001cc       L24:    
    1263 000001cc CC45          AND       AL,*-SP[5],#0x0fff    ; |860| 
         000001cd 0FFF 
    1264 000001ce       L25:    
TMS320C2000 COFF Assembler PC v4.1.3 Thu May 05 10:06:00 2011

Tools Copyright (c) 1996-2006 Texas Instruments Incorporated
C:\DOCUME~1\ADMINI~1\LOCALS~1\Temp\TI1122                            PAGE   25

    1265 000001ce 0EA9          MOVU      ACC,AL
    1266 000001cf 6F5D          B         L30,UNC               ; |860| 
    1267                      ; branch occurs ; |860| 
    1268              L26:    
    1269                      .dwpsn  "ff.c",863,3
    1270 000001d0 0644          MOVL      ACC,*-SP[4]           ; |863| 
    1271 000001d1 8A42          MOVL      XAR4,*-SP[2]          ; |863| 
    1272 000001d2 2901          CLRC      SXM
    1273 000001d3 D014          MOVB      XAR0,#20              ; |863| 
    1274 000001d4 FF47          SFR       ACC,8                 ; |863| 
    1275 000001d5 0794          ADDL      ACC,*+XAR4[AR0]       ; |863| 
    1276 000001d6 8A42          MOVL      XAR4,*-SP[2]          ; |863| 
    1277 000001d7 7640'         LCR       #_move_window         ; |863| 
         000001d8 0077 
    1278                      ; call occurs [#_move_window] ; |863| 
    1279 000001d9 5200          CMPB      AL,#0                 ; |863| 
    1280 000001da ED50          BF        L29,NEQ               ; |863| 
    1281                      ; branchcc occurs ; |863| 
    1282                      .dwpsn  "ff.c",863,71
    1283                      .dwpsn  "ff.c",864,3
    1284 000001db 0644          MOVL      ACC,*-SP[4]           ; |864| 
    1285 000001dc 8A42          MOVL      XAR4,*-SP[2]          ; |864| 
    1286 000001dd FF30          LSL       ACC,1                 ; |864| 
    1287 000001de 18A9          AND       AL,#0x01ff            ; |864| 
         000001df 01FF 
    1288 000001e0 9B00          MOVB      AH,#0
    1289 000001e1 5601          ADDL      XAR4,ACC
         000001e2 00A4 
    1290 000001e3 DC1C          ADDB      XAR4,#28              ; |864| 
    1291 000001e4 A848          MOVL      *-SP[8],XAR4          ; |864| 
    1292                      .dwpsn  "ff.c",865,3
    1293 000001e5 8348          MOVL      XAR5,*-SP[8]          ; |865| 
    1294 000001e6 8A48          MOVL      XAR4,*-SP[8]          ; |865| 
    1295 000001e7 5603          MOV       ACC,*+XAR5[1] << #8   ; |865| 
         000001e8 08CD 
    1296 000001e9 CAC4          OR        AL,*+XAR4[0]          ; |865| 
    1297 000001ea 0EA9          MOVU      ACC,AL
    1298 000001eb 6F41          B         L30,UNC               ; |865| 
    1299                      ; branch occurs ; |865| 
    1300              L27:    
    1301                      .dwpsn  "ff.c",868,3
    1302 000001ec 0644          MOVL      ACC,*-SP[4]           ; |868| 
    1303 000001ed 8A42          MOVL      XAR4,*-SP[2]          ; |868| 
    1304 000001ee 2901          CLRC      SXM
    1305 000001ef D014          MOVB      XAR0,#20              ; |868| 
    1306 000001f0 FF46          SFR       ACC,7                 ; |868| 
    1307 000001f1 0794          ADDL      ACC,*+XAR4[AR0]       ; |868| 
    1308 000001f2 8A42          MOVL      XAR4,*-SP[2]          ; |868| 
    1309 000001f3 7640'         LCR       #_move_window         ; |868| 
         000001f4 0077 
    1310                      ; call occurs [#_move_window] ; |868| 
    1311 000001f5 5200          CMPB      AL,#0                 ; |868| 
    1312 000001f6 ED34          BF        L29,NEQ               ; |868| 
    1313                      ; branchcc occurs ; |868| 
    1314                      .dwpsn  "ff.c",868,71
TMS320C2000 COFF Assembler PC v4.1.3 Thu May 05 10:06:00 2011

Tools Copyright (c) 1996-2006 Texas Instruments Incorporated
C:\DOCUME~1\ADMINI~1\LOCALS~1\Temp\TI1122                            PAGE   26

    1315                      .dwpsn  "ff.c",869,3
    1316 000001f7 0644          MOVL      ACC,*-SP[4]           ; |869| 
    1317 000001f8 8A42          MOVL      XAR4,*-SP[2]          ; |869| 
    1318 000001f9 FF31          LSL       ACC,2                 ; |869| 
    1319 000001fa 18A9          AND       AL,#0x01ff            ; |869| 
         000001fb 01FF 
    1320 000001fc 9B00          MOVB      AH,#0
    1321 000001fd 5601          ADDL      XAR4,ACC
         000001fe 00A4 
    1322 000001ff DC1C          ADDB      XAR4,#28              ; |869| 
    1323 00000200 A848          MOVL      *-SP[8],XAR4          ; |869| 
    1324                      .dwpsn  "ff.c",870,3
    1325 00000201 8A48          MOVL      XAR4,*-SP[8]          ; |870| 
    1326 00000202 0EDC          MOVU      ACC,*+XAR4[3]
    1327 00000203 28AC          MOV       T,#24                 ; |870| 
         00000204 0018 
    1328 00000205 1E4A          MOVL      *-SP[10],ACC          ; |870| 
    1329 00000206 8A48          MOVL      XAR4,*-SP[8]          ; |870| 
    1330 00000207 563B          LSLL      ACC,T                 ; |870| 
    1331 00000208 2901          CLRC      SXM
    1332 00000209 1E4A          MOVL      *-SP[10],ACC          ; |870| 
    1333 0000020a 25D4          MOV       ACC,*+XAR4[2] << 16   ; |870| 
    1334 0000020b 27A9          MOV       PL,AL                 ; |870| 
    1335 0000020c 924A          MOV       AL,*-SP[10]           ; |870| 
    1336 0000020d CAAB          OR        AL,PL                 ; |870| 
    1337 0000020e 964A          MOV       *-SP[10],AL           ; |870| 
    1338 0000020f 27A8          MOV       PL,AH                 ; |870| 
    1339 00000210 8A48          MOVL      XAR4,*-SP[8]          ; |870| 
    1340 00000211 9249          MOV       AL,*-SP[9]            ; |870| 
    1341 00000212 CAAB          OR        AL,PL                 ; |870| 
    1342 00000213 9649          MOV       *-SP[9],AL            ; |870| 
    1343 00000214 5603          MOV       ACC,*+XAR4[1] << #8   ; |870| 
         00000215 08CC 
    1344 00000216 88A9          MOVZ      AR6,AL                ; |870| 
    1345 00000217 8A48          MOVL      XAR4,*-SP[8]          ; |870| 
    1346 00000218 064A          MOVL      ACC,*-SP[10]          ; |870| 
    1347 00000219 AFA6          OR        ACC,AR6               ; |870| 
    1348 0000021a 1E4A          MOVL      *-SP[10],ACC          ; |870| 
    1349 0000021b AFC4          OR        ACC,*+XAR4[0]         ; |870| 
    1350 0000021c 1E4A          MOVL      *-SP[10],ACC          ; |870| 
    1351 0000021d 1849          AND       *-SP[9],#4095         ; |870| 
         0000021e 0FFF 
    1352 0000021f 064A          MOVL      ACC,*-SP[10]          ; |870| 
    1353 00000220 6F0C          B         L30,UNC               ; |870| 
    1354                      ; branch occurs ; |870| 
    1355              L28:    
    1356                      .dwpsn  "ff.c",850,2
    1357 00000221 8A42          MOVL      XAR4,*-SP[2]          ; |850| 
    1358 00000222 92C4          MOV       AL,*+XAR4[0]          ; |850| 
    1359 00000223 5201          CMPB      AL,#1                 ; |850| 
    1360 00000224 56C1          BF        L23,EQ                ; |850| 
         00000225 FF71 
    1361                      ; branchcc occurs ; |850| 
    1362 00000226 5202          CMPB      AL,#2                 ; |850| 
    1363 00000227 ECA9          BF        L26,EQ                ; |850| 
TMS320C2000 COFF Assembler PC v4.1.3 Thu May 05 10:06:00 2011

Tools Copyright (c) 1996-2006 Texas Instruments Incorporated
C:\DOCUME~1\ADMINI~1\LOCALS~1\Temp\TI1122                            PAGE   27

    1364                      ; branchcc occurs ; |850| 
    1365 00000228 5203          CMPB      AL,#3                 ; |850| 
    1366 00000229 ECC3          BF        L27,EQ                ; |850| 
    1367                      ; branchcc occurs ; |850| 
    1368              L29:    
    1369                      .dwpsn  "ff.c",873,2
    1370 0000022a 0200          MOVB      ACC,#0
    1371 0000022b 1901          SUBB      ACC,#1
    1372              L30:    
    1373                      .dwpsn  "ff.c",874,1
    1374 0000022c FE8A          SUBB      SP,#10                ; |873| 
    1375                      .dwcfa  0x1d, -2
    1376 0000022d 0006          LRETR
    1377                      ; return occurs
    1378                      .dwattr DW$101, DW_AT_end_file("ff.c")
    1379                      .dwattr DW$101, DW_AT_end_line(0x36a)
    1380                      .dwattr DW$101, DW_AT_end_column(0x01)
    1381                      .dwendentry
    1382                      .dwendtag DW$101
    1383              
    1384 0000022e               .sect   ".text"
    1385                      .global _put_fat
    1386              
    1387              DW$109  .dwtag  DW_TAG_subprogram, DW_AT_name("put_fat"), DW_AT_symbol_name("_put_fat")
    1388                      .dwattr DW$109, DW_AT_low_pc(_put_fat)
    1389                      .dwattr DW$109, DW_AT_high_pc(0x00)
    1390                      .dwattr DW$109, DW_AT_begin_file("ff.c")
    1391                      .dwattr DW$109, DW_AT_begin_line(0x374)
    1392                      .dwattr DW$109, DW_AT_begin_column(0x09)
    1393                      .dwpsn  "ff.c",889,1
    1394              
    1395                      .dwfde DW$CIE
    1396              
    1397              ;***************************************************************
    1398              ;* FNAME: _put_fat                      FR SIZE:  12           *
    1399              ;*                                                             *
    1400              ;* FUNCTION ENVIRONMENT                                        *
    1401              ;*                                                             *
    1402              ;* FUNCTION PROPERTIES                                         *
    1403              ;*                            0 Parameter, 12 Auto,  0 SOE     *
    1404              ;***************************************************************
    1405              
    1406              _put_fat:
    1407                      .dwcfa  0x1d, -2
    1408                      .dwcfa  0x1c, 26, 0
    1409                      .dwcfa  0x09, 40, 26
    1410 0000022e FE0C          ADDB      SP,#12
    1411                      .dwcfa  0x1d, -14
    1412              ;* AR4   assigned to _fs
    1413              DW$110  .dwtag  DW_TAG_formal_parameter, DW_AT_name("fs"), DW_AT_symbol_name("_fs")
    1414                      .dwattr DW$110, DW_AT_type(*DW$T$31)
    1415                      .dwattr DW$110, DW_AT_location[DW_OP_reg12]
    1416              ;* AL    assigned to _clst
    1417              DW$111  .dwtag  DW_TAG_formal_parameter, DW_AT_name("clst"), DW_AT_symbol_name("_clst")
    1418                      .dwattr DW$111, DW_AT_type(*DW$T$27)
TMS320C2000 COFF Assembler PC v4.1.3 Thu May 05 10:06:00 2011

Tools Copyright (c) 1996-2006 Texas Instruments Incorporated
C:\DOCUME~1\ADMINI~1\LOCALS~1\Temp\TI1122                            PAGE   28

    1419                      .dwattr DW$111, DW_AT_location[DW_OP_reg0]
    1420              DW$112  .dwtag  DW_TAG_formal_parameter, DW_AT_name("val"), DW_AT_symbol_name("_val")
    1421                      .dwattr DW$112, DW_AT_type(*DW$T$27)
    1422                      .dwattr DW$112, DW_AT_location[DW_OP_breg20 -16]
    1423              DW$113  .dwtag  DW_TAG_variable, DW_AT_name("fs"), DW_AT_symbol_name("_fs")
    1424                      .dwattr DW$113, DW_AT_type(*DW$T$31)
    1425                      .dwattr DW$113, DW_AT_location[DW_OP_breg20 -2]
    1426              DW$114  .dwtag  DW_TAG_variable, DW_AT_name("clst"), DW_AT_symbol_name("_clst")
    1427                      .dwattr DW$114, DW_AT_type(*DW$T$27)
    1428                      .dwattr DW$114, DW_AT_location[DW_OP_breg20 -4]
    1429              DW$115  .dwtag  DW_TAG_variable, DW_AT_name("bc"), DW_AT_symbol_name("_bc")
    1430                      .dwattr DW$115, DW_AT_type(*DW$T$43)
    1431                      .dwattr DW$115, DW_AT_location[DW_OP_breg20 -5]
    1432              DW$116  .dwtag  DW_TAG_variable, DW_AT_name("p"), DW_AT_symbol_name("_p")
    1433                      .dwattr DW$116, DW_AT_type(*DW$T$32)
    1434                      .dwattr DW$116, DW_AT_location[DW_OP_breg20 -8]
    1435              DW$117  .dwtag  DW_TAG_variable, DW_AT_name("res"), DW_AT_symbol_name("_res")
    1436                      .dwattr DW$117, DW_AT_type(*DW$T$49)
    1437                      .dwattr DW$117, DW_AT_location[DW_OP_breg20 -9]
    1438 0000022f 1E44          MOVL      *-SP[4],ACC           ; |889| 
    1439 00000230 A842          MOVL      *-SP[2],XAR4          ; |889| 
    1440                      .dwpsn  "ff.c",895,2
    1441 00000231 0202          MOVB      ACC,#2
    1442 00000232 0F44          CMPL      ACC,*-SP[4]           ; |895| 
    1443 00000233 6607          B         L31,HI                ; |895| 
    1444                      ; branchcc occurs ; |895| 
    1445 00000234 8A42          MOVL      XAR4,*-SP[2]          ; |895| 
    1446 00000235 D010          MOVB      XAR0,#16              ; |895| 
    1447 00000236 0694          MOVL      ACC,*+XAR4[AR0]       ; |895| 
    1448 00000237 0F44          CMPL      ACC,*-SP[4]           ; |895| 
    1449 00000238 FFE6          B         L40,HI                ; |895| 
         00000239 00CE 
    1450                      ; branchcc occurs ; |895| 
    1451              L31:    
    1452                      .dwpsn  "ff.c",897,3
    1453 0000023a 2849          MOV       *-SP[9],#2            ; |897| 
         0000023b 0002 
    1454                      .dwpsn  "ff.c",899,2
    1455 0000023c FFEF          B         L42,UNC               ; |899| 
         0000023d 00D7 
    1456                      ; branch occurs ; |899| 
    1457              L32:    
    1458                      .dwpsn  "ff.c",905,4
    1459 0000023e 9244          MOV       AL,*-SP[4]            ; |905| 
    1460 0000023f 9645          MOV       *-SP[5],AL            ; |905| 
    1461                      .dwpsn  "ff.c",906,4
    1462 00000240 FFC0          LSR       AL,1                  ; |906| 
    1463 00000241 7245          ADD       *-SP[5],AL            ; |906| 
    1464                      .dwpsn  "ff.c",907,4
    1465 00000242 9245          MOV       AL,*-SP[5]            ; |907| 
    1466 00000243 8A42          MOVL      XAR4,*-SP[2]          ; |907| 
    1467 00000244 FFC8          LSR       AL,9                  ; |907| 
    1468 00000245 D014          MOVB      XAR0,#20              ; |907| 
    1469 00000246 0EA9          MOVU      ACC,AL
    1470 00000247 0794          ADDL      ACC,*+XAR4[AR0]       ; |907| 
TMS320C2000 COFF Assembler PC v4.1.3 Thu May 05 10:06:00 2011

Tools Copyright (c) 1996-2006 Texas Instruments Incorporated
C:\DOCUME~1\ADMINI~1\LOCALS~1\Temp\TI1122                            PAGE   29

    1471 00000248 8A42          MOVL      XAR4,*-SP[2]          ; |907| 
    1472 00000249 7640'         LCR       #_move_window         ; |907| 
         0000024a 0077 
    1473                      ; call occurs [#_move_window] ; |907| 
    1474 0000024b 9649          MOV       *-SP[9],AL            ; |907| 
    1475                      .dwpsn  "ff.c",908,4
    1476 0000024c 5200          CMPB      AL,#0                 ; |908| 
    1477 0000024d 56C0          BF        L41,NEQ               ; |908| 
         0000024e 00C3 
    1478                      ; branchcc occurs ; |908| 
    1479                      .dwpsn  "ff.c",908,24
    1480                      .dwpsn  "ff.c",909,4
    1481 0000024f CC45          AND       AL,*-SP[5],#0x01ff    ; |909| 
         00000250 01FF 
    1482 00000251 80A9          MOVZ      AR7,AL                ; |909| 
    1483 00000252 0642          MOVL      ACC,*-SP[2]           ; |909| 
    1484 00000253 0DA7          ADDU      ACC,AR7               ; |909| 
    1485 00000254 1EA6          MOVL      XAR6,ACC              ; |909| 
    1486 00000255 DE1C          ADDB      XAR6,#28              ; |909| 
    1487 00000256 C248          MOVL      *-SP[8],XAR6          ; |909| 
    1488                      .dwpsn  "ff.c",910,4
    1489 00000257 0644          MOVL      ACC,*-SP[4]           ; |910| 
    1490 00000258 9001          ANDB      AL,#0x01              ; |910| 
    1491 00000259 9B00          MOVB      AH,#0
    1492 0000025a FF58          TEST      ACC                   ; |910| 
    1493 0000025b EC09          BF        L33,EQ                ; |910| 
    1494                      ; branchcc occurs ; |910| 
    1495 0000025c 8A48          MOVL      XAR4,*-SP[8]          ; |910| 
    1496 0000025d 92C4          MOV       AL,*+XAR4[0]          ; |910| 
    1497 0000025e 900F          ANDB      AL,#0x0f              ; |910| 
    1498 0000025f 88A9          MOVZ      AR6,AL                ; |910| 
    1499 00000260 5603          MOV       ACC,*-SP[16] << #4    ; |910| 
         00000261 0450 
    1500 00000262 CAA6          OR        AL,AR6                ; |910| 
    1501 00000263 6F02          B         L34,UNC               ; |910| 
    1502                      ; branch occurs ; |910| 
    1503 00000264       L33:    
    1504 00000264 9250          MOV       AL,*-SP[16]           ; |910| 
    1505 00000265       L34:    
    1506 00000265 8A48          MOVL      XAR4,*-SP[8]          ; |910| 
    1507 00000266 96C4          MOV       *+XAR4[0],AL          ; |910| 
    1508                      .dwpsn  "ff.c",911,4
    1509 00000267 0A45          INC       *-SP[5]               ; |911| 
    1510                      .dwpsn  "ff.c",912,4
    1511 00000268 8A42          MOVL      XAR4,*-SP[2]          ; |912| 
    1512 00000269 28E4          MOV       *+XAR4[4],#1          ; |912| 
         0000026a 0001 
    1513                      .dwpsn  "ff.c",913,4
    1514 0000026b 9245          MOV       AL,*-SP[5]            ; |913| 
    1515 0000026c 8A42          MOVL      XAR4,*-SP[2]          ; |913| 
    1516 0000026d FFC8          LSR       AL,9                  ; |913| 
    1517 0000026e D014          MOVB      XAR0,#20              ; |913| 
    1518 0000026f 0EA9          MOVU      ACC,AL
    1519 00000270 0794          ADDL      ACC,*+XAR4[AR0]       ; |913| 
    1520 00000271 8A42          MOVL      XAR4,*-SP[2]          ; |913| 
TMS320C2000 COFF Assembler PC v4.1.3 Thu May 05 10:06:00 2011

Tools Copyright (c) 1996-2006 Texas Instruments Incorporated
C:\DOCUME~1\ADMINI~1\LOCALS~1\Temp\TI1122                            PAGE   30

    1521 00000272 7640'         LCR       #_move_window         ; |913| 
         00000273 0077 
    1522                      ; call occurs [#_move_window] ; |913| 
    1523 00000274 9649          MOV       *-SP[9],AL            ; |913| 
    1524                      .dwpsn  "ff.c",914,4
    1525 00000275 5200          CMPB      AL,#0                 ; |914| 
    1526 00000276 56C0          BF        L41,NEQ               ; |914| 
         00000277 009A 
    1527                      ; branchcc occurs ; |914| 
    1528                      .dwpsn  "ff.c",914,24
    1529                      .dwpsn  "ff.c",915,4
    1530 00000278 CC45          AND       AL,*-SP[5],#0x01ff    ; |915| 
         00000279 01FF 
    1531 0000027a 80A9          MOVZ      AR7,AL                ; |915| 
    1532 0000027b 0642          MOVL      ACC,*-SP[2]           ; |915| 
    1533 0000027c 0DA7          ADDU      ACC,AR7               ; |915| 
    1534 0000027d 1EA6          MOVL      XAR6,ACC              ; |915| 
    1535 0000027e DE1C          ADDB      XAR6,#28              ; |915| 
    1536 0000027f C248          MOVL      *-SP[8],XAR6          ; |915| 
    1537                      .dwpsn  "ff.c",916,4
    1538 00000280 0644          MOVL      ACC,*-SP[4]           ; |916| 
    1539 00000281 9001          ANDB      AL,#0x01              ; |916| 
    1540 00000282 9B00          MOVB      AH,#0
    1541 00000283 FF58          TEST      ACC                   ; |916| 
    1542 00000284 EC05          BF        L35,EQ                ; |916| 
    1543                      ; branchcc occurs ; |916| 
    1544 00000285 2901          CLRC      SXM
    1545 00000286 0650          MOVL      ACC,*-SP[16]          ; |916| 
    1546 00000287 FF43          SFR       ACC,4                 ; |916| 
    1547 00000288 6F0A          B         L36,UNC               ; |916| 
    1548                      ; branch occurs ; |916| 
    1549 00000289       L35:    
    1550 00000289 8A48          MOVL      XAR4,*-SP[8]          ; |916| 
    1551 0000028a 2901          CLRC      SXM
    1552 0000028b 92C4          MOV       AL,*+XAR4[0]          ; |916| 
    1553 0000028c 90F0          ANDB      AL,#0xf0              ; |916| 
    1554 0000028d 88A9          MOVZ      AR6,AL                ; |916| 
    1555 0000028e 0650          MOVL      ACC,*-SP[16]          ; |916| 
    1556 0000028f FF47          SFR       ACC,8                 ; |916| 
    1557 00000290 900F          ANDB      AL,#0x0f              ; |916| 
    1558 00000291 CAA6          OR        AL,AR6                ; |916| 
    1559 00000292       L36:    
    1560 00000292 8A48          MOVL      XAR4,*-SP[8]          ; |916| 
    1561 00000293 96C4          MOV       *+XAR4[0],AL          ; |916| 
    1562                      .dwpsn  "ff.c",917,9
    1563 00000294 6F7C          B         L41,UNC               ; |917| 
    1564                      ; branch occurs ; |917| 
    1565              L37:    
    1566                      .dwpsn  "ff.c",920,4
    1567 00000295 0644          MOVL      ACC,*-SP[4]           ; |920| 
    1568 00000296 8A42          MOVL      XAR4,*-SP[2]          ; |920| 
    1569 00000297 2901          CLRC      SXM
    1570 00000298 D014          MOVB      XAR0,#20              ; |920| 
    1571 00000299 FF47          SFR       ACC,8                 ; |920| 
    1572 0000029a 0794          ADDL      ACC,*+XAR4[AR0]       ; |920| 
TMS320C2000 COFF Assembler PC v4.1.3 Thu May 05 10:06:00 2011

Tools Copyright (c) 1996-2006 Texas Instruments Incorporated
C:\DOCUME~1\ADMINI~1\LOCALS~1\Temp\TI1122                            PAGE   31

    1573 0000029b 8A42          MOVL      XAR4,*-SP[2]          ; |920| 
    1574 0000029c 7640'         LCR       #_move_window         ; |920| 
         0000029d 0077 
    1575                      ; call occurs [#_move_window] ; |920| 
    1576 0000029e 9649          MOV       *-SP[9],AL            ; |920| 
    1577                      .dwpsn  "ff.c",921,4
    1578 0000029f 5200          CMPB      AL,#0                 ; |921| 
    1579 000002a0 ED70          BF        L41,NEQ               ; |921| 
    1580                      ; branchcc occurs ; |921| 
    1581                      .dwpsn  "ff.c",921,24
    1582                      .dwpsn  "ff.c",922,4
    1583 000002a1 0644          MOVL      ACC,*-SP[4]           ; |922| 
    1584 000002a2 8A42          MOVL      XAR4,*-SP[2]          ; |922| 
    1585 000002a3 FF30          LSL       ACC,1                 ; |922| 
    1586 000002a4 18A9          AND       AL,#0x01ff            ; |922| 
         000002a5 01FF 
    1587 000002a6 9B00          MOVB      AH,#0
    1588 000002a7 5601          ADDL      XAR4,ACC
         000002a8 00A4 
    1589 000002a9 DC1C          ADDB      XAR4,#28              ; |922| 
    1590 000002aa A848          MOVL      *-SP[8],XAR4          ; |922| 
    1591                      .dwpsn  "ff.c",923,4
    1592 000002ab 8A48          MOVL      XAR4,*-SP[8]          ; |923| 
    1593 000002ac 9250          MOV       AL,*-SP[16]           ; |923| 
    1594 000002ad 96C4          MOV       *+XAR4[0],AL          ; |923| 
    1595 000002ae 8A48          MOVL      XAR4,*-SP[8]          ; |923| 
    1596 000002af 9250          MOV       AL,*-SP[16]           ; |923| 
    1597 000002b0 FFC7          LSR       AL,8                  ; |923| 
    1598 000002b1 96CC          MOV       *+XAR4[1],AL          ; |923| 
    1599                      .dwpsn  "ff.c",924,9
    1600 000002b2 6F5E          B         L41,UNC               ; |924| 
    1601                      ; branch occurs ; |924| 
    1602              L38:    
    1603                      .dwpsn  "ff.c",927,4
    1604 000002b3 0644          MOVL      ACC,*-SP[4]           ; |927| 
    1605 000002b4 8A42          MOVL      XAR4,*-SP[2]          ; |927| 
    1606 000002b5 2901          CLRC      SXM
    1607 000002b6 D014          MOVB      XAR0,#20              ; |927| 
    1608 000002b7 FF46          SFR       ACC,7                 ; |927| 
    1609 000002b8 0794          ADDL      ACC,*+XAR4[AR0]       ; |927| 
    1610 000002b9 8A42          MOVL      XAR4,*-SP[2]          ; |927| 
    1611 000002ba 7640'         LCR       #_move_window         ; |927| 
         000002bb 0077 
    1612                      ; call occurs [#_move_window] ; |927| 
    1613 000002bc 9649          MOV       *-SP[9],AL            ; |927| 
    1614                      .dwpsn  "ff.c",928,4
    1615 000002bd 5200          CMPB      AL,#0                 ; |928| 
    1616 000002be ED52          BF        L41,NEQ               ; |928| 
    1617                      ; branchcc occurs ; |928| 
    1618                      .dwpsn  "ff.c",928,24
    1619                      .dwpsn  "ff.c",929,4
    1620 000002bf 0644          MOVL      ACC,*-SP[4]           ; |929| 
    1621 000002c0 8A42          MOVL      XAR4,*-SP[2]          ; |929| 
    1622 000002c1 FF31          LSL       ACC,2                 ; |929| 
    1623 000002c2 18A9          AND       AL,#0x01ff            ; |929| 
TMS320C2000 COFF Assembler PC v4.1.3 Thu May 05 10:06:00 2011

Tools Copyright (c) 1996-2006 Texas Instruments Incorporated
C:\DOCUME~1\ADMINI~1\LOCALS~1\Temp\TI1122                            PAGE   32

         000002c3 01FF 
    1624 000002c4 9B00          MOVB      AH,#0
    1625 000002c5 5601          ADDL      XAR4,ACC
         000002c6 00A4 
    1626 000002c7 DC1C          ADDB      XAR4,#28              ; |929| 
    1627 000002c8 A848          MOVL      *-SP[8],XAR4          ; |929| 
    1628                      .dwpsn  "ff.c",930,4
    1629 000002c9 8A48          MOVL      XAR4,*-SP[8]          ; |930| 
    1630 000002ca 0EDC          MOVU      ACC,*+XAR4[3]
    1631 000002cb 28AC          MOV       T,#24                 ; |930| 
         000002cc 0018 
    1632 000002cd 1E4C          MOVL      *-SP[12],ACC          ; |930| 
    1633 000002ce 8A48          MOVL      XAR4,*-SP[8]          ; |930| 
    1634 000002cf 563B          LSLL      ACC,T                 ; |930| 
    1635 000002d0 2901          CLRC      SXM
    1636 000002d1 1E4C          MOVL      *-SP[12],ACC          ; |930| 
    1637 000002d2 25D4          MOV       ACC,*+XAR4[2] << 16   ; |930| 
    1638 000002d3 27A9          MOV       PL,AL                 ; |930| 
    1639 000002d4 924C          MOV       AL,*-SP[12]           ; |930| 
    1640 000002d5 CAAB          OR        AL,PL                 ; |930| 
    1641 000002d6 964C          MOV       *-SP[12],AL           ; |930| 
    1642 000002d7 27A8          MOV       PL,AH                 ; |930| 
    1643 000002d8 8A48          MOVL      XAR4,*-SP[8]          ; |930| 
    1644 000002d9 924B          MOV       AL,*-SP[11]           ; |930| 
    1645 000002da CAAB          OR        AL,PL                 ; |930| 
    1646 000002db 964B          MOV       *-SP[11],AL           ; |930| 
    1647 000002dc 5603          MOV       ACC,*+XAR4[1] << #8   ; |930| 
         000002dd 08CC 
    1648 000002de 88A9          MOVZ      AR6,AL                ; |930| 
    1649 000002df 8A48          MOVL      XAR4,*-SP[8]          ; |930| 
    1650 000002e0 064C          MOVL      ACC,*-SP[12]          ; |930| 
    1651 000002e1 AFA6          OR        ACC,AR6               ; |930| 
    1652 000002e2 1E4C          MOVL      *-SP[12],ACC          ; |930| 
    1653 000002e3 AFC4          OR        ACC,*+XAR4[0]         ; |930| 
    1654 000002e4 5CAD          MOVZ      AR4,SP                ; |930| 
    1655 000002e5 1E4C          MOVL      *-SP[12],ACC          ; |930| 
    1656 000002e6 5608          AND       ACC,#61440 << 16      ; |930| 
         000002e7 F000 
    1657 000002e8 1E4C          MOVL      *-SP[12],ACC          ; |930| 
    1658 000002e9 DC90          SUBB      XAR4,#16              ; |930| 
    1659 000002ea 924C          MOV       AL,*-SP[12]           ; |930| 
    1660 000002eb CAC4          OR        AL,*+XAR4[0]          ; |930| 
    1661 000002ec 964C          MOV       *-SP[12],AL           ; |930| 
    1662 000002ed 924B          MOV       AL,*-SP[11]           ; |930| 
    1663 000002ee CACC          OR        AL,*+XAR4[1]          ; |930| 
    1664 000002ef 964B          MOV       *-SP[11],AL           ; |930| 
    1665 000002f0 064C          MOVL      ACC,*-SP[12]          ; |930| 
    1666 000002f1 1E50          MOVL      *-SP[16],ACC          ; |930| 
    1667                      .dwpsn  "ff.c",931,4
    1668 000002f2 8A48          MOVL      XAR4,*-SP[8]          ; |931| 
    1669 000002f3 9250          MOV       AL,*-SP[16]           ; |931| 
    1670 000002f4 96C4          MOV       *+XAR4[0],AL          ; |931| 
    1671 000002f5 8A48          MOVL      XAR4,*-SP[8]          ; |931| 
    1672 000002f6 9250          MOV       AL,*-SP[16]           ; |931| 
    1673 000002f7 FFC7          LSR       AL,8                  ; |931| 
TMS320C2000 COFF Assembler PC v4.1.3 Thu May 05 10:06:00 2011

Tools Copyright (c) 1996-2006 Texas Instruments Incorporated
C:\DOCUME~1\ADMINI~1\LOCALS~1\Temp\TI1122                            PAGE   33

    1674 000002f8 96CC          MOV       *+XAR4[1],AL          ; |931| 
    1675 000002f9 8A48          MOVL      XAR4,*-SP[8]          ; |931| 
    1676 000002fa 0650          MOVL      ACC,*-SP[16]          ; |931| 
    1677 000002fb 97D4          MOVH      *+XAR4[2],ACC << 0    ; |931| 
    1678 000002fc 8A48          MOVL      XAR4,*-SP[8]          ; |931| 
    1679 000002fd 28AC          MOV       T,#24                 ; |931| 
         000002fe 0018 
    1680 000002ff 0650          MOVL      ACC,*-SP[16]          ; |931| 
    1681 00000300 5622          LSRL      ACC,T                 ; |931| 
    1682 00000301 96DC          MOV       *+XAR4[3],AL          ; |931| 
    1683                      .dwpsn  "ff.c",932,9
    1684 00000302 6F0E          B         L41,UNC               ; |932| 
    1685                      ; branch occurs ; |932| 
    1686              L39:    
    1687                      .dwpsn  "ff.c",935,4
    1688 00000303 2849          MOV       *-SP[9],#2            ; |935| 
         00000304 0002 
    1689 00000305 6F0B          B         L41,UNC               ; |935| 
    1690                      ; branch occurs ; |935| 
    1691              L40:    
    1692                      .dwpsn  "ff.c",902,3
    1693 00000306 8A42          MOVL      XAR4,*-SP[2]          ; |902| 
    1694 00000307 92C4          MOV       AL,*+XAR4[0]          ; |902| 
    1695 00000308 5201          CMPB      AL,#1                 ; |902| 
    1696 00000309 56C1          BF        L32,EQ                ; |902| 
         0000030a FF35 
    1697                      ; branchcc occurs ; |902| 
    1698 0000030b 5202          CMPB      AL,#2                 ; |902| 
    1699 0000030c EC89          BF        L37,EQ                ; |902| 
    1700                      ; branchcc occurs ; |902| 
    1701 0000030d 5203          CMPB      AL,#3                 ; |902| 
    1702 0000030e ECA5          BF        L38,EQ                ; |902| 
    1703                      ; branchcc occurs ; |902| 
    1704 0000030f 6FF4          B         L39,UNC               ; |902| 
    1705                      ; branch occurs ; |902| 
    1706              L41:    
    1707                      .dwpsn  "ff.c",937,3
    1708 00000310 8A42          MOVL      XAR4,*-SP[2]          ; |937| 
    1709 00000311 28E4          MOV       *+XAR4[4],#1          ; |937| 
         00000312 0001 
    1710              L42:    
    1711                      .dwpsn  "ff.c",940,2
    1712 00000313 9249          MOV       AL,*-SP[9]            ; |940| 
    1713                      .dwpsn  "ff.c",941,1
    1714 00000314 FE8C          SUBB      SP,#12                ; |940| 
    1715                      .dwcfa  0x1d, -2
    1716 00000315 0006          LRETR
    1717                      ; return occurs
    1718                      .dwattr DW$109, DW_AT_end_file("ff.c")
    1719                      .dwattr DW$109, DW_AT_end_line(0x3ad)
    1720                      .dwattr DW$109, DW_AT_end_column(0x01)
    1721                      .dwendentry
    1722                      .dwendtag DW$109
    1723              
    1724 00000316               .sect   ".text"
TMS320C2000 COFF Assembler PC v4.1.3 Thu May 05 10:06:00 2011

Tools Copyright (c) 1996-2006 Texas Instruments Incorporated
C:\DOCUME~1\ADMINI~1\LOCALS~1\Temp\TI1122                            PAGE   34

    1725              
    1726              DW$118  .dwtag  DW_TAG_subprogram, DW_AT_name("remove_chain"), DW_AT_symbol_name("_remove_chain")
    1727                      .dwattr DW$118, DW_AT_low_pc(_remove_chain)
    1728                      .dwattr DW$118, DW_AT_high_pc(0x00)
    1729                      .dwattr DW$118, DW_AT_begin_file("ff.c")
    1730                      .dwattr DW$118, DW_AT_begin_line(0x3b8)
    1731                      .dwattr DW$118, DW_AT_begin_column(0x09)
    1732                      .dwpsn  "ff.c",956,1
    1733              
    1734                      .dwfde DW$CIE
    1735              
    1736              ;***************************************************************
    1737              ;* FNAME: _remove_chain                 FR SIZE:  10           *
    1738              ;*                                                             *
    1739              ;* FUNCTION ENVIRONMENT                                        *
    1740              ;*                                                             *
    1741              ;* FUNCTION PROPERTIES                                         *
    1742              ;*                            2 Parameter,  8 Auto,  0 SOE     *
    1743              ;***************************************************************
    1744              
    1745              _remove_chain:
    1746                      .dwcfa  0x1d, -2
    1747                      .dwcfa  0x1c, 26, 0
    1748                      .dwcfa  0x09, 40, 26
    1749 00000316 FE0A          ADDB      SP,#10
    1750                      .dwcfa  0x1d, -12
    1751              ;* AR4   assigned to _fs
    1752              DW$119  .dwtag  DW_TAG_formal_parameter, DW_AT_name("fs"), DW_AT_symbol_name("_fs")
    1753                      .dwattr DW$119, DW_AT_type(*DW$T$31)
    1754                      .dwattr DW$119, DW_AT_location[DW_OP_reg12]
    1755              ;* AL    assigned to _clst
    1756              DW$120  .dwtag  DW_TAG_formal_parameter, DW_AT_name("clst"), DW_AT_symbol_name("_clst")
    1757                      .dwattr DW$120, DW_AT_type(*DW$T$27)
    1758                      .dwattr DW$120, DW_AT_location[DW_OP_reg0]
    1759              DW$121  .dwtag  DW_TAG_variable, DW_AT_name("fs"), DW_AT_symbol_name("_fs")
    1760                      .dwattr DW$121, DW_AT_type(*DW$T$31)
    1761                      .dwattr DW$121, DW_AT_location[DW_OP_breg20 -4]
    1762              DW$122  .dwtag  DW_TAG_variable, DW_AT_name("clst"), DW_AT_symbol_name("_clst")
    1763                      .dwattr DW$122, DW_AT_type(*DW$T$27)
    1764                      .dwattr DW$122, DW_AT_location[DW_OP_breg20 -6]
    1765              DW$123  .dwtag  DW_TAG_variable, DW_AT_name("res"), DW_AT_symbol_name("_res")
    1766                      .dwattr DW$123, DW_AT_type(*DW$T$49)
    1767                      .dwattr DW$123, DW_AT_location[DW_OP_breg20 -7]
    1768              DW$124  .dwtag  DW_TAG_variable, DW_AT_name("nxt"), DW_AT_symbol_name("_nxt")
    1769                      .dwattr DW$124, DW_AT_type(*DW$T$27)
    1770                      .dwattr DW$124, DW_AT_location[DW_OP_breg20 -10]
    1771 00000317 1E46          MOVL      *-SP[6],ACC           ; |956| 
    1772 00000318 A844          MOVL      *-SP[4],XAR4          ; |956| 
    1773                      .dwpsn  "ff.c",963,2
    1774 00000319 0202          MOVB      ACC,#2
    1775 0000031a 0F46          CMPL      ACC,*-SP[6]           ; |963| 
    1776 0000031b 6606          B         L43,HI                ; |963| 
    1777                      ; branchcc occurs ; |963| 
    1778 0000031c 8A44          MOVL      XAR4,*-SP[4]          ; |963| 
    1779 0000031d D010          MOVB      XAR0,#16              ; |963| 
TMS320C2000 COFF Assembler PC v4.1.3 Thu May 05 10:06:00 2011

Tools Copyright (c) 1996-2006 Texas Instruments Incorporated
C:\DOCUME~1\ADMINI~1\LOCALS~1\Temp\TI1122                            PAGE   35

    1780 0000031e 0694          MOVL      ACC,*+XAR4[AR0]       ; |963| 
    1781 0000031f 0F46          CMPL      ACC,*-SP[6]           ; |963| 
    1782 00000320 6604          B         L44,HI                ; |963| 
    1783                      ; branchcc occurs ; |963| 
    1784              L43:    
    1785                      .dwpsn  "ff.c",965,3
    1786 00000321 2847          MOV       *-SP[7],#2            ; |965| 
         00000322 0002 
    1787                      .dwpsn  "ff.c",967,2
    1788 00000323 6F35          B         L50,UNC               ; |967| 
    1789                      ; branch occurs ; |967| 
    1790              L44:    
    1791                      .dwpsn  "ff.c",970,3
    1792 00000324 2B47          MOV       *-SP[7],#0            ; |970| 
    1793                      .dwpsn  "ff.c",971,3
    1794 00000325 6F2E          B         L49,UNC               ; |971| 
    1795                      ; branch occurs ; |971| 
    1796              L45:    
    1797              DW$L$_remove_chain$5$B:
    1798                      .dwpsn  "ff.c",973,4
    1799 00000326 8A44          MOVL      XAR4,*-SP[4]          ; |973| 
    1800 00000327 0646          MOVL      ACC,*-SP[6]           ; |973| 
    1801 00000328 7640'         LCR       #_get_fat             ; |973| 
         00000329 0186 
    1802                      ; call occurs [#_get_fat] ; |973| 
    1803 0000032a 1E4A          MOVL      *-SP[10],ACC          ; |973| 
    1804                      .dwpsn  "ff.c",974,4
    1805 0000032b 064A          MOVL      ACC,*-SP[10]          ; |974| 
    1806 0000032c EC2C          BF        L50,EQ                ; |974| 
    1807                      ; branchcc occurs ; |974| 
    1808              DW$L$_remove_chain$5$E:
    1809              DW$L$_remove_chain$6$B:
    1810                      .dwpsn  "ff.c",974,20
    1811                      .dwpsn  "ff.c",975,4
    1812 0000032d 0201          MOVB      ACC,#1
    1813 0000032e 0F4A          CMPL      ACC,*-SP[10]          ; |975| 
    1814 0000032f ED04          BF        L46,NEQ               ; |975| 
    1815                      ; branchcc occurs ; |975| 
    1816              DW$L$_remove_chain$6$E:
    1817                      .dwpsn  "ff.c",977,5
    1818 00000330 2847          MOV       *-SP[7],#2            ; |977| 
         00000331 0002 
    1819                      .dwpsn  "ff.c",978,5
    1820 00000332 6F26          B         L50,UNC               ; |978| 
    1821                      ; branch occurs ; |978| 
    1822              L46:    
    1823              DW$L$_remove_chain$8$B:
    1824                      .dwpsn  "ff.c",980,4
    1825 00000333 0200          MOVB      ACC,#0
    1826 00000334 1901          SUBB      ACC,#1
    1827 00000335 0F4A          CMPL      ACC,*-SP[10]          ; |980| 
    1828 00000336 ED04          BF        L47,NEQ               ; |980| 
    1829                      ; branchcc occurs ; |980| 
    1830              DW$L$_remove_chain$8$E:
    1831                      .dwpsn  "ff.c",982,5
TMS320C2000 COFF Assembler PC v4.1.3 Thu May 05 10:06:00 2011

Tools Copyright (c) 1996-2006 Texas Instruments Incorporated
C:\DOCUME~1\ADMINI~1\LOCALS~1\Temp\TI1122                            PAGE   36

    1832 00000337 2847          MOV       *-SP[7],#1            ; |982| 
         00000338 0001 
    1833                      .dwpsn  "ff.c",983,5
    1834 00000339 6F1F          B         L50,UNC               ; |983| 
    1835                      ; branch occurs ; |983| 
    1836              L47:    
    1837              DW$L$_remove_chain$10$B:
    1838                      .dwpsn  "ff.c",985,4
    1839 0000033a 0200          MOVB      ACC,#0
    1840 0000033b 1E42          MOVL      *-SP[2],ACC           ; |985| 
    1841 0000033c 8A44          MOVL      XAR4,*-SP[4]          ; |985| 
    1842 0000033d 0646          MOVL      ACC,*-SP[6]           ; |985| 
    1843 0000033e 7640'         LCR       #_put_fat             ; |985| 
         0000033f 022E 
    1844                      ; call occurs [#_put_fat] ; |985| 
    1845 00000340 9647          MOV       *-SP[7],AL            ; |985| 
    1846                      .dwpsn  "ff.c",986,4
    1847 00000341 5200          CMPB      AL,#0                 ; |986| 
    1848 00000342 ED16          BF        L50,NEQ               ; |986| 
    1849                      ; branchcc occurs ; |986| 
    1850              DW$L$_remove_chain$10$E:
    1851              DW$L$_remove_chain$11$B:
    1852                      .dwpsn  "ff.c",986,24
    1853                      .dwpsn  "ff.c",987,4
    1854 00000343 8A44          MOVL      XAR4,*-SP[4]          ; |987| 
    1855 00000344 0200          MOVB      ACC,#0
    1856 00000345 D00C          MOVB      XAR0,#12              ; |987| 
    1857 00000346 1901          SUBB      ACC,#1
    1858 00000347 0F94          CMPL      ACC,*+XAR4[AR0]       ; |987| 
    1859 00000348 EC09          BF        L48,EQ                ; |987| 
    1860                      ; branchcc occurs ; |987| 
    1861              DW$L$_remove_chain$11$E:
    1862              DW$L$_remove_chain$12$B:
    1863                      .dwpsn  "ff.c",989,5
    1864 00000349 8A44          MOVL      XAR4,*-SP[4]          ; |989| 
    1865 0000034a 0201          MOVB      ACC,#1
    1866 0000034b DC0C          ADDB      XAR4,#12              ; |989| 
    1867 0000034c 5601          ADDL      *+XAR4[0],ACC         ; |989| 
         0000034d 00C4 
    1868                      .dwpsn  "ff.c",990,5
    1869 0000034e 8A44          MOVL      XAR4,*-SP[4]          ; |990| 
    1870 0000034f 28EC          MOV       *+XAR4[5],#1          ; |990| 
         00000350 0001 
    1871              DW$L$_remove_chain$12$E:
    1872              L48:    
    1873              DW$L$_remove_chain$13$B:
    1874                      .dwpsn  "ff.c",1005,4
    1875 00000351 064A          MOVL      ACC,*-SP[10]          ; |1005| 
    1876 00000352 1E46          MOVL      *-SP[6],ACC           ; |1005| 
    1877              DW$L$_remove_chain$13$E:
    1878              L49:    
    1879              DW$L$_remove_chain$14$B:
    1880                      .dwpsn  "ff.c",971,11
    1881 00000353 8A44          MOVL      XAR4,*-SP[4]          ; |971| 
    1882 00000354 D010          MOVB      XAR0,#16              ; |971| 
TMS320C2000 COFF Assembler PC v4.1.3 Thu May 05 10:06:00 2011

Tools Copyright (c) 1996-2006 Texas Instruments Incorporated
C:\DOCUME~1\ADMINI~1\LOCALS~1\Temp\TI1122                            PAGE   37

    1883 00000355 0694          MOVL      ACC,*+XAR4[AR0]       ; |971| 
    1884 00000356 0F46          CMPL      ACC,*-SP[6]           ; |971| 
    1885 00000357 66CF          B         L45,HI                ; |971| 
    1886                      ; branchcc occurs ; |971| 
    1887              DW$L$_remove_chain$14$E:
    1888              L50:    
    1889                      .dwpsn  "ff.c",1009,2
    1890 00000358 9247          MOV       AL,*-SP[7]            ; |1009| 
    1891                      .dwpsn  "ff.c",1010,1
    1892 00000359 FE8A          SUBB      SP,#10                ; |1009| 
    1893                      .dwcfa  0x1d, -2
    1894 0000035a 0006          LRETR
    1895                      ; return occurs
    1896              
    1897              DW$125  .dwtag  DW_TAG_loop
    1898                      .dwattr DW$125, DW_AT_name("C:\DOCUME~1\ADMINI~1\LOCALS~1\Temp\TI1122:L49:1:1304561157")
    1899                      .dwattr DW$125, DW_AT_begin_file("ff.c")
    1900                      .dwattr DW$125, DW_AT_begin_line(0x3cb)
    1901                      .dwattr DW$125, DW_AT_end_line(0x3ed)
    1902              DW$126  .dwtag  DW_TAG_loop_range
    1903                      .dwattr DW$126, DW_AT_low_pc(DW$L$_remove_chain$14$B)
    1904                      .dwattr DW$126, DW_AT_high_pc(DW$L$_remove_chain$14$E)
    1905              DW$127  .dwtag  DW_TAG_loop_range
    1906                      .dwattr DW$127, DW_AT_low_pc(DW$L$_remove_chain$5$B)
    1907                      .dwattr DW$127, DW_AT_high_pc(DW$L$_remove_chain$5$E)
    1908              DW$128  .dwtag  DW_TAG_loop_range
    1909                      .dwattr DW$128, DW_AT_low_pc(DW$L$_remove_chain$6$B)
    1910                      .dwattr DW$128, DW_AT_high_pc(DW$L$_remove_chain$6$E)
    1911              DW$129  .dwtag  DW_TAG_loop_range
    1912                      .dwattr DW$129, DW_AT_low_pc(DW$L$_remove_chain$8$B)
    1913                      .dwattr DW$129, DW_AT_high_pc(DW$L$_remove_chain$8$E)
    1914              DW$130  .dwtag  DW_TAG_loop_range
    1915                      .dwattr DW$130, DW_AT_low_pc(DW$L$_remove_chain$10$B)
    1916                      .dwattr DW$130, DW_AT_high_pc(DW$L$_remove_chain$10$E)
    1917              DW$131  .dwtag  DW_TAG_loop_range
    1918                      .dwattr DW$131, DW_AT_low_pc(DW$L$_remove_chain$11$B)
    1919                      .dwattr DW$131, DW_AT_high_pc(DW$L$_remove_chain$11$E)
    1920              DW$132  .dwtag  DW_TAG_loop_range
    1921                      .dwattr DW$132, DW_AT_low_pc(DW$L$_remove_chain$12$B)
    1922                      .dwattr DW$132, DW_AT_high_pc(DW$L$_remove_chain$12$E)
    1923              DW$133  .dwtag  DW_TAG_loop_range
    1924                      .dwattr DW$133, DW_AT_low_pc(DW$L$_remove_chain$13$B)
    1925                      .dwattr DW$133, DW_AT_high_pc(DW$L$_remove_chain$13$E)
    1926                      .dwendtag DW$125
    1927              
    1928                      .dwattr DW$118, DW_AT_end_file("ff.c")
    1929                      .dwattr DW$118, DW_AT_end_line(0x3f2)
    1930                      .dwattr DW$118, DW_AT_end_column(0x01)
    1931                      .dwendentry
    1932                      .dwendtag DW$118
    1933              
    1934 0000035b               .sect   ".text"
    1935              
    1936              DW$134  .dwtag  DW_TAG_subprogram, DW_AT_name("create_chain"), DW_AT_symbol_name("_create_chain")
    1937                      .dwattr DW$134, DW_AT_low_pc(_create_chain)
TMS320C2000 COFF Assembler PC v4.1.3 Thu May 05 10:06:00 2011

Tools Copyright (c) 1996-2006 Texas Instruments Incorporated
C:\DOCUME~1\ADMINI~1\LOCALS~1\Temp\TI1122                            PAGE   38

    1938                      .dwattr DW$134, DW_AT_high_pc(0x00)
    1939                      .dwattr DW$134, DW_AT_begin_file("ff.c")
    1940                      .dwattr DW$134, DW_AT_begin_line(0x3fd)
    1941                      .dwattr DW$134, DW_AT_begin_column(0x07)
    1942                      .dwpsn  "ff.c",1025,1
    1943              
    1944                      .dwfde DW$CIE
    1945              
    1946              ;***************************************************************
    1947              ;* FNAME: _create_chain                 FR SIZE:  14           *
    1948              ;*                                                             *
    1949              ;* FUNCTION ENVIRONMENT                                        *
    1950              ;*                                                             *
    1951              ;* FUNCTION PROPERTIES                                         *
    1952              ;*                            2 Parameter, 11 Auto,  0 SOE     *
    1953              ;***************************************************************
    1954              
    1955              _create_chain:
    1956                      .dwcfa  0x1d, -2
    1957                      .dwcfa  0x1c, 26, 0
    1958                      .dwcfa  0x09, 40, 26
    1959 0000035b FE0E          ADDB      SP,#14
    1960                      .dwcfa  0x1d, -16
    1961              ;* AR4   assigned to _fs
    1962              DW$135  .dwtag  DW_TAG_formal_parameter, DW_AT_name("fs"), DW_AT_symbol_name("_fs")
    1963                      .dwattr DW$135, DW_AT_type(*DW$T$31)
    1964                      .dwattr DW$135, DW_AT_location[DW_OP_reg12]
    1965              ;* AL    assigned to _clst
    1966              DW$136  .dwtag  DW_TAG_formal_parameter, DW_AT_name("clst"), DW_AT_symbol_name("_clst")
    1967                      .dwattr DW$136, DW_AT_type(*DW$T$27)
    1968                      .dwattr DW$136, DW_AT_location[DW_OP_reg0]
    1969              DW$137  .dwtag  DW_TAG_variable, DW_AT_name("fs"), DW_AT_symbol_name("_fs")
    1970                      .dwattr DW$137, DW_AT_type(*DW$T$31)
    1971                      .dwattr DW$137, DW_AT_location[DW_OP_breg20 -4]
    1972              DW$138  .dwtag  DW_TAG_variable, DW_AT_name("clst"), DW_AT_symbol_name("_clst")
    1973                      .dwattr DW$138, DW_AT_type(*DW$T$27)
    1974                      .dwattr DW$138, DW_AT_location[DW_OP_breg20 -6]
    1975              DW$139  .dwtag  DW_TAG_variable, DW_AT_name("cs"), DW_AT_symbol_name("_cs")
    1976                      .dwattr DW$139, DW_AT_type(*DW$T$27)
    1977                      .dwattr DW$139, DW_AT_location[DW_OP_breg20 -8]
    1978              DW$140  .dwtag  DW_TAG_variable, DW_AT_name("ncl"), DW_AT_symbol_name("_ncl")
    1979                      .dwattr DW$140, DW_AT_type(*DW$T$27)
    1980                      .dwattr DW$140, DW_AT_location[DW_OP_breg20 -10]
    1981              DW$141  .dwtag  DW_TAG_variable, DW_AT_name("scl"), DW_AT_symbol_name("_scl")
    1982                      .dwattr DW$141, DW_AT_type(*DW$T$27)
    1983                      .dwattr DW$141, DW_AT_location[DW_OP_breg20 -12]
    1984              DW$142  .dwtag  DW_TAG_variable, DW_AT_name("res"), DW_AT_symbol_name("_res")
    1985                      .dwattr DW$142, DW_AT_type(*DW$T$49)
    1986                      .dwattr DW$142, DW_AT_location[DW_OP_breg20 -13]
    1987 0000035c 1E46          MOVL      *-SP[6],ACC           ; |1025| 
    1988 0000035d A844          MOVL      *-SP[4],XAR4          ; |1025| 
    1989                      .dwpsn  "ff.c",1030,2
    1990 0000035e 0646          MOVL      ACC,*-SP[6]           ; |1030| 
    1991 0000035f ED0F          BF        L52,NEQ               ; |1030| 
    1992                      ; branchcc occurs ; |1030| 
TMS320C2000 COFF Assembler PC v4.1.3 Thu May 05 10:06:00 2011

Tools Copyright (c) 1996-2006 Texas Instruments Incorporated
C:\DOCUME~1\ADMINI~1\LOCALS~1\Temp\TI1122                            PAGE   39

    1993                      .dwpsn  "ff.c",1032,3
    1994 00000360 8A44          MOVL      XAR4,*-SP[4]          ; |1032| 
    1995 00000361 D00A          MOVB      XAR0,#10              ; |1032| 
    1996 00000362 0694          MOVL      ACC,*+XAR4[AR0]       ; |1032| 
    1997 00000363 1E4C          MOVL      *-SP[12],ACC          ; |1032| 
    1998                      .dwpsn  "ff.c",1033,3
    1999 00000364 064C          MOVL      ACC,*-SP[12]          ; |1033| 
    2000 00000365 EC06          BF        L51,EQ                ; |1033| 
    2001                      ; branchcc occurs ; |1033| 
    2002 00000366 8A44          MOVL      XAR4,*-SP[4]          ; |1033| 
    2003 00000367 D010          MOVB      XAR0,#16              ; |1033| 
    2004 00000368 0694          MOVL      ACC,*+XAR4[AR0]       ; |1033| 
    2005 00000369 0F4C          CMPL      ACC,*-SP[12]          ; |1033| 
    2006 0000036a 6617          B         L55,HI                ; |1033| 
    2007                      ; branchcc occurs ; |1033| 
    2008              L51:    
    2009                      .dwpsn  "ff.c",1033,38
    2010 0000036b 0201          MOVB      ACC,#1
    2011 0000036c 1E4C          MOVL      *-SP[12],ACC          ; |1033| 
    2012                      .dwpsn  "ff.c",1034,2
    2013 0000036d 6F14          B         L55,UNC               ; |1034| 
    2014                      ; branch occurs ; |1034| 
    2015              L52:    
    2016                      .dwpsn  "ff.c",1037,3
    2017 0000036e 8A44          MOVL      XAR4,*-SP[4]          ; |1037| 
    2018 0000036f 0646          MOVL      ACC,*-SP[6]           ; |1037| 
    2019 00000370 7640'         LCR       #_get_fat             ; |1037| 
         00000371 0186 
    2020                      ; call occurs [#_get_fat] ; |1037| 
    2021 00000372 1E48          MOVL      *-SP[8],ACC           ; |1037| 
    2022                      .dwpsn  "ff.c",1038,3
    2023 00000373 0202          MOVB      ACC,#2
    2024 00000374 0F48          CMPL      ACC,*-SP[8]           ; |1038| 
    2025 00000375 6903          B         L53,LOS               ; |1038| 
    2026                      ; branchcc occurs ; |1038| 
    2027                      .dwpsn  "ff.c",1038,17
    2028 00000376 0201          MOVB      ACC,#1
    2029 00000377 6F62          B         L66,UNC               ; |1038| 
    2030                      ; branch occurs ; |1038| 
    2031              L53:    
    2032                      .dwpsn  "ff.c",1039,3
    2033 00000378 8A44          MOVL      XAR4,*-SP[4]          ; |1039| 
    2034 00000379 D010          MOVB      XAR0,#16              ; |1039| 
    2035 0000037a 0694          MOVL      ACC,*+XAR4[AR0]       ; |1039| 
    2036 0000037b 0F48          CMPL      ACC,*-SP[8]           ; |1039| 
    2037 0000037c 6903          B         L54,LOS               ; |1039| 
    2038                      ; branchcc occurs ; |1039| 
    2039                      .dwpsn  "ff.c",1039,28
    2040 0000037d 0648          MOVL      ACC,*-SP[8]           ; |1039| 
    2041 0000037e 6F5B          B         L66,UNC               ; |1039| 
    2042                      ; branch occurs ; |1039| 
    2043              L54:    
    2044                      .dwpsn  "ff.c",1040,3
    2045 0000037f 0646          MOVL      ACC,*-SP[6]           ; |1040| 
    2046 00000380 1E4C          MOVL      *-SP[12],ACC          ; |1040| 
TMS320C2000 COFF Assembler PC v4.1.3 Thu May 05 10:06:00 2011

Tools Copyright (c) 1996-2006 Texas Instruments Incorporated
C:\DOCUME~1\ADMINI~1\LOCALS~1\Temp\TI1122                            PAGE   40

    2047              L55:    
    2048                      .dwpsn  "ff.c",1043,2
    2049 00000381 064C          MOVL      ACC,*-SP[12]          ; |1043| 
    2050 00000382 1E4A          MOVL      *-SP[10],ACC          ; |1043| 
    2051              L56:    
    2052              DW$L$_create_chain$11$B:
    2053                      .dwpsn  "ff.c",1046,3
    2054 00000383 0201          MOVB      ACC,#1
    2055 00000384 074A          ADDL      ACC,*-SP[10]          ; |1046| 
    2056 00000385 1E4A          MOVL      *-SP[10],ACC          ; |1046| 
    2057                      .dwpsn  "ff.c",1047,3
    2058 00000386 8A44          MOVL      XAR4,*-SP[4]          ; |1047| 
    2059 00000387 D010          MOVB      XAR0,#16              ; |1047| 
    2060 00000388 0694          MOVL      ACC,*+XAR4[AR0]       ; |1047| 
    2061 00000389 0F4A          CMPL      ACC,*-SP[10]          ; |1047| 
    2062 0000038a 6608          B         L57,HI                ; |1047| 
    2063                      ; branchcc occurs ; |1047| 
    2064              DW$L$_create_chain$11$E:
    2065              DW$L$_create_chain$12$B:
    2066                      .dwpsn  "ff.c",1049,4
    2067 0000038b 0202          MOVB      ACC,#2
    2068 0000038c 1E4A          MOVL      *-SP[10],ACC          ; |1049| 
    2069                      .dwpsn  "ff.c",1050,4
    2070 0000038d 064C          MOVL      ACC,*-SP[12]          ; |1050| 
    2071 0000038e 0F4A          CMPL      ACC,*-SP[10]          ; |1050| 
    2072 0000038f 6703          B         L57,HIS               ; |1050| 
    2073                      ; branchcc occurs ; |1050| 
    2074              DW$L$_create_chain$12$E:
    2075                      .dwpsn  "ff.c",1050,21
    2076 00000390 0200          MOVB      ACC,#0
    2077 00000391 6F48          B         L66,UNC               ; |1050| 
    2078                      ; branch occurs ; |1050| 
    2079              L57:    
    2080              DW$L$_create_chain$14$B:
    2081                      .dwpsn  "ff.c",1052,3
    2082 00000392 8A44          MOVL      XAR4,*-SP[4]          ; |1052| 
    2083 00000393 064A          MOVL      ACC,*-SP[10]          ; |1052| 
    2084 00000394 7640'         LCR       #_get_fat             ; |1052| 
         00000395 0186 
    2085                      ; call occurs [#_get_fat] ; |1052| 
    2086 00000396 1E48          MOVL      *-SP[8],ACC           ; |1052| 
    2087                      .dwpsn  "ff.c",1053,3
    2088 00000397 0648          MOVL      ACC,*-SP[8]           ; |1053| 
    2089 00000398 EC0F          BF        L60,EQ                ; |1053| 
    2090                      ; branchcc occurs ; |1053| 
    2091              DW$L$_create_chain$14$E:
    2092              DW$L$_create_chain$15$B:
    2093                      .dwpsn  "ff.c",1053,18
    2094                      .dwpsn  "ff.c",1054,3
    2095 00000399 0200          MOVB      ACC,#0
    2096 0000039a 1901          SUBB      ACC,#1
    2097 0000039b 0F48          CMPL      ACC,*-SP[8]           ; |1054| 
    2098 0000039c EC04          BF        L58,EQ                ; |1054| 
    2099                      ; branchcc occurs ; |1054| 
    2100 0000039d       DW$L$_create_chain$15$E:
TMS320C2000 COFF Assembler PC v4.1.3 Thu May 05 10:06:00 2011

Tools Copyright (c) 1996-2006 Texas Instruments Incorporated
C:\DOCUME~1\ADMINI~1\LOCALS~1\Temp\TI1122                            PAGE   41

    2101 0000039d       DW$L$_create_chain$16$B:
    2102 0000039d 0201          MOVB      ACC,#1
    2103 0000039e 0F48          CMPL      ACC,*-SP[8]           ; |1054| 
    2104 0000039f ED03          BF        L59,NEQ               ; |1054| 
    2105                      ; branchcc occurs ; |1054| 
    2106              DW$L$_create_chain$16$E:
    2107              L58:    
    2108                      .dwpsn  "ff.c",1055,4
    2109 000003a0 0648          MOVL      ACC,*-SP[8]           ; |1055| 
    2110 000003a1 6F38          B         L66,UNC               ; |1055| 
    2111                      ; branch occurs ; |1055| 
    2112              L59:    
    2113              DW$L$_create_chain$18$B:
    2114                      .dwpsn  "ff.c",1056,3
    2115 000003a2 064C          MOVL      ACC,*-SP[12]          ; |1056| 
    2116 000003a3 0F4A          CMPL      ACC,*-SP[10]          ; |1056| 
    2117 000003a4 EDDF          BF        L56,NEQ               ; |1056| 
    2118                      ; branchcc occurs ; |1056| 
    2119              DW$L$_create_chain$18$E:
    2120                      .dwpsn  "ff.c",1056,21
    2121 000003a5 0200          MOVB      ACC,#0
    2122 000003a6 6F33          B         L66,UNC               ; |1056| 
    2123                      ; branch occurs ; |1056| 
    2124              L60:    
    2125                      .dwpsn  "ff.c",1059,2
    2126 000003a7 28AA          MOV       PH,#4095
         000003a8 0FFF 
    2127 000003a9 28AB          MOV       PL,#65535
         000003aa FFFF 
    2128 000003ab A942          MOVL      *-SP[2],P             ; |1059| 
    2129 000003ac 8A44          MOVL      XAR4,*-SP[4]          ; |1059| 
    2130 000003ad 064A          MOVL      ACC,*-SP[10]          ; |1059| 
    2131 000003ae 7640'         LCR       #_put_fat             ; |1059| 
         000003af 022E 
    2132                      ; call occurs [#_put_fat] ; |1059| 
    2133 000003b0 964D          MOV       *-SP[13],AL           ; |1059| 
    2134                      .dwpsn  "ff.c",1060,2
    2135 000003b1 5200          CMPB      AL,#0                 ; |1060| 
    2136 000003b2 ED0A          BF        L61,NEQ               ; |1060| 
    2137                      ; branchcc occurs ; |1060| 
    2138 000003b3 0646          MOVL      ACC,*-SP[6]           ; |1060| 
    2139 000003b4 EC08          BF        L61,EQ                ; |1060| 
    2140                      ; branchcc occurs ; |1060| 
    2141                      .dwpsn  "ff.c",1062,3
    2142 000003b5 064A          MOVL      ACC,*-SP[10]          ; |1062| 
    2143 000003b6 1E42          MOVL      *-SP[2],ACC           ; |1062| 
    2144 000003b7 8A44          MOVL      XAR4,*-SP[4]          ; |1062| 
    2145 000003b8 0646          MOVL      ACC,*-SP[6]           ; |1062| 
    2146 000003b9 7640'         LCR       #_put_fat             ; |1062| 
         000003ba 022E 
    2147                      ; call occurs [#_put_fat] ; |1062| 
    2148 000003bb 964D          MOV       *-SP[13],AL           ; |1062| 
    2149              L61:    
    2150                      .dwpsn  "ff.c",1064,2
    2151 000003bc 924D          MOV       AL,*-SP[13]           ; |1064| 
TMS320C2000 COFF Assembler PC v4.1.3 Thu May 05 10:06:00 2011

Tools Copyright (c) 1996-2006 Texas Instruments Incorporated
C:\DOCUME~1\ADMINI~1\LOCALS~1\Temp\TI1122                            PAGE   42

    2152 000003bd ED14          BF        L62,NEQ               ; |1064| 
    2153                      ; branchcc occurs ; |1064| 
    2154                      .dwpsn  "ff.c",1066,3
    2155 000003be 8A44          MOVL      XAR4,*-SP[4]          ; |1066| 
    2156 000003bf 064A          MOVL      ACC,*-SP[10]          ; |1066| 
    2157 000003c0 D00A          MOVB      XAR0,#10              ; |1066| 
    2158 000003c1 1E94          MOVL      *+XAR4[AR0],ACC       ; |1066| 
    2159                      .dwpsn  "ff.c",1067,3
    2160 000003c2 8A44          MOVL      XAR4,*-SP[4]          ; |1067| 
    2161 000003c3 0200          MOVB      ACC,#0
    2162 000003c4 1901          SUBB      ACC,#1
    2163 000003c5 D00C          MOVB      XAR0,#12              ; |1067| 
    2164 000003c6 0F94          CMPL      ACC,*+XAR4[AR0]       ; |1067| 
    2165 000003c7 EC11          BF        L65,EQ                ; |1067| 
    2166                      ; branchcc occurs ; |1067| 
    2167                      .dwpsn  "ff.c",1069,4
    2168 000003c8 8A44          MOVL      XAR4,*-SP[4]          ; |1069| 
    2169 000003c9 0201          MOVB      ACC,#1
    2170 000003ca DC0C          ADDB      XAR4,#12              ; |1069| 
    2171 000003cb 5641          SUBL      *+XAR4[0],ACC         ; |1069| 
         000003cc 00C4 
    2172                      .dwpsn  "ff.c",1070,4
    2173 000003cd 8A44          MOVL      XAR4,*-SP[4]          ; |1070| 
    2174 000003ce 28EC          MOV       *+XAR4[5],#1          ; |1070| 
         000003cf 0001 
    2175                      .dwpsn  "ff.c",1072,2
    2176 000003d0 6F08          B         L65,UNC               ; |1072| 
    2177                      ; branch occurs ; |1072| 
    2178              L62:    
    2179                      .dwpsn  "ff.c",1075,3
    2180 000003d1 5201          CMPB      AL,#1                 ; |1075| 
    2181 000003d2 ED04          BF        L63,NEQ               ; |1075| 
    2182                      ; branchcc occurs ; |1075| 
    2183 000003d3 0200          MOVB      ACC,#0
    2184 000003d4 1901          SUBB      ACC,#1
    2185 000003d5 6F02          B         L64,UNC               ; |1075| 
    2186                      ; branch occurs ; |1075| 
    2187 000003d6       L63:    
    2188 000003d6 0201          MOVB      ACC,#1
    2189 000003d7       L64:    
    2190 000003d7 1E4A          MOVL      *-SP[10],ACC          ; |1075| 
    2191              L65:    
    2192                      .dwpsn  "ff.c",1078,2
    2193 000003d8 064A          MOVL      ACC,*-SP[10]          ; |1078| 
    2194              L66:    
    2195                      .dwpsn  "ff.c",1079,1
    2196 000003d9 FE8E          SUBB      SP,#14                ; |1078| 
    2197                      .dwcfa  0x1d, -2
    2198 000003da 0006          LRETR
    2199                      ; return occurs
    2200              
    2201              DW$143  .dwtag  DW_TAG_loop
    2202                      .dwattr DW$143, DW_AT_name("C:\DOCUME~1\ADMINI~1\LOCALS~1\Temp\TI1122:L56:1:1304561157")
    2203                      .dwattr DW$143, DW_AT_begin_file("ff.c")
    2204                      .dwattr DW$143, DW_AT_begin_line(0x414)
TMS320C2000 COFF Assembler PC v4.1.3 Thu May 05 10:06:00 2011

Tools Copyright (c) 1996-2006 Texas Instruments Incorporated
C:\DOCUME~1\ADMINI~1\LOCALS~1\Temp\TI1122                            PAGE   43

    2205                      .dwattr DW$143, DW_AT_end_line(0x421)
    2206              DW$144  .dwtag  DW_TAG_loop_range
    2207                      .dwattr DW$144, DW_AT_low_pc(DW$L$_create_chain$11$B)
    2208                      .dwattr DW$144, DW_AT_high_pc(DW$L$_create_chain$11$E)
    2209              DW$145  .dwtag  DW_TAG_loop_range
    2210                      .dwattr DW$145, DW_AT_low_pc(DW$L$_create_chain$12$B)
    2211                      .dwattr DW$145, DW_AT_high_pc(DW$L$_create_chain$12$E)
    2212              DW$146  .dwtag  DW_TAG_loop_range
    2213                      .dwattr DW$146, DW_AT_low_pc(DW$L$_create_chain$14$B)
    2214                      .dwattr DW$146, DW_AT_high_pc(DW$L$_create_chain$14$E)
    2215              DW$147  .dwtag  DW_TAG_loop_range
    2216                      .dwattr DW$147, DW_AT_low_pc(DW$L$_create_chain$15$B)
    2217                      .dwattr DW$147, DW_AT_high_pc(DW$L$_create_chain$15$E)
    2218              DW$148  .dwtag  DW_TAG_loop_range
    2219                      .dwattr DW$148, DW_AT_low_pc(DW$L$_create_chain$16$B)
    2220                      .dwattr DW$148, DW_AT_high_pc(DW$L$_create_chain$16$E)
    2221              DW$149  .dwtag  DW_TAG_loop_range
    2222                      .dwattr DW$149, DW_AT_low_pc(DW$L$_create_chain$18$B)
    2223                      .dwattr DW$149, DW_AT_high_pc(DW$L$_create_chain$18$E)
    2224                      .dwendtag DW$143
    2225              
    2226                      .dwattr DW$134, DW_AT_end_file("ff.c")
    2227                      .dwattr DW$134, DW_AT_end_line(0x437)
    2228                      .dwattr DW$134, DW_AT_end_column(0x01)
    2229                      .dwendentry
    2230                      .dwendtag DW$134
    2231              
    2232 000003db               .sect   ".text"
    2233              
    2234              DW$150  .dwtag  DW_TAG_subprogram, DW_AT_name("dir_sdi"), DW_AT_symbol_name("_dir_sdi")
    2235                      .dwattr DW$150, DW_AT_low_pc(_dir_sdi)
    2236                      .dwattr DW$150, DW_AT_high_pc(0x00)
    2237                      .dwattr DW$150, DW_AT_begin_file("ff.c")
    2238                      .dwattr DW$150, DW_AT_begin_line(0x45f)
    2239                      .dwattr DW$150, DW_AT_begin_column(0x09)
    2240                      .dwpsn  "ff.c",1123,1
    2241              
    2242                      .dwfde DW$CIE
    2243              
    2244              ;***************************************************************
    2245              ;* FNAME: _dir_sdi                      FR SIZE:   8           *
    2246              ;*                                                             *
    2247              ;* FUNCTION ENVIRONMENT                                        *
    2248              ;*                                                             *
    2249              ;* FUNCTION PROPERTIES                                         *
    2250              ;*                            0 Parameter,  7 Auto,  0 SOE     *
    2251              ;***************************************************************
    2252              
    2253              _dir_sdi:
    2254                      .dwcfa  0x1d, -2
    2255                      .dwcfa  0x1c, 26, 0
    2256                      .dwcfa  0x09, 40, 26
    2257 000003db FE08          ADDB      SP,#8
    2258                      .dwcfa  0x1d, -10
    2259              ;* AR4   assigned to _dj
TMS320C2000 COFF Assembler PC v4.1.3 Thu May 05 10:06:00 2011

Tools Copyright (c) 1996-2006 Texas Instruments Incorporated
C:\DOCUME~1\ADMINI~1\LOCALS~1\Temp\TI1122                            PAGE   44

    2260              DW$151  .dwtag  DW_TAG_formal_parameter, DW_AT_name("dj"), DW_AT_symbol_name("_dj")
    2261                      .dwattr DW$151, DW_AT_type(*DW$T$53)
    2262                      .dwattr DW$151, DW_AT_location[DW_OP_reg12]
    2263              ;* AL    assigned to _idx
    2264              DW$152  .dwtag  DW_TAG_formal_parameter, DW_AT_name("idx"), DW_AT_symbol_name("_idx")
    2265                      .dwattr DW$152, DW_AT_type(*DW$T$24)
    2266                      .dwattr DW$152, DW_AT_location[DW_OP_reg0]
    2267              DW$153  .dwtag  DW_TAG_variable, DW_AT_name("dj"), DW_AT_symbol_name("_dj")
    2268                      .dwattr DW$153, DW_AT_type(*DW$T$53)
    2269                      .dwattr DW$153, DW_AT_location[DW_OP_breg20 -2]
    2270              DW$154  .dwtag  DW_TAG_variable, DW_AT_name("idx"), DW_AT_symbol_name("_idx")
    2271                      .dwattr DW$154, DW_AT_type(*DW$T$24)
    2272                      .dwattr DW$154, DW_AT_location[DW_OP_breg20 -3]
    2273              DW$155  .dwtag  DW_TAG_variable, DW_AT_name("clst"), DW_AT_symbol_name("_clst")
    2274                      .dwattr DW$155, DW_AT_type(*DW$T$27)
    2275                      .dwattr DW$155, DW_AT_location[DW_OP_breg20 -6]
    2276              DW$156  .dwtag  DW_TAG_variable, DW_AT_name("ic"), DW_AT_symbol_name("_ic")
    2277                      .dwattr DW$156, DW_AT_type(*DW$T$24)
    2278                      .dwattr DW$156, DW_AT_location[DW_OP_breg20 -7]
    2279 000003dc 9643          MOV       *-SP[3],AL            ; |1123| 
    2280 000003dd A842          MOVL      *-SP[2],XAR4          ; |1123| 
    2281                      .dwpsn  "ff.c",1128,2
    2282 000003de 8A42          MOVL      XAR4,*-SP[2]          ; |1128| 
    2283 000003df 9243          MOV       AL,*-SP[3]            ; |1128| 
    2284 000003e0 96DC          MOV       *+XAR4[3],AL          ; |1128| 
    2285                      .dwpsn  "ff.c",1129,2
    2286 000003e1 8A42          MOVL      XAR4,*-SP[2]          ; |1129| 
    2287 000003e2 06E4          MOVL      ACC,*+XAR4[4]         ; |1129| 
    2288 000003e3 1E46          MOVL      *-SP[6],ACC           ; |1129| 
    2289                      .dwpsn  "ff.c",1130,2
    2290 000003e4 0201          MOVB      ACC,#1
    2291 000003e5 0F46          CMPL      ACC,*-SP[6]           ; |1130| 
    2292 000003e6 EC07          BF        L67,EQ                ; |1130| 
    2293                      ; branchcc occurs ; |1130| 
    2294 000003e7 8A42          MOVL      XAR4,*-SP[2]          ; |1130| 
    2295 000003e8 8AC4          MOVL      XAR4,*+XAR4[0]        ; |1130| 
    2296 000003e9 D010          MOVB      XAR0,#16              ; |1130| 
    2297 000003ea 0694          MOVL      ACC,*+XAR4[AR0]       ; |1130| 
    2298 000003eb 0F46          CMPL      ACC,*-SP[6]           ; |1130| 
    2299 000003ec 6603          B         L68,HI                ; |1130| 
    2300                      ; branchcc occurs ; |1130| 
    2301              L67:    
    2302                      .dwpsn  "ff.c",1131,3
    2303 000003ed 9A02          MOVB      AL,#2                 ; |1131| 
    2304 000003ee 6F63          B         L78,UNC               ; |1131| 
    2305                      ; branch occurs ; |1131| 
    2306              L68:    
    2307                      .dwpsn  "ff.c",1132,2
    2308 000003ef 0646          MOVL      ACC,*-SP[6]           ; |1132| 
    2309 000003f0 ED0B          BF        L69,NEQ               ; |1132| 
    2310                      ; branchcc occurs ; |1132| 
    2311 000003f1 8A42          MOVL      XAR4,*-SP[2]          ; |1132| 
    2312 000003f2 8AC4          MOVL      XAR4,*+XAR4[0]        ; |1132| 
    2313 000003f3 92C4          MOV       AL,*+XAR4[0]          ; |1132| 
    2314 000003f4 5203          CMPB      AL,#3                 ; |1132| 
TMS320C2000 COFF Assembler PC v4.1.3 Thu May 05 10:06:00 2011

Tools Copyright (c) 1996-2006 Texas Instruments Incorporated
C:\DOCUME~1\ADMINI~1\LOCALS~1\Temp\TI1122                            PAGE   45

    2315 000003f5 ED06          BF        L69,NEQ               ; |1132| 
    2316                      ; branchcc occurs ; |1132| 
    2317                      .dwpsn  "ff.c",1133,3
    2318 000003f6 8A42          MOVL      XAR4,*-SP[2]          ; |1133| 
    2319 000003f7 8AC4          MOVL      XAR4,*+XAR4[0]        ; |1133| 
    2320 000003f8 D016          MOVB      XAR0,#22              ; |1133| 
    2321 000003f9 0694          MOVL      ACC,*+XAR4[AR0]       ; |1133| 
    2322 000003fa 1E46          MOVL      *-SP[6],ACC           ; |1133| 
    2323              L69:    
    2324                      .dwpsn  "ff.c",1135,2
    2325 000003fb 0646          MOVL      ACC,*-SP[6]           ; |1135| 
    2326 000003fc ED16          BF        L71,NEQ               ; |1135| 
    2327                      ; branchcc occurs ; |1135| 
    2328                      .dwpsn  "ff.c",1137,3
    2329 000003fd 8A42          MOVL      XAR4,*-SP[2]          ; |1137| 
    2330 000003fe 0646          MOVL      ACC,*-SP[6]           ; |1137| 
    2331 000003ff 1EF4          MOVL      *+XAR4[6],ACC         ; |1137| 
    2332                      .dwpsn  "ff.c",1138,3
    2333 00000400 8A42          MOVL      XAR4,*-SP[2]          ; |1138| 
    2334 00000401 8AC4          MOVL      XAR4,*+XAR4[0]        ; |1138| 
    2335 00000402 92FC          MOV       AL,*+XAR4[7]          ; |1138| 
    2336 00000403 5443          CMP       AL,*-SP[3]            ; |1138| 
    2337 00000404 6603          B         L70,HI                ; |1138| 
    2338                      ; branchcc occurs ; |1138| 
    2339                      .dwpsn  "ff.c",1139,4
    2340 00000405 9A02          MOVB      AL,#2                 ; |1139| 
    2341 00000406 6F4B          B         L78,UNC               ; |1139| 
    2342                      ; branch occurs ; |1139| 
    2343              L70:    
    2344                      .dwpsn  "ff.c",1140,3
    2345 00000407 8A42          MOVL      XAR4,*-SP[2]          ; |1140| 
    2346 00000408 9243          MOV       AL,*-SP[3]            ; |1140| 
    2347 00000409 8AC4          MOVL      XAR4,*+XAR4[0]        ; |1140| 
    2348 0000040a FFC3          LSR       AL,4                  ; |1140| 
    2349 0000040b D016          MOVB      XAR0,#22              ; |1140| 
    2350 0000040c 0EA9          MOVU      ACC,AL
    2351 0000040d 0794          ADDL      ACC,*+XAR4[AR0]       ; |1140| 
    2352 0000040e 8A42          MOVL      XAR4,*-SP[2]          ; |1140| 
    2353 0000040f D008          MOVB      XAR0,#8               ; |1140| 
    2354 00000410 1E94          MOVL      *+XAR4[AR0],ACC       ; |1140| 
    2355                      .dwpsn  "ff.c",1141,2
    2356 00000411 6F33          B         L77,UNC               ; |1141| 
    2357                      ; branch occurs ; |1141| 
    2358              L71:    
    2359                      .dwpsn  "ff.c",1144,3
    2360 00000412 8A42          MOVL      XAR4,*-SP[2]          ; |1144| 
    2361 00000413 8AC4          MOVL      XAR4,*+XAR4[0]        ; |1144| 
    2362 00000414 5603          MOV       ACC,*+XAR4[2] << #4   ; |1144| 
         00000415 04D4 
    2363 00000416 9647          MOV       *-SP[7],AL            ; |1144| 
    2364                      .dwpsn  "ff.c",1145,3
    2365 00000417 6F1A          B         L76,UNC               ; |1145| 
    2366                      ; branch occurs ; |1145| 
    2367              L72:    
    2368              DW$L$_dir_sdi$12$B:
TMS320C2000 COFF Assembler PC v4.1.3 Thu May 05 10:06:00 2011

Tools Copyright (c) 1996-2006 Texas Instruments Incorporated
C:\DOCUME~1\ADMINI~1\LOCALS~1\Temp\TI1122                            PAGE   46

    2369                      .dwpsn  "ff.c",1147,4
    2370 00000418 8A42          MOVL      XAR4,*-SP[2]          ; |1147| 
    2371 00000419 8AC4          MOVL      XAR4,*+XAR4[0]        ; |1147| 
    2372 0000041a 0646          MOVL      ACC,*-SP[6]           ; |1147| 
    2373 0000041b 7640'         LCR       #_get_fat             ; |1147| 
         0000041c 0186 
    2374                      ; call occurs [#_get_fat] ; |1147| 
    2375 0000041d 1E46          MOVL      *-SP[6],ACC           ; |1147| 
    2376                      .dwpsn  "ff.c",1148,4
    2377 0000041e 0200          MOVB      ACC,#0
    2378 0000041f 1901          SUBB      ACC,#1
    2379 00000420 0F46          CMPL      ACC,*-SP[6]           ; |1148| 
    2380 00000421 ED03          BF        L73,NEQ               ; |1148| 
    2381                      ; branchcc occurs ; |1148| 
    2382              DW$L$_dir_sdi$12$E:
    2383                      .dwpsn  "ff.c",1148,30
    2384 00000422 9A01          MOVB      AL,#1                 ; |1148| 
    2385 00000423 6F2E          B         L78,UNC               ; |1148| 
    2386                      ; branch occurs ; |1148| 
    2387              L73:    
    2388              DW$L$_dir_sdi$14$B:
    2389                      .dwpsn  "ff.c",1149,4
    2390 00000424 0202          MOVB      ACC,#2
    2391 00000425 0F46          CMPL      ACC,*-SP[6]           ; |1149| 
    2392 00000426 6607          B         L74,HI                ; |1149| 
    2393                      ; branchcc occurs ; |1149| 
    2394 00000427       DW$L$_dir_sdi$14$E:
    2395 00000427       DW$L$_dir_sdi$15$B:
    2396 00000427 8A42          MOVL      XAR4,*-SP[2]          ; |1149| 
    2397 00000428 8AC4          MOVL      XAR4,*+XAR4[0]        ; |1149| 
    2398 00000429 D010          MOVB      XAR0,#16              ; |1149| 
    2399 0000042a 0694          MOVL      ACC,*+XAR4[AR0]       ; |1149| 
    2400 0000042b 0F46          CMPL      ACC,*-SP[6]           ; |1149| 
    2401 0000042c 6603          B         L75,HI                ; |1149| 
    2402                      ; branchcc occurs ; |1149| 
    2403              DW$L$_dir_sdi$15$E:
    2404              L74:    
    2405                      .dwpsn  "ff.c",1150,5
    2406 0000042d 9A02          MOVB      AL,#2                 ; |1150| 
    2407 0000042e 6F23          B         L78,UNC               ; |1150| 
    2408                      ; branch occurs ; |1150| 
    2409              L75:    
    2410              DW$L$_dir_sdi$17$B:
    2411                      .dwpsn  "ff.c",1151,4
    2412 0000042f 9247          MOV       AL,*-SP[7]            ; |1151| 
    2413 00000430 7443          SUB       *-SP[3],AL            ; |1151| 
    2414              DW$L$_dir_sdi$17$E:
    2415              L76:    
    2416              DW$L$_dir_sdi$18$B:
    2417                      .dwpsn  "ff.c",1145,11
    2418 00000431 9247          MOV       AL,*-SP[7]            ; |1145| 
    2419 00000432 5443          CMP       AL,*-SP[3]            ; |1145| 
    2420 00000433 69E5          B         L72,LOS               ; |1145| 
    2421                      ; branchcc occurs ; |1145| 
    2422              DW$L$_dir_sdi$18$E:
TMS320C2000 COFF Assembler PC v4.1.3 Thu May 05 10:06:00 2011

Tools Copyright (c) 1996-2006 Texas Instruments Incorporated
C:\DOCUME~1\ADMINI~1\LOCALS~1\Temp\TI1122                            PAGE   47

    2423                      .dwpsn  "ff.c",1153,3
    2424 00000434 8A42          MOVL      XAR4,*-SP[2]          ; |1153| 
    2425 00000435 0646          MOVL      ACC,*-SP[6]           ; |1153| 
    2426 00000436 1EF4          MOVL      *+XAR4[6],ACC         ; |1153| 
    2427                      .dwpsn  "ff.c",1154,3
    2428 00000437 8A42          MOVL      XAR4,*-SP[2]          ; |1154| 
    2429 00000438 8AC4          MOVL      XAR4,*+XAR4[0]        ; |1154| 
    2430 00000439 0646          MOVL      ACC,*-SP[6]           ; |1154| 
    2431 0000043a 7640'         LCR       #_clust2sect          ; |1154| 
         0000043b 016E 
    2432                      ; call occurs [#_clust2sect] ; |1154| 
    2433 0000043c 1EA6          MOVL      XAR6,ACC              ; |1154| 
    2434 0000043d 9243          MOV       AL,*-SP[3]            ; |1154| 
    2435 0000043e FFC3          LSR       AL,4                  ; |1154| 
    2436 0000043f 8A42          MOVL      XAR4,*-SP[2]          ; |1154| 
    2437 00000440 0EA9          MOVU      ACC,AL
    2438 00000441 D008          MOVB      XAR0,#8               ; |1154| 
    2439 00000442 07A6          ADDL      ACC,XAR6
    2440 00000443 1E94          MOVL      *+XAR4[AR0],ACC       ; |1154| 
    2441              L77:    
    2442                      .dwpsn  "ff.c",1157,2
    2443 00000444 9243          MOV       AL,*-SP[3]            ; |1157| 
    2444 00000445 8A42          MOVL      XAR4,*-SP[2]          ; |1157| 
    2445 00000446 900F          ANDB      AL,#0x0f              ; |1157| 
    2446 00000447 FF84          LSL       AL,5                  ; |1157| 
    2447 00000448 80A9          MOVZ      AR7,AL                ; |1157| 
    2448 00000449 06C4          MOVL      ACC,*+XAR4[0]         ; |1157| 
    2449 0000044a 0DA7          ADDU      ACC,AR7               ; |1157| 
    2450 0000044b 8A42          MOVL      XAR4,*-SP[2]          ; |1157| 
    2451 0000044c 1EA6          MOVL      XAR6,ACC              ; |1157| 
    2452 0000044d D00A          MOVB      XAR0,#10              ; |1157| 
    2453 0000044e DE1C          ADDB      XAR6,#28              ; |1157| 
    2454 0000044f C294          MOVL      *+XAR4[AR0],XAR6      ; |1157| 
    2455                      .dwpsn  "ff.c",1159,2
    2456 00000450 9A00          MOVB      AL,#0
    2457              L78:    
    2458                      .dwpsn  "ff.c",1160,1
    2459 00000451 FE88          SUBB      SP,#8                 ; |1159| 
    2460                      .dwcfa  0x1d, -2
    2461 00000452 0006          LRETR
    2462                      ; return occurs
    2463              
    2464              DW$157  .dwtag  DW_TAG_loop
    2465                      .dwattr DW$157, DW_AT_name("C:\DOCUME~1\ADMINI~1\LOCALS~1\Temp\TI1122:L76:1:1304561157")
    2466                      .dwattr DW$157, DW_AT_begin_file("ff.c")
    2467                      .dwattr DW$157, DW_AT_begin_line(0x479)
    2468                      .dwattr DW$157, DW_AT_end_line(0x47f)
    2469              DW$158  .dwtag  DW_TAG_loop_range
    2470                      .dwattr DW$158, DW_AT_low_pc(DW$L$_dir_sdi$18$B)
    2471                      .dwattr DW$158, DW_AT_high_pc(DW$L$_dir_sdi$18$E)
    2472              DW$159  .dwtag  DW_TAG_loop_range
    2473                      .dwattr DW$159, DW_AT_low_pc(DW$L$_dir_sdi$12$B)
    2474                      .dwattr DW$159, DW_AT_high_pc(DW$L$_dir_sdi$12$E)
    2475              DW$160  .dwtag  DW_TAG_loop_range
    2476                      .dwattr DW$160, DW_AT_low_pc(DW$L$_dir_sdi$14$B)
TMS320C2000 COFF Assembler PC v4.1.3 Thu May 05 10:06:00 2011

Tools Copyright (c) 1996-2006 Texas Instruments Incorporated
C:\DOCUME~1\ADMINI~1\LOCALS~1\Temp\TI1122                            PAGE   48

    2477                      .dwattr DW$160, DW_AT_high_pc(DW$L$_dir_sdi$14$E)
    2478              DW$161  .dwtag  DW_TAG_loop_range
    2479                      .dwattr DW$161, DW_AT_low_pc(DW$L$_dir_sdi$15$B)
    2480                      .dwattr DW$161, DW_AT_high_pc(DW$L$_dir_sdi$15$E)
    2481              DW$162  .dwtag  DW_TAG_loop_range
    2482                      .dwattr DW$162, DW_AT_low_pc(DW$L$_dir_sdi$17$B)
    2483                      .dwattr DW$162, DW_AT_high_pc(DW$L$_dir_sdi$17$E)
    2484                      .dwendtag DW$157
    2485              
    2486                      .dwattr DW$150, DW_AT_end_file("ff.c")
    2487                      .dwattr DW$150, DW_AT_end_line(0x488)
    2488                      .dwattr DW$150, DW_AT_end_column(0x01)
    2489                      .dwendentry
    2490                      .dwendtag DW$150
    2491              
    2492 00000453               .sect   ".text"
    2493              
    2494              DW$163  .dwtag  DW_TAG_subprogram, DW_AT_name("dir_next"), DW_AT_symbol_name("_dir_next")
    2495                      .dwattr DW$163, DW_AT_low_pc(_dir_next)
    2496                      .dwattr DW$163, DW_AT_high_pc(0x00)
    2497                      .dwattr DW$163, DW_AT_begin_file("ff.c")
    2498                      .dwattr DW$163, DW_AT_begin_line(0x492)
    2499                      .dwattr DW$163, DW_AT_begin_column(0x09)
    2500                      .dwpsn  "ff.c",1174,1
    2501              
    2502                      .dwfde DW$CIE
    2503              
    2504              ;***************************************************************
    2505              ;* FNAME: _dir_next                     FR SIZE:   8           *
    2506              ;*                                                             *
    2507              ;* FUNCTION ENVIRONMENT                                        *
    2508              ;*                                                             *
    2509              ;* FUNCTION PROPERTIES                                         *
    2510              ;*                            0 Parameter,  8 Auto,  0 SOE     *
    2511              ;***************************************************************
    2512              
    2513              _dir_next:
    2514                      .dwcfa  0x1d, -2
    2515                      .dwcfa  0x1c, 26, 0
    2516                      .dwcfa  0x09, 40, 26
    2517 00000453 FE08          ADDB      SP,#8
    2518                      .dwcfa  0x1d, -10
    2519              ;* AR4   assigned to _dj
    2520              DW$164  .dwtag  DW_TAG_formal_parameter, DW_AT_name("dj"), DW_AT_symbol_name("_dj")
    2521                      .dwattr DW$164, DW_AT_type(*DW$T$53)
    2522                      .dwattr DW$164, DW_AT_location[DW_OP_reg12]
    2523              ;* AL    assigned to _stretch
    2524              DW$165  .dwtag  DW_TAG_formal_parameter, DW_AT_name("stretch"), DW_AT_symbol_name("_stretch")
    2525                      .dwattr DW$165, DW_AT_type(*DW$T$10)
    2526                      .dwattr DW$165, DW_AT_location[DW_OP_reg0]
    2527              DW$166  .dwtag  DW_TAG_variable, DW_AT_name("dj"), DW_AT_symbol_name("_dj")
    2528                      .dwattr DW$166, DW_AT_type(*DW$T$53)
    2529                      .dwattr DW$166, DW_AT_location[DW_OP_breg20 -2]
    2530              DW$167  .dwtag  DW_TAG_variable, DW_AT_name("stretch"), DW_AT_symbol_name("_stretch")
    2531                      .dwattr DW$167, DW_AT_type(*DW$T$10)
TMS320C2000 COFF Assembler PC v4.1.3 Thu May 05 10:06:00 2011

Tools Copyright (c) 1996-2006 Texas Instruments Incorporated
C:\DOCUME~1\ADMINI~1\LOCALS~1\Temp\TI1122                            PAGE   49

    2532                      .dwattr DW$167, DW_AT_location[DW_OP_breg20 -3]
    2533              DW$168  .dwtag  DW_TAG_variable, DW_AT_name("clst"), DW_AT_symbol_name("_clst")
    2534                      .dwattr DW$168, DW_AT_type(*DW$T$27)
    2535                      .dwattr DW$168, DW_AT_location[DW_OP_breg20 -6]
    2536              DW$169  .dwtag  DW_TAG_variable, DW_AT_name("i"), DW_AT_symbol_name("_i")
    2537                      .dwattr DW$169, DW_AT_type(*DW$T$24)
    2538                      .dwattr DW$169, DW_AT_location[DW_OP_breg20 -7]
    2539 00000454 9643          MOV       *-SP[3],AL            ; |1174| 
    2540 00000455 A842          MOVL      *-SP[2],XAR4          ; |1174| 
    2541                      .dwpsn  "ff.c",1179,2
    2542 00000456 8A42          MOVL      XAR4,*-SP[2]          ; |1179| 
    2543 00000457 92DC          MOV       AL,*+XAR4[3]          ; |1179| 
    2544 00000458 9C01          ADDB      AL,#1                 ; |1179| 
    2545 00000459 9647          MOV       *-SP[7],AL            ; |1179| 
    2546                      .dwpsn  "ff.c",1180,2
    2547 0000045a EC05          BF        L79,EQ                ; |1180| 
    2548                      ; branchcc occurs ; |1180| 
    2549 0000045b 8A42          MOVL      XAR4,*-SP[2]          ; |1180| 
    2550 0000045c D008          MOVB      XAR0,#8               ; |1180| 
    2551 0000045d 0694          MOVL      ACC,*+XAR4[AR0]       ; |1180| 
    2552 0000045e ED04          BF        L80,NEQ               ; |1180| 
    2553                      ; branchcc occurs ; |1180| 
    2554              L79:    
    2555                      .dwpsn  "ff.c",1181,3
    2556 0000045f 9A04          MOVB      AL,#4                 ; |1181| 
    2557 00000460 FFEF          B         L94,UNC               ; |1181| 
         00000461 00A7 
    2558                      ; branch occurs ; |1181| 
    2559              L80:    
    2560                      .dwpsn  "ff.c",1183,2
    2561 00000462 9247          MOV       AL,*-SP[7]            ; |1183| 
    2562 00000463 900F          ANDB      AL,#0x0f              ; |1183| 
    2563 00000464 56C0          BF        L93,NEQ               ; |1183| 
         00000465 0093 
    2564                      ; branchcc occurs ; |1183| 
    2565                      .dwpsn  "ff.c",1185,3
    2566 00000466 8A42          MOVL      XAR4,*-SP[2]          ; |1185| 
    2567 00000467 0201          MOVB      ACC,#1
    2568 00000468 DC08          ADDB      XAR4,#8               ; |1185| 
    2569 00000469 5601          ADDL      *+XAR4[0],ACC         ; |1185| 
         0000046a 00C4 
    2570                      .dwpsn  "ff.c",1187,3
    2571 0000046b 8A42          MOVL      XAR4,*-SP[2]          ; |1187| 
    2572 0000046c 06F4          MOVL      ACC,*+XAR4[6]         ; |1187| 
    2573 0000046d ED0A          BF        L81,NEQ               ; |1187| 
    2574                      ; branchcc occurs ; |1187| 
    2575                      .dwpsn  "ff.c",1189,4
    2576 0000046e 8A42          MOVL      XAR4,*-SP[2]          ; |1189| 
    2577 0000046f 8AC4          MOVL      XAR4,*+XAR4[0]        ; |1189| 
    2578 00000470 92FC          MOV       AL,*+XAR4[7]          ; |1189| 
    2579 00000471 5447          CMP       AL,*-SP[7]            ; |1189| 
    2580 00000472 FFE6          B         L93,HI                ; |1189| 
         00000473 0085 
    2581                      ; branchcc occurs ; |1189| 
    2582                      .dwpsn  "ff.c",1190,5
TMS320C2000 COFF Assembler PC v4.1.3 Thu May 05 10:06:00 2011

Tools Copyright (c) 1996-2006 Texas Instruments Incorporated
C:\DOCUME~1\ADMINI~1\LOCALS~1\Temp\TI1122                            PAGE   50

    2583 00000474 9A04          MOVB      AL,#4                 ; |1190| 
    2584 00000475 FFEF          B         L94,UNC               ; |1190| 
         00000476 0092 
    2585                      ; branch occurs ; |1190| 
    2586              L81:    
    2587                      .dwpsn  "ff.c",1194,4
    2588 00000477 8A42          MOVL      XAR4,*-SP[2]          ; |1194| 
    2589 00000478 8AC4          MOVL      XAR4,*+XAR4[0]        ; |1194| 
    2590 00000479 9347          MOV       AH,*-SP[7]            ; |1194| 
    2591 0000047a 92D4          MOV       AL,*+XAR4[2]          ; |1194| 
    2592 0000047b 9CFF          ADDB      AL,#-1
    2593 0000047c FFD3          LSR       AH,4                  ; |1194| 
    2594 0000047d CEA8          AND       AL,AH                 ; |1194| 
    2595 0000047e ED79          BF        L93,NEQ               ; |1194| 
    2596                      ; branchcc occurs ; |1194| 
    2597                      .dwpsn  "ff.c",1196,5
    2598 0000047f 8A42          MOVL      XAR4,*-SP[2]          ; |1196| 
    2599 00000480 8342          MOVL      XAR5,*-SP[2]          ; |1196| 
    2600 00000481 8AC4          MOVL      XAR4,*+XAR4[0]        ; |1196| 
    2601 00000482 06F5          MOVL      ACC,*+XAR5[6]         ; |1196| 
    2602 00000483 7640'         LCR       #_get_fat             ; |1196| 
         00000484 0186 
    2603                      ; call occurs [#_get_fat] ; |1196| 
    2604 00000485 1E46          MOVL      *-SP[6],ACC           ; |1196| 
    2605                      .dwpsn  "ff.c",1197,5
    2606 00000486 0201          MOVB      ACC,#1
    2607 00000487 0F46          CMPL      ACC,*-SP[6]           ; |1197| 
    2608 00000488 6803          B         L82,LO                ; |1197| 
    2609                      ; branchcc occurs ; |1197| 
    2610                      .dwpsn  "ff.c",1197,22
    2611 00000489 9A02          MOVB      AL,#2                 ; |1197| 
    2612 0000048a 6F7D          B         L94,UNC               ; |1197| 
    2613                      ; branch occurs ; |1197| 
    2614              L82:    
    2615                      .dwpsn  "ff.c",1198,5
    2616 0000048b 0200          MOVB      ACC,#0
    2617 0000048c 1901          SUBB      ACC,#1
    2618 0000048d 0F46          CMPL      ACC,*-SP[6]           ; |1198| 
    2619 0000048e ED03          BF        L83,NEQ               ; |1198| 
    2620                      ; branchcc occurs ; |1198| 
    2621                      .dwpsn  "ff.c",1198,31
    2622 0000048f 9A01          MOVB      AL,#1                 ; |1198| 
    2623 00000490 6F77          B         L94,UNC               ; |1198| 
    2624                      ; branch occurs ; |1198| 
    2625              L83:    
    2626                      .dwpsn  "ff.c",1199,5
    2627 00000491 8A42          MOVL      XAR4,*-SP[2]          ; |1199| 
    2628 00000492 8AC4          MOVL      XAR4,*+XAR4[0]        ; |1199| 
    2629 00000493 D010          MOVB      XAR0,#16              ; |1199| 
    2630 00000494 0694          MOVL      ACC,*+XAR4[AR0]       ; |1199| 
    2631 00000495 0F46          CMPL      ACC,*-SP[6]           ; |1199| 
    2632 00000496 6656          B         L92,HI                ; |1199| 
    2633                      ; branchcc occurs ; |1199| 
    2634              
    2635              DW$170  .dwtag  DW_TAG_lexical_block, DW_AT_low_pc(0x00), DW_AT_high_pc(0x00)
TMS320C2000 COFF Assembler PC v4.1.3 Thu May 05 10:06:00 2011

Tools Copyright (c) 1996-2006 Texas Instruments Incorporated
C:\DOCUME~1\ADMINI~1\LOCALS~1\Temp\TI1122                            PAGE   51

    2636              DW$171  .dwtag  DW_TAG_variable, DW_AT_name("c"), DW_AT_symbol_name("_c")
    2637                      .dwattr DW$171, DW_AT_type(*DW$T$23)
    2638                      .dwattr DW$171, DW_AT_location[DW_OP_breg20 -8]
    2639                      .dwpsn  "ff.c",1203,6
    2640 00000497 9243          MOV       AL,*-SP[3]            ; |1203| 
    2641 00000498 ED03          BF        L84,NEQ               ; |1203| 
    2642                      ; branchcc occurs ; |1203| 
    2643                      .dwpsn  "ff.c",1203,22
    2644 00000499 9A04          MOVB      AL,#4                 ; |1203| 
    2645 0000049a 6F6D          B         L94,UNC               ; |1203| 
    2646                      ; branch occurs ; |1203| 
    2647              L84:    
    2648                      .dwpsn  "ff.c",1204,6
    2649 0000049b 8A42          MOVL      XAR4,*-SP[2]          ; |1204| 
    2650 0000049c 8342          MOVL      XAR5,*-SP[2]          ; |1204| 
    2651 0000049d 8AC4          MOVL      XAR4,*+XAR4[0]        ; |1204| 
    2652 0000049e 06F5          MOVL      ACC,*+XAR5[6]         ; |1204| 
    2653 0000049f 7640'         LCR       #_create_chain        ; |1204| 
         000004a0 035B 
    2654                      ; call occurs [#_create_chain] ; |1204| 
    2655 000004a1 1E46          MOVL      *-SP[6],ACC           ; |1204| 
    2656                      .dwpsn  "ff.c",1205,6
    2657 000004a2 0646          MOVL      ACC,*-SP[6]           ; |1205| 
    2658 000004a3 ED03          BF        L85,NEQ               ; |1205| 
    2659                      ; branchcc occurs ; |1205| 
    2660                      .dwpsn  "ff.c",1205,23
    2661 000004a4 9A07          MOVB      AL,#7                 ; |1205| 
    2662 000004a5 6F62          B         L94,UNC               ; |1205| 
    2663                      ; branch occurs ; |1205| 
    2664              L85:    
    2665                      .dwpsn  "ff.c",1206,6
    2666 000004a6 0201          MOVB      ACC,#1
    2667 000004a7 0F46          CMPL      ACC,*-SP[6]           ; |1206| 
    2668 000004a8 ED03          BF        L86,NEQ               ; |1206| 
    2669                      ; branchcc occurs ; |1206| 
    2670                      .dwpsn  "ff.c",1206,23
    2671 000004a9 9A02          MOVB      AL,#2                 ; |1206| 
    2672 000004aa 6F5D          B         L94,UNC               ; |1206| 
    2673                      ; branch occurs ; |1206| 
    2674              L86:    
    2675                      .dwpsn  "ff.c",1207,6
    2676 000004ab 0200          MOVB      ACC,#0
    2677 000004ac 1901          SUBB      ACC,#1
    2678 000004ad 0F46          CMPL      ACC,*-SP[6]           ; |1207| 
    2679 000004ae ED03          BF        L87,NEQ               ; |1207| 
    2680                      ; branchcc occurs ; |1207| 
    2681                      .dwpsn  "ff.c",1207,32
    2682 000004af 9A01          MOVB      AL,#1                 ; |1207| 
    2683 000004b0 6F57          B         L94,UNC               ; |1207| 
    2684                      ; branch occurs ; |1207| 
    2685              L87:    
    2686                      .dwpsn  "ff.c",1209,6
    2687 000004b1 8A42          MOVL      XAR4,*-SP[2]          ; |1209| 
    2688 000004b2 8AC4          MOVL      XAR4,*+XAR4[0]        ; |1209| 
    2689 000004b3 0200          MOVB      ACC,#0
TMS320C2000 COFF Assembler PC v4.1.3 Thu May 05 10:06:00 2011

Tools Copyright (c) 1996-2006 Texas Instruments Incorporated
C:\DOCUME~1\ADMINI~1\LOCALS~1\Temp\TI1122                            PAGE   52

    2690 000004b4 7640'         LCR       #_move_window         ; |1209| 
         000004b5 0077 
    2691                      ; call occurs [#_move_window] ; |1209| 
    2692 000004b6 5200          CMPB      AL,#0                 ; |1209| 
    2693 000004b7 EC03          BF        L88,EQ                ; |1209| 
    2694                      ; branchcc occurs ; |1209| 
    2695                      .dwpsn  "ff.c",1209,38
    2696 000004b8 9A01          MOVB      AL,#1                 ; |1209| 
    2697 000004b9 6F4E          B         L94,UNC               ; |1209| 
    2698                      ; branch occurs ; |1209| 
    2699              L88:    
    2700                      .dwpsn  "ff.c",1210,6
    2701 000004ba 8A42          MOVL      XAR4,*-SP[2]          ; |1210| 
    2702 000004bb 8AC4          MOVL      XAR4,*+XAR4[0]        ; |1210| 
    2703 000004bc 9A00          MOVB      AL,#0
    2704 000004bd 28A8          MOV       AH,#512               ; |1210| 
         000004be 0200 
    2705 000004bf DC1C          ADDB      XAR4,#28              ; |1210| 
    2706 000004c0 7640'         LCR       #_mem_set             ; |1210| 
         000004c1 001A 
    2707                      ; call occurs [#_mem_set] ; |1210| 
    2708                      .dwpsn  "ff.c",1211,6
    2709 000004c2 8A42          MOVL      XAR4,*-SP[2]          ; |1211| 
    2710 000004c3 8AC4          MOVL      XAR4,*+XAR4[0]        ; |1211| 
    2711 000004c4 0646          MOVL      ACC,*-SP[6]           ; |1211| 
    2712 000004c5 7640'         LCR       #_clust2sect          ; |1211| 
         000004c6 016E 
    2713                      ; call occurs [#_clust2sect] ; |1211| 
    2714 000004c7 8A42          MOVL      XAR4,*-SP[2]          ; |1211| 
    2715 000004c8 8AC4          MOVL      XAR4,*+XAR4[0]        ; |1211| 
    2716 000004c9 D01A          MOVB      XAR0,#26              ; |1211| 
    2717 000004ca 1E94          MOVL      *+XAR4[AR0],ACC       ; |1211| 
    2718                      .dwpsn  "ff.c",1212,12
    2719 000004cb 2B48          MOV       *-SP[8],#0            ; |1212| 
    2720 000004cc 6F15          B         L91,UNC               ; |1212| 
    2721                      ; branch occurs ; |1212| 
    2722              L89:    
    2723              DW$L$_dir_next$26$B:
    2724                      .dwpsn  "ff.c",1214,7
    2725 000004cd 8A42          MOVL      XAR4,*-SP[2]          ; |1214| 
    2726 000004ce 8AC4          MOVL      XAR4,*+XAR4[0]        ; |1214| 
    2727 000004cf 28E4          MOV       *+XAR4[4],#1          ; |1214| 
         000004d0 0001 
    2728                      .dwpsn  "ff.c",1215,7
    2729 000004d1 8A42          MOVL      XAR4,*-SP[2]          ; |1215| 
    2730 000004d2 8AC4          MOVL      XAR4,*+XAR4[0]        ; |1215| 
    2731 000004d3 0200          MOVB      ACC,#0
    2732 000004d4 7640'         LCR       #_move_window         ; |1215| 
         000004d5 0077 
    2733                      ; call occurs [#_move_window] ; |1215| 
    2734 000004d6 5200          CMPB      AL,#0                 ; |1215| 
    2735 000004d7 EC03          BF        L90,EQ                ; |1215| 
    2736                      ; branchcc occurs ; |1215| 
    2737              DW$L$_dir_next$26$E:
    2738                      .dwpsn  "ff.c",1215,39
TMS320C2000 COFF Assembler PC v4.1.3 Thu May 05 10:06:00 2011

Tools Copyright (c) 1996-2006 Texas Instruments Incorporated
C:\DOCUME~1\ADMINI~1\LOCALS~1\Temp\TI1122                            PAGE   53

    2739 000004d8 9A01          MOVB      AL,#1                 ; |1215| 
    2740 000004d9 6F2E          B         L94,UNC               ; |1215| 
    2741                      ; branch occurs ; |1215| 
    2742              L90:    
    2743              DW$L$_dir_next$28$B:
    2744                      .dwpsn  "ff.c",1216,7
    2745 000004da 8A42          MOVL      XAR4,*-SP[2]          ; |1216| 
    2746 000004db 8AC4          MOVL      XAR4,*+XAR4[0]        ; |1216| 
    2747 000004dc 0201          MOVB      ACC,#1
    2748 000004dd DC1A          ADDB      XAR4,#26              ; |1216| 
    2749 000004de 5601          ADDL      *+XAR4[0],ACC         ; |1216| 
         000004df 00C4 
    2750                      .dwpsn  "ff.c",1212,38
    2751 000004e0 0A48          INC       *-SP[8]               ; |1212| 
    2752              DW$L$_dir_next$28$E:
    2753              L91:    
    2754              DW$L$_dir_next$29$B:
    2755                      .dwpsn  "ff.c",1212,19
    2756 000004e1 8A42          MOVL      XAR4,*-SP[2]          ; |1212| 
    2757 000004e2 8AC4          MOVL      XAR4,*+XAR4[0]        ; |1212| 
    2758 000004e3 92D4          MOV       AL,*+XAR4[2]          ; |1212| 
    2759 000004e4 5448          CMP       AL,*-SP[8]            ; |1212| 
    2760 000004e5 66E8          B         L89,HI                ; |1212| 
    2761                      ; branchcc occurs ; |1212| 
    2762              DW$L$_dir_next$29$E:
    2763                      .dwpsn  "ff.c",1218,6
    2764 000004e6 8A42          MOVL      XAR4,*-SP[2]          ; |1218| 
    2765 000004e7 8AC4          MOVL      XAR4,*+XAR4[0]        ; |1218| 
    2766 000004e8 0E48          MOVU      ACC,*-SP[8]
    2767 000004e9 DC1A          ADDB      XAR4,#26              ; |1218| 
    2768 000004ea 5641          SUBL      *+XAR4[0],ACC         ; |1218| 
         000004eb 00C4 
    2769                      .dwendtag DW$170
    2770              
    2771              L92:    
    2772                      .dwpsn  "ff.c",1223,5
    2773 000004ec 8A42          MOVL      XAR4,*-SP[2]          ; |1223| 
    2774 000004ed 0646          MOVL      ACC,*-SP[6]           ; |1223| 
    2775 000004ee 1EF4          MOVL      *+XAR4[6],ACC         ; |1223| 
    2776                      .dwpsn  "ff.c",1224,5
    2777 000004ef 8A42          MOVL      XAR4,*-SP[2]          ; |1224| 
    2778 000004f0 8AC4          MOVL      XAR4,*+XAR4[0]        ; |1224| 
    2779 000004f1 0646          MOVL      ACC,*-SP[6]           ; |1224| 
    2780 000004f2 7640'         LCR       #_clust2sect          ; |1224| 
         000004f3 016E 
    2781                      ; call occurs [#_clust2sect] ; |1224| 
    2782 000004f4 8A42          MOVL      XAR4,*-SP[2]          ; |1224| 
    2783 000004f5 D008          MOVB      XAR0,#8               ; |1224| 
    2784 000004f6 1E94          MOVL      *+XAR4[AR0],ACC       ; |1224| 
    2785              L93:    
    2786                      .dwpsn  "ff.c",1229,2
    2787 000004f7 8A42          MOVL      XAR4,*-SP[2]          ; |1229| 
    2788 000004f8 9247          MOV       AL,*-SP[7]            ; |1229| 
    2789 000004f9 96DC          MOV       *+XAR4[3],AL          ; |1229| 
    2790                      .dwpsn  "ff.c",1230,2
TMS320C2000 COFF Assembler PC v4.1.3 Thu May 05 10:06:00 2011

Tools Copyright (c) 1996-2006 Texas Instruments Incorporated
C:\DOCUME~1\ADMINI~1\LOCALS~1\Temp\TI1122                            PAGE   54

    2791 000004fa 9247          MOV       AL,*-SP[7]            ; |1230| 
    2792 000004fb 8A42          MOVL      XAR4,*-SP[2]          ; |1230| 
    2793 000004fc 900F          ANDB      AL,#0x0f              ; |1230| 
    2794 000004fd FF84          LSL       AL,5                  ; |1230| 
    2795 000004fe 80A9          MOVZ      AR7,AL                ; |1230| 
    2796 000004ff 06C4          MOVL      ACC,*+XAR4[0]         ; |1230| 
    2797 00000500 0DA7          ADDU      ACC,AR7               ; |1230| 
    2798 00000501 1EA6          MOVL      XAR6,ACC              ; |1230| 
    2799 00000502 8A42          MOVL      XAR4,*-SP[2]          ; |1230| 
    2800 00000503 D00A          MOVB      XAR0,#10              ; |1230| 
    2801 00000504 DE1C          ADDB      XAR6,#28              ; |1230| 
    2802 00000505 C294          MOVL      *+XAR4[AR0],XAR6      ; |1230| 
    2803                      .dwpsn  "ff.c",1232,2
    2804 00000506 9A00          MOVB      AL,#0
    2805              L94:    
    2806                      .dwpsn  "ff.c",1233,1
    2807 00000507 FE88          SUBB      SP,#8                 ; |1232| 
    2808                      .dwcfa  0x1d, -2
    2809 00000508 0006          LRETR
    2810                      ; return occurs
    2811              
    2812              DW$172  .dwtag  DW_TAG_loop
    2813                      .dwattr DW$172, DW_AT_name("C:\DOCUME~1\ADMINI~1\LOCALS~1\Temp\TI1122:L91:1:1304561157")
    2814                      .dwattr DW$172, DW_AT_begin_file("ff.c")
    2815                      .dwattr DW$172, DW_AT_begin_line(0x4bc)
    2816                      .dwattr DW$172, DW_AT_end_line(0x4c0)
    2817              DW$173  .dwtag  DW_TAG_loop_range
    2818                      .dwattr DW$173, DW_AT_low_pc(DW$L$_dir_next$29$B)
    2819                      .dwattr DW$173, DW_AT_high_pc(DW$L$_dir_next$29$E)
    2820              DW$174  .dwtag  DW_TAG_loop_range
    2821                      .dwattr DW$174, DW_AT_low_pc(DW$L$_dir_next$26$B)
    2822                      .dwattr DW$174, DW_AT_high_pc(DW$L$_dir_next$26$E)
    2823              DW$175  .dwtag  DW_TAG_loop_range
    2824                      .dwattr DW$175, DW_AT_low_pc(DW$L$_dir_next$28$B)
    2825                      .dwattr DW$175, DW_AT_high_pc(DW$L$_dir_next$28$E)
    2826                      .dwendtag DW$172
    2827              
    2828                      .dwattr DW$163, DW_AT_end_file("ff.c")
    2829                      .dwattr DW$163, DW_AT_end_line(0x4d1)
    2830                      .dwattr DW$163, DW_AT_end_column(0x01)
    2831                      .dwendentry
    2832                      .dwendtag DW$163
    2833              
    2834 00000509               .sect   ".text"
    2835              
    2836              DW$176  .dwtag  DW_TAG_subprogram, DW_AT_name("dir_find"), DW_AT_symbol_name("_dir_find")
    2837                      .dwattr DW$176, DW_AT_low_pc(_dir_find)
    2838                      .dwattr DW$176, DW_AT_high_pc(0x00)
    2839                      .dwattr DW$176, DW_AT_begin_file("ff.c")
    2840                      .dwattr DW$176, DW_AT_begin_line(0x59f)
    2841                      .dwattr DW$176, DW_AT_begin_column(0x09)
    2842                      .dwpsn  "ff.c",1442,1
    2843              
    2844                      .dwfde DW$CIE
    2845              
TMS320C2000 COFF Assembler PC v4.1.3 Thu May 05 10:06:00 2011

Tools Copyright (c) 1996-2006 Texas Instruments Incorporated
C:\DOCUME~1\ADMINI~1\LOCALS~1\Temp\TI1122                            PAGE   55

    2846              ;***************************************************************
    2847              ;* FNAME: _dir_find                     FR SIZE:   6           *
    2848              ;*                                                             *
    2849              ;* FUNCTION ENVIRONMENT                                        *
    2850              ;*                                                             *
    2851              ;* FUNCTION PROPERTIES                                         *
    2852              ;*                            0 Parameter,  6 Auto,  0 SOE     *
    2853              ;***************************************************************
    2854              
    2855              _dir_find:
    2856                      .dwcfa  0x1d, -2
    2857                      .dwcfa  0x1c, 26, 0
    2858                      .dwcfa  0x09, 40, 26
    2859 00000509 FE06          ADDB      SP,#6
    2860                      .dwcfa  0x1d, -8
    2861              ;* AR4   assigned to _dj
    2862              DW$177  .dwtag  DW_TAG_formal_parameter, DW_AT_name("dj"), DW_AT_symbol_name("_dj")
    2863                      .dwattr DW$177, DW_AT_type(*DW$T$53)
    2864                      .dwattr DW$177, DW_AT_location[DW_OP_reg12]
    2865              DW$178  .dwtag  DW_TAG_variable, DW_AT_name("dj"), DW_AT_symbol_name("_dj")
    2866                      .dwattr DW$178, DW_AT_type(*DW$T$53)
    2867                      .dwattr DW$178, DW_AT_location[DW_OP_breg20 -2]
    2868              DW$179  .dwtag  DW_TAG_variable, DW_AT_name("res"), DW_AT_symbol_name("_res")
    2869                      .dwattr DW$179, DW_AT_type(*DW$T$49)
    2870                      .dwattr DW$179, DW_AT_location[DW_OP_breg20 -3]
    2871              DW$180  .dwtag  DW_TAG_variable, DW_AT_name("c"), DW_AT_symbol_name("_c")
    2872                      .dwattr DW$180, DW_AT_type(*DW$T$23)
    2873                      .dwattr DW$180, DW_AT_location[DW_OP_breg20 -4]
    2874              DW$181  .dwtag  DW_TAG_variable, DW_AT_name("dir"), DW_AT_symbol_name("_dir")
    2875                      .dwattr DW$181, DW_AT_type(*DW$T$32)
    2876                      .dwattr DW$181, DW_AT_location[DW_OP_breg20 -6]
    2877 0000050a A842          MOVL      *-SP[2],XAR4          ; |1442| 
    2878                      .dwpsn  "ff.c",1449,2
    2879 0000050b 8A42          MOVL      XAR4,*-SP[2]          ; |1449| 
    2880 0000050c 9A00          MOVB      AL,#0
    2881 0000050d 7640'         LCR       #_dir_sdi             ; |1449| 
         0000050e 03DB 
    2882                      ; call occurs [#_dir_sdi] ; |1449| 
    2883 0000050f 9643          MOV       *-SP[3],AL            ; |1449| 
    2884                      .dwpsn  "ff.c",1450,2
    2885 00000510 5200          CMPB      AL,#0                 ; |1450| 
    2886 00000511 ED2B          BF        L99,NEQ               ; |1450| 
    2887                      ; branchcc occurs ; |1450| 
    2888                      .dwpsn  "ff.c",1450,22
    2889              L95:    
    2890              DW$L$_dir_find$3$B:
    2891                      .dwpsn  "ff.c",1457,3
    2892 00000512 8A42          MOVL      XAR4,*-SP[2]          ; |1457| 
    2893 00000513 8342          MOVL      XAR5,*-SP[2]          ; |1457| 
    2894 00000514 8AC4          MOVL      XAR4,*+XAR4[0]        ; |1457| 
    2895 00000515 D008          MOVB      XAR0,#8               ; |1457| 
    2896 00000516 0695          MOVL      ACC,*+XAR5[AR0]       ; |1457| 
    2897 00000517 7640'         LCR       #_move_window         ; |1457| 
         00000518 0077 
    2898                      ; call occurs [#_move_window] ; |1457| 
TMS320C2000 COFF Assembler PC v4.1.3 Thu May 05 10:06:00 2011

Tools Copyright (c) 1996-2006 Texas Instruments Incorporated
C:\DOCUME~1\ADMINI~1\LOCALS~1\Temp\TI1122                            PAGE   56

    2899 00000519 9643          MOV       *-SP[3],AL            ; |1457| 
    2900                      .dwpsn  "ff.c",1458,3
    2901 0000051a 5200          CMPB      AL,#0                 ; |1458| 
    2902 0000051b ED20          BF        L98,NEQ               ; |1458| 
    2903                      ; branchcc occurs ; |1458| 
    2904              DW$L$_dir_find$3$E:
    2905              DW$L$_dir_find$4$B:
    2906                      .dwpsn  "ff.c",1458,23
    2907                      .dwpsn  "ff.c",1459,3
    2908 0000051c 8A42          MOVL      XAR4,*-SP[2]          ; |1459| 
    2909 0000051d D00A          MOVB      XAR0,#10              ; |1459| 
    2910 0000051e 0694          MOVL      ACC,*+XAR4[AR0]       ; |1459| 
    2911 0000051f 1E46          MOVL      *-SP[6],ACC           ; |1459| 
    2912                      .dwpsn  "ff.c",1460,3
    2913 00000520 8A46          MOVL      XAR4,*-SP[6]          ; |1460| 
    2914 00000521 92C4          MOV       AL,*+XAR4[0]          ; |1460| 
    2915 00000522 9644          MOV       *-SP[4],AL            ; |1460| 
    2916                      .dwpsn  "ff.c",1461,3
    2917 00000523 ED04          BF        L96,NEQ               ; |1461| 
    2918                      ; branchcc occurs ; |1461| 
    2919              DW$L$_dir_find$4$E:
    2920                      .dwpsn  "ff.c",1463,4
    2921 00000524 2843          MOV       *-SP[3],#4            ; |1463| 
         00000525 0004 
    2922                      .dwpsn  "ff.c",1464,4
    2923 00000526 6F15          B         L98,UNC               ; |1464| 
    2924                      ; branch occurs ; |1464| 
    2925              L96:    
    2926              DW$L$_dir_find$6$B:
    2927                      .dwpsn  "ff.c",1498,3
    2928 00000527 8A46          MOVL      XAR4,*-SP[6]          ; |1498| 
    2929 00000528 D00B          MOVB      XAR0,#11              ; |1498| 
    2930 00000529 4394          TBIT      *+XAR4[AR0],#3        ; |1498| 
    2931 0000052a EE0A          BF        L97,TC                ; |1498| 
    2932                      ; branchcc occurs ; |1498| 
    2933 0000052b       DW$L$_dir_find$6$E:
    2934 0000052b       DW$L$_dir_find$7$B:
    2935 0000052b 8A42          MOVL      XAR4,*-SP[2]          ; |1498| 
    2936 0000052c D00C          MOVB      XAR0,#12              ; |1498| 
    2937 0000052d 8394          MOVL      XAR5,*+XAR4[AR0]      ; |1498| 
    2938 0000052e 8A46          MOVL      XAR4,*-SP[6]          ; |1498| 
    2939 0000052f 9A0B          MOVB      AL,#11                ; |1498| 
    2940 00000530 7640'         LCR       #_mem_cmp             ; |1498| 
         00000531 0030 
    2941                      ; call occurs [#_mem_cmp] ; |1498| 
    2942 00000532 5200          CMPB      AL,#0                 ; |1498| 
    2943 00000533 EC08          BF        L98,EQ                ; |1498| 
    2944                      ; branchcc occurs ; |1498| 
    2945              DW$L$_dir_find$7$E:
    2946              DW$L$_dir_find$8$B:
    2947                      .dwpsn  "ff.c",1499,4
    2948              DW$L$_dir_find$8$E:
    2949              L97:    
    2950              DW$L$_dir_find$9$B:
    2951                      .dwpsn  "ff.c",1501,3
TMS320C2000 COFF Assembler PC v4.1.3 Thu May 05 10:06:00 2011

Tools Copyright (c) 1996-2006 Texas Instruments Incorporated
C:\DOCUME~1\ADMINI~1\LOCALS~1\Temp\TI1122                            PAGE   57

    2952 00000534 8A42          MOVL      XAR4,*-SP[2]          ; |1501| 
    2953 00000535 9A00          MOVB      AL,#0
    2954 00000536 7640'         LCR       #_dir_next            ; |1501| 
         00000537 0453 
    2955                      ; call occurs [#_dir_next] ; |1501| 
    2956 00000538 9643          MOV       *-SP[3],AL            ; |1501| 
    2957                      .dwpsn  "ff.c",1503,10
    2958 00000539 5200          CMPB      AL,#0                 ; |1503| 
    2959 0000053a ECD8          BF        L95,EQ                ; |1503| 
    2960                      ; branchcc occurs ; |1503| 
    2961              DW$L$_dir_find$9$E:
    2962              L98:    
    2963                      .dwpsn  "ff.c",1505,2
    2964 0000053b 9243          MOV       AL,*-SP[3]            ; |1505| 
    2965              L99:    
    2966                      .dwpsn  "ff.c",1506,1
    2967 0000053c FE86          SUBB      SP,#6                 ; |1505| 
    2968                      .dwcfa  0x1d, -2
    2969 0000053d 0006          LRETR
    2970                      ; return occurs
    2971              
    2972              DW$182  .dwtag  DW_TAG_loop
    2973                      .dwattr DW$182, DW_AT_name("C:\DOCUME~1\ADMINI~1\LOCALS~1\Temp\TI1122:L95:1:1304561157")
    2974                      .dwattr DW$182, DW_AT_begin_file("ff.c")
    2975                      .dwattr DW$182, DW_AT_begin_line(0x5af)
    2976                      .dwattr DW$182, DW_AT_end_line(0x5df)
    2977              DW$183  .dwtag  DW_TAG_loop_range
    2978                      .dwattr DW$183, DW_AT_low_pc(DW$L$_dir_find$3$B)
    2979                      .dwattr DW$183, DW_AT_high_pc(DW$L$_dir_find$3$E)
    2980              DW$184  .dwtag  DW_TAG_loop_range
    2981                      .dwattr DW$184, DW_AT_low_pc(DW$L$_dir_find$7$B)
    2982                      .dwattr DW$184, DW_AT_high_pc(DW$L$_dir_find$7$E)
    2983              DW$185  .dwtag  DW_TAG_loop_range
    2984                      .dwattr DW$185, DW_AT_low_pc(DW$L$_dir_find$4$B)
    2985                      .dwattr DW$185, DW_AT_high_pc(DW$L$_dir_find$4$E)
    2986              DW$186  .dwtag  DW_TAG_loop_range
    2987                      .dwattr DW$186, DW_AT_low_pc(DW$L$_dir_find$6$B)
    2988                      .dwattr DW$186, DW_AT_high_pc(DW$L$_dir_find$6$E)
    2989              DW$187  .dwtag  DW_TAG_loop_range
    2990                      .dwattr DW$187, DW_AT_low_pc(DW$L$_dir_find$8$B)
    2991                      .dwattr DW$187, DW_AT_high_pc(DW$L$_dir_find$8$E)
    2992              DW$188  .dwtag  DW_TAG_loop_range
    2993                      .dwattr DW$188, DW_AT_low_pc(DW$L$_dir_find$9$B)
    2994                      .dwattr DW$188, DW_AT_high_pc(DW$L$_dir_find$9$E)
    2995                      .dwendtag DW$182
    2996              
    2997                      .dwattr DW$176, DW_AT_end_file("ff.c")
    2998                      .dwattr DW$176, DW_AT_end_line(0x5e2)
    2999                      .dwattr DW$176, DW_AT_end_column(0x01)
    3000                      .dwendentry
    3001                      .dwendtag DW$176
    3002              
    3003 0000053e               .sect   ".text"
    3004              
    3005              DW$189  .dwtag  DW_TAG_subprogram, DW_AT_name("dir_read"), DW_AT_symbol_name("_dir_read")
TMS320C2000 COFF Assembler PC v4.1.3 Thu May 05 10:06:00 2011

Tools Copyright (c) 1996-2006 Texas Instruments Incorporated
C:\DOCUME~1\ADMINI~1\LOCALS~1\Temp\TI1122                            PAGE   58

    3006                      .dwattr DW$189, DW_AT_low_pc(_dir_read)
    3007                      .dwattr DW$189, DW_AT_high_pc(0x00)
    3008                      .dwattr DW$189, DW_AT_begin_file("ff.c")
    3009                      .dwattr DW$189, DW_AT_begin_line(0x5ec)
    3010                      .dwattr DW$189, DW_AT_begin_column(0x09)
    3011                      .dwpsn  "ff.c",1519,1
    3012              
    3013                      .dwfde DW$CIE
    3014              
    3015              ;***************************************************************
    3016              ;* FNAME: _dir_read                     FR SIZE:   6           *
    3017              ;*                                                             *
    3018              ;* FUNCTION ENVIRONMENT                                        *
    3019              ;*                                                             *
    3020              ;* FUNCTION PROPERTIES                                         *
    3021              ;*                            0 Parameter,  6 Auto,  0 SOE     *
    3022              ;***************************************************************
    3023              
    3024              _dir_read:
    3025                      .dwcfa  0x1d, -2
    3026                      .dwcfa  0x1c, 26, 0
    3027                      .dwcfa  0x09, 40, 26
    3028 0000053e FE06          ADDB      SP,#6
    3029                      .dwcfa  0x1d, -8
    3030              ;* AR4   assigned to _dj
    3031              DW$190  .dwtag  DW_TAG_formal_parameter, DW_AT_name("dj"), DW_AT_symbol_name("_dj")
    3032                      .dwattr DW$190, DW_AT_type(*DW$T$53)
    3033                      .dwattr DW$190, DW_AT_location[DW_OP_reg12]
    3034              DW$191  .dwtag  DW_TAG_variable, DW_AT_name("dj"), DW_AT_symbol_name("_dj")
    3035                      .dwattr DW$191, DW_AT_type(*DW$T$53)
    3036                      .dwattr DW$191, DW_AT_location[DW_OP_breg20 -2]
    3037              DW$192  .dwtag  DW_TAG_variable, DW_AT_name("res"), DW_AT_symbol_name("_res")
    3038                      .dwattr DW$192, DW_AT_type(*DW$T$49)
    3039                      .dwattr DW$192, DW_AT_location[DW_OP_breg20 -3]
    3040              DW$193  .dwtag  DW_TAG_variable, DW_AT_name("c"), DW_AT_symbol_name("_c")
    3041                      .dwattr DW$193, DW_AT_type(*DW$T$23)
    3042                      .dwattr DW$193, DW_AT_location[DW_OP_breg20 -4]
    3043              DW$194  .dwtag  DW_TAG_variable, DW_AT_name("dir"), DW_AT_symbol_name("_dir")
    3044                      .dwattr DW$194, DW_AT_type(*DW$T$32)
    3045                      .dwattr DW$194, DW_AT_location[DW_OP_breg20 -6]
    3046 0000053f A842          MOVL      *-SP[2],XAR4          ; |1519| 
    3047                      .dwpsn  "ff.c",1526,2
    3048 00000540 2843          MOV       *-SP[3],#4            ; |1526| 
         00000541 0004 
    3049                      .dwpsn  "ff.c",1527,2
    3050 00000542 6F24          B         L103,UNC              ; |1527| 
    3051                      ; branch occurs ; |1527| 
    3052              L100:    
    3053              DW$L$_dir_read$2$B:
    3054                      .dwpsn  "ff.c",1529,3
    3055 00000543 8A42          MOVL      XAR4,*-SP[2]          ; |1529| 
    3056 00000544 8342          MOVL      XAR5,*-SP[2]          ; |1529| 
    3057 00000545 8AC4          MOVL      XAR4,*+XAR4[0]        ; |1529| 
    3058 00000546 0695          MOVL      ACC,*+XAR5[AR0]       ; |1529| 
    3059 00000547 7640'         LCR       #_move_window         ; |1529| 
TMS320C2000 COFF Assembler PC v4.1.3 Thu May 05 10:06:00 2011

Tools Copyright (c) 1996-2006 Texas Instruments Incorporated
C:\DOCUME~1\ADMINI~1\LOCALS~1\Temp\TI1122                            PAGE   59

         00000548 0077 
    3060                      ; call occurs [#_move_window] ; |1529| 
    3061 00000549 9643          MOV       *-SP[3],AL            ; |1529| 
    3062                      .dwpsn  "ff.c",1530,3
    3063 0000054a 5200          CMPB      AL,#0                 ; |1530| 
    3064 0000054b ED1F          BF        L104,NEQ              ; |1530| 
    3065                      ; branchcc occurs ; |1530| 
    3066              DW$L$_dir_read$2$E:
    3067              DW$L$_dir_read$3$B:
    3068                      .dwpsn  "ff.c",1530,23
    3069                      .dwpsn  "ff.c",1531,3
    3070 0000054c 8A42          MOVL      XAR4,*-SP[2]          ; |1531| 
    3071 0000054d D00A          MOVB      XAR0,#10              ; |1531| 
    3072 0000054e 0694          MOVL      ACC,*+XAR4[AR0]       ; |1531| 
    3073 0000054f 1E46          MOVL      *-SP[6],ACC           ; |1531| 
    3074                      .dwpsn  "ff.c",1532,3
    3075 00000550 8A46          MOVL      XAR4,*-SP[6]          ; |1532| 
    3076 00000551 92C4          MOV       AL,*+XAR4[0]          ; |1532| 
    3077 00000552 9644          MOV       *-SP[4],AL            ; |1532| 
    3078                      .dwpsn  "ff.c",1533,3
    3079 00000553 ED04          BF        L101,NEQ              ; |1533| 
    3080                      ; branchcc occurs ; |1533| 
    3081              DW$L$_dir_read$3$E:
    3082                      .dwpsn  "ff.c",1535,4
    3083 00000554 2843          MOV       *-SP[3],#4            ; |1535| 
         00000555 0004 
    3084                      .dwpsn  "ff.c",1536,4
    3085 00000556 6F14          B         L104,UNC              ; |1536| 
    3086                      ; branch occurs ; |1536| 
    3087              L101:    
    3088              DW$L$_dir_read$5$B:
    3089                      .dwpsn  "ff.c",1566,3
    3090 00000557 52E5          CMPB      AL,#229               ; |1566| 
    3091 00000558 EC07          BF        L102,EQ               ; |1566| 
    3092                      ; branchcc occurs ; |1566| 
    3093 00000559       DW$L$_dir_read$5$E:
    3094 00000559       DW$L$_dir_read$6$B:
    3095 00000559 522E          CMPB      AL,#46                ; |1566| 
    3096 0000055a EC05          BF        L102,EQ               ; |1566| 
    3097                      ; branchcc occurs ; |1566| 
    3098 0000055b       DW$L$_dir_read$6$E:
    3099 0000055b       DW$L$_dir_read$7$B:
    3100 0000055b 8A46          MOVL      XAR4,*-SP[6]          ; |1566| 
    3101 0000055c D00B          MOVB      XAR0,#11              ; |1566| 
    3102 0000055d 4394          TBIT      *+XAR4[AR0],#3        ; |1566| 
    3103 0000055e EF0C          BF        L104,NTC              ; |1566| 
    3104                      ; branchcc occurs ; |1566| 
    3105              DW$L$_dir_read$7$E:
    3106              DW$L$_dir_read$8$B:
    3107                      .dwpsn  "ff.c",1567,4
    3108              DW$L$_dir_read$8$E:
    3109              L102:    
    3110              DW$L$_dir_read$9$B:
    3111                      .dwpsn  "ff.c",1569,3
    3112 0000055f 8A42          MOVL      XAR4,*-SP[2]          ; |1569| 
TMS320C2000 COFF Assembler PC v4.1.3 Thu May 05 10:06:00 2011

Tools Copyright (c) 1996-2006 Texas Instruments Incorporated
C:\DOCUME~1\ADMINI~1\LOCALS~1\Temp\TI1122                            PAGE   60

    3113 00000560 9A00          MOVB      AL,#0
    3114 00000561 7640'         LCR       #_dir_next            ; |1569| 
         00000562 0453 
    3115                      ; call occurs [#_dir_next] ; |1569| 
    3116 00000563 9643          MOV       *-SP[3],AL            ; |1569| 
    3117                      .dwpsn  "ff.c",1570,3
    3118 00000564 5200          CMPB      AL,#0                 ; |1570| 
    3119 00000565 ED05          BF        L104,NEQ              ; |1570| 
    3120                      ; branchcc occurs ; |1570| 
    3121              DW$L$_dir_read$9$E:
    3122              DW$L$_dir_read$10$B:
    3123                      .dwpsn  "ff.c",1570,23
    3124              DW$L$_dir_read$10$E:
    3125              L103:    
    3126              DW$L$_dir_read$11$B:
    3127                      .dwpsn  "ff.c",1571,2
    3128 00000566 8A42          MOVL      XAR4,*-SP[2]          ; |1571| 
    3129 00000567 D008          MOVB      XAR0,#8               ; |1571| 
    3130 00000568 0694          MOVL      ACC,*+XAR4[AR0]       ; |1571| 
    3131 00000569 EDDA          BF        L100,NEQ              ; |1571| 
    3132                      ; branchcc occurs ; |1571| 
    3133              DW$L$_dir_read$11$E:
    3134              L104:    
    3135                      .dwpsn  "ff.c",1573,2
    3136 0000056a 9243          MOV       AL,*-SP[3]            ; |1573| 
    3137 0000056b EC05          BF        L105,EQ               ; |1573| 
    3138                      ; branchcc occurs ; |1573| 
    3139                      .dwpsn  "ff.c",1573,22
    3140 0000056c 0200          MOVB      ACC,#0
    3141 0000056d 8A42          MOVL      XAR4,*-SP[2]          ; |1573| 
    3142 0000056e D008          MOVB      XAR0,#8               ; |1573| 
    3143 0000056f 1E94          MOVL      *+XAR4[AR0],ACC       ; |1573| 
    3144              L105:    
    3145                      .dwpsn  "ff.c",1575,2
    3146 00000570 9243          MOV       AL,*-SP[3]            ; |1575| 
    3147                      .dwpsn  "ff.c",1576,1
    3148 00000571 FE86          SUBB      SP,#6                 ; |1575| 
    3149                      .dwcfa  0x1d, -2
    3150 00000572 0006          LRETR
    3151                      ; return occurs
    3152              
    3153              DW$195  .dwtag  DW_TAG_loop
    3154                      .dwattr DW$195, DW_AT_name("C:\DOCUME~1\ADMINI~1\LOCALS~1\Temp\TI1122:L103:1:1304561157")
    3155                      .dwattr DW$195, DW_AT_begin_file("ff.c")
    3156                      .dwattr DW$195, DW_AT_begin_line(0x5f7)
    3157                      .dwattr DW$195, DW_AT_end_line(0x623)
    3158              DW$196  .dwtag  DW_TAG_loop_range
    3159                      .dwattr DW$196, DW_AT_low_pc(DW$L$_dir_read$11$B)
    3160                      .dwattr DW$196, DW_AT_high_pc(DW$L$_dir_read$11$E)
    3161              DW$197  .dwtag  DW_TAG_loop_range
    3162                      .dwattr DW$197, DW_AT_low_pc(DW$L$_dir_read$7$B)
    3163                      .dwattr DW$197, DW_AT_high_pc(DW$L$_dir_read$7$E)
    3164              DW$198  .dwtag  DW_TAG_loop_range
    3165                      .dwattr DW$198, DW_AT_low_pc(DW$L$_dir_read$2$B)
    3166                      .dwattr DW$198, DW_AT_high_pc(DW$L$_dir_read$2$E)
TMS320C2000 COFF Assembler PC v4.1.3 Thu May 05 10:06:00 2011

Tools Copyright (c) 1996-2006 Texas Instruments Incorporated
C:\DOCUME~1\ADMINI~1\LOCALS~1\Temp\TI1122                            PAGE   61

    3167              DW$199  .dwtag  DW_TAG_loop_range
    3168                      .dwattr DW$199, DW_AT_low_pc(DW$L$_dir_read$3$B)
    3169                      .dwattr DW$199, DW_AT_high_pc(DW$L$_dir_read$3$E)
    3170              DW$200  .dwtag  DW_TAG_loop_range
    3171                      .dwattr DW$200, DW_AT_low_pc(DW$L$_dir_read$5$B)
    3172                      .dwattr DW$200, DW_AT_high_pc(DW$L$_dir_read$5$E)
    3173              DW$201  .dwtag  DW_TAG_loop_range
    3174                      .dwattr DW$201, DW_AT_low_pc(DW$L$_dir_read$6$B)
    3175                      .dwattr DW$201, DW_AT_high_pc(DW$L$_dir_read$6$E)
    3176              DW$202  .dwtag  DW_TAG_loop_range
    3177                      .dwattr DW$202, DW_AT_low_pc(DW$L$_dir_read$8$B)
    3178                      .dwattr DW$202, DW_AT_high_pc(DW$L$_dir_read$8$E)
    3179              DW$203  .dwtag  DW_TAG_loop_range
    3180                      .dwattr DW$203, DW_AT_low_pc(DW$L$_dir_read$9$B)
    3181                      .dwattr DW$203, DW_AT_high_pc(DW$L$_dir_read$9$E)
    3182              DW$204  .dwtag  DW_TAG_loop_range
    3183                      .dwattr DW$204, DW_AT_low_pc(DW$L$_dir_read$10$B)
    3184                      .dwattr DW$204, DW_AT_high_pc(DW$L$_dir_read$10$E)
    3185                      .dwendtag DW$195
    3186              
    3187                      .dwattr DW$189, DW_AT_end_file("ff.c")
    3188                      .dwattr DW$189, DW_AT_end_line(0x628)
    3189                      .dwattr DW$189, DW_AT_end_column(0x01)
    3190                      .dwendentry
    3191                      .dwendtag DW$189
    3192              
    3193 00000573               .sect   ".text"
    3194              
    3195              DW$205  .dwtag  DW_TAG_subprogram, DW_AT_name("dir_register"), DW_AT_symbol_name("_dir_register")
    3196                      .dwattr DW$205, DW_AT_low_pc(_dir_register)
    3197                      .dwattr DW$205, DW_AT_high_pc(0x00)
    3198                      .dwattr DW$205, DW_AT_begin_file("ff.c")
    3199                      .dwattr DW$205, DW_AT_begin_line(0x632)
    3200                      .dwattr DW$205, DW_AT_begin_column(0x09)
    3201                      .dwpsn  "ff.c",1589,1
    3202              
    3203                      .dwfde DW$CIE
    3204              
    3205              ;***************************************************************
    3206              ;* FNAME: _dir_register                 FR SIZE:   6           *
    3207              ;*                                                             *
    3208              ;* FUNCTION ENVIRONMENT                                        *
    3209              ;*                                                             *
    3210              ;* FUNCTION PROPERTIES                                         *
    3211              ;*                            0 Parameter,  6 Auto,  0 SOE     *
    3212              ;***************************************************************
    3213              
    3214              _dir_register:
    3215                      .dwcfa  0x1d, -2
    3216                      .dwcfa  0x1c, 26, 0
    3217                      .dwcfa  0x09, 40, 26
    3218 00000573 FE06          ADDB      SP,#6
    3219                      .dwcfa  0x1d, -8
    3220              ;* AR4   assigned to _dj
    3221              DW$206  .dwtag  DW_TAG_formal_parameter, DW_AT_name("dj"), DW_AT_symbol_name("_dj")
TMS320C2000 COFF Assembler PC v4.1.3 Thu May 05 10:06:00 2011

Tools Copyright (c) 1996-2006 Texas Instruments Incorporated
C:\DOCUME~1\ADMINI~1\LOCALS~1\Temp\TI1122                            PAGE   62

    3222                      .dwattr DW$206, DW_AT_type(*DW$T$53)
    3223                      .dwattr DW$206, DW_AT_location[DW_OP_reg12]
    3224              DW$207  .dwtag  DW_TAG_variable, DW_AT_name("dj"), DW_AT_symbol_name("_dj")
    3225                      .dwattr DW$207, DW_AT_type(*DW$T$53)
    3226                      .dwattr DW$207, DW_AT_location[DW_OP_breg20 -2]
    3227              DW$208  .dwtag  DW_TAG_variable, DW_AT_name("res"), DW_AT_symbol_name("_res")
    3228                      .dwattr DW$208, DW_AT_type(*DW$T$49)
    3229                      .dwattr DW$208, DW_AT_location[DW_OP_breg20 -3]
    3230              DW$209  .dwtag  DW_TAG_variable, DW_AT_name("c"), DW_AT_symbol_name("_c")
    3231                      .dwattr DW$209, DW_AT_type(*DW$T$23)
    3232                      .dwattr DW$209, DW_AT_location[DW_OP_breg20 -4]
    3233              DW$210  .dwtag  DW_TAG_variable, DW_AT_name("dir"), DW_AT_symbol_name("_dir")
    3234                      .dwattr DW$210, DW_AT_type(*DW$T$32)
    3235                      .dwattr DW$210, DW_AT_location[DW_OP_breg20 -6]
    3236 00000574 A842          MOVL      *-SP[2],XAR4          ; |1589| 
    3237                      .dwpsn  "ff.c",1673,2
    3238 00000575 8A42          MOVL      XAR4,*-SP[2]          ; |1673| 
    3239 00000576 9A00          MOVB      AL,#0
    3240 00000577 7640'         LCR       #_dir_sdi             ; |1673| 
         00000578 03DB 
    3241                      ; call occurs [#_dir_sdi] ; |1673| 
    3242 00000579 9643          MOV       *-SP[3],AL            ; |1673| 
    3243                      .dwpsn  "ff.c",1674,2
    3244 0000057a 5200          CMPB      AL,#0                 ; |1674| 
    3245 0000057b ED1C          BF        L108,NEQ              ; |1674| 
    3246                      ; branchcc occurs ; |1674| 
    3247              L106:    
    3248              DW$L$_dir_register$2$B:
    3249                      .dwpsn  "ff.c",1678,4
    3250 0000057c 8A42          MOVL      XAR4,*-SP[2]          ; |1678| 
    3251 0000057d 8342          MOVL      XAR5,*-SP[2]          ; |1678| 
    3252 0000057e 8AC4          MOVL      XAR4,*+XAR4[0]        ; |1678| 
    3253 0000057f D008          MOVB      XAR0,#8               ; |1678| 
    3254 00000580 0695          MOVL      ACC,*+XAR5[AR0]       ; |1678| 
    3255 00000581 7640'         LCR       #_move_window         ; |1678| 
         00000582 0077 
    3256                      ; call occurs [#_move_window] ; |1678| 
    3257 00000583 9643          MOV       *-SP[3],AL            ; |1678| 
    3258                      .dwpsn  "ff.c",1679,4
    3259 00000584 5200          CMPB      AL,#0                 ; |1679| 
    3260 00000585 ED12          BF        L108,NEQ              ; |1679| 
    3261                      ; branchcc occurs ; |1679| 
    3262              DW$L$_dir_register$2$E:
    3263              DW$L$_dir_register$3$B:
    3264                      .dwpsn  "ff.c",1679,24
    3265                      .dwpsn  "ff.c",1680,4
    3266 00000586 8A42          MOVL      XAR4,*-SP[2]          ; |1680| 
    3267 00000587 D00A          MOVB      XAR0,#10              ; |1680| 
    3268 00000588 8A94          MOVL      XAR4,*+XAR4[AR0]      ; |1680| 
    3269 00000589 92C4          MOV       AL,*+XAR4[0]          ; |1680| 
    3270 0000058a 9644          MOV       *-SP[4],AL            ; |1680| 
    3271                      .dwpsn  "ff.c",1681,4
    3272 0000058b 52E5          CMPB      AL,#229               ; |1681| 
    3273 0000058c EC0B          BF        L108,EQ               ; |1681| 
    3274                      ; branchcc occurs ; |1681| 
TMS320C2000 COFF Assembler PC v4.1.3 Thu May 05 10:06:00 2011

Tools Copyright (c) 1996-2006 Texas Instruments Incorporated
C:\DOCUME~1\ADMINI~1\LOCALS~1\Temp\TI1122                            PAGE   63

    3275 0000058d       DW$L$_dir_register$3$E:
    3276 0000058d       DW$L$_dir_register$4$B:
    3277 0000058d 5200          CMPB      AL,#0                 ; |1681| 
    3278 0000058e ED02          BF        L107,NEQ              ; |1681| 
    3279                      ; branchcc occurs ; |1681| 
    3280 0000058f       DW$L$_dir_register$4$E:
    3281 0000058f 6F08          B         L108,UNC              ; |1681| 
    3282                      ; branch occurs ; |1681| 
    3283              L107:    
    3284              DW$L$_dir_register$7$B:
    3285                      .dwpsn  "ff.c",1682,4
    3286 00000590 8A42          MOVL      XAR4,*-SP[2]          ; |1682| 
    3287 00000591 9A01          MOVB      AL,#1                 ; |1682| 
    3288 00000592 7640'         LCR       #_dir_next            ; |1682| 
         00000593 0453 
    3289                      ; call occurs [#_dir_next] ; |1682| 
    3290 00000594 9643          MOV       *-SP[3],AL            ; |1682| 
    3291                      .dwpsn  "ff.c",1684,11
    3292 00000595 5200          CMPB      AL,#0                 ; |1684| 
    3293 00000596 ECE6          BF        L106,EQ               ; |1684| 
    3294                      ; branchcc occurs ; |1684| 
    3295              DW$L$_dir_register$7$E:
    3296              L108:    
    3297                      .dwpsn  "ff.c",1688,2
    3298 00000597 9243          MOV       AL,*-SP[3]            ; |1688| 
    3299 00000598 ED1F          BF        L109,NEQ              ; |1688| 
    3300                      ; branchcc occurs ; |1688| 
    3301                      .dwpsn  "ff.c",1690,3
    3302 00000599 8A42          MOVL      XAR4,*-SP[2]          ; |1690| 
    3303 0000059a 8342          MOVL      XAR5,*-SP[2]          ; |1690| 
    3304 0000059b 8AC4          MOVL      XAR4,*+XAR4[0]        ; |1690| 
    3305 0000059c D008          MOVB      XAR0,#8               ; |1690| 
    3306 0000059d 0695          MOVL      ACC,*+XAR5[AR0]       ; |1690| 
    3307 0000059e 7640'         LCR       #_move_window         ; |1690| 
         0000059f 0077 
    3308                      ; call occurs [#_move_window] ; |1690| 
    3309 000005a0 9643          MOV       *-SP[3],AL            ; |1690| 
    3310                      .dwpsn  "ff.c",1691,3
    3311 000005a1 5200          CMPB      AL,#0                 ; |1691| 
    3312 000005a2 ED15          BF        L109,NEQ              ; |1691| 
    3313                      ; branchcc occurs ; |1691| 
    3314                      .dwpsn  "ff.c",1693,4
    3315 000005a3 8A42          MOVL      XAR4,*-SP[2]          ; |1693| 
    3316 000005a4 D00A          MOVB      XAR0,#10              ; |1693| 
    3317 000005a5 0694          MOVL      ACC,*+XAR4[AR0]       ; |1693| 
    3318 000005a6 1E46          MOVL      *-SP[6],ACC           ; |1693| 
    3319                      .dwpsn  "ff.c",1694,4
    3320 000005a7 8A46          MOVL      XAR4,*-SP[6]          ; |1694| 
    3321 000005a8 9A00          MOVB      AL,#0
    3322 000005a9 9B20          MOVB      AH,#32                ; |1694| 
    3323 000005aa 7640'         LCR       #_mem_set             ; |1694| 
         000005ab 001A 
    3324                      ; call occurs [#_mem_set] ; |1694| 
    3325                      .dwpsn  "ff.c",1695,4
    3326 000005ac 8A42          MOVL      XAR4,*-SP[2]          ; |1695| 
TMS320C2000 COFF Assembler PC v4.1.3 Thu May 05 10:06:00 2011

Tools Copyright (c) 1996-2006 Texas Instruments Incorporated
C:\DOCUME~1\ADMINI~1\LOCALS~1\Temp\TI1122                            PAGE   64

    3327 000005ad D00C          MOVB      XAR0,#12              ; |1695| 
    3328 000005ae 8394          MOVL      XAR5,*+XAR4[AR0]      ; |1695| 
    3329 000005af 8A46          MOVL      XAR4,*-SP[6]          ; |1695| 
    3330 000005b0 9A0B          MOVB      AL,#11                ; |1695| 
    3331 000005b1 7640'         LCR       #_mem_cpy             ; |1695| 
         000005b2 0000 
    3332                      ; call occurs [#_mem_cpy] ; |1695| 
    3333                      .dwpsn  "ff.c",1699,4
    3334 000005b3 8A42          MOVL      XAR4,*-SP[2]          ; |1699| 
    3335 000005b4 8AC4          MOVL      XAR4,*+XAR4[0]        ; |1699| 
    3336 000005b5 28E4          MOV       *+XAR4[4],#1          ; |1699| 
         000005b6 0001 
    3337              L109:    
    3338                      .dwpsn  "ff.c",1703,2
    3339 000005b7 9243          MOV       AL,*-SP[3]            ; |1703| 
    3340                      .dwpsn  "ff.c",1704,1
    3341 000005b8 FE86          SUBB      SP,#6                 ; |1703| 
    3342                      .dwcfa  0x1d, -2
    3343 000005b9 0006          LRETR
    3344                      ; return occurs
    3345              
    3346              DW$211  .dwtag  DW_TAG_loop
    3347                      .dwattr DW$211, DW_AT_name("C:\DOCUME~1\ADMINI~1\LOCALS~1\Temp\TI1122:L106:1:1304561157")
    3348                      .dwattr DW$211, DW_AT_begin_file("ff.c")
    3349                      .dwattr DW$211, DW_AT_begin_line(0x68c)
    3350                      .dwattr DW$211, DW_AT_end_line(0x694)
    3351              DW$212  .dwtag  DW_TAG_loop_range
    3352                      .dwattr DW$212, DW_AT_low_pc(DW$L$_dir_register$2$B)
    3353                      .dwattr DW$212, DW_AT_high_pc(DW$L$_dir_register$2$E)
    3354              DW$213  .dwtag  DW_TAG_loop_range
    3355                      .dwattr DW$213, DW_AT_low_pc(DW$L$_dir_register$3$B)
    3356                      .dwattr DW$213, DW_AT_high_pc(DW$L$_dir_register$3$E)
    3357              DW$214  .dwtag  DW_TAG_loop_range
    3358                      .dwattr DW$214, DW_AT_low_pc(DW$L$_dir_register$4$B)
    3359                      .dwattr DW$214, DW_AT_high_pc(DW$L$_dir_register$4$E)
    3360              DW$215  .dwtag  DW_TAG_loop_range
    3361                      .dwattr DW$215, DW_AT_low_pc(DW$L$_dir_register$7$B)
    3362                      .dwattr DW$215, DW_AT_high_pc(DW$L$_dir_register$7$E)
    3363                      .dwendtag DW$211
    3364              
    3365                      .dwattr DW$205, DW_AT_end_file("ff.c")
    3366                      .dwattr DW$205, DW_AT_end_line(0x6a8)
    3367                      .dwattr DW$205, DW_AT_end_column(0x01)
    3368                      .dwendentry
    3369                      .dwendtag DW$205
    3370              
    3371 000005ba               .sect   ".text"
    3372              
    3373              DW$216  .dwtag  DW_TAG_subprogram, DW_AT_name("dir_remove"), DW_AT_symbol_name("_dir_remove")
    3374                      .dwattr DW$216, DW_AT_low_pc(_dir_remove)
    3375                      .dwattr DW$216, DW_AT_high_pc(0x00)
    3376                      .dwattr DW$216, DW_AT_begin_file("ff.c")
    3377                      .dwattr DW$216, DW_AT_begin_line(0x6b3)
    3378                      .dwattr DW$216, DW_AT_begin_column(0x09)
    3379                      .dwpsn  "ff.c",1718,1
TMS320C2000 COFF Assembler PC v4.1.3 Thu May 05 10:06:00 2011

Tools Copyright (c) 1996-2006 Texas Instruments Incorporated
C:\DOCUME~1\ADMINI~1\LOCALS~1\Temp\TI1122                            PAGE   65

    3380              
    3381                      .dwfde DW$CIE
    3382              
    3383              ;***************************************************************
    3384              ;* FNAME: _dir_remove                   FR SIZE:   4           *
    3385              ;*                                                             *
    3386              ;* FUNCTION ENVIRONMENT                                        *
    3387              ;*                                                             *
    3388              ;* FUNCTION PROPERTIES                                         *
    3389              ;*                            0 Parameter,  3 Auto,  0 SOE     *
    3390              ;***************************************************************
    3391              
    3392              _dir_remove:
    3393                      .dwcfa  0x1d, -2
    3394                      .dwcfa  0x1c, 26, 0
    3395                      .dwcfa  0x09, 40, 26
    3396 000005ba FE04          ADDB      SP,#4
    3397                      .dwcfa  0x1d, -6
    3398              ;* AR4   assigned to _dj
    3399              DW$217  .dwtag  DW_TAG_formal_parameter, DW_AT_name("dj"), DW_AT_symbol_name("_dj")
    3400                      .dwattr DW$217, DW_AT_type(*DW$T$53)
    3401                      .dwattr DW$217, DW_AT_location[DW_OP_reg12]
    3402              DW$218  .dwtag  DW_TAG_variable, DW_AT_name("dj"), DW_AT_symbol_name("_dj")
    3403                      .dwattr DW$218, DW_AT_type(*DW$T$53)
    3404                      .dwattr DW$218, DW_AT_location[DW_OP_breg20 -2]
    3405              DW$219  .dwtag  DW_TAG_variable, DW_AT_name("res"), DW_AT_symbol_name("_res")
    3406                      .dwattr DW$219, DW_AT_type(*DW$T$49)
    3407                      .dwattr DW$219, DW_AT_location[DW_OP_breg20 -3]
    3408 000005bb A842          MOVL      *-SP[2],XAR4          ; |1718| 
    3409                      .dwpsn  "ff.c",1741,2
    3410 000005bc 8A42          MOVL      XAR4,*-SP[2]          ; |1741| 
    3411 000005bd 92DC          MOV       AL,*+XAR4[3]          ; |1741| 
    3412 000005be 8A42          MOVL      XAR4,*-SP[2]          ; |1741| 
    3413 000005bf 7640'         LCR       #_dir_sdi             ; |1741| 
         000005c0 03DB 
    3414                      ; call occurs [#_dir_sdi] ; |1741| 
    3415 000005c1 9643          MOV       *-SP[3],AL            ; |1741| 
    3416                      .dwpsn  "ff.c",1742,2
    3417 000005c2 5200          CMPB      AL,#0                 ; |1742| 
    3418 000005c3 ED14          BF        L110,NEQ              ; |1742| 
    3419                      ; branchcc occurs ; |1742| 
    3420                      .dwpsn  "ff.c",1744,3
    3421 000005c4 8A42          MOVL      XAR4,*-SP[2]          ; |1744| 
    3422 000005c5 8342          MOVL      XAR5,*-SP[2]          ; |1744| 
    3423 000005c6 8AC4          MOVL      XAR4,*+XAR4[0]        ; |1744| 
    3424 000005c7 D008          MOVB      XAR0,#8               ; |1744| 
    3425 000005c8 0695          MOVL      ACC,*+XAR5[AR0]       ; |1744| 
    3426 000005c9 7640'         LCR       #_move_window         ; |1744| 
         000005ca 0077 
    3427                      ; call occurs [#_move_window] ; |1744| 
    3428 000005cb 9643          MOV       *-SP[3],AL            ; |1744| 
    3429                      .dwpsn  "ff.c",1745,3
    3430 000005cc 5200          CMPB      AL,#0                 ; |1745| 
    3431 000005cd ED0A          BF        L110,NEQ              ; |1745| 
    3432                      ; branchcc occurs ; |1745| 
TMS320C2000 COFF Assembler PC v4.1.3 Thu May 05 10:06:00 2011

Tools Copyright (c) 1996-2006 Texas Instruments Incorporated
C:\DOCUME~1\ADMINI~1\LOCALS~1\Temp\TI1122                            PAGE   66

    3433                      .dwpsn  "ff.c",1747,4
    3434 000005ce 8A42          MOVL      XAR4,*-SP[2]          ; |1747| 
    3435 000005cf D00A          MOVB      XAR0,#10              ; |1747| 
    3436 000005d0 8A94          MOVL      XAR4,*+XAR4[AR0]      ; |1747| 
    3437 000005d1 28C4          MOV       *+XAR4[0],#229        ; |1747| 
         000005d2 00E5 
    3438                      .dwpsn  "ff.c",1748,4
    3439 000005d3 8A42          MOVL      XAR4,*-SP[2]          ; |1748| 
    3440 000005d4 8AC4          MOVL      XAR4,*+XAR4[0]        ; |1748| 
    3441 000005d5 28E4          MOV       *+XAR4[4],#1          ; |1748| 
         000005d6 0001 
    3442              L110:    
    3443                      .dwpsn  "ff.c",1753,2
    3444 000005d7 9243          MOV       AL,*-SP[3]            ; |1753| 
    3445                      .dwpsn  "ff.c",1754,1
    3446 000005d8 FE84          SUBB      SP,#4                 ; |1753| 
    3447                      .dwcfa  0x1d, -2
    3448 000005d9 0006          LRETR
    3449                      ; return occurs
    3450                      .dwattr DW$216, DW_AT_end_file("ff.c")
    3451                      .dwattr DW$216, DW_AT_end_line(0x6da)
    3452                      .dwattr DW$216, DW_AT_end_column(0x01)
    3453                      .dwendentry
    3454                      .dwendtag DW$216
    3455              
    3456 000005da               .sect   ".text"
    3457              
    3458              DW$220  .dwtag  DW_TAG_subprogram, DW_AT_name("create_name"), DW_AT_symbol_name("_create_name")
    3459                      .dwattr DW$220, DW_AT_low_pc(_create_name)
    3460                      .dwattr DW$220, DW_AT_high_pc(0x00)
    3461                      .dwattr DW$220, DW_AT_begin_file("ff.c")
    3462                      .dwattr DW$220, DW_AT_begin_line(0x6e5)
    3463                      .dwattr DW$220, DW_AT_begin_column(0x09)
    3464                      .dwpsn  "ff.c",1769,1
    3465              
    3466                      .dwfde DW$CIE
    3467              
    3468              ;***************************************************************
    3469              ;* FNAME: _create_name                  FR SIZE:  16           *
    3470              ;*                                                             *
    3471              ;* FUNCTION ENVIRONMENT                                        *
    3472              ;*                                                             *
    3473              ;* FUNCTION PROPERTIES                                         *
    3474              ;*                            0 Parameter, 16 Auto,  0 SOE     *
    3475              ;***************************************************************
    3476              
    3477              _create_name:
    3478                      .dwcfa  0x1d, -2
    3479                      .dwcfa  0x1c, 26, 0
    3480                      .dwcfa  0x09, 40, 26
    3481 000005da FE10          ADDB      SP,#16
    3482                      .dwcfa  0x1d, -18
    3483              ;* AR4   assigned to _dj
    3484              DW$221  .dwtag  DW_TAG_formal_parameter, DW_AT_name("dj"), DW_AT_symbol_name("_dj")
    3485                      .dwattr DW$221, DW_AT_type(*DW$T$53)
TMS320C2000 COFF Assembler PC v4.1.3 Thu May 05 10:06:00 2011

Tools Copyright (c) 1996-2006 Texas Instruments Incorporated
C:\DOCUME~1\ADMINI~1\LOCALS~1\Temp\TI1122                            PAGE   67

    3486                      .dwattr DW$221, DW_AT_location[DW_OP_reg12]
    3487              ;* AR5   assigned to _path
    3488              DW$222  .dwtag  DW_TAG_formal_parameter, DW_AT_name("path"), DW_AT_symbol_name("_path")
    3489                      .dwattr DW$222, DW_AT_type(*DW$T$115)
    3490                      .dwattr DW$222, DW_AT_location[DW_OP_reg14]
    3491              DW$223  .dwtag  DW_TAG_variable, DW_AT_name("dj"), DW_AT_symbol_name("_dj")
    3492                      .dwattr DW$223, DW_AT_type(*DW$T$53)
    3493                      .dwattr DW$223, DW_AT_location[DW_OP_breg20 -2]
    3494              DW$224  .dwtag  DW_TAG_variable, DW_AT_name("path"), DW_AT_symbol_name("_path")
    3495                      .dwattr DW$224, DW_AT_type(*DW$T$115)
    3496                      .dwattr DW$224, DW_AT_location[DW_OP_breg20 -4]
    3497              DW$225  .dwtag  DW_TAG_variable, DW_AT_name("b"), DW_AT_symbol_name("_b")
    3498                      .dwattr DW$225, DW_AT_type(*DW$T$23)
    3499                      .dwattr DW$225, DW_AT_location[DW_OP_breg20 -5]
    3500              DW$226  .dwtag  DW_TAG_variable, DW_AT_name("c"), DW_AT_symbol_name("_c")
    3501                      .dwattr DW$226, DW_AT_type(*DW$T$23)
    3502                      .dwattr DW$226, DW_AT_location[DW_OP_breg20 -6]
    3503              DW$227  .dwtag  DW_TAG_variable, DW_AT_name("d"), DW_AT_symbol_name("_d")
    3504                      .dwattr DW$227, DW_AT_type(*DW$T$23)
    3505                      .dwattr DW$227, DW_AT_location[DW_OP_breg20 -7]
    3506              DW$228  .dwtag  DW_TAG_variable, DW_AT_name("sfn"), DW_AT_symbol_name("_sfn")
    3507                      .dwattr DW$228, DW_AT_type(*DW$T$32)
    3508                      .dwattr DW$228, DW_AT_location[DW_OP_breg20 -10]
    3509              DW$229  .dwtag  DW_TAG_variable, DW_AT_name("ni"), DW_AT_symbol_name("_ni")
    3510                      .dwattr DW$229, DW_AT_type(*DW$T$43)
    3511                      .dwattr DW$229, DW_AT_location[DW_OP_breg20 -11]
    3512              DW$230  .dwtag  DW_TAG_variable, DW_AT_name("si"), DW_AT_symbol_name("_si")
    3513                      .dwattr DW$230, DW_AT_type(*DW$T$43)
    3514                      .dwattr DW$230, DW_AT_location[DW_OP_breg20 -12]
    3515              DW$231  .dwtag  DW_TAG_variable, DW_AT_name("i"), DW_AT_symbol_name("_i")
    3516                      .dwattr DW$231, DW_AT_type(*DW$T$43)
    3517                      .dwattr DW$231, DW_AT_location[DW_OP_breg20 -13]
    3518              DW$232  .dwtag  DW_TAG_variable, DW_AT_name("p"), DW_AT_symbol_name("_p")
    3519                      .dwattr DW$232, DW_AT_type(*DW$T$83)
    3520                      .dwattr DW$232, DW_AT_location[DW_OP_breg20 -16]
    3521 000005db A044          MOVL      *-SP[4],XAR5          ; |1769| 
    3522 000005dc A842          MOVL      *-SP[2],XAR4          ; |1769| 
    3523                      .dwpsn  "ff.c",1932,8
    3524 000005dd 8A44          MOVL      XAR4,*-SP[4]          ; |1932| 
    3525 000005de 06C4          MOVL      ACC,*+XAR4[0]         ; |1932| 
    3526 000005df 1E50          MOVL      *-SP[16],ACC          ; |1932| 
    3527 000005e0 6F04          B         L112,UNC              ; |1932| 
    3528                      ; branch occurs ; |1932| 
    3529              L111:    
    3530              DW$L$_create_name$2$B:
    3531                      .dwpsn  "ff.c",1932,44
    3532 000005e1 0201          MOVB      ACC,#1
    3533 000005e2 5601          ADDL      *-SP[16],ACC          ; |1932| 
         000005e3 0050 
    3534              DW$L$_create_name$2$E:
    3535              L112:    
    3536              DW$L$_create_name$3$B:
    3537                      .dwpsn  "ff.c",1932,19
    3538 000005e4 8A50          MOVL      XAR4,*-SP[16]         ; |1932| 
    3539 000005e5 92C4          MOV       AL,*+XAR4[0]          ; |1932| 
TMS320C2000 COFF Assembler PC v4.1.3 Thu May 05 10:06:00 2011

Tools Copyright (c) 1996-2006 Texas Instruments Incorporated
C:\DOCUME~1\ADMINI~1\LOCALS~1\Temp\TI1122                            PAGE   68

    3540 000005e6 522F          CMPB      AL,#47                ; |1932| 
    3541 000005e7 ECFA          BF        L111,EQ               ; |1932| 
    3542                      ; branchcc occurs ; |1932| 
    3543 000005e8       DW$L$_create_name$3$E:
    3544 000005e8       DW$L$_create_name$4$B:
    3545 000005e8 8A50          MOVL      XAR4,*-SP[16]         ; |1932| 
    3546 000005e9 92C4          MOV       AL,*+XAR4[0]          ; |1932| 
    3547 000005ea 525C          CMPB      AL,#92                ; |1932| 
    3548 000005eb ECF6          BF        L111,EQ               ; |1932| 
    3549                      ; branchcc occurs ; |1932| 
    3550              DW$L$_create_name$4$E:
    3551                      .dwpsn  "ff.c",1933,2
    3552 000005ec 8A42          MOVL      XAR4,*-SP[2]          ; |1933| 
    3553 000005ed D00C          MOVB      XAR0,#12              ; |1933| 
    3554 000005ee 0694          MOVL      ACC,*+XAR4[AR0]       ; |1933| 
    3555 000005ef 1E4A          MOVL      *-SP[10],ACC          ; |1933| 
    3556                      .dwpsn  "ff.c",1934,2
    3557 000005f0 8A4A          MOVL      XAR4,*-SP[10]         ; |1934| 
    3558 000005f1 9A20          MOVB      AL,#32                ; |1934| 
    3559 000005f2 9B0B          MOVB      AH,#11                ; |1934| 
    3560 000005f3 7640'         LCR       #_mem_set             ; |1934| 
         000005f4 001A 
    3561                      ; call occurs [#_mem_set] ; |1934| 
    3562                      .dwpsn  "ff.c",1935,2
    3563 000005f5 9A00          MOVB      AL,#0
    3564 000005f6 9645          MOV       *-SP[5],AL            ; |1935| 
    3565 000005f7 964D          MOV       *-SP[13],AL           ; |1935| 
    3566 000005f8 964C          MOV       *-SP[12],AL           ; |1935| 
    3567                      .dwpsn  "ff.c",1936,2
    3568 000005f9 284B          MOV       *-SP[11],#8           ; |1936| 
         000005fa 0008 
    3569              L113:    
    3570              DW$L$_create_name$6$B:
    3571                      .dwpsn  "ff.c",1954,3
    3572 000005fb 584C          MOVZ      AR0,*-SP[12]          ; |1954| 
    3573 000005fc 0A4C          INC       *-SP[12]              ; |1954| 
    3574 000005fd 8A50          MOVL      XAR4,*-SP[16]         ; |1954| 
    3575 000005fe 9294          MOV       AL,*+XAR4[AR0]        ; |1954| 
    3576 000005ff 9646          MOV       *-SP[6],AL            ; |1954| 
    3577                      .dwpsn  "ff.c",1955,3
    3578 00000600 5220          CMPB      AL,#32                ; |1955| 
    3579 00000601 6967          B         L130,LOS              ; |1955| 
    3580                      ; branchcc occurs ; |1955| 
    3581 00000602       DW$L$_create_name$6$E:
    3582 00000602       DW$L$_create_name$7$B:
    3583 00000602 522F          CMPB      AL,#47                ; |1955| 
    3584 00000603 EC65          BF        L130,EQ               ; |1955| 
    3585                      ; branchcc occurs ; |1955| 
    3586 00000604       DW$L$_create_name$7$E:
    3587 00000604       DW$L$_create_name$8$B:
    3588 00000604 525C          CMPB      AL,#92                ; |1955| 
    3589 00000605 ED02          BF        L114,NEQ              ; |1955| 
    3590                      ; branchcc occurs ; |1955| 
    3591 00000606       DW$L$_create_name$8$E:
    3592 00000606 6F62          B         L130,UNC              ; |1955| 
TMS320C2000 COFF Assembler PC v4.1.3 Thu May 05 10:06:00 2011

Tools Copyright (c) 1996-2006 Texas Instruments Incorporated
C:\DOCUME~1\ADMINI~1\LOCALS~1\Temp\TI1122                            PAGE   69

    3593                      ; branch occurs ; |1955| 
    3594              L114:    
    3595              DW$L$_create_name$11$B:
    3596                      .dwpsn  "ff.c",1956,3
    3597 00000607 522E          CMPB      AL,#46                ; |1956| 
    3598 00000608 EC04          BF        L115,EQ               ; |1956| 
    3599                      ; branchcc occurs ; |1956| 
    3600 00000609       DW$L$_create_name$11$E:
    3601 00000609       DW$L$_create_name$12$B:
    3602 00000609 924B          MOV       AL,*-SP[11]           ; |1956| 
    3603 0000060a 544D          CMP       AL,*-SP[13]           ; |1956| 
    3604 0000060b 6612          B         L118,HI               ; |1956| 
    3605                      ; branchcc occurs ; |1956| 
    3606              DW$L$_create_name$12$E:
    3607              L115:    
    3608              DW$L$_create_name$13$B:
    3609                      .dwpsn  "ff.c",1958,4
    3610 0000060c 924B          MOV       AL,*-SP[11]           ; |1958| 
    3611 0000060d 5208          CMPB      AL,#8                 ; |1958| 
    3612 0000060e ED04          BF        L116,NEQ              ; |1958| 
    3613                      ; branchcc occurs ; |1958| 
    3614 0000060f       DW$L$_create_name$13$E:
    3615 0000060f       DW$L$_create_name$14$B:
    3616 0000060f 9246          MOV       AL,*-SP[6]            ; |1958| 
    3617 00000610 522E          CMPB      AL,#46                ; |1958| 
    3618 00000611 EC04          BF        L117,EQ               ; |1958| 
    3619                      ; branchcc occurs ; |1958| 
    3620              DW$L$_create_name$14$E:
    3621              L116:    
    3622                      .dwpsn  "ff.c",1958,31
    3623 00000612 9A06          MOVB      AL,#6                 ; |1958| 
    3624 00000613 FFEF          B         L138,UNC              ; |1958| 
         00000614 0083 
    3625                      ; branch occurs ; |1958| 
    3626              L117:    
    3627              DW$L$_create_name$16$B:
    3628                      .dwpsn  "ff.c",1959,4
    3629 00000615 284D          MOV       *-SP[13],#8           ; |1959| 
         00000616 0008 
    3630                      .dwpsn  "ff.c",1960,4
    3631 00000617 284B          MOV       *-SP[11],#11          ; |1960| 
         00000618 000B 
    3632                      .dwpsn  "ff.c",1961,4
    3633 00000619 5603          MOV       ACC,*-SP[5] << #2     ; |1961| 
         0000061a 0245 
    3634 0000061b 9645          MOV       *-SP[5],AL            ; |1961| 
    3635                      .dwpsn  "ff.c",1962,4
    3636 0000061c 6FDF          B         L113,UNC              ; |1962| 
    3637                      ; branch occurs ; |1962| 
    3638              DW$L$_create_name$16$E:
    3639              L118:    
    3640              DW$L$_create_name$17$B:
    3641                      .dwpsn  "ff.c",1964,3
    3642 0000061d 9246          MOV       AL,*-SP[6]            ; |1964| 
    3643 0000061e 5280          CMPB      AL,#128               ; |1964| 
TMS320C2000 COFF Assembler PC v4.1.3 Thu May 05 10:06:00 2011

Tools Copyright (c) 1996-2006 Texas Instruments Incorporated
C:\DOCUME~1\ADMINI~1\LOCALS~1\Temp\TI1122                            PAGE   70

    3644 0000061f 6803          B         L119,LO               ; |1964| 
    3645                      ; branchcc occurs ; |1964| 
    3646              DW$L$_create_name$17$E:
    3647              DW$L$_create_name$18$B:
    3648                      .dwpsn  "ff.c",1966,4
    3649 00000620 1A45          OR        *-SP[5],#0x0003       ; |1966| 
         00000621 0003 
    3650              DW$L$_create_name$18$E:
    3651              L119:    
    3652              DW$L$_create_name$19$B:
    3653                      .dwpsn  "ff.c",1975,3
    3654 00000622 9246          MOV       AL,*-SP[6]            ; |1975| 
    3655 00000623 5281          CMPB      AL,#129               ; |1975| 
    3656 00000624 6803          B         L120,LO               ; |1975| 
    3657                      ; branchcc occurs ; |1975| 
    3658 00000625       DW$L$_create_name$19$E:
    3659 00000625       DW$L$_create_name$20$B:
    3660 00000625 529F          CMPB      AL,#159               ; |1975| 
    3661 00000626 6905          B         L121,LOS              ; |1975| 
    3662                      ; branchcc occurs ; |1975| 
    3663 00000627       DW$L$_create_name$20$E:
    3664 00000627       L120:    
    3665 00000627       DW$L$_create_name$21$B:
    3666 00000627 52E0          CMPB      AL,#224               ; |1975| 
    3667 00000628 6821          B         L126,LO               ; |1975| 
    3668                      ; branchcc occurs ; |1975| 
    3669 00000629       DW$L$_create_name$21$E:
    3670 00000629       DW$L$_create_name$22$B:
    3671 00000629 52FC          CMPB      AL,#252               ; |1975| 
    3672 0000062a 661F          B         L126,HI               ; |1975| 
    3673                      ; branchcc occurs ; |1975| 
    3674              DW$L$_create_name$22$E:
    3675              L121:    
    3676              DW$L$_create_name$23$B:
    3677                      .dwpsn  "ff.c",1977,4
    3678 0000062b 584C          MOVZ      AR0,*-SP[12]          ; |1977| 
    3679 0000062c 0A4C          INC       *-SP[12]              ; |1977| 
    3680 0000062d 8A50          MOVL      XAR4,*-SP[16]         ; |1977| 
    3681 0000062e 9294          MOV       AL,*+XAR4[AR0]        ; |1977| 
    3682 0000062f 9647          MOV       *-SP[7],AL            ; |1977| 
    3683                      .dwpsn  "ff.c",1978,4
    3684 00000630 5240          CMPB      AL,#64                ; |1978| 
    3685 00000631 6803          B         L122,LO               ; |1978| 
    3686                      ; branchcc occurs ; |1978| 
    3687 00000632       DW$L$_create_name$23$E:
    3688 00000632       DW$L$_create_name$24$B:
    3689 00000632 527E          CMPB      AL,#126               ; |1978| 
    3690 00000633 6905          B         L123,LOS              ; |1978| 
    3691                      ; branchcc occurs ; |1978| 
    3692 00000634       DW$L$_create_name$24$E:
    3693 00000634       L122:    
    3694 00000634       DW$L$_create_name$25$B:
    3695 00000634 5280          CMPB      AL,#128               ; |1978| 
    3696 00000635 6807          B         L124,LO               ; |1978| 
    3697                      ; branchcc occurs ; |1978| 
TMS320C2000 COFF Assembler PC v4.1.3 Thu May 05 10:06:00 2011

Tools Copyright (c) 1996-2006 Texas Instruments Incorporated
C:\DOCUME~1\ADMINI~1\LOCALS~1\Temp\TI1122                            PAGE   71

    3698 00000636       DW$L$_create_name$25$E:
    3699 00000636       DW$L$_create_name$26$B:
    3700 00000636 52FC          CMPB      AL,#252               ; |1978| 
    3701 00000637 6605          B         L124,HI               ; |1978| 
    3702                      ; branchcc occurs ; |1978| 
    3703 00000638       DW$L$_create_name$26$E:
    3704 00000638       L123:    
    3705 00000638       DW$L$_create_name$27$B:
    3706 00000638 924B          MOV       AL,*-SP[11]           ; |1978| 
    3707 00000639 9CFF          ADDB      AL,#-1
    3708 0000063a 544D          CMP       AL,*-SP[13]           ; |1978| 
    3709 0000063b 6603          B         L125,HI               ; |1978| 
    3710                      ; branchcc occurs ; |1978| 
    3711              DW$L$_create_name$27$E:
    3712              L124:    
    3713                      .dwpsn  "ff.c",1979,5
    3714 0000063c 9A06          MOVB      AL,#6                 ; |1979| 
    3715 0000063d 6F59          B         L138,UNC              ; |1979| 
    3716                      ; branch occurs ; |1979| 
    3717              L125:    
    3718              DW$L$_create_name$29$B:
    3719                      .dwpsn  "ff.c",1980,4
    3720 0000063e 584D          MOVZ      AR0,*-SP[13]          ; |1980| 
    3721 0000063f 0A4D          INC       *-SP[13]              ; |1980| 
    3722 00000640 8A4A          MOVL      XAR4,*-SP[10]         ; |1980| 
    3723 00000641 9246          MOV       AL,*-SP[6]            ; |1980| 
    3724 00000642 9694          MOV       *+XAR4[AR0],AL        ; |1980| 
    3725                      .dwpsn  "ff.c",1981,4
    3726 00000643 584D          MOVZ      AR0,*-SP[13]          ; |1981| 
    3727 00000644 0A4D          INC       *-SP[13]              ; |1981| 
    3728 00000645 8A4A          MOVL      XAR4,*-SP[10]         ; |1981| 
    3729 00000646 9247          MOV       AL,*-SP[7]            ; |1981| 
    3730 00000647 9694          MOV       *+XAR4[AR0],AL        ; |1981| 
    3731                      .dwpsn  "ff.c",1982,3
    3732 00000648 6FB3          B         L113,UNC              ; |1982| 
    3733                      ; branch occurs ; |1982| 
    3734              DW$L$_create_name$29$E:
    3735              L126:    
    3736              DW$L$_create_name$30$B:
    3737                      .dwpsn  "ff.c",1985,4
    3738 00000649 9246          MOV       AL,*-SP[6]            ; |1985| 
    3739 0000064a 8F00+         MOVL      XAR4,#FSL1            ; |1985| 
         0000064b 0000 
    3740 0000064c 7640'         LCR       #_chk_chr             ; |1985| 
         0000064d 0049 
    3741                      ; call occurs [#_chk_chr] ; |1985| 
    3742 0000064e 5200          CMPB      AL,#0                 ; |1985| 
    3743 0000064f EC03          BF        L127,EQ               ; |1985| 
    3744                      ; branchcc occurs ; |1985| 
    3745              DW$L$_create_name$30$E:
    3746                      .dwpsn  "ff.c",1986,5
    3747 00000650 9A06          MOVB      AL,#6                 ; |1986| 
    3748 00000651 6F45          B         L138,UNC              ; |1986| 
    3749                      ; branch occurs ; |1986| 
    3750              L127:    
TMS320C2000 COFF Assembler PC v4.1.3 Thu May 05 10:06:00 2011

Tools Copyright (c) 1996-2006 Texas Instruments Incorporated
C:\DOCUME~1\ADMINI~1\LOCALS~1\Temp\TI1122                            PAGE   72

    3751              DW$L$_create_name$32$B:
    3752                      .dwpsn  "ff.c",1987,4
    3753 00000652 9246          MOV       AL,*-SP[6]            ; |1987| 
    3754 00000653 5241          CMPB      AL,#65                ; |1987| 
    3755 00000654 6806          B         L128,LO               ; |1987| 
    3756                      ; branchcc occurs ; |1987| 
    3757 00000655       DW$L$_create_name$32$E:
    3758 00000655       DW$L$_create_name$33$B:
    3759 00000655 525A          CMPB      AL,#90                ; |1987| 
    3760 00000656 6604          B         L128,HI               ; |1987| 
    3761                      ; branchcc occurs ; |1987| 
    3762              DW$L$_create_name$33$E:
    3763              DW$L$_create_name$34$B:
    3764                      .dwpsn  "ff.c",1989,5
    3765 00000657 1A45          OR        *-SP[5],#0x0002       ; |1989| 
         00000658 0002 
    3766                      .dwpsn  "ff.c",1990,4
    3767 00000659 6F09          B         L129,UNC              ; |1990| 
    3768                      ; branch occurs ; |1990| 
    3769              DW$L$_create_name$34$E:
    3770              L128:    
    3771              DW$L$_create_name$35$B:
    3772                      .dwpsn  "ff.c",1993,5
    3773 0000065a 5261          CMPB      AL,#97                ; |1993| 
    3774 0000065b 6807          B         L129,LO               ; |1993| 
    3775                      ; branchcc occurs ; |1993| 
    3776 0000065c       DW$L$_create_name$35$E:
    3777 0000065c       DW$L$_create_name$36$B:
    3778 0000065c 527A          CMPB      AL,#122               ; |1993| 
    3779 0000065d 6605          B         L129,HI               ; |1993| 
    3780                      ; branchcc occurs ; |1993| 
    3781              DW$L$_create_name$36$E:
    3782              DW$L$_create_name$37$B:
    3783                      .dwpsn  "ff.c",1995,6
    3784 0000065e 1A45          OR        *-SP[5],#0x0001       ; |1995| 
         0000065f 0001 
    3785                      .dwpsn  "ff.c",1996,6
    3786 00000660 9A20          MOVB      AL,#32                ; |1996| 
    3787 00000661 7446          SUB       *-SP[6],AL            ; |1996| 
    3788              DW$L$_create_name$37$E:
    3789              L129:    
    3790              DW$L$_create_name$38$B:
    3791                      .dwpsn  "ff.c",1999,4
    3792 00000662 584D          MOVZ      AR0,*-SP[13]          ; |1999| 
    3793 00000663 0A4D          INC       *-SP[13]              ; |1999| 
    3794 00000664 8A4A          MOVL      XAR4,*-SP[10]         ; |1999| 
    3795 00000665 9246          MOV       AL,*-SP[6]            ; |1999| 
    3796 00000666 9694          MOV       *+XAR4[AR0],AL        ; |1999| 
    3797                      .dwpsn  "ff.c",2001,2
    3798 00000667 6F94          B         L113,UNC              ; |2001| 
    3799                      ; branch occurs ; |2001| 
    3800              DW$L$_create_name$38$E:
    3801              L130:    
    3802                      .dwpsn  "ff.c",2002,2
    3803 00000668 884C          MOVZ      AR6,*-SP[12]          ; |2002| 
TMS320C2000 COFF Assembler PC v4.1.3 Thu May 05 10:06:00 2011

Tools Copyright (c) 1996-2006 Texas Instruments Incorporated
C:\DOCUME~1\ADMINI~1\LOCALS~1\Temp\TI1122                            PAGE   73

    3804 00000669 8A44          MOVL      XAR4,*-SP[4]          ; |2002| 
    3805 0000066a 0650          MOVL      ACC,*-SP[16]          ; |2002| 
    3806 0000066b 0DA6          ADDU      ACC,AR6               ; |2002| 
    3807 0000066c 1EC4          MOVL      *+XAR4[0],ACC         ; |2002| 
    3808                      .dwpsn  "ff.c",2003,2
    3809 0000066d 9246          MOV       AL,*-SP[6]            ; |2003| 
    3810 0000066e 5220          CMPB      AL,#32                ; |2003| 
    3811 0000066f 6603          B         L131,HI               ; |2003| 
    3812                      ; branchcc occurs ; |2003| 
    3813 00000670 9A04          MOVB      AL,#4                 ; |2003| 
    3814 00000671 6F02          B         L132,UNC              ; |2003| 
    3815                      ; branch occurs ; |2003| 
    3816 00000672       L131:    
    3817 00000672 9A00          MOVB      AL,#0
    3818 00000673       L132:    
    3819 00000673 9646          MOV       *-SP[6],AL            ; |2003| 
    3820                      .dwpsn  "ff.c",2005,2
    3821 00000674 924D          MOV       AL,*-SP[13]           ; |2005| 
    3822 00000675 ED03          BF        L133,NEQ              ; |2005| 
    3823                      ; branchcc occurs ; |2005| 
    3824                      .dwpsn  "ff.c",2005,12
    3825 00000676 9A06          MOVB      AL,#6                 ; |2005| 
    3826 00000677 6F1F          B         L138,UNC              ; |2005| 
    3827                      ; branch occurs ; |2005| 
    3828              L133:    
    3829                      .dwpsn  "ff.c",2006,2
    3830 00000678 8A4A          MOVL      XAR4,*-SP[10]         ; |2006| 
    3831 00000679 92C4          MOV       AL,*+XAR4[0]          ; |2006| 
    3832 0000067a 52E5          CMPB      AL,#229               ; |2006| 
    3833 0000067b ED04          BF        L134,NEQ              ; |2006| 
    3834                      ; branchcc occurs ; |2006| 
    3835                      .dwpsn  "ff.c",2006,23
    3836 0000067c 8A4A          MOVL      XAR4,*-SP[10]         ; |2006| 
    3837 0000067d 28C4          MOV       *+XAR4[0],#5          ; |2006| 
         0000067e 0005 
    3838              L134:    
    3839                      .dwpsn  "ff.c",2008,2
    3840 0000067f 924B          MOV       AL,*-SP[11]           ; |2008| 
    3841 00000680 5208          CMPB      AL,#8                 ; |2008| 
    3842 00000681 ED04          BF        L135,NEQ              ; |2008| 
    3843                      ; branchcc occurs ; |2008| 
    3844                      .dwpsn  "ff.c",2008,17
    3845 00000682 5603          MOV       ACC,*-SP[5] << #2     ; |2008| 
         00000683 0245 
    3846 00000684 9645          MOV       *-SP[5],AL            ; |2008| 
    3847              L135:    
    3848                      .dwpsn  "ff.c",2009,2
    3849 00000685 9245          MOV       AL,*-SP[5]            ; |2009| 
    3850 00000686 9003          ANDB      AL,#0x03              ; |2009| 
    3851 00000687 5201          CMPB      AL,#1                 ; |2009| 
    3852 00000688 ED03          BF        L136,NEQ              ; |2009| 
    3853                      ; branchcc occurs ; |2009| 
    3854                      .dwpsn  "ff.c",2009,29
    3855 00000689 1A46          OR        *-SP[6],#0x0010       ; |2009| 
         0000068a 0010 
TMS320C2000 COFF Assembler PC v4.1.3 Thu May 05 10:06:00 2011

Tools Copyright (c) 1996-2006 Texas Instruments Incorporated
C:\DOCUME~1\ADMINI~1\LOCALS~1\Temp\TI1122                            PAGE   74

    3856              L136:    
    3857                      .dwpsn  "ff.c",2010,2
    3858 0000068b 9245          MOV       AL,*-SP[5]            ; |2010| 
    3859 0000068c 900C          ANDB      AL,#0x0c              ; |2010| 
    3860 0000068d 5204          CMPB      AL,#4                 ; |2010| 
    3861 0000068e ED03          BF        L137,NEQ              ; |2010| 
    3862                      ; branchcc occurs ; |2010| 
    3863                      .dwpsn  "ff.c",2010,29
    3864 0000068f 1A46          OR        *-SP[6],#0x0008       ; |2010| 
         00000690 0008 
    3865              L137:    
    3866                      .dwpsn  "ff.c",2012,2
    3867 00000691 8A4A          MOVL      XAR4,*-SP[10]         ; |2012| 
    3868 00000692 D00B          MOVB      XAR0,#11              ; |2012| 
    3869 00000693 9246          MOV       AL,*-SP[6]            ; |2012| 
    3870 00000694 9694          MOV       *+XAR4[AR0],AL        ; |2012| 
    3871                      .dwpsn  "ff.c",2014,2
    3872 00000695 9A00          MOVB      AL,#0
    3873              L138:    
    3874                      .dwpsn  "ff.c",2016,1
    3875 00000696 FE90          SUBB      SP,#16                ; |2014| 
    3876                      .dwcfa  0x1d, -2
    3877 00000697 0006          LRETR
    3878                      ; return occurs
    3879              
    3880              DW$233  .dwtag  DW_TAG_loop
    3881                      .dwattr DW$233, DW_AT_name("C:\DOCUME~1\ADMINI~1\LOCALS~1\Temp\TI1122:L113:1:1304561157")
    3882                      .dwattr DW$233, DW_AT_begin_file("ff.c")
    3883                      .dwattr DW$233, DW_AT_begin_line(0x7a0)
    3884                      .dwattr DW$233, DW_AT_end_line(0x7d1)
    3885              DW$234  .dwtag  DW_TAG_loop_range
    3886                      .dwattr DW$234, DW_AT_low_pc(DW$L$_create_name$6$B)
    3887                      .dwattr DW$234, DW_AT_high_pc(DW$L$_create_name$6$E)
    3888              DW$235  .dwtag  DW_TAG_loop_range
    3889                      .dwattr DW$235, DW_AT_low_pc(DW$L$_create_name$30$B)
    3890                      .dwattr DW$235, DW_AT_high_pc(DW$L$_create_name$30$E)
    3891              DW$236  .dwtag  DW_TAG_loop_range
    3892                      .dwattr DW$236, DW_AT_low_pc(DW$L$_create_name$32$B)
    3893                      .dwattr DW$236, DW_AT_high_pc(DW$L$_create_name$32$E)
    3894              DW$237  .dwtag  DW_TAG_loop_range
    3895                      .dwattr DW$237, DW_AT_low_pc(DW$L$_create_name$33$B)
    3896                      .dwattr DW$237, DW_AT_high_pc(DW$L$_create_name$33$E)
    3897              DW$238  .dwtag  DW_TAG_loop_range
    3898                      .dwattr DW$238, DW_AT_low_pc(DW$L$_create_name$34$B)
    3899                      .dwattr DW$238, DW_AT_high_pc(DW$L$_create_name$34$E)
    3900              DW$239  .dwtag  DW_TAG_loop_range
    3901                      .dwattr DW$239, DW_AT_low_pc(DW$L$_create_name$35$B)
    3902                      .dwattr DW$239, DW_AT_high_pc(DW$L$_create_name$35$E)
    3903              DW$240  .dwtag  DW_TAG_loop_range
    3904                      .dwattr DW$240, DW_AT_low_pc(DW$L$_create_name$36$B)
    3905                      .dwattr DW$240, DW_AT_high_pc(DW$L$_create_name$36$E)
    3906              DW$241  .dwtag  DW_TAG_loop_range
    3907                      .dwattr DW$241, DW_AT_low_pc(DW$L$_create_name$37$B)
    3908                      .dwattr DW$241, DW_AT_high_pc(DW$L$_create_name$37$E)
    3909              DW$242  .dwtag  DW_TAG_loop_range
TMS320C2000 COFF Assembler PC v4.1.3 Thu May 05 10:06:00 2011

Tools Copyright (c) 1996-2006 Texas Instruments Incorporated
C:\DOCUME~1\ADMINI~1\LOCALS~1\Temp\TI1122                            PAGE   75

    3910                      .dwattr DW$242, DW_AT_low_pc(DW$L$_create_name$25$B)
    3911                      .dwattr DW$242, DW_AT_high_pc(DW$L$_create_name$25$E)
    3912              DW$243  .dwtag  DW_TAG_loop_range
    3913                      .dwattr DW$243, DW_AT_low_pc(DW$L$_create_name$21$B)
    3914                      .dwattr DW$243, DW_AT_high_pc(DW$L$_create_name$21$E)
    3915              DW$244  .dwtag  DW_TAG_loop_range
    3916                      .dwattr DW$244, DW_AT_low_pc(DW$L$_create_name$17$B)
    3917                      .dwattr DW$244, DW_AT_high_pc(DW$L$_create_name$17$E)
    3918              DW$245  .dwtag  DW_TAG_loop_range
    3919                      .dwattr DW$245, DW_AT_low_pc(DW$L$_create_name$18$B)
    3920                      .dwattr DW$245, DW_AT_high_pc(DW$L$_create_name$18$E)
    3921              DW$246  .dwtag  DW_TAG_loop_range
    3922                      .dwattr DW$246, DW_AT_low_pc(DW$L$_create_name$19$B)
    3923                      .dwattr DW$246, DW_AT_high_pc(DW$L$_create_name$19$E)
    3924              DW$247  .dwtag  DW_TAG_loop_range
    3925                      .dwattr DW$247, DW_AT_low_pc(DW$L$_create_name$20$B)
    3926                      .dwattr DW$247, DW_AT_high_pc(DW$L$_create_name$20$E)
    3927              DW$248  .dwtag  DW_TAG_loop_range
    3928                      .dwattr DW$248, DW_AT_low_pc(DW$L$_create_name$22$B)
    3929                      .dwattr DW$248, DW_AT_high_pc(DW$L$_create_name$22$E)
    3930              DW$249  .dwtag  DW_TAG_loop_range
    3931                      .dwattr DW$249, DW_AT_low_pc(DW$L$_create_name$23$B)
    3932                      .dwattr DW$249, DW_AT_high_pc(DW$L$_create_name$23$E)
    3933              DW$250  .dwtag  DW_TAG_loop_range
    3934                      .dwattr DW$250, DW_AT_low_pc(DW$L$_create_name$24$B)
    3935                      .dwattr DW$250, DW_AT_high_pc(DW$L$_create_name$24$E)
    3936              DW$251  .dwtag  DW_TAG_loop_range
    3937                      .dwattr DW$251, DW_AT_low_pc(DW$L$_create_name$26$B)
    3938                      .dwattr DW$251, DW_AT_high_pc(DW$L$_create_name$26$E)
    3939              DW$252  .dwtag  DW_TAG_loop_range
    3940                      .dwattr DW$252, DW_AT_low_pc(DW$L$_create_name$27$B)
    3941                      .dwattr DW$252, DW_AT_high_pc(DW$L$_create_name$27$E)
    3942              DW$253  .dwtag  DW_TAG_loop_range
    3943                      .dwattr DW$253, DW_AT_low_pc(DW$L$_create_name$7$B)
    3944                      .dwattr DW$253, DW_AT_high_pc(DW$L$_create_name$7$E)
    3945              DW$254  .dwtag  DW_TAG_loop_range
    3946                      .dwattr DW$254, DW_AT_low_pc(DW$L$_create_name$8$B)
    3947                      .dwattr DW$254, DW_AT_high_pc(DW$L$_create_name$8$E)
    3948              DW$255  .dwtag  DW_TAG_loop_range
    3949                      .dwattr DW$255, DW_AT_low_pc(DW$L$_create_name$11$B)
    3950                      .dwattr DW$255, DW_AT_high_pc(DW$L$_create_name$11$E)
    3951              DW$256  .dwtag  DW_TAG_loop_range
    3952                      .dwattr DW$256, DW_AT_low_pc(DW$L$_create_name$12$B)
    3953                      .dwattr DW$256, DW_AT_high_pc(DW$L$_create_name$12$E)
    3954              DW$257  .dwtag  DW_TAG_loop_range
    3955                      .dwattr DW$257, DW_AT_low_pc(DW$L$_create_name$13$B)
    3956                      .dwattr DW$257, DW_AT_high_pc(DW$L$_create_name$13$E)
    3957              DW$258  .dwtag  DW_TAG_loop_range
    3958                      .dwattr DW$258, DW_AT_low_pc(DW$L$_create_name$14$B)
    3959                      .dwattr DW$258, DW_AT_high_pc(DW$L$_create_name$14$E)
    3960              DW$259  .dwtag  DW_TAG_loop_range
    3961                      .dwattr DW$259, DW_AT_low_pc(DW$L$_create_name$38$B)
    3962                      .dwattr DW$259, DW_AT_high_pc(DW$L$_create_name$38$E)
    3963              DW$260  .dwtag  DW_TAG_loop_range
    3964                      .dwattr DW$260, DW_AT_low_pc(DW$L$_create_name$29$B)
TMS320C2000 COFF Assembler PC v4.1.3 Thu May 05 10:06:00 2011

Tools Copyright (c) 1996-2006 Texas Instruments Incorporated
C:\DOCUME~1\ADMINI~1\LOCALS~1\Temp\TI1122                            PAGE   76

    3965                      .dwattr DW$260, DW_AT_high_pc(DW$L$_create_name$29$E)
    3966              DW$261  .dwtag  DW_TAG_loop_range
    3967                      .dwattr DW$261, DW_AT_low_pc(DW$L$_create_name$16$B)
    3968                      .dwattr DW$261, DW_AT_high_pc(DW$L$_create_name$16$E)
    3969                      .dwendtag DW$233
    3970              
    3971              
    3972              DW$262  .dwtag  DW_TAG_loop
    3973                      .dwattr DW$262, DW_AT_name("C:\DOCUME~1\ADMINI~1\LOCALS~1\Temp\TI1122:L112:1:1304561157")
    3974                      .dwattr DW$262, DW_AT_begin_file("ff.c")
    3975                      .dwattr DW$262, DW_AT_begin_line(0x78c)
    3976                      .dwattr DW$262, DW_AT_end_line(0x78c)
    3977              DW$263  .dwtag  DW_TAG_loop_range
    3978                      .dwattr DW$263, DW_AT_low_pc(DW$L$_create_name$3$B)
    3979                      .dwattr DW$263, DW_AT_high_pc(DW$L$_create_name$3$E)
    3980              DW$264  .dwtag  DW_TAG_loop_range
    3981                      .dwattr DW$264, DW_AT_low_pc(DW$L$_create_name$4$B)
    3982                      .dwattr DW$264, DW_AT_high_pc(DW$L$_create_name$4$E)
    3983              DW$265  .dwtag  DW_TAG_loop_range
    3984                      .dwattr DW$265, DW_AT_low_pc(DW$L$_create_name$2$B)
    3985                      .dwattr DW$265, DW_AT_high_pc(DW$L$_create_name$2$E)
    3986                      .dwendtag DW$262
    3987              
    3988                      .dwattr DW$220, DW_AT_end_file("ff.c")
    3989                      .dwattr DW$220, DW_AT_end_line(0x7e0)
    3990                      .dwattr DW$220, DW_AT_end_column(0x01)
    3991                      .dwendentry
    3992                      .dwendtag DW$220
    3993              
    3994 00000698               .sect   ".text"
    3995              
    3996              DW$266  .dwtag  DW_TAG_subprogram, DW_AT_name("get_fileinfo"), DW_AT_symbol_name("_get_fileinfo")
    3997                      .dwattr DW$266, DW_AT_low_pc(_get_fileinfo)
    3998                      .dwattr DW$266, DW_AT_high_pc(0x00)
    3999                      .dwattr DW$266, DW_AT_begin_file("ff.c")
    4000                      .dwattr DW$266, DW_AT_begin_line(0x7ea)
    4001                      .dwattr DW$266, DW_AT_begin_column(0x06)
    4002                      .dwpsn  "ff.c",2030,1
    4003              
    4004                      .dwfde DW$CIE
    4005              
    4006              ;***************************************************************
    4007              ;* FNAME: _get_fileinfo                 FR SIZE:  16           *
    4008              ;*                                                             *
    4009              ;* FUNCTION ENVIRONMENT                                        *
    4010              ;*                                                             *
    4011              ;* FUNCTION PROPERTIES                                         *
    4012              ;*                            0 Parameter, 14 Auto,  2 SOE     *
    4013              ;***************************************************************
    4014              
    4015              _get_fileinfo:
    4016                      .dwcfa  0x1d, -2
    4017                      .dwcfa  0x1c, 26, 0
    4018                      .dwcfa  0x09, 40, 26
    4019 00000698 B2BD          MOVL      *SP++,XAR1
TMS320C2000 COFF Assembler PC v4.1.3 Thu May 05 10:06:00 2011

Tools Copyright (c) 1996-2006 Texas Instruments Incorporated
C:\DOCUME~1\ADMINI~1\LOCALS~1\Temp\TI1122                            PAGE   77

    4020                      .dwcfa  0x80, 7, 2
    4021                      .dwcfa  0x1d, -4
    4022 00000699 FE0E          ADDB      SP,#14
    4023                      .dwcfa  0x1d, -18
    4024              ;* AR4   assigned to _dj
    4025              DW$267  .dwtag  DW_TAG_formal_parameter, DW_AT_name("dj"), DW_AT_symbol_name("_dj")
    4026                      .dwattr DW$267, DW_AT_type(*DW$T$53)
    4027                      .dwattr DW$267, DW_AT_location[DW_OP_reg12]
    4028              ;* AR5   assigned to _fno
    4029              DW$268  .dwtag  DW_TAG_formal_parameter, DW_AT_name("fno"), DW_AT_symbol_name("_fno")
    4030                      .dwattr DW$268, DW_AT_type(*DW$T$55)
    4031                      .dwattr DW$268, DW_AT_location[DW_OP_reg14]
    4032              DW$269  .dwtag  DW_TAG_variable, DW_AT_name("dj"), DW_AT_symbol_name("_dj")
    4033                      .dwattr DW$269, DW_AT_type(*DW$T$53)
    4034                      .dwattr DW$269, DW_AT_location[DW_OP_breg20 -2]
    4035              DW$270  .dwtag  DW_TAG_variable, DW_AT_name("fno"), DW_AT_symbol_name("_fno")
    4036                      .dwattr DW$270, DW_AT_type(*DW$T$55)
    4037                      .dwattr DW$270, DW_AT_location[DW_OP_breg20 -4]
    4038              DW$271  .dwtag  DW_TAG_variable, DW_AT_name("i"), DW_AT_symbol_name("_i")
    4039                      .dwattr DW$271, DW_AT_type(*DW$T$43)
    4040                      .dwattr DW$271, DW_AT_location[DW_OP_breg20 -5]
    4041              DW$272  .dwtag  DW_TAG_variable, DW_AT_name("nt"), DW_AT_symbol_name("_nt")
    4042                      .dwattr DW$272, DW_AT_type(*DW$T$23)
    4043                      .dwattr DW$272, DW_AT_location[DW_OP_breg20 -6]
    4044              DW$273  .dwtag  DW_TAG_variable, DW_AT_name("dir"), DW_AT_symbol_name("_dir")
    4045                      .dwattr DW$273, DW_AT_type(*DW$T$32)
    4046                      .dwattr DW$273, DW_AT_location[DW_OP_breg20 -8]
    4047              DW$274  .dwtag  DW_TAG_variable, DW_AT_name("p"), DW_AT_symbol_name("_p")
    4048                      .dwattr DW$274, DW_AT_type(*DW$T$117)
    4049                      .dwattr DW$274, DW_AT_location[DW_OP_breg20 -10]
    4050              DW$275  .dwtag  DW_TAG_variable, DW_AT_name("c"), DW_AT_symbol_name("_c")
    4051                      .dwattr DW$275, DW_AT_type(*DW$T$35)
    4052                      .dwattr DW$275, DW_AT_location[DW_OP_breg20 -11]
    4053 0000069a A044          MOVL      *-SP[4],XAR5          ; |2030| 
    4054 0000069b A842          MOVL      *-SP[2],XAR4          ; |2030| 
    4055                      .dwpsn  "ff.c",2036,2
    4056 0000069c 0644          MOVL      ACC,*-SP[4]           ; |2036| 
    4057 0000069d 0905          ADDB      ACC,#5                ; |2036| 
    4058 0000069e 1E4A          MOVL      *-SP[10],ACC          ; |2036| 
    4059                      .dwpsn  "ff.c",2037,2
    4060 0000069f 8A42          MOVL      XAR4,*-SP[2]          ; |2037| 
    4061 000006a0 D008          MOVB      XAR0,#8               ; |2037| 
    4062 000006a1 0694          MOVL      ACC,*+XAR4[AR0]       ; |2037| 
    4063 000006a2 EC7B          BF        L145,EQ               ; |2037| 
    4064                      ; branchcc occurs ; |2037| 
    4065                      .dwpsn  "ff.c",2039,3
    4066 000006a3 8A42          MOVL      XAR4,*-SP[2]          ; |2039| 
    4067 000006a4 D00A          MOVB      XAR0,#10              ; |2039| 
    4068 000006a5 0694          MOVL      ACC,*+XAR4[AR0]       ; |2039| 
    4069 000006a6 1E48          MOVL      *-SP[8],ACC           ; |2039| 
    4070                      .dwpsn  "ff.c",2040,3
    4071 000006a7 8A48          MOVL      XAR4,*-SP[8]          ; |2040| 
    4072 000006a8 D00C          MOVB      XAR0,#12              ; |2040| 
    4073 000006a9 9294          MOV       AL,*+XAR4[AR0]        ; |2040| 
    4074 000006aa 9646          MOV       *-SP[6],AL            ; |2040| 
TMS320C2000 COFF Assembler PC v4.1.3 Thu May 05 10:06:00 2011

Tools Copyright (c) 1996-2006 Texas Instruments Incorporated
C:\DOCUME~1\ADMINI~1\LOCALS~1\Temp\TI1122                            PAGE   78

    4075                      .dwpsn  "ff.c",2041,9
    4076 000006ab 2B45          MOV       *-SP[5],#0            ; |2041| 
    4077                      .dwpsn  "ff.c",2041,16
    4078 000006ac 9245          MOV       AL,*-SP[5]            ; |2041| 
    4079 000006ad 5208          CMPB      AL,#8                 ; |2041| 
    4080 000006ae 6716          B         L141,HIS              ; |2041| 
    4081                      ; branchcc occurs ; |2041| 
    4082              L139:    
    4083              DW$L$_get_fileinfo$3$B:
    4084                      .dwpsn  "ff.c",2043,4
    4085 000006af 5845          MOVZ      AR0,*-SP[5]           ; |2043| 
    4086 000006b0 8A48          MOVL      XAR4,*-SP[8]          ; |2043| 
    4087 000006b1 9294          MOV       AL,*+XAR4[AR0]        ; |2043| 
    4088 000006b2 964B          MOV       *-SP[11],AL           ; |2043| 
    4089                      .dwpsn  "ff.c",2044,4
    4090 000006b3 5220          CMPB      AL,#32                ; |2044| 
    4091 000006b4 EC10          BF        L141,EQ               ; |2044| 
    4092                      ; branchcc occurs ; |2044| 
    4093              DW$L$_get_fileinfo$3$E:
    4094              DW$L$_get_fileinfo$4$B:
    4095                      .dwpsn  "ff.c",2044,20
    4096                      .dwpsn  "ff.c",2045,4
    4097 000006b5 5205          CMPB      AL,#5                 ; |2045| 
    4098 000006b6 ED04          BF        L140,NEQ              ; |2045| 
    4099                      ; branchcc occurs ; |2045| 
    4100              DW$L$_get_fileinfo$4$E:
    4101              DW$L$_get_fileinfo$5$B:
    4102                      .dwpsn  "ff.c",2045,21
    4103 000006b7 284B          MOV       *-SP[11],#229         ; |2045| 
         000006b8 00E5 
    4104                      .dwpsn  "ff.c",2046,4
    4105 000006b9 6F01          B         L140,UNC              ; |2046| 
    4106                      ; branch occurs ; |2046| 
    4107              DW$L$_get_fileinfo$5$E:
    4108              L140:    
    4109              DW$L$_get_fileinfo$7$B:
    4110                      .dwpsn  "ff.c",2053,4
    4111 000006ba 8A4A          MOVL      XAR4,*-SP[10]         ; |2053| 
    4112 000006bb 0201          MOVB      ACC,#1
    4113 000006bc 07A4          ADDL      ACC,XAR4
    4114 000006bd 1E4A          MOVL      *-SP[10],ACC          ; |2053| 
    4115 000006be 924B          MOV       AL,*-SP[11]           ; |2053| 
    4116 000006bf 96C4          MOV       *+XAR4[0],AL          ; |2053| 
    4117                      .dwpsn  "ff.c",2041,23
    4118 000006c0 0A45          INC       *-SP[5]               ; |2041| 
    4119                      .dwpsn  "ff.c",2041,16
    4120 000006c1 9245          MOV       AL,*-SP[5]            ; |2041| 
    4121 000006c2 5208          CMPB      AL,#8                 ; |2041| 
    4122 000006c3 68EC          B         L139,LO               ; |2041| 
    4123                      ; branchcc occurs ; |2041| 
    4124              DW$L$_get_fileinfo$7$E:
    4125              L141:    
    4126                      .dwpsn  "ff.c",2055,3
    4127 000006c4 8A48          MOVL      XAR4,*-SP[8]          ; |2055| 
    4128 000006c5 D008          MOVB      XAR0,#8               ; |2055| 
TMS320C2000 COFF Assembler PC v4.1.3 Thu May 05 10:06:00 2011

Tools Copyright (c) 1996-2006 Texas Instruments Incorporated
C:\DOCUME~1\ADMINI~1\LOCALS~1\Temp\TI1122                            PAGE   79

    4129 000006c6 9294          MOV       AL,*+XAR4[AR0]        ; |2055| 
    4130 000006c7 5220          CMPB      AL,#32                ; |2055| 
    4131 000006c8 EC1C          BF        L144,EQ               ; |2055| 
    4132                      ; branchcc occurs ; |2055| 
    4133                      .dwpsn  "ff.c",2057,4
    4134 000006c9 8A4A          MOVL      XAR4,*-SP[10]         ; |2057| 
    4135 000006ca 0201          MOVB      ACC,#1
    4136 000006cb 07A4          ADDL      ACC,XAR4
    4137 000006cc 1E4A          MOVL      *-SP[10],ACC          ; |2057| 
    4138 000006cd 28C4          MOV       *+XAR4[0],#46         ; |2057| 
         000006ce 002E 
    4139                      .dwpsn  "ff.c",2058,10
    4140 000006cf 9A08          MOVB      AL,#8                 ; |2058| 
    4141 000006d0 9645          MOV       *-SP[5],AL            ; |2058| 
    4142                      .dwpsn  "ff.c",2058,17
    4143 000006d1 520B          CMPB      AL,#11                ; |2058| 
    4144 000006d2 6712          B         L144,HIS              ; |2058| 
    4145                      ; branchcc occurs ; |2058| 
    4146              L142:    
    4147              DW$L$_get_fileinfo$10$B:
    4148                      .dwpsn  "ff.c",2060,5
    4149 000006d3 5845          MOVZ      AR0,*-SP[5]           ; |2060| 
    4150 000006d4 8A48          MOVL      XAR4,*-SP[8]          ; |2060| 
    4151 000006d5 9294          MOV       AL,*+XAR4[AR0]        ; |2060| 
    4152 000006d6 964B          MOV       *-SP[11],AL           ; |2060| 
    4153                      .dwpsn  "ff.c",2061,5
    4154 000006d7 5220          CMPB      AL,#32                ; |2061| 
    4155 000006d8 EC0C          BF        L144,EQ               ; |2061| 
    4156                      ; branchcc occurs ; |2061| 
    4157              DW$L$_get_fileinfo$10$E:
    4158              DW$L$_get_fileinfo$11$B:
    4159                      .dwpsn  "ff.c",2061,21
    4160                      .dwpsn  "ff.c",2062,5
    4161 000006d9 6F01          B         L143,UNC              ; |2062| 
    4162                      ; branch occurs ; |2062| 
    4163              DW$L$_get_fileinfo$11$E:
    4164              L143:    
    4165              DW$L$_get_fileinfo$13$B:
    4166                      .dwpsn  "ff.c",2069,5
    4167 000006da 8A4A          MOVL      XAR4,*-SP[10]         ; |2069| 
    4168 000006db 0201          MOVB      ACC,#1
    4169 000006dc 07A4          ADDL      ACC,XAR4
    4170 000006dd 1E4A          MOVL      *-SP[10],ACC          ; |2069| 
    4171 000006de 924B          MOV       AL,*-SP[11]           ; |2069| 
    4172 000006df 96C4          MOV       *+XAR4[0],AL          ; |2069| 
    4173                      .dwpsn  "ff.c",2058,25
    4174 000006e0 0A45          INC       *-SP[5]               ; |2058| 
    4175                      .dwpsn  "ff.c",2058,17
    4176 000006e1 9245          MOV       AL,*-SP[5]            ; |2058| 
    4177 000006e2 520B          CMPB      AL,#11                ; |2058| 
    4178 000006e3 68F0          B         L142,LO               ; |2058| 
    4179                      ; branchcc occurs ; |2058| 
    4180              DW$L$_get_fileinfo$13$E:
    4181              L144:    
    4182                      .dwpsn  "ff.c",2072,3
TMS320C2000 COFF Assembler PC v4.1.3 Thu May 05 10:06:00 2011

Tools Copyright (c) 1996-2006 Texas Instruments Incorporated
C:\DOCUME~1\ADMINI~1\LOCALS~1\Temp\TI1122                            PAGE   80

    4183 000006e4 8A48          MOVL      XAR4,*-SP[8]          ; |2072| 
    4184 000006e5 D00B          MOVB      XAR0,#11              ; |2072| 
    4185 000006e6 9294          MOV       AL,*+XAR4[AR0]        ; |2072| 
    4186 000006e7 8A44          MOVL      XAR4,*-SP[4]          ; |2072| 
    4187 000006e8 96E4          MOV       *+XAR4[4],AL          ; |2072| 
    4188                      .dwpsn  "ff.c",2073,3
    4189 000006e9 8A48          MOVL      XAR4,*-SP[8]          ; |2073| 
    4190 000006ea 2901          CLRC      SXM
    4191 000006eb D01E          MOVB      XAR0,#30              ; |2073| 
    4192 000006ec 2594          MOV       ACC,*+XAR4[AR0] << 16 ; |2073| 
    4193 000006ed 8A48          MOVL      XAR4,*-SP[8]          ; |2073| 
    4194 000006ee D01F          MOVB      XAR0,#31              ; |2073| 
    4195 000006ef FF5A          MOVL      P,ACC                 ; |2073| 
    4196 000006f0 28AC          MOV       T,#24                 ; |2073| 
         000006f1 0018 
    4197 000006f2 0E94          MOVU      ACC,*+XAR4[AR0]
    4198 000006f3 1E4E          MOVL      *-SP[14],ACC          ; |2073| 
    4199 000006f4 563B          LSLL      ACC,T                 ; |2073| 
    4200 000006f5 1E4E          MOVL      *-SP[14],ACC          ; |2073| 
    4201 000006f6 924E          MOV       AL,*-SP[14]           ; |2073| 
    4202 000006f7 CAAB          OR        AL,PL                 ; |2073| 
    4203 000006f8 964E          MOV       *-SP[14],AL           ; |2073| 
    4204 000006f9 27AA          MOV       PL,PH                 ; |2073| 
    4205 000006fa 924D          MOV       AL,*-SP[13]           ; |2073| 
    4206 000006fb 8A48          MOVL      XAR4,*-SP[8]          ; |2073| 
    4207 000006fc CAAB          OR        AL,PL                 ; |2073| 
    4208 000006fd D01D          MOVB      XAR0,#29              ; |2073| 
    4209 000006fe 964D          MOV       *-SP[13],AL           ; |2073| 
    4210 000006ff 5603          MOV       ACC,*+XAR4[AR0] << #8 ; |2073| 
         00000700 0894 
    4211 00000701 88A9          MOVZ      AR6,AL                ; |2073| 
    4212 00000702 064E          MOVL      ACC,*-SP[14]          ; |2073| 
    4213 00000703 8A48          MOVL      XAR4,*-SP[8]          ; |2073| 
    4214 00000704 AFA6          OR        ACC,AR6               ; |2073| 
    4215 00000705 D01C          MOVB      XAR0,#28              ; |2073| 
    4216 00000706 1E4E          MOVL      *-SP[14],ACC          ; |2073| 
    4217 00000707 AF94          OR        ACC,*+XAR4[AR0]       ; |2073| 
    4218 00000708 8A44          MOVL      XAR4,*-SP[4]          ; |2073| 
    4219 00000709 1E4E          MOVL      *-SP[14],ACC          ; |2073| 
    4220 0000070a 1EC4          MOVL      *+XAR4[0],ACC         ; |2073| 
    4221                      .dwpsn  "ff.c",2074,3
    4222 0000070b 8348          MOVL      XAR5,*-SP[8]          ; |2074| 
    4223 0000070c 8A48          MOVL      XAR4,*-SP[8]          ; |2074| 
    4224 0000070d D119          MOVB      XAR1,#25              ; |2074| 
    4225 0000070e D018          MOVB      XAR0,#24              ; |2074| 
    4226 0000070f 5603          MOV       ACC,*+XAR5[AR1] << #8 ; |2074| 
         00000710 089D 
    4227 00000711 CA94          OR        AL,*+XAR4[AR0]        ; |2074| 
    4228 00000712 8A44          MOVL      XAR4,*-SP[4]          ; |2074| 
    4229 00000713 96D4          MOV       *+XAR4[2],AL          ; |2074| 
    4230                      .dwpsn  "ff.c",2075,3
    4231 00000714 8348          MOVL      XAR5,*-SP[8]          ; |2075| 
    4232 00000715 8A48          MOVL      XAR4,*-SP[8]          ; |2075| 
    4233 00000716 D117          MOVB      XAR1,#23              ; |2075| 
    4234 00000717 D016          MOVB      XAR0,#22              ; |2075| 
TMS320C2000 COFF Assembler PC v4.1.3 Thu May 05 10:06:00 2011

Tools Copyright (c) 1996-2006 Texas Instruments Incorporated
C:\DOCUME~1\ADMINI~1\LOCALS~1\Temp\TI1122                            PAGE   81

    4235 00000718 5603          MOV       ACC,*+XAR5[AR1] << #8 ; |2075| 
         00000719 089D 
    4236 0000071a CA94          OR        AL,*+XAR4[AR0]        ; |2075| 
    4237 0000071b 8A44          MOVL      XAR4,*-SP[4]          ; |2075| 
    4238 0000071c 96DC          MOV       *+XAR4[3],AL          ; |2075| 
    4239              L145:    
    4240                      .dwpsn  "ff.c",2077,2
    4241 0000071d 8A4A          MOVL      XAR4,*-SP[10]         ; |2077| 
    4242 0000071e 2BC4          MOV       *+XAR4[0],#0          ; |2077| 
    4243                      .dwpsn  "ff.c",2112,1
    4244 0000071f FE8E          SUBB      SP,#14
    4245                      .dwcfa  0x1d, -4
    4246 00000720 8BBE          MOVL      XAR1,*--SP
    4247                      .dwcfa  0x1d, -2
    4248                      .dwcfa  0xc0, 7
    4249 00000721 0006          LRETR
    4250                      ; return occurs
    4251              
    4252              DW$276  .dwtag  DW_TAG_loop
    4253                      .dwattr DW$276, DW_AT_name("C:\DOCUME~1\ADMINI~1\LOCALS~1\Temp\TI1122:L142:1:1304561157")
    4254                      .dwattr DW$276, DW_AT_begin_file("ff.c")
    4255                      .dwattr DW$276, DW_AT_begin_line(0x80a)
    4256                      .dwattr DW$276, DW_AT_end_line(0x816)
    4257              DW$277  .dwtag  DW_TAG_loop_range
    4258                      .dwattr DW$277, DW_AT_low_pc(DW$L$_get_fileinfo$10$B)
    4259                      .dwattr DW$277, DW_AT_high_pc(DW$L$_get_fileinfo$10$E)
    4260              DW$278  .dwtag  DW_TAG_loop_range
    4261                      .dwattr DW$278, DW_AT_low_pc(DW$L$_get_fileinfo$11$B)
    4262                      .dwattr DW$278, DW_AT_high_pc(DW$L$_get_fileinfo$11$E)
    4263              DW$279  .dwtag  DW_TAG_loop_range
    4264                      .dwattr DW$279, DW_AT_low_pc(DW$L$_get_fileinfo$13$B)
    4265                      .dwattr DW$279, DW_AT_high_pc(DW$L$_get_fileinfo$13$E)
    4266                      .dwendtag DW$276
    4267              
    4268              
    4269              DW$280  .dwtag  DW_TAG_loop
    4270                      .dwattr DW$280, DW_AT_name("C:\DOCUME~1\ADMINI~1\LOCALS~1\Temp\TI1122:L139:1:1304561157")
    4271                      .dwattr DW$280, DW_AT_begin_file("ff.c")
    4272                      .dwattr DW$280, DW_AT_begin_line(0x7f9)
    4273                      .dwattr DW$280, DW_AT_end_line(0x806)
    4274              DW$281  .dwtag  DW_TAG_loop_range
    4275                      .dwattr DW$281, DW_AT_low_pc(DW$L$_get_fileinfo$3$B)
    4276                      .dwattr DW$281, DW_AT_high_pc(DW$L$_get_fileinfo$3$E)
    4277              DW$282  .dwtag  DW_TAG_loop_range
    4278                      .dwattr DW$282, DW_AT_low_pc(DW$L$_get_fileinfo$4$B)
    4279                      .dwattr DW$282, DW_AT_high_pc(DW$L$_get_fileinfo$4$E)
    4280              DW$283  .dwtag  DW_TAG_loop_range
    4281                      .dwattr DW$283, DW_AT_low_pc(DW$L$_get_fileinfo$5$B)
    4282                      .dwattr DW$283, DW_AT_high_pc(DW$L$_get_fileinfo$5$E)
    4283              DW$284  .dwtag  DW_TAG_loop_range
    4284                      .dwattr DW$284, DW_AT_low_pc(DW$L$_get_fileinfo$7$B)
    4285                      .dwattr DW$284, DW_AT_high_pc(DW$L$_get_fileinfo$7$E)
    4286                      .dwendtag DW$280
    4287              
    4288                      .dwattr DW$266, DW_AT_end_file("ff.c")
TMS320C2000 COFF Assembler PC v4.1.3 Thu May 05 10:06:00 2011

Tools Copyright (c) 1996-2006 Texas Instruments Incorporated
C:\DOCUME~1\ADMINI~1\LOCALS~1\Temp\TI1122                            PAGE   82

    4289                      .dwattr DW$266, DW_AT_end_line(0x840)
    4290                      .dwattr DW$266, DW_AT_end_column(0x01)
    4291                      .dwendentry
    4292                      .dwendtag DW$266
    4293              
    4294 00000722               .sect   ".text"
    4295              
    4296              DW$285  .dwtag  DW_TAG_subprogram, DW_AT_name("follow_path"), DW_AT_symbol_name("_follow_path")
    4297                      .dwattr DW$285, DW_AT_low_pc(_follow_path)
    4298                      .dwattr DW$285, DW_AT_high_pc(0x00)
    4299                      .dwattr DW$285, DW_AT_begin_file("ff.c")
    4300                      .dwattr DW$285, DW_AT_begin_line(0x84b)
    4301                      .dwattr DW$285, DW_AT_begin_column(0x09)
    4302                      .dwpsn  "ff.c",2127,1
    4303              
    4304                      .dwfde DW$CIE
    4305              
    4306              ;***************************************************************
    4307              ;* FNAME: _follow_path                  FR SIZE:  12           *
    4308              ;*                                                             *
    4309              ;* FUNCTION ENVIRONMENT                                        *
    4310              ;*                                                             *
    4311              ;* FUNCTION PROPERTIES                                         *
    4312              ;*                            0 Parameter,  9 Auto,  2 SOE     *
    4313              ;***************************************************************
    4314              
    4315              _follow_path:
    4316                      .dwcfa  0x1d, -2
    4317                      .dwcfa  0x1c, 26, 0
    4318                      .dwcfa  0x09, 40, 26
    4319 00000722 B2BD          MOVL      *SP++,XAR1
    4320                      .dwcfa  0x80, 7, 2
    4321                      .dwcfa  0x1d, -4
    4322 00000723 FE0A          ADDB      SP,#10
    4323                      .dwcfa  0x1d, -14
    4324              ;* AR4   assigned to _dj
    4325              DW$286  .dwtag  DW_TAG_formal_parameter, DW_AT_name("dj"), DW_AT_symbol_name("_dj")
    4326                      .dwattr DW$286, DW_AT_type(*DW$T$53)
    4327                      .dwattr DW$286, DW_AT_location[DW_OP_reg12]
    4328              ;* AR5   assigned to _path
    4329              DW$287  .dwtag  DW_TAG_formal_parameter, DW_AT_name("path"), DW_AT_symbol_name("_path")
    4330                      .dwattr DW$287, DW_AT_type(*DW$T$93)
    4331                      .dwattr DW$287, DW_AT_location[DW_OP_reg14]
    4332              DW$288  .dwtag  DW_TAG_variable, DW_AT_name("dj"), DW_AT_symbol_name("_dj")
    4333                      .dwattr DW$288, DW_AT_type(*DW$T$53)
    4334                      .dwattr DW$288, DW_AT_location[DW_OP_breg20 -2]
    4335              DW$289  .dwtag  DW_TAG_variable, DW_AT_name("path"), DW_AT_symbol_name("_path")
    4336                      .dwattr DW$289, DW_AT_type(*DW$T$93)
    4337                      .dwattr DW$289, DW_AT_location[DW_OP_breg20 -4]
    4338              DW$290  .dwtag  DW_TAG_variable, DW_AT_name("res"), DW_AT_symbol_name("_res")
    4339                      .dwattr DW$290, DW_AT_type(*DW$T$49)
    4340                      .dwattr DW$290, DW_AT_location[DW_OP_breg20 -5]
    4341              DW$291  .dwtag  DW_TAG_variable, DW_AT_name("dir"), DW_AT_symbol_name("_dir")
    4342                      .dwattr DW$291, DW_AT_type(*DW$T$32)
    4343                      .dwattr DW$291, DW_AT_location[DW_OP_breg20 -8]
TMS320C2000 COFF Assembler PC v4.1.3 Thu May 05 10:06:00 2011

Tools Copyright (c) 1996-2006 Texas Instruments Incorporated
C:\DOCUME~1\ADMINI~1\LOCALS~1\Temp\TI1122                            PAGE   83

    4344              DW$292  .dwtag  DW_TAG_variable, DW_AT_name("ns"), DW_AT_symbol_name("_ns")
    4345                      .dwattr DW$292, DW_AT_type(*DW$T$23)
    4346                      .dwattr DW$292, DW_AT_location[DW_OP_breg20 -9]
    4347 00000724 A044          MOVL      *-SP[4],XAR5          ; |2127| 
    4348 00000725 A842          MOVL      *-SP[2],XAR4          ; |2127| 
    4349                      .dwpsn  "ff.c",2143,2
    4350 00000726 8A44          MOVL      XAR4,*-SP[4]          ; |2143| 
    4351 00000727 92C4          MOV       AL,*+XAR4[0]          ; |2143| 
    4352 00000728 522F          CMPB      AL,#47                ; |2143| 
    4353 00000729 EC05          BF        L146,EQ               ; |2143| 
    4354                      ; branchcc occurs ; |2143| 
    4355 0000072a 8A44          MOVL      XAR4,*-SP[4]          ; |2143| 
    4356 0000072b 92C4          MOV       AL,*+XAR4[0]          ; |2143| 
    4357 0000072c 525C          CMPB      AL,#92                ; |2143| 
    4358 0000072d ED04          BF        L147,NEQ              ; |2143| 
    4359                      ; branchcc occurs ; |2143| 
    4360              L146:    
    4361                      .dwpsn  "ff.c",2144,3
    4362 0000072e 0201          MOVB      ACC,#1
    4363 0000072f 5601          ADDL      *-SP[4],ACC           ; |2144| 
         00000730 0044 
    4364              L147:    
    4365                      .dwpsn  "ff.c",2145,2
    4366 00000731 8A42          MOVL      XAR4,*-SP[2]          ; |2145| 
    4367 00000732 0200          MOVB      ACC,#0
    4368 00000733 1EE4          MOVL      *+XAR4[4],ACC         ; |2145| 
    4369                      .dwpsn  "ff.c",2148,2
    4370 00000734 8A44          MOVL      XAR4,*-SP[4]          ; |2148| 
    4371 00000735 92C4          MOV       AL,*+XAR4[0]          ; |2148| 
    4372 00000736 5220          CMPB      AL,#32                ; |2148| 
    4373 00000737 670B          B         L148,HIS              ; |2148| 
    4374                      ; branchcc occurs ; |2148| 
    4375                      .dwpsn  "ff.c",2150,3
    4376 00000738 8A42          MOVL      XAR4,*-SP[2]          ; |2150| 
    4377 00000739 9A00          MOVB      AL,#0
    4378 0000073a 7640'         LCR       #_dir_sdi             ; |2150| 
         0000073b 03DB 
    4379                      ; call occurs [#_dir_sdi] ; |2150| 
    4380 0000073c 9645          MOV       *-SP[5],AL            ; |2150| 
    4381                      .dwpsn  "ff.c",2151,3
    4382 0000073d 8A42          MOVL      XAR4,*-SP[2]          ; |2151| 
    4383 0000073e 0200          MOVB      ACC,#0
    4384 0000073f D00A          MOVB      XAR0,#10              ; |2151| 
    4385 00000740 1E94          MOVL      *+XAR4[AR0],ACC       ; |2151| 
    4386                      .dwpsn  "ff.c",2153,2
    4387 00000741 6F3F          B         L152,UNC              ; |2153| 
    4388                      ; branch occurs ; |2153| 
    4389              L148:    
    4390              DW$L$_follow_path$6$B:
    4391                      .dwpsn  "ff.c",2158,4
    4392 00000742 5DAD          MOVZ      AR5,SP                ; |2158| 
    4393 00000743 8A42          MOVL      XAR4,*-SP[2]          ; |2158| 
    4394 00000744 DD84          SUBB      XAR5,#4               ; |2158| 
    4395 00000745 7640'         LCR       #_create_name         ; |2158| 
         00000746 05DA 
TMS320C2000 COFF Assembler PC v4.1.3 Thu May 05 10:06:00 2011

Tools Copyright (c) 1996-2006 Texas Instruments Incorporated
C:\DOCUME~1\ADMINI~1\LOCALS~1\Temp\TI1122                            PAGE   84

    4396                      ; call occurs [#_create_name] ; |2158| 
    4397 00000747 9645          MOV       *-SP[5],AL            ; |2158| 
    4398                      .dwpsn  "ff.c",2159,4
    4399 00000748 5200          CMPB      AL,#0                 ; |2159| 
    4400 00000749 ED37          BF        L152,NEQ              ; |2159| 
    4401                      ; branchcc occurs ; |2159| 
    4402              DW$L$_follow_path$6$E:
    4403              DW$L$_follow_path$7$B:
    4404                      .dwpsn  "ff.c",2159,24
    4405                      .dwpsn  "ff.c",2160,4
    4406 0000074a 8A42          MOVL      XAR4,*-SP[2]          ; |2160| 
    4407 0000074b 7640'         LCR       #_dir_find            ; |2160| 
         0000074c 0509 
    4408                      ; call occurs [#_dir_find] ; |2160| 
    4409 0000074d 9645          MOV       *-SP[5],AL            ; |2160| 
    4410                      .dwpsn  "ff.c",2161,4
    4411 0000074e 8A42          MOVL      XAR4,*-SP[2]          ; |2161| 
    4412 0000074f D00C          MOVB      XAR0,#12              ; |2161| 
    4413 00000750 8A94          MOVL      XAR4,*+XAR4[AR0]      ; |2161| 
    4414 00000751 D00B          MOVB      XAR0,#11              ; |2161| 
    4415 00000752 9294          MOV       AL,*+XAR4[AR0]        ; |2161| 
    4416 00000753 9649          MOV       *-SP[9],AL            ; |2161| 
    4417                      .dwpsn  "ff.c",2162,4
    4418 00000754 9245          MOV       AL,*-SP[5]            ; |2162| 
    4419 00000755 EC09          BF        L150,EQ               ; |2162| 
    4420                      ; branchcc occurs ; |2162| 
    4421              DW$L$_follow_path$7$E:
    4422                      .dwpsn  "ff.c",2164,5
    4423 00000756 5204          CMPB      AL,#4                 ; |2164| 
    4424 00000757 ED29          BF        L152,NEQ              ; |2164| 
    4425                      ; branchcc occurs ; |2164| 
    4426                      .dwpsn  "ff.c",2164,30
    4427                      .dwpsn  "ff.c",2166,5
    4428 00000758 6F01          B         L149,UNC              ; |2166| 
    4429                      ; branch occurs ; |2166| 
    4430              L149:    
    4431                      .dwpsn  "ff.c",2175,6
    4432 00000759 4249          TBIT      *-SP[9],#2            ; |2175| 
    4433 0000075a EE26          BF        L152,TC               ; |2175| 
    4434                      ; branchcc occurs ; |2175| 
    4435                      .dwpsn  "ff.c",2175,31
    4436 0000075b 2845          MOV       *-SP[5],#5            ; |2175| 
         0000075c 0005 
    4437                      .dwpsn  "ff.c",2177,5
    4438 0000075d 6F23          B         L152,UNC              ; |2177| 
    4439                      ; branch occurs ; |2177| 
    4440              L150:    
    4441              DW$L$_follow_path$13$B:
    4442                      .dwpsn  "ff.c",2179,4
    4443 0000075e 4249          TBIT      *-SP[9],#2            ; |2179| 
    4444 0000075f EE21          BF        L152,TC               ; |2179| 
    4445                      ; branchcc occurs ; |2179| 
    4446              DW$L$_follow_path$13$E:
    4447              DW$L$_follow_path$14$B:
    4448                      .dwpsn  "ff.c",2179,24
TMS320C2000 COFF Assembler PC v4.1.3 Thu May 05 10:06:00 2011

Tools Copyright (c) 1996-2006 Texas Instruments Incorporated
C:\DOCUME~1\ADMINI~1\LOCALS~1\Temp\TI1122                            PAGE   85

    4449                      .dwpsn  "ff.c",2180,4
    4450 00000760 8A42          MOVL      XAR4,*-SP[2]          ; |2180| 
    4451 00000761 D00A          MOVB      XAR0,#10              ; |2180| 
    4452 00000762 0694          MOVL      ACC,*+XAR4[AR0]       ; |2180| 
    4453 00000763 1E48          MOVL      *-SP[8],ACC           ; |2180| 
    4454                      .dwpsn  "ff.c",2181,4
    4455 00000764 8A48          MOVL      XAR4,*-SP[8]          ; |2181| 
    4456 00000765 D00B          MOVB      XAR0,#11              ; |2181| 
    4457 00000766 4494          TBIT      *+XAR4[AR0],#4        ; |2181| 
    4458 00000767 EE04          BF        L151,TC               ; |2181| 
    4459                      ; branchcc occurs ; |2181| 
    4460              DW$L$_follow_path$14$E:
    4461                      .dwpsn  "ff.c",2183,5
    4462 00000768 2845          MOV       *-SP[5],#5            ; |2183| 
         00000769 0005 
    4463                      .dwpsn  "ff.c",2184,5
    4464 0000076a 6F16          B         L152,UNC              ; |2184| 
    4465                      ; branch occurs ; |2184| 
    4466              L151:    
    4467              DW$L$_follow_path$16$B:
    4468                      .dwpsn  "ff.c",2186,4
    4469 0000076b 8348          MOVL      XAR5,*-SP[8]          ; |2186| 
    4470 0000076c 8A48          MOVL      XAR4,*-SP[8]          ; |2186| 
    4471 0000076d D11B          MOVB      XAR1,#27              ; |2186| 
    4472 0000076e D01A          MOVB      XAR0,#26              ; |2186| 
    4473 0000076f 5603          MOV       ACC,*+XAR5[AR1] << #8 ; |2186| 
         00000770 089D 
    4474 00000771 CA94          OR        AL,*+XAR4[AR0]        ; |2186| 
    4475 00000772 D115          MOVB      XAR1,#21              ; |2186| 
    4476 00000773 8348          MOVL      XAR5,*-SP[8]          ; |2186| 
    4477 00000774 8A48          MOVL      XAR4,*-SP[8]          ; |2186| 
    4478 00000775 88A9          MOVZ      AR6,AL                ; |2186| 
    4479 00000776 D014          MOVB      XAR0,#20              ; |2186| 
    4480 00000777 5603          MOV       ACC,*+XAR5[AR1] << #8 ; |2186| 
         00000778 089D 
    4481 00000779 CA94          OR        AL,*+XAR4[AR0]        ; |2186| 
    4482 0000077a 8A42          MOVL      XAR4,*-SP[2]          ; |2186| 
    4483 0000077b 2901          CLRC      SXM
    4484 0000077c 25A9          MOV       ACC,AL << 16          ; |2186| 
    4485 0000077d AFA6          OR        ACC,AR6               ; |2186| 
    4486 0000077e 1EE4          MOVL      *+XAR4[4],ACC         ; |2186| 
    4487                      .dwpsn  "ff.c",2187,3
    4488 0000077f 6FC3          B         L148,UNC              ; |2187| 
    4489                      ; branch occurs ; |2187| 
    4490              DW$L$_follow_path$16$E:
    4491              L152:    
    4492                      .dwpsn  "ff.c",2190,2
    4493 00000780 9245          MOV       AL,*-SP[5]            ; |2190| 
    4494                      .dwpsn  "ff.c",2191,1
    4495 00000781 FE8A          SUBB      SP,#10                ; |2190| 
    4496                      .dwcfa  0x1d, -4
    4497 00000782 8BBE          MOVL      XAR1,*--SP            ; |2190| 
    4498                      .dwcfa  0x1d, -2
    4499                      .dwcfa  0xc0, 7
    4500 00000783 0006          LRETR
TMS320C2000 COFF Assembler PC v4.1.3 Thu May 05 10:06:00 2011

Tools Copyright (c) 1996-2006 Texas Instruments Incorporated
C:\DOCUME~1\ADMINI~1\LOCALS~1\Temp\TI1122                            PAGE   86

    4501                      ; return occurs
    4502              
    4503              DW$293  .dwtag  DW_TAG_loop
    4504                      .dwattr DW$293, DW_AT_name("C:\DOCUME~1\ADMINI~1\LOCALS~1\Temp\TI1122:L148:1:1304561157")
    4505                      .dwattr DW$293, DW_AT_begin_file("ff.c")
    4506                      .dwattr DW$293, DW_AT_begin_line(0x86c)
    4507                      .dwattr DW$293, DW_AT_end_line(0x88b)
    4508              DW$294  .dwtag  DW_TAG_loop_range
    4509                      .dwattr DW$294, DW_AT_low_pc(DW$L$_follow_path$6$B)
    4510                      .dwattr DW$294, DW_AT_high_pc(DW$L$_follow_path$6$E)
    4511              DW$295  .dwtag  DW_TAG_loop_range
    4512                      .dwattr DW$295, DW_AT_low_pc(DW$L$_follow_path$7$B)
    4513                      .dwattr DW$295, DW_AT_high_pc(DW$L$_follow_path$7$E)
    4514              DW$296  .dwtag  DW_TAG_loop_range
    4515                      .dwattr DW$296, DW_AT_low_pc(DW$L$_follow_path$13$B)
    4516                      .dwattr DW$296, DW_AT_high_pc(DW$L$_follow_path$13$E)
    4517              DW$297  .dwtag  DW_TAG_loop_range
    4518                      .dwattr DW$297, DW_AT_low_pc(DW$L$_follow_path$14$B)
    4519                      .dwattr DW$297, DW_AT_high_pc(DW$L$_follow_path$14$E)
    4520              DW$298  .dwtag  DW_TAG_loop_range
    4521                      .dwattr DW$298, DW_AT_low_pc(DW$L$_follow_path$16$B)
    4522                      .dwattr DW$298, DW_AT_high_pc(DW$L$_follow_path$16$E)
    4523                      .dwendtag DW$293
    4524              
    4525                      .dwattr DW$285, DW_AT_end_file("ff.c")
    4526                      .dwattr DW$285, DW_AT_end_line(0x88f)
    4527                      .dwattr DW$285, DW_AT_end_column(0x01)
    4528                      .dwendentry
    4529                      .dwendtag DW$285
    4530              
    4531 00000784               .sect   ".text"
    4532              
    4533              DW$299  .dwtag  DW_TAG_subprogram, DW_AT_name("check_fs"), DW_AT_symbol_name("_check_fs")
    4534                      .dwattr DW$299, DW_AT_low_pc(_check_fs)
    4535                      .dwattr DW$299, DW_AT_high_pc(0x00)
    4536                      .dwattr DW$299, DW_AT_begin_file("ff.c")
    4537                      .dwattr DW$299, DW_AT_begin_line(0x899)
    4538                      .dwattr DW$299, DW_AT_begin_column(0x06)
    4539                      .dwpsn  "ff.c",2205,1
    4540              
    4541                      .dwfde DW$CIE
    4542              
    4543              ;***************************************************************
    4544              ;* FNAME: _check_fs                     FR SIZE:  10           *
    4545              ;*                                                             *
    4546              ;* FUNCTION ENVIRONMENT                                        *
    4547              ;*                                                             *
    4548              ;* FUNCTION PROPERTIES                                         *
    4549              ;*                            1 Parameter,  7 Auto,  2 SOE     *
    4550              ;***************************************************************
    4551              
    4552              _check_fs:
    4553                      .dwcfa  0x1d, -2
    4554                      .dwcfa  0x1c, 26, 0
    4555                      .dwcfa  0x09, 40, 26
TMS320C2000 COFF Assembler PC v4.1.3 Thu May 05 10:06:00 2011

Tools Copyright (c) 1996-2006 Texas Instruments Incorporated
C:\DOCUME~1\ADMINI~1\LOCALS~1\Temp\TI1122                            PAGE   87

    4556 00000784 B2BD          MOVL      *SP++,XAR1
    4557                      .dwcfa  0x80, 7, 2
    4558                      .dwcfa  0x1d, -4
    4559 00000785 FE08          ADDB      SP,#8
    4560                      .dwcfa  0x1d, -12
    4561              ;* AR4   assigned to _fs
    4562              DW$300  .dwtag  DW_TAG_formal_parameter, DW_AT_name("fs"), DW_AT_symbol_name("_fs")
    4563                      .dwattr DW$300, DW_AT_type(*DW$T$31)
    4564                      .dwattr DW$300, DW_AT_location[DW_OP_reg12]
    4565              ;* AL    assigned to _sect
    4566              DW$301  .dwtag  DW_TAG_formal_parameter, DW_AT_name("sect"), DW_AT_symbol_name("_sect")
    4567                      .dwattr DW$301, DW_AT_type(*DW$T$27)
    4568                      .dwattr DW$301, DW_AT_location[DW_OP_reg0]
    4569              DW$302  .dwtag  DW_TAG_variable, DW_AT_name("fs"), DW_AT_symbol_name("_fs")
    4570                      .dwattr DW$302, DW_AT_type(*DW$T$31)
    4571                      .dwattr DW$302, DW_AT_location[DW_OP_breg20 -4]
    4572              DW$303  .dwtag  DW_TAG_variable, DW_AT_name("sect"), DW_AT_symbol_name("_sect")
    4573                      .dwattr DW$303, DW_AT_type(*DW$T$27)
    4574                      .dwattr DW$303, DW_AT_location[DW_OP_breg20 -6]
    4575 00000786 1E46          MOVL      *-SP[6],ACC           ; |2205| 
    4576 00000787 A844          MOVL      *-SP[4],XAR4          ; |2205| 
    4577                      .dwpsn  "ff.c",2206,2
    4578 00000788 2841          MOV       *-SP[1],#1            ; |2206| 
         00000789 0001 
    4579 0000078a 8A44          MOVL      XAR4,*-SP[4]          ; |2206| 
    4580 0000078b 5DCC          MOVZ      AR5,*+XAR4[1]         ; |2206| 
    4581 0000078c 8A44          MOVL      XAR4,*-SP[4]          ; |2206| 
    4582 0000078d 0646          MOVL      ACC,*-SP[6]           ; |2206| 
    4583 0000078e DC1C          ADDB      XAR4,#28              ; |2206| 
    4584 0000078f 7640!         LCR       #_disk_read           ; |2206| 
         00000790 0000 
    4585                      ; call occurs [#_disk_read] ; |2206| 
    4586 00000791 5200          CMPB      AL,#0                 ; |2206| 
    4587 00000792 EC03          BF        L153,EQ               ; |2206| 
    4588                      ; branchcc occurs ; |2206| 
    4589                      .dwpsn  "ff.c",2207,3
    4590 00000793 9A03          MOVB      AL,#3                 ; |2207| 
    4591 00000794 6F65          B         L157,UNC              ; |2207| 
    4592                      ; branch occurs ; |2207| 
    4593              L153:    
    4594                      .dwpsn  "ff.c",2208,2
    4595 00000795 8D40          MOVL      XAR1,#539             ; |2208| 
         00000796 021B 
    4596 00000797 8344          MOVL      XAR5,*-SP[4]          ; |2208| 
    4597 00000798 8D00          MOVL      XAR0,#538             ; |2208| 
         00000799 021A 
    4598 0000079a 8A44          MOVL      XAR4,*-SP[4]          ; |2208| 
    4599 0000079b 5603          MOV       ACC,*+XAR5[AR1] << #8 ; |2208| 
         0000079c 089D 
    4600 0000079d CA94          OR        AL,*+XAR4[AR0]        ; |2208| 
    4601 0000079e 1BA9          CMP       AL,#43605             ; |2208| 
         0000079f AA55 
    4602 000007a0 EC03          BF        L154,EQ               ; |2208| 
    4603                      ; branchcc occurs ; |2208| 
    4604                      .dwpsn  "ff.c",2209,3
TMS320C2000 COFF Assembler PC v4.1.3 Thu May 05 10:06:00 2011

Tools Copyright (c) 1996-2006 Texas Instruments Incorporated
C:\DOCUME~1\ADMINI~1\LOCALS~1\Temp\TI1122                            PAGE   88

    4605 000007a1 9A02          MOVB      AL,#2                 ; |2209| 
    4606 000007a2 6F57          B         L157,UNC              ; |2209| 
    4607                      ; branch occurs ; |2209| 
    4608              L154:    
    4609                      .dwpsn  "ff.c",2211,2
    4610 000007a3 8A44          MOVL      XAR4,*-SP[4]          ; |2211| 
    4611 000007a4 2901          CLRC      SXM
    4612 000007a5 D054          MOVB      XAR0,#84              ; |2211| 
    4613 000007a6 2594          MOV       ACC,*+XAR4[AR0] << 16 ; |2211| 
    4614 000007a7 8A44          MOVL      XAR4,*-SP[4]          ; |2211| 
    4615 000007a8 D055          MOVB      XAR0,#85              ; |2211| 
    4616 000007a9 FF5A          MOVL      P,ACC                 ; |2211| 
    4617 000007aa 28AC          MOV       T,#24                 ; |2211| 
         000007ab 0018 
    4618 000007ac 0E94          MOVU      ACC,*+XAR4[AR0]
    4619 000007ad 1E48          MOVL      *-SP[8],ACC           ; |2211| 
    4620 000007ae 563B          LSLL      ACC,T                 ; |2211| 
    4621 000007af 1E48          MOVL      *-SP[8],ACC           ; |2211| 
    4622 000007b0 9248          MOV       AL,*-SP[8]            ; |2211| 
    4623 000007b1 CAAB          OR        AL,PL                 ; |2211| 
    4624 000007b2 9648          MOV       *-SP[8],AL            ; |2211| 
    4625 000007b3 27AA          MOV       PL,PH                 ; |2211| 
    4626 000007b4 9247          MOV       AL,*-SP[7]            ; |2211| 
    4627 000007b5 8A44          MOVL      XAR4,*-SP[4]          ; |2211| 
    4628 000007b6 D053          MOVB      XAR0,#83              ; |2211| 
    4629 000007b7 CAAB          OR        AL,PL                 ; |2211| 
    4630 000007b8 9647          MOV       *-SP[7],AL            ; |2211| 
    4631 000007b9 5603          MOV       ACC,*+XAR4[AR0] << #8 ; |2211| 
         000007ba 0894 
    4632 000007bb 88A9          MOVZ      AR6,AL                ; |2211| 
    4633 000007bc 0648          MOVL      ACC,*-SP[8]           ; |2211| 
    4634 000007bd 8A44          MOVL      XAR4,*-SP[4]          ; |2211| 
    4635 000007be AFA6          OR        ACC,AR6               ; |2211| 
    4636 000007bf D052          MOVB      XAR0,#82              ; |2211| 
    4637 000007c0 1E48          MOVL      *-SP[8],ACC           ; |2211| 
    4638 000007c1 AF94          OR        ACC,*+XAR4[AR0]       ; |2211| 
    4639 000007c2 28AA          MOV       PH,#84
         000007c3 0054 
    4640 000007c4 1E48          MOVL      *-SP[8],ACC           ; |2211| 
    4641 000007c5 28AB          MOV       PL,#16710
         000007c6 4146 
    4642 000007c7 1847          AND       *-SP[7],#255          ; |2211| 
         000007c8 00FF 
    4643 000007c9 0648          MOVL      ACC,*-SP[8]           ; |2211| 
    4644 000007ca 0FAB          CMPL      ACC,P                 ; |2211| 
    4645 000007cb ED03          BF        L155,NEQ              ; |2211| 
    4646                      ; branchcc occurs ; |2211| 
    4647                      .dwpsn  "ff.c",2212,3
    4648 000007cc 9A00          MOVB      AL,#0
    4649 000007cd 6F2C          B         L157,UNC              ; |2212| 
    4650                      ; branch occurs ; |2212| 
    4651              L155:    
    4652                      .dwpsn  "ff.c",2213,2
    4653 000007ce 8A44          MOVL      XAR4,*-SP[4]          ; |2213| 
    4654 000007cf D070          MOVB      XAR0,#112             ; |2213| 
TMS320C2000 COFF Assembler PC v4.1.3 Thu May 05 10:06:00 2011

Tools Copyright (c) 1996-2006 Texas Instruments Incorporated
C:\DOCUME~1\ADMINI~1\LOCALS~1\Temp\TI1122                            PAGE   89

    4655 000007d0 2594          MOV       ACC,*+XAR4[AR0] << 16 ; |2213| 
    4656 000007d1 8A44          MOVL      XAR4,*-SP[4]          ; |2213| 
    4657 000007d2 D071          MOVB      XAR0,#113             ; |2213| 
    4658 000007d3 FF5A          MOVL      P,ACC                 ; |2213| 
    4659 000007d4 28AC          MOV       T,#24                 ; |2213| 
         000007d5 0018 
    4660 000007d6 0E94          MOVU      ACC,*+XAR4[AR0]
    4661 000007d7 1E48          MOVL      *-SP[8],ACC           ; |2213| 
    4662 000007d8 563B          LSLL      ACC,T                 ; |2213| 
    4663 000007d9 1E48          MOVL      *-SP[8],ACC           ; |2213| 
    4664 000007da 9248          MOV       AL,*-SP[8]            ; |2213| 
    4665 000007db CAAB          OR        AL,PL                 ; |2213| 
    4666 000007dc 9648          MOV       *-SP[8],AL            ; |2213| 
    4667 000007dd 8A44          MOVL      XAR4,*-SP[4]          ; |2213| 
    4668 000007de 27AA          MOV       PL,PH                 ; |2213| 
    4669 000007df 9247          MOV       AL,*-SP[7]            ; |2213| 
    4670 000007e0 D06F          MOVB      XAR0,#111             ; |2213| 
    4671 000007e1 CAAB          OR        AL,PL                 ; |2213| 
    4672 000007e2 9647          MOV       *-SP[7],AL            ; |2213| 
    4673 000007e3 5603          MOV       ACC,*+XAR4[AR0] << #8 ; |2213| 
         000007e4 0894 
    4674 000007e5 88A9          MOVZ      AR6,AL                ; |2213| 
    4675 000007e6 0648          MOVL      ACC,*-SP[8]           ; |2213| 
    4676 000007e7 8A44          MOVL      XAR4,*-SP[4]          ; |2213| 
    4677 000007e8 AFA6          OR        ACC,AR6               ; |2213| 
    4678 000007e9 D06E          MOVB      XAR0,#110             ; |2213| 
    4679 000007ea 1E48          MOVL      *-SP[8],ACC           ; |2213| 
    4680 000007eb AF94          OR        ACC,*+XAR4[AR0]       ; |2213| 
    4681 000007ec 28AA          MOV       PH,#84
         000007ed 0054 
    4682 000007ee 1E48          MOVL      *-SP[8],ACC           ; |2213| 
    4683 000007ef 28AB          MOV       PL,#16710
         000007f0 4146 
    4684 000007f1 1847          AND       *-SP[7],#255          ; |2213| 
         000007f2 00FF 
    4685 000007f3 0648          MOVL      ACC,*-SP[8]           ; |2213| 
    4686 000007f4 0FAB          CMPL      ACC,P                 ; |2213| 
    4687 000007f5 ED03          BF        L156,NEQ              ; |2213| 
    4688                      ; branchcc occurs ; |2213| 
    4689                      .dwpsn  "ff.c",2214,3
    4690 000007f6 9A00          MOVB      AL,#0
    4691 000007f7 6F02          B         L157,UNC              ; |2214| 
    4692                      ; branch occurs ; |2214| 
    4693              L156:    
    4694                      .dwpsn  "ff.c",2216,2
    4695 000007f8 9A01          MOVB      AL,#1                 ; |2216| 
    4696              L157:    
    4697                      .dwpsn  "ff.c",2217,1
    4698 000007f9 FE88          SUBB      SP,#8                 ; |2216| 
    4699                      .dwcfa  0x1d, -4
    4700 000007fa 8BBE          MOVL      XAR1,*--SP            ; |2216| 
    4701                      .dwcfa  0x1d, -2
    4702                      .dwcfa  0xc0, 7
    4703 000007fb 0006          LRETR
    4704                      ; return occurs
TMS320C2000 COFF Assembler PC v4.1.3 Thu May 05 10:06:00 2011

Tools Copyright (c) 1996-2006 Texas Instruments Incorporated
C:\DOCUME~1\ADMINI~1\LOCALS~1\Temp\TI1122                            PAGE   90

    4705                      .dwattr DW$299, DW_AT_end_file("ff.c")
    4706                      .dwattr DW$299, DW_AT_end_line(0x8a9)
    4707                      .dwattr DW$299, DW_AT_end_column(0x01)
    4708                      .dwendentry
    4709                      .dwendtag DW$299
    4710              
    4711 000007fc               .sect   ".text"
    4712              
    4713              DW$304  .dwtag  DW_TAG_subprogram, DW_AT_name("chk_mounted"), DW_AT_symbol_name("_chk_mounted")
    4714                      .dwattr DW$304, DW_AT_low_pc(_chk_mounted)
    4715                      .dwattr DW$304, DW_AT_high_pc(0x00)
    4716                      .dwattr DW$304, DW_AT_begin_file("ff.c")
    4717                      .dwattr DW$304, DW_AT_begin_line(0x8b3)
    4718                      .dwattr DW$304, DW_AT_begin_column(0x09)
    4719                      .dwpsn  "ff.c",2232,1
    4720              
    4721                      .dwfde DW$CIE
    4722              
    4723              ;***************************************************************
    4724              ;* FNAME: _chk_mounted                  FR SIZE:  36           *
    4725              ;*                                                             *
    4726              ;* FUNCTION ENVIRONMENT                                        *
    4727              ;*                                                             *
    4728              ;* FUNCTION PROPERTIES                                         *
    4729              ;*                            1 Parameter, 33 Auto,  2 SOE     *
    4730              ;***************************************************************
    4731              
    4732              _chk_mounted:
    4733                      .dwcfa  0x1d, -2
    4734                      .dwcfa  0x1c, 26, 0
    4735                      .dwcfa  0x09, 40, 26
    4736 000007fc B2BD          MOVL      *SP++,XAR1
    4737                      .dwcfa  0x80, 7, 2
    4738                      .dwcfa  0x1d, -4
    4739 000007fd FE22          ADDB      SP,#34
    4740                      .dwcfa  0x1d, -38
    4741              ;* AR4   assigned to _path
    4742              DW$305  .dwtag  DW_TAG_formal_parameter, DW_AT_name("path"), DW_AT_symbol_name("_path")
    4743                      .dwattr DW$305, DW_AT_type(*DW$T$115)
    4744                      .dwattr DW$305, DW_AT_location[DW_OP_reg12]
    4745              ;* AR5   assigned to _rfs
    4746              DW$306  .dwtag  DW_TAG_formal_parameter, DW_AT_name("rfs"), DW_AT_symbol_name("_rfs")
    4747                      .dwattr DW$306, DW_AT_type(*DW$T$126)
    4748                      .dwattr DW$306, DW_AT_location[DW_OP_reg14]
    4749              ;* AL    assigned to _chk_wp
    4750              DW$307  .dwtag  DW_TAG_formal_parameter, DW_AT_name("chk_wp"), DW_AT_symbol_name("_chk_wp")
    4751                      .dwattr DW$307, DW_AT_type(*DW$T$23)
    4752                      .dwattr DW$307, DW_AT_location[DW_OP_reg0]
    4753              DW$308  .dwtag  DW_TAG_variable, DW_AT_name("path"), DW_AT_symbol_name("_path")
    4754                      .dwattr DW$308, DW_AT_type(*DW$T$115)
    4755                      .dwattr DW$308, DW_AT_location[DW_OP_breg20 -4]
    4756              DW$309  .dwtag  DW_TAG_variable, DW_AT_name("rfs"), DW_AT_symbol_name("_rfs")
    4757                      .dwattr DW$309, DW_AT_type(*DW$T$126)
    4758                      .dwattr DW$309, DW_AT_location[DW_OP_breg20 -6]
    4759              DW$310  .dwtag  DW_TAG_variable, DW_AT_name("chk_wp"), DW_AT_symbol_name("_chk_wp")
TMS320C2000 COFF Assembler PC v4.1.3 Thu May 05 10:06:00 2011

Tools Copyright (c) 1996-2006 Texas Instruments Incorporated
C:\DOCUME~1\ADMINI~1\LOCALS~1\Temp\TI1122                            PAGE   91

    4760                      .dwattr DW$310, DW_AT_type(*DW$T$23)
    4761                      .dwattr DW$310, DW_AT_location[DW_OP_breg20 -7]
    4762              DW$311  .dwtag  DW_TAG_variable, DW_AT_name("fmt"), DW_AT_symbol_name("_fmt")
    4763                      .dwattr DW$311, DW_AT_type(*DW$T$23)
    4764                      .dwattr DW$311, DW_AT_location[DW_OP_breg20 -8]
    4765              DW$312  .dwtag  DW_TAG_variable, DW_AT_name("b"), DW_AT_symbol_name("_b")
    4766                      .dwattr DW$312, DW_AT_type(*DW$T$23)
    4767                      .dwattr DW$312, DW_AT_location[DW_OP_breg20 -9]
    4768              DW$313  .dwtag  DW_TAG_variable, DW_AT_name("tbl"), DW_AT_symbol_name("_tbl")
    4769                      .dwattr DW$313, DW_AT_type(*DW$T$32)
    4770                      .dwattr DW$313, DW_AT_location[DW_OP_breg20 -12]
    4771              DW$314  .dwtag  DW_TAG_variable, DW_AT_name("vol"), DW_AT_symbol_name("_vol")
    4772                      .dwattr DW$314, DW_AT_type(*DW$T$43)
    4773                      .dwattr DW$314, DW_AT_location[DW_OP_breg20 -13]
    4774              DW$315  .dwtag  DW_TAG_variable, DW_AT_name("stat"), DW_AT_symbol_name("_stat")
    4775                      .dwattr DW$315, DW_AT_type(*DW$T$58)
    4776                      .dwattr DW$315, DW_AT_location[DW_OP_breg20 -14]
    4777              DW$316  .dwtag  DW_TAG_variable, DW_AT_name("bsect"), DW_AT_symbol_name("_bsect")
    4778                      .dwattr DW$316, DW_AT_type(*DW$T$27)
    4779                      .dwattr DW$316, DW_AT_location[DW_OP_breg20 -16]
    4780              DW$317  .dwtag  DW_TAG_variable, DW_AT_name("fasize"), DW_AT_symbol_name("_fasize")
    4781                      .dwattr DW$317, DW_AT_type(*DW$T$27)
    4782                      .dwattr DW$317, DW_AT_location[DW_OP_breg20 -18]
    4783              DW$318  .dwtag  DW_TAG_variable, DW_AT_name("tsect"), DW_AT_symbol_name("_tsect")
    4784                      .dwattr DW$318, DW_AT_type(*DW$T$27)
    4785                      .dwattr DW$318, DW_AT_location[DW_OP_breg20 -20]
    4786              DW$319  .dwtag  DW_TAG_variable, DW_AT_name("sysect"), DW_AT_symbol_name("_sysect")
    4787                      .dwattr DW$319, DW_AT_type(*DW$T$27)
    4788                      .dwattr DW$319, DW_AT_location[DW_OP_breg20 -22]
    4789              DW$320  .dwtag  DW_TAG_variable, DW_AT_name("nclst"), DW_AT_symbol_name("_nclst")
    4790                      .dwattr DW$320, DW_AT_type(*DW$T$27)
    4791                      .dwattr DW$320, DW_AT_location[DW_OP_breg20 -24]
    4792              DW$321  .dwtag  DW_TAG_variable, DW_AT_name("szbfat"), DW_AT_symbol_name("_szbfat")
    4793                      .dwattr DW$321, DW_AT_type(*DW$T$27)
    4794                      .dwattr DW$321, DW_AT_location[DW_OP_breg20 -26]
    4795              DW$322  .dwtag  DW_TAG_variable, DW_AT_name("nrsv"), DW_AT_symbol_name("_nrsv")
    4796                      .dwattr DW$322, DW_AT_type(*DW$T$24)
    4797                      .dwattr DW$322, DW_AT_location[DW_OP_breg20 -27]
    4798              DW$323  .dwtag  DW_TAG_variable, DW_AT_name("p"), DW_AT_symbol_name("_p")
    4799                      .dwattr DW$323, DW_AT_type(*DW$T$93)
    4800                      .dwattr DW$323, DW_AT_location[DW_OP_breg20 -30]
    4801              DW$324  .dwtag  DW_TAG_variable, DW_AT_name("fs"), DW_AT_symbol_name("_fs")
    4802                      .dwattr DW$324, DW_AT_type(*DW$T$31)
    4803                      .dwattr DW$324, DW_AT_location[DW_OP_breg20 -32]
    4804 000007fe 9647          MOV       *-SP[7],AL            ; |2232| 
    4805 000007ff A046          MOVL      *-SP[6],XAR5          ; |2232| 
    4806 00000800 A844          MOVL      *-SP[4],XAR4          ; |2232| 
    4807                      .dwpsn  "ff.c",2238,15
    4808 00000801 8A44          MOVL      XAR4,*-SP[4]          ; |2238| 
    4809 00000802 06C4          MOVL      ACC,*+XAR4[0]         ; |2238| 
    4810 00000803 1E5E          MOVL      *-SP[30],ACC          ; |2238| 
    4811                      .dwpsn  "ff.c",2242,2
    4812 00000804 8A5E          MOVL      XAR4,*-SP[30]         ; |2242| 
    4813 00000805 92C4          MOV       AL,*+XAR4[0]          ; |2242| 
    4814 00000806 9CD0          ADDB      AL,#-48
TMS320C2000 COFF Assembler PC v4.1.3 Thu May 05 10:06:00 2011

Tools Copyright (c) 1996-2006 Texas Instruments Incorporated
C:\DOCUME~1\ADMINI~1\LOCALS~1\Temp\TI1122                            PAGE   92

    4815 00000807 964D          MOV       *-SP[13],AL           ; |2242| 
    4816                      .dwpsn  "ff.c",2243,2
    4817 00000808 5209          CMPB      AL,#9                 ; |2243| 
    4818 00000809 660C          B         L158,HI               ; |2243| 
    4819                      ; branchcc occurs ; |2243| 
    4820 0000080a 8A5E          MOVL      XAR4,*-SP[30]         ; |2243| 
    4821 0000080b 92CC          MOV       AL,*+XAR4[1]          ; |2243| 
    4822 0000080c 523A          CMPB      AL,#58                ; |2243| 
    4823 0000080d ED08          BF        L158,NEQ              ; |2243| 
    4824                      ; branchcc occurs ; |2243| 
    4825                      .dwpsn  "ff.c",2245,3
    4826 0000080e 0202          MOVB      ACC,#2
    4827 0000080f 5601          ADDL      *-SP[30],ACC          ; |2245| 
         00000810 005E 
    4828                      .dwpsn  "ff.c",2246,3
    4829 00000811 8A44          MOVL      XAR4,*-SP[4]          ; |2246| 
    4830 00000812 065E          MOVL      ACC,*-SP[30]          ; |2246| 
    4831 00000813 1EC4          MOVL      *+XAR4[0],ACC         ; |2246| 
    4832                      .dwpsn  "ff.c",2247,2
    4833 00000814 6F02          B         L159,UNC              ; |2247| 
    4834                      ; branch occurs ; |2247| 
    4835              L158:    
    4836                      .dwpsn  "ff.c",2253,3
    4837 00000815 2B4D          MOV       *-SP[13],#0           ; |2253| 
    4838              L159:    
    4839                      .dwpsn  "ff.c",2258,2
    4840 00000816 924D          MOV       AL,*-SP[13]           ; |2258| 
    4841 00000817 EC04          BF        L160,EQ               ; |2258| 
    4842                      ; branchcc occurs ; |2258| 
    4843                      .dwpsn  "ff.c",2259,3
    4844 00000818 9A0B          MOVB      AL,#11                ; |2259| 
    4845 00000819 FFEF          B         L190,UNC              ; |2259| 
         0000081a 02A7 
    4846                      ; branch occurs ; |2259| 
    4847              L160:    
    4848                      .dwpsn  "ff.c",2260,2
    4849 0000081b 0E4D          MOVU      ACC,*-SP[13]
    4850 0000081c 8F00-         MOVL      XAR4,#_FatFs          ; |2260| 
         0000081d 0002 
    4851 0000081e FF30          LSL       ACC,1                 ; |2260| 
    4852 0000081f 5601          ADDL      XAR4,ACC
         00000820 00A4 
    4853 00000821 06C4          MOVL      ACC,*+XAR4[0]         ; |2260| 
    4854 00000822 1E60          MOVL      *-SP[32],ACC          ; |2260| 
    4855 00000823 8A46          MOVL      XAR4,*-SP[6]          ; |2260| 
    4856 00000824 1EC4          MOVL      *+XAR4[0],ACC         ; |2260| 
    4857                      .dwpsn  "ff.c",2261,2
    4858 00000825 0660          MOVL      ACC,*-SP[32]          ; |2261| 
    4859 00000826 ED04          BF        L161,NEQ              ; |2261| 
    4860                      ; branchcc occurs ; |2261| 
    4861                      .dwpsn  "ff.c",2261,13
    4862 00000827 9A0C          MOVB      AL,#12                ; |2261| 
    4863 00000828 FFEF          B         L190,UNC              ; |2261| 
         00000829 0298 
    4864                      ; branch occurs ; |2261| 
TMS320C2000 COFF Assembler PC v4.1.3 Thu May 05 10:06:00 2011

Tools Copyright (c) 1996-2006 Texas Instruments Incorporated
C:\DOCUME~1\ADMINI~1\LOCALS~1\Temp\TI1122                            PAGE   93

    4865              L161:    
    4866                      .dwpsn  "ff.c",2263,2
    4867 0000082a 8A60          MOVL      XAR4,*-SP[32]         ; |2263| 
    4868 0000082b 7640'         LCR       #_lock_fs             ; |2263| 
         0000082c 005B 
    4869                      ; call occurs [#_lock_fs] ; |2263| 
    4870 0000082d 5200          CMPB      AL,#0                 ; |2263| 
    4871 0000082e ED04          BF        L162,NEQ              ; |2263| 
    4872                      ; branchcc occurs ; |2263| 
    4873 0000082f 9A0F          MOVB      AL,#15                ; |2263| 
    4874 00000830 FFEF          B         L190,UNC              ; |2263| 
         00000831 0290 
    4875                      ; branch occurs ; |2263| 
    4876              L162:    
    4877                      .dwpsn  "ff.c",2265,2
    4878 00000832 8A60          MOVL      XAR4,*-SP[32]         ; |2265| 
    4879 00000833 92C4          MOV       AL,*+XAR4[0]          ; |2265| 
    4880 00000834 EC12          BF        L164,EQ               ; |2265| 
    4881                      ; branchcc occurs ; |2265| 
    4882                      .dwpsn  "ff.c",2267,3
    4883 00000835 8A60          MOVL      XAR4,*-SP[32]         ; |2267| 
    4884 00000836 92CC          MOV       AL,*+XAR4[1]          ; |2267| 
    4885 00000837 7640!         LCR       #_disk_status         ; |2267| 
         00000838 0000 
    4886                      ; call occurs [#_disk_status] ; |2267| 
    4887 00000839 964E          MOV       *-SP[14],AL           ; |2267| 
    4888                      .dwpsn  "ff.c",2268,3
    4889 0000083a 404E          TBIT      *-SP[14],#0           ; |2268| 
    4890 0000083b EE0B          BF        L164,TC               ; |2268| 
    4891                      ; branchcc occurs ; |2268| 
    4892                      .dwpsn  "ff.c",2271,4
    4893 0000083c 9247          MOV       AL,*-SP[7]            ; |2271| 
    4894 0000083d EC06          BF        L163,EQ               ; |2271| 
    4895                      ; branchcc occurs ; |2271| 
    4896 0000083e 424E          TBIT      *-SP[14],#2           ; |2271| 
    4897 0000083f EF04          BF        L163,NTC              ; |2271| 
    4898                      ; branchcc occurs ; |2271| 
    4899                      .dwpsn  "ff.c",2272,5
    4900 00000840 9A0A          MOVB      AL,#10                ; |2272| 
    4901 00000841 FFEF          B         L190,UNC              ; |2272| 
         00000842 027F 
    4902                      ; branch occurs ; |2272| 
    4903              L163:    
    4904                      .dwpsn  "ff.c",2274,4
    4905 00000843 9A00          MOVB      AL,#0
    4906 00000844 FFEF          B         L190,UNC              ; |2274| 
         00000845 027C 
    4907                      ; branch occurs ; |2274| 
    4908              L164:    
    4909                      .dwpsn  "ff.c",2281,2
    4910 00000846 8A60          MOVL      XAR4,*-SP[32]         ; |2281| 
    4911 00000847 2BC4          MOV       *+XAR4[0],#0          ; |2281| 
    4912                      .dwpsn  "ff.c",2282,2
    4913 00000848 8A60          MOVL      XAR4,*-SP[32]         ; |2282| 
    4914 00000849 924D          MOV       AL,*-SP[13]           ; |2282| 
TMS320C2000 COFF Assembler PC v4.1.3 Thu May 05 10:06:00 2011

Tools Copyright (c) 1996-2006 Texas Instruments Incorporated
C:\DOCUME~1\ADMINI~1\LOCALS~1\Temp\TI1122                            PAGE   94

    4915 0000084a 96CC          MOV       *+XAR4[1],AL          ; |2282| 
    4916                      .dwpsn  "ff.c",2283,2
    4917 0000084b 8A60          MOVL      XAR4,*-SP[32]         ; |2283| 
    4918 0000084c 92CC          MOV       AL,*+XAR4[1]          ; |2283| 
    4919 0000084d 7640!         LCR       #_disk_initialize     ; |2283| 
         0000084e 0000 
    4920                      ; call occurs [#_disk_initialize] ; |2283| 
    4921 0000084f 964E          MOV       *-SP[14],AL           ; |2283| 
    4922                      .dwpsn  "ff.c",2284,2
    4923 00000850 404E          TBIT      *-SP[14],#0           ; |2284| 
    4924 00000851 EF04          BF        L165,NTC              ; |2284| 
    4925                      ; branchcc occurs ; |2284| 
    4926                      .dwpsn  "ff.c",2285,3
    4927 00000852 9A03          MOVB      AL,#3                 ; |2285| 
    4928 00000853 FFEF          B         L190,UNC              ; |2285| 
         00000854 026D 
    4929                      ; branch occurs ; |2285| 
    4930              L165:    
    4931                      .dwpsn  "ff.c",2291,2
    4932 00000855 9247          MOV       AL,*-SP[7]            ; |2291| 
    4933 00000856 EC06          BF        L166,EQ               ; |2291| 
    4934                      ; branchcc occurs ; |2291| 
    4935 00000857 424E          TBIT      *-SP[14],#2           ; |2291| 
    4936 00000858 EF04          BF        L166,NTC              ; |2291| 
    4937                      ; branchcc occurs ; |2291| 
    4938                      .dwpsn  "ff.c",2292,3
    4939 00000859 9A0A          MOVB      AL,#10                ; |2292| 
    4940 0000085a FFEF          B         L190,UNC              ; |2292| 
         0000085b 0266 
    4941                      ; branch occurs ; |2292| 
    4942              L166:    
    4943                      .dwpsn  "ff.c",2295,2
    4944 0000085c 0200          MOVB      ACC,#0
    4945 0000085d 1E50          MOVL      *-SP[16],ACC          ; |2295| 
    4946 0000085e 8A60          MOVL      XAR4,*-SP[32]         ; |2295| 
    4947 0000085f 7640'         LCR       #_check_fs            ; |2295| 
         00000860 0784 
    4948                      ; call occurs [#_check_fs] ; |2295| 
    4949 00000861 9648          MOV       *-SP[8],AL            ; |2295| 
    4950                      .dwpsn  "ff.c",2296,2
    4951 00000862 5201          CMPB      AL,#1                 ; |2296| 
    4952 00000863 ED30          BF        L167,NEQ              ; |2296| 
    4953                      ; branchcc occurs ; |2296| 
    4954                      .dwpsn  "ff.c",2299,3
    4955 00000864 0660          MOVL      ACC,*-SP[32]          ; |2299| 
    4956 00000865 8F00          MOVL      XAR4,#474             ; |2299| 
         00000866 01DA 
    4957 00000867 5601          ADDL      XAR4,ACC
         00000868 00A4 
    4958 00000869 A84C          MOVL      *-SP[12],XAR4         ; |2299| 
    4959                      .dwpsn  "ff.c",2300,3
    4960 0000086a 8A4C          MOVL      XAR4,*-SP[12]         ; |2300| 
    4961 0000086b 92E4          MOV       AL,*+XAR4[4]          ; |2300| 
    4962 0000086c EC27          BF        L167,EQ               ; |2300| 
    4963                      ; branchcc occurs ; |2300| 
TMS320C2000 COFF Assembler PC v4.1.3 Thu May 05 10:06:00 2011

Tools Copyright (c) 1996-2006 Texas Instruments Incorporated
C:\DOCUME~1\ADMINI~1\LOCALS~1\Temp\TI1122                            PAGE   95

    4964                      .dwpsn  "ff.c",2302,4
    4965 0000086d 8A4C          MOVL      XAR4,*-SP[12]         ; |2302| 
    4966 0000086e 2901          CLRC      SXM
    4967 0000086f D00A          MOVB      XAR0,#10              ; |2302| 
    4968 00000870 2594          MOV       ACC,*+XAR4[AR0] << 16 ; |2302| 
    4969 00000871 8A4C          MOVL      XAR4,*-SP[12]         ; |2302| 
    4970 00000872 D00B          MOVB      XAR0,#11              ; |2302| 
    4971 00000873 FF5A          MOVL      P,ACC                 ; |2302| 
    4972 00000874 28AC          MOV       T,#24                 ; |2302| 
         00000875 0018 
    4973 00000876 0E94          MOVU      ACC,*+XAR4[AR0]
    4974 00000877 1E62          MOVL      *-SP[34],ACC          ; |2302| 
    4975 00000878 563B          LSLL      ACC,T                 ; |2302| 
    4976 00000879 1E62          MOVL      *-SP[34],ACC          ; |2302| 
    4977 0000087a 9262          MOV       AL,*-SP[34]           ; |2302| 
    4978 0000087b CAAB          OR        AL,PL                 ; |2302| 
    4979 0000087c 9662          MOV       *-SP[34],AL           ; |2302| 
    4980 0000087d 27AA          MOV       PL,PH                 ; |2302| 
    4981 0000087e 9261          MOV       AL,*-SP[33]           ; |2302| 
    4982 0000087f 8A4C          MOVL      XAR4,*-SP[12]         ; |2302| 
    4983 00000880 D009          MOVB      XAR0,#9               ; |2302| 
    4984 00000881 CAAB          OR        AL,PL                 ; |2302| 
    4985 00000882 9661          MOV       *-SP[33],AL           ; |2302| 
    4986 00000883 5603          MOV       ACC,*+XAR4[AR0] << #8 ; |2302| 
         00000884 0894 
    4987 00000885 88A9          MOVZ      AR6,AL                ; |2302| 
    4988 00000886 0662          MOVL      ACC,*-SP[34]          ; |2302| 
    4989 00000887 8A4C          MOVL      XAR4,*-SP[12]         ; |2302| 
    4990 00000888 AFA6          OR        ACC,AR6               ; |2302| 
    4991 00000889 D008          MOVB      XAR0,#8               ; |2302| 
    4992 0000088a 1E62          MOVL      *-SP[34],ACC          ; |2302| 
    4993 0000088b AF94          OR        ACC,*+XAR4[AR0]       ; |2302| 
    4994 0000088c 1E62          MOVL      *-SP[34],ACC          ; |2302| 
    4995 0000088d 1E50          MOVL      *-SP[16],ACC          ; |2302| 
    4996                      .dwpsn  "ff.c",2303,4
    4997 0000088e 8A60          MOVL      XAR4,*-SP[32]         ; |2303| 
    4998 0000088f 0650          MOVL      ACC,*-SP[16]          ; |2303| 
    4999 00000890 7640'         LCR       #_check_fs            ; |2303| 
         00000891 0784 
    5000                      ; call occurs [#_check_fs] ; |2303| 
    5001 00000892 9648          MOV       *-SP[8],AL            ; |2303| 
    5002              L167:    
    5003                      .dwpsn  "ff.c",2306,2
    5004 00000893 9248          MOV       AL,*-SP[8]            ; |2306| 
    5005 00000894 5203          CMPB      AL,#3                 ; |2306| 
    5006 00000895 ED04          BF        L168,NEQ              ; |2306| 
    5007                      ; branchcc occurs ; |2306| 
    5008                      .dwpsn  "ff.c",2306,18
    5009 00000896 9A01          MOVB      AL,#1                 ; |2306| 
    5010 00000897 FFEF          B         L190,UNC              ; |2306| 
         00000898 0229 
    5011                      ; branch occurs ; |2306| 
    5012              L168:    
    5013                      .dwpsn  "ff.c",2307,2
    5014 00000899 5200          CMPB      AL,#0                 ; |2307| 
TMS320C2000 COFF Assembler PC v4.1.3 Thu May 05 10:06:00 2011

Tools Copyright (c) 1996-2006 Texas Instruments Incorporated
C:\DOCUME~1\ADMINI~1\LOCALS~1\Temp\TI1122                            PAGE   96

    5015 0000089a EC04          BF        L169,EQ               ; |2307| 
    5016                      ; branchcc occurs ; |2307| 
    5017                      .dwpsn  "ff.c",2307,13
    5018 0000089b 9A0D          MOVB      AL,#13                ; |2307| 
    5019 0000089c FFEF          B         L190,UNC              ; |2307| 
         0000089d 0224 
    5020                      ; branch occurs ; |2307| 
    5021              L169:    
    5022                      .dwpsn  "ff.c",2311,2
    5023 0000089e 8360          MOVL      XAR5,*-SP[32]         ; |2311| 
    5024 0000089f 8A60          MOVL      XAR4,*-SP[32]         ; |2311| 
    5025 000008a0 D128          MOVB      XAR1,#40              ; |2311| 
    5026 000008a1 D027          MOVB      XAR0,#39              ; |2311| 
    5027 000008a2 5603          MOV       ACC,*+XAR5[AR1] << #8 ; |2311| 
         000008a3 089D 
    5028 000008a4 CA94          OR        AL,*+XAR4[AR0]        ; |2311| 
    5029 000008a5 1BA9          CMP       AL,#512               ; |2311| 
         000008a6 0200 
    5030 000008a7 EC04          BF        L170,EQ               ; |2311| 
    5031                      ; branchcc occurs ; |2311| 
    5032                      .dwpsn  "ff.c",2312,3
    5033 000008a8 9A0D          MOVB      AL,#13                ; |2312| 
    5034 000008a9 FFEF          B         L190,UNC              ; |2312| 
         000008aa 0217 
    5035                      ; branch occurs ; |2312| 
    5036              L170:    
    5037                      .dwpsn  "ff.c",2314,2
    5038 000008ab 8360          MOVL      XAR5,*-SP[32]         ; |2314| 
    5039 000008ac 8A60          MOVL      XAR4,*-SP[32]         ; |2314| 
    5040 000008ad D133          MOVB      XAR1,#51              ; |2314| 
    5041 000008ae D032          MOVB      XAR0,#50              ; |2314| 
    5042 000008af 5603          MOV       ACC,*+XAR5[AR1] << #8 ; |2314| 
         000008b0 089D 
    5043 000008b1 CA94          OR        AL,*+XAR4[AR0]        ; |2314| 
    5044 000008b2 0EA9          MOVU      ACC,AL
    5045 000008b3 1E52          MOVL      *-SP[18],ACC          ; |2314| 
    5046                      .dwpsn  "ff.c",2315,2
    5047 000008b4 0652          MOVL      ACC,*-SP[18]          ; |2315| 
    5048 000008b5 ED22          BF        L171,NEQ              ; |2315| 
    5049                      ; branchcc occurs ; |2315| 
    5050                      .dwpsn  "ff.c",2315,17
    5051 000008b6 8A60          MOVL      XAR4,*-SP[32]         ; |2315| 
    5052 000008b7 2901          CLRC      SXM
    5053 000008b8 D042          MOVB      XAR0,#66              ; |2315| 
    5054 000008b9 2594          MOV       ACC,*+XAR4[AR0] << 16 ; |2315| 
    5055 000008ba 8A60          MOVL      XAR4,*-SP[32]         ; |2315| 
    5056 000008bb D043          MOVB      XAR0,#67              ; |2315| 
    5057 000008bc FF5A          MOVL      P,ACC                 ; |2315| 
    5058 000008bd 28AC          MOV       T,#24                 ; |2315| 
         000008be 0018 
    5059 000008bf 0E94          MOVU      ACC,*+XAR4[AR0]
    5060 000008c0 1E62          MOVL      *-SP[34],ACC          ; |2315| 
    5061 000008c1 563B          LSLL      ACC,T                 ; |2315| 
    5062 000008c2 1E62          MOVL      *-SP[34],ACC          ; |2315| 
    5063 000008c3 9262          MOV       AL,*-SP[34]           ; |2315| 
TMS320C2000 COFF Assembler PC v4.1.3 Thu May 05 10:06:00 2011

Tools Copyright (c) 1996-2006 Texas Instruments Incorporated
C:\DOCUME~1\ADMINI~1\LOCALS~1\Temp\TI1122                            PAGE   97

    5064 000008c4 CAAB          OR        AL,PL                 ; |2315| 
    5065 000008c5 9662          MOV       *-SP[34],AL           ; |2315| 
    5066 000008c6 27AA          MOV       PL,PH                 ; |2315| 
    5067 000008c7 9261          MOV       AL,*-SP[33]           ; |2315| 
    5068 000008c8 8A60          MOVL      XAR4,*-SP[32]         ; |2315| 
    5069 000008c9 D041          MOVB      XAR0,#65              ; |2315| 
    5070 000008ca CAAB          OR        AL,PL                 ; |2315| 
    5071 000008cb 9661          MOV       *-SP[33],AL           ; |2315| 
    5072 000008cc 5603          MOV       ACC,*+XAR4[AR0] << #8 ; |2315| 
         000008cd 0894 
    5073 000008ce 88A9          MOVZ      AR6,AL                ; |2315| 
    5074 000008cf 0662          MOVL      ACC,*-SP[34]          ; |2315| 
    5075 000008d0 8A60          MOVL      XAR4,*-SP[32]         ; |2315| 
    5076 000008d1 AFA6          OR        ACC,AR6               ; |2315| 
    5077 000008d2 D040          MOVB      XAR0,#64              ; |2315| 
    5078 000008d3 1E62          MOVL      *-SP[34],ACC          ; |2315| 
    5079 000008d4 AF94          OR        ACC,*+XAR4[AR0]       ; |2315| 
    5080 000008d5 1E52          MOVL      *-SP[18],ACC          ; |2315| 
    5081 000008d6 1E62          MOVL      *-SP[34],ACC          ; |2315| 
    5082              L171:    
    5083                      .dwpsn  "ff.c",2316,2
    5084 000008d7 8A60          MOVL      XAR4,*-SP[32]         ; |2316| 
    5085 000008d8 0652          MOVL      ACC,*-SP[18]          ; |2316| 
    5086 000008d9 D012          MOVB      XAR0,#18              ; |2316| 
    5087 000008da 1E94          MOVL      *+XAR4[AR0],ACC       ; |2316| 
    5088                      .dwpsn  "ff.c",2318,2
    5089 000008db 8A60          MOVL      XAR4,*-SP[32]         ; |2318| 
    5090 000008dc D02C          MOVB      XAR0,#44              ; |2318| 
    5091 000008dd 9294          MOV       AL,*+XAR4[AR0]        ; |2318| 
    5092 000008de 9649          MOV       *-SP[9],AL            ; |2318| 
    5093 000008df 8A60          MOVL      XAR4,*-SP[32]         ; |2318| 
    5094 000008e0 96DC          MOV       *+XAR4[3],AL          ; |2318| 
    5095                      .dwpsn  "ff.c",2319,2
    5096 000008e1 9249          MOV       AL,*-SP[9]            ; |2319| 
    5097 000008e2 5201          CMPB      AL,#1                 ; |2319| 
    5098 000008e3 EC06          BF        L172,EQ               ; |2319| 
    5099                      ; branchcc occurs ; |2319| 
    5100 000008e4 5202          CMPB      AL,#2                 ; |2319| 
    5101 000008e5 EC04          BF        L172,EQ               ; |2319| 
    5102                      ; branchcc occurs ; |2319| 
    5103                      .dwpsn  "ff.c",2319,26
    5104 000008e6 9A0D          MOVB      AL,#13                ; |2319| 
    5105 000008e7 FFEF          B         L190,UNC              ; |2319| 
         000008e8 01D9 
    5106                      ; branch occurs ; |2319| 
    5107              L172:    
    5108                      .dwpsn  "ff.c",2320,2
    5109 000008e9 0E49          MOVU      ACC,*-SP[9]
    5110 000008ea 1EAC          MOVL      XT,ACC                ; |2320| 
    5111 000008eb 5665          IMPYXUL   P,XT,*-SP[18]         ; |2320| 
         000008ec 0052 
    5112 000008ed A952          MOVL      *-SP[18],P            ; |2320| 
    5113                      .dwpsn  "ff.c",2322,2
    5114 000008ee 8A60          MOVL      XAR4,*-SP[32]         ; |2322| 
    5115 000008ef D029          MOVB      XAR0,#41              ; |2322| 
TMS320C2000 COFF Assembler PC v4.1.3 Thu May 05 10:06:00 2011

Tools Copyright (c) 1996-2006 Texas Instruments Incorporated
C:\DOCUME~1\ADMINI~1\LOCALS~1\Temp\TI1122                            PAGE   98

    5116 000008f0 9294          MOV       AL,*+XAR4[AR0]        ; |2322| 
    5117 000008f1 9649          MOV       *-SP[9],AL            ; |2322| 
    5118 000008f2 8A60          MOVL      XAR4,*-SP[32]         ; |2322| 
    5119 000008f3 96D4          MOV       *+XAR4[2],AL          ; |2322| 
    5120                      .dwpsn  "ff.c",2323,2
    5121 000008f4 9249          MOV       AL,*-SP[9]            ; |2323| 
    5122 000008f5 EC04          BF        L173,EQ               ; |2323| 
    5123                      ; branchcc occurs ; |2323| 
    5124 000008f6 9CFF          ADDB      AL,#-1
    5125 000008f7 CE49          AND       AL,*-SP[9]            ; |2323| 
    5126 000008f8 EC04          BF        L174,EQ               ; |2323| 
    5127                      ; branchcc occurs ; |2323| 
    5128              L173:    
    5129                      .dwpsn  "ff.c",2323,33
    5130 000008f9 9A0D          MOVB      AL,#13                ; |2323| 
    5131 000008fa FFEF          B         L190,UNC              ; |2323| 
         000008fb 01C6 
    5132                      ; branch occurs ; |2323| 
    5133              L174:    
    5134                      .dwpsn  "ff.c",2325,2
    5135 000008fc 8360          MOVL      XAR5,*-SP[32]         ; |2325| 
    5136 000008fd 8A60          MOVL      XAR4,*-SP[32]         ; |2325| 
    5137 000008fe D12E          MOVB      XAR1,#46              ; |2325| 
    5138 000008ff D02D          MOVB      XAR0,#45              ; |2325| 
    5139 00000900 5603          MOV       ACC,*+XAR5[AR1] << #8 ; |2325| 
         00000901 089D 
    5140 00000902 CA94          OR        AL,*+XAR4[AR0]        ; |2325| 
    5141 00000903 8A60          MOVL      XAR4,*-SP[32]         ; |2325| 
    5142 00000904 96FC          MOV       *+XAR4[7],AL          ; |2325| 
    5143                      .dwpsn  "ff.c",2326,2
    5144 00000905 8A60          MOVL      XAR4,*-SP[32]         ; |2326| 
    5145 00000906 92FC          MOV       AL,*+XAR4[7]          ; |2326| 
    5146 00000907 900F          ANDB      AL,#0x0f              ; |2326| 
    5147 00000908 EC04          BF        L175,EQ               ; |2326| 
    5148                      ; branchcc occurs ; |2326| 
    5149                      .dwpsn  "ff.c",2326,47
    5150 00000909 9A0D          MOVB      AL,#13                ; |2326| 
    5151 0000090a FFEF          B         L190,UNC              ; |2326| 
         0000090b 01B6 
    5152                      ; branch occurs ; |2326| 
    5153              L175:    
    5154                      .dwpsn  "ff.c",2328,2
    5155 0000090c 8360          MOVL      XAR5,*-SP[32]         ; |2328| 
    5156 0000090d 8A60          MOVL      XAR4,*-SP[32]         ; |2328| 
    5157 0000090e D130          MOVB      XAR1,#48              ; |2328| 
    5158 0000090f D02F          MOVB      XAR0,#47              ; |2328| 
    5159 00000910 5603          MOV       ACC,*+XAR5[AR1] << #8 ; |2328| 
         00000911 089D 
    5160 00000912 CA94          OR        AL,*+XAR4[AR0]        ; |2328| 
    5161 00000913 0EA9          MOVU      ACC,AL
    5162 00000914 1E54          MOVL      *-SP[20],ACC          ; |2328| 
    5163                      .dwpsn  "ff.c",2329,2
    5164 00000915 0654          MOVL      ACC,*-SP[20]          ; |2329| 
    5165 00000916 ED22          BF        L176,NEQ              ; |2329| 
    5166                      ; branchcc occurs ; |2329| 
TMS320C2000 COFF Assembler PC v4.1.3 Thu May 05 10:06:00 2011

Tools Copyright (c) 1996-2006 Texas Instruments Incorporated
C:\DOCUME~1\ADMINI~1\LOCALS~1\Temp\TI1122                            PAGE   99

    5167                      .dwpsn  "ff.c",2329,16
    5168 00000917 8A60          MOVL      XAR4,*-SP[32]         ; |2329| 
    5169 00000918 2901          CLRC      SXM
    5170 00000919 D03E          MOVB      XAR0,#62              ; |2329| 
    5171 0000091a 2594          MOV       ACC,*+XAR4[AR0] << 16 ; |2329| 
    5172 0000091b 8A60          MOVL      XAR4,*-SP[32]         ; |2329| 
    5173 0000091c D03F          MOVB      XAR0,#63              ; |2329| 
    5174 0000091d FF5A          MOVL      P,ACC                 ; |2329| 
    5175 0000091e 28AC          MOV       T,#24                 ; |2329| 
         0000091f 0018 
    5176 00000920 0E94          MOVU      ACC,*+XAR4[AR0]
    5177 00000921 1E62          MOVL      *-SP[34],ACC          ; |2329| 
    5178 00000922 563B          LSLL      ACC,T                 ; |2329| 
    5179 00000923 1E62          MOVL      *-SP[34],ACC          ; |2329| 
    5180 00000924 9262          MOV       AL,*-SP[34]           ; |2329| 
    5181 00000925 CAAB          OR        AL,PL                 ; |2329| 
    5182 00000926 9662          MOV       *-SP[34],AL           ; |2329| 
    5183 00000927 27AA          MOV       PL,PH                 ; |2329| 
    5184 00000928 9261          MOV       AL,*-SP[33]           ; |2329| 
    5185 00000929 8A60          MOVL      XAR4,*-SP[32]         ; |2329| 
    5186 0000092a D03D          MOVB      XAR0,#61              ; |2329| 
    5187 0000092b CAAB          OR        AL,PL                 ; |2329| 
    5188 0000092c 9661          MOV       *-SP[33],AL           ; |2329| 
    5189 0000092d 5603          MOV       ACC,*+XAR4[AR0] << #8 ; |2329| 
         0000092e 0894 
    5190 0000092f 88A9          MOVZ      AR6,AL                ; |2329| 
    5191 00000930 0662          MOVL      ACC,*-SP[34]          ; |2329| 
    5192 00000931 8A60          MOVL      XAR4,*-SP[32]         ; |2329| 
    5193 00000932 AFA6          OR        ACC,AR6               ; |2329| 
    5194 00000933 D03C          MOVB      XAR0,#60              ; |2329| 
    5195 00000934 1E62          MOVL      *-SP[34],ACC          ; |2329| 
    5196 00000935 AF94          OR        ACC,*+XAR4[AR0]       ; |2329| 
    5197 00000936 1E54          MOVL      *-SP[20],ACC          ; |2329| 
    5198 00000937 1E62          MOVL      *-SP[34],ACC          ; |2329| 
    5199              L176:    
    5200                      .dwpsn  "ff.c",2331,2
    5201 00000938 8360          MOVL      XAR5,*-SP[32]         ; |2331| 
    5202 00000939 8A60          MOVL      XAR4,*-SP[32]         ; |2331| 
    5203 0000093a D12B          MOVB      XAR1,#43              ; |2331| 
    5204 0000093b D02A          MOVB      XAR0,#42              ; |2331| 
    5205 0000093c 5603          MOV       ACC,*+XAR5[AR1] << #8 ; |2331| 
         0000093d 089D 
    5206 0000093e CA94          OR        AL,*+XAR4[AR0]        ; |2331| 
    5207 0000093f 965B          MOV       *-SP[27],AL           ; |2331| 
    5208                      .dwpsn  "ff.c",2332,2
    5209 00000940 ED04          BF        L177,NEQ              ; |2332| 
    5210                      ; branchcc occurs ; |2332| 
    5211                      .dwpsn  "ff.c",2332,15
    5212 00000941 9A0D          MOVB      AL,#13                ; |2332| 
    5213 00000942 FFEF          B         L190,UNC              ; |2332| 
         00000943 017E 
    5214                      ; branch occurs ; |2332| 
    5215              L177:    
    5216                      .dwpsn  "ff.c",2335,2
    5217 00000944 885B          MOVZ      AR6,*-SP[27]
TMS320C2000 COFF Assembler PC v4.1.3 Thu May 05 10:06:00 2011

Tools Copyright (c) 1996-2006 Texas Instruments Incorporated
C:\DOCUME~1\ADMINI~1\LOCALS~1\Temp\TI1122                            PAGE  100

    5218 00000945 8A60          MOVL      XAR4,*-SP[32]         ; |2335| 
    5219 00000946 06A6          MOVL      ACC,XAR6              ; |2335| 
    5220 00000947 0752          ADDL      ACC,*-SP[18]          ; |2335| 
    5221 00000948 1EA6          MOVL      XAR6,ACC              ; |2335| 
    5222 00000949 92FC          MOV       AL,*+XAR4[7]          ; |2335| 
    5223 0000094a FFC3          LSR       AL,4                  ; |2335| 
    5224 0000094b 80A9          MOVZ      AR7,AL                ; |2335| 
    5225 0000094c 06A6          MOVL      ACC,XAR6              ; |2335| 
    5226 0000094d 0DA7          ADDU      ACC,AR7               ; |2335| 
    5227 0000094e 1E56          MOVL      *-SP[22],ACC          ; |2335| 
    5228                      .dwpsn  "ff.c",2336,2
    5229 0000094f 0656          MOVL      ACC,*-SP[22]          ; |2336| 
    5230 00000950 0F54          CMPL      ACC,*-SP[20]          ; |2336| 
    5231 00000951 6904          B         L178,LOS              ; |2336| 
    5232                      ; branchcc occurs ; |2336| 
    5233                      .dwpsn  "ff.c",2336,24
    5234 00000952 9A0D          MOVB      AL,#13                ; |2336| 
    5235 00000953 FFEF          B         L190,UNC              ; |2336| 
         00000954 016D 
    5236                      ; branch occurs ; |2336| 
    5237              L178:    
    5238                      .dwpsn  "ff.c",2337,2
    5239 00000955 8A60          MOVL      XAR4,*-SP[32]         ; |2337| 
    5240 00000956 0654          MOVL      ACC,*-SP[20]          ; |2337| 
    5241 00000957 88D4          MOVZ      AR6,*+XAR4[2]
    5242 00000958 0356          SUBL      ACC,*-SP[22]          ; |2337| 
    5243 00000959 FF5A          MOVL      P,ACC                 ; |2337| 
    5244 0000095a 0200          MOVB      ACC,#0
    5245 0000095b F61F          RPT       #31
    5246 0000095c 5617  ||     SUBCUL    ACC,XAR6              ; |2337| 
         0000095d 00A6 
    5247 0000095e A958          MOVL      *-SP[24],P            ; |2337| 
    5248                      .dwpsn  "ff.c",2338,2
    5249 0000095f 0658          MOVL      ACC,*-SP[24]          ; |2338| 
    5250 00000960 ED04          BF        L179,NEQ              ; |2338| 
    5251                      ; branchcc occurs ; |2338| 
    5252                      .dwpsn  "ff.c",2338,16
    5253 00000961 9A0D          MOVB      AL,#13                ; |2338| 
    5254 00000962 FFEF          B         L190,UNC              ; |2338| 
         00000963 015E 
    5255                      ; branch occurs ; |2338| 
    5256              L179:    
    5257                      .dwpsn  "ff.c",2339,2
    5258 00000964 2848          MOV       *-SP[8],#1            ; |2339| 
         00000965 0001 
    5259                      .dwpsn  "ff.c",2340,2
    5260 00000966 FF20          MOV       ACC,#4086             ; |2340| 
         00000967 0FF6 
    5261 00000968 0F58          CMPL      ACC,*-SP[24]          ; |2340| 
    5262 00000969 6603          B         L180,HI               ; |2340| 
    5263                      ; branchcc occurs ; |2340| 
    5264                      .dwpsn  "ff.c",2340,28
    5265 0000096a 2848          MOV       *-SP[8],#2            ; |2340| 
         0000096b 0002 
    5266              L180:    
TMS320C2000 COFF Assembler PC v4.1.3 Thu May 05 10:06:00 2011

Tools Copyright (c) 1996-2006 Texas Instruments Incorporated
C:\DOCUME~1\ADMINI~1\LOCALS~1\Temp\TI1122                            PAGE  101

    5267                      .dwpsn  "ff.c",2341,2
    5268 0000096c 2901          CLRC      SXM
    5269 0000096d FF20          MOV       ACC,#65526            ; |2341| 
         0000096e FFF6 
    5270 0000096f 0F58          CMPL      ACC,*-SP[24]          ; |2341| 
    5271 00000970 6603          B         L181,HI               ; |2341| 
    5272                      ; branchcc occurs ; |2341| 
    5273                      .dwpsn  "ff.c",2341,28
    5274 00000971 2848          MOV       *-SP[8],#3            ; |2341| 
         00000972 0003 
    5275              L181:    
    5276                      .dwpsn  "ff.c",2344,2
    5277 00000973 8A60          MOVL      XAR4,*-SP[32]         ; |2344| 
    5278 00000974 0202          MOVB      ACC,#2
    5279 00000975 D010          MOVB      XAR0,#16              ; |2344| 
    5280 00000976 0758          ADDL      ACC,*-SP[24]          ; |2344| 
    5281 00000977 1E94          MOVL      *+XAR4[AR0],ACC       ; |2344| 
    5282                      .dwpsn  "ff.c",2345,2
    5283 00000978 8A60          MOVL      XAR4,*-SP[32]         ; |2345| 
    5284 00000979 0656          MOVL      ACC,*-SP[22]          ; |2345| 
    5285 0000097a D018          MOVB      XAR0,#24              ; |2345| 
    5286 0000097b 0750          ADDL      ACC,*-SP[16]          ; |2345| 
    5287 0000097c 1E94          MOVL      *+XAR4[AR0],ACC       ; |2345| 
    5288                      .dwpsn  "ff.c",2346,2
    5289 0000097d 8A60          MOVL      XAR4,*-SP[32]         ; |2346| 
    5290 0000097e 0E5B          MOVU      ACC,*-SP[27]
    5291 0000097f D014          MOVB      XAR0,#20              ; |2346| 
    5292 00000980 0750          ADDL      ACC,*-SP[16]          ; |2346| 
    5293 00000981 1E94          MOVL      *+XAR4[AR0],ACC       ; |2346| 
    5294                      .dwpsn  "ff.c",2347,2
    5295 00000982 9248          MOV       AL,*-SP[8]            ; |2347| 
    5296 00000983 5203          CMPB      AL,#3                 ; |2347| 
    5297 00000984 ED2F          BF        L183,NEQ              ; |2347| 
    5298                      ; branchcc occurs ; |2347| 
    5299                      .dwpsn  "ff.c",2349,3
    5300 00000985 8A60          MOVL      XAR4,*-SP[32]         ; |2349| 
    5301 00000986 92FC          MOV       AL,*+XAR4[7]          ; |2349| 
    5302 00000987 EC04          BF        L182,EQ               ; |2349| 
    5303                      ; branchcc occurs ; |2349| 
    5304                      .dwpsn  "ff.c",2349,24
    5305 00000988 9A0D          MOVB      AL,#13                ; |2349| 
    5306 00000989 FFEF          B         L190,UNC              ; |2349| 
         0000098a 0137 
    5307                      ; branch occurs ; |2349| 
    5308              L182:    
    5309                      .dwpsn  "ff.c",2350,3
    5310 0000098b 8A60          MOVL      XAR4,*-SP[32]         ; |2350| 
    5311 0000098c D04A          MOVB      XAR0,#74              ; |2350| 
    5312 0000098d 2594          MOV       ACC,*+XAR4[AR0] << 16 ; |2350| 
    5313 0000098e 8A60          MOVL      XAR4,*-SP[32]         ; |2350| 
    5314 0000098f D04B          MOVB      XAR0,#75              ; |2350| 
    5315 00000990 FF5A          MOVL      P,ACC                 ; |2350| 
    5316 00000991 28AC          MOV       T,#24                 ; |2350| 
         00000992 0018 
    5317 00000993 0E94          MOVU      ACC,*+XAR4[AR0]
TMS320C2000 COFF Assembler PC v4.1.3 Thu May 05 10:06:00 2011

Tools Copyright (c) 1996-2006 Texas Instruments Incorporated
C:\DOCUME~1\ADMINI~1\LOCALS~1\Temp\TI1122                            PAGE  102

    5318 00000994 1E62          MOVL      *-SP[34],ACC          ; |2350| 
    5319 00000995 563B          LSLL      ACC,T                 ; |2350| 
    5320 00000996 1E62          MOVL      *-SP[34],ACC          ; |2350| 
    5321 00000997 9262          MOV       AL,*-SP[34]           ; |2350| 
    5322 00000998 CAAB          OR        AL,PL                 ; |2350| 
    5323 00000999 9662          MOV       *-SP[34],AL           ; |2350| 
    5324 0000099a 8A60          MOVL      XAR4,*-SP[32]         ; |2350| 
    5325 0000099b 27AA          MOV       PL,PH                 ; |2350| 
    5326 0000099c 9261          MOV       AL,*-SP[33]           ; |2350| 
    5327 0000099d D049          MOVB      XAR0,#73              ; |2350| 
    5328 0000099e CAAB          OR        AL,PL                 ; |2350| 
    5329 0000099f 9661          MOV       *-SP[33],AL           ; |2350| 
    5330 000009a0 5603          MOV       ACC,*+XAR4[AR0] << #8 ; |2350| 
         000009a1 0894 
    5331 000009a2 88A9          MOVZ      AR6,AL                ; |2350| 
    5332 000009a3 0662          MOVL      ACC,*-SP[34]          ; |2350| 
    5333 000009a4 8A60          MOVL      XAR4,*-SP[32]         ; |2350| 
    5334 000009a5 AFA6          OR        ACC,AR6               ; |2350| 
    5335 000009a6 D048          MOVB      XAR0,#72              ; |2350| 
    5336 000009a7 1E62          MOVL      *-SP[34],ACC          ; |2350| 
    5337 000009a8 AF94          OR        ACC,*+XAR4[AR0]       ; |2350| 
    5338 000009a9 8A60          MOVL      XAR4,*-SP[32]         ; |2350| 
    5339 000009aa D016          MOVB      XAR0,#22              ; |2350| 
    5340 000009ab 1E62          MOVL      *-SP[34],ACC          ; |2350| 
    5341 000009ac 1E94          MOVL      *+XAR4[AR0],ACC       ; |2350| 
    5342                      .dwpsn  "ff.c",2351,3
    5343 000009ad 8A60          MOVL      XAR4,*-SP[32]         ; |2351| 
    5344 000009ae D010          MOVB      XAR0,#16              ; |2351| 
    5345 000009af 0694          MOVL      ACC,*+XAR4[AR0]       ; |2351| 
    5346 000009b0 FF31          LSL       ACC,2                 ; |2351| 
    5347 000009b1 1E5A          MOVL      *-SP[26],ACC          ; |2351| 
    5348                      .dwpsn  "ff.c",2352,2
    5349 000009b2 6F23          B         L187,UNC              ; |2352| 
    5350                      ; branch occurs ; |2352| 
    5351              L183:    
    5352                      .dwpsn  "ff.c",2355,3
    5353 000009b3 8A60          MOVL      XAR4,*-SP[32]         ; |2355| 
    5354 000009b4 92FC          MOV       AL,*+XAR4[7]          ; |2355| 
    5355 000009b5 ED04          BF        L184,NEQ              ; |2355| 
    5356                      ; branchcc occurs ; |2355| 
    5357                      .dwpsn  "ff.c",2355,25
    5358 000009b6 9A0D          MOVB      AL,#13                ; |2355| 
    5359 000009b7 FFEF          B         L190,UNC              ; |2355| 
         000009b8 0109 
    5360                      ; branch occurs ; |2355| 
    5361              L184:    
    5362                      .dwpsn  "ff.c",2356,3
    5363 000009b9 8A60          MOVL      XAR4,*-SP[32]         ; |2356| 
    5364 000009ba 0652          MOVL      ACC,*-SP[18]          ; |2356| 
    5365 000009bb 0794          ADDL      ACC,*+XAR4[AR0]       ; |2356| 
    5366 000009bc 8A60          MOVL      XAR4,*-SP[32]         ; |2356| 
    5367 000009bd D016          MOVB      XAR0,#22              ; |2356| 
    5368 000009be 1E94          MOVL      *+XAR4[AR0],ACC       ; |2356| 
    5369                      .dwpsn  "ff.c",2357,3
    5370 000009bf 9248          MOV       AL,*-SP[8]            ; |2357| 
TMS320C2000 COFF Assembler PC v4.1.3 Thu May 05 10:06:00 2011

Tools Copyright (c) 1996-2006 Texas Instruments Incorporated
C:\DOCUME~1\ADMINI~1\LOCALS~1\Temp\TI1122                            PAGE  103

    5371 000009c0 5202          CMPB      AL,#2                 ; |2357| 
    5372 000009c1 ED06          BF        L185,NEQ              ; |2357| 
    5373                      ; branchcc occurs ; |2357| 
    5374 000009c2 8A60          MOVL      XAR4,*-SP[32]         ; |2357| 
    5375 000009c3 D010          MOVB      XAR0,#16              ; |2357| 
    5376 000009c4 0694          MOVL      ACC,*+XAR4[AR0]       ; |2357| 
    5377 000009c5 FF30          LSL       ACC,1                 ; |2357| 
    5378 000009c6 6F0E          B         L186,UNC              ; |2357| 
    5379                      ; branch occurs ; |2357| 
    5380 000009c7       L185:    
    5381 000009c7 8A60          MOVL      XAR4,*-SP[32]         ; |2357| 
    5382 000009c8 D010          MOVB      XAR0,#16              ; |2357| 
    5383 000009c9 C594          MOVL      XAR7,*+XAR4[AR0]      ; |2357| 
    5384 000009ca 06A7          MOVL      ACC,XAR7              ; |2357| 
    5385 000009cb FF30          LSL       ACC,1                 ; |2357| 
    5386 000009cc 8A60          MOVL      XAR4,*-SP[32]         ; |2357| 
    5387 000009cd 07A7          ADDL      ACC,XAR7
    5388 000009ce FF40          SFR       ACC,1                 ; |2357| 
    5389 000009cf 1EA6          MOVL      XAR6,ACC              ; |2357| 
    5390 000009d0 0694          MOVL      ACC,*+XAR4[AR0]       ; |2357| 
    5391 000009d1 9001          ANDB      AL,#0x01              ; |2357| 
    5392 000009d2 9B00          MOVB      AH,#0
    5393 000009d3 07A6          ADDL      ACC,XAR6
    5394 000009d4       L186:    
    5395 000009d4 1E5A          MOVL      *-SP[26],ACC          ; |2357| 
    5396              L187:    
    5397                      .dwpsn  "ff.c",2360,2
    5398 000009d5 FF20          MOV       ACC,#511              ; |2360| 
         000009d6 01FF 
    5399 000009d7 8360          MOVL      XAR5,*-SP[32]         ; |2360| 
    5400 000009d8 D012          MOVB      XAR0,#18              ; |2360| 
    5401 000009d9 075A          ADDL      ACC,*-SP[26]          ; |2360| 
    5402 000009da FF48          SFR       ACC,9                 ; |2360| 
    5403 000009db 0F95          CMPL      ACC,*+XAR5[AR0]       ; |2360| 
    5404 000009dc 6904          B         L188,LOS              ; |2360| 
    5405                      ; branchcc occurs ; |2360| 
    5406                      .dwpsn  "ff.c",2361,3
    5407 000009dd 9A0D          MOVB      AL,#13                ; |2361| 
    5408 000009de FFEF          B         L190,UNC              ; |2361| 
         000009df 00E2 
    5409                      ; branch occurs ; |2361| 
    5410              L188:    
    5411                      .dwpsn  "ff.c",2365,2
    5412 000009e0 8A60          MOVL      XAR4,*-SP[32]         ; |2365| 
    5413 000009e1 0200          MOVB      ACC,#0
    5414 000009e2 D00C          MOVB      XAR0,#12              ; |2365| 
    5415 000009e3 1901          SUBB      ACC,#1
    5416 000009e4 1E94          MOVL      *+XAR4[AR0],ACC       ; |2365| 
    5417                      .dwpsn  "ff.c",2366,2
    5418 000009e5 8A60          MOVL      XAR4,*-SP[32]         ; |2366| 
    5419 000009e6 D00A          MOVB      XAR0,#10              ; |2366| 
    5420 000009e7 0200          MOVB      ACC,#0
    5421 000009e8 1E94          MOVL      *+XAR4[AR0],ACC       ; |2366| 
    5422                      .dwpsn  "ff.c",2369,2
    5423 000009e9 9248          MOV       AL,*-SP[8]            ; |2369| 
TMS320C2000 COFF Assembler PC v4.1.3 Thu May 05 10:06:00 2011

Tools Copyright (c) 1996-2006 Texas Instruments Incorporated
C:\DOCUME~1\ADMINI~1\LOCALS~1\Temp\TI1122                            PAGE  104

    5424 000009ea 5203          CMPB      AL,#3                 ; |2369| 
    5425 000009eb 56C0          BF        L189,NEQ              ; |2369| 
         000009ec 00C5 
    5426                      ; branchcc occurs ; |2369| 
    5427                      .dwpsn  "ff.c",2371,3
    5428 000009ed 8A60          MOVL      XAR4,*-SP[32]         ; |2371| 
    5429 000009ee 2BEC          MOV       *+XAR4[5],#0          ; |2371| 
    5430                      .dwpsn  "ff.c",2372,3
    5431 000009ef 8360          MOVL      XAR5,*-SP[32]         ; |2372| 
    5432 000009f0 8A60          MOVL      XAR4,*-SP[32]         ; |2372| 
    5433 000009f1 D14D          MOVB      XAR1,#77              ; |2372| 
    5434 000009f2 D04C          MOVB      XAR0,#76              ; |2372| 
    5435 000009f3 5603          MOV       ACC,*+XAR5[AR1] << #8 ; |2372| 
         000009f4 089D 
    5436 000009f5 CA94          OR        AL,*+XAR4[AR0]        ; |2372| 
    5437 000009f6 8A60          MOVL      XAR4,*-SP[32]         ; |2372| 
    5438 000009f7 0EA9          MOVU      ACC,AL
    5439 000009f8 D00E          MOVB      XAR0,#14              ; |2372| 
    5440 000009f9 0750          ADDL      ACC,*-SP[16]          ; |2372| 
    5441 000009fa 1E94          MOVL      *+XAR4[AR0],ACC       ; |2372| 
    5442                      .dwpsn  "ff.c",2373,3
    5443 000009fb 2841          MOV       *-SP[1],#1            ; |2373| 
         000009fc 0001 
    5444 000009fd 8A60          MOVL      XAR4,*-SP[32]         ; |2373| 
    5445 000009fe C460          MOVL      XAR6,*-SP[32]         ; |2373| 
    5446 000009ff 5DCC          MOVZ      AR5,*+XAR4[1]         ; |2373| 
    5447 00000a00 8A60          MOVL      XAR4,*-SP[32]         ; |2373| 
    5448 00000a01 0696          MOVL      ACC,*+XAR6[AR0]       ; |2373| 
    5449 00000a02 DC1C          ADDB      XAR4,#28              ; |2373| 
    5450 00000a03 7640!         LCR       #_disk_read           ; |2373| 
         00000a04 0000 
    5451                      ; call occurs [#_disk_read] ; |2373| 
    5452 00000a05 5200          CMPB      AL,#0                 ; |2373| 
    5453 00000a06 56C0          BF        L189,NEQ              ; |2373| 
         00000a07 00AA 
    5454                      ; branchcc occurs ; |2373| 
    5455 00000a08 8D40          MOVL      XAR1,#539             ; |2373| 
         00000a09 021B 
    5456 00000a0a 8360          MOVL      XAR5,*-SP[32]         ; |2373| 
    5457 00000a0b 8D00          MOVL      XAR0,#538             ; |2373| 
         00000a0c 021A 
    5458 00000a0d 8A60          MOVL      XAR4,*-SP[32]         ; |2373| 
    5459 00000a0e 5603          MOV       ACC,*+XAR5[AR1] << #8 ; |2373| 
         00000a0f 089D 
    5460 00000a10 CA94          OR        AL,*+XAR4[AR0]        ; |2373| 
    5461 00000a11 1BA9          CMP       AL,#43605             ; |2373| 
         00000a12 AA55 
    5462 00000a13 56C0          BF        L189,NEQ              ; |2373| 
         00000a14 009D 
    5463                      ; branchcc occurs ; |2373| 
    5464 00000a15 8A60          MOVL      XAR4,*-SP[32]         ; |2373| 
    5465 00000a16 2901          CLRC      SXM
    5466 00000a17 D01E          MOVB      XAR0,#30              ; |2373| 
    5467 00000a18 2594          MOV       ACC,*+XAR4[AR0] << 16 ; |2373| 
    5468 00000a19 8A60          MOVL      XAR4,*-SP[32]         ; |2373| 
TMS320C2000 COFF Assembler PC v4.1.3 Thu May 05 10:06:00 2011

Tools Copyright (c) 1996-2006 Texas Instruments Incorporated
C:\DOCUME~1\ADMINI~1\LOCALS~1\Temp\TI1122                            PAGE  105

    5469 00000a1a D01F          MOVB      XAR0,#31              ; |2373| 
    5470 00000a1b FF5A          MOVL      P,ACC                 ; |2373| 
    5471 00000a1c 28AC          MOV       T,#24                 ; |2373| 
         00000a1d 0018 
    5472 00000a1e 0E94          MOVU      ACC,*+XAR4[AR0]
    5473 00000a1f 1E62          MOVL      *-SP[34],ACC          ; |2373| 
    5474 00000a20 563B          LSLL      ACC,T                 ; |2373| 
    5475 00000a21 1E62          MOVL      *-SP[34],ACC          ; |2373| 
    5476 00000a22 9262          MOV       AL,*-SP[34]           ; |2373| 
    5477 00000a23 CAAB          OR        AL,PL                 ; |2373| 
    5478 00000a24 9662          MOV       *-SP[34],AL           ; |2373| 
    5479 00000a25 27AA          MOV       PL,PH                 ; |2373| 
    5480 00000a26 9261          MOV       AL,*-SP[33]           ; |2373| 
    5481 00000a27 8A60          MOVL      XAR4,*-SP[32]         ; |2373| 
    5482 00000a28 D01D          MOVB      XAR0,#29              ; |2373| 
    5483 00000a29 CAAB          OR        AL,PL                 ; |2373| 
    5484 00000a2a 9661          MOV       *-SP[33],AL           ; |2373| 
    5485 00000a2b 5603          MOV       ACC,*+XAR4[AR0] << #8 ; |2373| 
         00000a2c 0894 
    5486 00000a2d 88A9          MOVZ      AR6,AL                ; |2373| 
    5487 00000a2e 0662          MOVL      ACC,*-SP[34]          ; |2373| 
    5488 00000a2f AFA6          OR        ACC,AR6               ; |2373| 
    5489 00000a30 28AA          MOV       PH,#16737
         00000a31 4161 
    5490 00000a32 8A60          MOVL      XAR4,*-SP[32]         ; |2373| 
    5491 00000a33 D01C          MOVB      XAR0,#28              ; |2373| 
    5492 00000a34 1E62          MOVL      *-SP[34],ACC          ; |2373| 
    5493 00000a35 28AB          MOV       PL,#21074
         00000a36 5252 
    5494 00000a37 AF94          OR        ACC,*+XAR4[AR0]       ; |2373| 
    5495 00000a38 0FAB          CMPL      ACC,P                 ; |2373| 
    5496 00000a39 1E62          MOVL      *-SP[34],ACC          ; |2373| 
    5497 00000a3a ED76          BF        L189,NEQ              ; |2373| 
    5498                      ; branchcc occurs ; |2373| 
    5499 00000a3b 8D00          MOVL      XAR0,#514             ; |2373| 
         00000a3c 0202 
    5500 00000a3d 8A60          MOVL      XAR4,*-SP[32]         ; |2373| 
    5501 00000a3e 2594          MOV       ACC,*+XAR4[AR0] << 16 ; |2373| 
    5502 00000a3f 8D00          MOVL      XAR0,#515             ; |2373| 
         00000a40 0203 
    5503 00000a41 8A60          MOVL      XAR4,*-SP[32]         ; |2373| 
    5504 00000a42 FF5A          MOVL      P,ACC                 ; |2373| 
    5505 00000a43 28AC          MOV       T,#24                 ; |2373| 
         00000a44 0018 
    5506 00000a45 0E94          MOVU      ACC,*+XAR4[AR0]
    5507 00000a46 1E62          MOVL      *-SP[34],ACC          ; |2373| 
    5508 00000a47 563B          LSLL      ACC,T                 ; |2373| 
    5509 00000a48 1E62          MOVL      *-SP[34],ACC          ; |2373| 
    5510 00000a49 9262          MOV       AL,*-SP[34]           ; |2373| 
    5511 00000a4a CAAB          OR        AL,PL                 ; |2373| 
    5512 00000a4b 9662          MOV       *-SP[34],AL           ; |2373| 
    5513 00000a4c 8D00          MOVL      XAR0,#513             ; |2373| 
         00000a4d 0201 
    5514 00000a4e 27AA          MOV       PL,PH                 ; |2373| 
    5515 00000a4f 8A60          MOVL      XAR4,*-SP[32]         ; |2373| 
TMS320C2000 COFF Assembler PC v4.1.3 Thu May 05 10:06:00 2011

Tools Copyright (c) 1996-2006 Texas Instruments Incorporated
C:\DOCUME~1\ADMINI~1\LOCALS~1\Temp\TI1122                            PAGE  106

    5516 00000a50 9261          MOV       AL,*-SP[33]           ; |2373| 
    5517 00000a51 CAAB          OR        AL,PL                 ; |2373| 
    5518 00000a52 9661          MOV       *-SP[33],AL           ; |2373| 
    5519 00000a53 5603          MOV       ACC,*+XAR4[AR0] << #8 ; |2373| 
         00000a54 0894 
    5520 00000a55 88A9          MOVZ      AR6,AL                ; |2373| 
    5521 00000a56 0662          MOVL      ACC,*-SP[34]          ; |2373| 
    5522 00000a57 AFA6          OR        ACC,AR6               ; |2373| 
    5523 00000a58 8D00          MOVL      XAR0,#512             ; |2373| 
         00000a59 0200 
    5524 00000a5a 8A60          MOVL      XAR4,*-SP[32]         ; |2373| 
    5525 00000a5b 28AA          MOV       PH,#24897
         00000a5c 6141 
    5526 00000a5d 1E62          MOVL      *-SP[34],ACC          ; |2373| 
    5527 00000a5e 28AB          MOV       PL,#29298
         00000a5f 7272 
    5528 00000a60 AF94          OR        ACC,*+XAR4[AR0]       ; |2373| 
    5529 00000a61 0FAB          CMPL      ACC,P                 ; |2373| 
    5530 00000a62 1E62          MOVL      *-SP[34],ACC          ; |2373| 
    5531 00000a63 ED4D          BF        L189,NEQ              ; |2373| 
    5532                      ; branchcc occurs ; |2373| 
    5533                      .dwpsn  "ff.c",2378,4
    5534 00000a64 8D00          MOVL      XAR0,#522             ; |2378| 
         00000a65 020A 
    5535 00000a66 8A60          MOVL      XAR4,*-SP[32]         ; |2378| 
    5536 00000a67 2594          MOV       ACC,*+XAR4[AR0] << 16 ; |2378| 
    5537 00000a68 8D00          MOVL      XAR0,#523             ; |2378| 
         00000a69 020B 
    5538 00000a6a 8A60          MOVL      XAR4,*-SP[32]         ; |2378| 
    5539 00000a6b FF5A          MOVL      P,ACC                 ; |2378| 
    5540 00000a6c 28AC          MOV       T,#24                 ; |2378| 
         00000a6d 0018 
    5541 00000a6e 0E94          MOVU      ACC,*+XAR4[AR0]
    5542 00000a6f 1E62          MOVL      *-SP[34],ACC          ; |2378| 
    5543 00000a70 563B          LSLL      ACC,T                 ; |2378| 
    5544 00000a71 1E62          MOVL      *-SP[34],ACC          ; |2378| 
    5545 00000a72 9262          MOV       AL,*-SP[34]           ; |2378| 
    5546 00000a73 CAAB          OR        AL,PL                 ; |2378| 
    5547 00000a74 9662          MOV       *-SP[34],AL           ; |2378| 
    5548 00000a75 8D00          MOVL      XAR0,#521             ; |2378| 
         00000a76 0209 
    5549 00000a77 27AA          MOV       PL,PH                 ; |2378| 
    5550 00000a78 8A60          MOVL      XAR4,*-SP[32]         ; |2378| 
    5551 00000a79 9261          MOV       AL,*-SP[33]           ; |2378| 
    5552 00000a7a CAAB          OR        AL,PL                 ; |2378| 
    5553 00000a7b 9661          MOV       *-SP[33],AL           ; |2378| 
    5554 00000a7c 5603          MOV       ACC,*+XAR4[AR0] << #8 ; |2378| 
         00000a7d 0894 
    5555 00000a7e 88A9          MOVZ      AR6,AL                ; |2378| 
    5556 00000a7f 8D00          MOVL      XAR0,#520             ; |2378| 
         00000a80 0208 
    5557 00000a81 8A60          MOVL      XAR4,*-SP[32]         ; |2378| 
    5558 00000a82 0662          MOVL      ACC,*-SP[34]          ; |2378| 
    5559 00000a83 AFA6          OR        ACC,AR6               ; |2378| 
    5560 00000a84 1E62          MOVL      *-SP[34],ACC          ; |2378| 
TMS320C2000 COFF Assembler PC v4.1.3 Thu May 05 10:06:00 2011

Tools Copyright (c) 1996-2006 Texas Instruments Incorporated
C:\DOCUME~1\ADMINI~1\LOCALS~1\Temp\TI1122                            PAGE  107

    5561 00000a85 AF94          OR        ACC,*+XAR4[AR0]       ; |2378| 
    5562 00000a86 8A60          MOVL      XAR4,*-SP[32]         ; |2378| 
    5563 00000a87 D00A          MOVB      XAR0,#10              ; |2378| 
    5564 00000a88 1E62          MOVL      *-SP[34],ACC          ; |2378| 
    5565 00000a89 1E94          MOVL      *+XAR4[AR0],ACC       ; |2378| 
    5566                      .dwpsn  "ff.c",2379,4
    5567 00000a8a 8D00          MOVL      XAR0,#518             ; |2379| 
         00000a8b 0206 
    5568 00000a8c 8A60          MOVL      XAR4,*-SP[32]         ; |2379| 
    5569 00000a8d 2594          MOV       ACC,*+XAR4[AR0] << 16 ; |2379| 
    5570 00000a8e 8D00          MOVL      XAR0,#519             ; |2379| 
         00000a8f 0207 
    5571 00000a90 8A60          MOVL      XAR4,*-SP[32]         ; |2379| 
    5572 00000a91 FF5A          MOVL      P,ACC                 ; |2379| 
    5573 00000a92 0E94          MOVU      ACC,*+XAR4[AR0]
    5574 00000a93 28AC          MOV       T,#24                 ; |2379| 
         00000a94 0018 
    5575 00000a95 1E62          MOVL      *-SP[34],ACC          ; |2379| 
    5576 00000a96 563B          LSLL      ACC,T                 ; |2379| 
    5577 00000a97 1E62          MOVL      *-SP[34],ACC          ; |2379| 
    5578 00000a98 9262          MOV       AL,*-SP[34]           ; |2379| 
    5579 00000a99 CAAB          OR        AL,PL                 ; |2379| 
    5580 00000a9a 9662          MOV       *-SP[34],AL           ; |2379| 
    5581 00000a9b 27AA          MOV       PL,PH                 ; |2379| 
    5582 00000a9c 8D00          MOVL      XAR0,#517             ; |2379| 
         00000a9d 0205 
    5583 00000a9e 8A60          MOVL      XAR4,*-SP[32]         ; |2379| 
    5584 00000a9f 9261          MOV       AL,*-SP[33]           ; |2379| 
    5585 00000aa0 CAAB          OR        AL,PL                 ; |2379| 
    5586 00000aa1 9661          MOV       *-SP[33],AL           ; |2379| 
    5587 00000aa2 5603          MOV       ACC,*+XAR4[AR0] << #8 ; |2379| 
         00000aa3 0894 
    5588 00000aa4 88A9          MOVZ      AR6,AL                ; |2379| 
    5589 00000aa5 8D00          MOVL      XAR0,#516             ; |2379| 
         00000aa6 0204 
    5590 00000aa7 8A60          MOVL      XAR4,*-SP[32]         ; |2379| 
    5591 00000aa8 0662          MOVL      ACC,*-SP[34]          ; |2379| 
    5592 00000aa9 AFA6          OR        ACC,AR6               ; |2379| 
    5593 00000aaa 1E62          MOVL      *-SP[34],ACC          ; |2379| 
    5594 00000aab AF94          OR        ACC,*+XAR4[AR0]       ; |2379| 
    5595 00000aac 8A60          MOVL      XAR4,*-SP[32]         ; |2379| 
    5596 00000aad D00C          MOVB      XAR0,#12              ; |2379| 
    5597 00000aae 1E62          MOVL      *-SP[34],ACC          ; |2379| 
    5598 00000aaf 1E94          MOVL      *+XAR4[AR0],ACC       ; |2379| 
    5599              L189:    
    5600                      .dwpsn  "ff.c",2383,2
    5601 00000ab0 8A60          MOVL      XAR4,*-SP[32]         ; |2383| 
    5602 00000ab1 9248          MOV       AL,*-SP[8]            ; |2383| 
    5603 00000ab2 96C4          MOV       *+XAR4[0],AL          ; |2383| 
    5604                      .dwpsn  "ff.c",2384,2
    5605 00000ab3 8A60          MOVL      XAR4,*-SP[32]         ; |2384| 
    5606 00000ab4 761F-         MOVW      DP,#_Fsid
         00000ab5 0000 
    5607 00000ab6 0A00-         INC       @_Fsid                ; |2384| 
    5608 00000ab7 9200-         MOV       AL,@_Fsid             ; |2384| 
TMS320C2000 COFF Assembler PC v4.1.3 Thu May 05 10:06:00 2011

Tools Copyright (c) 1996-2006 Texas Instruments Incorporated
C:\DOCUME~1\ADMINI~1\LOCALS~1\Temp\TI1122                            PAGE  108

    5609 00000ab8 96F4          MOV       *+XAR4[6],AL          ; |2384| 
    5610                      .dwpsn  "ff.c",2385,2
    5611 00000ab9 8A60          MOVL      XAR4,*-SP[32]         ; |2385| 
    5612 00000aba 0200          MOVB      ACC,#0
    5613 00000abb D01A          MOVB      XAR0,#26              ; |2385| 
    5614 00000abc 1E94          MOVL      *+XAR4[AR0],ACC       ; |2385| 
    5615                      .dwpsn  "ff.c",2386,2
    5616 00000abd 8A60          MOVL      XAR4,*-SP[32]         ; |2386| 
    5617 00000abe 2BE4          MOV       *+XAR4[4],#0          ; |2386| 
    5618                      .dwpsn  "ff.c",2394,2
    5619 00000abf 9A00          MOVB      AL,#0
    5620              L190:    
    5621                      .dwpsn  "ff.c",2395,1
    5622 00000ac0 FEA2          SUBB      SP,#34                ; |2394| 
    5623                      .dwcfa  0x1d, -4
    5624 00000ac1 8BBE          MOVL      XAR1,*--SP            ; |2394| 
    5625                      .dwcfa  0x1d, -2
    5626                      .dwcfa  0xc0, 7
    5627 00000ac2 0006          LRETR
    5628                      ; return occurs
    5629                      .dwattr DW$304, DW_AT_end_file("ff.c")
    5630                      .dwattr DW$304, DW_AT_end_line(0x95b)
    5631                      .dwattr DW$304, DW_AT_end_column(0x01)
    5632                      .dwendentry
    5633                      .dwendtag DW$304
    5634              
    5635 00000ac3               .sect   ".text"
    5636              
    5637              DW$325  .dwtag  DW_TAG_subprogram, DW_AT_name("validate"), DW_AT_symbol_name("_validate")
    5638                      .dwattr DW$325, DW_AT_low_pc(_validate)
    5639                      .dwattr DW$325, DW_AT_high_pc(0x00)
    5640                      .dwattr DW$325, DW_AT_begin_file("ff.c")
    5641                      .dwattr DW$325, DW_AT_begin_line(0x965)
    5642                      .dwattr DW$325, DW_AT_begin_column(0x09)
    5643                      .dwpsn  "ff.c",2409,1
    5644              
    5645                      .dwfde DW$CIE
    5646              
    5647              ;***************************************************************
    5648              ;* FNAME: _validate                     FR SIZE:   4           *
    5649              ;*                                                             *
    5650              ;* FUNCTION ENVIRONMENT                                        *
    5651              ;*                                                             *
    5652              ;* FUNCTION PROPERTIES                                         *
    5653              ;*                            0 Parameter,  3 Auto,  0 SOE     *
    5654              ;***************************************************************
    5655              
    5656              _validate:
    5657                      .dwcfa  0x1d, -2
    5658                      .dwcfa  0x1c, 26, 0
    5659                      .dwcfa  0x09, 40, 26
    5660 00000ac3 FE04          ADDB      SP,#4
    5661                      .dwcfa  0x1d, -6
    5662              ;* AR4   assigned to _fs
    5663              DW$326  .dwtag  DW_TAG_formal_parameter, DW_AT_name("fs"), DW_AT_symbol_name("_fs")
TMS320C2000 COFF Assembler PC v4.1.3 Thu May 05 10:06:00 2011

Tools Copyright (c) 1996-2006 Texas Instruments Incorporated
C:\DOCUME~1\ADMINI~1\LOCALS~1\Temp\TI1122                            PAGE  109

    5664                      .dwattr DW$326, DW_AT_type(*DW$T$31)
    5665                      .dwattr DW$326, DW_AT_location[DW_OP_reg12]
    5666              ;* AL    assigned to _id
    5667              DW$327  .dwtag  DW_TAG_formal_parameter, DW_AT_name("id"), DW_AT_symbol_name("_id")
    5668                      .dwattr DW$327, DW_AT_type(*DW$T$24)
    5669                      .dwattr DW$327, DW_AT_location[DW_OP_reg0]
    5670              DW$328  .dwtag  DW_TAG_variable, DW_AT_name("fs"), DW_AT_symbol_name("_fs")
    5671                      .dwattr DW$328, DW_AT_type(*DW$T$31)
    5672                      .dwattr DW$328, DW_AT_location[DW_OP_breg20 -2]
    5673              DW$329  .dwtag  DW_TAG_variable, DW_AT_name("id"), DW_AT_symbol_name("_id")
    5674                      .dwattr DW$329, DW_AT_type(*DW$T$24)
    5675                      .dwattr DW$329, DW_AT_location[DW_OP_breg20 -3]
    5676 00000ac4 9643          MOV       *-SP[3],AL            ; |2409| 
    5677 00000ac5 A842          MOVL      *-SP[2],XAR4          ; |2409| 
    5678                      .dwpsn  "ff.c",2410,2
    5679 00000ac6 0642          MOVL      ACC,*-SP[2]           ; |2410| 
    5680 00000ac7 EC08          BF        L191,EQ               ; |2410| 
    5681                      ; branchcc occurs ; |2410| 
    5682 00000ac8 8A42          MOVL      XAR4,*-SP[2]          ; |2410| 
    5683 00000ac9 92C4          MOV       AL,*+XAR4[0]          ; |2410| 
    5684 00000aca EC05          BF        L191,EQ               ; |2410| 
    5685                      ; branchcc occurs ; |2410| 
    5686 00000acb 8A42          MOVL      XAR4,*-SP[2]          ; |2410| 
    5687 00000acc 9243          MOV       AL,*-SP[3]            ; |2410| 
    5688 00000acd 54F4          CMP       AL,*+XAR4[6]          ; |2410| 
    5689 00000ace EC03          BF        L192,EQ               ; |2410| 
    5690                      ; branchcc occurs ; |2410| 
    5691              L191:    
    5692                      .dwpsn  "ff.c",2411,3
    5693 00000acf 9A09          MOVB      AL,#9                 ; |2411| 
    5694 00000ad0 6F11          B         L195,UNC              ; |2411| 
    5695                      ; branch occurs ; |2411| 
    5696              L192:    
    5697                      .dwpsn  "ff.c",2413,2
    5698 00000ad1 8A42          MOVL      XAR4,*-SP[2]          ; |2413| 
    5699 00000ad2 7640'         LCR       #_lock_fs             ; |2413| 
         00000ad3 005B 
    5700                      ; call occurs [#_lock_fs] ; |2413| 
    5701 00000ad4 5200          CMPB      AL,#0                 ; |2413| 
    5702 00000ad5 ED03          BF        L193,NEQ              ; |2413| 
    5703                      ; branchcc occurs ; |2413| 
    5704 00000ad6 9A0F          MOVB      AL,#15                ; |2413| 
    5705 00000ad7 6F0A          B         L195,UNC              ; |2413| 
    5706                      ; branch occurs ; |2413| 
    5707              L193:    
    5708                      .dwpsn  "ff.c",2415,2
    5709 00000ad8 8A42          MOVL      XAR4,*-SP[2]          ; |2415| 
    5710 00000ad9 92CC          MOV       AL,*+XAR4[1]          ; |2415| 
    5711 00000ada 7640!         LCR       #_disk_status         ; |2415| 
         00000adb 0000 
    5712                      ; call occurs [#_disk_status] ; |2415| 
    5713 00000adc 9001          ANDB      AL,#1                 ; |2415| 
    5714 00000add EC03          BF        L194,EQ               ; |2415| 
    5715                      ; branchcc occurs ; |2415| 
    5716                      .dwpsn  "ff.c",2416,3
TMS320C2000 COFF Assembler PC v4.1.3 Thu May 05 10:06:00 2011

Tools Copyright (c) 1996-2006 Texas Instruments Incorporated
C:\DOCUME~1\ADMINI~1\LOCALS~1\Temp\TI1122                            PAGE  110

    5717 00000ade 9A03          MOVB      AL,#3                 ; |2416| 
    5718 00000adf 6F02          B         L195,UNC              ; |2416| 
    5719                      ; branch occurs ; |2416| 
    5720              L194:    
    5721                      .dwpsn  "ff.c",2418,2
    5722 00000ae0 9A00          MOVB      AL,#0
    5723              L195:    
    5724                      .dwpsn  "ff.c",2419,1
    5725 00000ae1 FE84          SUBB      SP,#4                 ; |2418| 
    5726                      .dwcfa  0x1d, -2
    5727 00000ae2 0006          LRETR
    5728                      ; return occurs
    5729                      .dwattr DW$325, DW_AT_end_file("ff.c")
    5730                      .dwattr DW$325, DW_AT_end_line(0x973)
    5731                      .dwattr DW$325, DW_AT_end_column(0x01)
    5732                      .dwendentry
    5733                      .dwendtag DW$325
    5734              
    5735 00000ae3               .sect   ".text"
    5736                      .global _f_mount
    5737              
    5738              DW$330  .dwtag  DW_TAG_subprogram, DW_AT_name("f_mount"), DW_AT_symbol_name("_f_mount")
    5739                      .dwattr DW$330, DW_AT_low_pc(_f_mount)
    5740                      .dwattr DW$330, DW_AT_high_pc(0x00)
    5741                      .dwattr DW$330, DW_AT_begin_file("ff.c")
    5742                      .dwattr DW$330, DW_AT_begin_line(0x984)
    5743                      .dwattr DW$330, DW_AT_begin_column(0x09)
    5744                      .dwpsn  "ff.c",2440,1
    5745              
    5746                      .dwfde DW$CIE
    5747              
    5748              ;***************************************************************
    5749              ;* FNAME: _f_mount                      FR SIZE:   6           *
    5750              ;*                                                             *
    5751              ;* FUNCTION ENVIRONMENT                                        *
    5752              ;*                                                             *
    5753              ;* FUNCTION PROPERTIES                                         *
    5754              ;*                            0 Parameter,  6 Auto,  0 SOE     *
    5755              ;***************************************************************
    5756              
    5757              _f_mount:
    5758                      .dwcfa  0x1d, -2
    5759                      .dwcfa  0x1c, 26, 0
    5760                      .dwcfa  0x09, 40, 26
    5761 00000ae3 FE06          ADDB      SP,#6
    5762                      .dwcfa  0x1d, -8
    5763              ;* AL    assigned to _vol
    5764              DW$331  .dwtag  DW_TAG_formal_parameter, DW_AT_name("vol"), DW_AT_symbol_name("_vol")
    5765                      .dwattr DW$331, DW_AT_type(*DW$T$23)
    5766                      .dwattr DW$331, DW_AT_location[DW_OP_reg0]
    5767              ;* AR4   assigned to _fs
    5768              DW$332  .dwtag  DW_TAG_formal_parameter, DW_AT_name("fs"), DW_AT_symbol_name("_fs")
    5769                      .dwattr DW$332, DW_AT_type(*DW$T$31)
    5770                      .dwattr DW$332, DW_AT_location[DW_OP_reg12]
    5771              DW$333  .dwtag  DW_TAG_variable, DW_AT_name("vol"), DW_AT_symbol_name("_vol")
TMS320C2000 COFF Assembler PC v4.1.3 Thu May 05 10:06:00 2011

Tools Copyright (c) 1996-2006 Texas Instruments Incorporated
C:\DOCUME~1\ADMINI~1\LOCALS~1\Temp\TI1122                            PAGE  111

    5772                      .dwattr DW$333, DW_AT_type(*DW$T$23)
    5773                      .dwattr DW$333, DW_AT_location[DW_OP_breg20 -1]
    5774              DW$334  .dwtag  DW_TAG_variable, DW_AT_name("fs"), DW_AT_symbol_name("_fs")
    5775                      .dwattr DW$334, DW_AT_type(*DW$T$31)
    5776                      .dwattr DW$334, DW_AT_location[DW_OP_breg20 -4]
    5777              DW$335  .dwtag  DW_TAG_variable, DW_AT_name("rfs"), DW_AT_symbol_name("_rfs")
    5778                      .dwattr DW$335, DW_AT_type(*DW$T$31)
    5779                      .dwattr DW$335, DW_AT_location[DW_OP_breg20 -6]
    5780 00000ae4 A844          MOVL      *-SP[4],XAR4          ; |2440| 
    5781 00000ae5 9641          MOV       *-SP[1],AL            ; |2440| 
    5782                      .dwpsn  "ff.c",2444,2
    5783 00000ae6 5200          CMPB      AL,#0                 ; |2444| 
    5784 00000ae7 EC03          BF        L196,EQ               ; |2444| 
    5785                      ; branchcc occurs ; |2444| 
    5786                      .dwpsn  "ff.c",2445,3
    5787 00000ae8 9A0B          MOVB      AL,#11                ; |2445| 
    5788 00000ae9 6F2C          B         L200,UNC              ; |2445| 
    5789                      ; branch occurs ; |2445| 
    5790              L196:    
    5791                      .dwpsn  "ff.c",2446,2
    5792 00000aea 0E41          MOVU      ACC,*-SP[1]
    5793 00000aeb 8F00-         MOVL      XAR4,#_FatFs          ; |2446| 
         00000aec 0002 
    5794 00000aed FF30          LSL       ACC,1                 ; |2446| 
    5795 00000aee 5601          ADDL      XAR4,ACC
         00000aef 00A4 
    5796 00000af0 06C4          MOVL      ACC,*+XAR4[0]         ; |2446| 
    5797 00000af1 1E46          MOVL      *-SP[6],ACC           ; |2446| 
    5798                      .dwpsn  "ff.c",2448,2
    5799 00000af2 0646          MOVL      ACC,*-SP[6]           ; |2448| 
    5800 00000af3 EC0C          BF        L198,EQ               ; |2448| 
    5801                      ; branchcc occurs ; |2448| 
    5802                      .dwpsn  "ff.c",2454,3
    5803 00000af4 8A46          MOVL      XAR4,*-SP[6]          ; |2454| 
    5804 00000af5 D008          MOVB      XAR0,#8               ; |2454| 
    5805 00000af6 8A94          MOVL      XAR4,*+XAR4[AR0]      ; |2454| 
    5806 00000af7 7640!         LCR       #_ff_del_syncobj      ; |2454| 
         00000af8 0000 
    5807                      ; call occurs [#_ff_del_syncobj] ; |2454| 
    5808 00000af9 5200          CMPB      AL,#0                 ; |2454| 
    5809 00000afa ED03          BF        L197,NEQ              ; |2454| 
    5810                      ; branchcc occurs ; |2454| 
    5811                      .dwpsn  "ff.c",2454,39
    5812 00000afb 9A02          MOVB      AL,#2                 ; |2454| 
    5813 00000afc 6F19          B         L200,UNC              ; |2454| 
    5814                      ; branch occurs ; |2454| 
    5815              L197:    
    5816                      .dwpsn  "ff.c",2456,3
    5817 00000afd 8A46          MOVL      XAR4,*-SP[6]          ; |2456| 
    5818 00000afe 2BC4          MOV       *+XAR4[0],#0          ; |2456| 
    5819              L198:    
    5820                      .dwpsn  "ff.c",2459,2
    5821 00000aff 0644          MOVL      ACC,*-SP[4]           ; |2459| 
    5822 00000b00 EC0C          BF        L199,EQ               ; |2459| 
    5823                      ; branchcc occurs ; |2459| 
TMS320C2000 COFF Assembler PC v4.1.3 Thu May 05 10:06:00 2011

Tools Copyright (c) 1996-2006 Texas Instruments Incorporated
C:\DOCUME~1\ADMINI~1\LOCALS~1\Temp\TI1122                            PAGE  112

    5824                      .dwpsn  "ff.c",2461,3
    5825 00000b01 8A44          MOVL      XAR4,*-SP[4]          ; |2461| 
    5826 00000b02 2BC4          MOV       *+XAR4[0],#0          ; |2461| 
    5827                      .dwpsn  "ff.c",2463,3
    5828 00000b03 8A44          MOVL      XAR4,*-SP[4]          ; |2463| 
    5829 00000b04 9241          MOV       AL,*-SP[1]            ; |2463| 
    5830 00000b05 DC08          ADDB      XAR4,#8               ; |2463| 
    5831 00000b06 7640!         LCR       #_ff_cre_syncobj      ; |2463| 
         00000b07 0000 
    5832                      ; call occurs [#_ff_cre_syncobj] ; |2463| 
    5833 00000b08 5200          CMPB      AL,#0                 ; |2463| 
    5834 00000b09 ED03          BF        L199,NEQ              ; |2463| 
    5835                      ; branchcc occurs ; |2463| 
    5836                      .dwpsn  "ff.c",2463,44
    5837 00000b0a 9A02          MOVB      AL,#2                 ; |2463| 
    5838 00000b0b 6F0A          B         L200,UNC              ; |2463| 
    5839                      ; branch occurs ; |2463| 
    5840              L199:    
    5841                      .dwpsn  "ff.c",2466,2
    5842 00000b0c 0E41          MOVU      ACC,*-SP[1]
    5843 00000b0d 8F00-         MOVL      XAR4,#_FatFs          ; |2466| 
         00000b0e 0002 
    5844 00000b0f FF30          LSL       ACC,1                 ; |2466| 
    5845 00000b10 5601          ADDL      XAR4,ACC
         00000b11 00A4 
    5846 00000b12 0644          MOVL      ACC,*-SP[4]           ; |2466| 
    5847 00000b13 1EC4          MOVL      *+XAR4[0],ACC         ; |2466| 
    5848                      .dwpsn  "ff.c",2468,2
    5849 00000b14 9A00          MOVB      AL,#0
    5850              L200:    
    5851                      .dwpsn  "ff.c",2469,1
    5852 00000b15 FE86          SUBB      SP,#6                 ; |2468| 
    5853                      .dwcfa  0x1d, -2
    5854 00000b16 0006          LRETR
    5855                      ; return occurs
    5856                      .dwattr DW$330, DW_AT_end_file("ff.c")
    5857                      .dwattr DW$330, DW_AT_end_line(0x9a5)
    5858                      .dwattr DW$330, DW_AT_end_column(0x01)
    5859                      .dwendentry
    5860                      .dwendtag DW$330
    5861              
    5862 00000b17               .sect   ".text"
    5863                      .global _f_open
    5864              
    5865              DW$336  .dwtag  DW_TAG_subprogram, DW_AT_name("f_open"), DW_AT_symbol_name("_f_open")
    5866                      .dwattr DW$336, DW_AT_low_pc(_f_open)
    5867                      .dwattr DW$336, DW_AT_high_pc(0x00)
    5868                      .dwattr DW$336, DW_AT_begin_file("ff.c")
    5869                      .dwattr DW$336, DW_AT_begin_line(0x9ae)
    5870                      .dwattr DW$336, DW_AT_begin_column(0x09)
    5871                      .dwpsn  "ff.c",2483,1
    5872              
    5873                      .dwfde DW$CIE
    5874              
    5875              ;***************************************************************
TMS320C2000 COFF Assembler PC v4.1.3 Thu May 05 10:06:00 2011

Tools Copyright (c) 1996-2006 Texas Instruments Incorporated
C:\DOCUME~1\ADMINI~1\LOCALS~1\Temp\TI1122                            PAGE  113

    5876              ;* FNAME: _f_open                       FR SIZE:  42           *
    5877              ;*                                                             *
    5878              ;* FUNCTION ENVIRONMENT                                        *
    5879              ;*                                                             *
    5880              ;* FUNCTION PROPERTIES                                         *
    5881              ;*                            0 Parameter, 40 Auto,  2 SOE     *
    5882              ;***************************************************************
    5883              
    5884              _f_open:
    5885                      .dwcfa  0x1d, -2
    5886                      .dwcfa  0x1c, 26, 0
    5887                      .dwcfa  0x09, 40, 26
    5888 00000b17 B2BD          MOVL      *SP++,XAR1
    5889                      .dwcfa  0x80, 7, 2
    5890                      .dwcfa  0x1d, -4
    5891 00000b18 FE28          ADDB      SP,#40
    5892                      .dwcfa  0x1d, -44
    5893              ;* AR4   assigned to _fp
    5894              DW$337  .dwtag  DW_TAG_formal_parameter, DW_AT_name("fp"), DW_AT_symbol_name("_fp")
    5895                      .dwattr DW$337, DW_AT_type(*DW$T$89)
    5896                      .dwattr DW$337, DW_AT_location[DW_OP_reg12]
    5897              ;* AR5   assigned to _path
    5898              DW$338  .dwtag  DW_TAG_formal_parameter, DW_AT_name("path"), DW_AT_symbol_name("_path")
    5899                      .dwattr DW$338, DW_AT_type(*DW$T$93)
    5900                      .dwattr DW$338, DW_AT_location[DW_OP_reg14]
    5901              ;* AL    assigned to _mode
    5902              DW$339  .dwtag  DW_TAG_formal_parameter, DW_AT_name("mode"), DW_AT_symbol_name("_mode")
    5903                      .dwattr DW$339, DW_AT_type(*DW$T$23)
    5904                      .dwattr DW$339, DW_AT_location[DW_OP_reg0]
    5905              DW$340  .dwtag  DW_TAG_variable, DW_AT_name("fp"), DW_AT_symbol_name("_fp")
    5906                      .dwattr DW$340, DW_AT_type(*DW$T$89)
    5907                      .dwattr DW$340, DW_AT_location[DW_OP_breg20 -2]
    5908              DW$341  .dwtag  DW_TAG_variable, DW_AT_name("path"), DW_AT_symbol_name("_path")
    5909                      .dwattr DW$341, DW_AT_type(*DW$T$93)
    5910                      .dwattr DW$341, DW_AT_location[DW_OP_breg20 -4]
    5911              DW$342  .dwtag  DW_TAG_variable, DW_AT_name("mode"), DW_AT_symbol_name("_mode")
    5912                      .dwattr DW$342, DW_AT_type(*DW$T$23)
    5913                      .dwattr DW$342, DW_AT_location[DW_OP_breg20 -5]
    5914              DW$343  .dwtag  DW_TAG_variable, DW_AT_name("res"), DW_AT_symbol_name("_res")
    5915                      .dwattr DW$343, DW_AT_type(*DW$T$49)
    5916                      .dwattr DW$343, DW_AT_location[DW_OP_breg20 -6]
    5917              DW$344  .dwtag  DW_TAG_variable, DW_AT_name("dj"), DW_AT_symbol_name("_dj")
    5918                      .dwattr DW$344, DW_AT_type(*DW$T$52)
    5919                      .dwattr DW$344, DW_AT_location[DW_OP_breg20 -20]
    5920              DW$345  .dwtag  DW_TAG_variable, DW_AT_name("dir"), DW_AT_symbol_name("_dir")
    5921                      .dwattr DW$345, DW_AT_type(*DW$T$32)
    5922                      .dwattr DW$345, DW_AT_location[DW_OP_breg20 -22]
    5923              DW$346  .dwtag  DW_TAG_variable, DW_AT_name("sfn"), DW_AT_symbol_name("_sfn")
    5924                      .dwattr DW$346, DW_AT_type(*DW$T$66)
    5925                      .dwattr DW$346, DW_AT_location[DW_OP_breg20 -34]
    5926 00000b19 9645          MOV       *-SP[5],AL            ; |2483| 
    5927 00000b1a A044          MOVL      *-SP[4],XAR5          ; |2483| 
    5928 00000b1b A842          MOVL      *-SP[2],XAR4          ; |2483| 
    5929                      .dwpsn  "ff.c",2490,2
    5930 00000b1c 8A42          MOVL      XAR4,*-SP[2]          ; |2490| 
TMS320C2000 COFF Assembler PC v4.1.3 Thu May 05 10:06:00 2011

Tools Copyright (c) 1996-2006 Texas Instruments Incorporated
C:\DOCUME~1\ADMINI~1\LOCALS~1\Temp\TI1122                            PAGE  114

    5931 00000b1d 0200          MOVB      ACC,#0
    5932 00000b1e 1EC4          MOVL      *+XAR4[0],ACC         ; |2490| 
    5933                      .dwpsn  "ff.c",2493,2
    5934 00000b1f 1845          AND       *-SP[5],#0x001f       ; |2493| 
         00000b20 001F 
    5935                      .dwpsn  "ff.c",2494,2
    5936 00000b21 5DAD          MOVZ      AR5,SP                ; |2494| 
    5937 00000b22 5CAD          MOVZ      AR4,SP                ; |2494| 
    5938 00000b23 CC45          AND       AL,*-SP[5],#0xfffe    ; |2494| 
         00000b24 FFFE 
    5939 00000b25 DD94          SUBB      XAR5,#20              ; |2494| 
    5940 00000b26 DC84          SUBB      XAR4,#4               ; |2494| 
    5941 00000b27 7640'         LCR       #_chk_mounted         ; |2494| 
         00000b28 07FC 
    5942                      ; call occurs [#_chk_mounted] ; |2494| 
    5943 00000b29 9646          MOV       *-SP[6],AL            ; |2494| 
    5944                      .dwpsn  "ff.c",2499,2
    5945 00000b2a 5CAD          MOVZ      AR4,SP                ; |2499| 
    5946 00000b2b DCA2          SUBB      XAR4,#34              ; |2499| 
    5947 00000b2c A848          MOVL      *-SP[8],XAR4          ; |2499| 
    5948                      .dwpsn  "ff.c",2500,2
    5949 00000b2d 9246          MOV       AL,*-SP[6]            ; |2500| 
    5950 00000b2e ED07          BF        L201,NEQ              ; |2500| 
    5951                      ; branchcc occurs ; |2500| 
    5952                      .dwpsn  "ff.c",2501,3
    5953 00000b2f 5CAD          MOVZ      AR4,SP                ; |2501| 
    5954 00000b30 8344          MOVL      XAR5,*-SP[4]          ; |2501| 
    5955 00000b31 DC94          SUBB      XAR4,#20              ; |2501| 
    5956 00000b32 7640'         LCR       #_follow_path         ; |2501| 
         00000b33 0722 
    5957                      ; call occurs [#_follow_path] ; |2501| 
    5958 00000b34 9646          MOV       *-SP[6],AL            ; |2501| 
    5959              L201:    
    5960                      .dwpsn  "ff.c",2502,2
    5961 00000b35 064A          MOVL      ACC,*-SP[10]          ; |2502| 
    5962 00000b36 1E56          MOVL      *-SP[22],ACC          ; |2502| 
    5963                      .dwpsn  "ff.c",2505,2
    5964 00000b37 9246          MOV       AL,*-SP[6]            ; |2505| 
    5965 00000b38 ED05          BF        L202,NEQ              ; |2505| 
    5966                      ; branchcc occurs ; |2505| 
    5967                      .dwpsn  "ff.c",2507,3
    5968 00000b39 0656          MOVL      ACC,*-SP[22]          ; |2507| 
    5969 00000b3a ED03          BF        L202,NEQ              ; |2507| 
    5970                      ; branchcc occurs ; |2507| 
    5971                      .dwpsn  "ff.c",2508,4
    5972 00000b3b 2846          MOV       *-SP[6],#6            ; |2508| 
         00000b3c 0006 
    5973              L202:    
    5974                      .dwpsn  "ff.c",2515,2
    5975 00000b3d 9245          MOV       AL,*-SP[5]            ; |2515| 
    5976 00000b3e 901C          ANDB      AL,#0x1c              ; |2515| 
    5977 00000b3f EC7F          BF        L207,EQ               ; |2515| 
    5978                      ; branchcc occurs ; |2515| 
    5979              
    5980              DW$347  .dwtag  DW_TAG_lexical_block, DW_AT_low_pc(0x00), DW_AT_high_pc(0x00)
TMS320C2000 COFF Assembler PC v4.1.3 Thu May 05 10:06:00 2011

Tools Copyright (c) 1996-2006 Texas Instruments Incorporated
C:\DOCUME~1\ADMINI~1\LOCALS~1\Temp\TI1122                            PAGE  115

    5981              DW$348  .dwtag  DW_TAG_variable, DW_AT_name("dw"), DW_AT_symbol_name("_dw")
    5982                      .dwattr DW$348, DW_AT_type(*DW$T$27)
    5983                      .dwattr DW$348, DW_AT_location[DW_OP_breg20 -36]
    5984              DW$349  .dwtag  DW_TAG_variable, DW_AT_name("cl"), DW_AT_symbol_name("_cl")
    5985                      .dwattr DW$349, DW_AT_type(*DW$T$27)
    5986                      .dwattr DW$349, DW_AT_location[DW_OP_breg20 -38]
    5987                      .dwpsn  "ff.c",2519,3
    5988 00000b40 9246          MOV       AL,*-SP[6]            ; |2519| 
    5989 00000b41 EC0D          BF        L204,EQ               ; |2519| 
    5990                      ; branchcc occurs ; |2519| 
    5991                      .dwpsn  "ff.c",2521,4
    5992 00000b42 5204          CMPB      AL,#4                 ; |2521| 
    5993 00000b43 ED06          BF        L203,NEQ              ; |2521| 
    5994                      ; branchcc occurs ; |2521| 
    5995                      .dwpsn  "ff.c",2525,5
    5996 00000b44 5CAD          MOVZ      AR4,SP                ; |2525| 
    5997 00000b45 DC94          SUBB      XAR4,#20              ; |2525| 
    5998 00000b46 7640'         LCR       #_dir_register        ; |2525| 
         00000b47 0573 
    5999                      ; call occurs [#_dir_register] ; |2525| 
    6000 00000b48 9646          MOV       *-SP[6],AL            ; |2525| 
    6001              L203:    
    6002                      .dwpsn  "ff.c",2527,4
    6003 00000b49 1A45          OR        *-SP[5],#0x0008       ; |2527| 
         00000b4a 0008 
    6004                      .dwpsn  "ff.c",2528,4
    6005 00000b4b 064A          MOVL      ACC,*-SP[10]          ; |2528| 
    6006 00000b4c 1E56          MOVL      *-SP[22],ACC          ; |2528| 
    6007                      .dwpsn  "ff.c",2529,3
    6008 00000b4d 6F0D          B         L206,UNC              ; |2529| 
    6009                      ; branch occurs ; |2529| 
    6010              L204:    
    6011                      .dwpsn  "ff.c",2532,4
    6012 00000b4e 8A56          MOVL      XAR4,*-SP[22]         ; |2532| 
    6013 00000b4f D00B          MOVB      XAR0,#11              ; |2532| 
    6014 00000b50 9294          MOV       AL,*+XAR4[AR0]        ; |2532| 
    6015 00000b51 9011          ANDB      AL,#0x11              ; |2532| 
    6016 00000b52 EC04          BF        L205,EQ               ; |2532| 
    6017                      ; branchcc occurs ; |2532| 
    6018                      .dwpsn  "ff.c",2534,5
    6019 00000b53 2846          MOV       *-SP[6],#7            ; |2534| 
         00000b54 0007 
    6020                      .dwpsn  "ff.c",2535,4
    6021 00000b55 6F05          B         L206,UNC              ; |2535| 
    6022                      ; branch occurs ; |2535| 
    6023              L205:    
    6024                      .dwpsn  "ff.c",2538,5
    6025 00000b56 4245          TBIT      *-SP[5],#2            ; |2538| 
    6026 00000b57 EF03          BF        L206,NTC              ; |2538| 
    6027                      ; branchcc occurs ; |2538| 
    6028                      .dwpsn  "ff.c",2539,6
    6029 00000b58 2846          MOV       *-SP[6],#8            ; |2539| 
         00000b59 0008 
    6030              L206:    
    6031                      .dwpsn  "ff.c",2542,3
TMS320C2000 COFF Assembler PC v4.1.3 Thu May 05 10:06:00 2011

Tools Copyright (c) 1996-2006 Texas Instruments Incorporated
C:\DOCUME~1\ADMINI~1\LOCALS~1\Temp\TI1122                            PAGE  116

    6032 00000b5a 9246          MOV       AL,*-SP[6]            ; |2542| 
    6033 00000b5b ED73          BF        L209,NEQ              ; |2542| 
    6034                      ; branchcc occurs ; |2542| 
    6035 00000b5c 4345          TBIT      *-SP[5],#3            ; |2542| 
    6036 00000b5d EF71          BF        L209,NTC              ; |2542| 
    6037                      ; branchcc occurs ; |2542| 
    6038                      .dwpsn  "ff.c",2544,4
    6039 00000b5e 7640!         LCR       #_get_fattime         ; |2544| 
         00000b5f 0000 
    6040                      ; call occurs [#_get_fattime] ; |2544| 
    6041 00000b60 1E64          MOVL      *-SP[36],ACC          ; |2544| 
    6042                      .dwpsn  "ff.c",2545,4
    6043 00000b61 8A56          MOVL      XAR4,*-SP[22]         ; |2545| 
    6044 00000b62 D00E          MOVB      XAR0,#14              ; |2545| 
    6045 00000b63 9264          MOV       AL,*-SP[36]           ; |2545| 
    6046 00000b64 9694          MOV       *+XAR4[AR0],AL        ; |2545| 
    6047 00000b65 8A56          MOVL      XAR4,*-SP[22]         ; |2545| 
    6048 00000b66 9264          MOV       AL,*-SP[36]           ; |2545| 
    6049 00000b67 D00F          MOVB      XAR0,#15              ; |2545| 
    6050 00000b68 FFC7          LSR       AL,8                  ; |2545| 
    6051 00000b69 9694          MOV       *+XAR4[AR0],AL        ; |2545| 
    6052 00000b6a 8A56          MOVL      XAR4,*-SP[22]         ; |2545| 
    6053 00000b6b D010          MOVB      XAR0,#16              ; |2545| 
    6054 00000b6c 0664          MOVL      ACC,*-SP[36]          ; |2545| 
    6055 00000b6d 28AC          MOV       T,#24                 ; |2545| 
         00000b6e 0018 
    6056 00000b6f 9794          MOVH      *+XAR4[AR0],ACC << 0  ; |2545| 
    6057 00000b70 8A56          MOVL      XAR4,*-SP[22]         ; |2545| 
    6058 00000b71 0664          MOVL      ACC,*-SP[36]          ; |2545| 
    6059 00000b72 D011          MOVB      XAR0,#17              ; |2545| 
    6060 00000b73 5622          LSRL      ACC,T                 ; |2545| 
    6061 00000b74 9694          MOV       *+XAR4[AR0],AL        ; |2545| 
    6062                      .dwpsn  "ff.c",2546,4
    6063 00000b75 8A56          MOVL      XAR4,*-SP[22]         ; |2546| 
    6064 00000b76 D00B          MOVB      XAR0,#11              ; |2546| 
    6065 00000b77 2B94          MOV       *+XAR4[AR0],#0        ; |2546| 
    6066                      .dwpsn  "ff.c",2547,4
    6067 00000b78 8A56          MOVL      XAR4,*-SP[22]         ; |2547| 
    6068 00000b79 D01C          MOVB      XAR0,#28              ; |2547| 
    6069 00000b7a 2B94          MOV       *+XAR4[AR0],#0        ; |2547| 
    6070 00000b7b 8A56          MOVL      XAR4,*-SP[22]         ; |2547| 
    6071 00000b7c D01D          MOVB      XAR0,#29              ; |2547| 
    6072 00000b7d 2B94          MOV       *+XAR4[AR0],#0        ; |2547| 
    6073 00000b7e 8A56          MOVL      XAR4,*-SP[22]         ; |2547| 
    6074 00000b7f D01E          MOVB      XAR0,#30              ; |2547| 
    6075 00000b80 2B94          MOV       *+XAR4[AR0],#0        ; |2547| 
    6076 00000b81 8A56          MOVL      XAR4,*-SP[22]         ; |2547| 
    6077 00000b82 D01F          MOVB      XAR0,#31              ; |2547| 
    6078 00000b83 2B94          MOV       *+XAR4[AR0],#0        ; |2547| 
    6079                      .dwpsn  "ff.c",2548,4
    6080 00000b84 8356          MOVL      XAR5,*-SP[22]         ; |2548| 
    6081 00000b85 8A56          MOVL      XAR4,*-SP[22]         ; |2548| 
    6082 00000b86 D11B          MOVB      XAR1,#27              ; |2548| 
    6083 00000b87 D01A          MOVB      XAR0,#26              ; |2548| 
    6084 00000b88 5603          MOV       ACC,*+XAR5[AR1] << #8 ; |2548| 
TMS320C2000 COFF Assembler PC v4.1.3 Thu May 05 10:06:00 2011

Tools Copyright (c) 1996-2006 Texas Instruments Incorporated
C:\DOCUME~1\ADMINI~1\LOCALS~1\Temp\TI1122                            PAGE  117

         00000b89 089D 
    6085 00000b8a CA94          OR        AL,*+XAR4[AR0]        ; |2548| 
    6086 00000b8b D115          MOVB      XAR1,#21              ; |2548| 
    6087 00000b8c 8356          MOVL      XAR5,*-SP[22]         ; |2548| 
    6088 00000b8d 88A9          MOVZ      AR6,AL                ; |2548| 
    6089 00000b8e 8A56          MOVL      XAR4,*-SP[22]         ; |2548| 
    6090 00000b8f D014          MOVB      XAR0,#20              ; |2548| 
    6091 00000b90 5603          MOV       ACC,*+XAR5[AR1] << #8 ; |2548| 
         00000b91 089D 
    6092 00000b92 2901          CLRC      SXM
    6093 00000b93 CA94          OR        AL,*+XAR4[AR0]        ; |2548| 
    6094 00000b94 25A9          MOV       ACC,AL << 16          ; |2548| 
    6095 00000b95 AFA6          OR        ACC,AR6               ; |2548| 
    6096 00000b96 1E66          MOVL      *-SP[38],ACC          ; |2548| 
    6097                      .dwpsn  "ff.c",2549,4
    6098 00000b97 8A56          MOVL      XAR4,*-SP[22]         ; |2549| 
    6099 00000b98 D01A          MOVB      XAR0,#26              ; |2549| 
    6100 00000b99 2B94          MOV       *+XAR4[AR0],#0        ; |2549| 
    6101 00000b9a 8A56          MOVL      XAR4,*-SP[22]         ; |2549| 
    6102 00000b9b D01B          MOVB      XAR0,#27              ; |2549| 
    6103 00000b9c 2B94          MOV       *+XAR4[AR0],#0        ; |2549| 
    6104 00000b9d 8A56          MOVL      XAR4,*-SP[22]         ; |2549| 
    6105 00000b9e D014          MOVB      XAR0,#20              ; |2549| 
    6106 00000b9f 2B94          MOV       *+XAR4[AR0],#0        ; |2549| 
    6107 00000ba0 8A56          MOVL      XAR4,*-SP[22]         ; |2549| 
    6108 00000ba1 D015          MOVB      XAR0,#21              ; |2549| 
    6109 00000ba2 2B94          MOV       *+XAR4[AR0],#0        ; |2549| 
    6110                      .dwpsn  "ff.c",2550,4
    6111 00000ba3 8A54          MOVL      XAR4,*-SP[20]         ; |2550| 
    6112 00000ba4 28E4          MOV       *+XAR4[4],#1          ; |2550| 
         00000ba5 0001 
    6113                      .dwpsn  "ff.c",2551,4
    6114 00000ba6 0666          MOVL      ACC,*-SP[38]          ; |2551| 
    6115 00000ba7 EC27          BF        L209,EQ               ; |2551| 
    6116                      ; branchcc occurs ; |2551| 
    6117                      .dwpsn  "ff.c",2553,5
    6118 00000ba8 8A54          MOVL      XAR4,*-SP[20]         ; |2553| 
    6119 00000ba9 D01A          MOVB      XAR0,#26              ; |2553| 
    6120 00000baa 0694          MOVL      ACC,*+XAR4[AR0]       ; |2553| 
    6121 00000bab 1E64          MOVL      *-SP[36],ACC          ; |2553| 
    6122                      .dwpsn  "ff.c",2554,5
    6123 00000bac 8A54          MOVL      XAR4,*-SP[20]         ; |2554| 
    6124 00000bad 0666          MOVL      ACC,*-SP[38]          ; |2554| 
    6125 00000bae 7640'         LCR       #_remove_chain        ; |2554| 
         00000baf 0316 
    6126                      ; call occurs [#_remove_chain] ; |2554| 
    6127 00000bb0 9646          MOV       *-SP[6],AL            ; |2554| 
    6128                      .dwpsn  "ff.c",2555,5
    6129 00000bb1 5200          CMPB      AL,#0                 ; |2555| 
    6130 00000bb2 ED1C          BF        L209,NEQ              ; |2555| 
    6131                      ; branchcc occurs ; |2555| 
    6132                      .dwpsn  "ff.c",2557,6
    6133 00000bb3 8A54          MOVL      XAR4,*-SP[20]         ; |2557| 
    6134 00000bb4 0666          MOVL      ACC,*-SP[38]          ; |2557| 
    6135 00000bb5 D00A          MOVB      XAR0,#10              ; |2557| 
TMS320C2000 COFF Assembler PC v4.1.3 Thu May 05 10:06:00 2011

Tools Copyright (c) 1996-2006 Texas Instruments Incorporated
C:\DOCUME~1\ADMINI~1\LOCALS~1\Temp\TI1122                            PAGE  118

    6136 00000bb6 1901          SUBB      ACC,#1                ; |2557| 
    6137 00000bb7 1E94          MOVL      *+XAR4[AR0],ACC       ; |2557| 
    6138                      .dwpsn  "ff.c",2558,6
    6139 00000bb8 8A54          MOVL      XAR4,*-SP[20]         ; |2558| 
    6140 00000bb9 0664          MOVL      ACC,*-SP[36]          ; |2558| 
    6141 00000bba 7640'         LCR       #_move_window         ; |2558| 
         00000bbb 0077 
    6142                      ; call occurs [#_move_window] ; |2558| 
    6143 00000bbc 9646          MOV       *-SP[6],AL            ; |2558| 
    6144                      .dwendtag DW$347
    6145              
    6146                      .dwpsn  "ff.c",2562,2
    6147 00000bbd 6F11          B         L209,UNC              ; |2562| 
    6148                      ; branch occurs ; |2562| 
    6149              L207:    
    6150                      .dwpsn  "ff.c",2565,3
    6151 00000bbe 9246          MOV       AL,*-SP[6]            ; |2565| 
    6152 00000bbf ED0F          BF        L209,NEQ              ; |2565| 
    6153                      ; branchcc occurs ; |2565| 
    6154                      .dwpsn  "ff.c",2567,4
    6155 00000bc0 8A56          MOVL      XAR4,*-SP[22]         ; |2567| 
    6156 00000bc1 D00B          MOVB      XAR0,#11              ; |2567| 
    6157 00000bc2 4494          TBIT      *+XAR4[AR0],#4        ; |2567| 
    6158 00000bc3 EF04          BF        L208,NTC              ; |2567| 
    6159                      ; branchcc occurs ; |2567| 
    6160                      .dwpsn  "ff.c",2569,5
    6161 00000bc4 2846          MOV       *-SP[6],#4            ; |2569| 
         00000bc5 0004 
    6162                      .dwpsn  "ff.c",2570,4
    6163 00000bc6 6F08          B         L209,UNC              ; |2570| 
    6164                      ; branch occurs ; |2570| 
    6165              L208:    
    6166                      .dwpsn  "ff.c",2573,5
    6167 00000bc7 4145          TBIT      *-SP[5],#1            ; |2573| 
    6168 00000bc8 EF06          BF        L209,NTC              ; |2573| 
    6169                      ; branchcc occurs ; |2573| 
    6170 00000bc9 8A56          MOVL      XAR4,*-SP[22]         ; |2573| 
    6171 00000bca 4094          TBIT      *+XAR4[AR0],#0        ; |2573| 
    6172 00000bcb EF03          BF        L209,NTC              ; |2573| 
    6173                      ; branchcc occurs ; |2573| 
    6174                      .dwpsn  "ff.c",2574,6
    6175 00000bcc 2846          MOV       *-SP[6],#7            ; |2574| 
         00000bcd 0007 
    6176              L209:    
    6177                      .dwpsn  "ff.c",2578,2
    6178 00000bce 9246          MOV       AL,*-SP[6]            ; |2578| 
    6179 00000bcf ED0F          BF        L211,NEQ              ; |2578| 
    6180                      ; branchcc occurs ; |2578| 
    6181                      .dwpsn  "ff.c",2580,3
    6182 00000bd0 4345          TBIT      *-SP[5],#3            ; |2580| 
    6183 00000bd1 EF03          BF        L210,NTC              ; |2580| 
    6184                      ; branchcc occurs ; |2580| 
    6185                      .dwpsn  "ff.c",2581,4
    6186 00000bd2 1A45          OR        *-SP[5],#0x0020       ; |2581| 
         00000bd3 0020 
TMS320C2000 COFF Assembler PC v4.1.3 Thu May 05 10:06:00 2011

Tools Copyright (c) 1996-2006 Texas Instruments Incorporated
C:\DOCUME~1\ADMINI~1\LOCALS~1\Temp\TI1122                            PAGE  119

    6187              L210:    
    6188                      .dwpsn  "ff.c",2582,3
    6189 00000bd4 8A54          MOVL      XAR4,*-SP[20]         ; |2582| 
    6190 00000bd5 D01A          MOVB      XAR0,#26              ; |2582| 
    6191 00000bd6 0694          MOVL      ACC,*+XAR4[AR0]       ; |2582| 
    6192 00000bd7 8A42          MOVL      XAR4,*-SP[2]          ; |2582| 
    6193 00000bd8 D010          MOVB      XAR0,#16              ; |2582| 
    6194 00000bd9 1E94          MOVL      *+XAR4[AR0],ACC       ; |2582| 
    6195                      .dwpsn  "ff.c",2583,3
    6196 00000bda 8A42          MOVL      XAR4,*-SP[2]          ; |2583| 
    6197 00000bdb D012          MOVB      XAR0,#18              ; |2583| 
    6198 00000bdc 0656          MOVL      ACC,*-SP[22]          ; |2583| 
    6199 00000bdd 1E94          MOVL      *+XAR4[AR0],ACC       ; |2583| 
    6200              L211:    
    6201                      .dwpsn  "ff.c",2606,2
    6202 00000bde 9246          MOV       AL,*-SP[6]            ; |2606| 
    6203 00000bdf ED48          BF        L212,NEQ              ; |2606| 
    6204                      ; branchcc occurs ; |2606| 
    6205                      .dwpsn  "ff.c",2608,3
    6206 00000be0 8A42          MOVL      XAR4,*-SP[2]          ; |2608| 
    6207 00000be1 9245          MOV       AL,*-SP[5]            ; |2608| 
    6208 00000be2 96DC          MOV       *+XAR4[3],AL          ; |2608| 
    6209                      .dwpsn  "ff.c",2609,3
    6210 00000be3 8356          MOVL      XAR5,*-SP[22]         ; |2609| 
    6211 00000be4 8A56          MOVL      XAR4,*-SP[22]         ; |2609| 
    6212 00000be5 D11B          MOVB      XAR1,#27              ; |2609| 
    6213 00000be6 D01A          MOVB      XAR0,#26              ; |2609| 
    6214 00000be7 5603          MOV       ACC,*+XAR5[AR1] << #8 ; |2609| 
         00000be8 089D 
    6215 00000be9 CA94          OR        AL,*+XAR4[AR0]        ; |2609| 
    6216 00000bea D115          MOVB      XAR1,#21              ; |2609| 
    6217 00000beb 8356          MOVL      XAR5,*-SP[22]         ; |2609| 
    6218 00000bec 88A9          MOVZ      AR6,AL                ; |2609| 
    6219 00000bed 8A56          MOVL      XAR4,*-SP[22]         ; |2609| 
    6220 00000bee D014          MOVB      XAR0,#20              ; |2609| 
    6221 00000bef 2901          CLRC      SXM
    6222 00000bf0 5603          MOV       ACC,*+XAR5[AR1] << #8 ; |2609| 
         00000bf1 089D 
    6223 00000bf2 CA94          OR        AL,*+XAR4[AR0]        ; |2609| 
    6224 00000bf3 8A42          MOVL      XAR4,*-SP[2]          ; |2609| 
    6225 00000bf4 25A9          MOV       ACC,AL << 16          ; |2609| 
    6226 00000bf5 D00A          MOVB      XAR0,#10              ; |2609| 
    6227 00000bf6 AFA6          OR        ACC,AR6               ; |2609| 
    6228 00000bf7 1E94          MOVL      *+XAR4[AR0],ACC       ; |2609| 
    6229                      .dwpsn  "ff.c",2610,3
    6230 00000bf8 8A56          MOVL      XAR4,*-SP[22]         ; |2610| 
    6231 00000bf9 D01E          MOVB      XAR0,#30              ; |2610| 
    6232 00000bfa 2594          MOV       ACC,*+XAR4[AR0] << 16 ; |2610| 
    6233 00000bfb 8A56          MOVL      XAR4,*-SP[22]         ; |2610| 
    6234 00000bfc D01F          MOVB      XAR0,#31              ; |2610| 
    6235 00000bfd FF5A          MOVL      P,ACC                 ; |2610| 
    6236 00000bfe 0E94          MOVU      ACC,*+XAR4[AR0]
    6237 00000bff 28AC          MOV       T,#24                 ; |2610| 
         00000c00 0018 
    6238 00000c01 1E68          MOVL      *-SP[40],ACC          ; |2610| 
TMS320C2000 COFF Assembler PC v4.1.3 Thu May 05 10:06:00 2011

Tools Copyright (c) 1996-2006 Texas Instruments Incorporated
C:\DOCUME~1\ADMINI~1\LOCALS~1\Temp\TI1122                            PAGE  120

    6239 00000c02 563B          LSLL      ACC,T                 ; |2610| 
    6240 00000c03 1E68          MOVL      *-SP[40],ACC          ; |2610| 
    6241 00000c04 9268          MOV       AL,*-SP[40]           ; |2610| 
    6242 00000c05 CAAB          OR        AL,PL                 ; |2610| 
    6243 00000c06 9668          MOV       *-SP[40],AL           ; |2610| 
    6244 00000c07 27AA          MOV       PL,PH                 ; |2610| 
    6245 00000c08 9267          MOV       AL,*-SP[39]           ; |2610| 
    6246 00000c09 8A56          MOVL      XAR4,*-SP[22]         ; |2610| 
    6247 00000c0a CAAB          OR        AL,PL                 ; |2610| 
    6248 00000c0b D01D          MOVB      XAR0,#29              ; |2610| 
    6249 00000c0c 9667          MOV       *-SP[39],AL           ; |2610| 
    6250 00000c0d 5603          MOV       ACC,*+XAR4[AR0] << #8 ; |2610| 
         00000c0e 0894 
    6251 00000c0f 88A9          MOVZ      AR6,AL                ; |2610| 
    6252 00000c10 0668          MOVL      ACC,*-SP[40]          ; |2610| 
    6253 00000c11 8A56          MOVL      XAR4,*-SP[22]         ; |2610| 
    6254 00000c12 AFA6          OR        ACC,AR6               ; |2610| 
    6255 00000c13 D01C          MOVB      XAR0,#28              ; |2610| 
    6256 00000c14 1E68          MOVL      *-SP[40],ACC          ; |2610| 
    6257 00000c15 AF94          OR        ACC,*+XAR4[AR0]       ; |2610| 
    6258 00000c16 8A42          MOVL      XAR4,*-SP[2]          ; |2610| 
    6259 00000c17 D008          MOVB      XAR0,#8               ; |2610| 
    6260 00000c18 1E68          MOVL      *-SP[40],ACC          ; |2610| 
    6261 00000c19 1E94          MOVL      *+XAR4[AR0],ACC       ; |2610| 
    6262                      .dwpsn  "ff.c",2611,3
    6263 00000c1a 8A42          MOVL      XAR4,*-SP[2]          ; |2611| 
    6264 00000c1b 0200          MOVB      ACC,#0
    6265 00000c1c 1EF4          MOVL      *+XAR4[6],ACC         ; |2611| 
    6266                      .dwpsn  "ff.c",2612,3
    6267 00000c1d 8A42          MOVL      XAR4,*-SP[2]          ; |2612| 
    6268 00000c1e D00E          MOVB      XAR0,#14              ; |2612| 
    6269 00000c1f 1E94          MOVL      *+XAR4[AR0],ACC       ; |2612| 
    6270                      .dwpsn  "ff.c",2616,3
    6271 00000c20 8A42          MOVL      XAR4,*-SP[2]          ; |2616| 
    6272 00000c21 0654          MOVL      ACC,*-SP[20]          ; |2616| 
    6273 00000c22 1EC4          MOVL      *+XAR4[0],ACC         ; |2616| 
    6274                      .dwpsn  "ff.c",2617,3
    6275 00000c23 8A54          MOVL      XAR4,*-SP[20]         ; |2617| 
    6276 00000c24 92F4          MOV       AL,*+XAR4[6]          ; |2617| 
    6277 00000c25 8A42          MOVL      XAR4,*-SP[2]          ; |2617| 
    6278 00000c26 96D4          MOV       *+XAR4[2],AL          ; |2617| 
    6279              L212:    
    6280                      .dwpsn  "ff.c",2620,2
    6281 00000c27 8A54          MOVL      XAR4,*-SP[20]         ; |2620| 
    6282 00000c28 9246          MOV       AL,*-SP[6]            ; |2620| 
    6283 00000c29 7640'         LCR       #_unlock_fs           ; |2620| 
         00000c2a 0064 
    6284                      ; call occurs [#_unlock_fs] ; |2620| 
    6285 00000c2b 9246          MOV       AL,*-SP[6]            ; |2620| 
    6286                      .dwpsn  "ff.c",2621,1
    6287 00000c2c FEA8          SUBB      SP,#40                ; |2620| 
    6288                      .dwcfa  0x1d, -4
    6289 00000c2d 8BBE          MOVL      XAR1,*--SP            ; |2620| 
    6290                      .dwcfa  0x1d, -2
    6291                      .dwcfa  0xc0, 7
TMS320C2000 COFF Assembler PC v4.1.3 Thu May 05 10:06:00 2011

Tools Copyright (c) 1996-2006 Texas Instruments Incorporated
C:\DOCUME~1\ADMINI~1\LOCALS~1\Temp\TI1122                            PAGE  121

    6292 00000c2e 0006          LRETR
    6293                      ; return occurs
    6294                      .dwattr DW$336, DW_AT_end_file("ff.c")
    6295                      .dwattr DW$336, DW_AT_end_line(0xa3d)
    6296                      .dwattr DW$336, DW_AT_end_column(0x01)
    6297                      .dwendentry
    6298                      .dwendtag DW$336
    6299              
    6300 00000c2f               .sect   ".text"
    6301                      .global _f_read
    6302              
    6303              DW$350  .dwtag  DW_TAG_subprogram, DW_AT_name("f_read"), DW_AT_symbol_name("_f_read")
    6304                      .dwattr DW$350, DW_AT_low_pc(_f_read)
    6305                      .dwattr DW$350, DW_AT_high_pc(0x00)
    6306                      .dwattr DW$350, DW_AT_begin_file("ff.c")
    6307                      .dwattr DW$350, DW_AT_begin_line(0xa46)
    6308                      .dwattr DW$350, DW_AT_begin_column(0x09)
    6309                      .dwpsn  "ff.c",2636,1
    6310              
    6311                      .dwfde DW$CIE
    6312              
    6313              ;***************************************************************
    6314              ;* FNAME: _f_read                       FR SIZE:  20           *
    6315              ;*                                                             *
    6316              ;* FUNCTION ENVIRONMENT                                        *
    6317              ;*                                                             *
    6318              ;* FUNCTION PROPERTIES                                         *
    6319              ;*                            1 Parameter, 19 Auto,  0 SOE     *
    6320              ;***************************************************************
    6321              
    6322              _f_read:
    6323                      .dwcfa  0x1d, -2
    6324                      .dwcfa  0x1c, 26, 0
    6325                      .dwcfa  0x09, 40, 26
    6326 00000c2f FE14          ADDB      SP,#20
    6327                      .dwcfa  0x1d, -22
    6328              ;* AR4   assigned to _fp
    6329              DW$351  .dwtag  DW_TAG_formal_parameter, DW_AT_name("fp"), DW_AT_symbol_name("_fp")
    6330                      .dwattr DW$351, DW_AT_type(*DW$T$89)
    6331                      .dwattr DW$351, DW_AT_location[DW_OP_reg12]
    6332              ;* AR5   assigned to _buff
    6333              DW$352  .dwtag  DW_TAG_formal_parameter, DW_AT_name("buff"), DW_AT_symbol_name("_buff")
    6334                      .dwattr DW$352, DW_AT_type(*DW$T$3)
    6335                      .dwattr DW$352, DW_AT_location[DW_OP_reg14]
    6336              ;* AL    assigned to _btr
    6337              DW$353  .dwtag  DW_TAG_formal_parameter, DW_AT_name("btr"), DW_AT_symbol_name("_btr")
    6338                      .dwattr DW$353, DW_AT_type(*DW$T$43)
    6339                      .dwattr DW$353, DW_AT_location[DW_OP_reg0]
    6340              DW$354  .dwtag  DW_TAG_formal_parameter, DW_AT_name("br"), DW_AT_symbol_name("_br")
    6341                      .dwattr DW$354, DW_AT_type(*DW$T$98)
    6342                      .dwattr DW$354, DW_AT_location[DW_OP_breg20 -24]
    6343              DW$355  .dwtag  DW_TAG_variable, DW_AT_name("fp"), DW_AT_symbol_name("_fp")
    6344                      .dwattr DW$355, DW_AT_type(*DW$T$89)
    6345                      .dwattr DW$355, DW_AT_location[DW_OP_breg20 -4]
    6346              DW$356  .dwtag  DW_TAG_variable, DW_AT_name("buff"), DW_AT_symbol_name("_buff")
TMS320C2000 COFF Assembler PC v4.1.3 Thu May 05 10:06:00 2011

Tools Copyright (c) 1996-2006 Texas Instruments Incorporated
C:\DOCUME~1\ADMINI~1\LOCALS~1\Temp\TI1122                            PAGE  122

    6347                      .dwattr DW$356, DW_AT_type(*DW$T$3)
    6348                      .dwattr DW$356, DW_AT_location[DW_OP_breg20 -6]
    6349              DW$357  .dwtag  DW_TAG_variable, DW_AT_name("btr"), DW_AT_symbol_name("_btr")
    6350                      .dwattr DW$357, DW_AT_type(*DW$T$43)
    6351                      .dwattr DW$357, DW_AT_location[DW_OP_breg20 -7]
    6352              DW$358  .dwtag  DW_TAG_variable, DW_AT_name("res"), DW_AT_symbol_name("_res")
    6353                      .dwattr DW$358, DW_AT_type(*DW$T$49)
    6354                      .dwattr DW$358, DW_AT_location[DW_OP_breg20 -8]
    6355              DW$359  .dwtag  DW_TAG_variable, DW_AT_name("clst"), DW_AT_symbol_name("_clst")
    6356                      .dwattr DW$359, DW_AT_type(*DW$T$27)
    6357                      .dwattr DW$359, DW_AT_location[DW_OP_breg20 -10]
    6358              DW$360  .dwtag  DW_TAG_variable, DW_AT_name("sect"), DW_AT_symbol_name("_sect")
    6359                      .dwattr DW$360, DW_AT_type(*DW$T$27)
    6360                      .dwattr DW$360, DW_AT_location[DW_OP_breg20 -12]
    6361              DW$361  .dwtag  DW_TAG_variable, DW_AT_name("remain"), DW_AT_symbol_name("_remain")
    6362                      .dwattr DW$361, DW_AT_type(*DW$T$27)
    6363                      .dwattr DW$361, DW_AT_location[DW_OP_breg20 -14]
    6364              DW$362  .dwtag  DW_TAG_variable, DW_AT_name("rcnt"), DW_AT_symbol_name("_rcnt")
    6365                      .dwattr DW$362, DW_AT_type(*DW$T$43)
    6366                      .dwattr DW$362, DW_AT_location[DW_OP_breg20 -15]
    6367              DW$363  .dwtag  DW_TAG_variable, DW_AT_name("cc"), DW_AT_symbol_name("_cc")
    6368                      .dwattr DW$363, DW_AT_type(*DW$T$43)
    6369                      .dwattr DW$363, DW_AT_location[DW_OP_breg20 -16]
    6370              DW$364  .dwtag  DW_TAG_variable, DW_AT_name("csect"), DW_AT_symbol_name("_csect")
    6371                      .dwattr DW$364, DW_AT_type(*DW$T$23)
    6372                      .dwattr DW$364, DW_AT_location[DW_OP_breg20 -17]
    6373              DW$365  .dwtag  DW_TAG_variable, DW_AT_name("rbuff"), DW_AT_symbol_name("_rbuff")
    6374                      .dwattr DW$365, DW_AT_type(*DW$T$32)
    6375                      .dwattr DW$365, DW_AT_location[DW_OP_breg20 -20]
    6376 00000c30 9647          MOV       *-SP[7],AL            ; |2636| 
    6377 00000c31 A046          MOVL      *-SP[6],XAR5          ; |2636| 
    6378 00000c32 A844          MOVL      *-SP[4],XAR4          ; |2636| 
    6379                      .dwpsn  "ff.c",2640,15
    6380 00000c33 0646          MOVL      ACC,*-SP[6]           ; |2640| 
    6381 00000c34 1E54          MOVL      *-SP[20],ACC          ; |2640| 
    6382                      .dwpsn  "ff.c",2643,2
    6383 00000c35 8A58          MOVL      XAR4,*-SP[24]         ; |2643| 
    6384 00000c36 2BC4          MOV       *+XAR4[0],#0          ; |2643| 
    6385                      .dwpsn  "ff.c",2645,2
    6386 00000c37 8A44          MOVL      XAR4,*-SP[4]          ; |2645| 
    6387 00000c38 8344          MOVL      XAR5,*-SP[4]          ; |2645| 
    6388 00000c39 8AC4          MOVL      XAR4,*+XAR4[0]        ; |2645| 
    6389 00000c3a 92D5          MOV       AL,*+XAR5[2]          ; |2645| 
    6390 00000c3b 7640'         LCR       #_validate            ; |2645| 
         00000c3c 0AC3 
    6391                      ; call occurs [#_validate] ; |2645| 
    6392 00000c3d 9648          MOV       *-SP[8],AL            ; |2645| 
    6393                      .dwpsn  "ff.c",2646,2
    6394 00000c3e 5200          CMPB      AL,#0                 ; |2646| 
    6395 00000c3f EC08          BF        L213,EQ               ; |2646| 
    6396                      ; branchcc occurs ; |2646| 
    6397                      .dwpsn  "ff.c",2646,22
    6398 00000c40 8A44          MOVL      XAR4,*-SP[4]          ; |2646| 
    6399 00000c41 8AC4          MOVL      XAR4,*+XAR4[0]        ; |2646| 
    6400 00000c42 7640'         LCR       #_unlock_fs           ; |2646| 
TMS320C2000 COFF Assembler PC v4.1.3 Thu May 05 10:06:00 2011

Tools Copyright (c) 1996-2006 Texas Instruments Incorporated
C:\DOCUME~1\ADMINI~1\LOCALS~1\Temp\TI1122                            PAGE  123

         00000c43 0064 
    6401                      ; call occurs [#_unlock_fs] ; |2646| 
    6402 00000c44 9248          MOV       AL,*-SP[8]            ; |2646| 
    6403 00000c45 FFEF          B         L235,UNC              ; |2646| 
         00000c46 012E 
    6404                      ; branch occurs ; |2646| 
    6405              L213:    
    6406                      .dwpsn  "ff.c",2647,2
    6407 00000c47 8A44          MOVL      XAR4,*-SP[4]          ; |2647| 
    6408 00000c48 47DC          TBIT      *+XAR4[3],#7          ; |2647| 
    6409 00000c49 EF09          BF        L214,NTC              ; |2647| 
    6410                      ; branchcc occurs ; |2647| 
    6411                      .dwpsn  "ff.c",2648,3
    6412 00000c4a 8A44          MOVL      XAR4,*-SP[4]          ; |2648| 
    6413 00000c4b 8AC4          MOVL      XAR4,*+XAR4[0]        ; |2648| 
    6414 00000c4c 9A02          MOVB      AL,#2                 ; |2648| 
    6415 00000c4d 7640'         LCR       #_unlock_fs           ; |2648| 
         00000c4e 0064 
    6416                      ; call occurs [#_unlock_fs] ; |2648| 
    6417 00000c4f 9A02          MOVB      AL,#2                 ; |2648| 
    6418 00000c50 FFEF          B         L235,UNC              ; |2648| 
         00000c51 0123 
    6419                      ; branch occurs ; |2648| 
    6420              L214:    
    6421                      .dwpsn  "ff.c",2649,2
    6422 00000c52 8A44          MOVL      XAR4,*-SP[4]          ; |2649| 
    6423 00000c53 40DC          TBIT      *+XAR4[3],#0          ; |2649| 
    6424 00000c54 EE09          BF        L215,TC               ; |2649| 
    6425                      ; branchcc occurs ; |2649| 
    6426                      .dwpsn  "ff.c",2650,3
    6427 00000c55 8A44          MOVL      XAR4,*-SP[4]          ; |2650| 
    6428 00000c56 8AC4          MOVL      XAR4,*+XAR4[0]        ; |2650| 
    6429 00000c57 9A07          MOVB      AL,#7                 ; |2650| 
    6430 00000c58 7640'         LCR       #_unlock_fs           ; |2650| 
         00000c59 0064 
    6431                      ; call occurs [#_unlock_fs] ; |2650| 
    6432 00000c5a 9A07          MOVB      AL,#7                 ; |2650| 
    6433 00000c5b FFEF          B         L235,UNC              ; |2650| 
         00000c5c 0118 
    6434                      ; branch occurs ; |2650| 
    6435              L215:    
    6436                      .dwpsn  "ff.c",2651,2
    6437 00000c5d 8A44          MOVL      XAR4,*-SP[4]          ; |2651| 
    6438 00000c5e D008          MOVB      XAR0,#8               ; |2651| 
    6439 00000c5f 0694          MOVL      ACC,*+XAR4[AR0]       ; |2651| 
    6440 00000c60 8A44          MOVL      XAR4,*-SP[4]          ; |2651| 
    6441 00000c61 03F4          SUBL      ACC,*+XAR4[6]         ; |2651| 
    6442 00000c62 1E4E          MOVL      *-SP[14],ACC          ; |2651| 
    6443                      .dwpsn  "ff.c",2652,2
    6444 00000c63 0E47          MOVU      ACC,*-SP[7]
    6445 00000c64 0F4E          CMPL      ACC,*-SP[14]          ; |2652| 
    6446 00000c65 6903          B         L216,LOS              ; |2652| 
    6447                      ; branchcc occurs ; |2652| 
    6448                      .dwpsn  "ff.c",2652,22
    6449 00000c66 924E          MOV       AL,*-SP[14]           ; |2652| 
TMS320C2000 COFF Assembler PC v4.1.3 Thu May 05 10:06:00 2011

Tools Copyright (c) 1996-2006 Texas Instruments Incorporated
C:\DOCUME~1\ADMINI~1\LOCALS~1\Temp\TI1122                            PAGE  124

    6450 00000c67 9647          MOV       *-SP[7],AL            ; |2652| 
    6451              L216:    
    6452                      .dwpsn  "ff.c",2654,2
    6453 00000c68 9247          MOV       AL,*-SP[7]            ; |2654| 
    6454 00000c69 56C1          BF        L234,EQ               ; |2654| 
         00000c6a 0104 
    6455                      ; branchcc occurs ; |2654| 
    6456              L217:    
    6457              DW$L$_f_read$10$B:
    6458                      .dwpsn  "ff.c",2657,3
    6459 00000c6b 8A44          MOVL      XAR4,*-SP[4]          ; |2657| 
    6460 00000c6c 06F4          MOVL      ACC,*+XAR4[6]         ; |2657| 
    6461 00000c6d 18A9          AND       AL,#0x01ff            ; |2657| 
         00000c6e 01FF 
    6462 00000c6f 9B00          MOVB      AH,#0
    6463 00000c70 FF58          TEST      ACC                   ; |2657| 
    6464 00000c71 56C0          BF        L231,NEQ              ; |2657| 
         00000c72 00D2 
    6465                      ; branchcc occurs ; |2657| 
    6466              DW$L$_f_read$10$E:
    6467              DW$L$_f_read$11$B:
    6468                      .dwpsn  "ff.c",2659,4
    6469 00000c73 8A44          MOVL      XAR4,*-SP[4]          ; |2659| 
    6470 00000c74 8AC4          MOVL      XAR4,*+XAR4[0]        ; |2659| 
    6471 00000c75 92D4          MOV       AL,*+XAR4[2]          ; |2659| 
    6472 00000c76 8A44          MOVL      XAR4,*-SP[4]          ; |2659| 
    6473 00000c77 9CFF          ADDB      AL,#-1
    6474 00000c78 88A9          MOVZ      AR6,AL                ; |2659| 
    6475 00000c79 2901          CLRC      SXM
    6476 00000c7a 06F4          MOVL      ACC,*+XAR4[6]         ; |2659| 
    6477 00000c7b FF48          SFR       ACC,9                 ; |2659| 
    6478 00000c7c 89A6          AND       ACC,AR6               ; |2659| 
    6479 00000c7d 9651          MOV       *-SP[17],AL           ; |2659| 
    6480                      .dwpsn  "ff.c",2660,4
    6481 00000c7e ED32          BF        L222,NEQ              ; |2660| 
    6482                      ; branchcc occurs ; |2660| 
    6483              DW$L$_f_read$11$E:
    6484              DW$L$_f_read$12$B:
    6485                      .dwpsn  "ff.c",2662,5
    6486 00000c7f 8A44          MOVL      XAR4,*-SP[4]          ; |2662| 
    6487 00000c80 06F4          MOVL      ACC,*+XAR4[6]         ; |2662| 
    6488 00000c81 ED06          BF        L218,NEQ              ; |2662| 
    6489                      ; branchcc occurs ; |2662| 
    6490              DW$L$_f_read$12$E:
    6491              DW$L$_f_read$13$B:
    6492                      .dwpsn  "ff.c",2664,6
    6493 00000c82 8A44          MOVL      XAR4,*-SP[4]          ; |2664| 
    6494 00000c83 D00A          MOVB      XAR0,#10              ; |2664| 
    6495 00000c84 0694          MOVL      ACC,*+XAR4[AR0]       ; |2664| 
    6496 00000c85 1E4A          MOVL      *-SP[10],ACC          ; |2664| 
    6497                      .dwpsn  "ff.c",2665,5
    6498 00000c86 6F09          B         L219,UNC              ; |2665| 
    6499                      ; branch occurs ; |2665| 
    6500              DW$L$_f_read$13$E:
    6501              L218:    
TMS320C2000 COFF Assembler PC v4.1.3 Thu May 05 10:06:00 2011

Tools Copyright (c) 1996-2006 Texas Instruments Incorporated
C:\DOCUME~1\ADMINI~1\LOCALS~1\Temp\TI1122                            PAGE  125

    6502              DW$L$_f_read$14$B:
    6503                      .dwpsn  "ff.c",2673,7
    6504 00000c87 8A44          MOVL      XAR4,*-SP[4]          ; |2673| 
    6505 00000c88 8344          MOVL      XAR5,*-SP[4]          ; |2673| 
    6506 00000c89 8AC4          MOVL      XAR4,*+XAR4[0]        ; |2673| 
    6507 00000c8a D00C          MOVB      XAR0,#12              ; |2673| 
    6508 00000c8b 0695          MOVL      ACC,*+XAR5[AR0]       ; |2673| 
    6509 00000c8c 7640'         LCR       #_get_fat             ; |2673| 
         00000c8d 0186 
    6510                      ; call occurs [#_get_fat] ; |2673| 
    6511 00000c8e 1E4A          MOVL      *-SP[10],ACC          ; |2673| 
    6512              DW$L$_f_read$14$E:
    6513              L219:    
    6514              DW$L$_f_read$15$B:
    6515                      .dwpsn  "ff.c",2675,5
    6516 00000c8f 0202          MOVB      ACC,#2
    6517 00000c90 0F4A          CMPL      ACC,*-SP[10]          ; |2675| 
    6518 00000c91 690C          B         L220,LOS              ; |2675| 
    6519                      ; branchcc occurs ; |2675| 
    6520              DW$L$_f_read$15$E:
    6521                      .dwpsn  "ff.c",2675,21
    6522 00000c92 8A44          MOVL      XAR4,*-SP[4]          ; |2675| 
    6523 00000c93 1ADC          OR        *+XAR4[3],#0x0080     ; |2675| 
         00000c94 0080 
    6524 00000c95 8A44          MOVL      XAR4,*-SP[4]          ; |2675| 
    6525 00000c96 8AC4          MOVL      XAR4,*+XAR4[0]        ; |2675| 
    6526 00000c97 9A02          MOVB      AL,#2                 ; |2675| 
    6527 00000c98 7640'         LCR       #_unlock_fs           ; |2675| 
         00000c99 0064 
    6528                      ; call occurs [#_unlock_fs] ; |2675| 
    6529 00000c9a 9A02          MOVB      AL,#2                 ; |2675| 
    6530 00000c9b FFEF          B         L235,UNC              ; |2675| 
         00000c9c 00D8 
    6531                      ; branch occurs ; |2675| 
    6532              L220:    
    6533              DW$L$_f_read$17$B:
    6534                      .dwpsn  "ff.c",2676,5
    6535 00000c9d 0200          MOVB      ACC,#0
    6536 00000c9e 1901          SUBB      ACC,#1
    6537 00000c9f 0F4A          CMPL      ACC,*-SP[10]          ; |2676| 
    6538 00000ca0 ED0C          BF        L221,NEQ              ; |2676| 
    6539                      ; branchcc occurs ; |2676| 
    6540              DW$L$_f_read$17$E:
    6541                      .dwpsn  "ff.c",2676,31
    6542 00000ca1 8A44          MOVL      XAR4,*-SP[4]          ; |2676| 
    6543 00000ca2 1ADC          OR        *+XAR4[3],#0x0080     ; |2676| 
         00000ca3 0080 
    6544 00000ca4 8A44          MOVL      XAR4,*-SP[4]          ; |2676| 
    6545 00000ca5 8AC4          MOVL      XAR4,*+XAR4[0]        ; |2676| 
    6546 00000ca6 9A01          MOVB      AL,#1                 ; |2676| 
    6547 00000ca7 7640'         LCR       #_unlock_fs           ; |2676| 
         00000ca8 0064 
    6548                      ; call occurs [#_unlock_fs] ; |2676| 
    6549 00000ca9 9A01          MOVB      AL,#1                 ; |2676| 
    6550 00000caa FFEF          B         L235,UNC              ; |2676| 
TMS320C2000 COFF Assembler PC v4.1.3 Thu May 05 10:06:00 2011

Tools Copyright (c) 1996-2006 Texas Instruments Incorporated
C:\DOCUME~1\ADMINI~1\LOCALS~1\Temp\TI1122                            PAGE  126

         00000cab 00C9 
    6551                      ; branch occurs ; |2676| 
    6552              L221:    
    6553              DW$L$_f_read$19$B:
    6554                      .dwpsn  "ff.c",2677,5
    6555 00000cac 8A44          MOVL      XAR4,*-SP[4]          ; |2677| 
    6556 00000cad 064A          MOVL      ACC,*-SP[10]          ; |2677| 
    6557 00000cae D00C          MOVB      XAR0,#12              ; |2677| 
    6558 00000caf 1E94          MOVL      *+XAR4[AR0],ACC       ; |2677| 
    6559              DW$L$_f_read$19$E:
    6560              L222:    
    6561              DW$L$_f_read$20$B:
    6562                      .dwpsn  "ff.c",2679,4
    6563 00000cb0 8A44          MOVL      XAR4,*-SP[4]          ; |2679| 
    6564 00000cb1 8344          MOVL      XAR5,*-SP[4]          ; |2679| 
    6565 00000cb2 8AC4          MOVL      XAR4,*+XAR4[0]        ; |2679| 
    6566 00000cb3 D00C          MOVB      XAR0,#12              ; |2679| 
    6567 00000cb4 0695          MOVL      ACC,*+XAR5[AR0]       ; |2679| 
    6568 00000cb5 7640'         LCR       #_clust2sect          ; |2679| 
         00000cb6 016E 
    6569                      ; call occurs [#_clust2sect] ; |2679| 
    6570 00000cb7 1E4C          MOVL      *-SP[12],ACC          ; |2679| 
    6571                      .dwpsn  "ff.c",2680,4
    6572 00000cb8 064C          MOVL      ACC,*-SP[12]          ; |2680| 
    6573 00000cb9 ED0C          BF        L223,NEQ              ; |2680| 
    6574                      ; branchcc occurs ; |2680| 
    6575              DW$L$_f_read$20$E:
    6576                      .dwpsn  "ff.c",2680,17
    6577 00000cba 8A44          MOVL      XAR4,*-SP[4]          ; |2680| 
    6578 00000cbb 1ADC          OR        *+XAR4[3],#0x0080     ; |2680| 
         00000cbc 0080 
    6579 00000cbd 8A44          MOVL      XAR4,*-SP[4]          ; |2680| 
    6580 00000cbe 8AC4          MOVL      XAR4,*+XAR4[0]        ; |2680| 
    6581 00000cbf 9A02          MOVB      AL,#2                 ; |2680| 
    6582 00000cc0 7640'         LCR       #_unlock_fs           ; |2680| 
         00000cc1 0064 
    6583                      ; call occurs [#_unlock_fs] ; |2680| 
    6584 00000cc2 9A02          MOVB      AL,#2                 ; |2680| 
    6585 00000cc3 FFEF          B         L235,UNC              ; |2680| 
         00000cc4 00B0 
    6586                      ; branch occurs ; |2680| 
    6587              L223:    
    6588              DW$L$_f_read$22$B:
    6589                      .dwpsn  "ff.c",2681,4
    6590 00000cc5 0E51          MOVU      ACC,*-SP[17]
    6591 00000cc6 074C          ADDL      ACC,*-SP[12]          ; |2681| 
    6592 00000cc7 1E4C          MOVL      *-SP[12],ACC          ; |2681| 
    6593                      .dwpsn  "ff.c",2682,4
    6594 00000cc8 9247          MOV       AL,*-SP[7]            ; |2682| 
    6595 00000cc9 FFC8          LSR       AL,9                  ; |2682| 
    6596 00000cca 9650          MOV       *-SP[16],AL           ; |2682| 
    6597                      .dwpsn  "ff.c",2683,4
    6598 00000ccb EC3C          BF        L227,EQ               ; |2683| 
    6599                      ; branchcc occurs ; |2683| 
    6600              DW$L$_f_read$22$E:
TMS320C2000 COFF Assembler PC v4.1.3 Thu May 05 10:06:00 2011

Tools Copyright (c) 1996-2006 Texas Instruments Incorporated
C:\DOCUME~1\ADMINI~1\LOCALS~1\Temp\TI1122                            PAGE  127

    6601              DW$L$_f_read$23$B:
    6602                      .dwpsn  "ff.c",2685,5
    6603 00000ccc 8A44          MOVL      XAR4,*-SP[4]          ; |2685| 
    6604 00000ccd 8AC4          MOVL      XAR4,*+XAR4[0]        ; |2685| 
    6605 00000cce 9451          ADD       AL,*-SP[17]           ; |2685| 
    6606 00000ccf 54D4          CMP       AL,*+XAR4[2]          ; |2685| 
    6607 00000cd0 6906          B         L224,LOS              ; |2685| 
    6608                      ; branchcc occurs ; |2685| 
    6609              DW$L$_f_read$23$E:
    6610              DW$L$_f_read$24$B:
    6611                      .dwpsn  "ff.c",2686,6
    6612 00000cd1 8A44          MOVL      XAR4,*-SP[4]          ; |2686| 
    6613 00000cd2 8AC4          MOVL      XAR4,*+XAR4[0]        ; |2686| 
    6614 00000cd3 92D4          MOV       AL,*+XAR4[2]          ; |2686| 
    6615 00000cd4 9E51          SUB       AL,*-SP[17]           ; |2686| 
    6616 00000cd5 9650          MOV       *-SP[16],AL           ; |2686| 
    6617              DW$L$_f_read$24$E:
    6618              L224:    
    6619              DW$L$_f_read$25$B:
    6620                      .dwpsn  "ff.c",2687,5
    6621 00000cd6 9250          MOV       AL,*-SP[16]           ; |2687| 
    6622 00000cd7 9641          MOV       *-SP[1],AL            ; |2687| 
    6623 00000cd8 8A44          MOVL      XAR4,*-SP[4]          ; |2687| 
    6624 00000cd9 8AC4          MOVL      XAR4,*+XAR4[0]        ; |2687| 
    6625 00000cda 5DCC          MOVZ      AR5,*+XAR4[1]         ; |2687| 
    6626 00000cdb 8A54          MOVL      XAR4,*-SP[20]         ; |2687| 
    6627 00000cdc 064C          MOVL      ACC,*-SP[12]          ; |2687| 
    6628 00000cdd 7640!         LCR       #_disk_read           ; |2687| 
         00000cde 0000 
    6629                      ; call occurs [#_disk_read] ; |2687| 
    6630 00000cdf 5200          CMPB      AL,#0                 ; |2687| 
    6631 00000ce0 EC0C          BF        L225,EQ               ; |2687| 
    6632                      ; branchcc occurs ; |2687| 
    6633              DW$L$_f_read$25$E:
    6634                      .dwpsn  "ff.c",2688,6
    6635 00000ce1 8A44          MOVL      XAR4,*-SP[4]          ; |2688| 
    6636 00000ce2 1ADC          OR        *+XAR4[3],#0x0080     ; |2688| 
         00000ce3 0080 
    6637 00000ce4 8A44          MOVL      XAR4,*-SP[4]          ; |2688| 
    6638 00000ce5 8AC4          MOVL      XAR4,*+XAR4[0]        ; |2688| 
    6639 00000ce6 9A01          MOVB      AL,#1                 ; |2688| 
    6640 00000ce7 7640'         LCR       #_unlock_fs           ; |2688| 
         00000ce8 0064 
    6641                      ; call occurs [#_unlock_fs] ; |2688| 
    6642 00000ce9 9A01          MOVB      AL,#1                 ; |2688| 
    6643 00000cea FFEF          B         L235,UNC              ; |2688| 
         00000ceb 0089 
    6644                      ; branch occurs ; |2688| 
    6645              L225:    
    6646              DW$L$_f_read$27$B:
    6647                      .dwpsn  "ff.c",2694,5
    6648 00000cec 8A44          MOVL      XAR4,*-SP[4]          ; |2694| 
    6649 00000ced 46DC          TBIT      *+XAR4[3],#6          ; |2694| 
    6650 00000cee EF15          BF        L226,NTC              ; |2694| 
    6651                      ; branchcc occurs ; |2694| 
TMS320C2000 COFF Assembler PC v4.1.3 Thu May 05 10:06:00 2011

Tools Copyright (c) 1996-2006 Texas Instruments Incorporated
C:\DOCUME~1\ADMINI~1\LOCALS~1\Temp\TI1122                            PAGE  128

    6652 00000cef       DW$L$_f_read$27$E:
    6653 00000cef       DW$L$_f_read$28$B:
    6654 00000cef 8A44          MOVL      XAR4,*-SP[4]          ; |2694| 
    6655 00000cf0 8850          MOVZ      AR6,*-SP[16]
    6656 00000cf1 D00E          MOVB      XAR0,#14              ; |2694| 
    6657 00000cf2 0694          MOVL      ACC,*+XAR4[AR0]       ; |2694| 
    6658 00000cf3 034C          SUBL      ACC,*-SP[12]          ; |2694| 
    6659 00000cf4 0FA6          CMPL      ACC,XAR6              ; |2694| 
    6660 00000cf5 670E          B         L226,HIS              ; |2694| 
    6661                      ; branchcc occurs ; |2694| 
    6662              DW$L$_f_read$28$E:
    6663              DW$L$_f_read$29$B:
    6664                      .dwpsn  "ff.c",2695,6
    6665 00000cf6 8A44          MOVL      XAR4,*-SP[4]          ; |2695| 
    6666 00000cf7 0694          MOVL      ACC,*+XAR4[AR0]       ; |2695| 
    6667 00000cf8 8A54          MOVL      XAR4,*-SP[20]         ; |2695| 
    6668 00000cf9 8344          MOVL      XAR5,*-SP[4]          ; |2695| 
    6669 00000cfa 034C          SUBL      ACC,*-SP[12]          ; |2695| 
    6670 00000cfb FF38          LSL       ACC,9                 ; |2695| 
    6671 00000cfc 5601          ADDL      XAR4,ACC
         00000cfd 00A4 
    6672 00000cfe DD14          ADDB      XAR5,#20              ; |2695| 
    6673 00000cff 28A9          MOV       AL,#512               ; |2695| 
         00000d00 0200 
    6674 00000d01 7640'         LCR       #_mem_cpy             ; |2695| 
         00000d02 0000 
    6675                      ; call occurs [#_mem_cpy] ; |2695| 
    6676              DW$L$_f_read$29$E:
    6677              L226:    
    6678              DW$L$_f_read$30$B:
    6679                      .dwpsn  "ff.c",2698,5
    6680 00000d03 5603          MOV       ACC,*-SP[16] << #9    ; |2698| 
         00000d04 0950 
    6681 00000d05 964F          MOV       *-SP[15],AL           ; |2698| 
    6682                      .dwpsn  "ff.c",2699,5
    6683 00000d06 6F58          B         L233,UNC              ; |2699| 
    6684                      ; branch occurs ; |2699| 
    6685              DW$L$_f_read$30$E:
    6686              L227:    
    6687              DW$L$_f_read$31$B:
    6688                      .dwpsn  "ff.c",2702,4
    6689 00000d07 8A44          MOVL      XAR4,*-SP[4]          ; |2702| 
    6690 00000d08 064C          MOVL      ACC,*-SP[12]          ; |2702| 
    6691 00000d09 D00E          MOVB      XAR0,#14              ; |2702| 
    6692 00000d0a 0F94          CMPL      ACC,*+XAR4[AR0]       ; |2702| 
    6693 00000d0b EC34          BF        L230,EQ               ; |2702| 
    6694                      ; branchcc occurs ; |2702| 
    6695              DW$L$_f_read$31$E:
    6696              DW$L$_f_read$32$B:
    6697                      .dwpsn  "ff.c",2705,5
    6698 00000d0c 8A44          MOVL      XAR4,*-SP[4]          ; |2705| 
    6699 00000d0d 46DC          TBIT      *+XAR4[3],#6          ; |2705| 
    6700 00000d0e EF1B          BF        L229,NTC              ; |2705| 
    6701                      ; branchcc occurs ; |2705| 
    6702              DW$L$_f_read$32$E:
TMS320C2000 COFF Assembler PC v4.1.3 Thu May 05 10:06:00 2011

Tools Copyright (c) 1996-2006 Texas Instruments Incorporated
C:\DOCUME~1\ADMINI~1\LOCALS~1\Temp\TI1122                            PAGE  129

    6703              DW$L$_f_read$33$B:
    6704                      .dwpsn  "ff.c",2707,6
    6705 00000d0f 2841          MOV       *-SP[1],#1            ; |2707| 
         00000d10 0001 
    6706 00000d11 8A44          MOVL      XAR4,*-SP[4]          ; |2707| 
    6707 00000d12 8AC4          MOVL      XAR4,*+XAR4[0]        ; |2707| 
    6708 00000d13 C444          MOVL      XAR6,*-SP[4]          ; |2707| 
    6709 00000d14 5DCC          MOVZ      AR5,*+XAR4[1]         ; |2707| 
    6710 00000d15 8A44          MOVL      XAR4,*-SP[4]          ; |2707| 
    6711 00000d16 0696          MOVL      ACC,*+XAR6[AR0]       ; |2707| 
    6712 00000d17 DC14          ADDB      XAR4,#20              ; |2707| 
    6713 00000d18 7640!         LCR       #_disk_write          ; |2707| 
         00000d19 0000 
    6714                      ; call occurs [#_disk_write] ; |2707| 
    6715 00000d1a 5200          CMPB      AL,#0                 ; |2707| 
    6716 00000d1b EC0B          BF        L228,EQ               ; |2707| 
    6717                      ; branchcc occurs ; |2707| 
    6718              DW$L$_f_read$33$E:
    6719                      .dwpsn  "ff.c",2708,7
    6720 00000d1c 8A44          MOVL      XAR4,*-SP[4]          ; |2708| 
    6721 00000d1d 1ADC          OR        *+XAR4[3],#0x0080     ; |2708| 
         00000d1e 0080 
    6722 00000d1f 8A44          MOVL      XAR4,*-SP[4]          ; |2708| 
    6723 00000d20 8AC4          MOVL      XAR4,*+XAR4[0]        ; |2708| 
    6724 00000d21 9A01          MOVB      AL,#1                 ; |2708| 
    6725 00000d22 7640'         LCR       #_unlock_fs           ; |2708| 
         00000d23 0064 
    6726                      ; call occurs [#_unlock_fs] ; |2708| 
    6727 00000d24 9A01          MOVB      AL,#1                 ; |2708| 
    6728 00000d25 6F4E          B         L235,UNC              ; |2708| 
    6729                      ; branch occurs ; |2708| 
    6730              L228:    
    6731              DW$L$_f_read$35$B:
    6732                      .dwpsn  "ff.c",2709,6
    6733 00000d26 8A44          MOVL      XAR4,*-SP[4]          ; |2709| 
    6734 00000d27 18DC          AND       *+XAR4[3],#0xffbf     ; |2709| 
         00000d28 FFBF 
    6735              DW$L$_f_read$35$E:
    6736              L229:    
    6737              DW$L$_f_read$36$B:
    6738                      .dwpsn  "ff.c",2712,5
    6739 00000d29 2841          MOV       *-SP[1],#1            ; |2712| 
         00000d2a 0001 
    6740 00000d2b 8A44          MOVL      XAR4,*-SP[4]          ; |2712| 
    6741 00000d2c 8AC4          MOVL      XAR4,*+XAR4[0]        ; |2712| 
    6742 00000d2d 5DCC          MOVZ      AR5,*+XAR4[1]         ; |2712| 
    6743 00000d2e 8A44          MOVL      XAR4,*-SP[4]          ; |2712| 
    6744 00000d2f 064C          MOVL      ACC,*-SP[12]          ; |2712| 
    6745 00000d30 DC14          ADDB      XAR4,#20              ; |2712| 
    6746 00000d31 7640!         LCR       #_disk_read           ; |2712| 
         00000d32 0000 
    6747                      ; call occurs [#_disk_read] ; |2712| 
    6748 00000d33 5200          CMPB      AL,#0                 ; |2712| 
    6749 00000d34 EC0B          BF        L230,EQ               ; |2712| 
    6750                      ; branchcc occurs ; |2712| 
TMS320C2000 COFF Assembler PC v4.1.3 Thu May 05 10:06:00 2011

Tools Copyright (c) 1996-2006 Texas Instruments Incorporated
C:\DOCUME~1\ADMINI~1\LOCALS~1\Temp\TI1122                            PAGE  130

    6751              DW$L$_f_read$36$E:
    6752                      .dwpsn  "ff.c",2713,6
    6753 00000d35 8A44          MOVL      XAR4,*-SP[4]          ; |2713| 
    6754 00000d36 1ADC          OR        *+XAR4[3],#0x0080     ; |2713| 
         00000d37 0080 
    6755 00000d38 8A44          MOVL      XAR4,*-SP[4]          ; |2713| 
    6756 00000d39 8AC4          MOVL      XAR4,*+XAR4[0]        ; |2713| 
    6757 00000d3a 9A01          MOVB      AL,#1                 ; |2713| 
    6758 00000d3b 7640'         LCR       #_unlock_fs           ; |2713| 
         00000d3c 0064 
    6759                      ; call occurs [#_unlock_fs] ; |2713| 
    6760 00000d3d 9A01          MOVB      AL,#1                 ; |2713| 
    6761 00000d3e 6F35          B         L235,UNC              ; |2713| 
    6762                      ; branch occurs ; |2713| 
    6763              L230:    
    6764              DW$L$_f_read$38$B:
    6765                      .dwpsn  "ff.c",2716,4
    6766 00000d3f 8A44          MOVL      XAR4,*-SP[4]          ; |2716| 
    6767 00000d40 064C          MOVL      ACC,*-SP[12]          ; |2716| 
    6768 00000d41 D00E          MOVB      XAR0,#14              ; |2716| 
    6769 00000d42 1E94          MOVL      *+XAR4[AR0],ACC       ; |2716| 
    6770              DW$L$_f_read$38$E:
    6771              L231:    
    6772              DW$L$_f_read$39$B:
    6773                      .dwpsn  "ff.c",2718,3
    6774 00000d43 8A44          MOVL      XAR4,*-SP[4]          ; |2718| 
    6775 00000d44 06F4          MOVL      ACC,*+XAR4[6]         ; |2718| 
    6776 00000d45 9B00          MOVB      AH,#0
    6777 00000d46 18A9          AND       AL,#0x01ff            ; |2718| 
         00000d47 01FF 
    6778 00000d48 8F00          MOVL      XAR4,#512             ; |2718| 
         00000d49 0200 
    6779 00000d4a 5641          SUBL      XAR4,ACC
         00000d4b 00A4 
    6780 00000d4c 7C4F          MOV       *-SP[15],AR4          ; |2718| 
    6781                      .dwpsn  "ff.c",2719,3
    6782 00000d4d 9247          MOV       AL,*-SP[7]            ; |2719| 
    6783 00000d4e 544F          CMP       AL,*-SP[15]           ; |2719| 
    6784 00000d4f 6702          B         L232,HIS              ; |2719| 
    6785                      ; branchcc occurs ; |2719| 
    6786              DW$L$_f_read$39$E:
    6787              DW$L$_f_read$40$B:
    6788                      .dwpsn  "ff.c",2719,21
    6789 00000d50 964F          MOV       *-SP[15],AL           ; |2719| 
    6790              DW$L$_f_read$40$E:
    6791              L232:    
    6792              DW$L$_f_read$41$B:
    6793                      .dwpsn  "ff.c",2725,3
    6794 00000d51 8A44          MOVL      XAR4,*-SP[4]          ; |2725| 
    6795 00000d52 0644          MOVL      ACC,*-SP[4]           ; |2725| 
    6796 00000d53 A3F4          MOVL      P,*+XAR4[6]           ; |2725| 
    6797 00000d54 2BAA          MOV       PH,#0                 ; |2725| 
    6798 00000d55 18AB          AND       PL,#0x01ff            ; |2725| 
         00000d56 01FF 
    6799 00000d57 07AB          ADDL      ACC,P
TMS320C2000 COFF Assembler PC v4.1.3 Thu May 05 10:06:00 2011

Tools Copyright (c) 1996-2006 Texas Instruments Incorporated
C:\DOCUME~1\ADMINI~1\LOCALS~1\Temp\TI1122                            PAGE  131

    6800 00000d58 0914          ADDB      ACC,#20               ; |2725| 
    6801 00000d59 8A54          MOVL      XAR4,*-SP[20]         ; |2725| 
    6802 00000d5a 83A9          MOVL      XAR5,ACC              ; |2725| 
    6803 00000d5b 924F          MOV       AL,*-SP[15]           ; |2725| 
    6804 00000d5c 7640'         LCR       #_mem_cpy             ; |2725| 
         00000d5d 0000 
    6805                      ; call occurs [#_mem_cpy] ; |2725| 
    6806              DW$L$_f_read$41$E:
    6807              L233:    
    6808              DW$L$_f_read$42$B:
    6809                      .dwpsn  "ff.c",2655,5
    6810 00000d5e 0E4F          MOVU      ACC,*-SP[15]
    6811 00000d5f 5601          ADDL      *-SP[20],ACC          ; |2655| 
         00000d60 0054 
    6812 00000d61 8A44          MOVL      XAR4,*-SP[4]          ; |2655| 
    6813 00000d62 0E4F          MOVU      ACC,*-SP[15]
    6814 00000d63 5601          ADDL      *+XAR4[6],ACC         ; |2655| 
         00000d64 00F4 
    6815 00000d65 8A58          MOVL      XAR4,*-SP[24]         ; |2655| 
    6816 00000d66 924F          MOV       AL,*-SP[15]           ; |2655| 
    6817 00000d67 72C4          ADD       *+XAR4[0],AL          ; |2655| 
    6818 00000d68 924F          MOV       AL,*-SP[15]           ; |2655| 
    6819 00000d69 7447          SUB       *-SP[7],AL            ; |2655| 
    6820 00000d6a 9247          MOV       AL,*-SP[7]            ; |2655| 
    6821 00000d6b 56C0          BF        L217,NEQ              ; |2655| 
         00000d6c FF00 
    6822                      ; branchcc occurs ; |2655| 
    6823              DW$L$_f_read$42$E:
    6824              L234:    
    6825                      .dwpsn  "ff.c",2729,2
    6826 00000d6d 8A44          MOVL      XAR4,*-SP[4]          ; |2729| 
    6827 00000d6e 8AC4          MOVL      XAR4,*+XAR4[0]        ; |2729| 
    6828 00000d6f 9A00          MOVB      AL,#0
    6829 00000d70 7640'         LCR       #_unlock_fs           ; |2729| 
         00000d71 0064 
    6830                      ; call occurs [#_unlock_fs] ; |2729| 
    6831 00000d72 9A00          MOVB      AL,#0
    6832              L235:    
    6833                      .dwpsn  "ff.c",2730,1
    6834 00000d73 FE94          SUBB      SP,#20                ; |2729| 
    6835                      .dwcfa  0x1d, -2
    6836 00000d74 0006          LRETR
    6837                      ; return occurs
    6838              
    6839              DW$366  .dwtag  DW_TAG_loop
    6840                      .dwattr DW$366, DW_AT_name("C:\DOCUME~1\ADMINI~1\LOCALS~1\Temp\TI1122:L217:1:1304561157")
    6841                      .dwattr DW$366, DW_AT_begin_file("ff.c")
    6842                      .dwattr DW$366, DW_AT_begin_line(0xa5e)
    6843                      .dwattr DW$366, DW_AT_end_line(0xaa7)
    6844              DW$367  .dwtag  DW_TAG_loop_range
    6845                      .dwattr DW$367, DW_AT_low_pc(DW$L$_f_read$10$B)
    6846                      .dwattr DW$367, DW_AT_high_pc(DW$L$_f_read$10$E)
    6847              DW$368  .dwtag  DW_TAG_loop_range
    6848                      .dwattr DW$368, DW_AT_low_pc(DW$L$_f_read$33$B)
    6849                      .dwattr DW$368, DW_AT_high_pc(DW$L$_f_read$33$E)
TMS320C2000 COFF Assembler PC v4.1.3 Thu May 05 10:06:00 2011

Tools Copyright (c) 1996-2006 Texas Instruments Incorporated
C:\DOCUME~1\ADMINI~1\LOCALS~1\Temp\TI1122                            PAGE  132

    6850              DW$369  .dwtag  DW_TAG_loop_range
    6851                      .dwattr DW$369, DW_AT_low_pc(DW$L$_f_read$32$B)
    6852                      .dwattr DW$369, DW_AT_high_pc(DW$L$_f_read$32$E)
    6853              DW$370  .dwtag  DW_TAG_loop_range
    6854                      .dwattr DW$370, DW_AT_low_pc(DW$L$_f_read$35$B)
    6855                      .dwattr DW$370, DW_AT_high_pc(DW$L$_f_read$35$E)
    6856              DW$371  .dwtag  DW_TAG_loop_range
    6857                      .dwattr DW$371, DW_AT_low_pc(DW$L$_f_read$31$B)
    6858                      .dwattr DW$371, DW_AT_high_pc(DW$L$_f_read$31$E)
    6859              DW$372  .dwtag  DW_TAG_loop_range
    6860                      .dwattr DW$372, DW_AT_low_pc(DW$L$_f_read$36$B)
    6861                      .dwattr DW$372, DW_AT_high_pc(DW$L$_f_read$36$E)
    6862              DW$373  .dwtag  DW_TAG_loop_range
    6863                      .dwattr DW$373, DW_AT_low_pc(DW$L$_f_read$38$B)
    6864                      .dwattr DW$373, DW_AT_high_pc(DW$L$_f_read$38$E)
    6865              DW$374  .dwtag  DW_TAG_loop_range
    6866                      .dwattr DW$374, DW_AT_low_pc(DW$L$_f_read$39$B)
    6867                      .dwattr DW$374, DW_AT_high_pc(DW$L$_f_read$39$E)
    6868              DW$375  .dwtag  DW_TAG_loop_range
    6869                      .dwattr DW$375, DW_AT_low_pc(DW$L$_f_read$40$B)
    6870                      .dwattr DW$375, DW_AT_high_pc(DW$L$_f_read$40$E)
    6871              DW$376  .dwtag  DW_TAG_loop_range
    6872                      .dwattr DW$376, DW_AT_low_pc(DW$L$_f_read$12$B)
    6873                      .dwattr DW$376, DW_AT_high_pc(DW$L$_f_read$12$E)
    6874              DW$377  .dwtag  DW_TAG_loop_range
    6875                      .dwattr DW$377, DW_AT_low_pc(DW$L$_f_read$13$B)
    6876                      .dwattr DW$377, DW_AT_high_pc(DW$L$_f_read$13$E)
    6877              DW$378  .dwtag  DW_TAG_loop_range
    6878                      .dwattr DW$378, DW_AT_low_pc(DW$L$_f_read$14$B)
    6879                      .dwattr DW$378, DW_AT_high_pc(DW$L$_f_read$14$E)
    6880              DW$379  .dwtag  DW_TAG_loop_range
    6881                      .dwattr DW$379, DW_AT_low_pc(DW$L$_f_read$15$B)
    6882                      .dwattr DW$379, DW_AT_high_pc(DW$L$_f_read$15$E)
    6883              DW$380  .dwtag  DW_TAG_loop_range
    6884                      .dwattr DW$380, DW_AT_low_pc(DW$L$_f_read$17$B)
    6885                      .dwattr DW$380, DW_AT_high_pc(DW$L$_f_read$17$E)
    6886              DW$381  .dwtag  DW_TAG_loop_range
    6887                      .dwattr DW$381, DW_AT_low_pc(DW$L$_f_read$11$B)
    6888                      .dwattr DW$381, DW_AT_high_pc(DW$L$_f_read$11$E)
    6889              DW$382  .dwtag  DW_TAG_loop_range
    6890                      .dwattr DW$382, DW_AT_low_pc(DW$L$_f_read$19$B)
    6891                      .dwattr DW$382, DW_AT_high_pc(DW$L$_f_read$19$E)
    6892              DW$383  .dwtag  DW_TAG_loop_range
    6893                      .dwattr DW$383, DW_AT_low_pc(DW$L$_f_read$20$B)
    6894                      .dwattr DW$383, DW_AT_high_pc(DW$L$_f_read$20$E)
    6895              DW$384  .dwtag  DW_TAG_loop_range
    6896                      .dwattr DW$384, DW_AT_low_pc(DW$L$_f_read$22$B)
    6897                      .dwattr DW$384, DW_AT_high_pc(DW$L$_f_read$22$E)
    6898              DW$385  .dwtag  DW_TAG_loop_range
    6899                      .dwattr DW$385, DW_AT_low_pc(DW$L$_f_read$23$B)
    6900                      .dwattr DW$385, DW_AT_high_pc(DW$L$_f_read$23$E)
    6901              DW$386  .dwtag  DW_TAG_loop_range
    6902                      .dwattr DW$386, DW_AT_low_pc(DW$L$_f_read$24$B)
    6903                      .dwattr DW$386, DW_AT_high_pc(DW$L$_f_read$24$E)
    6904              DW$387  .dwtag  DW_TAG_loop_range
TMS320C2000 COFF Assembler PC v4.1.3 Thu May 05 10:06:00 2011

Tools Copyright (c) 1996-2006 Texas Instruments Incorporated
C:\DOCUME~1\ADMINI~1\LOCALS~1\Temp\TI1122                            PAGE  133

    6905                      .dwattr DW$387, DW_AT_low_pc(DW$L$_f_read$25$B)
    6906                      .dwattr DW$387, DW_AT_high_pc(DW$L$_f_read$25$E)
    6907              DW$388  .dwtag  DW_TAG_loop_range
    6908                      .dwattr DW$388, DW_AT_low_pc(DW$L$_f_read$27$B)
    6909                      .dwattr DW$388, DW_AT_high_pc(DW$L$_f_read$27$E)
    6910              DW$389  .dwtag  DW_TAG_loop_range
    6911                      .dwattr DW$389, DW_AT_low_pc(DW$L$_f_read$28$B)
    6912                      .dwattr DW$389, DW_AT_high_pc(DW$L$_f_read$28$E)
    6913              DW$390  .dwtag  DW_TAG_loop_range
    6914                      .dwattr DW$390, DW_AT_low_pc(DW$L$_f_read$29$B)
    6915                      .dwattr DW$390, DW_AT_high_pc(DW$L$_f_read$29$E)
    6916              DW$391  .dwtag  DW_TAG_loop_range
    6917                      .dwattr DW$391, DW_AT_low_pc(DW$L$_f_read$30$B)
    6918                      .dwattr DW$391, DW_AT_high_pc(DW$L$_f_read$30$E)
    6919              DW$392  .dwtag  DW_TAG_loop_range
    6920                      .dwattr DW$392, DW_AT_low_pc(DW$L$_f_read$41$B)
    6921                      .dwattr DW$392, DW_AT_high_pc(DW$L$_f_read$41$E)
    6922              DW$393  .dwtag  DW_TAG_loop_range
    6923                      .dwattr DW$393, DW_AT_low_pc(DW$L$_f_read$42$B)
    6924                      .dwattr DW$393, DW_AT_high_pc(DW$L$_f_read$42$E)
    6925                      .dwendtag DW$366
    6926              
    6927                      .dwattr DW$350, DW_AT_end_file("ff.c")
    6928                      .dwattr DW$350, DW_AT_end_line(0xaaa)
    6929                      .dwattr DW$350, DW_AT_end_column(0x01)
    6930                      .dwendentry
    6931                      .dwendtag DW$350
    6932              
    6933 00000d75               .sect   ".text"
    6934                      .global _f_write
    6935              
    6936              DW$394  .dwtag  DW_TAG_subprogram, DW_AT_name("f_write"), DW_AT_symbol_name("_f_write")
    6937                      .dwattr DW$394, DW_AT_low_pc(_f_write)
    6938                      .dwattr DW$394, DW_AT_high_pc(0x00)
    6939                      .dwattr DW$394, DW_AT_begin_file("ff.c")
    6940                      .dwattr DW$394, DW_AT_begin_line(0xab4)
    6941                      .dwattr DW$394, DW_AT_begin_column(0x09)
    6942                      .dwpsn  "ff.c",2746,1
    6943              
    6944                      .dwfde DW$CIE
    6945              
    6946              ;***************************************************************
    6947              ;* FNAME: _f_write                      FR SIZE:  18           *
    6948              ;*                                                             *
    6949              ;* FUNCTION ENVIRONMENT                                        *
    6950              ;*                                                             *
    6951              ;* FUNCTION PROPERTIES                                         *
    6952              ;*                            1 Parameter, 16 Auto,  0 SOE     *
    6953              ;***************************************************************
    6954              
    6955              _f_write:
    6956                      .dwcfa  0x1d, -2
    6957                      .dwcfa  0x1c, 26, 0
    6958                      .dwcfa  0x09, 40, 26
    6959 00000d75 FE12          ADDB      SP,#18
TMS320C2000 COFF Assembler PC v4.1.3 Thu May 05 10:06:00 2011

Tools Copyright (c) 1996-2006 Texas Instruments Incorporated
C:\DOCUME~1\ADMINI~1\LOCALS~1\Temp\TI1122                            PAGE  134

    6960                      .dwcfa  0x1d, -20
    6961              ;* AR4   assigned to _fp
    6962              DW$395  .dwtag  DW_TAG_formal_parameter, DW_AT_name("fp"), DW_AT_symbol_name("_fp")
    6963                      .dwattr DW$395, DW_AT_type(*DW$T$89)
    6964                      .dwattr DW$395, DW_AT_location[DW_OP_reg12]
    6965              ;* AR5   assigned to _buff
    6966              DW$396  .dwtag  DW_TAG_formal_parameter, DW_AT_name("buff"), DW_AT_symbol_name("_buff")
    6967                      .dwattr DW$396, DW_AT_type(*DW$T$42)
    6968                      .dwattr DW$396, DW_AT_location[DW_OP_reg14]
    6969              ;* AL    assigned to _btw
    6970              DW$397  .dwtag  DW_TAG_formal_parameter, DW_AT_name("btw"), DW_AT_symbol_name("_btw")
    6971                      .dwattr DW$397, DW_AT_type(*DW$T$43)
    6972                      .dwattr DW$397, DW_AT_location[DW_OP_reg0]
    6973              DW$398  .dwtag  DW_TAG_formal_parameter, DW_AT_name("bw"), DW_AT_symbol_name("_bw")
    6974                      .dwattr DW$398, DW_AT_type(*DW$T$98)
    6975                      .dwattr DW$398, DW_AT_location[DW_OP_breg20 -22]
    6976              DW$399  .dwtag  DW_TAG_variable, DW_AT_name("fp"), DW_AT_symbol_name("_fp")
    6977                      .dwattr DW$399, DW_AT_type(*DW$T$89)
    6978                      .dwattr DW$399, DW_AT_location[DW_OP_breg20 -4]
    6979              DW$400  .dwtag  DW_TAG_variable, DW_AT_name("buff"), DW_AT_symbol_name("_buff")
    6980                      .dwattr DW$400, DW_AT_type(*DW$T$42)
    6981                      .dwattr DW$400, DW_AT_location[DW_OP_breg20 -6]
    6982              DW$401  .dwtag  DW_TAG_variable, DW_AT_name("btw"), DW_AT_symbol_name("_btw")
    6983                      .dwattr DW$401, DW_AT_type(*DW$T$43)
    6984                      .dwattr DW$401, DW_AT_location[DW_OP_breg20 -7]
    6985              DW$402  .dwtag  DW_TAG_variable, DW_AT_name("res"), DW_AT_symbol_name("_res")
    6986                      .dwattr DW$402, DW_AT_type(*DW$T$49)
    6987                      .dwattr DW$402, DW_AT_location[DW_OP_breg20 -8]
    6988              DW$403  .dwtag  DW_TAG_variable, DW_AT_name("clst"), DW_AT_symbol_name("_clst")
    6989                      .dwattr DW$403, DW_AT_type(*DW$T$27)
    6990                      .dwattr DW$403, DW_AT_location[DW_OP_breg20 -10]
    6991              DW$404  .dwtag  DW_TAG_variable, DW_AT_name("sect"), DW_AT_symbol_name("_sect")
    6992                      .dwattr DW$404, DW_AT_type(*DW$T$27)
    6993                      .dwattr DW$404, DW_AT_location[DW_OP_breg20 -12]
    6994              DW$405  .dwtag  DW_TAG_variable, DW_AT_name("wcnt"), DW_AT_symbol_name("_wcnt")
    6995                      .dwattr DW$405, DW_AT_type(*DW$T$43)
    6996                      .dwattr DW$405, DW_AT_location[DW_OP_breg20 -13]
    6997              DW$406  .dwtag  DW_TAG_variable, DW_AT_name("cc"), DW_AT_symbol_name("_cc")
    6998                      .dwattr DW$406, DW_AT_type(*DW$T$43)
    6999                      .dwattr DW$406, DW_AT_location[DW_OP_breg20 -14]
    7000              DW$407  .dwtag  DW_TAG_variable, DW_AT_name("wbuff"), DW_AT_symbol_name("_wbuff")
    7001                      .dwattr DW$407, DW_AT_type(*DW$T$62)
    7002                      .dwattr DW$407, DW_AT_location[DW_OP_breg20 -16]
    7003              DW$408  .dwtag  DW_TAG_variable, DW_AT_name("csect"), DW_AT_symbol_name("_csect")
    7004                      .dwattr DW$408, DW_AT_type(*DW$T$23)
    7005                      .dwattr DW$408, DW_AT_location[DW_OP_breg20 -17]
    7006 00000d76 9647          MOV       *-SP[7],AL            ; |2746| 
    7007 00000d77 A046          MOVL      *-SP[6],XAR5          ; |2746| 
    7008 00000d78 A844          MOVL      *-SP[4],XAR4          ; |2746| 
    7009                      .dwpsn  "ff.c",2750,14
    7010 00000d79 0646          MOVL      ACC,*-SP[6]           ; |2750| 
    7011 00000d7a 1E50          MOVL      *-SP[16],ACC          ; |2750| 
    7012                      .dwpsn  "ff.c",2754,2
    7013 00000d7b 8A56          MOVL      XAR4,*-SP[22]         ; |2754| 
    7014 00000d7c 2BC4          MOV       *+XAR4[0],#0          ; |2754| 
TMS320C2000 COFF Assembler PC v4.1.3 Thu May 05 10:06:00 2011

Tools Copyright (c) 1996-2006 Texas Instruments Incorporated
C:\DOCUME~1\ADMINI~1\LOCALS~1\Temp\TI1122                            PAGE  135

    7015                      .dwpsn  "ff.c",2756,2
    7016 00000d7d 8A44          MOVL      XAR4,*-SP[4]          ; |2756| 
    7017 00000d7e 8344          MOVL      XAR5,*-SP[4]          ; |2756| 
    7018 00000d7f 8AC4          MOVL      XAR4,*+XAR4[0]        ; |2756| 
    7019 00000d80 92D5          MOV       AL,*+XAR5[2]          ; |2756| 
    7020 00000d81 7640'         LCR       #_validate            ; |2756| 
         00000d82 0AC3 
    7021                      ; call occurs [#_validate] ; |2756| 
    7022 00000d83 9648          MOV       *-SP[8],AL            ; |2756| 
    7023                      .dwpsn  "ff.c",2757,2
    7024 00000d84 5200          CMPB      AL,#0                 ; |2757| 
    7025 00000d85 EC08          BF        L236,EQ               ; |2757| 
    7026                      ; branchcc occurs ; |2757| 
    7027                      .dwpsn  "ff.c",2757,22
    7028 00000d86 8A44          MOVL      XAR4,*-SP[4]          ; |2757| 
    7029 00000d87 8AC4          MOVL      XAR4,*+XAR4[0]        ; |2757| 
    7030 00000d88 7640'         LCR       #_unlock_fs           ; |2757| 
         00000d89 0064 
    7031                      ; call occurs [#_unlock_fs] ; |2757| 
    7032 00000d8a 9248          MOV       AL,*-SP[8]            ; |2757| 
    7033 00000d8b FFEF          B         L259,UNC              ; |2757| 
         00000d8c 0151 
    7034                      ; branch occurs ; |2757| 
    7035              L236:    
    7036                      .dwpsn  "ff.c",2758,2
    7037 00000d8d 8A44          MOVL      XAR4,*-SP[4]          ; |2758| 
    7038 00000d8e 47DC          TBIT      *+XAR4[3],#7          ; |2758| 
    7039 00000d8f EF09          BF        L237,NTC              ; |2758| 
    7040                      ; branchcc occurs ; |2758| 
    7041                      .dwpsn  "ff.c",2759,3
    7042 00000d90 8A44          MOVL      XAR4,*-SP[4]          ; |2759| 
    7043 00000d91 8AC4          MOVL      XAR4,*+XAR4[0]        ; |2759| 
    7044 00000d92 9A02          MOVB      AL,#2                 ; |2759| 
    7045 00000d93 7640'         LCR       #_unlock_fs           ; |2759| 
         00000d94 0064 
    7046                      ; call occurs [#_unlock_fs] ; |2759| 
    7047 00000d95 9A02          MOVB      AL,#2                 ; |2759| 
    7048 00000d96 FFEF          B         L259,UNC              ; |2759| 
         00000d97 0146 
    7049                      ; branch occurs ; |2759| 
    7050              L237:    
    7051                      .dwpsn  "ff.c",2760,2
    7052 00000d98 8A44          MOVL      XAR4,*-SP[4]          ; |2760| 
    7053 00000d99 41DC          TBIT      *+XAR4[3],#1          ; |2760| 
    7054 00000d9a EE09          BF        L238,TC               ; |2760| 
    7055                      ; branchcc occurs ; |2760| 
    7056                      .dwpsn  "ff.c",2761,3
    7057 00000d9b 8A44          MOVL      XAR4,*-SP[4]          ; |2761| 
    7058 00000d9c 8AC4          MOVL      XAR4,*+XAR4[0]        ; |2761| 
    7059 00000d9d 9A07          MOVB      AL,#7                 ; |2761| 
    7060 00000d9e 7640'         LCR       #_unlock_fs           ; |2761| 
         00000d9f 0064 
    7061                      ; call occurs [#_unlock_fs] ; |2761| 
    7062 00000da0 9A07          MOVB      AL,#7                 ; |2761| 
    7063 00000da1 FFEF          B         L259,UNC              ; |2761| 
TMS320C2000 COFF Assembler PC v4.1.3 Thu May 05 10:06:00 2011

Tools Copyright (c) 1996-2006 Texas Instruments Incorporated
C:\DOCUME~1\ADMINI~1\LOCALS~1\Temp\TI1122                            PAGE  136

         00000da2 013B 
    7064                      ; branch occurs ; |2761| 
    7065              L238:    
    7066                      .dwpsn  "ff.c",2762,2
    7067 00000da3 8A44          MOVL      XAR4,*-SP[4]          ; |2762| 
    7068 00000da4 0E47          MOVU      ACC,*-SP[7]
    7069 00000da5 D008          MOVB      XAR0,#8               ; |2762| 
    7070 00000da6 0794          ADDL      ACC,*+XAR4[AR0]       ; |2762| 
    7071 00000da7 8A44          MOVL      XAR4,*-SP[4]          ; |2762| 
    7072 00000da8 0F94          CMPL      ACC,*+XAR4[AR0]       ; |2762| 
    7073 00000da9 6702          B         L239,HIS              ; |2762| 
    7074                      ; branchcc occurs ; |2762| 
    7075                      .dwpsn  "ff.c",2762,49
    7076 00000daa 2B47          MOV       *-SP[7],#0            ; |2762| 
    7077              L239:    
    7078                      .dwpsn  "ff.c",2764,2
    7079 00000dab 9247          MOV       AL,*-SP[7]            ; |2764| 
    7080 00000dac 56C1          BF        L257,EQ               ; |2764| 
         00000dad 011D 
    7081                      ; branchcc occurs ; |2764| 
    7082              L240:    
    7083              DW$L$_f_write$10$B:
    7084                      .dwpsn  "ff.c",2767,3
    7085 00000dae 8A44          MOVL      XAR4,*-SP[4]          ; |2767| 
    7086 00000daf 06F4          MOVL      ACC,*+XAR4[6]         ; |2767| 
    7087 00000db0 18A9          AND       AL,#0x01ff            ; |2767| 
         00000db1 01FF 
    7088 00000db2 9B00          MOVB      AH,#0
    7089 00000db3 FF58          TEST      ACC                   ; |2767| 
    7090 00000db4 56C0          BF        L254,NEQ              ; |2767| 
         00000db5 00E8 
    7091                      ; branchcc occurs ; |2767| 
    7092              DW$L$_f_write$10$E:
    7093              DW$L$_f_write$11$B:
    7094                      .dwpsn  "ff.c",2769,4
    7095 00000db6 8A44          MOVL      XAR4,*-SP[4]          ; |2769| 
    7096 00000db7 8AC4          MOVL      XAR4,*+XAR4[0]        ; |2769| 
    7097 00000db8 92D4          MOV       AL,*+XAR4[2]          ; |2769| 
    7098 00000db9 8A44          MOVL      XAR4,*-SP[4]          ; |2769| 
    7099 00000dba 9CFF          ADDB      AL,#-1
    7100 00000dbb 88A9          MOVZ      AR6,AL                ; |2769| 
    7101 00000dbc 2901          CLRC      SXM
    7102 00000dbd 06F4          MOVL      ACC,*+XAR4[6]         ; |2769| 
    7103 00000dbe FF48          SFR       ACC,9                 ; |2769| 
    7104 00000dbf 89A6          AND       ACC,AR6               ; |2769| 
    7105 00000dc0 9651          MOV       *-SP[17],AL           ; |2769| 
    7106                      .dwpsn  "ff.c",2770,4
    7107 00000dc1 ED40          BF        L245,NEQ              ; |2770| 
    7108                      ; branchcc occurs ; |2770| 
    7109              DW$L$_f_write$11$E:
    7110              DW$L$_f_write$12$B:
    7111                      .dwpsn  "ff.c",2772,5
    7112 00000dc2 8A44          MOVL      XAR4,*-SP[4]          ; |2772| 
    7113 00000dc3 06F4          MOVL      ACC,*+XAR4[6]         ; |2772| 
    7114 00000dc4 ED11          BF        L241,NEQ              ; |2772| 
TMS320C2000 COFF Assembler PC v4.1.3 Thu May 05 10:06:00 2011

Tools Copyright (c) 1996-2006 Texas Instruments Incorporated
C:\DOCUME~1\ADMINI~1\LOCALS~1\Temp\TI1122                            PAGE  137

    7115                      ; branchcc occurs ; |2772| 
    7116              DW$L$_f_write$12$E:
    7117              DW$L$_f_write$13$B:
    7118                      .dwpsn  "ff.c",2774,6
    7119 00000dc5 8A44          MOVL      XAR4,*-SP[4]          ; |2774| 
    7120 00000dc6 D00A          MOVB      XAR0,#10              ; |2774| 
    7121 00000dc7 0694          MOVL      ACC,*+XAR4[AR0]       ; |2774| 
    7122 00000dc8 1E4A          MOVL      *-SP[10],ACC          ; |2774| 
    7123                      .dwpsn  "ff.c",2775,6
    7124 00000dc9 064A          MOVL      ACC,*-SP[10]          ; |2775| 
    7125 00000dca ED13          BF        L242,NEQ              ; |2775| 
    7126                      ; branchcc occurs ; |2775| 
    7127              DW$L$_f_write$13$E:
    7128              DW$L$_f_write$14$B:
    7129                      .dwpsn  "ff.c",2776,7
    7130 00000dcb 8A44          MOVL      XAR4,*-SP[4]          ; |2776| 
    7131 00000dcc 8AC4          MOVL      XAR4,*+XAR4[0]        ; |2776| 
    7132 00000dcd 0200          MOVB      ACC,#0
    7133 00000dce 7640'         LCR       #_create_chain        ; |2776| 
         00000dcf 035B 
    7134                      ; call occurs [#_create_chain] ; |2776| 
    7135 00000dd0 1E4A          MOVL      *-SP[10],ACC          ; |2776| 
    7136 00000dd1 8A44          MOVL      XAR4,*-SP[4]          ; |2776| 
    7137 00000dd2 D00A          MOVB      XAR0,#10              ; |2776| 
    7138 00000dd3 1E94          MOVL      *+XAR4[AR0],ACC       ; |2776| 
    7139                      .dwpsn  "ff.c",2777,5
    7140 00000dd4 6F09          B         L242,UNC              ; |2777| 
    7141                      ; branch occurs ; |2777| 
    7142              DW$L$_f_write$14$E:
    7143              L241:    
    7144              DW$L$_f_write$15$B:
    7145                      .dwpsn  "ff.c",2785,7
    7146 00000dd5 8A44          MOVL      XAR4,*-SP[4]          ; |2785| 
    7147 00000dd6 8344          MOVL      XAR5,*-SP[4]          ; |2785| 
    7148 00000dd7 8AC4          MOVL      XAR4,*+XAR4[0]        ; |2785| 
    7149 00000dd8 D00C          MOVB      XAR0,#12              ; |2785| 
    7150 00000dd9 0695          MOVL      ACC,*+XAR5[AR0]       ; |2785| 
    7151 00000dda 7640'         LCR       #_create_chain        ; |2785| 
         00000ddb 035B 
    7152                      ; call occurs [#_create_chain] ; |2785| 
    7153 00000ddc 1E4A          MOVL      *-SP[10],ACC          ; |2785| 
    7154              DW$L$_f_write$15$E:
    7155              L242:    
    7156              DW$L$_f_write$16$B:
    7157                      .dwpsn  "ff.c",2787,5
    7158 00000ddd 064A          MOVL      ACC,*-SP[10]          ; |2787| 
    7159 00000dde 56C1          BF        L257,EQ               ; |2787| 
         00000ddf 00EB 
    7160                      ; branchcc occurs ; |2787| 
    7161              DW$L$_f_write$16$E:
    7162              DW$L$_f_write$17$B:
    7163                      .dwpsn  "ff.c",2787,22
    7164                      .dwpsn  "ff.c",2788,5
    7165 00000de0 0201          MOVB      ACC,#1
    7166 00000de1 0F4A          CMPL      ACC,*-SP[10]          ; |2788| 
TMS320C2000 COFF Assembler PC v4.1.3 Thu May 05 10:06:00 2011

Tools Copyright (c) 1996-2006 Texas Instruments Incorporated
C:\DOCUME~1\ADMINI~1\LOCALS~1\Temp\TI1122                            PAGE  138

    7167 00000de2 ED0C          BF        L243,NEQ              ; |2788| 
    7168                      ; branchcc occurs ; |2788| 
    7169              DW$L$_f_write$17$E:
    7170                      .dwpsn  "ff.c",2788,22
    7171 00000de3 8A44          MOVL      XAR4,*-SP[4]          ; |2788| 
    7172 00000de4 1ADC          OR        *+XAR4[3],#0x0080     ; |2788| 
         00000de5 0080 
    7173 00000de6 8A44          MOVL      XAR4,*-SP[4]          ; |2788| 
    7174 00000de7 8AC4          MOVL      XAR4,*+XAR4[0]        ; |2788| 
    7175 00000de8 9A02          MOVB      AL,#2                 ; |2788| 
    7176 00000de9 7640'         LCR       #_unlock_fs           ; |2788| 
         00000dea 0064 
    7177                      ; call occurs [#_unlock_fs] ; |2788| 
    7178 00000deb 9A02          MOVB      AL,#2                 ; |2788| 
    7179 00000dec FFEF          B         L259,UNC              ; |2788| 
         00000ded 00F0 
    7180                      ; branch occurs ; |2788| 
    7181              L243:    
    7182              DW$L$_f_write$19$B:
    7183                      .dwpsn  "ff.c",2789,5
    7184 00000dee 0200          MOVB      ACC,#0
    7185 00000def 1901          SUBB      ACC,#1
    7186 00000df0 0F4A          CMPL      ACC,*-SP[10]          ; |2789| 
    7187 00000df1 ED0C          BF        L244,NEQ              ; |2789| 
    7188                      ; branchcc occurs ; |2789| 
    7189              DW$L$_f_write$19$E:
    7190                      .dwpsn  "ff.c",2789,31
    7191 00000df2 8A44          MOVL      XAR4,*-SP[4]          ; |2789| 
    7192 00000df3 1ADC          OR        *+XAR4[3],#0x0080     ; |2789| 
         00000df4 0080 
    7193 00000df5 8A44          MOVL      XAR4,*-SP[4]          ; |2789| 
    7194 00000df6 8AC4          MOVL      XAR4,*+XAR4[0]        ; |2789| 
    7195 00000df7 9A01          MOVB      AL,#1                 ; |2789| 
    7196 00000df8 7640'         LCR       #_unlock_fs           ; |2789| 
         00000df9 0064 
    7197                      ; call occurs [#_unlock_fs] ; |2789| 
    7198 00000dfa 9A01          MOVB      AL,#1                 ; |2789| 
    7199 00000dfb FFEF          B         L259,UNC              ; |2789| 
         00000dfc 00E1 
    7200                      ; branch occurs ; |2789| 
    7201              L244:    
    7202              DW$L$_f_write$21$B:
    7203                      .dwpsn  "ff.c",2790,5
    7204 00000dfd 8A44          MOVL      XAR4,*-SP[4]          ; |2790| 
    7205 00000dfe 064A          MOVL      ACC,*-SP[10]          ; |2790| 
    7206 00000dff D00C          MOVB      XAR0,#12              ; |2790| 
    7207 00000e00 1E94          MOVL      *+XAR4[AR0],ACC       ; |2790| 
    7208              DW$L$_f_write$21$E:
    7209              L245:    
    7210              DW$L$_f_write$22$B:
    7211                      .dwpsn  "ff.c",2796,4
    7212 00000e01 8A44          MOVL      XAR4,*-SP[4]          ; |2796| 
    7213 00000e02 46DC          TBIT      *+XAR4[3],#6          ; |2796| 
    7214 00000e03 EF1D          BF        L247,NTC              ; |2796| 
    7215                      ; branchcc occurs ; |2796| 
TMS320C2000 COFF Assembler PC v4.1.3 Thu May 05 10:06:00 2011

Tools Copyright (c) 1996-2006 Texas Instruments Incorporated
C:\DOCUME~1\ADMINI~1\LOCALS~1\Temp\TI1122                            PAGE  139

    7216              DW$L$_f_write$22$E:
    7217              DW$L$_f_write$23$B:
    7218                      .dwpsn  "ff.c",2798,5
    7219 00000e04 2841          MOV       *-SP[1],#1            ; |2798| 
         00000e05 0001 
    7220 00000e06 8A44          MOVL      XAR4,*-SP[4]          ; |2798| 
    7221 00000e07 8AC4          MOVL      XAR4,*+XAR4[0]        ; |2798| 
    7222 00000e08 C444          MOVL      XAR6,*-SP[4]          ; |2798| 
    7223 00000e09 5DCC          MOVZ      AR5,*+XAR4[1]         ; |2798| 
    7224 00000e0a 8A44          MOVL      XAR4,*-SP[4]          ; |2798| 
    7225 00000e0b D00E          MOVB      XAR0,#14              ; |2798| 
    7226 00000e0c 0696          MOVL      ACC,*+XAR6[AR0]       ; |2798| 
    7227 00000e0d DC14          ADDB      XAR4,#20              ; |2798| 
    7228 00000e0e 7640!         LCR       #_disk_write          ; |2798| 
         00000e0f 0000 
    7229                      ; call occurs [#_disk_write] ; |2798| 
    7230 00000e10 5200          CMPB      AL,#0                 ; |2798| 
    7231 00000e11 EC0C          BF        L246,EQ               ; |2798| 
    7232                      ; branchcc occurs ; |2798| 
    7233              DW$L$_f_write$23$E:
    7234                      .dwpsn  "ff.c",2799,6
    7235 00000e12 8A44          MOVL      XAR4,*-SP[4]          ; |2799| 
    7236 00000e13 1ADC          OR        *+XAR4[3],#0x0080     ; |2799| 
         00000e14 0080 
    7237 00000e15 8A44          MOVL      XAR4,*-SP[4]          ; |2799| 
    7238 00000e16 8AC4          MOVL      XAR4,*+XAR4[0]        ; |2799| 
    7239 00000e17 9A01          MOVB      AL,#1                 ; |2799| 
    7240 00000e18 7640'         LCR       #_unlock_fs           ; |2799| 
         00000e19 0064 
    7241                      ; call occurs [#_unlock_fs] ; |2799| 
    7242 00000e1a 9A01          MOVB      AL,#1                 ; |2799| 
    7243 00000e1b FFEF          B         L259,UNC              ; |2799| 
         00000e1c 00C1 
    7244                      ; branch occurs ; |2799| 
    7245              L246:    
    7246              DW$L$_f_write$25$B:
    7247                      .dwpsn  "ff.c",2800,5
    7248 00000e1d 8A44          MOVL      XAR4,*-SP[4]          ; |2800| 
    7249 00000e1e 18DC          AND       *+XAR4[3],#0xffbf     ; |2800| 
         00000e1f FFBF 
    7250              DW$L$_f_write$25$E:
    7251              L247:    
    7252              DW$L$_f_write$26$B:
    7253                      .dwpsn  "ff.c",2803,4
    7254 00000e20 8A44          MOVL      XAR4,*-SP[4]          ; |2803| 
    7255 00000e21 8344          MOVL      XAR5,*-SP[4]          ; |2803| 
    7256 00000e22 8AC4          MOVL      XAR4,*+XAR4[0]        ; |2803| 
    7257 00000e23 D00C          MOVB      XAR0,#12              ; |2803| 
    7258 00000e24 0695          MOVL      ACC,*+XAR5[AR0]       ; |2803| 
    7259 00000e25 7640'         LCR       #_clust2sect          ; |2803| 
         00000e26 016E 
    7260                      ; call occurs [#_clust2sect] ; |2803| 
    7261 00000e27 1E4C          MOVL      *-SP[12],ACC          ; |2803| 
    7262                      .dwpsn  "ff.c",2804,4
    7263 00000e28 064C          MOVL      ACC,*-SP[12]          ; |2804| 
TMS320C2000 COFF Assembler PC v4.1.3 Thu May 05 10:06:00 2011

Tools Copyright (c) 1996-2006 Texas Instruments Incorporated
C:\DOCUME~1\ADMINI~1\LOCALS~1\Temp\TI1122                            PAGE  140

    7264 00000e29 ED0C          BF        L248,NEQ              ; |2804| 
    7265                      ; branchcc occurs ; |2804| 
    7266              DW$L$_f_write$26$E:
    7267                      .dwpsn  "ff.c",2804,17
    7268 00000e2a 8A44          MOVL      XAR4,*-SP[4]          ; |2804| 
    7269 00000e2b 1ADC          OR        *+XAR4[3],#0x0080     ; |2804| 
         00000e2c 0080 
    7270 00000e2d 8A44          MOVL      XAR4,*-SP[4]          ; |2804| 
    7271 00000e2e 8AC4          MOVL      XAR4,*+XAR4[0]        ; |2804| 
    7272 00000e2f 9A02          MOVB      AL,#2                 ; |2804| 
    7273 00000e30 7640'         LCR       #_unlock_fs           ; |2804| 
         00000e31 0064 
    7274                      ; call occurs [#_unlock_fs] ; |2804| 
    7275 00000e32 9A02          MOVB      AL,#2                 ; |2804| 
    7276 00000e33 FFEF          B         L259,UNC              ; |2804| 
         00000e34 00A9 
    7277                      ; branch occurs ; |2804| 
    7278              L248:    
    7279              DW$L$_f_write$28$B:
    7280                      .dwpsn  "ff.c",2805,4
    7281 00000e35 0E51          MOVU      ACC,*-SP[17]
    7282 00000e36 074C          ADDL      ACC,*-SP[12]          ; |2805| 
    7283 00000e37 1E4C          MOVL      *-SP[12],ACC          ; |2805| 
    7284                      .dwpsn  "ff.c",2806,4
    7285 00000e38 9247          MOV       AL,*-SP[7]            ; |2806| 
    7286 00000e39 FFC8          LSR       AL,9                  ; |2806| 
    7287 00000e3a 964E          MOV       *-SP[14],AL           ; |2806| 
    7288                      .dwpsn  "ff.c",2807,4
    7289 00000e3b EC3C          BF        L252,EQ               ; |2807| 
    7290                      ; branchcc occurs ; |2807| 
    7291              DW$L$_f_write$28$E:
    7292              DW$L$_f_write$29$B:
    7293                      .dwpsn  "ff.c",2809,5
    7294 00000e3c 8A44          MOVL      XAR4,*-SP[4]          ; |2809| 
    7295 00000e3d 8AC4          MOVL      XAR4,*+XAR4[0]        ; |2809| 
    7296 00000e3e 9451          ADD       AL,*-SP[17]           ; |2809| 
    7297 00000e3f 54D4          CMP       AL,*+XAR4[2]          ; |2809| 
    7298 00000e40 6906          B         L249,LOS              ; |2809| 
    7299                      ; branchcc occurs ; |2809| 
    7300              DW$L$_f_write$29$E:
    7301              DW$L$_f_write$30$B:
    7302                      .dwpsn  "ff.c",2810,6
    7303 00000e41 8A44          MOVL      XAR4,*-SP[4]          ; |2810| 
    7304 00000e42 8AC4          MOVL      XAR4,*+XAR4[0]        ; |2810| 
    7305 00000e43 92D4          MOV       AL,*+XAR4[2]          ; |2810| 
    7306 00000e44 9E51          SUB       AL,*-SP[17]           ; |2810| 
    7307 00000e45 964E          MOV       *-SP[14],AL           ; |2810| 
    7308              DW$L$_f_write$30$E:
    7309              L249:    
    7310              DW$L$_f_write$31$B:
    7311                      .dwpsn  "ff.c",2811,5
    7312 00000e46 924E          MOV       AL,*-SP[14]           ; |2811| 
    7313 00000e47 9641          MOV       *-SP[1],AL            ; |2811| 
    7314 00000e48 8A44          MOVL      XAR4,*-SP[4]          ; |2811| 
    7315 00000e49 8AC4          MOVL      XAR4,*+XAR4[0]        ; |2811| 
TMS320C2000 COFF Assembler PC v4.1.3 Thu May 05 10:06:00 2011

Tools Copyright (c) 1996-2006 Texas Instruments Incorporated
C:\DOCUME~1\ADMINI~1\LOCALS~1\Temp\TI1122                            PAGE  141

    7316 00000e4a 5DCC          MOVZ      AR5,*+XAR4[1]         ; |2811| 
    7317 00000e4b 8A50          MOVL      XAR4,*-SP[16]         ; |2811| 
    7318 00000e4c 064C          MOVL      ACC,*-SP[12]          ; |2811| 
    7319 00000e4d 7640!         LCR       #_disk_write          ; |2811| 
         00000e4e 0000 
    7320                      ; call occurs [#_disk_write] ; |2811| 
    7321 00000e4f 5200          CMPB      AL,#0                 ; |2811| 
    7322 00000e50 EC0C          BF        L250,EQ               ; |2811| 
    7323                      ; branchcc occurs ; |2811| 
    7324              DW$L$_f_write$31$E:
    7325                      .dwpsn  "ff.c",2812,6
    7326 00000e51 8A44          MOVL      XAR4,*-SP[4]          ; |2812| 
    7327 00000e52 1ADC          OR        *+XAR4[3],#0x0080     ; |2812| 
         00000e53 0080 
    7328 00000e54 8A44          MOVL      XAR4,*-SP[4]          ; |2812| 
    7329 00000e55 8AC4          MOVL      XAR4,*+XAR4[0]        ; |2812| 
    7330 00000e56 9A01          MOVB      AL,#1                 ; |2812| 
    7331 00000e57 7640'         LCR       #_unlock_fs           ; |2812| 
         00000e58 0064 
    7332                      ; call occurs [#_unlock_fs] ; |2812| 
    7333 00000e59 9A01          MOVB      AL,#1                 ; |2812| 
    7334 00000e5a FFEF          B         L259,UNC              ; |2812| 
         00000e5b 0082 
    7335                      ; branch occurs ; |2812| 
    7336              L250:    
    7337              DW$L$_f_write$33$B:
    7338                      .dwpsn  "ff.c",2820,5
    7339 00000e5c 8A44          MOVL      XAR4,*-SP[4]          ; |2820| 
    7340 00000e5d 884E          MOVZ      AR6,*-SP[14]
    7341 00000e5e D00E          MOVB      XAR0,#14              ; |2820| 
    7342 00000e5f 0694          MOVL      ACC,*+XAR4[AR0]       ; |2820| 
    7343 00000e60 034C          SUBL      ACC,*-SP[12]          ; |2820| 
    7344 00000e61 0FA6          CMPL      ACC,XAR6              ; |2820| 
    7345 00000e62 6711          B         L251,HIS              ; |2820| 
    7346                      ; branchcc occurs ; |2820| 
    7347              DW$L$_f_write$33$E:
    7348              DW$L$_f_write$34$B:
    7349                      .dwpsn  "ff.c",2822,6
    7350 00000e63 8344          MOVL      XAR5,*-SP[4]          ; |2822| 
    7351 00000e64 0695          MOVL      ACC,*+XAR5[AR0]       ; |2822| 
    7352 00000e65 8350          MOVL      XAR5,*-SP[16]         ; |2822| 
    7353 00000e66 8A44          MOVL      XAR4,*-SP[4]          ; |2822| 
    7354 00000e67 034C          SUBL      ACC,*-SP[12]          ; |2822| 
    7355 00000e68 FF38          LSL       ACC,9                 ; |2822| 
    7356 00000e69 5601          ADDL      XAR5,ACC
         00000e6a 00A5 
    7357 00000e6b DC14          ADDB      XAR4,#20              ; |2822| 
    7358 00000e6c 28A9          MOV       AL,#512               ; |2822| 
         00000e6d 0200 
    7359 00000e6e 7640'         LCR       #_mem_cpy             ; |2822| 
         00000e6f 0000 
    7360                      ; call occurs [#_mem_cpy] ; |2822| 
    7361                      .dwpsn  "ff.c",2823,6
    7362 00000e70 8A44          MOVL      XAR4,*-SP[4]          ; |2823| 
    7363 00000e71 18DC          AND       *+XAR4[3],#0xffbf     ; |2823| 
TMS320C2000 COFF Assembler PC v4.1.3 Thu May 05 10:06:00 2011

Tools Copyright (c) 1996-2006 Texas Instruments Incorporated
C:\DOCUME~1\ADMINI~1\LOCALS~1\Temp\TI1122                            PAGE  142

         00000e72 FFBF 
    7364              DW$L$_f_write$34$E:
    7365              L251:    
    7366              DW$L$_f_write$35$B:
    7367                      .dwpsn  "ff.c",2826,5
    7368 00000e73 5603          MOV       ACC,*-SP[14] << #9    ; |2826| 
         00000e74 094E 
    7369 00000e75 964D          MOV       *-SP[13],AL           ; |2826| 
    7370                      .dwpsn  "ff.c",2827,5
    7371 00000e76 6F44          B         L256,UNC              ; |2827| 
    7372                      ; branch occurs ; |2827| 
    7373              DW$L$_f_write$35$E:
    7374              L252:    
    7375              DW$L$_f_write$36$B:
    7376                      .dwpsn  "ff.c",2836,4
    7377 00000e77 8A44          MOVL      XAR4,*-SP[4]          ; |2836| 
    7378 00000e78 064C          MOVL      ACC,*-SP[12]          ; |2836| 
    7379 00000e79 D00E          MOVB      XAR0,#14              ; |2836| 
    7380 00000e7a 0F94          CMPL      ACC,*+XAR4[AR0]       ; |2836| 
    7381 00000e7b EC1D          BF        L253,EQ               ; |2836| 
    7382                      ; branchcc occurs ; |2836| 
    7383              DW$L$_f_write$36$E:
    7384              DW$L$_f_write$37$B:
    7385                      .dwpsn  "ff.c",2838,5
    7386 00000e7c 8A44          MOVL      XAR4,*-SP[4]          ; |2838| 
    7387 00000e7d D008          MOVB      XAR0,#8               ; |2838| 
    7388 00000e7e 0694          MOVL      ACC,*+XAR4[AR0]       ; |2838| 
    7389 00000e7f 8A44          MOVL      XAR4,*-SP[4]          ; |2838| 
    7390 00000e80 0FF4          CMPL      ACC,*+XAR4[6]         ; |2838| 
    7391 00000e81 6917          B         L253,LOS              ; |2838| 
    7392                      ; branchcc occurs ; |2838| 
    7393 00000e82       DW$L$_f_write$37$E:
    7394 00000e82       DW$L$_f_write$38$B:
    7395 00000e82 2841          MOV       *-SP[1],#1            ; |2838| 
         00000e83 0001 
    7396 00000e84 8A44          MOVL      XAR4,*-SP[4]          ; |2838| 
    7397 00000e85 8AC4          MOVL      XAR4,*+XAR4[0]        ; |2838| 
    7398 00000e86 5DCC          MOVZ      AR5,*+XAR4[1]         ; |2838| 
    7399 00000e87 8A44          MOVL      XAR4,*-SP[4]          ; |2838| 
    7400 00000e88 064C          MOVL      ACC,*-SP[12]          ; |2838| 
    7401 00000e89 DC14          ADDB      XAR4,#20              ; |2838| 
    7402 00000e8a 7640!         LCR       #_disk_read           ; |2838| 
         00000e8b 0000 
    7403                      ; call occurs [#_disk_read] ; |2838| 
    7404 00000e8c 5200          CMPB      AL,#0                 ; |2838| 
    7405 00000e8d EC0B          BF        L253,EQ               ; |2838| 
    7406                      ; branchcc occurs ; |2838| 
    7407              DW$L$_f_write$38$E:
    7408                      .dwpsn  "ff.c",2840,6
    7409 00000e8e 8A44          MOVL      XAR4,*-SP[4]          ; |2840| 
    7410 00000e8f 1ADC          OR        *+XAR4[3],#0x0080     ; |2840| 
         00000e90 0080 
    7411 00000e91 8A44          MOVL      XAR4,*-SP[4]          ; |2840| 
    7412 00000e92 8AC4          MOVL      XAR4,*+XAR4[0]        ; |2840| 
    7413 00000e93 9A01          MOVB      AL,#1                 ; |2840| 
TMS320C2000 COFF Assembler PC v4.1.3 Thu May 05 10:06:00 2011

Tools Copyright (c) 1996-2006 Texas Instruments Incorporated
C:\DOCUME~1\ADMINI~1\LOCALS~1\Temp\TI1122                            PAGE  143

    7414 00000e94 7640'         LCR       #_unlock_fs           ; |2840| 
         00000e95 0064 
    7415                      ; call occurs [#_unlock_fs] ; |2840| 
    7416 00000e96 9A01          MOVB      AL,#1                 ; |2840| 
    7417 00000e97 6F45          B         L259,UNC              ; |2840| 
    7418                      ; branch occurs ; |2840| 
    7419              L253:    
    7420              DW$L$_f_write$40$B:
    7421                      .dwpsn  "ff.c",2843,4
    7422 00000e98 8A44          MOVL      XAR4,*-SP[4]          ; |2843| 
    7423 00000e99 064C          MOVL      ACC,*-SP[12]          ; |2843| 
    7424 00000e9a D00E          MOVB      XAR0,#14              ; |2843| 
    7425 00000e9b 1E94          MOVL      *+XAR4[AR0],ACC       ; |2843| 
    7426              DW$L$_f_write$40$E:
    7427              L254:    
    7428              DW$L$_f_write$41$B:
    7429                      .dwpsn  "ff.c",2845,3
    7430 00000e9c 8A44          MOVL      XAR4,*-SP[4]          ; |2845| 
    7431 00000e9d 06F4          MOVL      ACC,*+XAR4[6]         ; |2845| 
    7432 00000e9e 9B00          MOVB      AH,#0
    7433 00000e9f 18A9          AND       AL,#0x01ff            ; |2845| 
         00000ea0 01FF 
    7434 00000ea1 8F00          MOVL      XAR4,#512             ; |2845| 
         00000ea2 0200 
    7435 00000ea3 5641          SUBL      XAR4,ACC
         00000ea4 00A4 
    7436 00000ea5 7C4D          MOV       *-SP[13],AR4          ; |2845| 
    7437                      .dwpsn  "ff.c",2846,3
    7438 00000ea6 9247          MOV       AL,*-SP[7]            ; |2846| 
    7439 00000ea7 544D          CMP       AL,*-SP[13]           ; |2846| 
    7440 00000ea8 6702          B         L255,HIS              ; |2846| 
    7441                      ; branchcc occurs ; |2846| 
    7442              DW$L$_f_write$41$E:
    7443              DW$L$_f_write$42$B:
    7444                      .dwpsn  "ff.c",2846,21
    7445 00000ea9 964D          MOV       *-SP[13],AL           ; |2846| 
    7446              DW$L$_f_write$42$E:
    7447              L255:    
    7448              DW$L$_f_write$43$B:
    7449                      .dwpsn  "ff.c",2853,3
    7450 00000eaa 8A44          MOVL      XAR4,*-SP[4]          ; |2853| 
    7451 00000eab 0644          MOVL      ACC,*-SP[4]           ; |2853| 
    7452 00000eac 8350          MOVL      XAR5,*-SP[16]         ; |2853| 
    7453 00000ead A3F4          MOVL      P,*+XAR4[6]           ; |2853| 
    7454 00000eae 2BAA          MOV       PH,#0                 ; |2853| 
    7455 00000eaf 18AB          AND       PL,#0x01ff            ; |2853| 
         00000eb0 01FF 
    7456 00000eb1 07AB          ADDL      ACC,P
    7457 00000eb2 0914          ADDB      ACC,#20               ; |2853| 
    7458 00000eb3 8AA9          MOVL      XAR4,ACC              ; |2853| 
    7459 00000eb4 924D          MOV       AL,*-SP[13]           ; |2853| 
    7460 00000eb5 7640'         LCR       #_mem_cpy             ; |2853| 
         00000eb6 0000 
    7461                      ; call occurs [#_mem_cpy] ; |2853| 
    7462                      .dwpsn  "ff.c",2854,3
TMS320C2000 COFF Assembler PC v4.1.3 Thu May 05 10:06:00 2011

Tools Copyright (c) 1996-2006 Texas Instruments Incorporated
C:\DOCUME~1\ADMINI~1\LOCALS~1\Temp\TI1122                            PAGE  144

    7463 00000eb7 8A44          MOVL      XAR4,*-SP[4]          ; |2854| 
    7464 00000eb8 1ADC          OR        *+XAR4[3],#0x0040     ; |2854| 
         00000eb9 0040 
    7465              DW$L$_f_write$43$E:
    7466              L256:    
    7467              DW$L$_f_write$44$B:
    7468                      .dwpsn  "ff.c",2765,5
    7469 00000eba 0E4D          MOVU      ACC,*-SP[13]
    7470 00000ebb 5601          ADDL      *-SP[16],ACC          ; |2765| 
         00000ebc 0050 
    7471 00000ebd 8A44          MOVL      XAR4,*-SP[4]          ; |2765| 
    7472 00000ebe 0E4D          MOVU      ACC,*-SP[13]
    7473 00000ebf 5601          ADDL      *+XAR4[6],ACC         ; |2765| 
         00000ec0 00F4 
    7474 00000ec1 8A56          MOVL      XAR4,*-SP[22]         ; |2765| 
    7475 00000ec2 924D          MOV       AL,*-SP[13]           ; |2765| 
    7476 00000ec3 72C4          ADD       *+XAR4[0],AL          ; |2765| 
    7477 00000ec4 924D          MOV       AL,*-SP[13]           ; |2765| 
    7478 00000ec5 7447          SUB       *-SP[7],AL            ; |2765| 
    7479 00000ec6 9247          MOV       AL,*-SP[7]            ; |2765| 
    7480 00000ec7 56C0          BF        L240,NEQ              ; |2765| 
         00000ec8 FEE7 
    7481                      ; branchcc occurs ; |2765| 
    7482              DW$L$_f_write$44$E:
    7483              L257:    
    7484                      .dwpsn  "ff.c",2858,2
    7485 00000ec9 8A44          MOVL      XAR4,*-SP[4]          ; |2858| 
    7486 00000eca D008          MOVB      XAR0,#8               ; |2858| 
    7487 00000ecb 0694          MOVL      ACC,*+XAR4[AR0]       ; |2858| 
    7488 00000ecc 8A44          MOVL      XAR4,*-SP[4]          ; |2858| 
    7489 00000ecd 0FF4          CMPL      ACC,*+XAR4[6]         ; |2858| 
    7490 00000ece 6705          B         L258,HIS              ; |2858| 
    7491                      ; branchcc occurs ; |2858| 
    7492                      .dwpsn  "ff.c",2858,30
    7493 00000ecf 8A44          MOVL      XAR4,*-SP[4]          ; |2858| 
    7494 00000ed0 8344          MOVL      XAR5,*-SP[4]          ; |2858| 
    7495 00000ed1 06F4          MOVL      ACC,*+XAR4[6]         ; |2858| 
    7496 00000ed2 1E95          MOVL      *+XAR5[AR0],ACC       ; |2858| 
    7497              L258:    
    7498                      .dwpsn  "ff.c",2859,2
    7499 00000ed3 8A44          MOVL      XAR4,*-SP[4]          ; |2859| 
    7500 00000ed4 1ADC          OR        *+XAR4[3],#0x0020     ; |2859| 
         00000ed5 0020 
    7501                      .dwpsn  "ff.c",2861,2
    7502 00000ed6 8A44          MOVL      XAR4,*-SP[4]          ; |2861| 
    7503 00000ed7 8AC4          MOVL      XAR4,*+XAR4[0]        ; |2861| 
    7504 00000ed8 9A00          MOVB      AL,#0
    7505 00000ed9 7640'         LCR       #_unlock_fs           ; |2861| 
         00000eda 0064 
    7506                      ; call occurs [#_unlock_fs] ; |2861| 
    7507 00000edb 9A00          MOVB      AL,#0
    7508              L259:    
    7509                      .dwpsn  "ff.c",2862,1
    7510 00000edc FE92          SUBB      SP,#18                ; |2861| 
    7511                      .dwcfa  0x1d, -2
TMS320C2000 COFF Assembler PC v4.1.3 Thu May 05 10:06:00 2011

Tools Copyright (c) 1996-2006 Texas Instruments Incorporated
C:\DOCUME~1\ADMINI~1\LOCALS~1\Temp\TI1122                            PAGE  145

    7512 00000edd 0006          LRETR
    7513                      ; return occurs
    7514              
    7515              DW$409  .dwtag  DW_TAG_loop
    7516                      .dwattr DW$409, DW_AT_name("C:\DOCUME~1\ADMINI~1\LOCALS~1\Temp\TI1122:L240:1:1304561157")
    7517                      .dwattr DW$409, DW_AT_begin_file("ff.c")
    7518                      .dwattr DW$409, DW_AT_begin_line(0xacc)
    7519                      .dwattr DW$409, DW_AT_end_line(0xb28)
    7520              DW$410  .dwtag  DW_TAG_loop_range
    7521                      .dwattr DW$410, DW_AT_low_pc(DW$L$_f_write$10$B)
    7522                      .dwattr DW$410, DW_AT_high_pc(DW$L$_f_write$10$E)
    7523              DW$411  .dwtag  DW_TAG_loop_range
    7524                      .dwattr DW$411, DW_AT_low_pc(DW$L$_f_write$36$B)
    7525                      .dwattr DW$411, DW_AT_high_pc(DW$L$_f_write$36$E)
    7526              DW$412  .dwtag  DW_TAG_loop_range
    7527                      .dwattr DW$412, DW_AT_low_pc(DW$L$_f_write$37$B)
    7528                      .dwattr DW$412, DW_AT_high_pc(DW$L$_f_write$37$E)
    7529              DW$413  .dwtag  DW_TAG_loop_range
    7530                      .dwattr DW$413, DW_AT_low_pc(DW$L$_f_write$38$B)
    7531                      .dwattr DW$413, DW_AT_high_pc(DW$L$_f_write$38$E)
    7532              DW$414  .dwtag  DW_TAG_loop_range
    7533                      .dwattr DW$414, DW_AT_low_pc(DW$L$_f_write$40$B)
    7534                      .dwattr DW$414, DW_AT_high_pc(DW$L$_f_write$40$E)
    7535              DW$415  .dwtag  DW_TAG_loop_range
    7536                      .dwattr DW$415, DW_AT_low_pc(DW$L$_f_write$41$B)
    7537                      .dwattr DW$415, DW_AT_high_pc(DW$L$_f_write$41$E)
    7538              DW$416  .dwtag  DW_TAG_loop_range
    7539                      .dwattr DW$416, DW_AT_low_pc(DW$L$_f_write$42$B)
    7540                      .dwattr DW$416, DW_AT_high_pc(DW$L$_f_write$42$E)
    7541              DW$417  .dwtag  DW_TAG_loop_range
    7542                      .dwattr DW$417, DW_AT_low_pc(DW$L$_f_write$23$B)
    7543                      .dwattr DW$417, DW_AT_high_pc(DW$L$_f_write$23$E)
    7544              DW$418  .dwtag  DW_TAG_loop_range
    7545                      .dwattr DW$418, DW_AT_low_pc(DW$L$_f_write$12$B)
    7546                      .dwattr DW$418, DW_AT_high_pc(DW$L$_f_write$12$E)
    7547              DW$419  .dwtag  DW_TAG_loop_range
    7548                      .dwattr DW$419, DW_AT_low_pc(DW$L$_f_write$13$B)
    7549                      .dwattr DW$419, DW_AT_high_pc(DW$L$_f_write$13$E)
    7550              DW$420  .dwtag  DW_TAG_loop_range
    7551                      .dwattr DW$420, DW_AT_low_pc(DW$L$_f_write$14$B)
    7552                      .dwattr DW$420, DW_AT_high_pc(DW$L$_f_write$14$E)
    7553              DW$421  .dwtag  DW_TAG_loop_range
    7554                      .dwattr DW$421, DW_AT_low_pc(DW$L$_f_write$15$B)
    7555                      .dwattr DW$421, DW_AT_high_pc(DW$L$_f_write$15$E)
    7556              DW$422  .dwtag  DW_TAG_loop_range
    7557                      .dwattr DW$422, DW_AT_low_pc(DW$L$_f_write$16$B)
    7558                      .dwattr DW$422, DW_AT_high_pc(DW$L$_f_write$16$E)
    7559              DW$423  .dwtag  DW_TAG_loop_range
    7560                      .dwattr DW$423, DW_AT_low_pc(DW$L$_f_write$17$B)
    7561                      .dwattr DW$423, DW_AT_high_pc(DW$L$_f_write$17$E)
    7562              DW$424  .dwtag  DW_TAG_loop_range
    7563                      .dwattr DW$424, DW_AT_low_pc(DW$L$_f_write$19$B)
    7564                      .dwattr DW$424, DW_AT_high_pc(DW$L$_f_write$19$E)
    7565              DW$425  .dwtag  DW_TAG_loop_range
    7566                      .dwattr DW$425, DW_AT_low_pc(DW$L$_f_write$11$B)
TMS320C2000 COFF Assembler PC v4.1.3 Thu May 05 10:06:00 2011

Tools Copyright (c) 1996-2006 Texas Instruments Incorporated
C:\DOCUME~1\ADMINI~1\LOCALS~1\Temp\TI1122                            PAGE  146

    7567                      .dwattr DW$425, DW_AT_high_pc(DW$L$_f_write$11$E)
    7568              DW$426  .dwtag  DW_TAG_loop_range
    7569                      .dwattr DW$426, DW_AT_low_pc(DW$L$_f_write$21$B)
    7570                      .dwattr DW$426, DW_AT_high_pc(DW$L$_f_write$21$E)
    7571              DW$427  .dwtag  DW_TAG_loop_range
    7572                      .dwattr DW$427, DW_AT_low_pc(DW$L$_f_write$22$B)
    7573                      .dwattr DW$427, DW_AT_high_pc(DW$L$_f_write$22$E)
    7574              DW$428  .dwtag  DW_TAG_loop_range
    7575                      .dwattr DW$428, DW_AT_low_pc(DW$L$_f_write$25$B)
    7576                      .dwattr DW$428, DW_AT_high_pc(DW$L$_f_write$25$E)
    7577              DW$429  .dwtag  DW_TAG_loop_range
    7578                      .dwattr DW$429, DW_AT_low_pc(DW$L$_f_write$26$B)
    7579                      .dwattr DW$429, DW_AT_high_pc(DW$L$_f_write$26$E)
    7580              DW$430  .dwtag  DW_TAG_loop_range
    7581                      .dwattr DW$430, DW_AT_low_pc(DW$L$_f_write$28$B)
    7582                      .dwattr DW$430, DW_AT_high_pc(DW$L$_f_write$28$E)
    7583              DW$431  .dwtag  DW_TAG_loop_range
    7584                      .dwattr DW$431, DW_AT_low_pc(DW$L$_f_write$29$B)
    7585                      .dwattr DW$431, DW_AT_high_pc(DW$L$_f_write$29$E)
    7586              DW$432  .dwtag  DW_TAG_loop_range
    7587                      .dwattr DW$432, DW_AT_low_pc(DW$L$_f_write$30$B)
    7588                      .dwattr DW$432, DW_AT_high_pc(DW$L$_f_write$30$E)
    7589              DW$433  .dwtag  DW_TAG_loop_range
    7590                      .dwattr DW$433, DW_AT_low_pc(DW$L$_f_write$31$B)
    7591                      .dwattr DW$433, DW_AT_high_pc(DW$L$_f_write$31$E)
    7592              DW$434  .dwtag  DW_TAG_loop_range
    7593                      .dwattr DW$434, DW_AT_low_pc(DW$L$_f_write$33$B)
    7594                      .dwattr DW$434, DW_AT_high_pc(DW$L$_f_write$33$E)
    7595              DW$435  .dwtag  DW_TAG_loop_range
    7596                      .dwattr DW$435, DW_AT_low_pc(DW$L$_f_write$34$B)
    7597                      .dwattr DW$435, DW_AT_high_pc(DW$L$_f_write$34$E)
    7598              DW$436  .dwtag  DW_TAG_loop_range
    7599                      .dwattr DW$436, DW_AT_low_pc(DW$L$_f_write$35$B)
    7600                      .dwattr DW$436, DW_AT_high_pc(DW$L$_f_write$35$E)
    7601              DW$437  .dwtag  DW_TAG_loop_range
    7602                      .dwattr DW$437, DW_AT_low_pc(DW$L$_f_write$43$B)
    7603                      .dwattr DW$437, DW_AT_high_pc(DW$L$_f_write$43$E)
    7604              DW$438  .dwtag  DW_TAG_loop_range
    7605                      .dwattr DW$438, DW_AT_low_pc(DW$L$_f_write$44$B)
    7606                      .dwattr DW$438, DW_AT_high_pc(DW$L$_f_write$44$E)
    7607                      .dwendtag DW$409
    7608              
    7609                      .dwattr DW$394, DW_AT_end_file("ff.c")
    7610                      .dwattr DW$394, DW_AT_end_line(0xb2e)
    7611                      .dwattr DW$394, DW_AT_end_column(0x01)
    7612                      .dwendentry
    7613                      .dwendtag DW$394
    7614              
    7615 00000ede               .sect   ".text"
    7616                      .global _f_sync
    7617              
    7618              DW$439  .dwtag  DW_TAG_subprogram, DW_AT_name("f_sync"), DW_AT_symbol_name("_f_sync")
    7619                      .dwattr DW$439, DW_AT_low_pc(_f_sync)
    7620                      .dwattr DW$439, DW_AT_high_pc(0x00)
    7621                      .dwattr DW$439, DW_AT_begin_file("ff.c")
TMS320C2000 COFF Assembler PC v4.1.3 Thu May 05 10:06:00 2011

Tools Copyright (c) 1996-2006 Texas Instruments Incorporated
C:\DOCUME~1\ADMINI~1\LOCALS~1\Temp\TI1122                            PAGE  147

    7622                      .dwattr DW$439, DW_AT_begin_line(0xb37)
    7623                      .dwattr DW$439, DW_AT_begin_column(0x09)
    7624                      .dwpsn  "ff.c",2874,1
    7625              
    7626                      .dwfde DW$CIE
    7627              
    7628              ;***************************************************************
    7629              ;* FNAME: _f_sync                       FR SIZE:  10           *
    7630              ;*                                                             *
    7631              ;* FUNCTION ENVIRONMENT                                        *
    7632              ;*                                                             *
    7633              ;* FUNCTION PROPERTIES                                         *
    7634              ;*                            1 Parameter,  9 Auto,  0 SOE     *
    7635              ;***************************************************************
    7636              
    7637              _f_sync:
    7638                      .dwcfa  0x1d, -2
    7639                      .dwcfa  0x1c, 26, 0
    7640                      .dwcfa  0x09, 40, 26
    7641 00000ede FE0A          ADDB      SP,#10
    7642                      .dwcfa  0x1d, -12
    7643              ;* AR4   assigned to _fp
    7644              DW$440  .dwtag  DW_TAG_formal_parameter, DW_AT_name("fp"), DW_AT_symbol_name("_fp")
    7645                      .dwattr DW$440, DW_AT_type(*DW$T$89)
    7646                      .dwattr DW$440, DW_AT_location[DW_OP_reg12]
    7647              DW$441  .dwtag  DW_TAG_variable, DW_AT_name("fp"), DW_AT_symbol_name("_fp")
    7648                      .dwattr DW$441, DW_AT_type(*DW$T$89)
    7649                      .dwattr DW$441, DW_AT_location[DW_OP_breg20 -4]
    7650              DW$442  .dwtag  DW_TAG_variable, DW_AT_name("res"), DW_AT_symbol_name("_res")
    7651                      .dwattr DW$442, DW_AT_type(*DW$T$49)
    7652                      .dwattr DW$442, DW_AT_location[DW_OP_breg20 -5]
    7653              DW$443  .dwtag  DW_TAG_variable, DW_AT_name("tim"), DW_AT_symbol_name("_tim")
    7654                      .dwattr DW$443, DW_AT_type(*DW$T$27)
    7655                      .dwattr DW$443, DW_AT_location[DW_OP_breg20 -8]
    7656              DW$444  .dwtag  DW_TAG_variable, DW_AT_name("dir"), DW_AT_symbol_name("_dir")
    7657                      .dwattr DW$444, DW_AT_type(*DW$T$32)
    7658                      .dwattr DW$444, DW_AT_location[DW_OP_breg20 -10]
    7659 00000edf A844          MOVL      *-SP[4],XAR4          ; |2874| 
    7660                      .dwpsn  "ff.c",2880,2
    7661 00000ee0 8A44          MOVL      XAR4,*-SP[4]          ; |2880| 
    7662 00000ee1 8344          MOVL      XAR5,*-SP[4]          ; |2880| 
    7663 00000ee2 8AC4          MOVL      XAR4,*+XAR4[0]        ; |2880| 
    7664 00000ee3 92D5          MOV       AL,*+XAR5[2]          ; |2880| 
    7665 00000ee4 7640'         LCR       #_validate            ; |2880| 
         00000ee5 0AC3 
    7666                      ; call occurs [#_validate] ; |2880| 
    7667 00000ee6 9645          MOV       *-SP[5],AL            ; |2880| 
    7668                      .dwpsn  "ff.c",2881,2
    7669 00000ee7 5200          CMPB      AL,#0                 ; |2881| 
    7670 00000ee8 56C0          BF        L262,NEQ              ; |2881| 
         00000ee9 008C 
    7671                      ; branchcc occurs ; |2881| 
    7672                      .dwpsn  "ff.c",2883,3
    7673 00000eea 8A44          MOVL      XAR4,*-SP[4]          ; |2883| 
    7674 00000eeb 45DC          TBIT      *+XAR4[3],#5          ; |2883| 
TMS320C2000 COFF Assembler PC v4.1.3 Thu May 05 10:06:00 2011

Tools Copyright (c) 1996-2006 Texas Instruments Incorporated
C:\DOCUME~1\ADMINI~1\LOCALS~1\Temp\TI1122                            PAGE  148

    7675 00000eec 56CC          BF        L262,NTC              ; |2883| 
         00000eed 0088 
    7676                      ; branchcc occurs ; |2883| 
    7677                      .dwpsn  "ff.c",2886,4
    7678 00000eee 8A44          MOVL      XAR4,*-SP[4]          ; |2886| 
    7679 00000eef 46DC          TBIT      *+XAR4[3],#6          ; |2886| 
    7680 00000ef0 EF19          BF        L261,NTC              ; |2886| 
    7681                      ; branchcc occurs ; |2886| 
    7682                      .dwpsn  "ff.c",2888,5
    7683 00000ef1 2841          MOV       *-SP[1],#1            ; |2888| 
         00000ef2 0001 
    7684 00000ef3 8A44          MOVL      XAR4,*-SP[4]          ; |2888| 
    7685 00000ef4 8AC4          MOVL      XAR4,*+XAR4[0]        ; |2888| 
    7686 00000ef5 C444          MOVL      XAR6,*-SP[4]          ; |2888| 
    7687 00000ef6 5DCC          MOVZ      AR5,*+XAR4[1]         ; |2888| 
    7688 00000ef7 8A44          MOVL      XAR4,*-SP[4]          ; |2888| 
    7689 00000ef8 D00E          MOVB      XAR0,#14              ; |2888| 
    7690 00000ef9 0696          MOVL      ACC,*+XAR6[AR0]       ; |2888| 
    7691 00000efa DC14          ADDB      XAR4,#20              ; |2888| 
    7692 00000efb 7640!         LCR       #_disk_write          ; |2888| 
         00000efc 0000 
    7693                      ; call occurs [#_disk_write] ; |2888| 
    7694 00000efd 5200          CMPB      AL,#0                 ; |2888| 
    7695 00000efe EC08          BF        L260,EQ               ; |2888| 
    7696                      ; branchcc occurs ; |2888| 
    7697                      .dwpsn  "ff.c",2889,6
    7698 00000eff 8A44          MOVL      XAR4,*-SP[4]          ; |2889| 
    7699 00000f00 8AC4          MOVL      XAR4,*+XAR4[0]        ; |2889| 
    7700 00000f01 9A01          MOVB      AL,#1                 ; |2889| 
    7701 00000f02 7640'         LCR       #_unlock_fs           ; |2889| 
         00000f03 0064 
    7702                      ; call occurs [#_unlock_fs] ; |2889| 
    7703 00000f04 9A01          MOVB      AL,#1                 ; |2889| 
    7704 00000f05 6F74          B         L263,UNC              ; |2889| 
    7705                      ; branch occurs ; |2889| 
    7706              L260:    
    7707                      .dwpsn  "ff.c",2890,5
    7708 00000f06 8A44          MOVL      XAR4,*-SP[4]          ; |2890| 
    7709 00000f07 18DC          AND       *+XAR4[3],#0xffbf     ; |2890| 
         00000f08 FFBF 
    7710              L261:    
    7711                      .dwpsn  "ff.c",2894,4
    7712 00000f09 8A44          MOVL      XAR4,*-SP[4]          ; |2894| 
    7713 00000f0a 8344          MOVL      XAR5,*-SP[4]          ; |2894| 
    7714 00000f0b 8AC4          MOVL      XAR4,*+XAR4[0]        ; |2894| 
    7715 00000f0c D010          MOVB      XAR0,#16              ; |2894| 
    7716 00000f0d 0695          MOVL      ACC,*+XAR5[AR0]       ; |2894| 
    7717 00000f0e 7640'         LCR       #_move_window         ; |2894| 
         00000f0f 0077 
    7718                      ; call occurs [#_move_window] ; |2894| 
    7719 00000f10 9645          MOV       *-SP[5],AL            ; |2894| 
    7720                      .dwpsn  "ff.c",2895,4
    7721 00000f11 5200          CMPB      AL,#0                 ; |2895| 
    7722 00000f12 ED62          BF        L262,NEQ              ; |2895| 
    7723                      ; branchcc occurs ; |2895| 
TMS320C2000 COFF Assembler PC v4.1.3 Thu May 05 10:06:00 2011

Tools Copyright (c) 1996-2006 Texas Instruments Incorporated
C:\DOCUME~1\ADMINI~1\LOCALS~1\Temp\TI1122                            PAGE  149

    7724                      .dwpsn  "ff.c",2897,5
    7725 00000f13 8A44          MOVL      XAR4,*-SP[4]          ; |2897| 
    7726 00000f14 D012          MOVB      XAR0,#18              ; |2897| 
    7727 00000f15 0694          MOVL      ACC,*+XAR4[AR0]       ; |2897| 
    7728 00000f16 1E4A          MOVL      *-SP[10],ACC          ; |2897| 
    7729                      .dwpsn  "ff.c",2898,5
    7730 00000f17 8A4A          MOVL      XAR4,*-SP[10]         ; |2898| 
    7731 00000f18 DC0B          ADDB      XAR4,#11              ; |2898| 
    7732 00000f19 1AC4          OR        *+XAR4[0],#0x0020     ; |2898| 
         00000f1a 0020 
    7733                      .dwpsn  "ff.c",2899,5
    7734 00000f1b 8A44          MOVL      XAR4,*-SP[4]          ; |2899| 
    7735 00000f1c D008          MOVB      XAR0,#8               ; |2899| 
    7736 00000f1d 9294          MOV       AL,*+XAR4[AR0]        ; |2899| 
    7737 00000f1e 8A4A          MOVL      XAR4,*-SP[10]         ; |2899| 
    7738 00000f1f D01C          MOVB      XAR0,#28              ; |2899| 
    7739 00000f20 9694          MOV       *+XAR4[AR0],AL        ; |2899| 
    7740 00000f21 8A44          MOVL      XAR4,*-SP[4]          ; |2899| 
    7741 00000f22 D008          MOVB      XAR0,#8               ; |2899| 
    7742 00000f23 9294          MOV       AL,*+XAR4[AR0]        ; |2899| 
    7743 00000f24 8A4A          MOVL      XAR4,*-SP[10]         ; |2899| 
    7744 00000f25 FFC7          LSR       AL,8                  ; |2899| 
    7745 00000f26 D01D          MOVB      XAR0,#29              ; |2899| 
    7746 00000f27 9694          MOV       *+XAR4[AR0],AL        ; |2899| 
    7747 00000f28 8A44          MOVL      XAR4,*-SP[4]          ; |2899| 
    7748 00000f29 D008          MOVB      XAR0,#8               ; |2899| 
    7749 00000f2a 0694          MOVL      ACC,*+XAR4[AR0]       ; |2899| 
    7750 00000f2b 8A4A          MOVL      XAR4,*-SP[10]         ; |2899| 
    7751 00000f2c D01E          MOVB      XAR0,#30              ; |2899| 
    7752 00000f2d 9794          MOVH      *+XAR4[AR0],ACC << 0  ; |2899| 
    7753 00000f2e 8A44          MOVL      XAR4,*-SP[4]          ; |2899| 
    7754 00000f2f D008          MOVB      XAR0,#8               ; |2899| 
    7755 00000f30 0694          MOVL      ACC,*+XAR4[AR0]       ; |2899| 
    7756 00000f31 8A4A          MOVL      XAR4,*-SP[10]         ; |2899| 
    7757 00000f32 28AC          MOV       T,#24                 ; |2899| 
         00000f33 0018 
    7758 00000f34 D01F          MOVB      XAR0,#31              ; |2899| 
    7759 00000f35 5622          LSRL      ACC,T                 ; |2899| 
    7760 00000f36 9694          MOV       *+XAR4[AR0],AL        ; |2899| 
    7761                      .dwpsn  "ff.c",2900,5
    7762 00000f37 8A44          MOVL      XAR4,*-SP[4]          ; |2900| 
    7763 00000f38 D00A          MOVB      XAR0,#10              ; |2900| 
    7764 00000f39 9294          MOV       AL,*+XAR4[AR0]        ; |2900| 
    7765 00000f3a 8A4A          MOVL      XAR4,*-SP[10]         ; |2900| 
    7766 00000f3b D01A          MOVB      XAR0,#26              ; |2900| 
    7767 00000f3c 9694          MOV       *+XAR4[AR0],AL        ; |2900| 
    7768 00000f3d 8A44          MOVL      XAR4,*-SP[4]          ; |2900| 
    7769 00000f3e D00A          MOVB      XAR0,#10              ; |2900| 
    7770 00000f3f 9294          MOV       AL,*+XAR4[AR0]        ; |2900| 
    7771 00000f40 8A4A          MOVL      XAR4,*-SP[10]         ; |2900| 
    7772 00000f41 FFC7          LSR       AL,8                  ; |2900| 
    7773 00000f42 D01B          MOVB      XAR0,#27              ; |2900| 
    7774 00000f43 9694          MOV       *+XAR4[AR0],AL        ; |2900| 
    7775 00000f44 8A44          MOVL      XAR4,*-SP[4]          ; |2900| 
    7776 00000f45 D00A          MOVB      XAR0,#10              ; |2900| 
TMS320C2000 COFF Assembler PC v4.1.3 Thu May 05 10:06:00 2011

Tools Copyright (c) 1996-2006 Texas Instruments Incorporated
C:\DOCUME~1\ADMINI~1\LOCALS~1\Temp\TI1122                            PAGE  150

    7777 00000f46 0694          MOVL      ACC,*+XAR4[AR0]       ; |2900| 
    7778 00000f47 8A4A          MOVL      XAR4,*-SP[10]         ; |2900| 
    7779 00000f48 D014          MOVB      XAR0,#20              ; |2900| 
    7780 00000f49 9794          MOVH      *+XAR4[AR0],ACC << 0  ; |2900| 
    7781 00000f4a 8A44          MOVL      XAR4,*-SP[4]          ; |2900| 
    7782 00000f4b D00A          MOVB      XAR0,#10              ; |2900| 
    7783 00000f4c 0694          MOVL      ACC,*+XAR4[AR0]       ; |2900| 
    7784 00000f4d 8A4A          MOVL      XAR4,*-SP[10]         ; |2900| 
    7785 00000f4e D015          MOVB      XAR0,#21              ; |2900| 
    7786 00000f4f FFD7          LSR       AH,8                  ; |2900| 
    7787 00000f50 9794          MOV       *+XAR4[AR0],AH        ; |2900| 
    7788                      .dwpsn  "ff.c",2901,5
    7789 00000f51 7640!         LCR       #_get_fattime         ; |2901| 
         00000f52 0000 
    7790                      ; call occurs [#_get_fattime] ; |2901| 
    7791 00000f53 1E48          MOVL      *-SP[8],ACC           ; |2901| 
    7792                      .dwpsn  "ff.c",2902,5
    7793 00000f54 8A4A          MOVL      XAR4,*-SP[10]         ; |2902| 
    7794 00000f55 D016          MOVB      XAR0,#22              ; |2902| 
    7795 00000f56 9248          MOV       AL,*-SP[8]            ; |2902| 
    7796 00000f57 9694          MOV       *+XAR4[AR0],AL        ; |2902| 
    7797 00000f58 8A4A          MOVL      XAR4,*-SP[10]         ; |2902| 
    7798 00000f59 9248          MOV       AL,*-SP[8]            ; |2902| 
    7799 00000f5a D017          MOVB      XAR0,#23              ; |2902| 
    7800 00000f5b FFC7          LSR       AL,8                  ; |2902| 
    7801 00000f5c 9694          MOV       *+XAR4[AR0],AL        ; |2902| 
    7802 00000f5d 8A4A          MOVL      XAR4,*-SP[10]         ; |2902| 
    7803 00000f5e D018          MOVB      XAR0,#24              ; |2902| 
    7804 00000f5f 0648          MOVL      ACC,*-SP[8]           ; |2902| 
    7805 00000f60 9794          MOVH      *+XAR4[AR0],ACC << 0  ; |2902| 
    7806 00000f61 28AC          MOV       T,#24                 ; |2902| 
         00000f62 0018 
    7807 00000f63 8A4A          MOVL      XAR4,*-SP[10]         ; |2902| 
    7808 00000f64 0648          MOVL      ACC,*-SP[8]           ; |2902| 
    7809 00000f65 D019          MOVB      XAR0,#25              ; |2902| 
    7810 00000f66 5622          LSRL      ACC,T                 ; |2902| 
    7811 00000f67 9694          MOV       *+XAR4[AR0],AL        ; |2902| 
    7812                      .dwpsn  "ff.c",2903,5
    7813 00000f68 8A44          MOVL      XAR4,*-SP[4]          ; |2903| 
    7814 00000f69 18DC          AND       *+XAR4[3],#0xffdf     ; |2903| 
         00000f6a FFDF 
    7815                      .dwpsn  "ff.c",2904,5
    7816 00000f6b 8A44          MOVL      XAR4,*-SP[4]          ; |2904| 
    7817 00000f6c 8AC4          MOVL      XAR4,*+XAR4[0]        ; |2904| 
    7818 00000f6d 28E4          MOV       *+XAR4[4],#1          ; |2904| 
         00000f6e 0001 
    7819                      .dwpsn  "ff.c",2905,5
    7820 00000f6f 8A44          MOVL      XAR4,*-SP[4]          ; |2905| 
    7821 00000f70 8AC4          MOVL      XAR4,*+XAR4[0]        ; |2905| 
    7822 00000f71 7640'         LCR       #_sync                ; |2905| 
         00000f72 00C8 
    7823                      ; call occurs [#_sync] ; |2905| 
    7824 00000f73 9645          MOV       *-SP[5],AL            ; |2905| 
    7825              L262:    
    7826                      .dwpsn  "ff.c",2910,2
TMS320C2000 COFF Assembler PC v4.1.3 Thu May 05 10:06:00 2011

Tools Copyright (c) 1996-2006 Texas Instruments Incorporated
C:\DOCUME~1\ADMINI~1\LOCALS~1\Temp\TI1122                            PAGE  151

    7827 00000f74 8A44          MOVL      XAR4,*-SP[4]          ; |2910| 
    7828 00000f75 8AC4          MOVL      XAR4,*+XAR4[0]        ; |2910| 
    7829 00000f76 7640'         LCR       #_unlock_fs           ; |2910| 
         00000f77 0064 
    7830                      ; call occurs [#_unlock_fs] ; |2910| 
    7831 00000f78 9245          MOV       AL,*-SP[5]            ; |2910| 
    7832              L263:    
    7833                      .dwpsn  "ff.c",2911,1
    7834 00000f79 FE8A          SUBB      SP,#10                ; |2910| 
    7835                      .dwcfa  0x1d, -2
    7836 00000f7a 0006          LRETR
    7837                      ; return occurs
    7838                      .dwattr DW$439, DW_AT_end_file("ff.c")
    7839                      .dwattr DW$439, DW_AT_end_line(0xb5f)
    7840                      .dwattr DW$439, DW_AT_end_column(0x01)
    7841                      .dwendentry
    7842                      .dwendtag DW$439
    7843              
    7844 00000f7b               .sect   ".text"
    7845                      .global _f_close
    7846              
    7847              DW$445  .dwtag  DW_TAG_subprogram, DW_AT_name("f_close"), DW_AT_symbol_name("_f_close")
    7848                      .dwattr DW$445, DW_AT_low_pc(_f_close)
    7849                      .dwattr DW$445, DW_AT_high_pc(0x00)
    7850                      .dwattr DW$445, DW_AT_begin_file("ff.c")
    7851                      .dwattr DW$445, DW_AT_begin_line(0xb6a)
    7852                      .dwattr DW$445, DW_AT_begin_column(0x09)
    7853                      .dwpsn  "ff.c",2925,1
    7854              
    7855                      .dwfde DW$CIE
    7856              
    7857              ;***************************************************************
    7858              ;* FNAME: _f_close                      FR SIZE:   4           *
    7859              ;*                                                             *
    7860              ;* FUNCTION ENVIRONMENT                                        *
    7861              ;*                                                             *
    7862              ;* FUNCTION PROPERTIES                                         *
    7863              ;*                            0 Parameter,  3 Auto,  0 SOE     *
    7864              ;***************************************************************
    7865              
    7866              _f_close:
    7867                      .dwcfa  0x1d, -2
    7868                      .dwcfa  0x1c, 26, 0
    7869                      .dwcfa  0x09, 40, 26
    7870 00000f7b FE04          ADDB      SP,#4
    7871                      .dwcfa  0x1d, -6
    7872              ;* AR4   assigned to _fp
    7873              DW$446  .dwtag  DW_TAG_formal_parameter, DW_AT_name("fp"), DW_AT_symbol_name("_fp")
    7874                      .dwattr DW$446, DW_AT_type(*DW$T$89)
    7875                      .dwattr DW$446, DW_AT_location[DW_OP_reg12]
    7876              DW$447  .dwtag  DW_TAG_variable, DW_AT_name("fp"), DW_AT_symbol_name("_fp")
    7877                      .dwattr DW$447, DW_AT_type(*DW$T$89)
    7878                      .dwattr DW$447, DW_AT_location[DW_OP_breg20 -2]
    7879              DW$448  .dwtag  DW_TAG_variable, DW_AT_name("res"), DW_AT_symbol_name("_res")
    7880                      .dwattr DW$448, DW_AT_type(*DW$T$49)
TMS320C2000 COFF Assembler PC v4.1.3 Thu May 05 10:06:00 2011

Tools Copyright (c) 1996-2006 Texas Instruments Incorporated
C:\DOCUME~1\ADMINI~1\LOCALS~1\Temp\TI1122                            PAGE  152

    7881                      .dwattr DW$448, DW_AT_location[DW_OP_breg20 -3]
    7882 00000f7c A842          MOVL      *-SP[2],XAR4          ; |2925| 
    7883                      .dwpsn  "ff.c",2935,2
    7884 00000f7d 8A42          MOVL      XAR4,*-SP[2]          ; |2935| 
    7885 00000f7e 7640'         LCR       #_f_sync              ; |2935| 
         00000f7f 0EDE 
    7886                      ; call occurs [#_f_sync] ; |2935| 
    7887 00000f80 9643          MOV       *-SP[3],AL            ; |2935| 
    7888                      .dwpsn  "ff.c",2951,2
    7889 00000f81 5200          CMPB      AL,#0                 ; |2951| 
    7890 00000f82 ED04          BF        L264,NEQ              ; |2951| 
    7891                      ; branchcc occurs ; |2951| 
    7892                      .dwpsn  "ff.c",2951,22
    7893 00000f83 0200          MOVB      ACC,#0
    7894 00000f84 8A42          MOVL      XAR4,*-SP[2]          ; |2951| 
    7895 00000f85 1EC4          MOVL      *+XAR4[0],ACC         ; |2951| 
    7896              L264:    
    7897                      .dwpsn  "ff.c",2952,2
    7898 00000f86 9243          MOV       AL,*-SP[3]            ; |2952| 
    7899                      .dwpsn  "ff.c",2954,1
    7900 00000f87 FE84          SUBB      SP,#4                 ; |2952| 
    7901                      .dwcfa  0x1d, -2
    7902 00000f88 0006          LRETR
    7903                      ; return occurs
    7904                      .dwattr DW$445, DW_AT_end_file("ff.c")
    7905                      .dwattr DW$445, DW_AT_end_line(0xb8a)
    7906                      .dwattr DW$445, DW_AT_end_column(0x01)
    7907                      .dwendentry
    7908                      .dwendtag DW$445
    7909              
    7910 00000f89               .sect   ".text"
    7911                      .global _f_lseek
    7912              
    7913              DW$449  .dwtag  DW_TAG_subprogram, DW_AT_name("f_lseek"), DW_AT_symbol_name("_f_lseek")
    7914                      .dwattr DW$449, DW_AT_low_pc(_f_lseek)
    7915                      .dwattr DW$449, DW_AT_high_pc(0x00)
    7916                      .dwattr DW$449, DW_AT_begin_file("ff.c")
    7917                      .dwattr DW$449, DW_AT_begin_line(0xc1f)
    7918                      .dwattr DW$449, DW_AT_begin_column(0x09)
    7919                      .dwpsn  "ff.c",3107,1
    7920              
    7921                      .dwfde DW$CIE
    7922              
    7923              ;***************************************************************
    7924              ;* FNAME: _f_lseek                      FR SIZE:  16           *
    7925              ;*                                                             *
    7926              ;* FUNCTION ENVIRONMENT                                        *
    7927              ;*                                                             *
    7928              ;* FUNCTION PROPERTIES                                         *
    7929              ;*                            1 Parameter, 15 Auto,  0 SOE     *
    7930              ;***************************************************************
    7931              
    7932              _f_lseek:
    7933                      .dwcfa  0x1d, -2
    7934                      .dwcfa  0x1c, 26, 0
TMS320C2000 COFF Assembler PC v4.1.3 Thu May 05 10:06:00 2011

Tools Copyright (c) 1996-2006 Texas Instruments Incorporated
C:\DOCUME~1\ADMINI~1\LOCALS~1\Temp\TI1122                            PAGE  153

    7935                      .dwcfa  0x09, 40, 26
    7936 00000f89 FE10          ADDB      SP,#16
    7937                      .dwcfa  0x1d, -18
    7938              ;* AR4   assigned to _fp
    7939              DW$450  .dwtag  DW_TAG_formal_parameter, DW_AT_name("fp"), DW_AT_symbol_name("_fp")
    7940                      .dwattr DW$450, DW_AT_type(*DW$T$89)
    7941                      .dwattr DW$450, DW_AT_location[DW_OP_reg12]
    7942              ;* AL    assigned to _ofs
    7943              DW$451  .dwtag  DW_TAG_formal_parameter, DW_AT_name("ofs"), DW_AT_symbol_name("_ofs")
    7944                      .dwattr DW$451, DW_AT_type(*DW$T$27)
    7945                      .dwattr DW$451, DW_AT_location[DW_OP_reg0]
    7946              DW$452  .dwtag  DW_TAG_variable, DW_AT_name("fp"), DW_AT_symbol_name("_fp")
    7947                      .dwattr DW$452, DW_AT_type(*DW$T$89)
    7948                      .dwattr DW$452, DW_AT_location[DW_OP_breg20 -4]
    7949              DW$453  .dwtag  DW_TAG_variable, DW_AT_name("ofs"), DW_AT_symbol_name("_ofs")
    7950                      .dwattr DW$453, DW_AT_type(*DW$T$27)
    7951                      .dwattr DW$453, DW_AT_location[DW_OP_breg20 -6]
    7952              DW$454  .dwtag  DW_TAG_variable, DW_AT_name("res"), DW_AT_symbol_name("_res")
    7953                      .dwattr DW$454, DW_AT_type(*DW$T$49)
    7954                      .dwattr DW$454, DW_AT_location[DW_OP_breg20 -7]
    7955 00000f8a 1E46          MOVL      *-SP[6],ACC           ; |3107| 
    7956 00000f8b A844          MOVL      *-SP[4],XAR4          ; |3107| 
    7957                      .dwpsn  "ff.c",3111,2
    7958 00000f8c 8A44          MOVL      XAR4,*-SP[4]          ; |3111| 
    7959 00000f8d 8344          MOVL      XAR5,*-SP[4]          ; |3111| 
    7960 00000f8e 8AC4          MOVL      XAR4,*+XAR4[0]        ; |3111| 
    7961 00000f8f 92D5          MOV       AL,*+XAR5[2]          ; |3111| 
    7962 00000f90 7640'         LCR       #_validate            ; |3111| 
         00000f91 0AC3 
    7963                      ; call occurs [#_validate] ; |3111| 
    7964 00000f92 9647          MOV       *-SP[7],AL            ; |3111| 
    7965                      .dwpsn  "ff.c",3112,2
    7966 00000f93 5200          CMPB      AL,#0                 ; |3112| 
    7967 00000f94 EC08          BF        L265,EQ               ; |3112| 
    7968                      ; branchcc occurs ; |3112| 
    7969                      .dwpsn  "ff.c",3112,22
    7970 00000f95 8A44          MOVL      XAR4,*-SP[4]          ; |3112| 
    7971 00000f96 8AC4          MOVL      XAR4,*+XAR4[0]        ; |3112| 
    7972 00000f97 7640'         LCR       #_unlock_fs           ; |3112| 
         00000f98 0064 
    7973                      ; call occurs [#_unlock_fs] ; |3112| 
    7974 00000f99 9247          MOV       AL,*-SP[7]            ; |3112| 
    7975 00000f9a FFEF          B         L287,UNC              ; |3112| 
         00000f9b 0141 
    7976                      ; branch occurs ; |3112| 
    7977              L265:    
    7978                      .dwpsn  "ff.c",3113,2
    7979 00000f9c 8A44          MOVL      XAR4,*-SP[4]          ; |3113| 
    7980 00000f9d 47DC          TBIT      *+XAR4[3],#7          ; |3113| 
    7981 00000f9e EF09          BF        L266,NTC              ; |3113| 
    7982                      ; branchcc occurs ; |3113| 
    7983                      .dwpsn  "ff.c",3114,3
    7984 00000f9f 8A44          MOVL      XAR4,*-SP[4]          ; |3114| 
    7985 00000fa0 8AC4          MOVL      XAR4,*+XAR4[0]        ; |3114| 
    7986 00000fa1 9A02          MOVB      AL,#2                 ; |3114| 
TMS320C2000 COFF Assembler PC v4.1.3 Thu May 05 10:06:00 2011

Tools Copyright (c) 1996-2006 Texas Instruments Incorporated
C:\DOCUME~1\ADMINI~1\LOCALS~1\Temp\TI1122                            PAGE  154

    7987 00000fa2 7640'         LCR       #_unlock_fs           ; |3114| 
         00000fa3 0064 
    7988                      ; call occurs [#_unlock_fs] ; |3114| 
    7989 00000fa4 9A02          MOVB      AL,#2                 ; |3114| 
    7990 00000fa5 FFEF          B         L287,UNC              ; |3114| 
         00000fa6 0136 
    7991                      ; branch occurs ; |3114| 
    7992              L266:    
    7993              
    7994              DW$455  .dwtag  DW_TAG_lexical_block, DW_AT_low_pc(0x00), DW_AT_high_pc(0x00)
    7995              DW$456  .dwtag  DW_TAG_variable, DW_AT_name("clst"), DW_AT_symbol_name("_clst")
    7996                      .dwattr DW$456, DW_AT_type(*DW$T$27)
    7997                      .dwattr DW$456, DW_AT_location[DW_OP_breg20 -10]
    7998              DW$457  .dwtag  DW_TAG_variable, DW_AT_name("bcs"), DW_AT_symbol_name("_bcs")
    7999                      .dwattr DW$457, DW_AT_type(*DW$T$27)
    8000                      .dwattr DW$457, DW_AT_location[DW_OP_breg20 -12]
    8001              DW$458  .dwtag  DW_TAG_variable, DW_AT_name("nsect"), DW_AT_symbol_name("_nsect")
    8002                      .dwattr DW$458, DW_AT_type(*DW$T$27)
    8003                      .dwattr DW$458, DW_AT_location[DW_OP_breg20 -14]
    8004              DW$459  .dwtag  DW_TAG_variable, DW_AT_name("ifptr"), DW_AT_symbol_name("_ifptr")
    8005                      .dwattr DW$459, DW_AT_type(*DW$T$27)
    8006                      .dwattr DW$459, DW_AT_location[DW_OP_breg20 -16]
    8007                      .dwpsn  "ff.c",3196,3
    8008 00000fa7 8A44          MOVL      XAR4,*-SP[4]          ; |3196| 
    8009 00000fa8 D008          MOVB      XAR0,#8               ; |3196| 
    8010 00000fa9 0694          MOVL      ACC,*+XAR4[AR0]       ; |3196| 
    8011 00000faa 0F46          CMPL      ACC,*-SP[6]           ; |3196| 
    8012 00000fab 6707          B         L267,HIS              ; |3196| 
    8013                      ; branchcc occurs ; |3196| 
    8014 00000fac 8A44          MOVL      XAR4,*-SP[4]          ; |3196| 
    8015 00000fad 41DC          TBIT      *+XAR4[3],#1          ; |3196| 
    8016 00000fae EE04          BF        L267,TC               ; |3196| 
    8017                      ; branchcc occurs ; |3196| 
    8018                      .dwpsn  "ff.c",3200,8
    8019 00000faf 8A44          MOVL      XAR4,*-SP[4]          ; |3200| 
    8020 00000fb0 0694          MOVL      ACC,*+XAR4[AR0]       ; |3200| 
    8021 00000fb1 1E46          MOVL      *-SP[6],ACC           ; |3200| 
    8022              L267:    
    8023                      .dwpsn  "ff.c",3202,3
    8024 00000fb2 8A44          MOVL      XAR4,*-SP[4]          ; |3202| 
    8025 00000fb3 06F4          MOVL      ACC,*+XAR4[6]         ; |3202| 
    8026 00000fb4 1E50          MOVL      *-SP[16],ACC          ; |3202| 
    8027                      .dwpsn  "ff.c",3203,3
    8028 00000fb5 0200          MOVB      ACC,#0
    8029 00000fb6 1E4E          MOVL      *-SP[14],ACC          ; |3203| 
    8030 00000fb7 8A44          MOVL      XAR4,*-SP[4]          ; |3203| 
    8031 00000fb8 1EF4          MOVL      *+XAR4[6],ACC         ; |3203| 
    8032                      .dwpsn  "ff.c",3204,3
    8033 00000fb9 0646          MOVL      ACC,*-SP[6]           ; |3204| 
    8034 00000fba 56C1          BF        L281,EQ               ; |3204| 
         00000fbb 00CB 
    8035                      ; branchcc occurs ; |3204| 
    8036                      .dwpsn  "ff.c",3206,4
    8037 00000fbc 8A44          MOVL      XAR4,*-SP[4]          ; |3206| 
    8038 00000fbd 8AC4          MOVL      XAR4,*+XAR4[0]        ; |3206| 
TMS320C2000 COFF Assembler PC v4.1.3 Thu May 05 10:06:00 2011

Tools Copyright (c) 1996-2006 Texas Instruments Incorporated
C:\DOCUME~1\ADMINI~1\LOCALS~1\Temp\TI1122                            PAGE  155

    8039 00000fbe 2901          CLRC      SXM
    8040 00000fbf 5603          MOV       ACC,*+XAR4[2] << 9    ; |3206| 
         00000fc0 09D4 
    8041 00000fc1 1E4C          MOVL      *-SP[12],ACC          ; |3206| 
    8042                      .dwpsn  "ff.c",3207,4
    8043 00000fc2 0650          MOVL      ACC,*-SP[16]          ; |3207| 
    8044 00000fc3 EC26          BF        L268,EQ               ; |3207| 
    8045                      ; branchcc occurs ; |3207| 
    8046 00000fc4 C450          MOVL      XAR6,*-SP[16]         ; |3207| 
    8047 00000fc5 0200          MOVB      ACC,#0
    8048 00000fc6 DE81          SUBB      XAR6,#1               ; |3207| 
    8049 00000fc7 A3A6          MOVL      P,XAR6                ; |3207| 
    8050 00000fc8 F61F          RPT       #31
    8051 00000fc9 5617  ||     SUBCUL    ACC,*-SP[12]          ; |3207| 
         00000fca 004C 
    8052 00000fcb 0646          MOVL      ACC,*-SP[6]           ; |3207| 
    8053 00000fcc A9A6          MOVL      XAR6,P                ; |3207| 
    8054 00000fcd 1901          SUBB      ACC,#1                ; |3207| 
    8055 00000fce FF5A          MOVL      P,ACC                 ; |3207| 
    8056 00000fcf 0200          MOVB      ACC,#0
    8057 00000fd0 F61F          RPT       #31
    8058 00000fd1 5617  ||     SUBCUL    ACC,*-SP[12]          ; |3207| 
         00000fd2 004C 
    8059 00000fd3 06A6          MOVL      ACC,XAR6              ; |3207| 
    8060 00000fd4 0FAB          CMPL      ACC,P                 ; |3207| 
    8061 00000fd5 6614          B         L268,HI               ; |3207| 
    8062                      ; branchcc occurs ; |3207| 
    8063                      .dwpsn  "ff.c",3210,5
    8064 00000fd6 064C          MOVL      ACC,*-SP[12]          ; |3210| 
    8065 00000fd7 1901          SUBB      ACC,#1                ; |3210| 
    8066 00000fd8 8A44          MOVL      XAR4,*-SP[4]          ; |3210| 
    8067 00000fd9 FF55          NOT       ACC                   ; |3210| 
    8068 00000fda FF5A          MOVL      P,ACC                 ; |3210| 
    8069 00000fdb 0650          MOVL      ACC,*-SP[16]          ; |3210| 
    8070 00000fdc 1901          SUBB      ACC,#1                ; |3210| 
    8071 00000fdd CEAB          AND       AL,PL                 ; |3210| 
    8072 00000fde CFAA          AND       AH,PH                 ; |3210| 
    8073 00000fdf 1EF4          MOVL      *+XAR4[6],ACC         ; |3210| 
    8074                      .dwpsn  "ff.c",3211,5
    8075 00000fe0 8A44          MOVL      XAR4,*-SP[4]          ; |3211| 
    8076 00000fe1 06F4          MOVL      ACC,*+XAR4[6]         ; |3211| 
    8077 00000fe2 5641          SUBL      *-SP[6],ACC           ; |3211| 
         00000fe3 0046 
    8078                      .dwpsn  "ff.c",3212,5
    8079 00000fe4 8A44          MOVL      XAR4,*-SP[4]          ; |3212| 
    8080 00000fe5 D00C          MOVB      XAR0,#12              ; |3212| 
    8081 00000fe6 0694          MOVL      ACC,*+XAR4[AR0]       ; |3212| 
    8082 00000fe7 1E4A          MOVL      *-SP[10],ACC          ; |3212| 
    8083                      .dwpsn  "ff.c",3213,4
    8084 00000fe8 6F32          B         L272,UNC              ; |3213| 
    8085                      ; branch occurs ; |3213| 
    8086              L268:    
    8087                      .dwpsn  "ff.c",3216,5
    8088 00000fe9 8A44          MOVL      XAR4,*-SP[4]          ; |3216| 
    8089 00000fea D00A          MOVB      XAR0,#10              ; |3216| 
TMS320C2000 COFF Assembler PC v4.1.3 Thu May 05 10:06:00 2011

Tools Copyright (c) 1996-2006 Texas Instruments Incorporated
C:\DOCUME~1\ADMINI~1\LOCALS~1\Temp\TI1122                            PAGE  156

    8090 00000feb 0694          MOVL      ACC,*+XAR4[AR0]       ; |3216| 
    8091 00000fec 1E4A          MOVL      *-SP[10],ACC          ; |3216| 
    8092                      .dwpsn  "ff.c",3218,5
    8093 00000fed 064A          MOVL      ACC,*-SP[10]          ; |3218| 
    8094 00000fee ED28          BF        L271,NEQ              ; |3218| 
    8095                      ; branchcc occurs ; |3218| 
    8096                      .dwpsn  "ff.c",3220,6
    8097 00000fef 8A44          MOVL      XAR4,*-SP[4]          ; |3220| 
    8098 00000ff0 8AC4          MOVL      XAR4,*+XAR4[0]        ; |3220| 
    8099 00000ff1 0200          MOVB      ACC,#0
    8100 00000ff2 7640'         LCR       #_create_chain        ; |3220| 
         00000ff3 035B 
    8101                      ; call occurs [#_create_chain] ; |3220| 
    8102 00000ff4 1E4A          MOVL      *-SP[10],ACC          ; |3220| 
    8103                      .dwpsn  "ff.c",3221,6
    8104 00000ff5 0201          MOVB      ACC,#1
    8105 00000ff6 0F4A          CMPL      ACC,*-SP[10]          ; |3221| 
    8106 00000ff7 ED0C          BF        L269,NEQ              ; |3221| 
    8107                      ; branchcc occurs ; |3221| 
    8108                      .dwpsn  "ff.c",3221,23
    8109 00000ff8 8A44          MOVL      XAR4,*-SP[4]          ; |3221| 
    8110 00000ff9 1ADC          OR        *+XAR4[3],#0x0080     ; |3221| 
         00000ffa 0080 
    8111 00000ffb 8A44          MOVL      XAR4,*-SP[4]          ; |3221| 
    8112 00000ffc 8AC4          MOVL      XAR4,*+XAR4[0]        ; |3221| 
    8113 00000ffd 9A02          MOVB      AL,#2                 ; |3221| 
    8114 00000ffe 7640'         LCR       #_unlock_fs           ; |3221| 
         00000fff 0064 
    8115                      ; call occurs [#_unlock_fs] ; |3221| 
    8116 00001000 9A02          MOVB      AL,#2                 ; |3221| 
    8117 00001001 FFEF          B         L287,UNC              ; |3221| 
         00001002 00DA 
    8118                      ; branch occurs ; |3221| 
    8119              L269:    
    8120                      .dwpsn  "ff.c",3222,6
    8121 00001003 0200          MOVB      ACC,#0
    8122 00001004 1901          SUBB      ACC,#1
    8123 00001005 0F4A          CMPL      ACC,*-SP[10]          ; |3222| 
    8124 00001006 ED0C          BF        L270,NEQ              ; |3222| 
    8125                      ; branchcc occurs ; |3222| 
    8126                      .dwpsn  "ff.c",3222,32
    8127 00001007 8A44          MOVL      XAR4,*-SP[4]          ; |3222| 
    8128 00001008 1ADC          OR        *+XAR4[3],#0x0080     ; |3222| 
         00001009 0080 
    8129 0000100a 8A44          MOVL      XAR4,*-SP[4]          ; |3222| 
    8130 0000100b 8AC4          MOVL      XAR4,*+XAR4[0]        ; |3222| 
    8131 0000100c 9A01          MOVB      AL,#1                 ; |3222| 
    8132 0000100d 7640'         LCR       #_unlock_fs           ; |3222| 
         0000100e 0064 
    8133                      ; call occurs [#_unlock_fs] ; |3222| 
    8134 0000100f 9A01          MOVB      AL,#1                 ; |3222| 
    8135 00001010 FFEF          B         L287,UNC              ; |3222| 
         00001011 00CB 
    8136                      ; branch occurs ; |3222| 
    8137              L270:    
TMS320C2000 COFF Assembler PC v4.1.3 Thu May 05 10:06:00 2011

Tools Copyright (c) 1996-2006 Texas Instruments Incorporated
C:\DOCUME~1\ADMINI~1\LOCALS~1\Temp\TI1122                            PAGE  157

    8138                      .dwpsn  "ff.c",3223,6
    8139 00001012 8A44          MOVL      XAR4,*-SP[4]          ; |3223| 
    8140 00001013 064A          MOVL      ACC,*-SP[10]          ; |3223| 
    8141 00001014 D00A          MOVB      XAR0,#10              ; |3223| 
    8142 00001015 1E94          MOVL      *+XAR4[AR0],ACC       ; |3223| 
    8143              L271:    
    8144                      .dwpsn  "ff.c",3226,5
    8145 00001016 8A44          MOVL      XAR4,*-SP[4]          ; |3226| 
    8146 00001017 064A          MOVL      ACC,*-SP[10]          ; |3226| 
    8147 00001018 D00C          MOVB      XAR0,#12              ; |3226| 
    8148 00001019 1E94          MOVL      *+XAR4[AR0],ACC       ; |3226| 
    8149              L272:    
    8150                      .dwpsn  "ff.c",3228,4
    8151 0000101a 064A          MOVL      ACC,*-SP[10]          ; |3228| 
    8152 0000101b EC6A          BF        L281,EQ               ; |3228| 
    8153                      ; branchcc occurs ; |3228| 
    8154                      .dwpsn  "ff.c",3230,13
    8155 0000101c 064C          MOVL      ACC,*-SP[12]          ; |3230| 
    8156 0000101d 0F46          CMPL      ACC,*-SP[6]           ; |3230| 
    8157 0000101e 6746          B         L279,HIS              ; |3230| 
    8158                      ; branchcc occurs ; |3230| 
    8159              L273:    
    8160              DW$L$_f_lseek$21$B:
    8161                      .dwpsn  "ff.c",3233,6
    8162 0000101f 8A44          MOVL      XAR4,*-SP[4]          ; |3233| 
    8163 00001020 41DC          TBIT      *+XAR4[3],#1          ; |3233| 
    8164 00001021 EF0C          BF        L274,NTC              ; |3233| 
    8165                      ; branchcc occurs ; |3233| 
    8166              DW$L$_f_lseek$21$E:
    8167              DW$L$_f_lseek$22$B:
    8168                      .dwpsn  "ff.c",3235,7
    8169 00001022 8A44          MOVL      XAR4,*-SP[4]          ; |3235| 
    8170 00001023 8AC4          MOVL      XAR4,*+XAR4[0]        ; |3235| 
    8171 00001024 064A          MOVL      ACC,*-SP[10]          ; |3235| 
    8172 00001025 7640'         LCR       #_create_chain        ; |3235| 
         00001026 035B 
    8173                      ; call occurs [#_create_chain] ; |3235| 
    8174 00001027 1E4A          MOVL      *-SP[10],ACC          ; |3235| 
    8175                      .dwpsn  "ff.c",3236,7
    8176 00001028 064A          MOVL      ACC,*-SP[10]          ; |3236| 
    8177 00001029 ED0A          BF        L275,NEQ              ; |3236| 
    8178                      ; branchcc occurs ; |3236| 
    8179              DW$L$_f_lseek$22$E:
    8180                      .dwpsn  "ff.c",3238,8
    8181 0000102a 064C          MOVL      ACC,*-SP[12]          ; |3238| 
    8182 0000102b 1E46          MOVL      *-SP[6],ACC           ; |3238| 
    8183                      .dwpsn  "ff.c",3239,8
    8184 0000102c 6F38          B         L279,UNC              ; |3239| 
    8185                      ; branch occurs ; |3239| 
    8186              L274:    
    8187              DW$L$_f_lseek$25$B:
    8188                      .dwpsn  "ff.c",3244,7
    8189 0000102d 8A44          MOVL      XAR4,*-SP[4]          ; |3244| 
    8190 0000102e 8AC4          MOVL      XAR4,*+XAR4[0]        ; |3244| 
    8191 0000102f 064A          MOVL      ACC,*-SP[10]          ; |3244| 
TMS320C2000 COFF Assembler PC v4.1.3 Thu May 05 10:06:00 2011

Tools Copyright (c) 1996-2006 Texas Instruments Incorporated
C:\DOCUME~1\ADMINI~1\LOCALS~1\Temp\TI1122                            PAGE  158

    8192 00001030 7640'         LCR       #_get_fat             ; |3244| 
         00001031 0186 
    8193                      ; call occurs [#_get_fat] ; |3244| 
    8194 00001032 1E4A          MOVL      *-SP[10],ACC          ; |3244| 
    8195              DW$L$_f_lseek$25$E:
    8196              L275:    
    8197              DW$L$_f_lseek$26$B:
    8198                      .dwpsn  "ff.c",3245,6
    8199 00001033 0200          MOVB      ACC,#0
    8200 00001034 1901          SUBB      ACC,#1
    8201 00001035 0F4A          CMPL      ACC,*-SP[10]          ; |3245| 
    8202 00001036 ED0C          BF        L276,NEQ              ; |3245| 
    8203                      ; branchcc occurs ; |3245| 
    8204              DW$L$_f_lseek$26$E:
    8205                      .dwpsn  "ff.c",3245,32
    8206 00001037 8A44          MOVL      XAR4,*-SP[4]          ; |3245| 
    8207 00001038 1ADC          OR        *+XAR4[3],#0x0080     ; |3245| 
         00001039 0080 
    8208 0000103a 8A44          MOVL      XAR4,*-SP[4]          ; |3245| 
    8209 0000103b 8AC4          MOVL      XAR4,*+XAR4[0]        ; |3245| 
    8210 0000103c 9A01          MOVB      AL,#1                 ; |3245| 
    8211 0000103d 7640'         LCR       #_unlock_fs           ; |3245| 
         0000103e 0064 
    8212                      ; call occurs [#_unlock_fs] ; |3245| 
    8213 0000103f 9A01          MOVB      AL,#1                 ; |3245| 
    8214 00001040 FFEF          B         L287,UNC              ; |3245| 
         00001041 009B 
    8215                      ; branch occurs ; |3245| 
    8216              L276:    
    8217              DW$L$_f_lseek$28$B:
    8218                      .dwpsn  "ff.c",3246,6
    8219 00001042 0201          MOVB      ACC,#1
    8220 00001043 0F4A          CMPL      ACC,*-SP[10]          ; |3246| 
    8221 00001044 6707          B         L277,HIS              ; |3246| 
    8222                      ; branchcc occurs ; |3246| 
    8223 00001045       DW$L$_f_lseek$28$E:
    8224 00001045       DW$L$_f_lseek$29$B:
    8225 00001045 8A44          MOVL      XAR4,*-SP[4]          ; |3246| 
    8226 00001046 8AC4          MOVL      XAR4,*+XAR4[0]        ; |3246| 
    8227 00001047 D010          MOVB      XAR0,#16              ; |3246| 
    8228 00001048 0694          MOVL      ACC,*+XAR4[AR0]       ; |3246| 
    8229 00001049 0F4A          CMPL      ACC,*-SP[10]          ; |3246| 
    8230 0000104a 660C          B         L278,HI               ; |3246| 
    8231                      ; branchcc occurs ; |3246| 
    8232              DW$L$_f_lseek$29$E:
    8233              L277:    
    8234                      .dwpsn  "ff.c",3246,51
    8235 0000104b 8A44          MOVL      XAR4,*-SP[4]          ; |3246| 
    8236 0000104c 1ADC          OR        *+XAR4[3],#0x0080     ; |3246| 
         0000104d 0080 
    8237 0000104e 8A44          MOVL      XAR4,*-SP[4]          ; |3246| 
    8238 0000104f 8AC4          MOVL      XAR4,*+XAR4[0]        ; |3246| 
    8239 00001050 9A02          MOVB      AL,#2                 ; |3246| 
    8240 00001051 7640'         LCR       #_unlock_fs           ; |3246| 
         00001052 0064 
TMS320C2000 COFF Assembler PC v4.1.3 Thu May 05 10:06:00 2011

Tools Copyright (c) 1996-2006 Texas Instruments Incorporated
C:\DOCUME~1\ADMINI~1\LOCALS~1\Temp\TI1122                            PAGE  159

    8241                      ; call occurs [#_unlock_fs] ; |3246| 
    8242 00001053 9A02          MOVB      AL,#2                 ; |3246| 
    8243 00001054 FFEF          B         L287,UNC              ; |3246| 
         00001055 0087 
    8244                      ; branch occurs ; |3246| 
    8245              L278:    
    8246              DW$L$_f_lseek$31$B:
    8247                      .dwpsn  "ff.c",3247,6
    8248 00001056 8A44          MOVL      XAR4,*-SP[4]          ; |3247| 
    8249 00001057 064A          MOVL      ACC,*-SP[10]          ; |3247| 
    8250 00001058 D00C          MOVB      XAR0,#12              ; |3247| 
    8251 00001059 1E94          MOVL      *+XAR4[AR0],ACC       ; |3247| 
    8252                      .dwpsn  "ff.c",3248,6
    8253 0000105a 8A44          MOVL      XAR4,*-SP[4]          ; |3248| 
    8254 0000105b 064C          MOVL      ACC,*-SP[12]          ; |3248| 
    8255 0000105c 5601          ADDL      *+XAR4[6],ACC         ; |3248| 
         0000105d 00F4 
    8256                      .dwpsn  "ff.c",3249,6
    8257 0000105e 064C          MOVL      ACC,*-SP[12]          ; |3249| 
    8258 0000105f 5641          SUBL      *-SP[6],ACC           ; |3249| 
         00001060 0046 
    8259                      .dwpsn  "ff.c",3230,13
    8260 00001061 064C          MOVL      ACC,*-SP[12]          ; |3230| 
    8261 00001062 0F46          CMPL      ACC,*-SP[6]           ; |3230| 
    8262 00001063 68BC          B         L273,LO               ; |3230| 
    8263                      ; branchcc occurs ; |3230| 
    8264              DW$L$_f_lseek$31$E:
    8265              L279:    
    8266                      .dwpsn  "ff.c",3251,5
    8267 00001064 8A44          MOVL      XAR4,*-SP[4]          ; |3251| 
    8268 00001065 0646          MOVL      ACC,*-SP[6]           ; |3251| 
    8269 00001066 5601          ADDL      *+XAR4[6],ACC         ; |3251| 
         00001067 00F4 
    8270                      .dwpsn  "ff.c",3252,5
    8271 00001068 FF20          MOV       ACC,#511              ; |3252| 
         00001069 01FF 
    8272 0000106a CE46          AND       AL,*-SP[6]            ; |3252| 
    8273 0000106b CF45          AND       AH,*-SP[5]            ; |3252| 
    8274 0000106c FF58          TEST      ACC                   ; |3252| 
    8275 0000106d EC18          BF        L281,EQ               ; |3252| 
    8276                      ; branchcc occurs ; |3252| 
    8277                      .dwpsn  "ff.c",3254,6
    8278 0000106e 8A44          MOVL      XAR4,*-SP[4]          ; |3254| 
    8279 0000106f 8AC4          MOVL      XAR4,*+XAR4[0]        ; |3254| 
    8280 00001070 064A          MOVL      ACC,*-SP[10]          ; |3254| 
    8281 00001071 7640'         LCR       #_clust2sect          ; |3254| 
         00001072 016E 
    8282                      ; call occurs [#_clust2sect] ; |3254| 
    8283 00001073 1E4E          MOVL      *-SP[14],ACC          ; |3254| 
    8284                      .dwpsn  "ff.c",3255,6
    8285 00001074 064E          MOVL      ACC,*-SP[14]          ; |3255| 
    8286 00001075 ED0B          BF        L280,NEQ              ; |3255| 
    8287                      ; branchcc occurs ; |3255| 
    8288                      .dwpsn  "ff.c",3255,20
    8289 00001076 8A44          MOVL      XAR4,*-SP[4]          ; |3255| 
TMS320C2000 COFF Assembler PC v4.1.3 Thu May 05 10:06:00 2011

Tools Copyright (c) 1996-2006 Texas Instruments Incorporated
C:\DOCUME~1\ADMINI~1\LOCALS~1\Temp\TI1122                            PAGE  160

    8290 00001077 1ADC          OR        *+XAR4[3],#0x0080     ; |3255| 
         00001078 0080 
    8291 00001079 8A44          MOVL      XAR4,*-SP[4]          ; |3255| 
    8292 0000107a 8AC4          MOVL      XAR4,*+XAR4[0]        ; |3255| 
    8293 0000107b 9A02          MOVB      AL,#2                 ; |3255| 
    8294 0000107c 7640'         LCR       #_unlock_fs           ; |3255| 
         0000107d 0064 
    8295                      ; call occurs [#_unlock_fs] ; |3255| 
    8296 0000107e 9A02          MOVB      AL,#2                 ; |3255| 
    8297 0000107f 6F5C          B         L287,UNC              ; |3255| 
    8298                      ; branch occurs ; |3255| 
    8299              L280:    
    8300                      .dwpsn  "ff.c",3256,6
    8301 00001080 2901          CLRC      SXM
    8302 00001081 0646          MOVL      ACC,*-SP[6]           ; |3256| 
    8303 00001082 FF48          SFR       ACC,9                 ; |3256| 
    8304 00001083 074E          ADDL      ACC,*-SP[14]          ; |3256| 
    8305 00001084 1E4E          MOVL      *-SP[14],ACC          ; |3256| 
    8306              L281:    
    8307                      .dwpsn  "ff.c",3260,3
    8308 00001085 8A44          MOVL      XAR4,*-SP[4]          ; |3260| 
    8309 00001086 06F4          MOVL      ACC,*+XAR4[6]         ; |3260| 
    8310 00001087 18A9          AND       AL,#0x01ff            ; |3260| 
         00001088 01FF 
    8311 00001089 9B00          MOVB      AH,#0
    8312 0000108a FF58          TEST      ACC                   ; |3260| 
    8313 0000108b EC3D          BF        L285,EQ               ; |3260| 
    8314                      ; branchcc occurs ; |3260| 
    8315 0000108c 8A44          MOVL      XAR4,*-SP[4]          ; |3260| 
    8316 0000108d D00E          MOVB      XAR0,#14              ; |3260| 
    8317 0000108e 0694          MOVL      ACC,*+XAR4[AR0]       ; |3260| 
    8318 0000108f 0F4E          CMPL      ACC,*-SP[14]          ; |3260| 
    8319 00001090 EC38          BF        L285,EQ               ; |3260| 
    8320                      ; branchcc occurs ; |3260| 
    8321                      .dwpsn  "ff.c",3264,4
    8322 00001091 8A44          MOVL      XAR4,*-SP[4]          ; |3264| 
    8323 00001092 46DC          TBIT      *+XAR4[3],#6          ; |3264| 
    8324 00001093 EF1B          BF        L283,NTC              ; |3264| 
    8325                      ; branchcc occurs ; |3264| 
    8326                      .dwpsn  "ff.c",3266,5
    8327 00001094 2841          MOV       *-SP[1],#1            ; |3266| 
         00001095 0001 
    8328 00001096 8A44          MOVL      XAR4,*-SP[4]          ; |3266| 
    8329 00001097 8AC4          MOVL      XAR4,*+XAR4[0]        ; |3266| 
    8330 00001098 C444          MOVL      XAR6,*-SP[4]          ; |3266| 
    8331 00001099 5DCC          MOVZ      AR5,*+XAR4[1]         ; |3266| 
    8332 0000109a 8A44          MOVL      XAR4,*-SP[4]          ; |3266| 
    8333 0000109b 0696          MOVL      ACC,*+XAR6[AR0]       ; |3266| 
    8334 0000109c DC14          ADDB      XAR4,#20              ; |3266| 
    8335 0000109d 7640!         LCR       #_disk_write          ; |3266| 
         0000109e 0000 
    8336                      ; call occurs [#_disk_write] ; |3266| 
    8337 0000109f 5200          CMPB      AL,#0                 ; |3266| 
    8338 000010a0 EC0B          BF        L282,EQ               ; |3266| 
    8339                      ; branchcc occurs ; |3266| 
TMS320C2000 COFF Assembler PC v4.1.3 Thu May 05 10:06:00 2011

Tools Copyright (c) 1996-2006 Texas Instruments Incorporated
C:\DOCUME~1\ADMINI~1\LOCALS~1\Temp\TI1122                            PAGE  161

    8340                      .dwpsn  "ff.c",3267,6
    8341 000010a1 8A44          MOVL      XAR4,*-SP[4]          ; |3267| 
    8342 000010a2 1ADC          OR        *+XAR4[3],#0x0080     ; |3267| 
         000010a3 0080 
    8343 000010a4 8A44          MOVL      XAR4,*-SP[4]          ; |3267| 
    8344 000010a5 8AC4          MOVL      XAR4,*+XAR4[0]        ; |3267| 
    8345 000010a6 9A01          MOVB      AL,#1                 ; |3267| 
    8346 000010a7 7640'         LCR       #_unlock_fs           ; |3267| 
         000010a8 0064 
    8347                      ; call occurs [#_unlock_fs] ; |3267| 
    8348 000010a9 9A01          MOVB      AL,#1                 ; |3267| 
    8349 000010aa 6F31          B         L287,UNC              ; |3267| 
    8350                      ; branch occurs ; |3267| 
    8351              L282:    
    8352                      .dwpsn  "ff.c",3268,5
    8353 000010ab 8A44          MOVL      XAR4,*-SP[4]          ; |3268| 
    8354 000010ac 18DC          AND       *+XAR4[3],#0xffbf     ; |3268| 
         000010ad FFBF 
    8355              L283:    
    8356                      .dwpsn  "ff.c",3271,4
    8357 000010ae 2841          MOV       *-SP[1],#1            ; |3271| 
         000010af 0001 
    8358 000010b0 8A44          MOVL      XAR4,*-SP[4]          ; |3271| 
    8359 000010b1 8AC4          MOVL      XAR4,*+XAR4[0]        ; |3271| 
    8360 000010b2 5DCC          MOVZ      AR5,*+XAR4[1]         ; |3271| 
    8361 000010b3 8A44          MOVL      XAR4,*-SP[4]          ; |3271| 
    8362 000010b4 064E          MOVL      ACC,*-SP[14]          ; |3271| 
    8363 000010b5 DC14          ADDB      XAR4,#20              ; |3271| 
    8364 000010b6 7640!         LCR       #_disk_read           ; |3271| 
         000010b7 0000 
    8365                      ; call occurs [#_disk_read] ; |3271| 
    8366 000010b8 5200          CMPB      AL,#0                 ; |3271| 
    8367 000010b9 EC0B          BF        L284,EQ               ; |3271| 
    8368                      ; branchcc occurs ; |3271| 
    8369                      .dwpsn  "ff.c",3272,5
    8370 000010ba 8A44          MOVL      XAR4,*-SP[4]          ; |3272| 
    8371 000010bb 1ADC          OR        *+XAR4[3],#0x0080     ; |3272| 
         000010bc 0080 
    8372 000010bd 8A44          MOVL      XAR4,*-SP[4]          ; |3272| 
    8373 000010be 8AC4          MOVL      XAR4,*+XAR4[0]        ; |3272| 
    8374 000010bf 9A01          MOVB      AL,#1                 ; |3272| 
    8375 000010c0 7640'         LCR       #_unlock_fs           ; |3272| 
         000010c1 0064 
    8376                      ; call occurs [#_unlock_fs] ; |3272| 
    8377 000010c2 9A01          MOVB      AL,#1                 ; |3272| 
    8378 000010c3 6F18          B         L287,UNC              ; |3272| 
    8379                      ; branch occurs ; |3272| 
    8380              L284:    
    8381                      .dwpsn  "ff.c",3274,4
    8382 000010c4 8A44          MOVL      XAR4,*-SP[4]          ; |3274| 
    8383 000010c5 064E          MOVL      ACC,*-SP[14]          ; |3274| 
    8384 000010c6 D00E          MOVB      XAR0,#14              ; |3274| 
    8385 000010c7 1E94          MOVL      *+XAR4[AR0],ACC       ; |3274| 
    8386              L285:    
    8387                      .dwpsn  "ff.c",3277,3
TMS320C2000 COFF Assembler PC v4.1.3 Thu May 05 10:06:00 2011

Tools Copyright (c) 1996-2006 Texas Instruments Incorporated
C:\DOCUME~1\ADMINI~1\LOCALS~1\Temp\TI1122                            PAGE  162

    8388 000010c8 8A44          MOVL      XAR4,*-SP[4]          ; |3277| 
    8389 000010c9 D008          MOVB      XAR0,#8               ; |3277| 
    8390 000010ca 0694          MOVL      ACC,*+XAR4[AR0]       ; |3277| 
    8391 000010cb 8A44          MOVL      XAR4,*-SP[4]          ; |3277| 
    8392 000010cc 0FF4          CMPL      ACC,*+XAR4[6]         ; |3277| 
    8393 000010cd 6708          B         L286,HIS              ; |3277| 
    8394                      ; branchcc occurs ; |3277| 
    8395                      .dwpsn  "ff.c",3279,4
    8396 000010ce 8A44          MOVL      XAR4,*-SP[4]          ; |3279| 
    8397 000010cf 8344          MOVL      XAR5,*-SP[4]          ; |3279| 
    8398 000010d0 06F4          MOVL      ACC,*+XAR4[6]         ; |3279| 
    8399 000010d1 1E95          MOVL      *+XAR5[AR0],ACC       ; |3279| 
    8400                      .dwpsn  "ff.c",3280,4
    8401 000010d2 8A44          MOVL      XAR4,*-SP[4]          ; |3280| 
    8402 000010d3 1ADC          OR        *+XAR4[3],#0x0020     ; |3280| 
         000010d4 0020 
    8403              L286:    
    8404                      .dwendtag DW$455
    8405              
    8406                      .dwpsn  "ff.c",3285,2
    8407 000010d5 8A44          MOVL      XAR4,*-SP[4]          ; |3285| 
    8408 000010d6 8AC4          MOVL      XAR4,*+XAR4[0]        ; |3285| 
    8409 000010d7 9247          MOV       AL,*-SP[7]            ; |3285| 
    8410 000010d8 7640'         LCR       #_unlock_fs           ; |3285| 
         000010d9 0064 
    8411                      ; call occurs [#_unlock_fs] ; |3285| 
    8412 000010da 9247          MOV       AL,*-SP[7]            ; |3285| 
    8413              L287:    
    8414                      .dwpsn  "ff.c",3286,1
    8415 000010db FE90          SUBB      SP,#16                ; |3285| 
    8416                      .dwcfa  0x1d, -2
    8417 000010dc 0006          LRETR
    8418                      ; return occurs
    8419              
    8420              DW$460  .dwtag  DW_TAG_loop
    8421                      .dwattr DW$460, DW_AT_name("C:\DOCUME~1\ADMINI~1\LOCALS~1\Temp\TI1122:L273:1:1304561157")
    8422                      .dwattr DW$460, DW_AT_begin_file("ff.c")
    8423                      .dwattr DW$460, DW_AT_begin_line(0xc9e)
    8424                      .dwattr DW$460, DW_AT_end_line(0xcb2)
    8425              DW$461  .dwtag  DW_TAG_loop_range
    8426                      .dwattr DW$461, DW_AT_low_pc(DW$L$_f_lseek$21$B)
    8427                      .dwattr DW$461, DW_AT_high_pc(DW$L$_f_lseek$21$E)
    8428              DW$462  .dwtag  DW_TAG_loop_range
    8429                      .dwattr DW$462, DW_AT_low_pc(DW$L$_f_lseek$22$B)
    8430                      .dwattr DW$462, DW_AT_high_pc(DW$L$_f_lseek$22$E)
    8431              DW$463  .dwtag  DW_TAG_loop_range
    8432                      .dwattr DW$463, DW_AT_low_pc(DW$L$_f_lseek$25$B)
    8433                      .dwattr DW$463, DW_AT_high_pc(DW$L$_f_lseek$25$E)
    8434              DW$464  .dwtag  DW_TAG_loop_range
    8435                      .dwattr DW$464, DW_AT_low_pc(DW$L$_f_lseek$26$B)
    8436                      .dwattr DW$464, DW_AT_high_pc(DW$L$_f_lseek$26$E)
    8437              DW$465  .dwtag  DW_TAG_loop_range
    8438                      .dwattr DW$465, DW_AT_low_pc(DW$L$_f_lseek$28$B)
    8439                      .dwattr DW$465, DW_AT_high_pc(DW$L$_f_lseek$28$E)
    8440              DW$466  .dwtag  DW_TAG_loop_range
TMS320C2000 COFF Assembler PC v4.1.3 Thu May 05 10:06:00 2011

Tools Copyright (c) 1996-2006 Texas Instruments Incorporated
C:\DOCUME~1\ADMINI~1\LOCALS~1\Temp\TI1122                            PAGE  163

    8441                      .dwattr DW$466, DW_AT_low_pc(DW$L$_f_lseek$29$B)
    8442                      .dwattr DW$466, DW_AT_high_pc(DW$L$_f_lseek$29$E)
    8443              DW$467  .dwtag  DW_TAG_loop_range
    8444                      .dwattr DW$467, DW_AT_low_pc(DW$L$_f_lseek$31$B)
    8445                      .dwattr DW$467, DW_AT_high_pc(DW$L$_f_lseek$31$E)
    8446                      .dwendtag DW$460
    8447              
    8448                      .dwattr DW$449, DW_AT_end_file("ff.c")
    8449                      .dwattr DW$449, DW_AT_end_line(0xcd6)
    8450                      .dwattr DW$449, DW_AT_end_column(0x01)
    8451                      .dwendentry
    8452                      .dwendtag DW$449
    8453              
    8454 000010dd               .sect   ".text"
    8455                      .global _f_opendir
    8456              
    8457              DW$468  .dwtag  DW_TAG_subprogram, DW_AT_name("f_opendir"), DW_AT_symbol_name("_f_opendir")
    8458                      .dwattr DW$468, DW_AT_low_pc(_f_opendir)
    8459                      .dwattr DW$468, DW_AT_high_pc(0x00)
    8460                      .dwattr DW$468, DW_AT_begin_file("ff.c")
    8461                      .dwattr DW$468, DW_AT_begin_line(0xcdf)
    8462                      .dwattr DW$468, DW_AT_begin_column(0x09)
    8463                      .dwpsn  "ff.c",3299,1
    8464              
    8465                      .dwfde DW$CIE
    8466              
    8467              ;***************************************************************
    8468              ;* FNAME: _f_opendir                    FR SIZE:  20           *
    8469              ;*                                                             *
    8470              ;* FUNCTION ENVIRONMENT                                        *
    8471              ;*                                                             *
    8472              ;* FUNCTION PROPERTIES                                         *
    8473              ;*                            0 Parameter, 17 Auto,  2 SOE     *
    8474              ;***************************************************************
    8475              
    8476              _f_opendir:
    8477                      .dwcfa  0x1d, -2
    8478                      .dwcfa  0x1c, 26, 0
    8479                      .dwcfa  0x09, 40, 26
    8480 000010dd B2BD          MOVL      *SP++,XAR1
    8481                      .dwcfa  0x80, 7, 2
    8482                      .dwcfa  0x1d, -4
    8483 000010de FE12          ADDB      SP,#18
    8484                      .dwcfa  0x1d, -22
    8485              ;* AR4   assigned to _dj
    8486              DW$469  .dwtag  DW_TAG_formal_parameter, DW_AT_name("dj"), DW_AT_symbol_name("_dj")
    8487                      .dwattr DW$469, DW_AT_type(*DW$T$53)
    8488                      .dwattr DW$469, DW_AT_location[DW_OP_reg12]
    8489              ;* AR5   assigned to _path
    8490              DW$470  .dwtag  DW_TAG_formal_parameter, DW_AT_name("path"), DW_AT_symbol_name("_path")
    8491                      .dwattr DW$470, DW_AT_type(*DW$T$93)
    8492                      .dwattr DW$470, DW_AT_location[DW_OP_reg14]
    8493              DW$471  .dwtag  DW_TAG_variable, DW_AT_name("dj"), DW_AT_symbol_name("_dj")
    8494                      .dwattr DW$471, DW_AT_type(*DW$T$53)
    8495                      .dwattr DW$471, DW_AT_location[DW_OP_breg20 -2]
TMS320C2000 COFF Assembler PC v4.1.3 Thu May 05 10:06:00 2011

Tools Copyright (c) 1996-2006 Texas Instruments Incorporated
C:\DOCUME~1\ADMINI~1\LOCALS~1\Temp\TI1122                            PAGE  164

    8496              DW$472  .dwtag  DW_TAG_variable, DW_AT_name("path"), DW_AT_symbol_name("_path")
    8497                      .dwattr DW$472, DW_AT_type(*DW$T$93)
    8498                      .dwattr DW$472, DW_AT_location[DW_OP_breg20 -4]
    8499              DW$473  .dwtag  DW_TAG_variable, DW_AT_name("res"), DW_AT_symbol_name("_res")
    8500                      .dwattr DW$473, DW_AT_type(*DW$T$49)
    8501                      .dwattr DW$473, DW_AT_location[DW_OP_breg20 -5]
    8502              DW$474  .dwtag  DW_TAG_variable, DW_AT_name("sfn"), DW_AT_symbol_name("_sfn")
    8503                      .dwattr DW$474, DW_AT_type(*DW$T$66)
    8504                      .dwattr DW$474, DW_AT_location[DW_OP_breg20 -17]
    8505 000010df A044          MOVL      *-SP[4],XAR5          ; |3299| 
    8506 000010e0 A842          MOVL      *-SP[2],XAR4          ; |3299| 
    8507                      .dwpsn  "ff.c",3304,2
    8508 000010e1 5CAD          MOVZ      AR4,SP                ; |3304| 
    8509 000010e2 8342          MOVL      XAR5,*-SP[2]          ; |3304| 
    8510 000010e3 9A00          MOVB      AL,#0
    8511 000010e4 DC84          SUBB      XAR4,#4               ; |3304| 
    8512 000010e5 7640'         LCR       #_chk_mounted         ; |3304| 
         000010e6 07FC 
    8513                      ; call occurs [#_chk_mounted] ; |3304| 
    8514 000010e7 9645          MOV       *-SP[5],AL            ; |3304| 
    8515                      .dwpsn  "ff.c",3305,2
    8516 000010e8 5200          CMPB      AL,#0                 ; |3305| 
    8517 000010e9 ED45          BF        L291,NEQ              ; |3305| 
    8518                      ; branchcc occurs ; |3305| 
    8519                      .dwpsn  "ff.c",3307,3
    8520 000010ea 5CAD          MOVZ      AR4,SP                ; |3307| 
    8521 000010eb 8342          MOVL      XAR5,*-SP[2]          ; |3307| 
    8522 000010ec D00C          MOVB      XAR0,#12              ; |3307| 
    8523 000010ed DC91          SUBB      XAR4,#17              ; |3307| 
    8524 000010ee A895          MOVL      *+XAR5[AR0],XAR4      ; |3307| 
    8525                      .dwpsn  "ff.c",3308,3
    8526 000010ef 8A42          MOVL      XAR4,*-SP[2]          ; |3308| 
    8527 000010f0 8344          MOVL      XAR5,*-SP[4]          ; |3308| 
    8528 000010f1 7640'         LCR       #_follow_path         ; |3308| 
         000010f2 0722 
    8529                      ; call occurs [#_follow_path] ; |3308| 
    8530 000010f3 9645          MOV       *-SP[5],AL            ; |3308| 
    8531                      .dwpsn  "ff.c",3310,3
    8532 000010f4 5200          CMPB      AL,#0                 ; |3310| 
    8533 000010f5 ED35          BF        L290,NEQ              ; |3310| 
    8534                      ; branchcc occurs ; |3310| 
    8535                      .dwpsn  "ff.c",3312,4
    8536 000010f6 8A42          MOVL      XAR4,*-SP[2]          ; |3312| 
    8537 000010f7 D00A          MOVB      XAR0,#10              ; |3312| 
    8538 000010f8 0694          MOVL      ACC,*+XAR4[AR0]       ; |3312| 
    8539 000010f9 EC25          BF        L289,EQ               ; |3312| 
    8540                      ; branchcc occurs ; |3312| 
    8541                      .dwpsn  "ff.c",3314,5
    8542 000010fa 8A42          MOVL      XAR4,*-SP[2]          ; |3314| 
    8543 000010fb 8A94          MOVL      XAR4,*+XAR4[AR0]      ; |3314| 
    8544 000010fc D00B          MOVB      XAR0,#11              ; |3314| 
    8545 000010fd 4494          TBIT      *+XAR4[AR0],#4        ; |3314| 
    8546 000010fe EF1E          BF        L288,NTC              ; |3314| 
    8547                      ; branchcc occurs ; |3314| 
    8548                      .dwpsn  "ff.c",3316,6
TMS320C2000 COFF Assembler PC v4.1.3 Thu May 05 10:06:00 2011

Tools Copyright (c) 1996-2006 Texas Instruments Incorporated
C:\DOCUME~1\ADMINI~1\LOCALS~1\Temp\TI1122                            PAGE  165

    8549 000010ff 8342          MOVL      XAR5,*-SP[2]          ; |3316| 
    8550 00001100 8A42          MOVL      XAR4,*-SP[2]          ; |3316| 
    8551 00001101 D10A          MOVB      XAR1,#10              ; |3316| 
    8552 00001102 D00A          MOVB      XAR0,#10              ; |3316| 
    8553 00001103 839D          MOVL      XAR5,*+XAR5[AR1]      ; |3316| 
    8554 00001104 8A94          MOVL      XAR4,*+XAR4[AR0]      ; |3316| 
    8555 00001105 D11B          MOVB      XAR1,#27              ; |3316| 
    8556 00001106 D01A          MOVB      XAR0,#26              ; |3316| 
    8557 00001107 5603          MOV       ACC,*+XAR5[AR1] << #8 ; |3316| 
         00001108 089D 
    8558 00001109 CA94          OR        AL,*+XAR4[AR0]        ; |3316| 
    8559 0000110a 8342          MOVL      XAR5,*-SP[2]          ; |3316| 
    8560 0000110b 8A42          MOVL      XAR4,*-SP[2]          ; |3316| 
    8561 0000110c D10A          MOVB      XAR1,#10              ; |3316| 
    8562 0000110d D00A          MOVB      XAR0,#10              ; |3316| 
    8563 0000110e 839D          MOVL      XAR5,*+XAR5[AR1]      ; |3316| 
    8564 0000110f 8A94          MOVL      XAR4,*+XAR4[AR0]      ; |3316| 
    8565 00001110 88A9          MOVZ      AR6,AL                ; |3316| 
    8566 00001111 D115          MOVB      XAR1,#21              ; |3316| 
    8567 00001112 D014          MOVB      XAR0,#20              ; |3316| 
    8568 00001113 5603          MOV       ACC,*+XAR5[AR1] << #8 ; |3316| 
         00001114 089D 
    8569 00001115 CA94          OR        AL,*+XAR4[AR0]        ; |3316| 
    8570 00001116 8A42          MOVL      XAR4,*-SP[2]          ; |3316| 
    8571 00001117 2901          CLRC      SXM
    8572 00001118 25A9          MOV       ACC,AL << 16          ; |3316| 
    8573 00001119 AFA6          OR        ACC,AR6               ; |3316| 
    8574 0000111a 1EE4          MOVL      *+XAR4[4],ACC         ; |3316| 
    8575                      .dwpsn  "ff.c",3317,5
    8576 0000111b 6F03          B         L289,UNC              ; |3317| 
    8577                      ; branch occurs ; |3317| 
    8578              L288:    
    8579                      .dwpsn  "ff.c",3320,6
    8580 0000111c 2845          MOV       *-SP[5],#5            ; |3320| 
         0000111d 0005 
    8581              L289:    
    8582                      .dwpsn  "ff.c",3323,4
    8583 0000111e 9245          MOV       AL,*-SP[5]            ; |3323| 
    8584 0000111f ED0B          BF        L290,NEQ              ; |3323| 
    8585                      ; branchcc occurs ; |3323| 
    8586                      .dwpsn  "ff.c",3325,5
    8587 00001120 8A42          MOVL      XAR4,*-SP[2]          ; |3325| 
    8588 00001121 8AC4          MOVL      XAR4,*+XAR4[0]        ; |3325| 
    8589 00001122 92F4          MOV       AL,*+XAR4[6]          ; |3325| 
    8590 00001123 8A42          MOVL      XAR4,*-SP[2]          ; |3325| 
    8591 00001124 96D4          MOV       *+XAR4[2],AL          ; |3325| 
    8592                      .dwpsn  "ff.c",3326,5
    8593 00001125 8A42          MOVL      XAR4,*-SP[2]          ; |3326| 
    8594 00001126 9A00          MOVB      AL,#0
    8595 00001127 7640'         LCR       #_dir_sdi             ; |3326| 
         00001128 03DB 
    8596                      ; call occurs [#_dir_sdi] ; |3326| 
    8597 00001129 9645          MOV       *-SP[5],AL            ; |3326| 
    8598              L290:    
    8599                      .dwpsn  "ff.c",3329,3
TMS320C2000 COFF Assembler PC v4.1.3 Thu May 05 10:06:00 2011

Tools Copyright (c) 1996-2006 Texas Instruments Incorporated
C:\DOCUME~1\ADMINI~1\LOCALS~1\Temp\TI1122                            PAGE  166

    8600 0000112a 5204          CMPB      AL,#4                 ; |3329| 
    8601 0000112b ED03          BF        L291,NEQ              ; |3329| 
    8602                      ; branchcc occurs ; |3329| 
    8603                      .dwpsn  "ff.c",3329,28
    8604 0000112c 9A05          MOVB      AL,#5                 ; |3329| 
    8605 0000112d 9645          MOV       *-SP[5],AL            ; |3329| 
    8606              L291:    
    8607                      .dwpsn  "ff.c",3332,2
    8608 0000112e 8A42          MOVL      XAR4,*-SP[2]          ; |3332| 
    8609 0000112f 8AC4          MOVL      XAR4,*+XAR4[0]        ; |3332| 
    8610 00001130 7640'         LCR       #_unlock_fs           ; |3332| 
         00001131 0064 
    8611                      ; call occurs [#_unlock_fs] ; |3332| 
    8612 00001132 9245          MOV       AL,*-SP[5]            ; |3332| 
    8613                      .dwpsn  "ff.c",3333,1
    8614 00001133 FE92          SUBB      SP,#18                ; |3332| 
    8615                      .dwcfa  0x1d, -4
    8616 00001134 8BBE          MOVL      XAR1,*--SP            ; |3332| 
    8617                      .dwcfa  0x1d, -2
    8618                      .dwcfa  0xc0, 7
    8619 00001135 0006          LRETR
    8620                      ; return occurs
    8621                      .dwattr DW$468, DW_AT_end_file("ff.c")
    8622                      .dwattr DW$468, DW_AT_end_line(0xd05)
    8623                      .dwattr DW$468, DW_AT_end_column(0x01)
    8624                      .dwendentry
    8625                      .dwendtag DW$468
    8626              
    8627 00001136               .sect   ".text"
    8628                      .global _f_readdir
    8629              
    8630              DW$475  .dwtag  DW_TAG_subprogram, DW_AT_name("f_readdir"), DW_AT_symbol_name("_f_readdir")
    8631                      .dwattr DW$475, DW_AT_low_pc(_f_readdir)
    8632                      .dwattr DW$475, DW_AT_high_pc(0x00)
    8633                      .dwattr DW$475, DW_AT_begin_file("ff.c")
    8634                      .dwattr DW$475, DW_AT_begin_line(0xd0e)
    8635                      .dwattr DW$475, DW_AT_begin_column(0x09)
    8636                      .dwpsn  "ff.c",3346,1
    8637              
    8638                      .dwfde DW$CIE
    8639              
    8640              ;***************************************************************
    8641              ;* FNAME: _f_readdir                    FR SIZE:  18           *
    8642              ;*                                                             *
    8643              ;* FUNCTION ENVIRONMENT                                        *
    8644              ;*                                                             *
    8645              ;* FUNCTION PROPERTIES                                         *
    8646              ;*                            0 Parameter, 17 Auto,  0 SOE     *
    8647              ;***************************************************************
    8648              
    8649              _f_readdir:
    8650                      .dwcfa  0x1d, -2
    8651                      .dwcfa  0x1c, 26, 0
    8652                      .dwcfa  0x09, 40, 26
    8653 00001136 FE12          ADDB      SP,#18
TMS320C2000 COFF Assembler PC v4.1.3 Thu May 05 10:06:00 2011

Tools Copyright (c) 1996-2006 Texas Instruments Incorporated
C:\DOCUME~1\ADMINI~1\LOCALS~1\Temp\TI1122                            PAGE  167

    8654                      .dwcfa  0x1d, -20
    8655              ;* AR4   assigned to _dj
    8656              DW$476  .dwtag  DW_TAG_formal_parameter, DW_AT_name("dj"), DW_AT_symbol_name("_dj")
    8657                      .dwattr DW$476, DW_AT_type(*DW$T$53)
    8658                      .dwattr DW$476, DW_AT_location[DW_OP_reg12]
    8659              ;* AR5   assigned to _fno
    8660              DW$477  .dwtag  DW_TAG_formal_parameter, DW_AT_name("fno"), DW_AT_symbol_name("_fno")
    8661                      .dwattr DW$477, DW_AT_type(*DW$T$55)
    8662                      .dwattr DW$477, DW_AT_location[DW_OP_reg14]
    8663              DW$478  .dwtag  DW_TAG_variable, DW_AT_name("dj"), DW_AT_symbol_name("_dj")
    8664                      .dwattr DW$478, DW_AT_type(*DW$T$53)
    8665                      .dwattr DW$478, DW_AT_location[DW_OP_breg20 -2]
    8666              DW$479  .dwtag  DW_TAG_variable, DW_AT_name("fno"), DW_AT_symbol_name("_fno")
    8667                      .dwattr DW$479, DW_AT_type(*DW$T$55)
    8668                      .dwattr DW$479, DW_AT_location[DW_OP_breg20 -4]
    8669              DW$480  .dwtag  DW_TAG_variable, DW_AT_name("res"), DW_AT_symbol_name("_res")
    8670                      .dwattr DW$480, DW_AT_type(*DW$T$49)
    8671                      .dwattr DW$480, DW_AT_location[DW_OP_breg20 -5]
    8672              DW$481  .dwtag  DW_TAG_variable, DW_AT_name("sfn"), DW_AT_symbol_name("_sfn")
    8673                      .dwattr DW$481, DW_AT_type(*DW$T$66)
    8674                      .dwattr DW$481, DW_AT_location[DW_OP_breg20 -17]
    8675 00001137 A044          MOVL      *-SP[4],XAR5          ; |3346| 
    8676 00001138 A842          MOVL      *-SP[2],XAR4          ; |3346| 
    8677                      .dwpsn  "ff.c",3351,2
    8678 00001139 8A42          MOVL      XAR4,*-SP[2]          ; |3351| 
    8679 0000113a 8342          MOVL      XAR5,*-SP[2]          ; |3351| 
    8680 0000113b 8AC4          MOVL      XAR4,*+XAR4[0]        ; |3351| 
    8681 0000113c 92D5          MOV       AL,*+XAR5[2]          ; |3351| 
    8682 0000113d 7640'         LCR       #_validate            ; |3351| 
         0000113e 0AC3 
    8683                      ; call occurs [#_validate] ; |3351| 
    8684 0000113f 9645          MOV       *-SP[5],AL            ; |3351| 
    8685                      .dwpsn  "ff.c",3352,2
    8686 00001140 5200          CMPB      AL,#0                 ; |3352| 
    8687 00001141 ED2B          BF        L294,NEQ              ; |3352| 
    8688                      ; branchcc occurs ; |3352| 
    8689                      .dwpsn  "ff.c",3354,3
    8690 00001142 0644          MOVL      ACC,*-SP[4]           ; |3354| 
    8691 00001143 ED07          BF        L292,NEQ              ; |3354| 
    8692                      ; branchcc occurs ; |3354| 
    8693                      .dwpsn  "ff.c",3356,4
    8694 00001144 8A42          MOVL      XAR4,*-SP[2]          ; |3356| 
    8695 00001145 9A00          MOVB      AL,#0
    8696 00001146 7640'         LCR       #_dir_sdi             ; |3356| 
         00001147 03DB 
    8697                      ; call occurs [#_dir_sdi] ; |3356| 
    8698 00001148 9645          MOV       *-SP[5],AL            ; |3356| 
    8699                      .dwpsn  "ff.c",3357,3
    8700 00001149 6F23          B         L294,UNC              ; |3357| 
    8701                      ; branch occurs ; |3357| 
    8702              L292:    
    8703                      .dwpsn  "ff.c",3360,4
    8704 0000114a 5CAD          MOVZ      AR4,SP                ; |3360| 
    8705 0000114b 8342          MOVL      XAR5,*-SP[2]          ; |3360| 
    8706 0000114c D00C          MOVB      XAR0,#12              ; |3360| 
TMS320C2000 COFF Assembler PC v4.1.3 Thu May 05 10:06:00 2011

Tools Copyright (c) 1996-2006 Texas Instruments Incorporated
C:\DOCUME~1\ADMINI~1\LOCALS~1\Temp\TI1122                            PAGE  168

    8707 0000114d DC91          SUBB      XAR4,#17              ; |3360| 
    8708 0000114e A895          MOVL      *+XAR5[AR0],XAR4      ; |3360| 
    8709                      .dwpsn  "ff.c",3361,4
    8710 0000114f 8A42          MOVL      XAR4,*-SP[2]          ; |3361| 
    8711 00001150 7640'         LCR       #_dir_read            ; |3361| 
         00001151 053E 
    8712                      ; call occurs [#_dir_read] ; |3361| 
    8713 00001152 9645          MOV       *-SP[5],AL            ; |3361| 
    8714                      .dwpsn  "ff.c",3362,4
    8715 00001153 5204          CMPB      AL,#4                 ; |3362| 
    8716 00001154 ED06          BF        L293,NEQ              ; |3362| 
    8717                      ; branchcc occurs ; |3362| 
    8718                      .dwpsn  "ff.c",3364,5
    8719 00001155 8A42          MOVL      XAR4,*-SP[2]          ; |3364| 
    8720 00001156 0200          MOVB      ACC,#0
    8721 00001157 D008          MOVB      XAR0,#8               ; |3364| 
    8722 00001158 1E94          MOVL      *+XAR4[AR0],ACC       ; |3364| 
    8723                      .dwpsn  "ff.c",3365,5
    8724 00001159 2B45          MOV       *-SP[5],#0            ; |3365| 
    8725              L293:    
    8726                      .dwpsn  "ff.c",3367,4
    8727 0000115a 9245          MOV       AL,*-SP[5]            ; |3367| 
    8728 0000115b ED11          BF        L294,NEQ              ; |3367| 
    8729                      ; branchcc occurs ; |3367| 
    8730                      .dwpsn  "ff.c",3369,5
    8731 0000115c 8A42          MOVL      XAR4,*-SP[2]          ; |3369| 
    8732 0000115d 8344          MOVL      XAR5,*-SP[4]          ; |3369| 
    8733 0000115e 7640'         LCR       #_get_fileinfo        ; |3369| 
         0000115f 0698 
    8734                      ; call occurs [#_get_fileinfo] ; |3369| 
    8735                      .dwpsn  "ff.c",3370,5
    8736 00001160 8A42          MOVL      XAR4,*-SP[2]          ; |3370| 
    8737 00001161 9A00          MOVB      AL,#0
    8738 00001162 7640'         LCR       #_dir_next            ; |3370| 
         00001163 0453 
    8739                      ; call occurs [#_dir_next] ; |3370| 
    8740 00001164 9645          MOV       *-SP[5],AL            ; |3370| 
    8741                      .dwpsn  "ff.c",3371,5
    8742 00001165 5204          CMPB      AL,#4                 ; |3371| 
    8743 00001166 ED06          BF        L294,NEQ              ; |3371| 
    8744                      ; branchcc occurs ; |3371| 
    8745                      .dwpsn  "ff.c",3373,6
    8746 00001167 8A42          MOVL      XAR4,*-SP[2]          ; |3373| 
    8747 00001168 0200          MOVB      ACC,#0
    8748 00001169 D008          MOVB      XAR0,#8               ; |3373| 
    8749 0000116a 1E94          MOVL      *+XAR4[AR0],ACC       ; |3373| 
    8750                      .dwpsn  "ff.c",3374,6
    8751 0000116b 2B45          MOV       *-SP[5],#0            ; |3374| 
    8752              L294:    
    8753                      .dwpsn  "ff.c",3381,2
    8754 0000116c 8A42          MOVL      XAR4,*-SP[2]          ; |3381| 
    8755 0000116d 8AC4          MOVL      XAR4,*+XAR4[0]        ; |3381| 
    8756 0000116e 9245          MOV       AL,*-SP[5]            ; |3381| 
    8757 0000116f 7640'         LCR       #_unlock_fs           ; |3381| 
         00001170 0064 
TMS320C2000 COFF Assembler PC v4.1.3 Thu May 05 10:06:00 2011

Tools Copyright (c) 1996-2006 Texas Instruments Incorporated
C:\DOCUME~1\ADMINI~1\LOCALS~1\Temp\TI1122                            PAGE  169

    8758                      ; call occurs [#_unlock_fs] ; |3381| 
    8759 00001171 9245          MOV       AL,*-SP[5]            ; |3381| 
    8760                      .dwpsn  "ff.c",3382,1
    8761 00001172 FE92          SUBB      SP,#18                ; |3381| 
    8762                      .dwcfa  0x1d, -2
    8763 00001173 0006          LRETR
    8764                      ; return occurs
    8765                      .dwattr DW$475, DW_AT_end_file("ff.c")
    8766                      .dwattr DW$475, DW_AT_end_line(0xd36)
    8767                      .dwattr DW$475, DW_AT_end_column(0x01)
    8768                      .dwendentry
    8769                      .dwendtag DW$475
    8770              
    8771 00001174               .sect   ".text"
    8772                      .global _f_stat
    8773              
    8774              DW$482  .dwtag  DW_TAG_subprogram, DW_AT_name("f_stat"), DW_AT_symbol_name("_f_stat")
    8775                      .dwattr DW$482, DW_AT_low_pc(_f_stat)
    8776                      .dwattr DW$482, DW_AT_high_pc(0x00)
    8777                      .dwattr DW$482, DW_AT_begin_file("ff.c")
    8778                      .dwattr DW$482, DW_AT_begin_line(0xd3f)
    8779                      .dwattr DW$482, DW_AT_begin_column(0x09)
    8780                      .dwpsn  "ff.c",3395,1
    8781              
    8782                      .dwfde DW$CIE
    8783              
    8784              ;***************************************************************
    8785              ;* FNAME: _f_stat                       FR SIZE:  32           *
    8786              ;*                                                             *
    8787              ;* FUNCTION ENVIRONMENT                                        *
    8788              ;*                                                             *
    8789              ;* FUNCTION PROPERTIES                                         *
    8790              ;*                            0 Parameter, 32 Auto,  0 SOE     *
    8791              ;***************************************************************
    8792              
    8793              _f_stat:
    8794                      .dwcfa  0x1d, -2
    8795                      .dwcfa  0x1c, 26, 0
    8796                      .dwcfa  0x09, 40, 26
    8797 00001174 FE20          ADDB      SP,#32
    8798                      .dwcfa  0x1d, -34
    8799              ;* AR4   assigned to _path
    8800              DW$483  .dwtag  DW_TAG_formal_parameter, DW_AT_name("path"), DW_AT_symbol_name("_path")
    8801                      .dwattr DW$483, DW_AT_type(*DW$T$93)
    8802                      .dwattr DW$483, DW_AT_location[DW_OP_reg12]
    8803              ;* AR5   assigned to _fno
    8804              DW$484  .dwtag  DW_TAG_formal_parameter, DW_AT_name("fno"), DW_AT_symbol_name("_fno")
    8805                      .dwattr DW$484, DW_AT_type(*DW$T$55)
    8806                      .dwattr DW$484, DW_AT_location[DW_OP_reg14]
    8807              DW$485  .dwtag  DW_TAG_variable, DW_AT_name("path"), DW_AT_symbol_name("_path")
    8808                      .dwattr DW$485, DW_AT_type(*DW$T$93)
    8809                      .dwattr DW$485, DW_AT_location[DW_OP_breg20 -2]
    8810              DW$486  .dwtag  DW_TAG_variable, DW_AT_name("fno"), DW_AT_symbol_name("_fno")
    8811                      .dwattr DW$486, DW_AT_type(*DW$T$55)
    8812                      .dwattr DW$486, DW_AT_location[DW_OP_breg20 -4]
TMS320C2000 COFF Assembler PC v4.1.3 Thu May 05 10:06:00 2011

Tools Copyright (c) 1996-2006 Texas Instruments Incorporated
C:\DOCUME~1\ADMINI~1\LOCALS~1\Temp\TI1122                            PAGE  170

    8813              DW$487  .dwtag  DW_TAG_variable, DW_AT_name("res"), DW_AT_symbol_name("_res")
    8814                      .dwattr DW$487, DW_AT_type(*DW$T$49)
    8815                      .dwattr DW$487, DW_AT_location[DW_OP_breg20 -5]
    8816              DW$488  .dwtag  DW_TAG_variable, DW_AT_name("dj"), DW_AT_symbol_name("_dj")
    8817                      .dwattr DW$488, DW_AT_type(*DW$T$52)
    8818                      .dwattr DW$488, DW_AT_location[DW_OP_breg20 -20]
    8819              DW$489  .dwtag  DW_TAG_variable, DW_AT_name("sfn"), DW_AT_symbol_name("_sfn")
    8820                      .dwattr DW$489, DW_AT_type(*DW$T$66)
    8821                      .dwattr DW$489, DW_AT_location[DW_OP_breg20 -32]
    8822 00001175 A044          MOVL      *-SP[4],XAR5          ; |3395| 
    8823 00001176 A842          MOVL      *-SP[2],XAR4          ; |3395| 
    8824                      .dwpsn  "ff.c",3401,2
    8825 00001177 5DAD          MOVZ      AR5,SP                ; |3401| 
    8826 00001178 5CAD          MOVZ      AR4,SP                ; |3401| 
    8827 00001179 9A00          MOVB      AL,#0
    8828 0000117a DD94          SUBB      XAR5,#20              ; |3401| 
    8829 0000117b DC82          SUBB      XAR4,#2               ; |3401| 
    8830 0000117c 7640'         LCR       #_chk_mounted         ; |3401| 
         0000117d 07FC 
    8831                      ; call occurs [#_chk_mounted] ; |3401| 
    8832 0000117e 9645          MOV       *-SP[5],AL            ; |3401| 
    8833                      .dwpsn  "ff.c",3402,2
    8834 0000117f 5200          CMPB      AL,#0                 ; |3402| 
    8835 00001180 ED16          BF        L296,NEQ              ; |3402| 
    8836                      ; branchcc occurs ; |3402| 
    8837                      .dwpsn  "ff.c",3404,3
    8838 00001181 5CAD          MOVZ      AR4,SP                ; |3404| 
    8839 00001182 DCA0          SUBB      XAR4,#32              ; |3404| 
    8840 00001183 A848          MOVL      *-SP[8],XAR4          ; |3404| 
    8841                      .dwpsn  "ff.c",3405,3
    8842 00001184 5CAD          MOVZ      AR4,SP                ; |3405| 
    8843 00001185 8342          MOVL      XAR5,*-SP[2]          ; |3405| 
    8844 00001186 DC94          SUBB      XAR4,#20              ; |3405| 
    8845 00001187 7640'         LCR       #_follow_path         ; |3405| 
         00001188 0722 
    8846                      ; call occurs [#_follow_path] ; |3405| 
    8847 00001189 9645          MOV       *-SP[5],AL            ; |3405| 
    8848                      .dwpsn  "ff.c",3406,3
    8849 0000118a 5200          CMPB      AL,#0                 ; |3406| 
    8850 0000118b ED0B          BF        L296,NEQ              ; |3406| 
    8851                      ; branchcc occurs ; |3406| 
    8852                      .dwpsn  "ff.c",3408,4
    8853 0000118c 064A          MOVL      ACC,*-SP[10]          ; |3408| 
    8854 0000118d EC07          BF        L295,EQ               ; |3408| 
    8855                      ; branchcc occurs ; |3408| 
    8856                      .dwpsn  "ff.c",3409,5
    8857 0000118e 5CAD          MOVZ      AR4,SP                ; |3409| 
    8858 0000118f 8344          MOVL      XAR5,*-SP[4]          ; |3409| 
    8859 00001190 DC94          SUBB      XAR4,#20              ; |3409| 
    8860 00001191 7640'         LCR       #_get_fileinfo        ; |3409| 
         00001192 0698 
    8861                      ; call occurs [#_get_fileinfo] ; |3409| 
    8862 00001193 6F03          B         L296,UNC              ; |3409| 
    8863                      ; branch occurs ; |3409| 
    8864              L295:    
TMS320C2000 COFF Assembler PC v4.1.3 Thu May 05 10:06:00 2011

Tools Copyright (c) 1996-2006 Texas Instruments Incorporated
C:\DOCUME~1\ADMINI~1\LOCALS~1\Temp\TI1122                            PAGE  171

    8865                      .dwpsn  "ff.c",3411,5
    8866 00001194 2845          MOV       *-SP[5],#6            ; |3411| 
         00001195 0006 
    8867              L296:    
    8868                      .dwpsn  "ff.c",3416,2
    8869 00001196 8A54          MOVL      XAR4,*-SP[20]         ; |3416| 
    8870 00001197 9245          MOV       AL,*-SP[5]            ; |3416| 
    8871 00001198 7640'         LCR       #_unlock_fs           ; |3416| 
         00001199 0064 
    8872                      ; call occurs [#_unlock_fs] ; |3416| 
    8873 0000119a 9245          MOV       AL,*-SP[5]            ; |3416| 
    8874                      .dwpsn  "ff.c",3417,1
    8875 0000119b FEA0          SUBB      SP,#32                ; |3416| 
    8876                      .dwcfa  0x1d, -2
    8877 0000119c 0006          LRETR
    8878                      ; return occurs
    8879                      .dwattr DW$482, DW_AT_end_file("ff.c")
    8880                      .dwattr DW$482, DW_AT_end_line(0xd59)
    8881                      .dwattr DW$482, DW_AT_end_column(0x01)
    8882                      .dwendentry
    8883                      .dwendtag DW$482
    8884              
    8885 0000119d               .sect   ".text"
    8886                      .global _f_getfree
    8887              
    8888              DW$490  .dwtag  DW_TAG_subprogram, DW_AT_name("f_getfree"), DW_AT_symbol_name("_f_getfree")
    8889                      .dwattr DW$490, DW_AT_low_pc(_f_getfree)
    8890                      .dwattr DW$490, DW_AT_high_pc(0x00)
    8891                      .dwattr DW$490, DW_AT_begin_file("ff.c")
    8892                      .dwattr DW$490, DW_AT_begin_line(0xd62)
    8893                      .dwattr DW$490, DW_AT_begin_column(0x09)
    8894                      .dwpsn  "ff.c",3431,1
    8895              
    8896                      .dwfde DW$CIE
    8897              
    8898              ;***************************************************************
    8899              ;* FNAME: _f_getfree                    FR SIZE:  20           *
    8900              ;*                                                             *
    8901              ;* FUNCTION ENVIRONMENT                                        *
    8902              ;*                                                             *
    8903              ;* FUNCTION PROPERTIES                                         *
    8904              ;*                            0 Parameter, 20 Auto,  0 SOE     *
    8905              ;***************************************************************
    8906              
    8907              _f_getfree:
    8908                      .dwcfa  0x1d, -2
    8909                      .dwcfa  0x1c, 26, 0
    8910                      .dwcfa  0x09, 40, 26
    8911 0000119d FE14          ADDB      SP,#20
    8912                      .dwcfa  0x1d, -22
    8913              ;* AR4   assigned to _path
    8914              DW$491  .dwtag  DW_TAG_formal_parameter, DW_AT_name("path"), DW_AT_symbol_name("_path")
    8915                      .dwattr DW$491, DW_AT_type(*DW$T$93)
    8916                      .dwattr DW$491, DW_AT_location[DW_OP_reg12]
    8917              ;* AR5   assigned to _nclst
TMS320C2000 COFF Assembler PC v4.1.3 Thu May 05 10:06:00 2011

Tools Copyright (c) 1996-2006 Texas Instruments Incorporated
C:\DOCUME~1\ADMINI~1\LOCALS~1\Temp\TI1122                            PAGE  172

    8918              DW$492  .dwtag  DW_TAG_formal_parameter, DW_AT_name("nclst"), DW_AT_symbol_name("_nclst")
    8919                      .dwattr DW$492, DW_AT_type(*DW$T$105)
    8920                      .dwattr DW$492, DW_AT_location[DW_OP_reg14]
    8921              DW$493  .dwtag  DW_TAG_formal_parameter, DW_AT_name("fatfs"), DW_AT_symbol_name("_fatfs")
    8922                      .dwattr DW$493, DW_AT_type(*DW$T$126)
    8923                      .dwattr DW$493, DW_AT_location[DW_OP_breg20 -24]
    8924              DW$494  .dwtag  DW_TAG_variable, DW_AT_name("path"), DW_AT_symbol_name("_path")
    8925                      .dwattr DW$494, DW_AT_type(*DW$T$93)
    8926                      .dwattr DW$494, DW_AT_location[DW_OP_breg20 -2]
    8927              DW$495  .dwtag  DW_TAG_variable, DW_AT_name("nclst"), DW_AT_symbol_name("_nclst")
    8928                      .dwattr DW$495, DW_AT_type(*DW$T$105)
    8929                      .dwattr DW$495, DW_AT_location[DW_OP_breg20 -4]
    8930              DW$496  .dwtag  DW_TAG_variable, DW_AT_name("res"), DW_AT_symbol_name("_res")
    8931                      .dwattr DW$496, DW_AT_type(*DW$T$49)
    8932                      .dwattr DW$496, DW_AT_location[DW_OP_breg20 -5]
    8933              DW$497  .dwtag  DW_TAG_variable, DW_AT_name("n"), DW_AT_symbol_name("_n")
    8934                      .dwattr DW$497, DW_AT_type(*DW$T$27)
    8935                      .dwattr DW$497, DW_AT_location[DW_OP_breg20 -8]
    8936              DW$498  .dwtag  DW_TAG_variable, DW_AT_name("clst"), DW_AT_symbol_name("_clst")
    8937                      .dwattr DW$498, DW_AT_type(*DW$T$27)
    8938                      .dwattr DW$498, DW_AT_location[DW_OP_breg20 -10]
    8939              DW$499  .dwtag  DW_TAG_variable, DW_AT_name("sect"), DW_AT_symbol_name("_sect")
    8940                      .dwattr DW$499, DW_AT_type(*DW$T$27)
    8941                      .dwattr DW$499, DW_AT_location[DW_OP_breg20 -12]
    8942              DW$500  .dwtag  DW_TAG_variable, DW_AT_name("stat"), DW_AT_symbol_name("_stat")
    8943                      .dwattr DW$500, DW_AT_type(*DW$T$27)
    8944                      .dwattr DW$500, DW_AT_location[DW_OP_breg20 -14]
    8945              DW$501  .dwtag  DW_TAG_variable, DW_AT_name("i"), DW_AT_symbol_name("_i")
    8946                      .dwattr DW$501, DW_AT_type(*DW$T$43)
    8947                      .dwattr DW$501, DW_AT_location[DW_OP_breg20 -15]
    8948              DW$502  .dwtag  DW_TAG_variable, DW_AT_name("fat"), DW_AT_symbol_name("_fat")
    8949                      .dwattr DW$502, DW_AT_type(*DW$T$23)
    8950                      .dwattr DW$502, DW_AT_location[DW_OP_breg20 -16]
    8951              DW$503  .dwtag  DW_TAG_variable, DW_AT_name("p"), DW_AT_symbol_name("_p")
    8952                      .dwattr DW$503, DW_AT_type(*DW$T$32)
    8953                      .dwattr DW$503, DW_AT_location[DW_OP_breg20 -18]
    8954 0000119e A044          MOVL      *-SP[4],XAR5          ; |3431| 
    8955 0000119f A842          MOVL      *-SP[2],XAR4          ; |3431| 
    8956                      .dwpsn  "ff.c",3439,2
    8957 000011a0 5CAD          MOVZ      AR4,SP                ; |3439| 
    8958 000011a1 8358          MOVL      XAR5,*-SP[24]         ; |3439| 
    8959 000011a2 9A00          MOVB      AL,#0
    8960 000011a3 DC82          SUBB      XAR4,#2               ; |3439| 
    8961 000011a4 7640'         LCR       #_chk_mounted         ; |3439| 
         000011a5 07FC 
    8962                      ; call occurs [#_chk_mounted] ; |3439| 
    8963 000011a6 9645          MOV       *-SP[5],AL            ; |3439| 
    8964                      .dwpsn  "ff.c",3440,2
    8965 000011a7 5200          CMPB      AL,#0                 ; |3440| 
    8966 000011a8 56C0          BF        L311,NEQ              ; |3440| 
         000011a9 00AE 
    8967                      ; branchcc occurs ; |3440| 
    8968                      .dwpsn  "ff.c",3443,3
    8969 000011aa 8A58          MOVL      XAR4,*-SP[24]         ; |3443| 
    8970 000011ab 8AC4          MOVL      XAR4,*+XAR4[0]        ; |3443| 
TMS320C2000 COFF Assembler PC v4.1.3 Thu May 05 10:06:00 2011

Tools Copyright (c) 1996-2006 Texas Instruments Incorporated
C:\DOCUME~1\ADMINI~1\LOCALS~1\Temp\TI1122                            PAGE  173

    8971 000011ac D010          MOVB      XAR0,#16              ; |3443| 
    8972 000011ad 0694          MOVL      ACC,*+XAR4[AR0]       ; |3443| 
    8973 000011ae 8A58          MOVL      XAR4,*-SP[24]         ; |3443| 
    8974 000011af 8AC4          MOVL      XAR4,*+XAR4[0]        ; |3443| 
    8975 000011b0 D00C          MOVB      XAR0,#12              ; |3443| 
    8976 000011b1 1902          SUBB      ACC,#2                ; |3443| 
    8977 000011b2 0F94          CMPL      ACC,*+XAR4[AR0]       ; |3443| 
    8978 000011b3 6809          B         L297,LO               ; |3443| 
    8979                      ; branchcc occurs ; |3443| 
    8980                      .dwpsn  "ff.c",3445,4
    8981 000011b4 8A58          MOVL      XAR4,*-SP[24]         ; |3445| 
    8982 000011b5 8AC4          MOVL      XAR4,*+XAR4[0]        ; |3445| 
    8983 000011b6 D00C          MOVB      XAR0,#12              ; |3445| 
    8984 000011b7 0694          MOVL      ACC,*+XAR4[AR0]       ; |3445| 
    8985 000011b8 8A44          MOVL      XAR4,*-SP[4]          ; |3445| 
    8986 000011b9 1EC4          MOVL      *+XAR4[0],ACC         ; |3445| 
    8987                      .dwpsn  "ff.c",3446,3
    8988 000011ba FFEF          B         L311,UNC              ; |3446| 
         000011bb 009C 
    8989                      ; branch occurs ; |3446| 
    8990              L297:    
    8991                      .dwpsn  "ff.c",3450,4
    8992 000011bc 8A58          MOVL      XAR4,*-SP[24]         ; |3450| 
    8993 000011bd 8AC4          MOVL      XAR4,*+XAR4[0]        ; |3450| 
    8994 000011be 92C4          MOV       AL,*+XAR4[0]          ; |3450| 
    8995 000011bf 9650          MOV       *-SP[16],AL           ; |3450| 
    8996                      .dwpsn  "ff.c",3451,4
    8997 000011c0 0200          MOVB      ACC,#0
    8998 000011c1 1E48          MOVL      *-SP[8],ACC           ; |3451| 
    8999                      .dwpsn  "ff.c",3452,4
    9000 000011c2 9250          MOV       AL,*-SP[16]           ; |3452| 
    9001 000011c3 5201          CMPB      AL,#1                 ; |3452| 
    9002 000011c4 ED24          BF        L302,NEQ              ; |3452| 
    9003                      ; branchcc occurs ; |3452| 
    9004                      .dwpsn  "ff.c",3454,5
    9005 000011c5 0202          MOVB      ACC,#2
    9006 000011c6 1E4A          MOVL      *-SP[10],ACC          ; |3454| 
    9007              L298:    
    9008              DW$L$_f_getfree$6$B:
    9009                      .dwpsn  "ff.c",3457,6
    9010 000011c7 8A58          MOVL      XAR4,*-SP[24]         ; |3457| 
    9011 000011c8 8AC4          MOVL      XAR4,*+XAR4[0]        ; |3457| 
    9012 000011c9 064A          MOVL      ACC,*-SP[10]          ; |3457| 
    9013 000011ca 7640'         LCR       #_get_fat             ; |3457| 
         000011cb 0186 
    9014                      ; call occurs [#_get_fat] ; |3457| 
    9015 000011cc 1E4E          MOVL      *-SP[14],ACC          ; |3457| 
    9016                      .dwpsn  "ff.c",3458,6
    9017 000011cd 0200          MOVB      ACC,#0
    9018 000011ce 1901          SUBB      ACC,#1
    9019 000011cf 0F4E          CMPL      ACC,*-SP[14]          ; |3458| 
    9020 000011d0 ED04          BF        L299,NEQ              ; |3458| 
    9021                      ; branchcc occurs ; |3458| 
    9022              DW$L$_f_getfree$6$E:
    9023                      .dwpsn  "ff.c",3460,7
TMS320C2000 COFF Assembler PC v4.1.3 Thu May 05 10:06:00 2011

Tools Copyright (c) 1996-2006 Texas Instruments Incorporated
C:\DOCUME~1\ADMINI~1\LOCALS~1\Temp\TI1122                            PAGE  174

    9024 000011d1 2845          MOV       *-SP[5],#1            ; |3460| 
         000011d2 0001 
    9025                      .dwpsn  "ff.c",3461,7
    9026 000011d3 6F74          B         L309,UNC              ; |3461| 
    9027                      ; branch occurs ; |3461| 
    9028              L299:    
    9029              DW$L$_f_getfree$8$B:
    9030                      .dwpsn  "ff.c",3463,6
    9031 000011d4 0201          MOVB      ACC,#1
    9032 000011d5 0F4E          CMPL      ACC,*-SP[14]          ; |3463| 
    9033 000011d6 ED04          BF        L300,NEQ              ; |3463| 
    9034                      ; branchcc occurs ; |3463| 
    9035              DW$L$_f_getfree$8$E:
    9036                      .dwpsn  "ff.c",3465,7
    9037 000011d7 2845          MOV       *-SP[5],#2            ; |3465| 
         000011d8 0002 
    9038                      .dwpsn  "ff.c",3466,7
    9039 000011d9 6F6E          B         L309,UNC              ; |3466| 
    9040                      ; branch occurs ; |3466| 
    9041              L300:    
    9042              DW$L$_f_getfree$10$B:
    9043                      .dwpsn  "ff.c",3468,6
    9044 000011da 064E          MOVL      ACC,*-SP[14]          ; |3468| 
    9045 000011db ED04          BF        L301,NEQ              ; |3468| 
    9046                      ; branchcc occurs ; |3468| 
    9047              DW$L$_f_getfree$10$E:
    9048              DW$L$_f_getfree$11$B:
    9049                      .dwpsn  "ff.c",3468,23
    9050 000011dc 0201          MOVB      ACC,#1
    9051 000011dd 0748          ADDL      ACC,*-SP[8]           ; |3468| 
    9052 000011de 1E48          MOVL      *-SP[8],ACC           ; |3468| 
    9053              DW$L$_f_getfree$11$E:
    9054              L301:    
    9055              DW$L$_f_getfree$12$B:
    9056                      .dwpsn  "ff.c",3470,13
    9057 000011df 0201          MOVB      ACC,#1
    9058 000011e0 074A          ADDL      ACC,*-SP[10]          ; |3470| 
    9059 000011e1 1E4A          MOVL      *-SP[10],ACC          ; |3470| 
    9060 000011e2 8A58          MOVL      XAR4,*-SP[24]         ; |3470| 
    9061 000011e3 8AC4          MOVL      XAR4,*+XAR4[0]        ; |3470| 
    9062 000011e4 D010          MOVB      XAR0,#16              ; |3470| 
    9063 000011e5 0F94          CMPL      ACC,*+XAR4[AR0]       ; |3470| 
    9064 000011e6 68E1          B         L298,LO               ; |3470| 
    9065                      ; branchcc occurs ; |3470| 
    9066              DW$L$_f_getfree$12$E:
    9067                      .dwpsn  "ff.c",3471,4
    9068 000011e7 6F60          B         L309,UNC              ; |3471| 
    9069                      ; branch occurs ; |3471| 
    9070              L302:    
    9071                      .dwpsn  "ff.c",3474,5
    9072 000011e8 8A58          MOVL      XAR4,*-SP[24]         ; |3474| 
    9073 000011e9 8AC4          MOVL      XAR4,*+XAR4[0]        ; |3474| 
    9074 000011ea D010          MOVB      XAR0,#16              ; |3474| 
    9075 000011eb 0694          MOVL      ACC,*+XAR4[AR0]       ; |3474| 
    9076 000011ec 1E4A          MOVL      *-SP[10],ACC          ; |3474| 
TMS320C2000 COFF Assembler PC v4.1.3 Thu May 05 10:06:00 2011

Tools Copyright (c) 1996-2006 Texas Instruments Incorporated
C:\DOCUME~1\ADMINI~1\LOCALS~1\Temp\TI1122                            PAGE  175

    9077                      .dwpsn  "ff.c",3475,5
    9078 000011ed 8A58          MOVL      XAR4,*-SP[24]         ; |3475| 
    9079 000011ee 8AC4          MOVL      XAR4,*+XAR4[0]        ; |3475| 
    9080 000011ef D014          MOVB      XAR0,#20              ; |3475| 
    9081 000011f0 0694          MOVL      ACC,*+XAR4[AR0]       ; |3475| 
    9082 000011f1 1E4C          MOVL      *-SP[12],ACC          ; |3475| 
    9083                      .dwpsn  "ff.c",3476,5
    9084 000011f2 2B4F          MOV       *-SP[15],#0           ; |3476| 
    9085                      .dwpsn  "ff.c",3477,5
    9086 000011f3 0200          MOVB      ACC,#0
    9087 000011f4 1E52          MOVL      *-SP[18],ACC          ; |3477| 
    9088              L303:    
    9089              DW$L$_f_getfree$15$B:
    9090                      .dwpsn  "ff.c",3480,6
    9091 000011f5 924F          MOV       AL,*-SP[15]           ; |3480| 
    9092 000011f6 ED13          BF        L304,NEQ              ; |3480| 
    9093                      ; branchcc occurs ; |3480| 
    9094              DW$L$_f_getfree$15$E:
    9095              DW$L$_f_getfree$16$B:
    9096                      .dwpsn  "ff.c",3482,7
    9097 000011f7 8A58          MOVL      XAR4,*-SP[24]         ; |3482| 
    9098 000011f8 C44C          MOVL      XAR6,*-SP[12]         ; |3482| 
    9099 000011f9 0201          MOVB      ACC,#1
    9100 000011fa 8AC4          MOVL      XAR4,*+XAR4[0]        ; |3482| 
    9101 000011fb 07A6          ADDL      ACC,XAR6
    9102 000011fc 1E4C          MOVL      *-SP[12],ACC          ; |3482| 
    9103 000011fd 06A6          MOVL      ACC,XAR6              ; |3482| 
    9104 000011fe 7640'         LCR       #_move_window         ; |3482| 
         000011ff 0077 
    9105                      ; call occurs [#_move_window] ; |3482| 
    9106 00001200 9645          MOV       *-SP[5],AL            ; |3482| 
    9107                      .dwpsn  "ff.c",3483,7
    9108 00001201 5200          CMPB      AL,#0                 ; |3483| 
    9109 00001202 ED45          BF        L309,NEQ              ; |3483| 
    9110                      ; branchcc occurs ; |3483| 
    9111              DW$L$_f_getfree$16$E:
    9112              DW$L$_f_getfree$17$B:
    9113                      .dwpsn  "ff.c",3483,27
    9114                      .dwpsn  "ff.c",3484,7
    9115 00001203 8A58          MOVL      XAR4,*-SP[24]         ; |3484| 
    9116 00001204 06C4          MOVL      ACC,*+XAR4[0]         ; |3484| 
    9117 00001205 091C          ADDB      ACC,#28               ; |3484| 
    9118 00001206 1E52          MOVL      *-SP[18],ACC          ; |3484| 
    9119                      .dwpsn  "ff.c",3485,7
    9120 00001207 284F          MOV       *-SP[15],#512         ; |3485| 
         00001208 0200 
    9121              DW$L$_f_getfree$17$E:
    9122              L304:    
    9123              DW$L$_f_getfree$18$B:
    9124                      .dwpsn  "ff.c",3487,6
    9125 00001209 9250          MOV       AL,*-SP[16]           ; |3487| 
    9126 0000120a 5202          CMPB      AL,#2                 ; |3487| 
    9127 0000120b ED10          BF        L306,NEQ              ; |3487| 
    9128                      ; branchcc occurs ; |3487| 
    9129              DW$L$_f_getfree$18$E:
TMS320C2000 COFF Assembler PC v4.1.3 Thu May 05 10:06:00 2011

Tools Copyright (c) 1996-2006 Texas Instruments Incorporated
C:\DOCUME~1\ADMINI~1\LOCALS~1\Temp\TI1122                            PAGE  176

    9130              DW$L$_f_getfree$19$B:
    9131                      .dwpsn  "ff.c",3489,7
    9132 0000120c 8352          MOVL      XAR5,*-SP[18]         ; |3489| 
    9133 0000120d 8A52          MOVL      XAR4,*-SP[18]         ; |3489| 
    9134 0000120e 5603          MOV       ACC,*+XAR5[1] << #8   ; |3489| 
         0000120f 08CD 
    9135 00001210 CAC4          OR        AL,*+XAR4[0]          ; |3489| 
    9136 00001211 ED04          BF        L305,NEQ              ; |3489| 
    9137                      ; branchcc occurs ; |3489| 
    9138              DW$L$_f_getfree$19$E:
    9139              DW$L$_f_getfree$20$B:
    9140                      .dwpsn  "ff.c",3489,32
    9141 00001212 0201          MOVB      ACC,#1
    9142 00001213 0748          ADDL      ACC,*-SP[8]           ; |3489| 
    9143 00001214 1E48          MOVL      *-SP[8],ACC           ; |3489| 
    9144              DW$L$_f_getfree$20$E:
    9145              L305:    
    9146              DW$L$_f_getfree$21$B:
    9147                      .dwpsn  "ff.c",3490,7
    9148 00001215 0202          MOVB      ACC,#2
    9149 00001216 5601          ADDL      *-SP[18],ACC          ; |3490| 
         00001217 0052 
    9150                      .dwpsn  "ff.c",3491,7
    9151 00001218 9A02          MOVB      AL,#2                 ; |3491| 
    9152 00001219 744F          SUB       *-SP[15],AL           ; |3491| 
    9153                      .dwpsn  "ff.c",3492,6
    9154 0000121a 6F29          B         L308,UNC              ; |3492| 
    9155                      ; branch occurs ; |3492| 
    9156              DW$L$_f_getfree$21$E:
    9157              L306:    
    9158              DW$L$_f_getfree$22$B:
    9159                      .dwpsn  "ff.c",3495,7
    9160 0000121b 8A52          MOVL      XAR4,*-SP[18]         ; |3495| 
    9161 0000121c 28AC          MOV       T,#24                 ; |3495| 
         0000121d 0018 
    9162 0000121e 0EDC          MOVU      ACC,*+XAR4[3]
    9163 0000121f 1E54          MOVL      *-SP[20],ACC          ; |3495| 
    9164 00001220 8A52          MOVL      XAR4,*-SP[18]         ; |3495| 
    9165 00001221 2901          CLRC      SXM
    9166 00001222 563B          LSLL      ACC,T                 ; |3495| 
    9167 00001223 1E54          MOVL      *-SP[20],ACC          ; |3495| 
    9168 00001224 25D4          MOV       ACC,*+XAR4[2] << 16   ; |3495| 
    9169 00001225 27A9          MOV       PL,AL                 ; |3495| 
    9170 00001226 9254          MOV       AL,*-SP[20]           ; |3495| 
    9171 00001227 CAAB          OR        AL,PL                 ; |3495| 
    9172 00001228 9654          MOV       *-SP[20],AL           ; |3495| 
    9173 00001229 27A8          MOV       PL,AH                 ; |3495| 
    9174 0000122a 8A52          MOVL      XAR4,*-SP[18]         ; |3495| 
    9175 0000122b 9253          MOV       AL,*-SP[19]           ; |3495| 
    9176 0000122c CAAB          OR        AL,PL                 ; |3495| 
    9177 0000122d 9653          MOV       *-SP[19],AL           ; |3495| 
    9178 0000122e 5603          MOV       ACC,*+XAR4[1] << #8   ; |3495| 
         0000122f 08CC 
    9179 00001230 88A9          MOVZ      AR6,AL                ; |3495| 
    9180 00001231 8A52          MOVL      XAR4,*-SP[18]         ; |3495| 
TMS320C2000 COFF Assembler PC v4.1.3 Thu May 05 10:06:00 2011

Tools Copyright (c) 1996-2006 Texas Instruments Incorporated
C:\DOCUME~1\ADMINI~1\LOCALS~1\Temp\TI1122                            PAGE  177

    9181 00001232 0654          MOVL      ACC,*-SP[20]          ; |3495| 
    9182 00001233 AFA6          OR        ACC,AR6               ; |3495| 
    9183 00001234 1E54          MOVL      *-SP[20],ACC          ; |3495| 
    9184 00001235 AFC4          OR        ACC,*+XAR4[0]         ; |3495| 
    9185 00001236 1E54          MOVL      *-SP[20],ACC          ; |3495| 
    9186 00001237 1853          AND       *-SP[19],#4095        ; |3495| 
         00001238 0FFF 
    9187 00001239 0654          MOVL      ACC,*-SP[20]          ; |3495| 
    9188 0000123a ED04          BF        L307,NEQ              ; |3495| 
    9189                      ; branchcc occurs ; |3495| 
    9190              DW$L$_f_getfree$22$E:
    9191              DW$L$_f_getfree$23$B:
    9192                      .dwpsn  "ff.c",3495,49
    9193 0000123b 0201          MOVB      ACC,#1
    9194 0000123c 0748          ADDL      ACC,*-SP[8]           ; |3495| 
    9195 0000123d 1E48          MOVL      *-SP[8],ACC           ; |3495| 
    9196              DW$L$_f_getfree$23$E:
    9197              L307:    
    9198              DW$L$_f_getfree$24$B:
    9199                      .dwpsn  "ff.c",3496,7
    9200 0000123e 0204          MOVB      ACC,#4
    9201 0000123f 5601          ADDL      *-SP[18],ACC          ; |3496| 
         00001240 0052 
    9202                      .dwpsn  "ff.c",3497,7
    9203 00001241 9A04          MOVB      AL,#4                 ; |3497| 
    9204 00001242 744F          SUB       *-SP[15],AL           ; |3497| 
    9205              DW$L$_f_getfree$24$E:
    9206              L308:    
    9207              DW$L$_f_getfree$25$B:
    9208                      .dwpsn  "ff.c",3499,5
    9209 00001243 064A          MOVL      ACC,*-SP[10]          ; |3499| 
    9210 00001244 1901          SUBB      ACC,#1                ; |3499| 
    9211 00001245 1E4A          MOVL      *-SP[10],ACC          ; |3499| 
    9212 00001246 EDAF          BF        L303,NEQ              ; |3499| 
    9213                      ; branchcc occurs ; |3499| 
    9214              DW$L$_f_getfree$25$E:
    9215              L309:    
    9216                      .dwpsn  "ff.c",3502,4
    9217 00001247 8A58          MOVL      XAR4,*-SP[24]         ; |3502| 
    9218 00001248 8AC4          MOVL      XAR4,*+XAR4[0]        ; |3502| 
    9219 00001249 0648          MOVL      ACC,*-SP[8]           ; |3502| 
    9220 0000124a D00C          MOVB      XAR0,#12              ; |3502| 
    9221 0000124b 1E94          MOVL      *+XAR4[AR0],ACC       ; |3502| 
    9222                      .dwpsn  "ff.c",3503,4
    9223 0000124c 9250          MOV       AL,*-SP[16]           ; |3503| 
    9224 0000124d 5203          CMPB      AL,#3                 ; |3503| 
    9225 0000124e ED05          BF        L310,NEQ              ; |3503| 
    9226                      ; branchcc occurs ; |3503| 
    9227                      .dwpsn  "ff.c",3503,26
    9228 0000124f 8A58          MOVL      XAR4,*-SP[24]         ; |3503| 
    9229 00001250 8AC4          MOVL      XAR4,*+XAR4[0]        ; |3503| 
    9230 00001251 28EC          MOV       *+XAR4[5],#1          ; |3503| 
         00001252 0001 
    9231              L310:    
    9232                      .dwpsn  "ff.c",3504,4
TMS320C2000 COFF Assembler PC v4.1.3 Thu May 05 10:06:00 2011

Tools Copyright (c) 1996-2006 Texas Instruments Incorporated
C:\DOCUME~1\ADMINI~1\LOCALS~1\Temp\TI1122                            PAGE  178

    9233 00001253 8A44          MOVL      XAR4,*-SP[4]          ; |3504| 
    9234 00001254 0648          MOVL      ACC,*-SP[8]           ; |3504| 
    9235 00001255 1EC4          MOVL      *+XAR4[0],ACC         ; |3504| 
    9236              L311:    
    9237                      .dwpsn  "ff.c",3507,2
    9238 00001256 8A58          MOVL      XAR4,*-SP[24]         ; |3507| 
    9239 00001257 8AC4          MOVL      XAR4,*+XAR4[0]        ; |3507| 
    9240 00001258 9245          MOV       AL,*-SP[5]            ; |3507| 
    9241 00001259 7640'         LCR       #_unlock_fs           ; |3507| 
         0000125a 0064 
    9242                      ; call occurs [#_unlock_fs] ; |3507| 
    9243 0000125b 9245          MOV       AL,*-SP[5]            ; |3507| 
    9244                      .dwpsn  "ff.c",3508,1
    9245 0000125c FE94          SUBB      SP,#20                ; |3507| 
    9246                      .dwcfa  0x1d, -2
    9247 0000125d 0006          LRETR
    9248                      ; return occurs
    9249              
    9250              DW$504  .dwtag  DW_TAG_loop
    9251                      .dwattr DW$504, DW_AT_name("C:\DOCUME~1\ADMINI~1\LOCALS~1\Temp\TI1122:L303:1:1304561157")
    9252                      .dwattr DW$504, DW_AT_begin_file("ff.c")
    9253                      .dwattr DW$504, DW_AT_begin_line(0xd96)
    9254                      .dwattr DW$504, DW_AT_end_line(0xdab)
    9255              DW$505  .dwtag  DW_TAG_loop_range
    9256                      .dwattr DW$505, DW_AT_low_pc(DW$L$_f_getfree$15$B)
    9257                      .dwattr DW$505, DW_AT_high_pc(DW$L$_f_getfree$15$E)
    9258              DW$506  .dwtag  DW_TAG_loop_range
    9259                      .dwattr DW$506, DW_AT_low_pc(DW$L$_f_getfree$22$B)
    9260                      .dwattr DW$506, DW_AT_high_pc(DW$L$_f_getfree$22$E)
    9261              DW$507  .dwtag  DW_TAG_loop_range
    9262                      .dwattr DW$507, DW_AT_low_pc(DW$L$_f_getfree$23$B)
    9263                      .dwattr DW$507, DW_AT_high_pc(DW$L$_f_getfree$23$E)
    9264              DW$508  .dwtag  DW_TAG_loop_range
    9265                      .dwattr DW$508, DW_AT_low_pc(DW$L$_f_getfree$16$B)
    9266                      .dwattr DW$508, DW_AT_high_pc(DW$L$_f_getfree$16$E)
    9267              DW$509  .dwtag  DW_TAG_loop_range
    9268                      .dwattr DW$509, DW_AT_low_pc(DW$L$_f_getfree$17$B)
    9269                      .dwattr DW$509, DW_AT_high_pc(DW$L$_f_getfree$17$E)
    9270              DW$510  .dwtag  DW_TAG_loop_range
    9271                      .dwattr DW$510, DW_AT_low_pc(DW$L$_f_getfree$18$B)
    9272                      .dwattr DW$510, DW_AT_high_pc(DW$L$_f_getfree$18$E)
    9273              DW$511  .dwtag  DW_TAG_loop_range
    9274                      .dwattr DW$511, DW_AT_low_pc(DW$L$_f_getfree$19$B)
    9275                      .dwattr DW$511, DW_AT_high_pc(DW$L$_f_getfree$19$E)
    9276              DW$512  .dwtag  DW_TAG_loop_range
    9277                      .dwattr DW$512, DW_AT_low_pc(DW$L$_f_getfree$20$B)
    9278                      .dwattr DW$512, DW_AT_high_pc(DW$L$_f_getfree$20$E)
    9279              DW$513  .dwtag  DW_TAG_loop_range
    9280                      .dwattr DW$513, DW_AT_low_pc(DW$L$_f_getfree$21$B)
    9281                      .dwattr DW$513, DW_AT_high_pc(DW$L$_f_getfree$21$E)
    9282              DW$514  .dwtag  DW_TAG_loop_range
    9283                      .dwattr DW$514, DW_AT_low_pc(DW$L$_f_getfree$24$B)
    9284                      .dwattr DW$514, DW_AT_high_pc(DW$L$_f_getfree$24$E)
    9285              DW$515  .dwtag  DW_TAG_loop_range
    9286                      .dwattr DW$515, DW_AT_low_pc(DW$L$_f_getfree$25$B)
TMS320C2000 COFF Assembler PC v4.1.3 Thu May 05 10:06:00 2011

Tools Copyright (c) 1996-2006 Texas Instruments Incorporated
C:\DOCUME~1\ADMINI~1\LOCALS~1\Temp\TI1122                            PAGE  179

    9287                      .dwattr DW$515, DW_AT_high_pc(DW$L$_f_getfree$25$E)
    9288                      .dwendtag DW$504
    9289              
    9290              
    9291              DW$516  .dwtag  DW_TAG_loop
    9292                      .dwattr DW$516, DW_AT_name("C:\DOCUME~1\ADMINI~1\LOCALS~1\Temp\TI1122:L298:1:1304561157")
    9293                      .dwattr DW$516, DW_AT_begin_file("ff.c")
    9294                      .dwattr DW$516, DW_AT_begin_line(0xd7f)
    9295                      .dwattr DW$516, DW_AT_end_line(0xd8e)
    9296              DW$517  .dwtag  DW_TAG_loop_range
    9297                      .dwattr DW$517, DW_AT_low_pc(DW$L$_f_getfree$6$B)
    9298                      .dwattr DW$517, DW_AT_high_pc(DW$L$_f_getfree$6$E)
    9299              DW$518  .dwtag  DW_TAG_loop_range
    9300                      .dwattr DW$518, DW_AT_low_pc(DW$L$_f_getfree$8$B)
    9301                      .dwattr DW$518, DW_AT_high_pc(DW$L$_f_getfree$8$E)
    9302              DW$519  .dwtag  DW_TAG_loop_range
    9303                      .dwattr DW$519, DW_AT_low_pc(DW$L$_f_getfree$10$B)
    9304                      .dwattr DW$519, DW_AT_high_pc(DW$L$_f_getfree$10$E)
    9305              DW$520  .dwtag  DW_TAG_loop_range
    9306                      .dwattr DW$520, DW_AT_low_pc(DW$L$_f_getfree$11$B)
    9307                      .dwattr DW$520, DW_AT_high_pc(DW$L$_f_getfree$11$E)
    9308              DW$521  .dwtag  DW_TAG_loop_range
    9309                      .dwattr DW$521, DW_AT_low_pc(DW$L$_f_getfree$12$B)
    9310                      .dwattr DW$521, DW_AT_high_pc(DW$L$_f_getfree$12$E)
    9311                      .dwendtag DW$516
    9312              
    9313                      .dwattr DW$490, DW_AT_end_file("ff.c")
    9314                      .dwattr DW$490, DW_AT_end_line(0xdb4)
    9315                      .dwattr DW$490, DW_AT_end_column(0x01)
    9316                      .dwendentry
    9317                      .dwendtag DW$490
    9318              
    9319 0000125e               .sect   ".text"
    9320                      .global _f_truncate
    9321              
    9322              DW$522  .dwtag  DW_TAG_subprogram, DW_AT_name("f_truncate"), DW_AT_symbol_name("_f_truncate")
    9323                      .dwattr DW$522, DW_AT_low_pc(_f_truncate)
    9324                      .dwattr DW$522, DW_AT_high_pc(0x00)
    9325                      .dwattr DW$522, DW_AT_begin_file("ff.c")
    9326                      .dwattr DW$522, DW_AT_begin_line(0xdbd)
    9327                      .dwattr DW$522, DW_AT_begin_column(0x09)
    9328                      .dwpsn  "ff.c",3520,1
    9329              
    9330                      .dwfde DW$CIE
    9331              
    9332              ;***************************************************************
    9333              ;* FNAME: _f_truncate                   FR SIZE:   8           *
    9334              ;*                                                             *
    9335              ;* FUNCTION ENVIRONMENT                                        *
    9336              ;*                                                             *
    9337              ;* FUNCTION PROPERTIES                                         *
    9338              ;*                            2 Parameter,  6 Auto,  0 SOE     *
    9339              ;***************************************************************
    9340              
    9341              _f_truncate:
TMS320C2000 COFF Assembler PC v4.1.3 Thu May 05 10:06:00 2011

Tools Copyright (c) 1996-2006 Texas Instruments Incorporated
C:\DOCUME~1\ADMINI~1\LOCALS~1\Temp\TI1122                            PAGE  180

    9342                      .dwcfa  0x1d, -2
    9343                      .dwcfa  0x1c, 26, 0
    9344                      .dwcfa  0x09, 40, 26
    9345 0000125e FE08          ADDB      SP,#8
    9346                      .dwcfa  0x1d, -10
    9347              ;* AR4   assigned to _fp
    9348              DW$523  .dwtag  DW_TAG_formal_parameter, DW_AT_name("fp"), DW_AT_symbol_name("_fp")
    9349                      .dwattr DW$523, DW_AT_type(*DW$T$89)
    9350                      .dwattr DW$523, DW_AT_location[DW_OP_reg12]
    9351              DW$524  .dwtag  DW_TAG_variable, DW_AT_name("fp"), DW_AT_symbol_name("_fp")
    9352                      .dwattr DW$524, DW_AT_type(*DW$T$89)
    9353                      .dwattr DW$524, DW_AT_location[DW_OP_breg20 -4]
    9354              DW$525  .dwtag  DW_TAG_variable, DW_AT_name("res"), DW_AT_symbol_name("_res")
    9355                      .dwattr DW$525, DW_AT_type(*DW$T$49)
    9356                      .dwattr DW$525, DW_AT_location[DW_OP_breg20 -5]
    9357              DW$526  .dwtag  DW_TAG_variable, DW_AT_name("ncl"), DW_AT_symbol_name("_ncl")
    9358                      .dwattr DW$526, DW_AT_type(*DW$T$27)
    9359                      .dwattr DW$526, DW_AT_location[DW_OP_breg20 -8]
    9360 0000125f A844          MOVL      *-SP[4],XAR4          ; |3520| 
    9361                      .dwpsn  "ff.c",3525,2
    9362 00001260 8A44          MOVL      XAR4,*-SP[4]          ; |3525| 
    9363 00001261 8344          MOVL      XAR5,*-SP[4]          ; |3525| 
    9364 00001262 8AC4          MOVL      XAR4,*+XAR4[0]        ; |3525| 
    9365 00001263 92D5          MOV       AL,*+XAR5[2]          ; |3525| 
    9366 00001264 7640'         LCR       #_validate            ; |3525| 
         00001265 0AC3 
    9367                      ; call occurs [#_validate] ; |3525| 
    9368 00001266 9645          MOV       *-SP[5],AL            ; |3525| 
    9369                      .dwpsn  "ff.c",3526,2
    9370 00001267 5200          CMPB      AL,#0                 ; |3526| 
    9371 00001268 ED0C          BF        L313,NEQ              ; |3526| 
    9372                      ; branchcc occurs ; |3526| 
    9373                      .dwpsn  "ff.c",3528,3
    9374 00001269 8A44          MOVL      XAR4,*-SP[4]          ; |3528| 
    9375 0000126a 47DC          TBIT      *+XAR4[3],#7          ; |3528| 
    9376 0000126b EF04          BF        L312,NTC              ; |3528| 
    9377                      ; branchcc occurs ; |3528| 
    9378                      .dwpsn  "ff.c",3530,4
    9379 0000126c 9A02          MOVB      AL,#2                 ; |3530| 
    9380 0000126d 9645          MOV       *-SP[5],AL            ; |3530| 
    9381                      .dwpsn  "ff.c",3531,3
    9382 0000126e 6F06          B         L313,UNC              ; |3531| 
    9383                      ; branch occurs ; |3531| 
    9384              L312:    
    9385                      .dwpsn  "ff.c",3534,4
    9386 0000126f 8A44          MOVL      XAR4,*-SP[4]          ; |3534| 
    9387 00001270 41DC          TBIT      *+XAR4[3],#1          ; |3534| 
    9388 00001271 EE03          BF        L313,TC               ; |3534| 
    9389                      ; branchcc occurs ; |3534| 
    9390                      .dwpsn  "ff.c",3535,5
    9391 00001272 9A07          MOVB      AL,#7                 ; |3535| 
    9392 00001273 9645          MOV       *-SP[5],AL            ; |3535| 
    9393              L313:    
    9394                      .dwpsn  "ff.c",3538,2
    9395 00001274 5200          CMPB      AL,#0                 ; |3538| 
TMS320C2000 COFF Assembler PC v4.1.3 Thu May 05 10:06:00 2011

Tools Copyright (c) 1996-2006 Texas Instruments Incorporated
C:\DOCUME~1\ADMINI~1\LOCALS~1\Temp\TI1122                            PAGE  181

    9396 00001275 ED54          BF        L318,NEQ              ; |3538| 
    9397                      ; branchcc occurs ; |3538| 
    9398                      .dwpsn  "ff.c",3540,3
    9399 00001276 8A44          MOVL      XAR4,*-SP[4]          ; |3540| 
    9400 00001277 8344          MOVL      XAR5,*-SP[4]          ; |3540| 
    9401 00001278 D008          MOVB      XAR0,#8               ; |3540| 
    9402 00001279 06F4          MOVL      ACC,*+XAR4[6]         ; |3540| 
    9403 0000127a 0F95          CMPL      ACC,*+XAR5[AR0]       ; |3540| 
    9404 0000127b 6749          B         L317,HIS              ; |3540| 
    9405                      ; branchcc occurs ; |3540| 
    9406                      .dwpsn  "ff.c",3542,4
    9407 0000127c 8A44          MOVL      XAR4,*-SP[4]          ; |3542| 
    9408 0000127d 8344          MOVL      XAR5,*-SP[4]          ; |3542| 
    9409 0000127e 06F4          MOVL      ACC,*+XAR4[6]         ; |3542| 
    9410 0000127f 1E95          MOVL      *+XAR5[AR0],ACC       ; |3542| 
    9411                      .dwpsn  "ff.c",3543,4
    9412 00001280 8A44          MOVL      XAR4,*-SP[4]          ; |3543| 
    9413 00001281 1ADC          OR        *+XAR4[3],#0x0020     ; |3543| 
         00001282 0020 
    9414                      .dwpsn  "ff.c",3544,4
    9415 00001283 8A44          MOVL      XAR4,*-SP[4]          ; |3544| 
    9416 00001284 06F4          MOVL      ACC,*+XAR4[6]         ; |3544| 
    9417 00001285 ED0E          BF        L314,NEQ              ; |3544| 
    9418                      ; branchcc occurs ; |3544| 
    9419                      .dwpsn  "ff.c",3546,5
    9420 00001286 8A44          MOVL      XAR4,*-SP[4]          ; |3546| 
    9421 00001287 8344          MOVL      XAR5,*-SP[4]          ; |3546| 
    9422 00001288 8AC4          MOVL      XAR4,*+XAR4[0]        ; |3546| 
    9423 00001289 D00A          MOVB      XAR0,#10              ; |3546| 
    9424 0000128a 0695          MOVL      ACC,*+XAR5[AR0]       ; |3546| 
    9425 0000128b 7640'         LCR       #_remove_chain        ; |3546| 
         0000128c 0316 
    9426                      ; call occurs [#_remove_chain] ; |3546| 
    9427 0000128d 9645          MOV       *-SP[5],AL            ; |3546| 
    9428                      .dwpsn  "ff.c",3547,5
    9429 0000128e 8A44          MOVL      XAR4,*-SP[4]          ; |3547| 
    9430 0000128f D00A          MOVB      XAR0,#10              ; |3547| 
    9431 00001290 0200          MOVB      ACC,#0
    9432 00001291 1E94          MOVL      *+XAR4[AR0],ACC       ; |3547| 
    9433                      .dwpsn  "ff.c",3548,4
    9434 00001292 6F32          B         L317,UNC              ; |3548| 
    9435                      ; branch occurs ; |3548| 
    9436              L314:    
    9437                      .dwpsn  "ff.c",3551,5
    9438 00001293 8A44          MOVL      XAR4,*-SP[4]          ; |3551| 
    9439 00001294 8344          MOVL      XAR5,*-SP[4]          ; |3551| 
    9440 00001295 8AC4          MOVL      XAR4,*+XAR4[0]        ; |3551| 
    9441 00001296 D00C          MOVB      XAR0,#12              ; |3551| 
    9442 00001297 0695          MOVL      ACC,*+XAR5[AR0]       ; |3551| 
    9443 00001298 7640'         LCR       #_get_fat             ; |3551| 
         00001299 0186 
    9444                      ; call occurs [#_get_fat] ; |3551| 
    9445 0000129a 1E48          MOVL      *-SP[8],ACC           ; |3551| 
    9446                      .dwpsn  "ff.c",3552,5
    9447 0000129b 2B45          MOV       *-SP[5],#0            ; |3552| 
TMS320C2000 COFF Assembler PC v4.1.3 Thu May 05 10:06:00 2011

Tools Copyright (c) 1996-2006 Texas Instruments Incorporated
C:\DOCUME~1\ADMINI~1\LOCALS~1\Temp\TI1122                            PAGE  182

    9448                      .dwpsn  "ff.c",3553,5
    9449 0000129c 0200          MOVB      ACC,#0
    9450 0000129d 1901          SUBB      ACC,#1
    9451 0000129e 0F48          CMPL      ACC,*-SP[8]           ; |3553| 
    9452 0000129f ED03          BF        L315,NEQ              ; |3553| 
    9453                      ; branchcc occurs ; |3553| 
    9454                      .dwpsn  "ff.c",3553,30
    9455 000012a0 2845          MOV       *-SP[5],#1            ; |3553| 
         000012a1 0001 
    9456              L315:    
    9457                      .dwpsn  "ff.c",3554,5
    9458 000012a2 0201          MOVB      ACC,#1
    9459 000012a3 0F48          CMPL      ACC,*-SP[8]           ; |3554| 
    9460 000012a4 ED03          BF        L316,NEQ              ; |3554| 
    9461                      ; branchcc occurs ; |3554| 
    9462                      .dwpsn  "ff.c",3554,21
    9463 000012a5 2845          MOV       *-SP[5],#2            ; |3554| 
         000012a6 0002 
    9464              L316:    
    9465                      .dwpsn  "ff.c",3555,5
    9466 000012a7 9245          MOV       AL,*-SP[5]            ; |3555| 
    9467 000012a8 ED1C          BF        L317,NEQ              ; |3555| 
    9468                      ; branchcc occurs ; |3555| 
    9469 000012a9 8A44          MOVL      XAR4,*-SP[4]          ; |3555| 
    9470 000012aa 8AC4          MOVL      XAR4,*+XAR4[0]        ; |3555| 
    9471 000012ab D010          MOVB      XAR0,#16              ; |3555| 
    9472 000012ac 0694          MOVL      ACC,*+XAR4[AR0]       ; |3555| 
    9473 000012ad 0F48          CMPL      ACC,*-SP[8]           ; |3555| 
    9474 000012ae 6916          B         L317,LOS              ; |3555| 
    9475                      ; branchcc occurs ; |3555| 
    9476                      .dwpsn  "ff.c",3557,6
    9477 000012af 28AA          MOV       PH,#4095
         000012b0 0FFF 
    9478 000012b1 28AB          MOV       PL,#65535
         000012b2 FFFF 
    9479 000012b3 A942          MOVL      *-SP[2],P             ; |3557| 
    9480 000012b4 8A44          MOVL      XAR4,*-SP[4]          ; |3557| 
    9481 000012b5 8344          MOVL      XAR5,*-SP[4]          ; |3557| 
    9482 000012b6 8AC4          MOVL      XAR4,*+XAR4[0]        ; |3557| 
    9483 000012b7 D00C          MOVB      XAR0,#12              ; |3557| 
    9484 000012b8 0695          MOVL      ACC,*+XAR5[AR0]       ; |3557| 
    9485 000012b9 7640'         LCR       #_put_fat             ; |3557| 
         000012ba 022E 
    9486                      ; call occurs [#_put_fat] ; |3557| 
    9487 000012bb 9645          MOV       *-SP[5],AL            ; |3557| 
    9488                      .dwpsn  "ff.c",3558,6
    9489 000012bc 5200          CMPB      AL,#0                 ; |3558| 
    9490 000012bd ED07          BF        L317,NEQ              ; |3558| 
    9491                      ; branchcc occurs ; |3558| 
    9492                      .dwpsn  "ff.c",3558,26
    9493 000012be 8A44          MOVL      XAR4,*-SP[4]          ; |3558| 
    9494 000012bf 8AC4          MOVL      XAR4,*+XAR4[0]        ; |3558| 
    9495 000012c0 0648          MOVL      ACC,*-SP[8]           ; |3558| 
    9496 000012c1 7640'         LCR       #_remove_chain        ; |3558| 
         000012c2 0316 
TMS320C2000 COFF Assembler PC v4.1.3 Thu May 05 10:06:00 2011

Tools Copyright (c) 1996-2006 Texas Instruments Incorporated
C:\DOCUME~1\ADMINI~1\LOCALS~1\Temp\TI1122                            PAGE  183

    9497                      ; call occurs [#_remove_chain] ; |3558| 
    9498 000012c3 9645          MOV       *-SP[5],AL            ; |3558| 
    9499              L317:    
    9500                      .dwpsn  "ff.c",3562,3
    9501 000012c4 9245          MOV       AL,*-SP[5]            ; |3562| 
    9502 000012c5 EC04          BF        L318,EQ               ; |3562| 
    9503                      ; branchcc occurs ; |3562| 
    9504                      .dwpsn  "ff.c",3562,23
    9505 000012c6 8A44          MOVL      XAR4,*-SP[4]          ; |3562| 
    9506 000012c7 1ADC          OR        *+XAR4[3],#0x0080     ; |3562| 
         000012c8 0080 
    9507              L318:    
    9508                      .dwpsn  "ff.c",3565,2
    9509 000012c9 8A44          MOVL      XAR4,*-SP[4]          ; |3565| 
    9510 000012ca 8AC4          MOVL      XAR4,*+XAR4[0]        ; |3565| 
    9511 000012cb 9245          MOV       AL,*-SP[5]            ; |3565| 
    9512 000012cc 7640'         LCR       #_unlock_fs           ; |3565| 
         000012cd 0064 
    9513                      ; call occurs [#_unlock_fs] ; |3565| 
    9514 000012ce 9245          MOV       AL,*-SP[5]            ; |3565| 
    9515                      .dwpsn  "ff.c",3566,1
    9516 000012cf FE88          SUBB      SP,#8                 ; |3565| 
    9517                      .dwcfa  0x1d, -2
    9518 000012d0 0006          LRETR
    9519                      ; return occurs
    9520                      .dwattr DW$522, DW_AT_end_file("ff.c")
    9521                      .dwattr DW$522, DW_AT_end_line(0xdee)
    9522                      .dwattr DW$522, DW_AT_end_column(0x01)
    9523                      .dwendentry
    9524                      .dwendtag DW$522
    9525              
    9526 000012d1               .sect   ".text"
    9527                      .global _f_unlink
    9528              
    9529              DW$527  .dwtag  DW_TAG_subprogram, DW_AT_name("f_unlink"), DW_AT_symbol_name("_f_unlink")
    9530                      .dwattr DW$527, DW_AT_low_pc(_f_unlink)
    9531                      .dwattr DW$527, DW_AT_high_pc(0x00)
    9532                      .dwattr DW$527, DW_AT_begin_file("ff.c")
    9533                      .dwattr DW$527, DW_AT_begin_line(0xdf7)
    9534                      .dwattr DW$527, DW_AT_begin_column(0x09)
    9535                      .dwpsn  "ff.c",3578,1
    9536              
    9537                      .dwfde DW$CIE
    9538              
    9539              ;***************************************************************
    9540              ;* FNAME: _f_unlink                     FR SIZE:  50           *
    9541              ;*                                                             *
    9542              ;* FUNCTION ENVIRONMENT                                        *
    9543              ;*                                                             *
    9544              ;* FUNCTION PROPERTIES                                         *
    9545              ;*                            0 Parameter, 48 Auto,  2 SOE     *
    9546              ;***************************************************************
    9547              
    9548              _f_unlink:
    9549                      .dwcfa  0x1d, -2
TMS320C2000 COFF Assembler PC v4.1.3 Thu May 05 10:06:00 2011

Tools Copyright (c) 1996-2006 Texas Instruments Incorporated
C:\DOCUME~1\ADMINI~1\LOCALS~1\Temp\TI1122                            PAGE  184

    9550                      .dwcfa  0x1c, 26, 0
    9551                      .dwcfa  0x09, 40, 26
    9552 000012d1 B2BD          MOVL      *SP++,XAR1
    9553                      .dwcfa  0x80, 7, 2
    9554                      .dwcfa  0x1d, -4
    9555 000012d2 FE30          ADDB      SP,#48
    9556                      .dwcfa  0x1d, -52
    9557              ;* AR4   assigned to _path
    9558              DW$528  .dwtag  DW_TAG_formal_parameter, DW_AT_name("path"), DW_AT_symbol_name("_path")
    9559                      .dwattr DW$528, DW_AT_type(*DW$T$93)
    9560                      .dwattr DW$528, DW_AT_location[DW_OP_reg12]
    9561              DW$529  .dwtag  DW_TAG_variable, DW_AT_name("path"), DW_AT_symbol_name("_path")
    9562                      .dwattr DW$529, DW_AT_type(*DW$T$93)
    9563                      .dwattr DW$529, DW_AT_location[DW_OP_breg20 -2]
    9564              DW$530  .dwtag  DW_TAG_variable, DW_AT_name("res"), DW_AT_symbol_name("_res")
    9565                      .dwattr DW$530, DW_AT_type(*DW$T$49)
    9566                      .dwattr DW$530, DW_AT_location[DW_OP_breg20 -3]
    9567              DW$531  .dwtag  DW_TAG_variable, DW_AT_name("dj"), DW_AT_symbol_name("_dj")
    9568                      .dwattr DW$531, DW_AT_type(*DW$T$52)
    9569                      .dwattr DW$531, DW_AT_location[DW_OP_breg20 -18]
    9570              DW$532  .dwtag  DW_TAG_variable, DW_AT_name("sdj"), DW_AT_symbol_name("_sdj")
    9571                      .dwattr DW$532, DW_AT_type(*DW$T$52)
    9572                      .dwattr DW$532, DW_AT_location[DW_OP_breg20 -32]
    9573              DW$533  .dwtag  DW_TAG_variable, DW_AT_name("dir"), DW_AT_symbol_name("_dir")
    9574                      .dwattr DW$533, DW_AT_type(*DW$T$32)
    9575                      .dwattr DW$533, DW_AT_location[DW_OP_breg20 -34]
    9576              DW$534  .dwtag  DW_TAG_variable, DW_AT_name("dclst"), DW_AT_symbol_name("_dclst")
    9577                      .dwattr DW$534, DW_AT_type(*DW$T$27)
    9578                      .dwattr DW$534, DW_AT_location[DW_OP_breg20 -36]
    9579              DW$535  .dwtag  DW_TAG_variable, DW_AT_name("sfn"), DW_AT_symbol_name("_sfn")
    9580                      .dwattr DW$535, DW_AT_type(*DW$T$66)
    9581                      .dwattr DW$535, DW_AT_location[DW_OP_breg20 -48]
    9582 000012d3 A842          MOVL      *-SP[2],XAR4          ; |3578| 
    9583                      .dwpsn  "ff.c",3586,2
    9584 000012d4 5DAD          MOVZ      AR5,SP                ; |3586| 
    9585 000012d5 5CAD          MOVZ      AR4,SP                ; |3586| 
    9586 000012d6 9A01          MOVB      AL,#1                 ; |3586| 
    9587 000012d7 DD92          SUBB      XAR5,#18              ; |3586| 
    9588 000012d8 DC82          SUBB      XAR4,#2               ; |3586| 
    9589 000012d9 7640'         LCR       #_chk_mounted         ; |3586| 
         000012da 07FC 
    9590                      ; call occurs [#_chk_mounted] ; |3586| 
    9591 000012db 9643          MOV       *-SP[3],AL            ; |3586| 
    9592                      .dwpsn  "ff.c",3587,2
    9593 000012dc 5200          CMPB      AL,#0                 ; |3587| 
    9594 000012dd ED6C          BF        L326,NEQ              ; |3587| 
    9595                      ; branchcc occurs ; |3587| 
    9596                      .dwpsn  "ff.c",3589,3
    9597 000012de 5CAD          MOVZ      AR4,SP                ; |3589| 
    9598 000012df DCB0          SUBB      XAR4,#48              ; |3589| 
    9599 000012e0 A846          MOVL      *-SP[6],XAR4          ; |3589| 
    9600                      .dwpsn  "ff.c",3590,3
    9601 000012e1 5CAD          MOVZ      AR4,SP                ; |3590| 
    9602 000012e2 8342          MOVL      XAR5,*-SP[2]          ; |3590| 
    9603 000012e3 DC92          SUBB      XAR4,#18              ; |3590| 
TMS320C2000 COFF Assembler PC v4.1.3 Thu May 05 10:06:00 2011

Tools Copyright (c) 1996-2006 Texas Instruments Incorporated
C:\DOCUME~1\ADMINI~1\LOCALS~1\Temp\TI1122                            PAGE  185

    9604 000012e4 7640'         LCR       #_follow_path         ; |3590| 
         000012e5 0722 
    9605                      ; call occurs [#_follow_path] ; |3590| 
    9606 000012e6 9643          MOV       *-SP[3],AL            ; |3590| 
    9607                      .dwpsn  "ff.c",3591,3
    9608 000012e7 6F01          B         L319,UNC              ; |3591| 
    9609                      ; branch occurs ; |3591| 
    9610              L319:    
    9611                      .dwpsn  "ff.c",3596,3
    9612 000012e8 5200          CMPB      AL,#0                 ; |3596| 
    9613 000012e9 ED60          BF        L326,NEQ              ; |3596| 
    9614                      ; branchcc occurs ; |3596| 
    9615                      .dwpsn  "ff.c",3598,4
    9616 000012ea 0648          MOVL      ACC,*-SP[8]           ; |3598| 
    9617 000012eb 1E62          MOVL      *-SP[34],ACC          ; |3598| 
    9618                      .dwpsn  "ff.c",3599,4
    9619 000012ec 0662          MOVL      ACC,*-SP[34]          ; |3599| 
    9620 000012ed ED04          BF        L320,NEQ              ; |3599| 
    9621                      ; branchcc occurs ; |3599| 
    9622                      .dwpsn  "ff.c",3601,5
    9623 000012ee 2843          MOV       *-SP[3],#6            ; |3601| 
         000012ef 0006 
    9624                      .dwpsn  "ff.c",3602,4
    9625 000012f0 6F07          B         L321,UNC              ; |3602| 
    9626                      ; branch occurs ; |3602| 
    9627              L320:    
    9628                      .dwpsn  "ff.c",3605,5
    9629 000012f1 8A62          MOVL      XAR4,*-SP[34]         ; |3605| 
    9630 000012f2 D00B          MOVB      XAR0,#11              ; |3605| 
    9631 000012f3 4094          TBIT      *+XAR4[AR0],#0        ; |3605| 
    9632 000012f4 EF03          BF        L321,NTC              ; |3605| 
    9633                      ; branchcc occurs ; |3605| 
    9634                      .dwpsn  "ff.c",3606,6
    9635 000012f5 2843          MOV       *-SP[3],#7            ; |3606| 
         000012f6 0007 
    9636              L321:    
    9637                      .dwpsn  "ff.c",3608,4
    9638 000012f7 8362          MOVL      XAR5,*-SP[34]         ; |3608| 
    9639 000012f8 8A62          MOVL      XAR4,*-SP[34]         ; |3608| 
    9640 000012f9 D11B          MOVB      XAR1,#27              ; |3608| 
    9641 000012fa D01A          MOVB      XAR0,#26              ; |3608| 
    9642 000012fb 5603          MOV       ACC,*+XAR5[AR1] << #8 ; |3608| 
         000012fc 089D 
    9643 000012fd CA94          OR        AL,*+XAR4[AR0]        ; |3608| 
    9644 000012fe D115          MOVB      XAR1,#21              ; |3608| 
    9645 000012ff 8362          MOVL      XAR5,*-SP[34]         ; |3608| 
    9646 00001300 88A9          MOVZ      AR6,AL                ; |3608| 
    9647 00001301 8A62          MOVL      XAR4,*-SP[34]         ; |3608| 
    9648 00001302 D014          MOVB      XAR0,#20              ; |3608| 
    9649 00001303 2901          CLRC      SXM
    9650 00001304 5603          MOV       ACC,*+XAR5[AR1] << #8 ; |3608| 
         00001305 089D 
    9651 00001306 CA94          OR        AL,*+XAR4[AR0]        ; |3608| 
    9652 00001307 25A9          MOV       ACC,AL << 16          ; |3608| 
    9653 00001308 AFA6          OR        ACC,AR6               ; |3608| 
TMS320C2000 COFF Assembler PC v4.1.3 Thu May 05 10:06:00 2011

Tools Copyright (c) 1996-2006 Texas Instruments Incorporated
C:\DOCUME~1\ADMINI~1\LOCALS~1\Temp\TI1122                            PAGE  186

    9654 00001309 1E64          MOVL      *-SP[36],ACC          ; |3608| 
    9655                      .dwpsn  "ff.c",3609,4
    9656 0000130a 9243          MOV       AL,*-SP[3]            ; |3609| 
    9657 0000130b ED28          BF        L324,NEQ              ; |3609| 
    9658                      ; branchcc occurs ; |3609| 
    9659 0000130c 8A62          MOVL      XAR4,*-SP[34]         ; |3609| 
    9660 0000130d D00B          MOVB      XAR0,#11              ; |3609| 
    9661 0000130e 4494          TBIT      *+XAR4[AR0],#4        ; |3609| 
    9662 0000130f EF24          BF        L324,NTC              ; |3609| 
    9663                      ; branchcc occurs ; |3609| 
    9664                      .dwpsn  "ff.c",3611,5
    9665 00001310 0202          MOVB      ACC,#2
    9666 00001311 0F64          CMPL      ACC,*-SP[36]          ; |3611| 
    9667 00001312 6904          B         L322,LOS              ; |3611| 
    9668                      ; branchcc occurs ; |3611| 
    9669                      .dwpsn  "ff.c",3613,6
    9670 00001313 2843          MOV       *-SP[3],#2            ; |3613| 
         00001314 0002 
    9671                      .dwpsn  "ff.c",3614,5
    9672 00001315 6F1E          B         L324,UNC              ; |3614| 
    9673                      ; branch occurs ; |3614| 
    9674              L322:    
    9675                      .dwpsn  "ff.c",3617,6
    9676 00001316 5DAD          MOVZ      AR5,SP                ; |3617| 
    9677 00001317 5CAD          MOVZ      AR4,SP                ; |3617| 
    9678 00001318 9A0E          MOVB      AL,#14                ; |3617| 
    9679 00001319 DD92          SUBB      XAR5,#18              ; |3617| 
    9680 0000131a DCA0          SUBB      XAR4,#32              ; |3617| 
    9681 0000131b 7640'         LCR       #_mem_cpy             ; |3617| 
         0000131c 0000 
    9682                      ; call occurs [#_mem_cpy] ; |3617| 
    9683                      .dwpsn  "ff.c",3618,6
    9684 0000131d 0664          MOVL      ACC,*-SP[36]          ; |3618| 
    9685 0000131e 1E5C          MOVL      *-SP[28],ACC          ; |3618| 
    9686                      .dwpsn  "ff.c",3619,6
    9687 0000131f 5CAD          MOVZ      AR4,SP                ; |3619| 
    9688 00001320 9A02          MOVB      AL,#2                 ; |3619| 
    9689 00001321 DCA0          SUBB      XAR4,#32              ; |3619| 
    9690 00001322 7640'         LCR       #_dir_sdi             ; |3619| 
         00001323 03DB 
    9691                      ; call occurs [#_dir_sdi] ; |3619| 
    9692 00001324 9643          MOV       *-SP[3],AL            ; |3619| 
    9693                      .dwpsn  "ff.c",3620,6
    9694 00001325 5200          CMPB      AL,#0                 ; |3620| 
    9695 00001326 ED0D          BF        L324,NEQ              ; |3620| 
    9696                      ; branchcc occurs ; |3620| 
    9697                      .dwpsn  "ff.c",3622,7
    9698 00001327 5CAD          MOVZ      AR4,SP                ; |3622| 
    9699 00001328 DCA0          SUBB      XAR4,#32              ; |3622| 
    9700 00001329 7640'         LCR       #_dir_read            ; |3622| 
         0000132a 053E 
    9701                      ; call occurs [#_dir_read] ; |3622| 
    9702 0000132b 9643          MOV       *-SP[3],AL            ; |3622| 
    9703                      .dwpsn  "ff.c",3623,7
    9704 0000132c 5200          CMPB      AL,#0                 ; |3623| 
TMS320C2000 COFF Assembler PC v4.1.3 Thu May 05 10:06:00 2011

Tools Copyright (c) 1996-2006 Texas Instruments Incorporated
C:\DOCUME~1\ADMINI~1\LOCALS~1\Temp\TI1122                            PAGE  187

    9705 0000132d ED03          BF        L323,NEQ              ; |3623| 
    9706                      ; branchcc occurs ; |3623| 
    9707                      .dwpsn  "ff.c",3627,12
    9708 0000132e 9A07          MOVB      AL,#7                 ; |3627| 
    9709 0000132f 9643          MOV       *-SP[3],AL            ; |3627| 
    9710              L323:    
    9711                      .dwpsn  "ff.c",3628,7
    9712 00001330 5204          CMPB      AL,#4                 ; |3628| 
    9713 00001331 ED02          BF        L324,NEQ              ; |3628| 
    9714                      ; branchcc occurs ; |3628| 
    9715                      .dwpsn  "ff.c",3628,32
    9716 00001332 2B43          MOV       *-SP[3],#0            ; |3628| 
    9717              L324:    
    9718                      .dwpsn  "ff.c",3632,4
    9719 00001333 9243          MOV       AL,*-SP[3]            ; |3632| 
    9720 00001334 ED15          BF        L326,NEQ              ; |3632| 
    9721                      ; branchcc occurs ; |3632| 
    9722                      .dwpsn  "ff.c",3634,5
    9723 00001335 5CAD          MOVZ      AR4,SP                ; |3634| 
    9724 00001336 DC92          SUBB      XAR4,#18              ; |3634| 
    9725 00001337 7640'         LCR       #_dir_remove          ; |3634| 
         00001338 05BA 
    9726                      ; call occurs [#_dir_remove] ; |3634| 
    9727 00001339 9643          MOV       *-SP[3],AL            ; |3634| 
    9728                      .dwpsn  "ff.c",3635,5
    9729 0000133a 5200          CMPB      AL,#0                 ; |3635| 
    9730 0000133b ED0E          BF        L326,NEQ              ; |3635| 
    9731                      ; branchcc occurs ; |3635| 
    9732                      .dwpsn  "ff.c",3637,6
    9733 0000133c 0664          MOVL      ACC,*-SP[36]          ; |3637| 
    9734 0000133d EC06          BF        L325,EQ               ; |3637| 
    9735                      ; branchcc occurs ; |3637| 
    9736                      .dwpsn  "ff.c",3638,7
    9737 0000133e 8A52          MOVL      XAR4,*-SP[18]         ; |3638| 
    9738 0000133f 0664          MOVL      ACC,*-SP[36]          ; |3638| 
    9739 00001340 7640'         LCR       #_remove_chain        ; |3638| 
         00001341 0316 
    9740                      ; call occurs [#_remove_chain] ; |3638| 
    9741 00001342 9643          MOV       *-SP[3],AL            ; |3638| 
    9742              L325:    
    9743                      .dwpsn  "ff.c",3639,6
    9744 00001343 9243          MOV       AL,*-SP[3]            ; |3639| 
    9745 00001344 ED05          BF        L326,NEQ              ; |3639| 
    9746                      ; branchcc occurs ; |3639| 
    9747                      .dwpsn  "ff.c",3639,26
    9748 00001345 8A52          MOVL      XAR4,*-SP[18]         ; |3639| 
    9749 00001346 7640'         LCR       #_sync                ; |3639| 
         00001347 00C8 
    9750                      ; call occurs [#_sync] ; |3639| 
    9751 00001348 9643          MOV       *-SP[3],AL            ; |3639| 
    9752              L326:    
    9753                      .dwpsn  "ff.c",3645,2
    9754 00001349 8A52          MOVL      XAR4,*-SP[18]         ; |3645| 
    9755 0000134a 7640'         LCR       #_unlock_fs           ; |3645| 
         0000134b 0064 
TMS320C2000 COFF Assembler PC v4.1.3 Thu May 05 10:06:00 2011

Tools Copyright (c) 1996-2006 Texas Instruments Incorporated
C:\DOCUME~1\ADMINI~1\LOCALS~1\Temp\TI1122                            PAGE  188

    9756                      ; call occurs [#_unlock_fs] ; |3645| 
    9757 0000134c 9243          MOV       AL,*-SP[3]            ; |3645| 
    9758                      .dwpsn  "ff.c",3646,1
    9759 0000134d FEB0          SUBB      SP,#48                ; |3645| 
    9760                      .dwcfa  0x1d, -4
    9761 0000134e 8BBE          MOVL      XAR1,*--SP            ; |3645| 
    9762                      .dwcfa  0x1d, -2
    9763                      .dwcfa  0xc0, 7
    9764 0000134f 0006          LRETR
    9765                      ; return occurs
    9766                      .dwattr DW$527, DW_AT_end_file("ff.c")
    9767                      .dwattr DW$527, DW_AT_end_line(0xe3e)
    9768                      .dwattr DW$527, DW_AT_end_column(0x01)
    9769                      .dwendentry
    9770                      .dwendtag DW$527
    9771              
    9772 00001350               .sect   ".text"
    9773                      .global _f_mkdir
    9774              
    9775              DW$536  .dwtag  DW_TAG_subprogram, DW_AT_name("f_mkdir"), DW_AT_symbol_name("_f_mkdir")
    9776                      .dwattr DW$536, DW_AT_low_pc(_f_mkdir)
    9777                      .dwattr DW$536, DW_AT_high_pc(0x00)
    9778                      .dwattr DW$536, DW_AT_begin_file("ff.c")
    9779                      .dwattr DW$536, DW_AT_begin_line(0xe47)
    9780                      .dwattr DW$536, DW_AT_begin_column(0x09)
    9781                      .dwpsn  "ff.c",3658,1
    9782              
    9783                      .dwfde DW$CIE
    9784              
    9785              ;***************************************************************
    9786              ;* FNAME: _f_mkdir                      FR SIZE:  42           *
    9787              ;*                                                             *
    9788              ;* FUNCTION ENVIRONMENT                                        *
    9789              ;*                                                             *
    9790              ;* FUNCTION PROPERTIES                                         *
    9791              ;*                            0 Parameter, 42 Auto,  0 SOE     *
    9792              ;***************************************************************
    9793              
    9794              _f_mkdir:
    9795                      .dwcfa  0x1d, -2
    9796                      .dwcfa  0x1c, 26, 0
    9797                      .dwcfa  0x09, 40, 26
    9798 00001350 FE2A          ADDB      SP,#42
    9799                      .dwcfa  0x1d, -44
    9800              ;* AR4   assigned to _path
    9801              DW$537  .dwtag  DW_TAG_formal_parameter, DW_AT_name("path"), DW_AT_symbol_name("_path")
    9802                      .dwattr DW$537, DW_AT_type(*DW$T$93)
    9803                      .dwattr DW$537, DW_AT_location[DW_OP_reg12]
    9804              DW$538  .dwtag  DW_TAG_variable, DW_AT_name("path"), DW_AT_symbol_name("_path")
    9805                      .dwattr DW$538, DW_AT_type(*DW$T$93)
    9806                      .dwattr DW$538, DW_AT_location[DW_OP_breg20 -2]
    9807              DW$539  .dwtag  DW_TAG_variable, DW_AT_name("res"), DW_AT_symbol_name("_res")
    9808                      .dwattr DW$539, DW_AT_type(*DW$T$49)
    9809                      .dwattr DW$539, DW_AT_location[DW_OP_breg20 -3]
    9810              DW$540  .dwtag  DW_TAG_variable, DW_AT_name("dj"), DW_AT_symbol_name("_dj")
TMS320C2000 COFF Assembler PC v4.1.3 Thu May 05 10:06:00 2011

Tools Copyright (c) 1996-2006 Texas Instruments Incorporated
C:\DOCUME~1\ADMINI~1\LOCALS~1\Temp\TI1122                            PAGE  189

    9811                      .dwattr DW$540, DW_AT_type(*DW$T$52)
    9812                      .dwattr DW$540, DW_AT_location[DW_OP_breg20 -18]
    9813              DW$541  .dwtag  DW_TAG_variable, DW_AT_name("dir"), DW_AT_symbol_name("_dir")
    9814                      .dwattr DW$541, DW_AT_type(*DW$T$32)
    9815                      .dwattr DW$541, DW_AT_location[DW_OP_breg20 -20]
    9816              DW$542  .dwtag  DW_TAG_variable, DW_AT_name("n"), DW_AT_symbol_name("_n")
    9817                      .dwattr DW$542, DW_AT_type(*DW$T$23)
    9818                      .dwattr DW$542, DW_AT_location[DW_OP_breg20 -21]
    9819              DW$543  .dwtag  DW_TAG_variable, DW_AT_name("dsc"), DW_AT_symbol_name("_dsc")
    9820                      .dwattr DW$543, DW_AT_type(*DW$T$27)
    9821                      .dwattr DW$543, DW_AT_location[DW_OP_breg20 -24]
    9822              DW$544  .dwtag  DW_TAG_variable, DW_AT_name("dcl"), DW_AT_symbol_name("_dcl")
    9823                      .dwattr DW$544, DW_AT_type(*DW$T$27)
    9824                      .dwattr DW$544, DW_AT_location[DW_OP_breg20 -26]
    9825              DW$545  .dwtag  DW_TAG_variable, DW_AT_name("pcl"), DW_AT_symbol_name("_pcl")
    9826                      .dwattr DW$545, DW_AT_type(*DW$T$27)
    9827                      .dwattr DW$545, DW_AT_location[DW_OP_breg20 -28]
    9828              DW$546  .dwtag  DW_TAG_variable, DW_AT_name("tim"), DW_AT_symbol_name("_tim")
    9829                      .dwattr DW$546, DW_AT_type(*DW$T$27)
    9830                      .dwattr DW$546, DW_AT_location[DW_OP_breg20 -30]
    9831              DW$547  .dwtag  DW_TAG_variable, DW_AT_name("sfn"), DW_AT_symbol_name("_sfn")
    9832                      .dwattr DW$547, DW_AT_type(*DW$T$66)
    9833                      .dwattr DW$547, DW_AT_location[DW_OP_breg20 -42]
    9834 00001351 A842          MOVL      *-SP[2],XAR4          ; |3658| 
    9835                      .dwpsn  "ff.c",3662,23
    9836 00001352 7640!         LCR       #_get_fattime         ; |3662| 
         00001353 0000 
    9837                      ; call occurs [#_get_fattime] ; |3662| 
    9838 00001354 1E5E          MOVL      *-SP[30],ACC          ; |3662| 
    9839                      .dwpsn  "ff.c",3666,2
    9840 00001355 5DAD          MOVZ      AR5,SP                ; |3666| 
    9841 00001356 5CAD          MOVZ      AR4,SP                ; |3666| 
    9842 00001357 9A01          MOVB      AL,#1                 ; |3666| 
    9843 00001358 DD92          SUBB      XAR5,#18              ; |3666| 
    9844 00001359 DC82          SUBB      XAR4,#2               ; |3666| 
    9845 0000135a 7640'         LCR       #_chk_mounted         ; |3666| 
         0000135b 07FC 
    9846                      ; call occurs [#_chk_mounted] ; |3666| 
    9847 0000135c 9643          MOV       *-SP[3],AL            ; |3666| 
    9848                      .dwpsn  "ff.c",3667,2
    9849 0000135d 5200          CMPB      AL,#0                 ; |3667| 
    9850 0000135e 56C0          BF        L337,NEQ              ; |3667| 
         0000135f 00F9 
    9851                      ; branchcc occurs ; |3667| 
    9852                      .dwpsn  "ff.c",3669,3
    9853 00001360 5CAD          MOVZ      AR4,SP                ; |3669| 
    9854 00001361 DCAA          SUBB      XAR4,#42              ; |3669| 
    9855 00001362 A846          MOVL      *-SP[6],XAR4          ; |3669| 
    9856                      .dwpsn  "ff.c",3670,3
    9857 00001363 5CAD          MOVZ      AR4,SP                ; |3670| 
    9858 00001364 8342          MOVL      XAR5,*-SP[2]          ; |3670| 
    9859 00001365 DC92          SUBB      XAR4,#18              ; |3670| 
    9860 00001366 7640'         LCR       #_follow_path         ; |3670| 
         00001367 0722 
    9861                      ; call occurs [#_follow_path] ; |3670| 
TMS320C2000 COFF Assembler PC v4.1.3 Thu May 05 10:06:00 2011

Tools Copyright (c) 1996-2006 Texas Instruments Incorporated
C:\DOCUME~1\ADMINI~1\LOCALS~1\Temp\TI1122                            PAGE  190

    9862 00001368 9643          MOV       *-SP[3],AL            ; |3670| 
    9863                      .dwpsn  "ff.c",3671,3
    9864 00001369 5200          CMPB      AL,#0                 ; |3671| 
    9865 0000136a ED04          BF        L327,NEQ              ; |3671| 
    9866                      ; branchcc occurs ; |3671| 
    9867                      .dwpsn  "ff.c",3671,23
    9868 0000136b 9A08          MOVB      AL,#8                 ; |3671| 
    9869 0000136c 9643          MOV       *-SP[3],AL            ; |3671| 
    9870                      .dwpsn  "ff.c",3672,3
    9871 0000136d 6F01          B         L327,UNC              ; |3672| 
    9872                      ; branch occurs ; |3672| 
    9873              L327:    
    9874                      .dwpsn  "ff.c",3674,3
    9875 0000136e 5204          CMPB      AL,#4                 ; |3674| 
    9876 0000136f 56C0          BF        L337,NEQ              ; |3674| 
         00001370 00E8 
    9877                      ; branchcc occurs ; |3674| 
    9878                      .dwpsn  "ff.c",3676,4
    9879 00001371 8A52          MOVL      XAR4,*-SP[18]         ; |3676| 
    9880 00001372 0200          MOVB      ACC,#0
    9881 00001373 7640'         LCR       #_create_chain        ; |3676| 
         00001374 035B 
    9882                      ; call occurs [#_create_chain] ; |3676| 
    9883 00001375 1E5A          MOVL      *-SP[26],ACC          ; |3676| 
    9884                      .dwpsn  "ff.c",3677,4
    9885 00001376 2B43          MOV       *-SP[3],#0            ; |3677| 
    9886                      .dwpsn  "ff.c",3678,4
    9887 00001377 065A          MOVL      ACC,*-SP[26]          ; |3678| 
    9888 00001378 ED03          BF        L328,NEQ              ; |3678| 
    9889                      ; branchcc occurs ; |3678| 
    9890                      .dwpsn  "ff.c",3678,20
    9891 00001379 2843          MOV       *-SP[3],#7            ; |3678| 
         0000137a 0007 
    9892              L328:    
    9893                      .dwpsn  "ff.c",3679,4
    9894 0000137b 0201          MOVB      ACC,#1
    9895 0000137c 0F5A          CMPL      ACC,*-SP[26]          ; |3679| 
    9896 0000137d ED03          BF        L329,NEQ              ; |3679| 
    9897                      ; branchcc occurs ; |3679| 
    9898                      .dwpsn  "ff.c",3679,20
    9899 0000137e 2843          MOV       *-SP[3],#2            ; |3679| 
         0000137f 0002 
    9900              L329:    
    9901                      .dwpsn  "ff.c",3680,4
    9902 00001380 0200          MOVB      ACC,#0
    9903 00001381 1901          SUBB      ACC,#1
    9904 00001382 0F5A          CMPL      ACC,*-SP[26]          ; |3680| 
    9905 00001383 ED03          BF        L330,NEQ              ; |3680| 
    9906                      ; branchcc occurs ; |3680| 
    9907                      .dwpsn  "ff.c",3680,29
    9908 00001384 2843          MOV       *-SP[3],#1            ; |3680| 
         00001385 0001 
    9909              L330:    
    9910                      .dwpsn  "ff.c",3681,4
    9911 00001386 9243          MOV       AL,*-SP[3]            ; |3681| 
TMS320C2000 COFF Assembler PC v4.1.3 Thu May 05 10:06:00 2011

Tools Copyright (c) 1996-2006 Texas Instruments Incorporated
C:\DOCUME~1\ADMINI~1\LOCALS~1\Temp\TI1122                            PAGE  191

    9912 00001387 ED06          BF        L331,NEQ              ; |3681| 
    9913                      ; branchcc occurs ; |3681| 
    9914                      .dwpsn  "ff.c",3682,5
    9915 00001388 8A52          MOVL      XAR4,*-SP[18]         ; |3682| 
    9916 00001389 0200          MOVB      ACC,#0
    9917 0000138a 7640'         LCR       #_move_window         ; |3682| 
         0000138b 0077 
    9918                      ; call occurs [#_move_window] ; |3682| 
    9919 0000138c 9643          MOV       *-SP[3],AL            ; |3682| 
    9920              L331:    
    9921                      .dwpsn  "ff.c",3683,4
    9922 0000138d 5200          CMPB      AL,#0                 ; |3683| 
    9923 0000138e 56C0          BF        L334,NEQ              ; |3683| 
         0000138f 0088 
    9924                      ; branchcc occurs ; |3683| 
    9925                      .dwpsn  "ff.c",3685,5
    9926 00001390 8A52          MOVL      XAR4,*-SP[18]         ; |3685| 
    9927 00001391 065A          MOVL      ACC,*-SP[26]          ; |3685| 
    9928 00001392 7640'         LCR       #_clust2sect          ; |3685| 
         00001393 016E 
    9929                      ; call occurs [#_clust2sect] ; |3685| 
    9930 00001394 1E58          MOVL      *-SP[24],ACC          ; |3685| 
    9931                      .dwpsn  "ff.c",3686,5
    9932 00001395 0652          MOVL      ACC,*-SP[18]          ; |3686| 
    9933 00001396 091C          ADDB      ACC,#28               ; |3686| 
    9934 00001397 1E54          MOVL      *-SP[20],ACC          ; |3686| 
    9935                      .dwpsn  "ff.c",3687,5
    9936 00001398 8A54          MOVL      XAR4,*-SP[20]         ; |3687| 
    9937 00001399 9A00          MOVB      AL,#0
    9938 0000139a 28A8          MOV       AH,#512               ; |3687| 
         0000139b 0200 
    9939 0000139c 7640'         LCR       #_mem_set             ; |3687| 
         0000139d 001A 
    9940                      ; call occurs [#_mem_set] ; |3687| 
    9941                      .dwpsn  "ff.c",3688,5
    9942 0000139e 8A54          MOVL      XAR4,*-SP[20]         ; |3688| 
    9943 0000139f 9A20          MOVB      AL,#32                ; |3688| 
    9944 000013a0 9B0B          MOVB      AH,#11                ; |3688| 
    9945 000013a1 7640'         LCR       #_mem_set             ; |3688| 
         000013a2 001A 
    9946                      ; call occurs [#_mem_set] ; |3688| 
    9947                      .dwpsn  "ff.c",3689,5
    9948 000013a3 8A54          MOVL      XAR4,*-SP[20]         ; |3689| 
    9949 000013a4 28C4          MOV       *+XAR4[0],#46         ; |3689| 
         000013a5 002E 
    9950                      .dwpsn  "ff.c",3690,5
    9951 000013a6 8A54          MOVL      XAR4,*-SP[20]         ; |3690| 
    9952 000013a7 D00B          MOVB      XAR0,#11              ; |3690| 
    9953 000013a8 2894          MOV       *+XAR4[AR0],#16       ; |3690| 
         000013a9 0010 
    9954                      .dwpsn  "ff.c",3691,5
    9955 000013aa 8A54          MOVL      XAR4,*-SP[20]         ; |3691| 
    9956 000013ab D016          MOVB      XAR0,#22              ; |3691| 
    9957 000013ac 925E          MOV       AL,*-SP[30]           ; |3691| 
    9958 000013ad 9694          MOV       *+XAR4[AR0],AL        ; |3691| 
TMS320C2000 COFF Assembler PC v4.1.3 Thu May 05 10:06:00 2011

Tools Copyright (c) 1996-2006 Texas Instruments Incorporated
C:\DOCUME~1\ADMINI~1\LOCALS~1\Temp\TI1122                            PAGE  192

    9959 000013ae 8A54          MOVL      XAR4,*-SP[20]         ; |3691| 
    9960 000013af 925E          MOV       AL,*-SP[30]           ; |3691| 
    9961 000013b0 D017          MOVB      XAR0,#23              ; |3691| 
    9962 000013b1 FFC7          LSR       AL,8                  ; |3691| 
    9963 000013b2 9694          MOV       *+XAR4[AR0],AL        ; |3691| 
    9964 000013b3 8A54          MOVL      XAR4,*-SP[20]         ; |3691| 
    9965 000013b4 D018          MOVB      XAR0,#24              ; |3691| 
    9966 000013b5 065E          MOVL      ACC,*-SP[30]          ; |3691| 
    9967 000013b6 9794          MOVH      *+XAR4[AR0],ACC << 0  ; |3691| 
    9968 000013b7 28AC          MOV       T,#24                 ; |3691| 
         000013b8 0018 
    9969 000013b9 8A54          MOVL      XAR4,*-SP[20]         ; |3691| 
    9970 000013ba 065E          MOVL      ACC,*-SP[30]          ; |3691| 
    9971 000013bb D019          MOVB      XAR0,#25              ; |3691| 
    9972 000013bc 5622          LSRL      ACC,T                 ; |3691| 
    9973 000013bd 9694          MOV       *+XAR4[AR0],AL        ; |3691| 
    9974                      .dwpsn  "ff.c",3692,5
    9975 000013be 8A54          MOVL      XAR4,*-SP[20]         ; |3692| 
    9976 000013bf D01A          MOVB      XAR0,#26              ; |3692| 
    9977 000013c0 925A          MOV       AL,*-SP[26]           ; |3692| 
    9978 000013c1 9694          MOV       *+XAR4[AR0],AL        ; |3692| 
    9979 000013c2 8A54          MOVL      XAR4,*-SP[20]         ; |3692| 
    9980 000013c3 925A          MOV       AL,*-SP[26]           ; |3692| 
    9981 000013c4 D01B          MOVB      XAR0,#27              ; |3692| 
    9982 000013c5 FFC7          LSR       AL,8                  ; |3692| 
    9983 000013c6 9694          MOV       *+XAR4[AR0],AL        ; |3692| 
    9984 000013c7 8A54          MOVL      XAR4,*-SP[20]         ; |3692| 
    9985 000013c8 D014          MOVB      XAR0,#20              ; |3692| 
    9986 000013c9 065A          MOVL      ACC,*-SP[26]          ; |3692| 
    9987 000013ca 9794          MOVH      *+XAR4[AR0],ACC << 0  ; |3692| 
    9988 000013cb 8A54          MOVL      XAR4,*-SP[20]         ; |3692| 
    9989 000013cc 065A          MOVL      ACC,*-SP[26]          ; |3692| 
    9990 000013cd D015          MOVB      XAR0,#21              ; |3692| 
    9991 000013ce FFD7          LSR       AH,8                  ; |3692| 
    9992 000013cf 9794          MOV       *+XAR4[AR0],AH        ; |3692| 
    9993                      .dwpsn  "ff.c",3693,5
    9994 000013d0 8A54          MOVL      XAR4,*-SP[20]         ; |3693| 
    9995 000013d1 8354          MOVL      XAR5,*-SP[20]         ; |3693| 
    9996 000013d2 9A20          MOVB      AL,#32                ; |3693| 
    9997 000013d3 DC20          ADDB      XAR4,#32              ; |3693| 
    9998 000013d4 7640'         LCR       #_mem_cpy             ; |3693| 
         000013d5 0000 
    9999                      ; call occurs [#_mem_cpy] ; |3693| 
   10000                      .dwpsn  "ff.c",3694,5
   10001 000013d6 8A54          MOVL      XAR4,*-SP[20]         ; |3694| 
   10002 000013d7 D021          MOVB      XAR0,#33              ; |3694| 
   10003 000013d8 2894          MOV       *+XAR4[AR0],#46       ; |3694| 
         000013d9 002E 
   10004                      .dwpsn  "ff.c",3695,5
   10005 000013da 064E          MOVL      ACC,*-SP[14]          ; |3695| 
   10006 000013db 1E5C          MOVL      *-SP[28],ACC          ; |3695| 
   10007                      .dwpsn  "ff.c",3696,5
   10008 000013dc 8A52          MOVL      XAR4,*-SP[18]         ; |3696| 
   10009 000013dd 92C4          MOV       AL,*+XAR4[0]          ; |3696| 
   10010 000013de 5203          CMPB      AL,#3                 ; |3696| 
TMS320C2000 COFF Assembler PC v4.1.3 Thu May 05 10:06:00 2011

Tools Copyright (c) 1996-2006 Texas Instruments Incorporated
C:\DOCUME~1\ADMINI~1\LOCALS~1\Temp\TI1122                            PAGE  193

   10011 000013df ED08          BF        L332,NEQ              ; |3696| 
   10012                      ; branchcc occurs ; |3696| 
   10013 000013e0 8A52          MOVL      XAR4,*-SP[18]         ; |3696| 
   10014 000013e1 D016          MOVB      XAR0,#22              ; |3696| 
   10015 000013e2 0694          MOVL      ACC,*+XAR4[AR0]       ; |3696| 
   10016 000013e3 0F5C          CMPL      ACC,*-SP[28]          ; |3696| 
   10017 000013e4 ED03          BF        L332,NEQ              ; |3696| 
   10018                      ; branchcc occurs ; |3696| 
   10019                      .dwpsn  "ff.c",3697,6
   10020 000013e5 0200          MOVB      ACC,#0
   10021 000013e6 1E5C          MOVL      *-SP[28],ACC          ; |3697| 
   10022              L332:    
   10023                      .dwpsn  "ff.c",3698,5
   10024 000013e7 8A54          MOVL      XAR4,*-SP[20]         ; |3698| 
   10025 000013e8 925C          MOV       AL,*-SP[28]           ; |3698| 
   10026 000013e9 D03A          MOVB      XAR0,#58              ; |3698| 
   10027 000013ea 9694          MOV       *+XAR4[AR0],AL        ; |3698| 
   10028 000013eb 8A54          MOVL      XAR4,*-SP[20]         ; |3698| 
   10029 000013ec 925C          MOV       AL,*-SP[28]           ; |3698| 
   10030 000013ed D03B          MOVB      XAR0,#59              ; |3698| 
   10031 000013ee FFC7          LSR       AL,8                  ; |3698| 
   10032 000013ef 9694          MOV       *+XAR4[AR0],AL        ; |3698| 
   10033 000013f0 8A54          MOVL      XAR4,*-SP[20]         ; |3698| 
   10034 000013f1 D034          MOVB      XAR0,#52              ; |3698| 
   10035 000013f2 065C          MOVL      ACC,*-SP[28]          ; |3698| 
   10036 000013f3 9794          MOVH      *+XAR4[AR0],ACC << 0  ; |3698| 
   10037 000013f4 8A54          MOVL      XAR4,*-SP[20]         ; |3698| 
   10038 000013f5 065C          MOVL      ACC,*-SP[28]          ; |3698| 
   10039 000013f6 D035          MOVB      XAR0,#53              ; |3698| 
   10040 000013f7 FFD7          LSR       AH,8                  ; |3698| 
   10041 000013f8 9794          MOV       *+XAR4[AR0],AH        ; |3698| 
   10042                      .dwpsn  "ff.c",3699,11
   10043 000013f9 8A52          MOVL      XAR4,*-SP[18]         ; |3699| 
   10044 000013fa 92D4          MOV       AL,*+XAR4[2]          ; |3699| 
   10045 000013fb 9655          MOV       *-SP[21],AL           ; |3699| 
   10046 000013fc EC1A          BF        L334,EQ               ; |3699| 
   10047                      ; branchcc occurs ; |3699| 
   10048              L333:    
   10049              DW$L$_f_mkdir$19$B:
   10050                      .dwpsn  "ff.c",3701,6
   10051 000013fd C458          MOVL      XAR6,*-SP[24]         ; |3701| 
   10052 000013fe 0201          MOVB      ACC,#1
   10053 000013ff 07A6          ADDL      ACC,XAR6
   10054 00001400 1E58          MOVL      *-SP[24],ACC          ; |3701| 
   10055 00001401 8A52          MOVL      XAR4,*-SP[18]         ; |3701| 
   10056 00001402 D01A          MOVB      XAR0,#26              ; |3701| 
   10057 00001403 C294          MOVL      *+XAR4[AR0],XAR6      ; |3701| 
   10058                      .dwpsn  "ff.c",3702,6
   10059 00001404 8A52          MOVL      XAR4,*-SP[18]         ; |3702| 
   10060 00001405 28E4          MOV       *+XAR4[4],#1          ; |3702| 
         00001406 0001 
   10061                      .dwpsn  "ff.c",3703,6
   10062 00001407 8A52          MOVL      XAR4,*-SP[18]         ; |3703| 
   10063 00001408 0200          MOVB      ACC,#0
   10064 00001409 7640'         LCR       #_move_window         ; |3703| 
TMS320C2000 COFF Assembler PC v4.1.3 Thu May 05 10:06:00 2011

Tools Copyright (c) 1996-2006 Texas Instruments Incorporated
C:\DOCUME~1\ADMINI~1\LOCALS~1\Temp\TI1122                            PAGE  194

         0000140a 0077 
   10065                      ; call occurs [#_move_window] ; |3703| 
   10066 0000140b 9643          MOV       *-SP[3],AL            ; |3703| 
   10067                      .dwpsn  "ff.c",3704,6
   10068 0000140c 5200          CMPB      AL,#0                 ; |3704| 
   10069 0000140d ED09          BF        L334,NEQ              ; |3704| 
   10070                      ; branchcc occurs ; |3704| 
   10071              DW$L$_f_mkdir$19$E:
   10072              DW$L$_f_mkdir$20$B:
   10073                      .dwpsn  "ff.c",3704,26
   10074                      .dwpsn  "ff.c",3705,6
   10075 0000140e 8A54          MOVL      XAR4,*-SP[20]         ; |3705| 
   10076 0000140f 9A00          MOVB      AL,#0
   10077 00001410 28A8          MOV       AH,#512               ; |3705| 
         00001411 0200 
   10078 00001412 7640'         LCR       #_mem_set             ; |3705| 
         00001413 001A 
   10079                      ; call occurs [#_mem_set] ; |3705| 
   10080                      .dwpsn  "ff.c",3699,32
   10081 00001414 0B55          DEC       *-SP[21]              ; |3699| 
   10082 00001415 EDE8          BF        L333,NEQ              ; |3699| 
   10083                      ; branchcc occurs ; |3699| 
   10084              DW$L$_f_mkdir$20$E:
   10085              L334:    
   10086                      .dwpsn  "ff.c",3708,4
   10087 00001416 9243          MOV       AL,*-SP[3]            ; |3708| 
   10088 00001417 ED06          BF        L335,NEQ              ; |3708| 
   10089                      ; branchcc occurs ; |3708| 
   10090                      .dwpsn  "ff.c",3708,24
   10091 00001418 5CAD          MOVZ      AR4,SP                ; |3708| 
   10092 00001419 DC92          SUBB      XAR4,#18              ; |3708| 
   10093 0000141a 7640'         LCR       #_dir_register        ; |3708| 
         0000141b 0573 
   10094                      ; call occurs [#_dir_register] ; |3708| 
   10095 0000141c 9643          MOV       *-SP[3],AL            ; |3708| 
   10096              L335:    
   10097                      .dwpsn  "ff.c",3709,4
   10098 0000141d 5200          CMPB      AL,#0                 ; |3709| 
   10099 0000141e EC06          BF        L336,EQ               ; |3709| 
   10100                      ; branchcc occurs ; |3709| 
   10101                      .dwpsn  "ff.c",3711,5
   10102 0000141f 8A52          MOVL      XAR4,*-SP[18]         ; |3711| 
   10103 00001420 065A          MOVL      ACC,*-SP[26]          ; |3711| 
   10104 00001421 7640'         LCR       #_remove_chain        ; |3711| 
         00001422 0316 
   10105                      ; call occurs [#_remove_chain] ; |3711| 
   10106                      .dwpsn  "ff.c",3712,4
   10107 00001423 6F34          B         L337,UNC              ; |3712| 
   10108                      ; branch occurs ; |3712| 
   10109              L336:    
   10110                      .dwpsn  "ff.c",3715,5
   10111 00001424 0648          MOVL      ACC,*-SP[8]           ; |3715| 
   10112 00001425 1E54          MOVL      *-SP[20],ACC          ; |3715| 
   10113                      .dwpsn  "ff.c",3716,5
   10114 00001426 8A54          MOVL      XAR4,*-SP[20]         ; |3716| 
TMS320C2000 COFF Assembler PC v4.1.3 Thu May 05 10:06:00 2011

Tools Copyright (c) 1996-2006 Texas Instruments Incorporated
C:\DOCUME~1\ADMINI~1\LOCALS~1\Temp\TI1122                            PAGE  195

   10115 00001427 D00B          MOVB      XAR0,#11              ; |3716| 
   10116 00001428 2894          MOV       *+XAR4[AR0],#16       ; |3716| 
         00001429 0010 
   10117                      .dwpsn  "ff.c",3717,5
   10118 0000142a 8A54          MOVL      XAR4,*-SP[20]         ; |3717| 
   10119 0000142b D016          MOVB      XAR0,#22              ; |3717| 
   10120 0000142c 925E          MOV       AL,*-SP[30]           ; |3717| 
   10121 0000142d 9694          MOV       *+XAR4[AR0],AL        ; |3717| 
   10122 0000142e 8A54          MOVL      XAR4,*-SP[20]         ; |3717| 
   10123 0000142f 925E          MOV       AL,*-SP[30]           ; |3717| 
   10124 00001430 D017          MOVB      XAR0,#23              ; |3717| 
   10125 00001431 FFC7          LSR       AL,8                  ; |3717| 
   10126 00001432 9694          MOV       *+XAR4[AR0],AL        ; |3717| 
   10127 00001433 8A54          MOVL      XAR4,*-SP[20]         ; |3717| 
   10128 00001434 D018          MOVB      XAR0,#24              ; |3717| 
   10129 00001435 065E          MOVL      ACC,*-SP[30]          ; |3717| 
   10130 00001436 28AC          MOV       T,#24                 ; |3717| 
         00001437 0018 
   10131 00001438 9794          MOVH      *+XAR4[AR0],ACC << 0  ; |3717| 
   10132 00001439 8A54          MOVL      XAR4,*-SP[20]         ; |3717| 
   10133 0000143a 065E          MOVL      ACC,*-SP[30]          ; |3717| 
   10134 0000143b D019          MOVB      XAR0,#25              ; |3717| 
   10135 0000143c 5622          LSRL      ACC,T                 ; |3717| 
   10136 0000143d 9694          MOV       *+XAR4[AR0],AL        ; |3717| 
   10137                      .dwpsn  "ff.c",3718,5
   10138 0000143e 8A54          MOVL      XAR4,*-SP[20]         ; |3718| 
   10139 0000143f D01A          MOVB      XAR0,#26              ; |3718| 
   10140 00001440 925A          MOV       AL,*-SP[26]           ; |3718| 
   10141 00001441 9694          MOV       *+XAR4[AR0],AL        ; |3718| 
   10142 00001442 8A54          MOVL      XAR4,*-SP[20]         ; |3718| 
   10143 00001443 925A          MOV       AL,*-SP[26]           ; |3718| 
   10144 00001444 D01B          MOVB      XAR0,#27              ; |3718| 
   10145 00001445 FFC7          LSR       AL,8                  ; |3718| 
   10146 00001446 9694          MOV       *+XAR4[AR0],AL        ; |3718| 
   10147 00001447 8A54          MOVL      XAR4,*-SP[20]         ; |3718| 
   10148 00001448 D014          MOVB      XAR0,#20              ; |3718| 
   10149 00001449 065A          MOVL      ACC,*-SP[26]          ; |3718| 
   10150 0000144a 9794          MOVH      *+XAR4[AR0],ACC << 0  ; |3718| 
   10151 0000144b 8A54          MOVL      XAR4,*-SP[20]         ; |3718| 
   10152 0000144c 065A          MOVL      ACC,*-SP[26]          ; |3718| 
   10153 0000144d D015          MOVB      XAR0,#21              ; |3718| 
   10154 0000144e FFD7          LSR       AH,8                  ; |3718| 
   10155 0000144f 9794          MOV       *+XAR4[AR0],AH        ; |3718| 
   10156                      .dwpsn  "ff.c",3719,5
   10157 00001450 8A52          MOVL      XAR4,*-SP[18]         ; |3719| 
   10158 00001451 28E4          MOV       *+XAR4[4],#1          ; |3719| 
         00001452 0001 
   10159                      .dwpsn  "ff.c",3720,5
   10160 00001453 8A52          MOVL      XAR4,*-SP[18]         ; |3720| 
   10161 00001454 7640'         LCR       #_sync                ; |3720| 
         00001455 00C8 
   10162                      ; call occurs [#_sync] ; |3720| 
   10163 00001456 9643          MOV       *-SP[3],AL            ; |3720| 
   10164              L337:    
   10165                      .dwpsn  "ff.c",3726,2
TMS320C2000 COFF Assembler PC v4.1.3 Thu May 05 10:06:00 2011

Tools Copyright (c) 1996-2006 Texas Instruments Incorporated
C:\DOCUME~1\ADMINI~1\LOCALS~1\Temp\TI1122                            PAGE  196

   10166 00001457 8A52          MOVL      XAR4,*-SP[18]         ; |3726| 
   10167 00001458 9243          MOV       AL,*-SP[3]            ; |3726| 
   10168 00001459 7640'         LCR       #_unlock_fs           ; |3726| 
         0000145a 0064 
   10169                      ; call occurs [#_unlock_fs] ; |3726| 
   10170 0000145b 9243          MOV       AL,*-SP[3]            ; |3726| 
   10171                      .dwpsn  "ff.c",3727,1
   10172 0000145c FEAA          SUBB      SP,#42                ; |3726| 
   10173                      .dwcfa  0x1d, -2
   10174 0000145d 0006          LRETR
   10175                      ; return occurs
   10176              
   10177              DW$548  .dwtag  DW_TAG_loop
   10178                      .dwattr DW$548, DW_AT_name("C:\DOCUME~1\ADMINI~1\LOCALS~1\Temp\TI1122:L333:1:1304561157")
   10179                      .dwattr DW$548, DW_AT_begin_file("ff.c")
   10180                      .dwattr DW$548, DW_AT_begin_line(0xe73)
   10181                      .dwattr DW$548, DW_AT_end_line(0xe7a)
   10182              DW$549  .dwtag  DW_TAG_loop_range
   10183                      .dwattr DW$549, DW_AT_low_pc(DW$L$_f_mkdir$19$B)
   10184                      .dwattr DW$549, DW_AT_high_pc(DW$L$_f_mkdir$19$E)
   10185              DW$550  .dwtag  DW_TAG_loop_range
   10186                      .dwattr DW$550, DW_AT_low_pc(DW$L$_f_mkdir$20$B)
   10187                      .dwattr DW$550, DW_AT_high_pc(DW$L$_f_mkdir$20$E)
   10188                      .dwendtag DW$548
   10189              
   10190                      .dwattr DW$536, DW_AT_end_file("ff.c")
   10191                      .dwattr DW$536, DW_AT_end_line(0xe8f)
   10192                      .dwattr DW$536, DW_AT_end_column(0x01)
   10193                      .dwendentry
   10194                      .dwendtag DW$536
   10195              
   10196 0000145e               .sect   ".text"
   10197                      .global _f_chmod
   10198              
   10199              DW$551  .dwtag  DW_TAG_subprogram, DW_AT_name("f_chmod"), DW_AT_symbol_name("_f_chmod")
   10200                      .dwattr DW$551, DW_AT_low_pc(_f_chmod)
   10201                      .dwattr DW$551, DW_AT_high_pc(0x00)
   10202                      .dwattr DW$551, DW_AT_begin_file("ff.c")
   10203                      .dwattr DW$551, DW_AT_begin_line(0xe98)
   10204                      .dwattr DW$551, DW_AT_begin_column(0x09)
   10205                      .dwpsn  "ff.c",3741,1
   10206              
   10207                      .dwfde DW$CIE
   10208              
   10209              ;***************************************************************
   10210              ;* FNAME: _f_chmod                      FR SIZE:  34           *
   10211              ;*                                                             *
   10212              ;* FUNCTION ENVIRONMENT                                        *
   10213              ;*                                                             *
   10214              ;* FUNCTION PROPERTIES                                         *
   10215              ;*                            0 Parameter, 34 Auto,  0 SOE     *
   10216              ;***************************************************************
   10217              
   10218              _f_chmod:
   10219                      .dwcfa  0x1d, -2
TMS320C2000 COFF Assembler PC v4.1.3 Thu May 05 10:06:00 2011

Tools Copyright (c) 1996-2006 Texas Instruments Incorporated
C:\DOCUME~1\ADMINI~1\LOCALS~1\Temp\TI1122                            PAGE  197

   10220                      .dwcfa  0x1c, 26, 0
   10221                      .dwcfa  0x09, 40, 26
   10222 0000145e FE22          ADDB      SP,#34
   10223                      .dwcfa  0x1d, -36
   10224              ;* AR4   assigned to _path
   10225              DW$552  .dwtag  DW_TAG_formal_parameter, DW_AT_name("path"), DW_AT_symbol_name("_path")
   10226                      .dwattr DW$552, DW_AT_type(*DW$T$93)
   10227                      .dwattr DW$552, DW_AT_location[DW_OP_reg12]
   10228              ;* AL    assigned to _value
   10229              DW$553  .dwtag  DW_TAG_formal_parameter, DW_AT_name("value"), DW_AT_symbol_name("_value")
   10230                      .dwattr DW$553, DW_AT_type(*DW$T$23)
   10231                      .dwattr DW$553, DW_AT_location[DW_OP_reg0]
   10232              ;* AH    assigned to _mask
   10233              DW$554  .dwtag  DW_TAG_formal_parameter, DW_AT_name("mask"), DW_AT_symbol_name("_mask")
   10234                      .dwattr DW$554, DW_AT_type(*DW$T$23)
   10235                      .dwattr DW$554, DW_AT_location[DW_OP_reg1]
   10236              DW$555  .dwtag  DW_TAG_variable, DW_AT_name("path"), DW_AT_symbol_name("_path")
   10237                      .dwattr DW$555, DW_AT_type(*DW$T$93)
   10238                      .dwattr DW$555, DW_AT_location[DW_OP_breg20 -2]
   10239              DW$556  .dwtag  DW_TAG_variable, DW_AT_name("value"), DW_AT_symbol_name("_value")
   10240                      .dwattr DW$556, DW_AT_type(*DW$T$23)
   10241                      .dwattr DW$556, DW_AT_location[DW_OP_breg20 -3]
   10242              DW$557  .dwtag  DW_TAG_variable, DW_AT_name("mask"), DW_AT_symbol_name("_mask")
   10243                      .dwattr DW$557, DW_AT_type(*DW$T$23)
   10244                      .dwattr DW$557, DW_AT_location[DW_OP_breg20 -4]
   10245              DW$558  .dwtag  DW_TAG_variable, DW_AT_name("res"), DW_AT_symbol_name("_res")
   10246                      .dwattr DW$558, DW_AT_type(*DW$T$49)
   10247                      .dwattr DW$558, DW_AT_location[DW_OP_breg20 -5]
   10248              DW$559  .dwtag  DW_TAG_variable, DW_AT_name("dj"), DW_AT_symbol_name("_dj")
   10249                      .dwattr DW$559, DW_AT_type(*DW$T$52)
   10250                      .dwattr DW$559, DW_AT_location[DW_OP_breg20 -20]
   10251              DW$560  .dwtag  DW_TAG_variable, DW_AT_name("dir"), DW_AT_symbol_name("_dir")
   10252                      .dwattr DW$560, DW_AT_type(*DW$T$32)
   10253                      .dwattr DW$560, DW_AT_location[DW_OP_breg20 -22]
   10254              DW$561  .dwtag  DW_TAG_variable, DW_AT_name("sfn"), DW_AT_symbol_name("_sfn")
   10255                      .dwattr DW$561, DW_AT_type(*DW$T$66)
   10256                      .dwattr DW$561, DW_AT_location[DW_OP_breg20 -34]
   10257 0000145f 9744          MOV       *-SP[4],AH            ; |3741| 
   10258 00001460 9643          MOV       *-SP[3],AL            ; |3741| 
   10259 00001461 A842          MOVL      *-SP[2],XAR4          ; |3741| 
   10260                      .dwpsn  "ff.c",3748,2
   10261 00001462 5DAD          MOVZ      AR5,SP                ; |3748| 
   10262 00001463 5CAD          MOVZ      AR4,SP                ; |3748| 
   10263 00001464 9A01          MOVB      AL,#1                 ; |3748| 
   10264 00001465 DD94          SUBB      XAR5,#20              ; |3748| 
   10265 00001466 DC82          SUBB      XAR4,#2               ; |3748| 
   10266 00001467 7640'         LCR       #_chk_mounted         ; |3748| 
         00001468 07FC 
   10267                      ; call occurs [#_chk_mounted] ; |3748| 
   10268 00001469 9645          MOV       *-SP[5],AL            ; |3748| 
   10269                      .dwpsn  "ff.c",3749,2
   10270 0000146a 5200          CMPB      AL,#0                 ; |3749| 
   10271 0000146b ED27          BF        L340,NEQ              ; |3749| 
   10272                      ; branchcc occurs ; |3749| 
   10273                      .dwpsn  "ff.c",3751,3
TMS320C2000 COFF Assembler PC v4.1.3 Thu May 05 10:06:00 2011

Tools Copyright (c) 1996-2006 Texas Instruments Incorporated
C:\DOCUME~1\ADMINI~1\LOCALS~1\Temp\TI1122                            PAGE  198

   10274 0000146c 5CAD          MOVZ      AR4,SP                ; |3751| 
   10275 0000146d DCA2          SUBB      XAR4,#34              ; |3751| 
   10276 0000146e A848          MOVL      *-SP[8],XAR4          ; |3751| 
   10277                      .dwpsn  "ff.c",3752,3
   10278 0000146f 5CAD          MOVZ      AR4,SP                ; |3752| 
   10279 00001470 8342          MOVL      XAR5,*-SP[2]          ; |3752| 
   10280 00001471 DC94          SUBB      XAR4,#20              ; |3752| 
   10281 00001472 7640'         LCR       #_follow_path         ; |3752| 
         00001473 0722 
   10282                      ; call occurs [#_follow_path] ; |3752| 
   10283 00001474 9645          MOV       *-SP[5],AL            ; |3752| 
   10284                      .dwpsn  "ff.c",3754,3
   10285 00001475 6F01          B         L338,UNC              ; |3754| 
   10286                      ; branch occurs ; |3754| 
   10287              L338:    
   10288                      .dwpsn  "ff.c",3756,3
   10289 00001476 5200          CMPB      AL,#0                 ; |3756| 
   10290 00001477 ED1B          BF        L340,NEQ              ; |3756| 
   10291                      ; branchcc occurs ; |3756| 
   10292                      .dwpsn  "ff.c",3758,4
   10293 00001478 064A          MOVL      ACC,*-SP[10]          ; |3758| 
   10294 00001479 1E56          MOVL      *-SP[22],ACC          ; |3758| 
   10295                      .dwpsn  "ff.c",3759,4
   10296 0000147a 0656          MOVL      ACC,*-SP[22]          ; |3759| 
   10297 0000147b ED04          BF        L339,NEQ              ; |3759| 
   10298                      ; branchcc occurs ; |3759| 
   10299                      .dwpsn  "ff.c",3761,5
   10300 0000147c 9A06          MOVB      AL,#6                 ; |3761| 
   10301 0000147d 9645          MOV       *-SP[5],AL            ; |3761| 
   10302                      .dwpsn  "ff.c",3762,4
   10303 0000147e 6F14          B         L340,UNC              ; |3762| 
   10304                      ; branch occurs ; |3762| 
   10305              L339:    
   10306                      .dwpsn  "ff.c",3765,5
   10307 0000147f 1844          AND       *-SP[4],#0x0027       ; |3765| 
         00001480 0027 
   10308                      .dwpsn  "ff.c",3766,5
   10309 00001481 8A56          MOVL      XAR4,*-SP[22]         ; |3766| 
   10310 00001482 9244          MOV       AL,*-SP[4]            ; |3766| 
   10311 00001483 D00B          MOVB      XAR0,#11              ; |3766| 
   10312 00001484 FF5E          NOT       AL                    ; |3766| 
   10313 00001485 CE94          AND       AL,*+XAR4[AR0]        ; |3766| 
   10314 00001486 8A56          MOVL      XAR4,*-SP[22]         ; |3766| 
   10315 00001487 9344          MOV       AH,*-SP[4]            ; |3766| 
   10316 00001488 CF43          AND       AH,*-SP[3]            ; |3766| 
   10317 00001489 CAA8          OR        AL,AH                 ; |3766| 
   10318 0000148a 9694          MOV       *+XAR4[AR0],AL        ; |3766| 
   10319                      .dwpsn  "ff.c",3767,5
   10320 0000148b 8A54          MOVL      XAR4,*-SP[20]         ; |3767| 
   10321 0000148c 28E4          MOV       *+XAR4[4],#1          ; |3767| 
         0000148d 0001 
   10322                      .dwpsn  "ff.c",3768,5
   10323 0000148e 8A54          MOVL      XAR4,*-SP[20]         ; |3768| 
   10324 0000148f 7640'         LCR       #_sync                ; |3768| 
         00001490 00C8 
TMS320C2000 COFF Assembler PC v4.1.3 Thu May 05 10:06:00 2011

Tools Copyright (c) 1996-2006 Texas Instruments Incorporated
C:\DOCUME~1\ADMINI~1\LOCALS~1\Temp\TI1122                            PAGE  199

   10325                      ; call occurs [#_sync] ; |3768| 
   10326 00001491 9645          MOV       *-SP[5],AL            ; |3768| 
   10327              L340:    
   10328                      .dwpsn  "ff.c",3773,2
   10329 00001492 8A54          MOVL      XAR4,*-SP[20]         ; |3773| 
   10330 00001493 7640'         LCR       #_unlock_fs           ; |3773| 
         00001494 0064 
   10331                      ; call occurs [#_unlock_fs] ; |3773| 
   10332 00001495 9245          MOV       AL,*-SP[5]            ; |3773| 
   10333                      .dwpsn  "ff.c",3774,1
   10334 00001496 FEA2          SUBB      SP,#34                ; |3773| 
   10335                      .dwcfa  0x1d, -2
   10336 00001497 0006          LRETR
   10337                      ; return occurs
   10338                      .dwattr DW$551, DW_AT_end_file("ff.c")
   10339                      .dwattr DW$551, DW_AT_end_line(0xebe)
   10340                      .dwattr DW$551, DW_AT_end_column(0x01)
   10341                      .dwendentry
   10342                      .dwendtag DW$551
   10343              
   10344 00001498               .sect   ".text"
   10345                      .global _f_utime
   10346              
   10347              DW$562  .dwtag  DW_TAG_subprogram, DW_AT_name("f_utime"), DW_AT_symbol_name("_f_utime")
   10348                      .dwattr DW$562, DW_AT_low_pc(_f_utime)
   10349                      .dwattr DW$562, DW_AT_high_pc(0x00)
   10350                      .dwattr DW$562, DW_AT_begin_file("ff.c")
   10351                      .dwattr DW$562, DW_AT_begin_line(0xec7)
   10352                      .dwattr DW$562, DW_AT_begin_column(0x09)
   10353                      .dwpsn  "ff.c",3787,1
   10354              
   10355                      .dwfde DW$CIE
   10356              
   10357              ;***************************************************************
   10358              ;* FNAME: _f_utime                      FR SIZE:  34           *
   10359              ;*                                                             *
   10360              ;* FUNCTION ENVIRONMENT                                        *
   10361              ;*                                                             *
   10362              ;* FUNCTION PROPERTIES                                         *
   10363              ;*                            0 Parameter, 34 Auto,  0 SOE     *
   10364              ;***************************************************************
   10365              
   10366              _f_utime:
   10367                      .dwcfa  0x1d, -2
   10368                      .dwcfa  0x1c, 26, 0
   10369                      .dwcfa  0x09, 40, 26
   10370 00001498 FE22          ADDB      SP,#34
   10371                      .dwcfa  0x1d, -36
   10372              ;* AR4   assigned to _path
   10373              DW$563  .dwtag  DW_TAG_formal_parameter, DW_AT_name("path"), DW_AT_symbol_name("_path")
   10374                      .dwattr DW$563, DW_AT_type(*DW$T$93)
   10375                      .dwattr DW$563, DW_AT_location[DW_OP_reg12]
   10376              ;* AR5   assigned to _fno
   10377              DW$564  .dwtag  DW_TAG_formal_parameter, DW_AT_name("fno"), DW_AT_symbol_name("_fno")
   10378                      .dwattr DW$564, DW_AT_type(*DW$T$163)
TMS320C2000 COFF Assembler PC v4.1.3 Thu May 05 10:06:00 2011

Tools Copyright (c) 1996-2006 Texas Instruments Incorporated
C:\DOCUME~1\ADMINI~1\LOCALS~1\Temp\TI1122                            PAGE  200

   10379                      .dwattr DW$564, DW_AT_location[DW_OP_reg14]
   10380              DW$565  .dwtag  DW_TAG_variable, DW_AT_name("path"), DW_AT_symbol_name("_path")
   10381                      .dwattr DW$565, DW_AT_type(*DW$T$93)
   10382                      .dwattr DW$565, DW_AT_location[DW_OP_breg20 -2]
   10383              DW$566  .dwtag  DW_TAG_variable, DW_AT_name("fno"), DW_AT_symbol_name("_fno")
   10384                      .dwattr DW$566, DW_AT_type(*DW$T$163)
   10385                      .dwattr DW$566, DW_AT_location[DW_OP_breg20 -4]
   10386              DW$567  .dwtag  DW_TAG_variable, DW_AT_name("res"), DW_AT_symbol_name("_res")
   10387                      .dwattr DW$567, DW_AT_type(*DW$T$49)
   10388                      .dwattr DW$567, DW_AT_location[DW_OP_breg20 -5]
   10389              DW$568  .dwtag  DW_TAG_variable, DW_AT_name("dj"), DW_AT_symbol_name("_dj")
   10390                      .dwattr DW$568, DW_AT_type(*DW$T$52)
   10391                      .dwattr DW$568, DW_AT_location[DW_OP_breg20 -20]
   10392              DW$569  .dwtag  DW_TAG_variable, DW_AT_name("dir"), DW_AT_symbol_name("_dir")
   10393                      .dwattr DW$569, DW_AT_type(*DW$T$32)
   10394                      .dwattr DW$569, DW_AT_location[DW_OP_breg20 -22]
   10395              DW$570  .dwtag  DW_TAG_variable, DW_AT_name("sfn"), DW_AT_symbol_name("_sfn")
   10396                      .dwattr DW$570, DW_AT_type(*DW$T$66)
   10397                      .dwattr DW$570, DW_AT_location[DW_OP_breg20 -34]
   10398 00001499 A044          MOVL      *-SP[4],XAR5          ; |3787| 
   10399 0000149a A842          MOVL      *-SP[2],XAR4          ; |3787| 
   10400                      .dwpsn  "ff.c",3794,2
   10401 0000149b 5DAD          MOVZ      AR5,SP                ; |3794| 
   10402 0000149c 5CAD          MOVZ      AR4,SP                ; |3794| 
   10403 0000149d 9A01          MOVB      AL,#1                 ; |3794| 
   10404 0000149e DD94          SUBB      XAR5,#20              ; |3794| 
   10405 0000149f DC82          SUBB      XAR4,#2               ; |3794| 
   10406 000014a0 7640'         LCR       #_chk_mounted         ; |3794| 
         000014a1 07FC 
   10407                      ; call occurs [#_chk_mounted] ; |3794| 
   10408 000014a2 9645          MOV       *-SP[5],AL            ; |3794| 
   10409                      .dwpsn  "ff.c",3795,2
   10410 000014a3 5200          CMPB      AL,#0                 ; |3795| 
   10411 000014a4 ED31          BF        L343,NEQ              ; |3795| 
   10412                      ; branchcc occurs ; |3795| 
   10413                      .dwpsn  "ff.c",3797,3
   10414 000014a5 5CAD          MOVZ      AR4,SP                ; |3797| 
   10415 000014a6 DCA2          SUBB      XAR4,#34              ; |3797| 
   10416 000014a7 A848          MOVL      *-SP[8],XAR4          ; |3797| 
   10417                      .dwpsn  "ff.c",3798,3
   10418 000014a8 5CAD          MOVZ      AR4,SP                ; |3798| 
   10419 000014a9 8342          MOVL      XAR5,*-SP[2]          ; |3798| 
   10420 000014aa DC94          SUBB      XAR4,#20              ; |3798| 
   10421 000014ab 7640'         LCR       #_follow_path         ; |3798| 
         000014ac 0722 
   10422                      ; call occurs [#_follow_path] ; |3798| 
   10423 000014ad 9645          MOV       *-SP[5],AL            ; |3798| 
   10424                      .dwpsn  "ff.c",3800,3
   10425 000014ae 6F01          B         L341,UNC              ; |3800| 
   10426                      ; branch occurs ; |3800| 
   10427              L341:    
   10428                      .dwpsn  "ff.c",3802,3
   10429 000014af 5200          CMPB      AL,#0                 ; |3802| 
   10430 000014b0 ED25          BF        L343,NEQ              ; |3802| 
   10431                      ; branchcc occurs ; |3802| 
TMS320C2000 COFF Assembler PC v4.1.3 Thu May 05 10:06:00 2011

Tools Copyright (c) 1996-2006 Texas Instruments Incorporated
C:\DOCUME~1\ADMINI~1\LOCALS~1\Temp\TI1122                            PAGE  201

   10432                      .dwpsn  "ff.c",3804,4
   10433 000014b1 064A          MOVL      ACC,*-SP[10]          ; |3804| 
   10434 000014b2 1E56          MOVL      *-SP[22],ACC          ; |3804| 
   10435                      .dwpsn  "ff.c",3805,4
   10436 000014b3 0656          MOVL      ACC,*-SP[22]          ; |3805| 
   10437 000014b4 ED04          BF        L342,NEQ              ; |3805| 
   10438                      ; branchcc occurs ; |3805| 
   10439                      .dwpsn  "ff.c",3807,5
   10440 000014b5 9A06          MOVB      AL,#6                 ; |3807| 
   10441 000014b6 9645          MOV       *-SP[5],AL            ; |3807| 
   10442                      .dwpsn  "ff.c",3808,4
   10443 000014b7 6F1E          B         L343,UNC              ; |3808| 
   10444                      ; branch occurs ; |3808| 
   10445              L342:    
   10446                      .dwpsn  "ff.c",3811,5
   10447 000014b8 8A44          MOVL      XAR4,*-SP[4]          ; |3811| 
   10448 000014b9 8356          MOVL      XAR5,*-SP[22]         ; |3811| 
   10449 000014ba D016          MOVB      XAR0,#22              ; |3811| 
   10450 000014bb 92DC          MOV       AL,*+XAR4[3]          ; |3811| 
   10451 000014bc 9695          MOV       *+XAR5[AR0],AL        ; |3811| 
   10452 000014bd 8A44          MOVL      XAR4,*-SP[4]          ; |3811| 
   10453 000014be 8356          MOVL      XAR5,*-SP[22]         ; |3811| 
   10454 000014bf 92DC          MOV       AL,*+XAR4[3]          ; |3811| 
   10455 000014c0 D017          MOVB      XAR0,#23              ; |3811| 
   10456 000014c1 FFC7          LSR       AL,8                  ; |3811| 
   10457 000014c2 9695          MOV       *+XAR5[AR0],AL        ; |3811| 
   10458                      .dwpsn  "ff.c",3812,5
   10459 000014c3 8A44          MOVL      XAR4,*-SP[4]          ; |3812| 
   10460 000014c4 8356          MOVL      XAR5,*-SP[22]         ; |3812| 
   10461 000014c5 D018          MOVB      XAR0,#24              ; |3812| 
   10462 000014c6 92D4          MOV       AL,*+XAR4[2]          ; |3812| 
   10463 000014c7 9695          MOV       *+XAR5[AR0],AL        ; |3812| 
   10464 000014c8 8A44          MOVL      XAR4,*-SP[4]          ; |3812| 
   10465 000014c9 8356          MOVL      XAR5,*-SP[22]         ; |3812| 
   10466 000014ca 92D4          MOV       AL,*+XAR4[2]          ; |3812| 
   10467 000014cb D019          MOVB      XAR0,#25              ; |3812| 
   10468 000014cc FFC7          LSR       AL,8                  ; |3812| 
   10469 000014cd 9695          MOV       *+XAR5[AR0],AL        ; |3812| 
   10470                      .dwpsn  "ff.c",3813,5
   10471 000014ce 8A54          MOVL      XAR4,*-SP[20]         ; |3813| 
   10472 000014cf 28E4          MOV       *+XAR4[4],#1          ; |3813| 
         000014d0 0001 
   10473                      .dwpsn  "ff.c",3814,5
   10474 000014d1 8A54          MOVL      XAR4,*-SP[20]         ; |3814| 
   10475 000014d2 7640'         LCR       #_sync                ; |3814| 
         000014d3 00C8 
   10476                      ; call occurs [#_sync] ; |3814| 
   10477 000014d4 9645          MOV       *-SP[5],AL            ; |3814| 
   10478              L343:    
   10479                      .dwpsn  "ff.c",3819,2
   10480 000014d5 8A54          MOVL      XAR4,*-SP[20]         ; |3819| 
   10481 000014d6 7640'         LCR       #_unlock_fs           ; |3819| 
         000014d7 0064 
   10482                      ; call occurs [#_unlock_fs] ; |3819| 
   10483 000014d8 9245          MOV       AL,*-SP[5]            ; |3819| 
TMS320C2000 COFF Assembler PC v4.1.3 Thu May 05 10:06:00 2011

Tools Copyright (c) 1996-2006 Texas Instruments Incorporated
C:\DOCUME~1\ADMINI~1\LOCALS~1\Temp\TI1122                            PAGE  202

   10484                      .dwpsn  "ff.c",3820,1
   10485 000014d9 FEA2          SUBB      SP,#34                ; |3819| 
   10486                      .dwcfa  0x1d, -2
   10487 000014da 0006          LRETR
   10488                      ; return occurs
   10489                      .dwattr DW$562, DW_AT_end_file("ff.c")
   10490                      .dwattr DW$562, DW_AT_end_line(0xeec)
   10491                      .dwattr DW$562, DW_AT_end_column(0x01)
   10492                      .dwendentry
   10493                      .dwendtag DW$562
   10494              
   10495 000014db               .sect   ".text"
   10496                      .global _f_rename
   10497              
   10498              DW$571  .dwtag  DW_TAG_subprogram, DW_AT_name("f_rename"), DW_AT_symbol_name("_f_rename")
   10499                      .dwattr DW$571, DW_AT_low_pc(_f_rename)
   10500                      .dwattr DW$571, DW_AT_high_pc(0x00)
   10501                      .dwattr DW$571, DW_AT_begin_file("ff.c")
   10502                      .dwattr DW$571, DW_AT_begin_line(0xef5)
   10503                      .dwattr DW$571, DW_AT_begin_column(0x09)
   10504                      .dwpsn  "ff.c",3833,1
   10505              
   10506                      .dwfde DW$CIE
   10507              
   10508              ;***************************************************************
   10509              ;* FNAME: _f_rename                     FR SIZE:  74           *
   10510              ;*                                                             *
   10511              ;* FUNCTION ENVIRONMENT                                        *
   10512              ;*                                                             *
   10513              ;* FUNCTION PROPERTIES                                         *
   10514              ;*                            0 Parameter, 72 Auto,  2 SOE     *
   10515              ;***************************************************************
   10516              
   10517              _f_rename:
   10518                      .dwcfa  0x1d, -2
   10519                      .dwcfa  0x1c, 26, 0
   10520                      .dwcfa  0x09, 40, 26
   10521 000014db B2BD          MOVL      *SP++,XAR1
   10522                      .dwcfa  0x80, 7, 2
   10523                      .dwcfa  0x1d, -4
   10524 000014dc FE48          ADDB      SP,#72
   10525                      .dwcfa  0x1d, -76
   10526              ;* AR4   assigned to _path_old
   10527              DW$572  .dwtag  DW_TAG_formal_parameter, DW_AT_name("path_old"), DW_AT_symbol_name("_path_old")
   10528                      .dwattr DW$572, DW_AT_type(*DW$T$93)
   10529                      .dwattr DW$572, DW_AT_location[DW_OP_reg12]
   10530              ;* AR5   assigned to _path_new
   10531              DW$573  .dwtag  DW_TAG_formal_parameter, DW_AT_name("path_new"), DW_AT_symbol_name("_path_new")
   10532                      .dwattr DW$573, DW_AT_type(*DW$T$93)
   10533                      .dwattr DW$573, DW_AT_location[DW_OP_reg14]
   10534              DW$574  .dwtag  DW_TAG_variable, DW_AT_name("path_old"), DW_AT_symbol_name("_path_old")
   10535                      .dwattr DW$574, DW_AT_type(*DW$T$93)
   10536                      .dwattr DW$574, DW_AT_location[DW_OP_breg20 -2]
   10537              DW$575  .dwtag  DW_TAG_variable, DW_AT_name("path_new"), DW_AT_symbol_name("_path_new")
   10538                      .dwattr DW$575, DW_AT_type(*DW$T$93)
TMS320C2000 COFF Assembler PC v4.1.3 Thu May 05 10:06:00 2011

Tools Copyright (c) 1996-2006 Texas Instruments Incorporated
C:\DOCUME~1\ADMINI~1\LOCALS~1\Temp\TI1122                            PAGE  203

   10539                      .dwattr DW$575, DW_AT_location[DW_OP_breg20 -4]
   10540              DW$576  .dwtag  DW_TAG_variable, DW_AT_name("res"), DW_AT_symbol_name("_res")
   10541                      .dwattr DW$576, DW_AT_type(*DW$T$49)
   10542                      .dwattr DW$576, DW_AT_location[DW_OP_breg20 -5]
   10543              DW$577  .dwtag  DW_TAG_variable, DW_AT_name("djo"), DW_AT_symbol_name("_djo")
   10544                      .dwattr DW$577, DW_AT_type(*DW$T$52)
   10545                      .dwattr DW$577, DW_AT_location[DW_OP_breg20 -20]
   10546              DW$578  .dwtag  DW_TAG_variable, DW_AT_name("djn"), DW_AT_symbol_name("_djn")
   10547                      .dwattr DW$578, DW_AT_type(*DW$T$52)
   10548                      .dwattr DW$578, DW_AT_location[DW_OP_breg20 -34]
   10549              DW$579  .dwtag  DW_TAG_variable, DW_AT_name("buf"), DW_AT_symbol_name("_buf")
   10550                      .dwattr DW$579, DW_AT_type(*DW$T$68)
   10551                      .dwattr DW$579, DW_AT_location[DW_OP_breg20 -55]
   10552              DW$580  .dwtag  DW_TAG_variable, DW_AT_name("dir"), DW_AT_symbol_name("_dir")
   10553                      .dwattr DW$580, DW_AT_type(*DW$T$32)
   10554                      .dwattr DW$580, DW_AT_location[DW_OP_breg20 -58]
   10555              DW$581  .dwtag  DW_TAG_variable, DW_AT_name("dw"), DW_AT_symbol_name("_dw")
   10556                      .dwattr DW$581, DW_AT_type(*DW$T$27)
   10557                      .dwattr DW$581, DW_AT_location[DW_OP_breg20 -60]
   10558              DW$582  .dwtag  DW_TAG_variable, DW_AT_name("sfn"), DW_AT_symbol_name("_sfn")
   10559                      .dwattr DW$582, DW_AT_type(*DW$T$66)
   10560                      .dwattr DW$582, DW_AT_location[DW_OP_breg20 -72]
   10561 000014dd A044          MOVL      *-SP[4],XAR5          ; |3833| 
   10562 000014de A842          MOVL      *-SP[2],XAR4          ; |3833| 
   10563                      .dwpsn  "ff.c",3841,2
   10564 000014df 5DAD          MOVZ      AR5,SP                ; |3841| 
   10565 000014e0 5CAD          MOVZ      AR4,SP                ; |3841| 
   10566 000014e1 9A01          MOVB      AL,#1                 ; |3841| 
   10567 000014e2 DD94          SUBB      XAR5,#20              ; |3841| 
   10568 000014e3 DC82          SUBB      XAR4,#2               ; |3841| 
   10569 000014e4 7640'         LCR       #_chk_mounted         ; |3841| 
         000014e5 07FC 
   10570                      ; call occurs [#_chk_mounted] ; |3841| 
   10571 000014e6 9645          MOV       *-SP[5],AL            ; |3841| 
   10572                      .dwpsn  "ff.c",3842,2
   10573 000014e7 5200          CMPB      AL,#0                 ; |3842| 
   10574 000014e8 56C0          BF        L351,NEQ              ; |3842| 
         000014e9 00A7 
   10575                      ; branchcc occurs ; |3842| 
   10576                      .dwpsn  "ff.c",3844,3
   10577 000014ea 0654          MOVL      ACC,*-SP[20]          ; |3844| 
   10578 000014eb 1E62          MOVL      *-SP[34],ACC          ; |3844| 
   10579                      .dwpsn  "ff.c",3845,3
   10580 000014ec 5CAD          MOVZ      AR4,SP                ; |3845| 
   10581 000014ed DCC8          SUBB      XAR4,#72              ; |3845| 
   10582 000014ee A848          MOVL      *-SP[8],XAR4          ; |3845| 
   10583                      .dwpsn  "ff.c",3846,3
   10584 000014ef 5CAD          MOVZ      AR4,SP                ; |3846| 
   10585 000014f0 8342          MOVL      XAR5,*-SP[2]          ; |3846| 
   10586 000014f1 DC94          SUBB      XAR4,#20              ; |3846| 
   10587 000014f2 7640'         LCR       #_follow_path         ; |3846| 
         000014f3 0722 
   10588                      ; call occurs [#_follow_path] ; |3846| 
   10589 000014f4 9645          MOV       *-SP[5],AL            ; |3846| 
   10590                      .dwpsn  "ff.c",3847,3
TMS320C2000 COFF Assembler PC v4.1.3 Thu May 05 10:06:00 2011

Tools Copyright (c) 1996-2006 Texas Instruments Incorporated
C:\DOCUME~1\ADMINI~1\LOCALS~1\Temp\TI1122                            PAGE  204

   10591 000014f5 6F01          B         L344,UNC              ; |3847| 
   10592                      ; branch occurs ; |3847| 
   10593              L344:    
   10594                      .dwpsn  "ff.c",3852,3
   10595 000014f6 5200          CMPB      AL,#0                 ; |3852| 
   10596 000014f7 56C0          BF        L351,NEQ              ; |3852| 
         000014f8 0098 
   10597                      ; branchcc occurs ; |3852| 
   10598                      .dwpsn  "ff.c",3854,4
   10599 000014f9 064A          MOVL      ACC,*-SP[10]          ; |3854| 
   10600 000014fa ED05          BF        L345,NEQ              ; |3854| 
   10601                      ; branchcc occurs ; |3854| 
   10602                      .dwpsn  "ff.c",3856,5
   10603 000014fb 9A04          MOVB      AL,#4                 ; |3856| 
   10604 000014fc 9645          MOV       *-SP[5],AL            ; |3856| 
   10605                      .dwpsn  "ff.c",3857,4
   10606 000014fd FFEF          B         L351,UNC              ; |3857| 
         000014fe 0092 
   10607                      ; branch occurs ; |3857| 
   10608              L345:    
   10609                      .dwpsn  "ff.c",3860,5
   10610 000014ff 5CAD          MOVZ      AR4,SP                ; |3860| 
   10611 00001500 834A          MOVL      XAR5,*-SP[10]         ; |3860| 
   10612 00001501 9A15          MOVB      AL,#21                ; |3860| 
   10613 00001502 DCB7          SUBB      XAR4,#55              ; |3860| 
   10614 00001503 DD0B          ADDB      XAR5,#11              ; |3860| 
   10615 00001504 7640'         LCR       #_mem_cpy             ; |3860| 
         00001505 0000 
   10616                      ; call occurs [#_mem_cpy] ; |3860| 
   10617                      .dwpsn  "ff.c",3861,5
   10618 00001506 5DAD          MOVZ      AR5,SP                ; |3861| 
   10619 00001507 5CAD          MOVZ      AR4,SP                ; |3861| 
   10620 00001508 9A0E          MOVB      AL,#14                ; |3861| 
   10621 00001509 DD94          SUBB      XAR5,#20              ; |3861| 
   10622 0000150a DCA2          SUBB      XAR4,#34              ; |3861| 
   10623 0000150b 7640'         LCR       #_mem_cpy             ; |3861| 
         0000150c 0000 
   10624                      ; call occurs [#_mem_cpy] ; |3861| 
   10625                      .dwpsn  "ff.c",3862,5
   10626 0000150d 5CAD          MOVZ      AR4,SP                ; |3862| 
   10627 0000150e 8344          MOVL      XAR5,*-SP[4]          ; |3862| 
   10628 0000150f DCA2          SUBB      XAR4,#34              ; |3862| 
   10629 00001510 7640'         LCR       #_follow_path         ; |3862| 
         00001511 0722 
   10630                      ; call occurs [#_follow_path] ; |3862| 
   10631 00001512 9645          MOV       *-SP[5],AL            ; |3862| 
   10632                      .dwpsn  "ff.c",3863,5
   10633 00001513 5200          CMPB      AL,#0                 ; |3863| 
   10634 00001514 ED03          BF        L346,NEQ              ; |3863| 
   10635                      ; branchcc occurs ; |3863| 
   10636                      .dwpsn  "ff.c",3863,25
   10637 00001515 9A08          MOVB      AL,#8                 ; |3863| 
   10638 00001516 9645          MOV       *-SP[5],AL            ; |3863| 
   10639              L346:    
   10640                      .dwpsn  "ff.c",3864,5
TMS320C2000 COFF Assembler PC v4.1.3 Thu May 05 10:06:00 2011

Tools Copyright (c) 1996-2006 Texas Instruments Incorporated
C:\DOCUME~1\ADMINI~1\LOCALS~1\Temp\TI1122                            PAGE  205

   10641 00001517 5204          CMPB      AL,#4                 ; |3864| 
   10642 00001518 ED77          BF        L351,NEQ              ; |3864| 
   10643                      ; branchcc occurs ; |3864| 
   10644                      .dwpsn  "ff.c",3867,6
   10645 00001519 5CAD          MOVZ      AR4,SP                ; |3867| 
   10646 0000151a DCA2          SUBB      XAR4,#34              ; |3867| 
   10647 0000151b 7640'         LCR       #_dir_register        ; |3867| 
         0000151c 0573 
   10648                      ; call occurs [#_dir_register] ; |3867| 
   10649 0000151d 9645          MOV       *-SP[5],AL            ; |3867| 
   10650                      .dwpsn  "ff.c",3868,6
   10651 0000151e 5200          CMPB      AL,#0                 ; |3868| 
   10652 0000151f ED70          BF        L351,NEQ              ; |3868| 
   10653                      ; branchcc occurs ; |3868| 
   10654                      .dwpsn  "ff.c",3870,7
   10655 00001520 0658          MOVL      ACC,*-SP[24]          ; |3870| 
   10656 00001521 1E7A          MOVL      *-SP[58],ACC          ; |3870| 
   10657                      .dwpsn  "ff.c",3871,7
   10658 00001522 5DAD          MOVZ      AR5,SP                ; |3871| 
   10659 00001523 8A7A          MOVL      XAR4,*-SP[58]         ; |3871| 
   10660 00001524 9A13          MOVB      AL,#19                ; |3871| 
   10661 00001525 DDB5          SUBB      XAR5,#53              ; |3871| 
   10662 00001526 DC0D          ADDB      XAR4,#13              ; |3871| 
   10663 00001527 7640'         LCR       #_mem_cpy             ; |3871| 
         00001528 0000 
   10664                      ; call occurs [#_mem_cpy] ; |3871| 
   10665                      .dwpsn  "ff.c",3872,7
   10666 00001529 8A7A          MOVL      XAR4,*-SP[58]         ; |3872| 
   10667 0000152a 9277          MOV       AL,*-SP[55]           ; |3872| 
   10668 0000152b D00B          MOVB      XAR0,#11              ; |3872| 
   10669 0000152c 5020          ORB       AL,#0x20              ; |3872| 
   10670 0000152d 9694          MOV       *+XAR4[AR0],AL        ; |3872| 
   10671                      .dwpsn  "ff.c",3873,7
   10672 0000152e 8A54          MOVL      XAR4,*-SP[20]         ; |3873| 
   10673 0000152f 28E4          MOV       *+XAR4[4],#1          ; |3873| 
         00001530 0001 
   10674                      .dwpsn  "ff.c",3874,7
   10675 00001531 065E          MOVL      ACC,*-SP[30]          ; |3874| 
   10676 00001532 0F50          CMPL      ACC,*-SP[16]          ; |3874| 
   10677 00001533 EC4F          BF        L350,EQ               ; |3874| 
   10678                      ; branchcc occurs ; |3874| 
   10679 00001534 8A7A          MOVL      XAR4,*-SP[58]         ; |3874| 
   10680 00001535 4494          TBIT      *+XAR4[AR0],#4        ; |3874| 
   10681 00001536 EF4C          BF        L350,NTC              ; |3874| 
   10682                      ; branchcc occurs ; |3874| 
   10683                      .dwpsn  "ff.c",3876,8
   10684 00001537 837A          MOVL      XAR5,*-SP[58]         ; |3876| 
   10685 00001538 8A7A          MOVL      XAR4,*-SP[58]         ; |3876| 
   10686 00001539 D11B          MOVB      XAR1,#27              ; |3876| 
   10687 0000153a D01A          MOVB      XAR0,#26              ; |3876| 
   10688 0000153b 5603          MOV       ACC,*+XAR5[AR1] << #8 ; |3876| 
         0000153c 089D 
   10689 0000153d CA94          OR        AL,*+XAR4[AR0]        ; |3876| 
   10690 0000153e D115          MOVB      XAR1,#21              ; |3876| 
   10691 0000153f 837A          MOVL      XAR5,*-SP[58]         ; |3876| 
TMS320C2000 COFF Assembler PC v4.1.3 Thu May 05 10:06:00 2011

Tools Copyright (c) 1996-2006 Texas Instruments Incorporated
C:\DOCUME~1\ADMINI~1\LOCALS~1\Temp\TI1122                            PAGE  206

   10692 00001540 88A9          MOVZ      AR6,AL                ; |3876| 
   10693 00001541 8A7A          MOVL      XAR4,*-SP[58]         ; |3876| 
   10694 00001542 D014          MOVB      XAR0,#20              ; |3876| 
   10695 00001543 2901          CLRC      SXM
   10696 00001544 5603          MOV       ACC,*+XAR5[AR1] << #8 ; |3876| 
         00001545 089D 
   10697 00001546 CA94          OR        AL,*+XAR4[AR0]        ; |3876| 
   10698 00001547 8A62          MOVL      XAR4,*-SP[34]         ; |3876| 
   10699 00001548 25A9          MOV       ACC,AL << 16          ; |3876| 
   10700 00001549 AFA6          OR        ACC,AR6               ; |3876| 
   10701 0000154a 7640'         LCR       #_clust2sect          ; |3876| 
         0000154b 016E 
   10702                      ; call occurs [#_clust2sect] ; |3876| 
   10703 0000154c 1E7C          MOVL      *-SP[60],ACC          ; |3876| 
   10704                      .dwpsn  "ff.c",3877,8
   10705 0000154d 067C          MOVL      ACC,*-SP[60]          ; |3877| 
   10706 0000154e ED04          BF        L347,NEQ              ; |3877| 
   10707                      ; branchcc occurs ; |3877| 
   10708                      .dwpsn  "ff.c",3879,9
   10709 0000154f 2845          MOV       *-SP[5],#2            ; |3879| 
         00001550 0002 
   10710                      .dwpsn  "ff.c",3880,8
   10711 00001551 6F31          B         L350,UNC              ; |3880| 
   10712                      ; branch occurs ; |3880| 
   10713              L347:    
   10714                      .dwpsn  "ff.c",3883,9
   10715 00001552 8A62          MOVL      XAR4,*-SP[34]         ; |3883| 
   10716 00001553 067C          MOVL      ACC,*-SP[60]          ; |3883| 
   10717 00001554 7640'         LCR       #_move_window         ; |3883| 
         00001555 0077 
   10718                      ; call occurs [#_move_window] ; |3883| 
   10719 00001556 9645          MOV       *-SP[5],AL            ; |3883| 
   10720                      .dwpsn  "ff.c",3884,9
   10721 00001557 0662          MOVL      ACC,*-SP[34]          ; |3884| 
   10722 00001558 093C          ADDB      ACC,#60               ; |3884| 
   10723 00001559 1E7A          MOVL      *-SP[58],ACC          ; |3884| 
   10724                      .dwpsn  "ff.c",3885,9
   10725 0000155a 9245          MOV       AL,*-SP[5]            ; |3885| 
   10726 0000155b ED27          BF        L350,NEQ              ; |3885| 
   10727                      ; branchcc occurs ; |3885| 
   10728 0000155c 8A7A          MOVL      XAR4,*-SP[58]         ; |3885| 
   10729 0000155d 92CC          MOV       AL,*+XAR4[1]          ; |3885| 
   10730 0000155e 522E          CMPB      AL,#46                ; |3885| 
   10731 0000155f ED23          BF        L350,NEQ              ; |3885| 
   10732                      ; branchcc occurs ; |3885| 
   10733                      .dwpsn  "ff.c",3887,10
   10734 00001560 8A62          MOVL      XAR4,*-SP[34]         ; |3887| 
   10735 00001561 92C4          MOV       AL,*+XAR4[0]          ; |3887| 
   10736 00001562 5203          CMPB      AL,#3                 ; |3887| 
   10737 00001563 ED08          BF        L348,NEQ              ; |3887| 
   10738                      ; branchcc occurs ; |3887| 
   10739 00001564 8A62          MOVL      XAR4,*-SP[34]         ; |3887| 
   10740 00001565 D016          MOVB      XAR0,#22              ; |3887| 
   10741 00001566 0694          MOVL      ACC,*+XAR4[AR0]       ; |3887| 
   10742 00001567 0F5E          CMPL      ACC,*-SP[30]          ; |3887| 
TMS320C2000 COFF Assembler PC v4.1.3 Thu May 05 10:06:00 2011

Tools Copyright (c) 1996-2006 Texas Instruments Incorporated
C:\DOCUME~1\ADMINI~1\LOCALS~1\Temp\TI1122                            PAGE  207

   10743 00001568 ED03          BF        L348,NEQ              ; |3887| 
   10744                      ; branchcc occurs ; |3887| 
   10745 00001569 0200          MOVB      ACC,#0
   10746 0000156a 6F02          B         L349,UNC              ; |3887| 
   10747                      ; branch occurs ; |3887| 
   10748 0000156b       L348:    
   10749 0000156b 065E          MOVL      ACC,*-SP[30]          ; |3887| 
   10750 0000156c       L349:    
   10751 0000156c 1E7C          MOVL      *-SP[60],ACC          ; |3887| 
   10752                      .dwpsn  "ff.c",3888,10
   10753 0000156d 8A7A          MOVL      XAR4,*-SP[58]         ; |3888| 
   10754 0000156e D01A          MOVB      XAR0,#26              ; |3888| 
   10755 0000156f 927C          MOV       AL,*-SP[60]           ; |3888| 
   10756 00001570 9694          MOV       *+XAR4[AR0],AL        ; |3888| 
   10757 00001571 8A7A          MOVL      XAR4,*-SP[58]         ; |3888| 
   10758 00001572 927C          MOV       AL,*-SP[60]           ; |3888| 
   10759 00001573 D01B          MOVB      XAR0,#27              ; |3888| 
   10760 00001574 FFC7          LSR       AL,8                  ; |3888| 
   10761 00001575 9694          MOV       *+XAR4[AR0],AL        ; |3888| 
   10762 00001576 8A7A          MOVL      XAR4,*-SP[58]         ; |3888| 
   10763 00001577 D014          MOVB      XAR0,#20              ; |3888| 
   10764 00001578 067C          MOVL      ACC,*-SP[60]          ; |3888| 
   10765 00001579 9794          MOVH      *+XAR4[AR0],ACC << 0  ; |3888| 
   10766 0000157a 8A7A          MOVL      XAR4,*-SP[58]         ; |3888| 
   10767 0000157b 067C          MOVL      ACC,*-SP[60]          ; |3888| 
   10768 0000157c D015          MOVB      XAR0,#21              ; |3888| 
   10769 0000157d FFD7          LSR       AH,8                  ; |3888| 
   10770 0000157e 9794          MOV       *+XAR4[AR0],AH        ; |3888| 
   10771                      .dwpsn  "ff.c",3889,10
   10772 0000157f 8A62          MOVL      XAR4,*-SP[34]         ; |3889| 
   10773 00001580 28E4          MOV       *+XAR4[4],#1          ; |3889| 
         00001581 0001 
   10774              L350:    
   10775                      .dwpsn  "ff.c",3893,7
   10776 00001582 9245          MOV       AL,*-SP[5]            ; |3893| 
   10777 00001583 ED0C          BF        L351,NEQ              ; |3893| 
   10778                      ; branchcc occurs ; |3893| 
   10779                      .dwpsn  "ff.c",3895,8
   10780 00001584 5CAD          MOVZ      AR4,SP                ; |3895| 
   10781 00001585 DC94          SUBB      XAR4,#20              ; |3895| 
   10782 00001586 7640'         LCR       #_dir_remove          ; |3895| 
         00001587 05BA 
   10783                      ; call occurs [#_dir_remove] ; |3895| 
   10784 00001588 9645          MOV       *-SP[5],AL            ; |3895| 
   10785                      .dwpsn  "ff.c",3896,8
   10786 00001589 5200          CMPB      AL,#0                 ; |3896| 
   10787 0000158a ED05          BF        L351,NEQ              ; |3896| 
   10788                      ; branchcc occurs ; |3896| 
   10789                      .dwpsn  "ff.c",3897,9
   10790 0000158b 8A54          MOVL      XAR4,*-SP[20]         ; |3897| 
   10791 0000158c 7640'         LCR       #_sync                ; |3897| 
         0000158d 00C8 
   10792                      ; call occurs [#_sync] ; |3897| 
   10793 0000158e 9645          MOV       *-SP[5],AL            ; |3897| 
   10794              L351:    
TMS320C2000 COFF Assembler PC v4.1.3 Thu May 05 10:06:00 2011

Tools Copyright (c) 1996-2006 Texas Instruments Incorporated
C:\DOCUME~1\ADMINI~1\LOCALS~1\Temp\TI1122                            PAGE  208

   10795                      .dwpsn  "ff.c",3906,2
   10796 0000158f 8A54          MOVL      XAR4,*-SP[20]         ; |3906| 
   10797 00001590 7640'         LCR       #_unlock_fs           ; |3906| 
         00001591 0064 
   10798                      ; call occurs [#_unlock_fs] ; |3906| 
   10799 00001592 9245          MOV       AL,*-SP[5]            ; |3906| 
   10800                      .dwpsn  "ff.c",3907,1
   10801 00001593 FEC8          SUBB      SP,#72                ; |3906| 
   10802                      .dwcfa  0x1d, -4
   10803 00001594 8BBE          MOVL      XAR1,*--SP            ; |3906| 
   10804                      .dwcfa  0x1d, -2
   10805                      .dwcfa  0xc0, 7
   10806 00001595 0006          LRETR
   10807                      ; return occurs
   10808                      .dwattr DW$571, DW_AT_end_file("ff.c")
   10809                      .dwattr DW$571, DW_AT_end_line(0xf43)
   10810                      .dwattr DW$571, DW_AT_end_column(0x01)
   10811                      .dwendentry
   10812                      .dwendtag DW$571
   10813              
   10814 00001596               .sect   ".text"
   10815                      .global _f_gets
   10816              
   10817              DW$583  .dwtag  DW_TAG_subprogram, DW_AT_name("f_gets"), DW_AT_symbol_name("_f_gets")
   10818                      .dwattr DW$583, DW_AT_low_pc(_f_gets)
   10819                      .dwattr DW$583, DW_AT_high_pc(0x00)
   10820                      .dwattr DW$583, DW_AT_begin_file("ff.c")
   10821                      .dwattr DW$583, DW_AT_begin_line(0x108a)
   10822                      .dwattr DW$583, DW_AT_begin_column(0x08)
   10823                      .dwpsn  "ff.c",4239,1
   10824              
   10825                      .dwfde DW$CIE
   10826              
   10827              ;***************************************************************
   10828              ;* FNAME: _f_gets                       FR SIZE:  16           *
   10829              ;*                                                             *
   10830              ;* FUNCTION ENVIRONMENT                                        *
   10831              ;*                                                             *
   10832              ;* FUNCTION PROPERTIES                                         *
   10833              ;*                            2 Parameter, 13 Auto,  0 SOE     *
   10834              ;***************************************************************
   10835              
   10836              _f_gets:
   10837                      .dwcfa  0x1d, -2
   10838                      .dwcfa  0x1c, 26, 0
   10839                      .dwcfa  0x09, 40, 26
   10840 00001596 FE10          ADDB      SP,#16
   10841                      .dwcfa  0x1d, -18
   10842              ;* AR4   assigned to _buff
   10843              DW$584  .dwtag  DW_TAG_formal_parameter, DW_AT_name("buff"), DW_AT_symbol_name("_buff")
   10844                      .dwattr DW$584, DW_AT_type(*DW$T$117)
   10845                      .dwattr DW$584, DW_AT_location[DW_OP_reg12]
   10846              ;* AL    assigned to _len
   10847              DW$585  .dwtag  DW_TAG_formal_parameter, DW_AT_name("len"), DW_AT_symbol_name("_len")
   10848                      .dwattr DW$585, DW_AT_type(*DW$T$10)
TMS320C2000 COFF Assembler PC v4.1.3 Thu May 05 10:06:00 2011

Tools Copyright (c) 1996-2006 Texas Instruments Incorporated
C:\DOCUME~1\ADMINI~1\LOCALS~1\Temp\TI1122                            PAGE  209

   10849                      .dwattr DW$585, DW_AT_location[DW_OP_reg0]
   10850              ;* AR5   assigned to _fil
   10851              DW$586  .dwtag  DW_TAG_formal_parameter, DW_AT_name("fil"), DW_AT_symbol_name("_fil")
   10852                      .dwattr DW$586, DW_AT_type(*DW$T$89)
   10853                      .dwattr DW$586, DW_AT_location[DW_OP_reg14]
   10854              DW$587  .dwtag  DW_TAG_variable, DW_AT_name("buff"), DW_AT_symbol_name("_buff")
   10855                      .dwattr DW$587, DW_AT_type(*DW$T$117)
   10856                      .dwattr DW$587, DW_AT_location[DW_OP_breg20 -4]
   10857              DW$588  .dwtag  DW_TAG_variable, DW_AT_name("len"), DW_AT_symbol_name("_len")
   10858                      .dwattr DW$588, DW_AT_type(*DW$T$10)
   10859                      .dwattr DW$588, DW_AT_location[DW_OP_breg20 -5]
   10860              DW$589  .dwtag  DW_TAG_variable, DW_AT_name("fil"), DW_AT_symbol_name("_fil")
   10861                      .dwattr DW$589, DW_AT_type(*DW$T$89)
   10862                      .dwattr DW$589, DW_AT_location[DW_OP_breg20 -8]
   10863              DW$590  .dwtag  DW_TAG_variable, DW_AT_name("n"), DW_AT_symbol_name("_n")
   10864                      .dwattr DW$590, DW_AT_type(*DW$T$10)
   10865                      .dwattr DW$590, DW_AT_location[DW_OP_breg20 -9]
   10866              DW$591  .dwtag  DW_TAG_variable, DW_AT_name("c"), DW_AT_symbol_name("_c")
   10867                      .dwattr DW$591, DW_AT_type(*DW$T$35)
   10868                      .dwattr DW$591, DW_AT_location[DW_OP_breg20 -10]
   10869              DW$592  .dwtag  DW_TAG_variable, DW_AT_name("p"), DW_AT_symbol_name("_p")
   10870                      .dwattr DW$592, DW_AT_type(*DW$T$117)
   10871                      .dwattr DW$592, DW_AT_location[DW_OP_breg20 -12]
   10872              DW$593  .dwtag  DW_TAG_variable, DW_AT_name("s"), DW_AT_symbol_name("_s")
   10873                      .dwattr DW$593, DW_AT_type(*DW$T$70)
   10874                      .dwattr DW$593, DW_AT_location[DW_OP_breg20 -14]
   10875              DW$594  .dwtag  DW_TAG_variable, DW_AT_name("rc"), DW_AT_symbol_name("_rc")
   10876                      .dwattr DW$594, DW_AT_type(*DW$T$43)
   10877                      .dwattr DW$594, DW_AT_location[DW_OP_breg20 -15]
   10878 00001597 A048          MOVL      *-SP[8],XAR5          ; |4239| 
   10879 00001598 9645          MOV       *-SP[5],AL            ; |4239| 
   10880 00001599 A844          MOVL      *-SP[4],XAR4          ; |4239| 
   10881                      .dwpsn  "ff.c",4240,6
   10882 0000159a 2B49          MOV       *-SP[9],#0            ; |4240| 
   10883                      .dwpsn  "ff.c",4241,12
   10884 0000159b 0644          MOVL      ACC,*-SP[4]           ; |4241| 
   10885 0000159c 1E4C          MOVL      *-SP[12],ACC          ; |4241| 
   10886                      .dwpsn  "ff.c",4246,2
   10887 0000159d 6F19          B         L353,UNC              ; |4246| 
   10888                      ; branch occurs ; |4246| 
   10889              L352:    
   10890              DW$L$_f_gets$2$B:
   10891                      .dwpsn  "ff.c",4248,3
   10892 0000159e 5CAD          MOVZ      AR4,SP                ; |4248| 
   10893 0000159f 5DAD          MOVZ      AR5,SP                ; |4248| 
   10894 000015a0 DC8F          SUBB      XAR4,#15              ; |4248| 
   10895 000015a1 A842          MOVL      *-SP[2],XAR4          ; |4248| 
   10896 000015a2 8A48          MOVL      XAR4,*-SP[8]          ; |4248| 
   10897 000015a3 9A01          MOVB      AL,#1                 ; |4248| 
   10898 000015a4 DD8E          SUBB      XAR5,#14              ; |4248| 
   10899 000015a5 7640'         LCR       #_f_read              ; |4248| 
         000015a6 0C2F 
   10900                      ; call occurs [#_f_read] ; |4248| 
   10901                      .dwpsn  "ff.c",4249,3
   10902 000015a7 924F          MOV       AL,*-SP[15]           ; |4249| 
TMS320C2000 COFF Assembler PC v4.1.3 Thu May 05 10:06:00 2011

Tools Copyright (c) 1996-2006 Texas Instruments Incorporated
C:\DOCUME~1\ADMINI~1\LOCALS~1\Temp\TI1122                            PAGE  210

   10903 000015a8 5201          CMPB      AL,#1                 ; |4249| 
   10904 000015a9 ED11          BF        L354,NEQ              ; |4249| 
   10905                      ; branchcc occurs ; |4249| 
   10906              DW$L$_f_gets$2$E:
   10907              DW$L$_f_gets$3$B:
   10908                      .dwpsn  "ff.c",4249,18
   10909                      .dwpsn  "ff.c",4250,3
   10910 000015aa 924E          MOV       AL,*-SP[14]           ; |4250| 
   10911 000015ab 964A          MOV       *-SP[10],AL           ; |4250| 
   10912                      .dwpsn  "ff.c",4281,3
   10913 000015ac 8A4C          MOVL      XAR4,*-SP[12]         ; |4281| 
   10914 000015ad 0201          MOVB      ACC,#1
   10915 000015ae 07A4          ADDL      ACC,XAR4
   10916 000015af 1E4C          MOVL      *-SP[12],ACC          ; |4281| 
   10917 000015b0 924A          MOV       AL,*-SP[10]           ; |4281| 
   10918 000015b1 96C4          MOV       *+XAR4[0],AL          ; |4281| 
   10919                      .dwpsn  "ff.c",4282,3
   10920 000015b2 0A49          INC       *-SP[9]               ; |4282| 
   10921                      .dwpsn  "ff.c",4283,3
   10922 000015b3 924A          MOV       AL,*-SP[10]           ; |4283| 
   10923 000015b4 520A          CMPB      AL,#10                ; |4283| 
   10924 000015b5 EC05          BF        L354,EQ               ; |4283| 
   10925                      ; branchcc occurs ; |4283| 
   10926              DW$L$_f_gets$3$E:
   10927              DW$L$_f_gets$4$B:
   10928                      .dwpsn  "ff.c",4283,20
   10929              DW$L$_f_gets$4$E:
   10930              L353:    
   10931              DW$L$_f_gets$5$B:
   10932                      .dwpsn  "ff.c",4246,10
   10933 000015b6 9245          MOV       AL,*-SP[5]            ; |4246| 
   10934 000015b7 9CFF          ADDB      AL,#-1
   10935 000015b8 5449          CMP       AL,*-SP[9]            ; |4246| 
   10936 000015b9 62E5          B         L352,GT               ; |4246| 
   10937                      ; branchcc occurs ; |4246| 
   10938              DW$L$_f_gets$5$E:
   10939              L354:    
   10940                      .dwpsn  "ff.c",4285,2
   10941 000015ba 8A4C          MOVL      XAR4,*-SP[12]         ; |4285| 
   10942 000015bb 2BC4          MOV       *+XAR4[0],#0          ; |4285| 
   10943                      .dwpsn  "ff.c",4286,2
   10944 000015bc 9249          MOV       AL,*-SP[9]            ; |4286| 
   10945 000015bd EC03          BF        L355,EQ               ; |4286| 
   10946                      ; branchcc occurs ; |4286| 
   10947 000015be 8A44          MOVL      XAR4,*-SP[4]          ; |4286| 
   10948 000015bf 6F02          B         L356,UNC              ; |4286| 
   10949                      ; branch occurs ; |4286| 
   10950 000015c0       L355:    
   10951 000015c0 D400          MOVB      XAR4,#0
   10952              L356:    
   10953                      .dwpsn  "ff.c",4287,1
   10954 000015c1 FE90          SUBB      SP,#16                ; |4286| 
   10955                      .dwcfa  0x1d, -2
   10956 000015c2 0006          LRETR
   10957                      ; return occurs
TMS320C2000 COFF Assembler PC v4.1.3 Thu May 05 10:06:00 2011

Tools Copyright (c) 1996-2006 Texas Instruments Incorporated
C:\DOCUME~1\ADMINI~1\LOCALS~1\Temp\TI1122                            PAGE  211

   10958              
   10959              DW$595  .dwtag  DW_TAG_loop
   10960                      .dwattr DW$595, DW_AT_name("C:\DOCUME~1\ADMINI~1\LOCALS~1\Temp\TI1122:L353:1:1304561157")
   10961                      .dwattr DW$595, DW_AT_begin_file("ff.c")
   10962                      .dwattr DW$595, DW_AT_begin_line(0x1096)
   10963                      .dwattr DW$595, DW_AT_end_line(0x10bb)
   10964              DW$596  .dwtag  DW_TAG_loop_range
   10965                      .dwattr DW$596, DW_AT_low_pc(DW$L$_f_gets$5$B)
   10966                      .dwattr DW$596, DW_AT_high_pc(DW$L$_f_gets$5$E)
   10967              DW$597  .dwtag  DW_TAG_loop_range
   10968                      .dwattr DW$597, DW_AT_low_pc(DW$L$_f_gets$2$B)
   10969                      .dwattr DW$597, DW_AT_high_pc(DW$L$_f_gets$2$E)
   10970              DW$598  .dwtag  DW_TAG_loop_range
   10971                      .dwattr DW$598, DW_AT_low_pc(DW$L$_f_gets$3$B)
   10972                      .dwattr DW$598, DW_AT_high_pc(DW$L$_f_gets$3$E)
   10973              DW$599  .dwtag  DW_TAG_loop_range
   10974                      .dwattr DW$599, DW_AT_low_pc(DW$L$_f_gets$4$B)
   10975                      .dwattr DW$599, DW_AT_high_pc(DW$L$_f_gets$4$E)
   10976                      .dwendtag DW$595
   10977              
   10978                      .dwattr DW$583, DW_AT_end_file("ff.c")
   10979                      .dwattr DW$583, DW_AT_end_line(0x10bf)
   10980                      .dwattr DW$583, DW_AT_end_column(0x01)
   10981                      .dwendentry
   10982                      .dwendtag DW$583
   10983              
   10984 000015c3               .sect   ".text"
   10985                      .global _f_putc
   10986              
   10987              DW$600  .dwtag  DW_TAG_subprogram, DW_AT_name("f_putc"), DW_AT_symbol_name("_f_putc")
   10988                      .dwattr DW$600, DW_AT_low_pc(_f_putc)
   10989                      .dwattr DW$600, DW_AT_high_pc(0x00)
   10990                      .dwattr DW$600, DW_AT_begin_file("ff.c")
   10991                      .dwattr DW$600, DW_AT_begin_line(0x10c8)
   10992                      .dwattr DW$600, DW_AT_begin_column(0x05)
   10993                      .dwpsn  "ff.c",4300,1
   10994              
   10995                      .dwfde DW$CIE
   10996              
   10997              ;***************************************************************
   10998              ;* FNAME: _f_putc                       FR SIZE:  12           *
   10999              ;*                                                             *
   11000              ;* FUNCTION ENVIRONMENT                                        *
   11001              ;*                                                             *
   11002              ;* FUNCTION PROPERTIES                                         *
   11003              ;*                            2 Parameter,  9 Auto,  0 SOE     *
   11004              ;***************************************************************
   11005              
   11006              _f_putc:
   11007                      .dwcfa  0x1d, -2
   11008                      .dwcfa  0x1c, 26, 0
   11009                      .dwcfa  0x09, 40, 26
   11010 000015c3 FE0C          ADDB      SP,#12
   11011                      .dwcfa  0x1d, -14
   11012              ;* AL    assigned to _c
TMS320C2000 COFF Assembler PC v4.1.3 Thu May 05 10:06:00 2011

Tools Copyright (c) 1996-2006 Texas Instruments Incorporated
C:\DOCUME~1\ADMINI~1\LOCALS~1\Temp\TI1122                            PAGE  212

   11013              DW$601  .dwtag  DW_TAG_formal_parameter, DW_AT_name("c"), DW_AT_symbol_name("_c")
   11014                      .dwattr DW$601, DW_AT_type(*DW$T$35)
   11015                      .dwattr DW$601, DW_AT_location[DW_OP_reg0]
   11016              ;* AR4   assigned to _fil
   11017              DW$602  .dwtag  DW_TAG_formal_parameter, DW_AT_name("fil"), DW_AT_symbol_name("_fil")
   11018                      .dwattr DW$602, DW_AT_type(*DW$T$89)
   11019                      .dwattr DW$602, DW_AT_location[DW_OP_reg12]
   11020              DW$603  .dwtag  DW_TAG_variable, DW_AT_name("c"), DW_AT_symbol_name("_c")
   11021                      .dwattr DW$603, DW_AT_type(*DW$T$35)
   11022                      .dwattr DW$603, DW_AT_location[DW_OP_breg20 -3]
   11023              DW$604  .dwtag  DW_TAG_variable, DW_AT_name("fil"), DW_AT_symbol_name("_fil")
   11024                      .dwattr DW$604, DW_AT_type(*DW$T$89)
   11025                      .dwattr DW$604, DW_AT_location[DW_OP_breg20 -6]
   11026              DW$605  .dwtag  DW_TAG_variable, DW_AT_name("bw"), DW_AT_symbol_name("_bw")
   11027                      .dwattr DW$605, DW_AT_type(*DW$T$43)
   11028                      .dwattr DW$605, DW_AT_location[DW_OP_breg20 -7]
   11029              DW$606  .dwtag  DW_TAG_variable, DW_AT_name("btw"), DW_AT_symbol_name("_btw")
   11030                      .dwattr DW$606, DW_AT_type(*DW$T$43)
   11031                      .dwattr DW$606, DW_AT_location[DW_OP_breg20 -8]
   11032              DW$607  .dwtag  DW_TAG_variable, DW_AT_name("s"), DW_AT_symbol_name("_s")
   11033                      .dwattr DW$607, DW_AT_type(*DW$T$72)
   11034                      .dwattr DW$607, DW_AT_location[DW_OP_breg20 -11]
   11035 000015c4 A846          MOVL      *-SP[6],XAR4          ; |4300| 
   11036 000015c5 9643          MOV       *-SP[3],AL            ; |4300| 
   11037                      .dwpsn  "ff.c",4332,2
   11038 000015c6 9243          MOV       AL,*-SP[3]            ; |4332| 
   11039 000015c7 964B          MOV       *-SP[11],AL           ; |4332| 
   11040                      .dwpsn  "ff.c",4333,2
   11041 000015c8 2848          MOV       *-SP[8],#1            ; |4333| 
         000015c9 0001 
   11042                      .dwpsn  "ff.c",4335,2
   11043 000015ca 5CAD          MOVZ      AR4,SP                ; |4335| 
   11044 000015cb DC87          SUBB      XAR4,#7               ; |4335| 
   11045 000015cc 5DAD          MOVZ      AR5,SP                ; |4335| 
   11046 000015cd A842          MOVL      *-SP[2],XAR4          ; |4335| 
   11047 000015ce 8A46          MOVL      XAR4,*-SP[6]          ; |4335| 
   11048 000015cf 9248          MOV       AL,*-SP[8]            ; |4335| 
   11049 000015d0 DD8B          SUBB      XAR5,#11              ; |4335| 
   11050 000015d1 7640'         LCR       #_f_write             ; |4335| 
         000015d2 0D75 
   11051                      ; call occurs [#_f_write] ; |4335| 
   11052                      .dwpsn  "ff.c",4336,2
   11053 000015d3 9248          MOV       AL,*-SP[8]            ; |4336| 
   11054 000015d4 5447          CMP       AL,*-SP[7]            ; |4336| 
   11055 000015d5 ED03          BF        L357,NEQ              ; |4336| 
   11056                      ; branchcc occurs ; |4336| 
   11057 000015d6 9A01          MOVB      AL,#1                 ; |4336| 
   11058 000015d7 6F03          B         L358,UNC              ; |4336| 
   11059                      ; branch occurs ; |4336| 
   11060 000015d8       L357:    
   11061 000015d8 28A9          MOV       AL,#-1                ; |4336| 
         000015d9 FFFF 
   11062              L358:    
   11063                      .dwpsn  "ff.c",4337,1
   11064 000015da FE8C          SUBB      SP,#12                ; |4336| 
TMS320C2000 COFF Assembler PC v4.1.3 Thu May 05 10:06:00 2011

Tools Copyright (c) 1996-2006 Texas Instruments Incorporated
C:\DOCUME~1\ADMINI~1\LOCALS~1\Temp\TI1122                            PAGE  213

   11065                      .dwcfa  0x1d, -2
   11066 000015db 0006          LRETR
   11067                      ; return occurs
   11068                      .dwattr DW$600, DW_AT_end_file("ff.c")
   11069                      .dwattr DW$600, DW_AT_end_line(0x10f1)
   11070                      .dwattr DW$600, DW_AT_end_column(0x01)
   11071                      .dwendentry
   11072                      .dwendtag DW$600
   11073              
   11074 000015dc               .sect   ".text"
   11075                      .global _f_puts
   11076              
   11077              DW$608  .dwtag  DW_TAG_subprogram, DW_AT_name("f_puts"), DW_AT_symbol_name("_f_puts")
   11078                      .dwattr DW$608, DW_AT_low_pc(_f_puts)
   11079                      .dwattr DW$608, DW_AT_high_pc(0x00)
   11080                      .dwattr DW$608, DW_AT_begin_file("ff.c")
   11081                      .dwattr DW$608, DW_AT_begin_line(0x10f9)
   11082                      .dwattr DW$608, DW_AT_begin_column(0x05)
   11083                      .dwpsn  "ff.c",4349,1
   11084              
   11085                      .dwfde DW$CIE
   11086              
   11087              ;***************************************************************
   11088              ;* FNAME: _f_puts                       FR SIZE:   6           *
   11089              ;*                                                             *
   11090              ;* FUNCTION ENVIRONMENT                                        *
   11091              ;*                                                             *
   11092              ;* FUNCTION PROPERTIES                                         *
   11093              ;*                            0 Parameter,  5 Auto,  0 SOE     *
   11094              ;***************************************************************
   11095              
   11096              _f_puts:
   11097                      .dwcfa  0x1d, -2
   11098                      .dwcfa  0x1c, 26, 0
   11099                      .dwcfa  0x09, 40, 26
   11100 000015dc FE06          ADDB      SP,#6
   11101                      .dwcfa  0x1d, -8
   11102              ;* AR4   assigned to _str
   11103              DW$609  .dwtag  DW_TAG_formal_parameter, DW_AT_name("str"), DW_AT_symbol_name("_str")
   11104                      .dwattr DW$609, DW_AT_type(*DW$T$93)
   11105                      .dwattr DW$609, DW_AT_location[DW_OP_reg12]
   11106              ;* AR5   assigned to _fil
   11107              DW$610  .dwtag  DW_TAG_formal_parameter, DW_AT_name("fil"), DW_AT_symbol_name("_fil")
   11108                      .dwattr DW$610, DW_AT_type(*DW$T$89)
   11109                      .dwattr DW$610, DW_AT_location[DW_OP_reg14]
   11110              DW$611  .dwtag  DW_TAG_variable, DW_AT_name("str"), DW_AT_symbol_name("_str")
   11111                      .dwattr DW$611, DW_AT_type(*DW$T$93)
   11112                      .dwattr DW$611, DW_AT_location[DW_OP_breg20 -2]
   11113              DW$612  .dwtag  DW_TAG_variable, DW_AT_name("fil"), DW_AT_symbol_name("_fil")
   11114                      .dwattr DW$612, DW_AT_type(*DW$T$89)
   11115                      .dwattr DW$612, DW_AT_location[DW_OP_breg20 -4]
   11116              DW$613  .dwtag  DW_TAG_variable, DW_AT_name("n"), DW_AT_symbol_name("_n")
   11117                      .dwattr DW$613, DW_AT_type(*DW$T$10)
   11118                      .dwattr DW$613, DW_AT_location[DW_OP_breg20 -5]
   11119 000015dd A044          MOVL      *-SP[4],XAR5          ; |4349| 
TMS320C2000 COFF Assembler PC v4.1.3 Thu May 05 10:06:00 2011

Tools Copyright (c) 1996-2006 Texas Instruments Incorporated
C:\DOCUME~1\ADMINI~1\LOCALS~1\Temp\TI1122                            PAGE  214

   11120 000015de A842          MOVL      *-SP[2],XAR4          ; |4349| 
   11121                      .dwpsn  "ff.c",4353,8
   11122 000015df 2B45          MOV       *-SP[5],#0            ; |4353| 
   11123 000015e0 6F10          B         L361,UNC              ; |4353| 
   11124                      ; branch occurs ; |4353| 
   11125              L359:    
   11126              DW$L$_f_puts$2$B:
   11127                      .dwpsn  "ff.c",4355,3
   11128 000015e1 8A42          MOVL      XAR4,*-SP[2]          ; |4355| 
   11129 000015e2 92C4          MOV       AL,*+XAR4[0]          ; |4355| 
   11130 000015e3 8A44          MOVL      XAR4,*-SP[4]          ; |4355| 
   11131 000015e4 7640'         LCR       #_f_putc              ; |4355| 
         000015e5 15C3 
   11132                      ; call occurs [#_f_putc] ; |4355| 
   11133 000015e6 1BA9          CMP       AL,#-1                ; |4355| 
         000015e7 FFFF 
   11134 000015e8 ED04          BF        L360,NEQ              ; |4355| 
   11135                      ; branchcc occurs ; |4355| 
   11136              DW$L$_f_puts$2$E:
   11137                      .dwpsn  "ff.c",4355,37
   11138 000015e9 28A9          MOV       AL,#-1                ; |4355| 
         000015ea FFFF 
   11139 000015eb 6F09          B         L362,UNC              ; |4355| 
   11140                      ; branch occurs ; |4355| 
   11141              L360:    
   11142              DW$L$_f_puts$4$B:
   11143                      .dwpsn  "ff.c",4353,21
   11144 000015ec 0201          MOVB      ACC,#1
   11145 000015ed 5601          ADDL      *-SP[2],ACC           ; |4353| 
         000015ee 0042 
   11146 000015ef 0A45          INC       *-SP[5]               ; |4353| 
   11147 000015f0       DW$L$_f_puts$4$E:
   11148 000015f0       L361:    
   11149 000015f0       DW$L$_f_puts$5$B:
   11150 000015f0 8A42          MOVL      XAR4,*-SP[2]          ; |4353| 
   11151 000015f1 92C4          MOV       AL,*+XAR4[0]          ; |4353| 
   11152 000015f2 EDEF          BF        L359,NEQ              ; |4353| 
   11153                      ; branchcc occurs ; |4353| 
   11154              DW$L$_f_puts$5$E:
   11155                      .dwpsn  "ff.c",4357,2
   11156 000015f3 9245          MOV       AL,*-SP[5]            ; |4357| 
   11157              L362:    
   11158                      .dwpsn  "ff.c",4358,1
   11159 000015f4 FE86          SUBB      SP,#6                 ; |4357| 
   11160                      .dwcfa  0x1d, -2
   11161 000015f5 0006          LRETR
   11162                      ; return occurs
   11163              
   11164              DW$614  .dwtag  DW_TAG_loop
   11165                      .dwattr DW$614, DW_AT_name("C:\DOCUME~1\ADMINI~1\LOCALS~1\Temp\TI1122:L361:1:1304561157")
   11166                      .dwattr DW$614, DW_AT_begin_file("ff.c")
   11167                      .dwattr DW$614, DW_AT_begin_line(0x1101)
   11168                      .dwattr DW$614, DW_AT_end_line(0x1103)
   11169              DW$615  .dwtag  DW_TAG_loop_range
   11170                      .dwattr DW$615, DW_AT_low_pc(DW$L$_f_puts$5$B)
TMS320C2000 COFF Assembler PC v4.1.3 Thu May 05 10:06:00 2011

Tools Copyright (c) 1996-2006 Texas Instruments Incorporated
C:\DOCUME~1\ADMINI~1\LOCALS~1\Temp\TI1122                            PAGE  215

   11171                      .dwattr DW$615, DW_AT_high_pc(DW$L$_f_puts$5$E)
   11172              DW$616  .dwtag  DW_TAG_loop_range
   11173                      .dwattr DW$616, DW_AT_low_pc(DW$L$_f_puts$2$B)
   11174                      .dwattr DW$616, DW_AT_high_pc(DW$L$_f_puts$2$E)
   11175              DW$617  .dwtag  DW_TAG_loop_range
   11176                      .dwattr DW$617, DW_AT_low_pc(DW$L$_f_puts$4$B)
   11177                      .dwattr DW$617, DW_AT_high_pc(DW$L$_f_puts$4$E)
   11178                      .dwendtag DW$614
   11179              
   11180                      .dwattr DW$608, DW_AT_end_file("ff.c")
   11181                      .dwattr DW$608, DW_AT_end_line(0x1106)
   11182                      .dwattr DW$608, DW_AT_end_column(0x01)
   11183                      .dwendentry
   11184                      .dwendtag DW$608
   11185              
   11186 000015f6               .sect   ".text"
   11187                      .global _f_printf
   11188              
   11189              DW$618  .dwtag  DW_TAG_subprogram, DW_AT_name("f_printf"), DW_AT_symbol_name("_f_printf")
   11190                      .dwattr DW$618, DW_AT_low_pc(_f_printf)
   11191                      .dwattr DW$618, DW_AT_high_pc(0x00)
   11192                      .dwattr DW$618, DW_AT_begin_file("ff.c")
   11193                      .dwattr DW$618, DW_AT_begin_line(0x110e)
   11194                      .dwattr DW$618, DW_AT_begin_column(0x05)
   11195                      .dwpsn  "ff.c",4371,1
   11196              
   11197                      .dwfde DW$CIE
   11198              
   11199              ;***************************************************************
   11200              ;* FNAME: _f_printf                     FR SIZE:  34           *
   11201              ;*                                                             *
   11202              ;* FUNCTION ENVIRONMENT                                        *
   11203              ;*                                                             *
   11204              ;* FUNCTION PROPERTIES                                         *
   11205              ;*                            0 Parameter, 34 Auto,  0 SOE     *
   11206              ;***************************************************************
   11207              
   11208              _f_printf:
   11209                      .dwcfa  0x1d, -2
   11210                      .dwcfa  0x1c, 26, 0
   11211                      .dwcfa  0x09, 40, 26
   11212 000015f6 FE22          ADDB      SP,#34
   11213                      .dwcfa  0x1d, -36
   11214              ;* AR4   assigned to _fil
   11215              DW$619  .dwtag  DW_TAG_formal_parameter, DW_AT_name("fil"), DW_AT_symbol_name("_fil")
   11216                      .dwattr DW$619, DW_AT_type(*DW$T$89)
   11217                      .dwattr DW$619, DW_AT_location[DW_OP_reg12]
   11218              DW$620  .dwtag  DW_TAG_formal_parameter, DW_AT_name("str"), DW_AT_symbol_name("_str")
   11219                      .dwattr DW$620, DW_AT_type(*DW$T$93)
   11220                      .dwattr DW$620, DW_AT_location[DW_OP_breg20 -38]
   11221              DW$621  .dwtag  DW_TAG_unspecified_parameters
   11222              DW$622  .dwtag  DW_TAG_variable, DW_AT_name("fil"), DW_AT_symbol_name("_fil")
   11223                      .dwattr DW$622, DW_AT_type(*DW$T$89)
   11224                      .dwattr DW$622, DW_AT_location[DW_OP_breg20 -2]
   11225              DW$623  .dwtag  DW_TAG_variable, DW_AT_name("arp"), DW_AT_symbol_name("_arp")
TMS320C2000 COFF Assembler PC v4.1.3 Thu May 05 10:06:00 2011

Tools Copyright (c) 1996-2006 Texas Instruments Incorporated
C:\DOCUME~1\ADMINI~1\LOCALS~1\Temp\TI1122                            PAGE  216

   11226                      .dwattr DW$623, DW_AT_type(*DW$T$125)
   11227                      .dwattr DW$623, DW_AT_location[DW_OP_breg20 -4]
   11228              DW$624  .dwtag  DW_TAG_variable, DW_AT_name("f"), DW_AT_symbol_name("_f")
   11229                      .dwattr DW$624, DW_AT_type(*DW$T$23)
   11230                      .dwattr DW$624, DW_AT_location[DW_OP_breg20 -5]
   11231              DW$625  .dwtag  DW_TAG_variable, DW_AT_name("r"), DW_AT_symbol_name("_r")
   11232                      .dwattr DW$625, DW_AT_type(*DW$T$23)
   11233                      .dwattr DW$625, DW_AT_location[DW_OP_breg20 -6]
   11234              DW$626  .dwtag  DW_TAG_variable, DW_AT_name("i"), DW_AT_symbol_name("_i")
   11235                      .dwattr DW$626, DW_AT_type(*DW$T$43)
   11236                      .dwattr DW$626, DW_AT_location[DW_OP_breg20 -7]
   11237              DW$627  .dwtag  DW_TAG_variable, DW_AT_name("j"), DW_AT_symbol_name("_j")
   11238                      .dwattr DW$627, DW_AT_type(*DW$T$43)
   11239                      .dwattr DW$627, DW_AT_location[DW_OP_breg20 -8]
   11240              DW$628  .dwtag  DW_TAG_variable, DW_AT_name("w"), DW_AT_symbol_name("_w")
   11241                      .dwattr DW$628, DW_AT_type(*DW$T$43)
   11242                      .dwattr DW$628, DW_AT_location[DW_OP_breg20 -9]
   11243              DW$629  .dwtag  DW_TAG_variable, DW_AT_name("v"), DW_AT_symbol_name("_v")
   11244                      .dwattr DW$629, DW_AT_type(*DW$T$106)
   11245                      .dwattr DW$629, DW_AT_location[DW_OP_breg20 -12]
   11246              DW$630  .dwtag  DW_TAG_variable, DW_AT_name("c"), DW_AT_symbol_name("_c")
   11247                      .dwattr DW$630, DW_AT_type(*DW$T$35)
   11248                      .dwattr DW$630, DW_AT_location[DW_OP_breg20 -13]
   11249              DW$631  .dwtag  DW_TAG_variable, DW_AT_name("d"), DW_AT_symbol_name("_d")
   11250                      .dwattr DW$631, DW_AT_type(*DW$T$35)
   11251                      .dwattr DW$631, DW_AT_location[DW_OP_breg20 -14]
   11252              DW$632  .dwtag  DW_TAG_variable, DW_AT_name("s"), DW_AT_symbol_name("_s")
   11253                      .dwattr DW$632, DW_AT_type(*DW$T$120)
   11254                      .dwattr DW$632, DW_AT_location[DW_OP_breg20 -30]
   11255              DW$633  .dwtag  DW_TAG_variable, DW_AT_name("p"), DW_AT_symbol_name("_p")
   11256                      .dwattr DW$633, DW_AT_type(*DW$T$117)
   11257                      .dwattr DW$633, DW_AT_location[DW_OP_breg20 -32]
   11258              DW$634  .dwtag  DW_TAG_variable, DW_AT_name("res"), DW_AT_symbol_name("_res")
   11259                      .dwattr DW$634, DW_AT_type(*DW$T$10)
   11260                      .dwattr DW$634, DW_AT_location[DW_OP_breg20 -33]
   11261              DW$635  .dwtag  DW_TAG_variable, DW_AT_name("cc"), DW_AT_symbol_name("_cc")
   11262                      .dwattr DW$635, DW_AT_type(*DW$T$10)
   11263                      .dwattr DW$635, DW_AT_location[DW_OP_breg20 -34]
   11264 000015f7 A842          MOVL      *-SP[2],XAR4          ; |4371| 
   11265                      .dwpsn  "ff.c",4380,2
   11266 000015f8 5CAD          MOVZ      AR4,SP                ; |4380| 
   11267 000015f9 DCA6          SUBB      XAR4,#38              ; |4380| 
   11268 000015fa A844          MOVL      *-SP[4],XAR4          ; |4380| 
   11269                      .dwpsn  "ff.c",4382,8
   11270 000015fb 9A00          MOVB      AL,#0
   11271 000015fc 9661          MOV       *-SP[33],AL           ; |4382| 
   11272 000015fd 9662          MOV       *-SP[34],AL           ; |4382| 
   11273                      .dwpsn  "ff.c",4382,22
   11274 000015fe 1BA9          CMP       AL,#-1                ; |4382| 
         000015ff FFFF 
   11275 00001600 56C1          BF        L410,EQ               ; |4382| 
         00001601 0158 
   11276                      ; branchcc occurs ; |4382| 
   11277              L363:    
   11278              DW$L$_f_printf$2$B:
TMS320C2000 COFF Assembler PC v4.1.3 Thu May 05 10:06:00 2011

Tools Copyright (c) 1996-2006 Texas Instruments Incorporated
C:\DOCUME~1\ADMINI~1\LOCALS~1\Temp\TI1122                            PAGE  217

   11279                      .dwpsn  "ff.c",4384,3
   11280 00001602 8A66          MOVL      XAR4,*-SP[38]         ; |4384| 
   11281 00001603 9284          MOV       AL,*XAR4++            ; |4384| 
   11282 00001604 A866          MOVL      *-SP[38],XAR4         ; |4384| 
   11283 00001605 964D          MOV       *-SP[13],AL           ; |4384| 
   11284                      .dwpsn  "ff.c",4385,3
   11285 00001606 56C1          BF        L410,EQ               ; |4385| 
         00001607 0152 
   11286                      ; branchcc occurs ; |4385| 
   11287              DW$L$_f_printf$2$E:
   11288              DW$L$_f_printf$3$B:
   11289                      .dwpsn  "ff.c",4385,17
   11290                      .dwpsn  "ff.c",4386,3
   11291 00001608 5225          CMPB      AL,#37                ; |4386| 
   11292 00001609 EC0D          BF        L364,EQ               ; |4386| 
   11293                      ; branchcc occurs ; |4386| 
   11294              DW$L$_f_printf$3$E:
   11295              DW$L$_f_printf$4$B:
   11296                      .dwpsn  "ff.c",4388,4
   11297 0000160a 8A42          MOVL      XAR4,*-SP[2]          ; |4388| 
   11298 0000160b 7640'         LCR       #_f_putc              ; |4388| 
         0000160c 15C3 
   11299                      ; call occurs [#_f_putc] ; |4388| 
   11300 0000160d 9662          MOV       *-SP[34],AL           ; |4388| 
   11301                      .dwpsn  "ff.c",4389,4
   11302 0000160e 1BA9          CMP       AL,#-1                ; |4389| 
         0000160f FFFF 
   11303 00001610 56C1          BF        L409,EQ               ; |4389| 
         00001611 0143 
   11304                      ; branchcc occurs ; |4389| 
   11305              DW$L$_f_printf$4$E:
   11306              DW$L$_f_printf$5$B:
   11307                      .dwpsn  "ff.c",4389,21
   11308 00001612 9A01          MOVB      AL,#1                 ; |4389| 
   11309 00001613 9662          MOV       *-SP[34],AL           ; |4389| 
   11310                      .dwpsn  "ff.c",4390,4
   11311 00001614 FFEF          B         L409,UNC              ; |4390| 
         00001615 013F 
   11312                      ; branch occurs ; |4390| 
   11313              DW$L$_f_printf$5$E:
   11314              L364:    
   11315              DW$L$_f_printf$6$B:
   11316                      .dwpsn  "ff.c",4392,3
   11317 00001616 9A00          MOVB      AL,#0
   11318 00001617 9645          MOV       *-SP[5],AL            ; |4392| 
   11319 00001618 9649          MOV       *-SP[9],AL            ; |4392| 
   11320                      .dwpsn  "ff.c",4393,3
   11321 00001619 8A66          MOVL      XAR4,*-SP[38]         ; |4393| 
   11322 0000161a 9284          MOV       AL,*XAR4++            ; |4393| 
   11323 0000161b A866          MOVL      *-SP[38],XAR4         ; |4393| 
   11324 0000161c 964D          MOV       *-SP[13],AL           ; |4393| 
   11325                      .dwpsn  "ff.c",4394,3
   11326 0000161d 5230          CMPB      AL,#48                ; |4394| 
   11327 0000161e ED08          BF        L365,NEQ              ; |4394| 
   11328                      ; branchcc occurs ; |4394| 
TMS320C2000 COFF Assembler PC v4.1.3 Thu May 05 10:06:00 2011

Tools Copyright (c) 1996-2006 Texas Instruments Incorporated
C:\DOCUME~1\ADMINI~1\LOCALS~1\Temp\TI1122                            PAGE  218

   11329              DW$L$_f_printf$6$E:
   11330              DW$L$_f_printf$7$B:
   11331                      .dwpsn  "ff.c",4396,4
   11332 0000161f 2845          MOV       *-SP[5],#1            ; |4396| 
         00001620 0001 
   11333                      .dwpsn  "ff.c",4397,4
   11334 00001621 8A66          MOVL      XAR4,*-SP[38]         ; |4397| 
   11335 00001622 9284          MOV       AL,*XAR4++            ; |4397| 
   11336 00001623 A866          MOVL      *-SP[38],XAR4         ; |4397| 
   11337 00001624 964D          MOV       *-SP[13],AL           ; |4397| 
   11338                      .dwpsn  "ff.c",4398,3
   11339 00001625 6F13          B         L367,UNC              ; |4398| 
   11340                      ; branch occurs ; |4398| 
   11341              DW$L$_f_printf$7$E:
   11342              L365:    
   11343              DW$L$_f_printf$8$B:
   11344                      .dwpsn  "ff.c",4401,4
   11345 00001626 522D          CMPB      AL,#45                ; |4401| 
   11346 00001627 ED11          BF        L367,NEQ              ; |4401| 
   11347                      ; branchcc occurs ; |4401| 
   11348              DW$L$_f_printf$8$E:
   11349              DW$L$_f_printf$9$B:
   11350                      .dwpsn  "ff.c",4403,5
   11351 00001628 2845          MOV       *-SP[5],#2            ; |4403| 
         00001629 0002 
   11352                      .dwpsn  "ff.c",4404,5
   11353 0000162a 8A66          MOVL      XAR4,*-SP[38]         ; |4404| 
   11354 0000162b 9284          MOV       AL,*XAR4++            ; |4404| 
   11355 0000162c A866          MOVL      *-SP[38],XAR4         ; |4404| 
   11356 0000162d 964D          MOV       *-SP[13],AL           ; |4404| 
   11357                      .dwpsn  "ff.c",4407,3
   11358 0000162e 6F0A          B         L367,UNC              ; |4407| 
   11359                      ; branch occurs ; |4407| 
   11360              DW$L$_f_printf$9$E:
   11361              L366:    
   11362              DW$L$_f_printf$10$B:
   11363                      .dwpsn  "ff.c",4409,4
   11364 0000162f 2D49          MOV       T,*-SP[9]             ; |4409| 
   11365 00001630 350A          MPYB      ACC,T,#10             ; |4409| 
   11366 00001631 944D          ADD       AL,*-SP[13]           ; |4409| 
   11367 00001632 9CD0          ADDB      AL,#-48
   11368 00001633 9649          MOV       *-SP[9],AL            ; |4409| 
   11369                      .dwpsn  "ff.c",4410,4
   11370 00001634 8A66          MOVL      XAR4,*-SP[38]         ; |4410| 
   11371 00001635 9284          MOV       AL,*XAR4++            ; |4410| 
   11372 00001636 A866          MOVL      *-SP[38],XAR4         ; |4410| 
   11373 00001637 964D          MOV       *-SP[13],AL           ; |4410| 
   11374              DW$L$_f_printf$10$E:
   11375              L367:    
   11376              DW$L$_f_printf$11$B:
   11377                      .dwpsn  "ff.c",4407,11
   11378 00001638 5230          CMPB      AL,#48                ; |4407| 
   11379 00001639 6403          B         L368,LT               ; |4407| 
   11380                      ; branchcc occurs ; |4407| 
   11381 0000163a       DW$L$_f_printf$11$E:
TMS320C2000 COFF Assembler PC v4.1.3 Thu May 05 10:06:00 2011

Tools Copyright (c) 1996-2006 Texas Instruments Incorporated
C:\DOCUME~1\ADMINI~1\LOCALS~1\Temp\TI1122                            PAGE  219

   11382 0000163a       DW$L$_f_printf$12$B:
   11383 0000163a 5239          CMPB      AL,#57                ; |4407| 
   11384 0000163b 65F4          B         L366,LEQ              ; |4407| 
   11385                      ; branchcc occurs ; |4407| 
   11386              DW$L$_f_printf$12$E:
   11387              L368:    
   11388              DW$L$_f_printf$13$B:
   11389                      .dwpsn  "ff.c",4412,3
   11390 0000163c 526C          CMPB      AL,#108               ; |4412| 
   11391 0000163d EC03          BF        L369,EQ               ; |4412| 
   11392                      ; branchcc occurs ; |4412| 
   11393 0000163e       DW$L$_f_printf$13$E:
   11394 0000163e       DW$L$_f_printf$14$B:
   11395 0000163e 524C          CMPB      AL,#76                ; |4412| 
   11396 0000163f ED07          BF        L370,NEQ              ; |4412| 
   11397                      ; branchcc occurs ; |4412| 
   11398              DW$L$_f_printf$14$E:
   11399              L369:    
   11400              DW$L$_f_printf$15$B:
   11401                      .dwpsn  "ff.c",4414,4
   11402 00001640 1A45          OR        *-SP[5],#0x0004       ; |4414| 
         00001641 0004 
   11403                      .dwpsn  "ff.c",4415,4
   11404 00001642 8A66          MOVL      XAR4,*-SP[38]         ; |4415| 
   11405 00001643 9284          MOV       AL,*XAR4++            ; |4415| 
   11406 00001644 A866          MOVL      *-SP[38],XAR4         ; |4415| 
   11407 00001645 964D          MOV       *-SP[13],AL           ; |4415| 
   11408              DW$L$_f_printf$15$E:
   11409              L370:    
   11410              DW$L$_f_printf$16$B:
   11411                      .dwpsn  "ff.c",4417,3
   11412 00001646 5200          CMPB      AL,#0                 ; |4417| 
   11413 00001647 56C1          BF        L410,EQ               ; |4417| 
         00001648 0111 
   11414                      ; branchcc occurs ; |4417| 
   11415              DW$L$_f_printf$16$E:
   11416              DW$L$_f_printf$17$B:
   11417                      .dwpsn  "ff.c",4417,13
   11418                      .dwpsn  "ff.c",4418,3
   11419 00001649 964E          MOV       *-SP[14],AL           ; |4418| 
   11420                      .dwpsn  "ff.c",4419,3
   11421 0000164a 5261          CMPB      AL,#97                ; |4419| 
   11422 0000164b 6464          B         L387,LT               ; |4419| 
   11423                      ; branchcc occurs ; |4419| 
   11424 0000164c       DW$L$_f_printf$17$E:
   11425 0000164c       DW$L$_f_printf$18$B:
   11426 0000164c 527A          CMPB      AL,#122               ; |4419| 
   11427 0000164d 6262          B         L387,GT               ; |4419| 
   11428                      ; branchcc occurs ; |4419| 
   11429              DW$L$_f_printf$18$E:
   11430              DW$L$_f_printf$19$B:
   11431                      .dwpsn  "ff.c",4419,23
   11432 0000164e 9A20          MOVB      AL,#32                ; |4419| 
   11433 0000164f 744E          SUB       *-SP[14],AL           ; |4419| 
   11434                      .dwpsn  "ff.c",4420,3
TMS320C2000 COFF Assembler PC v4.1.3 Thu May 05 10:06:00 2011

Tools Copyright (c) 1996-2006 Texas Instruments Incorporated
C:\DOCUME~1\ADMINI~1\LOCALS~1\Temp\TI1122                            PAGE  220

   11435 00001650 6F5F          B         L387,UNC              ; |4420| 
   11436                      ; branch occurs ; |4420| 
   11437              DW$L$_f_printf$19$E:
   11438              L371:    
   11439              DW$L$_f_printf$21$B:
   11440                      .dwpsn  "ff.c",4423,4
   11441 00001651 0644          MOVL      ACC,*-SP[4]           ; |4423| 
   11442 00001652 9001          ANDB      AL,#0x01              ; |4423| 
   11443 00001653 9B00          MOVB      AH,#0
   11444 00001654 FF58          TEST      ACC                   ; |4423| 
   11445 00001655 EC03          BF        L372,EQ               ; |4423| 
   11446                      ; branchcc occurs ; |4423| 
   11447 00001656       DW$L$_f_printf$21$E:
   11448 00001656       DW$L$_f_printf$22$B:
   11449 00001656 0202          MOVB      ACC,#2
   11450 00001657 6F02          B         L373,UNC              ; |4423| 
   11451                      ; branch occurs ; |4423| 
   11452 00001658       DW$L$_f_printf$22$E:
   11453 00001658       L372:    
   11454 00001658       DW$L$_f_printf$23$B:
   11455 00001658 0201          MOVB      ACC,#1
   11456 00001659       DW$L$_f_printf$23$E:
   11457 00001659       L373:    
   11458 00001659       DW$L$_f_printf$24$B:
   11459 00001659 0901          ADDB      ACC,#1                ; |4423| 
   11460 0000165a 5641          SUBL      *-SP[4],ACC           ; |4423| 
         0000165b 0044 
   11461 0000165c 8A44          MOVL      XAR4,*-SP[4]          ; |4423| 
   11462 0000165d 06C4          MOVL      ACC,*+XAR4[0]         ; |4423| 
   11463 0000165e 1E60          MOVL      *-SP[32],ACC          ; |4423| 
   11464                      .dwpsn  "ff.c",4424,10
   11465 0000165f 2B48          MOV       *-SP[8],#0            ; |4424| 
   11466 00001660 6F02          B         L375,UNC              ; |4424| 
   11467                      ; branch occurs ; |4424| 
   11468              DW$L$_f_printf$24$E:
   11469              L374:    
   11470              DW$L$_f_printf$25$B:
   11471                      .dwpsn  "ff.c",4424,23
   11472 00001661 0A48          INC       *-SP[8]               ; |4424| 
   11473 00001662       DW$L$_f_printf$25$E:
   11474 00001662       L375:    
   11475 00001662       DW$L$_f_printf$26$B:
   11476 00001662 5848          MOVZ      AR0,*-SP[8]           ; |4424| 
   11477 00001663 8A60          MOVL      XAR4,*-SP[32]         ; |4424| 
   11478 00001664 9294          MOV       AL,*+XAR4[AR0]        ; |4424| 
   11479 00001665 EDFC          BF        L374,NEQ              ; |4424| 
   11480                      ; branchcc occurs ; |4424| 
   11481              DW$L$_f_printf$26$E:
   11482              DW$L$_f_printf$27$B:
   11483                      .dwpsn  "ff.c",4425,4
   11484 00001666 2B61          MOV       *-SP[33],#0           ; |4425| 
   11485                      .dwpsn  "ff.c",4426,4
   11486 00001667 6F07          B         L377,UNC              ; |4426| 
   11487                      ; branch occurs ; |4426| 
   11488              DW$L$_f_printf$27$E:
TMS320C2000 COFF Assembler PC v4.1.3 Thu May 05 10:06:00 2011

Tools Copyright (c) 1996-2006 Texas Instruments Incorporated
C:\DOCUME~1\ADMINI~1\LOCALS~1\Temp\TI1122                            PAGE  221

   11489              L376:    
   11490              DW$L$_f_printf$28$B:
   11491                      .dwpsn  "ff.c",4426,36
   11492 00001668 8A42          MOVL      XAR4,*-SP[2]          ; |4426| 
   11493 00001669 9A20          MOVB      AL,#32                ; |4426| 
   11494 0000166a 7640'         LCR       #_f_putc              ; |4426| 
         0000166b 15C3 
   11495                      ; call occurs [#_f_putc] ; |4426| 
   11496 0000166c 9662          MOV       *-SP[34],AL           ; |4426| 
   11497 0000166d 7261          ADD       *-SP[33],AL           ; |4426| 
   11498              DW$L$_f_printf$28$E:
   11499              L377:    
   11500              DW$L$_f_printf$29$B:
   11501                      .dwpsn  "ff.c",4426,12
   11502 0000166e 4145          TBIT      *-SP[5],#1            ; |4426| 
   11503 0000166f EE05          BF        L378,TC               ; |4426| 
   11504                      ; branchcc occurs ; |4426| 
   11505 00001670       DW$L$_f_printf$29$E:
   11506 00001670       DW$L$_f_printf$30$B:
   11507 00001670 9248          MOV       AL,*-SP[8]            ; |4426| 
   11508 00001671 0A48          INC       *-SP[8]               ; |4426| 
   11509 00001672 5449          CMP       AL,*-SP[9]            ; |4426| 
   11510 00001673 68F5          B         L376,LO               ; |4426| 
   11511                      ; branchcc occurs ; |4426| 
   11512              DW$L$_f_printf$30$E:
   11513              L378:    
   11514              DW$L$_f_printf$31$B:
   11515                      .dwpsn  "ff.c",4427,4
   11516 00001674 8A60          MOVL      XAR4,*-SP[32]         ; |4427| 
   11517 00001675 8342          MOVL      XAR5,*-SP[2]          ; |4427| 
   11518 00001676 7640'         LCR       #_f_puts              ; |4427| 
         00001677 15DC 
   11519                      ; call occurs [#_f_puts] ; |4427| 
   11520 00001678 9662          MOV       *-SP[34],AL           ; |4427| 
   11521 00001679 7261          ADD       *-SP[33],AL           ; |4427| 
   11522                      .dwpsn  "ff.c",4428,12
   11523 0000167a 9248          MOV       AL,*-SP[8]            ; |4428| 
   11524 0000167b 0A48          INC       *-SP[8]               ; |4428| 
   11525 0000167c 5449          CMP       AL,*-SP[9]            ; |4428| 
   11526 0000167d 670B          B         L380,HIS              ; |4428| 
   11527                      ; branchcc occurs ; |4428| 
   11528              DW$L$_f_printf$31$E:
   11529              L379:    
   11530              DW$L$_f_printf$32$B:
   11531                      .dwpsn  "ff.c",4428,22
   11532 0000167e 8A42          MOVL      XAR4,*-SP[2]          ; |4428| 
   11533 0000167f 9A20          MOVB      AL,#32                ; |4428| 
   11534 00001680 7640'         LCR       #_f_putc              ; |4428| 
         00001681 15C3 
   11535                      ; call occurs [#_f_putc] ; |4428| 
   11536 00001682 9662          MOV       *-SP[34],AL           ; |4428| 
   11537 00001683 7261          ADD       *-SP[33],AL           ; |4428| 
   11538                      .dwpsn  "ff.c",4428,12
   11539 00001684 9248          MOV       AL,*-SP[8]            ; |4428| 
   11540 00001685 0A48          INC       *-SP[8]               ; |4428| 
TMS320C2000 COFF Assembler PC v4.1.3 Thu May 05 10:06:00 2011

Tools Copyright (c) 1996-2006 Texas Instruments Incorporated
C:\DOCUME~1\ADMINI~1\LOCALS~1\Temp\TI1122                            PAGE  222

   11541 00001686 5449          CMP       AL,*-SP[9]            ; |4428| 
   11542 00001687 68F7          B         L379,LO               ; |4428| 
   11543                      ; branchcc occurs ; |4428| 
   11544              DW$L$_f_printf$32$E:
   11545              L380:    
   11546              DW$L$_f_printf$33$B:
   11547                      .dwpsn  "ff.c",4429,4
   11548 00001688 9262          MOV       AL,*-SP[34]           ; |4429| 
   11549 00001689 1BA9          CMP       AL,#-1                ; |4429| 
         0000168a FFFF 
   11550 0000168b 56C1          BF        L409,EQ               ; |4429| 
         0000168c 00C8 
   11551                      ; branchcc occurs ; |4429| 
   11552              DW$L$_f_printf$33$E:
   11553              DW$L$_f_printf$34$B:
   11554                      .dwpsn  "ff.c",4429,21
   11555 0000168d 9261          MOV       AL,*-SP[33]           ; |4429| 
   11556 0000168e 9662          MOV       *-SP[34],AL           ; |4429| 
   11557                      .dwpsn  "ff.c",4430,4
   11558 0000168f FFEF          B         L409,UNC              ; |4430| 
         00001690 00C4 
   11559                      ; branch occurs ; |4430| 
   11560              DW$L$_f_printf$34$E:
   11561              L381:    
   11562              DW$L$_f_printf$35$B:
   11563                      .dwpsn  "ff.c",4432,4
   11564 00001691 0201          MOVB      ACC,#1
   11565 00001692 5641          SUBL      *-SP[4],ACC           ; |4432| 
         00001693 0044 
   11566 00001694 8A44          MOVL      XAR4,*-SP[4]          ; |4432| 
   11567 00001695 92C4          MOV       AL,*+XAR4[0]          ; |4432| 
   11568 00001696 8A42          MOVL      XAR4,*-SP[2]          ; |4432| 
   11569 00001697 7640'         LCR       #_f_putc              ; |4432| 
         00001698 15C3 
   11570                      ; call occurs [#_f_putc] ; |4432| 
   11571 00001699 9662          MOV       *-SP[34],AL           ; |4432| 
   11572                      .dwpsn  "ff.c",4433,4
   11573 0000169a FFEF          B         L409,UNC              ; |4433| 
         0000169b 00B9 
   11574                      ; branch occurs ; |4433| 
   11575              DW$L$_f_printf$35$E:
   11576              L382:    
   11577              DW$L$_f_printf$36$B:
   11578                      .dwpsn  "ff.c",4435,4
   11579 0000169c 2846          MOV       *-SP[6],#2            ; |4435| 
         0000169d 0002 
   11580                      .dwpsn  "ff.c",4436,9
   11581 0000169e 6F24          B         L389,UNC              ; |4436| 
   11582                      ; branch occurs ; |4436| 
   11583              DW$L$_f_printf$36$E:
   11584              L383:    
   11585              DW$L$_f_printf$37$B:
   11586                      .dwpsn  "ff.c",4438,4
   11587 0000169f 2846          MOV       *-SP[6],#8            ; |4438| 
         000016a0 0008 
TMS320C2000 COFF Assembler PC v4.1.3 Thu May 05 10:06:00 2011

Tools Copyright (c) 1996-2006 Texas Instruments Incorporated
C:\DOCUME~1\ADMINI~1\LOCALS~1\Temp\TI1122                            PAGE  223

   11588                      .dwpsn  "ff.c",4439,9
   11589 000016a1 6F21          B         L389,UNC              ; |4439| 
   11590                      ; branch occurs ; |4439| 
   11591              DW$L$_f_printf$37$E:
   11592              L384:    
   11593              DW$L$_f_printf$38$B:
   11594                      .dwpsn  "ff.c",4442,4
   11595 000016a2 2846          MOV       *-SP[6],#10           ; |4442| 
         000016a3 000A 
   11596                      .dwpsn  "ff.c",4443,9
   11597 000016a4 6F1E          B         L389,UNC              ; |4443| 
   11598                      ; branch occurs ; |4443| 
   11599              DW$L$_f_printf$38$E:
   11600              L385:    
   11601              DW$L$_f_printf$39$B:
   11602                      .dwpsn  "ff.c",4445,4
   11603 000016a5 2846          MOV       *-SP[6],#16           ; |4445| 
         000016a6 0010 
   11604                      .dwpsn  "ff.c",4446,9
   11605 000016a7 6F1B          B         L389,UNC              ; |4446| 
   11606                      ; branch occurs ; |4446| 
   11607              DW$L$_f_printf$39$E:
   11608              L386:    
   11609              DW$L$_f_printf$40$B:
   11610                      .dwpsn  "ff.c",4448,4
   11611 000016a8 8A42          MOVL      XAR4,*-SP[2]          ; |4448| 
   11612 000016a9 924D          MOV       AL,*-SP[13]           ; |4448| 
   11613 000016aa 7640'         LCR       #_f_putc              ; |4448| 
         000016ab 15C3 
   11614                      ; call occurs [#_f_putc] ; |4448| 
   11615 000016ac 9662          MOV       *-SP[34],AL           ; |4448| 
   11616                      .dwpsn  "ff.c",4449,4
   11617 000016ad FFEF          B         L409,UNC              ; |4449| 
         000016ae 00A6 
   11618                      ; branch occurs ; |4449| 
   11619              DW$L$_f_printf$40$E:
   11620              L387:    
   11621              DW$L$_f_printf$41$B:
   11622                      .dwpsn  "ff.c",4420,3
   11623 000016af 924E          MOV       AL,*-SP[14]           ; |4420| 
   11624 000016b0 524F          CMPB      AL,#79                ; |4420| 
   11625 000016b1 620A          B         L388,GT               ; |4420| 
   11626                      ; branchcc occurs ; |4420| 
   11627 000016b2       DW$L$_f_printf$41$E:
   11628 000016b2       DW$L$_f_printf$42$B:
   11629 000016b2 524F          CMPB      AL,#79                ; |4420| 
   11630 000016b3 ECEC          BF        L383,EQ               ; |4420| 
   11631                      ; branchcc occurs ; |4420| 
   11632 000016b4       DW$L$_f_printf$42$E:
   11633 000016b4       DW$L$_f_printf$43$B:
   11634 000016b4 5242          CMPB      AL,#66                ; |4420| 
   11635 000016b5 ECE7          BF        L382,EQ               ; |4420| 
   11636                      ; branchcc occurs ; |4420| 
   11637 000016b6       DW$L$_f_printf$43$E:
   11638 000016b6       DW$L$_f_printf$44$B:
TMS320C2000 COFF Assembler PC v4.1.3 Thu May 05 10:06:00 2011

Tools Copyright (c) 1996-2006 Texas Instruments Incorporated
C:\DOCUME~1\ADMINI~1\LOCALS~1\Temp\TI1122                            PAGE  224

   11639 000016b6 5243          CMPB      AL,#67                ; |4420| 
   11640 000016b7 ECDA          BF        L381,EQ               ; |4420| 
   11641                      ; branchcc occurs ; |4420| 
   11642 000016b8       DW$L$_f_printf$44$E:
   11643 000016b8       DW$L$_f_printf$45$B:
   11644 000016b8 5244          CMPB      AL,#68                ; |4420| 
   11645 000016b9 ECE9          BF        L384,EQ               ; |4420| 
   11646                      ; branchcc occurs ; |4420| 
   11647 000016ba       DW$L$_f_printf$45$E:
   11648 000016ba       DW$L$_f_printf$46$B:
   11649 000016ba 6FEE          B         L386,UNC              ; |4420| 
   11650                      ; branch occurs ; |4420| 
   11651 000016bb       DW$L$_f_printf$46$E:
   11652 000016bb       L388:    
   11653 000016bb       DW$L$_f_printf$47$B:
   11654 000016bb 5253          CMPB      AL,#83                ; |4420| 
   11655 000016bc EC95          BF        L371,EQ               ; |4420| 
   11656                      ; branchcc occurs ; |4420| 
   11657 000016bd       DW$L$_f_printf$47$E:
   11658 000016bd       DW$L$_f_printf$48$B:
   11659 000016bd 5255          CMPB      AL,#85                ; |4420| 
   11660 000016be ECE4          BF        L384,EQ               ; |4420| 
   11661                      ; branchcc occurs ; |4420| 
   11662 000016bf       DW$L$_f_printf$48$E:
   11663 000016bf       DW$L$_f_printf$49$B:
   11664 000016bf 5258          CMPB      AL,#88                ; |4420| 
   11665 000016c0 ECE5          BF        L385,EQ               ; |4420| 
   11666                      ; branchcc occurs ; |4420| 
   11667 000016c1       DW$L$_f_printf$49$E:
   11668 000016c1       DW$L$_f_printf$50$B:
   11669 000016c1 6FE7          B         L386,UNC              ; |4420| 
   11670                      ; branch occurs ; |4420| 
   11671              DW$L$_f_printf$50$E:
   11672              L389:    
   11673              DW$L$_f_printf$51$B:
   11674                      .dwpsn  "ff.c",4453,3
   11675 000016c2 4245          TBIT      *-SP[5],#2            ; |4453| 
   11676 000016c3 EF0F          BF        L392,NTC              ; |4453| 
   11677                      ; branchcc occurs ; |4453| 
   11678 000016c4       DW$L$_f_printf$51$E:
   11679 000016c4       DW$L$_f_printf$52$B:
   11680 000016c4 0644          MOVL      ACC,*-SP[4]           ; |4453| 
   11681 000016c5 9001          ANDB      AL,#0x01              ; |4453| 
   11682 000016c6 9B00          MOVB      AH,#0
   11683 000016c7 FF58          TEST      ACC                   ; |4453| 
   11684 000016c8 EC03          BF        L390,EQ               ; |4453| 
   11685                      ; branchcc occurs ; |4453| 
   11686 000016c9       DW$L$_f_printf$52$E:
   11687 000016c9       DW$L$_f_printf$53$B:
   11688 000016c9 0202          MOVB      ACC,#2
   11689 000016ca 6F02          B         L391,UNC              ; |4453| 
   11690                      ; branch occurs ; |4453| 
   11691 000016cb       DW$L$_f_printf$53$E:
   11692 000016cb       L390:    
   11693 000016cb       DW$L$_f_printf$54$B:
TMS320C2000 COFF Assembler PC v4.1.3 Thu May 05 10:06:00 2011

Tools Copyright (c) 1996-2006 Texas Instruments Incorporated
C:\DOCUME~1\ADMINI~1\LOCALS~1\Temp\TI1122                            PAGE  225

   11694 000016cb 0201          MOVB      ACC,#1
   11695 000016cc       DW$L$_f_printf$54$E:
   11696 000016cc       L391:    
   11697 000016cc       DW$L$_f_printf$55$B:
   11698 000016cc 0901          ADDB      ACC,#1                ; |4453| 
   11699 000016cd 5641          SUBL      *-SP[4],ACC           ; |4453| 
         000016ce 0044 
   11700 000016cf 8A44          MOVL      XAR4,*-SP[4]          ; |4453| 
   11701 000016d0 06C4          MOVL      ACC,*+XAR4[0]         ; |4453| 
   11702 000016d1 6F10          B         L394,UNC              ; |4453| 
   11703                      ; branch occurs ; |4453| 
   11704 000016d2       DW$L$_f_printf$55$E:
   11705 000016d2       L392:    
   11706 000016d2       DW$L$_f_printf$56$B:
   11707 000016d2 924E          MOV       AL,*-SP[14]           ; |4453| 
   11708 000016d3 5244          CMPB      AL,#68                ; |4453| 
   11709 000016d4 ED08          BF        L393,NEQ              ; |4453| 
   11710                      ; branchcc occurs ; |4453| 
   11711 000016d5       DW$L$_f_printf$56$E:
   11712 000016d5       DW$L$_f_printf$57$B:
   11713 000016d5 0201          MOVB      ACC,#1
   11714 000016d6 5641          SUBL      *-SP[4],ACC           ; |4453| 
         000016d7 0044 
   11715 000016d8 8A44          MOVL      XAR4,*-SP[4]          ; |4453| 
   11716 000016d9 3B01          SETC      SXM
   11717 000016da 85C4          MOV       ACC,*+XAR4[0]         ; |4453| 
   11718 000016db 6F06          B         L394,UNC              ; |4453| 
   11719                      ; branch occurs ; |4453| 
   11720 000016dc       DW$L$_f_printf$57$E:
   11721 000016dc       L393:    
   11722 000016dc       DW$L$_f_printf$58$B:
   11723 000016dc 0201          MOVB      ACC,#1
   11724 000016dd 5641          SUBL      *-SP[4],ACC           ; |4453| 
         000016de 0044 
   11725 000016df 8A44          MOVL      XAR4,*-SP[4]          ; |4453| 
   11726 000016e0 0EC4          MOVU      ACC,*+XAR4[0]
   11727 000016e1       DW$L$_f_printf$58$E:
   11728 000016e1       L394:    
   11729 000016e1       DW$L$_f_printf$59$B:
   11730 000016e1 1E4C          MOVL      *-SP[12],ACC          ; |4453| 
   11731                      .dwpsn  "ff.c",4454,3
   11732 000016e2 924E          MOV       AL,*-SP[14]           ; |4454| 
   11733 000016e3 5244          CMPB      AL,#68                ; |4454| 
   11734 000016e4 ED0A          BF        L395,NEQ              ; |4454| 
   11735                      ; branchcc occurs ; |4454| 
   11736 000016e5       DW$L$_f_printf$59$E:
   11737 000016e5       DW$L$_f_printf$60$B:
   11738 000016e5 064C          MOVL      ACC,*-SP[12]          ; |4454| 
   11739 000016e6 5608          AND       ACC,#32768 << 16      ; |4454| 
         000016e7 8000 
   11740 000016e8 EC06          BF        L395,EQ               ; |4454| 
   11741                      ; branchcc occurs ; |4454| 
   11742              DW$L$_f_printf$60$E:
   11743              DW$L$_f_printf$61$B:
   11744                      .dwpsn  "ff.c",4456,4
TMS320C2000 COFF Assembler PC v4.1.3 Thu May 05 10:06:00 2011

Tools Copyright (c) 1996-2006 Texas Instruments Incorporated
C:\DOCUME~1\ADMINI~1\LOCALS~1\Temp\TI1122                            PAGE  226

   11745 000016e9 064C          MOVL      ACC,*-SP[12]          ; |4456| 
   11746 000016ea FF54          NEG       ACC                   ; |4456| 
   11747 000016eb 1E4C          MOVL      *-SP[12],ACC          ; |4456| 
   11748                      .dwpsn  "ff.c",4457,4
   11749 000016ec 1A45          OR        *-SP[5],#0x0008       ; |4457| 
         000016ed 0008 
   11750              DW$L$_f_printf$61$E:
   11751              L395:    
   11752              DW$L$_f_printf$62$B:
   11753                      .dwpsn  "ff.c",4459,3
   11754 000016ee 2B47          MOV       *-SP[7],#0            ; |4459| 
   11755              DW$L$_f_printf$62$E:
   11756              L396:    
   11757              DW$L$_f_printf$63$B:
   11758                      .dwpsn  "ff.c",4462,4
   11759 000016ef 8846          MOVZ      AR6,*-SP[6]
   11760 000016f0 0200          MOVB      ACC,#0
   11761 000016f1 A34C          MOVL      P,*-SP[12]            ; |4462| 
   11762 000016f2 F61F          RPT       #31
   11763 000016f3 5617  ||     SUBCUL    ACC,XAR6              ; |4462| 
         000016f4 00A6 
   11764 000016f5 964E          MOV       *-SP[14],AL           ; |4462| 
   11765                      .dwpsn  "ff.c",4463,4
   11766 000016f6 8846          MOVZ      AR6,*-SP[6]
   11767 000016f7 0200          MOVB      ACC,#0
   11768 000016f8 A34C          MOVL      P,*-SP[12]            ; |4463| 
   11769 000016f9 F61F          RPT       #31
   11770 000016fa 5617  ||     SUBCUL    ACC,XAR6              ; |4463| 
         000016fb 00A6 
   11771 000016fc A94C          MOVL      *-SP[12],P            ; |4463| 
   11772                      .dwpsn  "ff.c",4464,4
   11773 000016fd 924E          MOV       AL,*-SP[14]           ; |4464| 
   11774 000016fe 5209          CMPB      AL,#9                 ; |4464| 
   11775 000016ff 6508          B         L399,LEQ              ; |4464| 
   11776                      ; branchcc occurs ; |4464| 
   11777              DW$L$_f_printf$63$E:
   11778              DW$L$_f_printf$64$B:
   11779                      .dwpsn  "ff.c",4464,17
   11780 00001700 924D          MOV       AL,*-SP[13]           ; |4464| 
   11781 00001701 5278          CMPB      AL,#120               ; |4464| 
   11782 00001702 ED03          BF        L397,NEQ              ; |4464| 
   11783                      ; branchcc occurs ; |4464| 
   11784 00001703       DW$L$_f_printf$64$E:
   11785 00001703       DW$L$_f_printf$65$B:
   11786 00001703 9A27          MOVB      AL,#39                ; |4464| 
   11787 00001704 6F02          B         L398,UNC              ; |4464| 
   11788                      ; branch occurs ; |4464| 
   11789 00001705       DW$L$_f_printf$65$E:
   11790 00001705       L397:    
   11791 00001705       DW$L$_f_printf$66$B:
   11792 00001705 9A07          MOVB      AL,#7                 ; |4464| 
   11793 00001706       DW$L$_f_printf$66$E:
   11794 00001706       L398:    
   11795 00001706       DW$L$_f_printf$67$B:
   11796 00001706 724E          ADD       *-SP[14],AL           ; |4464| 
TMS320C2000 COFF Assembler PC v4.1.3 Thu May 05 10:06:00 2011

Tools Copyright (c) 1996-2006 Texas Instruments Incorporated
C:\DOCUME~1\ADMINI~1\LOCALS~1\Temp\TI1122                            PAGE  227

   11797              DW$L$_f_printf$67$E:
   11798              L399:    
   11799              DW$L$_f_printf$68$B:
   11800                      .dwpsn  "ff.c",4465,4
   11801 00001707 5CAD          MOVZ      AR4,SP                ; |4465| 
   11802 00001708 5847          MOVZ      AR0,*-SP[7]           ; |4465| 
   11803 00001709 0A47          INC       *-SP[7]               ; |4465| 
   11804 0000170a 924E          MOV       AL,*-SP[14]           ; |4465| 
   11805 0000170b DC9E          SUBB      XAR4,#30              ; |4465| 
   11806 0000170c 9C30          ADDB      AL,#48                ; |4465| 
   11807 0000170d 9694          MOV       *+XAR4[AR0],AL        ; |4465| 
   11808                      .dwpsn  "ff.c",4467,11
   11809 0000170e 064C          MOVL      ACC,*-SP[12]          ; |4467| 
   11810 0000170f EC04          BF        L400,EQ               ; |4467| 
   11811                      ; branchcc occurs ; |4467| 
   11812 00001710       DW$L$_f_printf$68$E:
   11813 00001710       DW$L$_f_printf$69$B:
   11814 00001710 9247          MOV       AL,*-SP[7]            ; |4467| 
   11815 00001711 5210          CMPB      AL,#16                ; |4467| 
   11816 00001712 68DD          B         L396,LO               ; |4467| 
   11817                      ; branchcc occurs ; |4467| 
   11818              DW$L$_f_printf$69$E:
   11819              L400:    
   11820              DW$L$_f_printf$70$B:
   11821                      .dwpsn  "ff.c",4468,3
   11822 00001713 4345          TBIT      *-SP[5],#3            ; |4468| 
   11823 00001714 EF07          BF        L401,NTC              ; |4468| 
   11824                      ; branchcc occurs ; |4468| 
   11825              DW$L$_f_printf$70$E:
   11826              DW$L$_f_printf$71$B:
   11827                      .dwpsn  "ff.c",4468,16
   11828 00001715 5CAD          MOVZ      AR4,SP                ; |4468| 
   11829 00001716 5847          MOVZ      AR0,*-SP[7]           ; |4468| 
   11830 00001717 0A47          INC       *-SP[7]               ; |4468| 
   11831 00001718 DC9E          SUBB      XAR4,#30              ; |4468| 
   11832 00001719 2894          MOV       *+XAR4[AR0],#45       ; |4468| 
         0000171a 002D 
   11833              DW$L$_f_printf$71$E:
   11834              L401:    
   11835              DW$L$_f_printf$72$B:
   11836                      .dwpsn  "ff.c",4469,3
   11837 0000171b 9247          MOV       AL,*-SP[7]            ; |4469| 
   11838 0000171c 9648          MOV       *-SP[8],AL            ; |4469| 
   11839                      .dwpsn  "ff.c",4470,3
   11840 0000171d 4045          TBIT      *-SP[5],#0            ; |4470| 
   11841 0000171e EF03          BF        L402,NTC              ; |4470| 
   11842                      ; branchcc occurs ; |4470| 
   11843 0000171f       DW$L$_f_printf$72$E:
   11844 0000171f       DW$L$_f_printf$73$B:
   11845 0000171f 9A30          MOVB      AL,#48                ; |4470| 
   11846 00001720 6F02          B         L403,UNC              ; |4470| 
   11847                      ; branch occurs ; |4470| 
   11848 00001721       DW$L$_f_printf$73$E:
   11849 00001721       L402:    
   11850 00001721       DW$L$_f_printf$74$B:
TMS320C2000 COFF Assembler PC v4.1.3 Thu May 05 10:06:00 2011

Tools Copyright (c) 1996-2006 Texas Instruments Incorporated
C:\DOCUME~1\ADMINI~1\LOCALS~1\Temp\TI1122                            PAGE  228

   11851 00001721 9A20          MOVB      AL,#32                ; |4470| 
   11852 00001722       DW$L$_f_printf$74$E:
   11853 00001722       L403:    
   11854 00001722       DW$L$_f_printf$75$B:
   11855 00001722 964E          MOV       *-SP[14],AL           ; |4470| 
   11856                      .dwpsn  "ff.c",4471,3
   11857 00001723 2B61          MOV       *-SP[33],#0           ; |4471| 
   11858                      .dwpsn  "ff.c",4472,3
   11859 00001724 6F07          B         L405,UNC              ; |4472| 
   11860                      ; branch occurs ; |4472| 
   11861              DW$L$_f_printf$75$E:
   11862              L404:    
   11863              DW$L$_f_printf$76$B:
   11864                      .dwpsn  "ff.c",4472,35
   11865 00001725 8A42          MOVL      XAR4,*-SP[2]          ; |4472| 
   11866 00001726 924E          MOV       AL,*-SP[14]           ; |4472| 
   11867 00001727 7640'         LCR       #_f_putc              ; |4472| 
         00001728 15C3 
   11868                      ; call occurs [#_f_putc] ; |4472| 
   11869 00001729 9662          MOV       *-SP[34],AL           ; |4472| 
   11870 0000172a 7261          ADD       *-SP[33],AL           ; |4472| 
   11871              DW$L$_f_printf$76$E:
   11872              L405:    
   11873              DW$L$_f_printf$77$B:
   11874                      .dwpsn  "ff.c",4472,11
   11875 0000172b 4145          TBIT      *-SP[5],#1            ; |4472| 
   11876 0000172c EE05          BF        L406,TC               ; |4472| 
   11877                      ; branchcc occurs ; |4472| 
   11878 0000172d       DW$L$_f_printf$77$E:
   11879 0000172d       DW$L$_f_printf$78$B:
   11880 0000172d 9248          MOV       AL,*-SP[8]            ; |4472| 
   11881 0000172e 0A48          INC       *-SP[8]               ; |4472| 
   11882 0000172f 5449          CMP       AL,*-SP[9]            ; |4472| 
   11883 00001730 68F5          B         L404,LO               ; |4472| 
   11884                      ; branchcc occurs ; |4472| 
   11885              DW$L$_f_printf$78$E:
   11886              L406:    
   11887              DW$L$_f_printf$79$B:
   11888                      .dwpsn  "ff.c",4473,6
   11889 00001731 5CAD          MOVZ      AR4,SP                ; |4473| 
   11890 00001732 9247          MOV       AL,*-SP[7]            ; |4473| 
   11891 00001733 9CFF          ADDB      AL,#-1
   11892 00001734 58A9          MOVZ      AR0,AL                ; |4473| 
   11893 00001735 DC9E          SUBB      XAR4,#30              ; |4473| 
   11894 00001736 9647          MOV       *-SP[7],AL            ; |4473| 
   11895 00001737 9294          MOV       AL,*+XAR4[AR0]        ; |4473| 
   11896 00001738 8A42          MOVL      XAR4,*-SP[2]          ; |4473| 
   11897 00001739 7640'         LCR       #_f_putc              ; |4473| 
         0000173a 15C3 
   11898                      ; call occurs [#_f_putc] ; |4473| 
   11899 0000173b 9662          MOV       *-SP[34],AL           ; |4473| 
   11900 0000173c 7261          ADD       *-SP[33],AL           ; |4473| 
   11901 0000173d 9247          MOV       AL,*-SP[7]            ; |4473| 
   11902 0000173e EDF3          BF        L406,NEQ              ; |4473| 
   11903                      ; branchcc occurs ; |4473| 
TMS320C2000 COFF Assembler PC v4.1.3 Thu May 05 10:06:00 2011

Tools Copyright (c) 1996-2006 Texas Instruments Incorporated
C:\DOCUME~1\ADMINI~1\LOCALS~1\Temp\TI1122                            PAGE  229

   11904              DW$L$_f_printf$79$E:
   11905              DW$L$_f_printf$80$B:
   11906                      .dwpsn  "ff.c",4475,11
   11907 0000173f 9248          MOV       AL,*-SP[8]            ; |4475| 
   11908 00001740 0A48          INC       *-SP[8]               ; |4475| 
   11909 00001741 5449          CMP       AL,*-SP[9]            ; |4475| 
   11910 00001742 670B          B         L408,HIS              ; |4475| 
   11911                      ; branchcc occurs ; |4475| 
   11912              DW$L$_f_printf$80$E:
   11913              L407:    
   11914              DW$L$_f_printf$81$B:
   11915                      .dwpsn  "ff.c",4475,21
   11916 00001743 8A42          MOVL      XAR4,*-SP[2]          ; |4475| 
   11917 00001744 9A20          MOVB      AL,#32                ; |4475| 
   11918 00001745 7640'         LCR       #_f_putc              ; |4475| 
         00001746 15C3 
   11919                      ; call occurs [#_f_putc] ; |4475| 
   11920 00001747 9662          MOV       *-SP[34],AL           ; |4475| 
   11921 00001748 7261          ADD       *-SP[33],AL           ; |4475| 
   11922                      .dwpsn  "ff.c",4475,11
   11923 00001749 9248          MOV       AL,*-SP[8]            ; |4475| 
   11924 0000174a 0A48          INC       *-SP[8]               ; |4475| 
   11925 0000174b 5449          CMP       AL,*-SP[9]            ; |4475| 
   11926 0000174c 68F7          B         L407,LO               ; |4475| 
   11927                      ; branchcc occurs ; |4475| 
   11928              DW$L$_f_printf$81$E:
   11929              L408:    
   11930              DW$L$_f_printf$82$B:
   11931                      .dwpsn  "ff.c",4476,3
   11932 0000174d 9262          MOV       AL,*-SP[34]           ; |4476| 
   11933 0000174e 1BA9          CMP       AL,#-1                ; |4476| 
         0000174f FFFF 
   11934 00001750 EC03          BF        L409,EQ               ; |4476| 
   11935                      ; branchcc occurs ; |4476| 
   11936              DW$L$_f_printf$82$E:
   11937              DW$L$_f_printf$83$B:
   11938                      .dwpsn  "ff.c",4476,20
   11939 00001751 9261          MOV       AL,*-SP[33]           ; |4476| 
   11940 00001752 9662          MOV       *-SP[34],AL           ; |4476| 
   11941              DW$L$_f_printf$83$E:
   11942              L409:    
   11943              DW$L$_f_printf$84$B:
   11944                      .dwpsn  "ff.c",4382,33
   11945 00001753 7261          ADD       *-SP[33],AL           ; |4382| 
   11946                      .dwpsn  "ff.c",4382,22
   11947 00001754 1B62          CMP       *-SP[34],#-1          ; |4382| 
         00001755 FFFF 
   11948 00001756 56C0          BF        L363,NEQ              ; |4382| 
         00001757 FEAC 
   11949                      ; branchcc occurs ; |4382| 
   11950              DW$L$_f_printf$84$E:
   11951              L410:    
   11952                      .dwpsn  "ff.c",4480,2
   11953 00001758 9262          MOV       AL,*-SP[34]           ; |4480| 
   11954 00001759 1BA9          CMP       AL,#-1                ; |4480| 
TMS320C2000 COFF Assembler PC v4.1.3 Thu May 05 10:06:00 2011

Tools Copyright (c) 1996-2006 Texas Instruments Incorporated
C:\DOCUME~1\ADMINI~1\LOCALS~1\Temp\TI1122                            PAGE  230

         0000175a FFFF 
   11955 0000175b EC02          BF        L411,EQ               ; |4480| 
   11956                      ; branchcc occurs ; |4480| 
   11957 0000175c 9261          MOV       AL,*-SP[33]           ; |4480| 
   11958              L411:    
   11959                      .dwpsn  "ff.c",4481,1
   11960 0000175d FEA2          SUBB      SP,#34                ; |4480| 
   11961                      .dwcfa  0x1d, -2
   11962 0000175e 0006          LRETR
   11963                      ; return occurs
   11964              
   11965              DW$636  .dwtag  DW_TAG_loop
   11966                      .dwattr DW$636, DW_AT_name("C:\DOCUME~1\ADMINI~1\LOCALS~1\Temp\TI1122:L363:1:1304561157")
   11967                      .dwattr DW$636, DW_AT_begin_file("ff.c")
   11968                      .dwattr DW$636, DW_AT_begin_line(0x111e)
   11969                      .dwattr DW$636, DW_AT_end_line(0x117d)
   11970              DW$637  .dwtag  DW_TAG_loop_range
   11971                      .dwattr DW$637, DW_AT_low_pc(DW$L$_f_printf$2$B)
   11972                      .dwattr DW$637, DW_AT_high_pc(DW$L$_f_printf$2$E)
   11973              DW$638  .dwtag  DW_TAG_loop_range
   11974                      .dwattr DW$638, DW_AT_low_pc(DW$L$_f_printf$56$B)
   11975                      .dwattr DW$638, DW_AT_high_pc(DW$L$_f_printf$56$E)
   11976              DW$639  .dwtag  DW_TAG_loop_range
   11977                      .dwattr DW$639, DW_AT_low_pc(DW$L$_f_printf$36$B)
   11978                      .dwattr DW$639, DW_AT_high_pc(DW$L$_f_printf$36$E)
   11979              DW$640  .dwtag  DW_TAG_loop_range
   11980                      .dwattr DW$640, DW_AT_low_pc(DW$L$_f_printf$37$B)
   11981                      .dwattr DW$640, DW_AT_high_pc(DW$L$_f_printf$37$E)
   11982              DW$641  .dwtag  DW_TAG_loop_range
   11983                      .dwattr DW$641, DW_AT_low_pc(DW$L$_f_printf$38$B)
   11984                      .dwattr DW$641, DW_AT_high_pc(DW$L$_f_printf$38$E)
   11985              DW$642  .dwtag  DW_TAG_loop_range
   11986                      .dwattr DW$642, DW_AT_low_pc(DW$L$_f_printf$39$B)
   11987                      .dwattr DW$642, DW_AT_high_pc(DW$L$_f_printf$39$E)
   11988              DW$643  .dwtag  DW_TAG_loop_range
   11989                      .dwattr DW$643, DW_AT_low_pc(DW$L$_f_printf$51$B)
   11990                      .dwattr DW$643, DW_AT_high_pc(DW$L$_f_printf$51$E)
   11991              DW$644  .dwtag  DW_TAG_loop_range
   11992                      .dwattr DW$644, DW_AT_low_pc(DW$L$_f_printf$52$B)
   11993                      .dwattr DW$644, DW_AT_high_pc(DW$L$_f_printf$52$E)
   11994              DW$645  .dwtag  DW_TAG_loop_range
   11995                      .dwattr DW$645, DW_AT_low_pc(DW$L$_f_printf$53$B)
   11996                      .dwattr DW$645, DW_AT_high_pc(DW$L$_f_printf$53$E)
   11997              DW$646  .dwtag  DW_TAG_loop_range
   11998                      .dwattr DW$646, DW_AT_low_pc(DW$L$_f_printf$54$B)
   11999                      .dwattr DW$646, DW_AT_high_pc(DW$L$_f_printf$54$E)
   12000              DW$647  .dwtag  DW_TAG_loop_range
   12001                      .dwattr DW$647, DW_AT_low_pc(DW$L$_f_printf$55$B)
   12002                      .dwattr DW$647, DW_AT_high_pc(DW$L$_f_printf$55$E)
   12003              DW$648  .dwtag  DW_TAG_loop_range
   12004                      .dwattr DW$648, DW_AT_low_pc(DW$L$_f_printf$57$B)
   12005                      .dwattr DW$648, DW_AT_high_pc(DW$L$_f_printf$57$E)
   12006              DW$649  .dwtag  DW_TAG_loop_range
   12007                      .dwattr DW$649, DW_AT_low_pc(DW$L$_f_printf$58$B)
   12008                      .dwattr DW$649, DW_AT_high_pc(DW$L$_f_printf$58$E)
TMS320C2000 COFF Assembler PC v4.1.3 Thu May 05 10:06:00 2011

Tools Copyright (c) 1996-2006 Texas Instruments Incorporated
C:\DOCUME~1\ADMINI~1\LOCALS~1\Temp\TI1122                            PAGE  231

   12009              DW$650  .dwtag  DW_TAG_loop_range
   12010                      .dwattr DW$650, DW_AT_low_pc(DW$L$_f_printf$59$B)
   12011                      .dwattr DW$650, DW_AT_high_pc(DW$L$_f_printf$59$E)
   12012              DW$651  .dwtag  DW_TAG_loop_range
   12013                      .dwattr DW$651, DW_AT_low_pc(DW$L$_f_printf$60$B)
   12014                      .dwattr DW$651, DW_AT_high_pc(DW$L$_f_printf$60$E)
   12015              DW$652  .dwtag  DW_TAG_loop_range
   12016                      .dwattr DW$652, DW_AT_low_pc(DW$L$_f_printf$61$B)
   12017                      .dwattr DW$652, DW_AT_high_pc(DW$L$_f_printf$61$E)
   12018              DW$653  .dwtag  DW_TAG_loop_range
   12019                      .dwattr DW$653, DW_AT_low_pc(DW$L$_f_printf$62$B)
   12020                      .dwattr DW$653, DW_AT_high_pc(DW$L$_f_printf$62$E)
   12021              DW$654  .dwtag  DW_TAG_loop_range
   12022                      .dwattr DW$654, DW_AT_low_pc(DW$L$_f_printf$70$B)
   12023                      .dwattr DW$654, DW_AT_high_pc(DW$L$_f_printf$70$E)
   12024              DW$655  .dwtag  DW_TAG_loop_range
   12025                      .dwattr DW$655, DW_AT_low_pc(DW$L$_f_printf$71$B)
   12026                      .dwattr DW$655, DW_AT_high_pc(DW$L$_f_printf$71$E)
   12027              DW$656  .dwtag  DW_TAG_loop_range
   12028                      .dwattr DW$656, DW_AT_low_pc(DW$L$_f_printf$72$B)
   12029                      .dwattr DW$656, DW_AT_high_pc(DW$L$_f_printf$72$E)
   12030              DW$657  .dwtag  DW_TAG_loop_range
   12031                      .dwattr DW$657, DW_AT_low_pc(DW$L$_f_printf$73$B)
   12032                      .dwattr DW$657, DW_AT_high_pc(DW$L$_f_printf$73$E)
   12033              DW$658  .dwtag  DW_TAG_loop_range
   12034                      .dwattr DW$658, DW_AT_low_pc(DW$L$_f_printf$74$B)
   12035                      .dwattr DW$658, DW_AT_high_pc(DW$L$_f_printf$74$E)
   12036              DW$659  .dwtag  DW_TAG_loop_range
   12037                      .dwattr DW$659, DW_AT_low_pc(DW$L$_f_printf$75$B)
   12038                      .dwattr DW$659, DW_AT_high_pc(DW$L$_f_printf$75$E)
   12039              DW$660  .dwtag  DW_TAG_loop_range
   12040                      .dwattr DW$660, DW_AT_low_pc(DW$L$_f_printf$80$B)
   12041                      .dwattr DW$660, DW_AT_high_pc(DW$L$_f_printf$80$E)
   12042              DW$661  .dwtag  DW_TAG_loop_range
   12043                      .dwattr DW$661, DW_AT_low_pc(DW$L$_f_printf$48$B)
   12044                      .dwattr DW$661, DW_AT_high_pc(DW$L$_f_printf$48$E)
   12045              DW$662  .dwtag  DW_TAG_loop_range
   12046                      .dwattr DW$662, DW_AT_low_pc(DW$L$_f_printf$49$B)
   12047                      .dwattr DW$662, DW_AT_high_pc(DW$L$_f_printf$49$E)
   12048              DW$663  .dwtag  DW_TAG_loop_range
   12049                      .dwattr DW$663, DW_AT_low_pc(DW$L$_f_printf$45$B)
   12050                      .dwattr DW$663, DW_AT_high_pc(DW$L$_f_printf$45$E)
   12051              DW$664  .dwtag  DW_TAG_loop_range
   12052                      .dwattr DW$664, DW_AT_low_pc(DW$L$_f_printf$46$B)
   12053                      .dwattr DW$664, DW_AT_high_pc(DW$L$_f_printf$46$E)
   12054              DW$665  .dwtag  DW_TAG_loop_range
   12055                      .dwattr DW$665, DW_AT_low_pc(DW$L$_f_printf$50$B)
   12056                      .dwattr DW$665, DW_AT_high_pc(DW$L$_f_printf$50$E)
   12057              DW$666  .dwtag  DW_TAG_loop_range
   12058                      .dwattr DW$666, DW_AT_low_pc(DW$L$_f_printf$42$B)
   12059                      .dwattr DW$666, DW_AT_high_pc(DW$L$_f_printf$42$E)
   12060              DW$667  .dwtag  DW_TAG_loop_range
   12061                      .dwattr DW$667, DW_AT_low_pc(DW$L$_f_printf$43$B)
   12062                      .dwattr DW$667, DW_AT_high_pc(DW$L$_f_printf$43$E)
   12063              DW$668  .dwtag  DW_TAG_loop_range
TMS320C2000 COFF Assembler PC v4.1.3 Thu May 05 10:06:00 2011

Tools Copyright (c) 1996-2006 Texas Instruments Incorporated
C:\DOCUME~1\ADMINI~1\LOCALS~1\Temp\TI1122                            PAGE  232

   12064                      .dwattr DW$668, DW_AT_low_pc(DW$L$_f_printf$44$B)
   12065                      .dwattr DW$668, DW_AT_high_pc(DW$L$_f_printf$44$E)
   12066              DW$669  .dwtag  DW_TAG_loop_range
   12067                      .dwattr DW$669, DW_AT_low_pc(DW$L$_f_printf$6$B)
   12068                      .dwattr DW$669, DW_AT_high_pc(DW$L$_f_printf$6$E)
   12069              DW$670  .dwtag  DW_TAG_loop_range
   12070                      .dwattr DW$670, DW_AT_low_pc(DW$L$_f_printf$7$B)
   12071                      .dwattr DW$670, DW_AT_high_pc(DW$L$_f_printf$7$E)
   12072              DW$671  .dwtag  DW_TAG_loop_range
   12073                      .dwattr DW$671, DW_AT_low_pc(DW$L$_f_printf$8$B)
   12074                      .dwattr DW$671, DW_AT_high_pc(DW$L$_f_printf$8$E)
   12075              DW$672  .dwtag  DW_TAG_loop_range
   12076                      .dwattr DW$672, DW_AT_low_pc(DW$L$_f_printf$9$B)
   12077                      .dwattr DW$672, DW_AT_high_pc(DW$L$_f_printf$9$E)
   12078              DW$673  .dwtag  DW_TAG_loop_range
   12079                      .dwattr DW$673, DW_AT_low_pc(DW$L$_f_printf$13$B)
   12080                      .dwattr DW$673, DW_AT_high_pc(DW$L$_f_printf$13$E)
   12081              DW$674  .dwtag  DW_TAG_loop_range
   12082                      .dwattr DW$674, DW_AT_low_pc(DW$L$_f_printf$14$B)
   12083                      .dwattr DW$674, DW_AT_high_pc(DW$L$_f_printf$14$E)
   12084              DW$675  .dwtag  DW_TAG_loop_range
   12085                      .dwattr DW$675, DW_AT_low_pc(DW$L$_f_printf$15$B)
   12086                      .dwattr DW$675, DW_AT_high_pc(DW$L$_f_printf$15$E)
   12087              DW$676  .dwtag  DW_TAG_loop_range
   12088                      .dwattr DW$676, DW_AT_low_pc(DW$L$_f_printf$16$B)
   12089                      .dwattr DW$676, DW_AT_high_pc(DW$L$_f_printf$16$E)
   12090              DW$677  .dwtag  DW_TAG_loop_range
   12091                      .dwattr DW$677, DW_AT_low_pc(DW$L$_f_printf$17$B)
   12092                      .dwattr DW$677, DW_AT_high_pc(DW$L$_f_printf$17$E)
   12093              DW$678  .dwtag  DW_TAG_loop_range
   12094                      .dwattr DW$678, DW_AT_low_pc(DW$L$_f_printf$18$B)
   12095                      .dwattr DW$678, DW_AT_high_pc(DW$L$_f_printf$18$E)
   12096              DW$679  .dwtag  DW_TAG_loop_range
   12097                      .dwattr DW$679, DW_AT_low_pc(DW$L$_f_printf$19$B)
   12098                      .dwattr DW$679, DW_AT_high_pc(DW$L$_f_printf$19$E)
   12099              DW$680  .dwtag  DW_TAG_loop_range
   12100                      .dwattr DW$680, DW_AT_low_pc(DW$L$_f_printf$41$B)
   12101                      .dwattr DW$680, DW_AT_high_pc(DW$L$_f_printf$41$E)
   12102              DW$681  .dwtag  DW_TAG_loop_range
   12103                      .dwattr DW$681, DW_AT_low_pc(DW$L$_f_printf$47$B)
   12104                      .dwattr DW$681, DW_AT_high_pc(DW$L$_f_printf$47$E)
   12105              DW$682  .dwtag  DW_TAG_loop_range
   12106                      .dwattr DW$682, DW_AT_low_pc(DW$L$_f_printf$21$B)
   12107                      .dwattr DW$682, DW_AT_high_pc(DW$L$_f_printf$21$E)
   12108              DW$683  .dwtag  DW_TAG_loop_range
   12109                      .dwattr DW$683, DW_AT_low_pc(DW$L$_f_printf$22$B)
   12110                      .dwattr DW$683, DW_AT_high_pc(DW$L$_f_printf$22$E)
   12111              DW$684  .dwtag  DW_TAG_loop_range
   12112                      .dwattr DW$684, DW_AT_low_pc(DW$L$_f_printf$23$B)
   12113                      .dwattr DW$684, DW_AT_high_pc(DW$L$_f_printf$23$E)
   12114              DW$685  .dwtag  DW_TAG_loop_range
   12115                      .dwattr DW$685, DW_AT_low_pc(DW$L$_f_printf$24$B)
   12116                      .dwattr DW$685, DW_AT_high_pc(DW$L$_f_printf$24$E)
   12117              DW$686  .dwtag  DW_TAG_loop_range
   12118                      .dwattr DW$686, DW_AT_low_pc(DW$L$_f_printf$27$B)
TMS320C2000 COFF Assembler PC v4.1.3 Thu May 05 10:06:00 2011

Tools Copyright (c) 1996-2006 Texas Instruments Incorporated
C:\DOCUME~1\ADMINI~1\LOCALS~1\Temp\TI1122                            PAGE  233

   12119                      .dwattr DW$686, DW_AT_high_pc(DW$L$_f_printf$27$E)
   12120              DW$687  .dwtag  DW_TAG_loop_range
   12121                      .dwattr DW$687, DW_AT_low_pc(DW$L$_f_printf$31$B)
   12122                      .dwattr DW$687, DW_AT_high_pc(DW$L$_f_printf$31$E)
   12123              DW$688  .dwtag  DW_TAG_loop_range
   12124                      .dwattr DW$688, DW_AT_low_pc(DW$L$_f_printf$3$B)
   12125                      .dwattr DW$688, DW_AT_high_pc(DW$L$_f_printf$3$E)
   12126              DW$689  .dwtag  DW_TAG_loop_range
   12127                      .dwattr DW$689, DW_AT_low_pc(DW$L$_f_printf$4$B)
   12128                      .dwattr DW$689, DW_AT_high_pc(DW$L$_f_printf$4$E)
   12129              DW$690  .dwtag  DW_TAG_loop_range
   12130                      .dwattr DW$690, DW_AT_low_pc(DW$L$_f_printf$5$B)
   12131                      .dwattr DW$690, DW_AT_high_pc(DW$L$_f_printf$5$E)
   12132              DW$691  .dwtag  DW_TAG_loop_range
   12133                      .dwattr DW$691, DW_AT_low_pc(DW$L$_f_printf$33$B)
   12134                      .dwattr DW$691, DW_AT_high_pc(DW$L$_f_printf$33$E)
   12135              DW$692  .dwtag  DW_TAG_loop_range
   12136                      .dwattr DW$692, DW_AT_low_pc(DW$L$_f_printf$34$B)
   12137                      .dwattr DW$692, DW_AT_high_pc(DW$L$_f_printf$34$E)
   12138              DW$693  .dwtag  DW_TAG_loop_range
   12139                      .dwattr DW$693, DW_AT_low_pc(DW$L$_f_printf$35$B)
   12140                      .dwattr DW$693, DW_AT_high_pc(DW$L$_f_printf$35$E)
   12141              DW$694  .dwtag  DW_TAG_loop_range
   12142                      .dwattr DW$694, DW_AT_low_pc(DW$L$_f_printf$40$B)
   12143                      .dwattr DW$694, DW_AT_high_pc(DW$L$_f_printf$40$E)
   12144              DW$695  .dwtag  DW_TAG_loop_range
   12145                      .dwattr DW$695, DW_AT_low_pc(DW$L$_f_printf$82$B)
   12146                      .dwattr DW$695, DW_AT_high_pc(DW$L$_f_printf$82$E)
   12147              DW$696  .dwtag  DW_TAG_loop_range
   12148                      .dwattr DW$696, DW_AT_low_pc(DW$L$_f_printf$83$B)
   12149                      .dwattr DW$696, DW_AT_high_pc(DW$L$_f_printf$83$E)
   12150              DW$697  .dwtag  DW_TAG_loop_range
   12151                      .dwattr DW$697, DW_AT_low_pc(DW$L$_f_printf$84$B)
   12152                      .dwattr DW$697, DW_AT_high_pc(DW$L$_f_printf$84$E)
   12153              
   12154              DW$698  .dwtag  DW_TAG_loop
   12155                      .dwattr DW$698, DW_AT_name("C:\DOCUME~1\ADMINI~1\LOCALS~1\Temp\TI1122:L396:2:1304561157")
   12156                      .dwattr DW$698, DW_AT_begin_file("ff.c")
   12157                      .dwattr DW$698, DW_AT_begin_line(0x116c)
   12158                      .dwattr DW$698, DW_AT_end_line(0x1173)
   12159              DW$699  .dwtag  DW_TAG_loop_range
   12160                      .dwattr DW$699, DW_AT_low_pc(DW$L$_f_printf$63$B)
   12161                      .dwattr DW$699, DW_AT_high_pc(DW$L$_f_printf$63$E)
   12162              DW$700  .dwtag  DW_TAG_loop_range
   12163                      .dwattr DW$700, DW_AT_low_pc(DW$L$_f_printf$64$B)
   12164                      .dwattr DW$700, DW_AT_high_pc(DW$L$_f_printf$64$E)
   12165              DW$701  .dwtag  DW_TAG_loop_range
   12166                      .dwattr DW$701, DW_AT_low_pc(DW$L$_f_printf$65$B)
   12167                      .dwattr DW$701, DW_AT_high_pc(DW$L$_f_printf$65$E)
   12168              DW$702  .dwtag  DW_TAG_loop_range
   12169                      .dwattr DW$702, DW_AT_low_pc(DW$L$_f_printf$66$B)
   12170                      .dwattr DW$702, DW_AT_high_pc(DW$L$_f_printf$66$E)
   12171              DW$703  .dwtag  DW_TAG_loop_range
   12172                      .dwattr DW$703, DW_AT_low_pc(DW$L$_f_printf$67$B)
   12173                      .dwattr DW$703, DW_AT_high_pc(DW$L$_f_printf$67$E)
TMS320C2000 COFF Assembler PC v4.1.3 Thu May 05 10:06:00 2011

Tools Copyright (c) 1996-2006 Texas Instruments Incorporated
C:\DOCUME~1\ADMINI~1\LOCALS~1\Temp\TI1122                            PAGE  234

   12174              DW$704  .dwtag  DW_TAG_loop_range
   12175                      .dwattr DW$704, DW_AT_low_pc(DW$L$_f_printf$68$B)
   12176                      .dwattr DW$704, DW_AT_high_pc(DW$L$_f_printf$68$E)
   12177              DW$705  .dwtag  DW_TAG_loop_range
   12178                      .dwattr DW$705, DW_AT_low_pc(DW$L$_f_printf$69$B)
   12179                      .dwattr DW$705, DW_AT_high_pc(DW$L$_f_printf$69$E)
   12180                      .dwendtag DW$698
   12181              
   12182              
   12183              DW$706  .dwtag  DW_TAG_loop
   12184                      .dwattr DW$706, DW_AT_name("C:\DOCUME~1\ADMINI~1\LOCALS~1\Temp\TI1122:L405:2:1304561157")
   12185                      .dwattr DW$706, DW_AT_begin_file("ff.c")
   12186                      .dwattr DW$706, DW_AT_begin_line(0x1178)
   12187                      .dwattr DW$706, DW_AT_end_line(0x1178)
   12188              DW$707  .dwtag  DW_TAG_loop_range
   12189                      .dwattr DW$707, DW_AT_low_pc(DW$L$_f_printf$77$B)
   12190                      .dwattr DW$707, DW_AT_high_pc(DW$L$_f_printf$77$E)
   12191              DW$708  .dwtag  DW_TAG_loop_range
   12192                      .dwattr DW$708, DW_AT_low_pc(DW$L$_f_printf$78$B)
   12193                      .dwattr DW$708, DW_AT_high_pc(DW$L$_f_printf$78$E)
   12194              DW$709  .dwtag  DW_TAG_loop_range
   12195                      .dwattr DW$709, DW_AT_low_pc(DW$L$_f_printf$76$B)
   12196                      .dwattr DW$709, DW_AT_high_pc(DW$L$_f_printf$76$E)
   12197                      .dwendtag DW$706
   12198              
   12199              
   12200              DW$710  .dwtag  DW_TAG_loop
   12201                      .dwattr DW$710, DW_AT_name("C:\DOCUME~1\ADMINI~1\LOCALS~1\Temp\TI1122:L406:2:1304561157")
   12202                      .dwattr DW$710, DW_AT_begin_file("ff.c")
   12203                      .dwattr DW$710, DW_AT_begin_line(0x1179)
   12204                      .dwattr DW$710, DW_AT_end_line(0x1179)
   12205              DW$711  .dwtag  DW_TAG_loop_range
   12206                      .dwattr DW$711, DW_AT_low_pc(DW$L$_f_printf$79$B)
   12207                      .dwattr DW$711, DW_AT_high_pc(DW$L$_f_printf$79$E)
   12208                      .dwendtag DW$710
   12209              
   12210              
   12211              DW$712  .dwtag  DW_TAG_loop
   12212                      .dwattr DW$712, DW_AT_name("C:\DOCUME~1\ADMINI~1\LOCALS~1\Temp\TI1122:L407:2:1304561157")
   12213                      .dwattr DW$712, DW_AT_begin_file("ff.c")
   12214                      .dwattr DW$712, DW_AT_begin_line(0x117b)
   12215                      .dwattr DW$712, DW_AT_end_line(0x117b)
   12216              DW$713  .dwtag  DW_TAG_loop_range
   12217                      .dwattr DW$713, DW_AT_low_pc(DW$L$_f_printf$81$B)
   12218                      .dwattr DW$713, DW_AT_high_pc(DW$L$_f_printf$81$E)
   12219                      .dwendtag DW$712
   12220              
   12221              
   12222              DW$714  .dwtag  DW_TAG_loop
   12223                      .dwattr DW$714, DW_AT_name("C:\DOCUME~1\ADMINI~1\LOCALS~1\Temp\TI1122:L367:2:1304561157")
   12224                      .dwattr DW$714, DW_AT_begin_file("ff.c")
   12225                      .dwattr DW$714, DW_AT_begin_line(0x1137)
   12226                      .dwattr DW$714, DW_AT_end_line(0x113a)
   12227              DW$715  .dwtag  DW_TAG_loop_range
   12228                      .dwattr DW$715, DW_AT_low_pc(DW$L$_f_printf$11$B)
TMS320C2000 COFF Assembler PC v4.1.3 Thu May 05 10:06:00 2011

Tools Copyright (c) 1996-2006 Texas Instruments Incorporated
C:\DOCUME~1\ADMINI~1\LOCALS~1\Temp\TI1122                            PAGE  235

   12229                      .dwattr DW$715, DW_AT_high_pc(DW$L$_f_printf$11$E)
   12230              DW$716  .dwtag  DW_TAG_loop_range
   12231                      .dwattr DW$716, DW_AT_low_pc(DW$L$_f_printf$12$B)
   12232                      .dwattr DW$716, DW_AT_high_pc(DW$L$_f_printf$12$E)
   12233              DW$717  .dwtag  DW_TAG_loop_range
   12234                      .dwattr DW$717, DW_AT_low_pc(DW$L$_f_printf$10$B)
   12235                      .dwattr DW$717, DW_AT_high_pc(DW$L$_f_printf$10$E)
   12236                      .dwendtag DW$714
   12237              
   12238              
   12239              DW$718  .dwtag  DW_TAG_loop
   12240                      .dwattr DW$718, DW_AT_name("C:\DOCUME~1\ADMINI~1\LOCALS~1\Temp\TI1122:L375:2:1304561157")
   12241                      .dwattr DW$718, DW_AT_begin_file("ff.c")
   12242                      .dwattr DW$718, DW_AT_begin_line(0x1148)
   12243                      .dwattr DW$718, DW_AT_end_line(0x1148)
   12244              DW$719  .dwtag  DW_TAG_loop_range
   12245                      .dwattr DW$719, DW_AT_low_pc(DW$L$_f_printf$26$B)
   12246                      .dwattr DW$719, DW_AT_high_pc(DW$L$_f_printf$26$E)
   12247              DW$720  .dwtag  DW_TAG_loop_range
   12248                      .dwattr DW$720, DW_AT_low_pc(DW$L$_f_printf$25$B)
   12249                      .dwattr DW$720, DW_AT_high_pc(DW$L$_f_printf$25$E)
   12250                      .dwendtag DW$718
   12251              
   12252              
   12253              DW$721  .dwtag  DW_TAG_loop
   12254                      .dwattr DW$721, DW_AT_name("C:\DOCUME~1\ADMINI~1\LOCALS~1\Temp\TI1122:L377:2:1304561157")
   12255                      .dwattr DW$721, DW_AT_begin_file("ff.c")
   12256                      .dwattr DW$721, DW_AT_begin_line(0x114a)
   12257                      .dwattr DW$721, DW_AT_end_line(0x114a)
   12258              DW$722  .dwtag  DW_TAG_loop_range
   12259                      .dwattr DW$722, DW_AT_low_pc(DW$L$_f_printf$29$B)
   12260                      .dwattr DW$722, DW_AT_high_pc(DW$L$_f_printf$29$E)
   12261              DW$723  .dwtag  DW_TAG_loop_range
   12262                      .dwattr DW$723, DW_AT_low_pc(DW$L$_f_printf$30$B)
   12263                      .dwattr DW$723, DW_AT_high_pc(DW$L$_f_printf$30$E)
   12264              DW$724  .dwtag  DW_TAG_loop_range
   12265                      .dwattr DW$724, DW_AT_low_pc(DW$L$_f_printf$28$B)
   12266                      .dwattr DW$724, DW_AT_high_pc(DW$L$_f_printf$28$E)
   12267                      .dwendtag DW$721
   12268              
   12269              
   12270              DW$725  .dwtag  DW_TAG_loop
   12271                      .dwattr DW$725, DW_AT_name("C:\DOCUME~1\ADMINI~1\LOCALS~1\Temp\TI1122:L379:2:1304561157")
   12272                      .dwattr DW$725, DW_AT_begin_file("ff.c")
   12273                      .dwattr DW$725, DW_AT_begin_line(0x114c)
   12274                      .dwattr DW$725, DW_AT_end_line(0x114c)
   12275              DW$726  .dwtag  DW_TAG_loop_range
   12276                      .dwattr DW$726, DW_AT_low_pc(DW$L$_f_printf$32$B)
   12277                      .dwattr DW$726, DW_AT_high_pc(DW$L$_f_printf$32$E)
   12278                      .dwendtag DW$725
   12279              
   12280                      .dwendtag DW$636
   12281              
   12282                      .dwattr DW$618, DW_AT_end_file("ff.c")
   12283                      .dwattr DW$618, DW_AT_end_line(0x1181)
TMS320C2000 COFF Assembler PC v4.1.3 Thu May 05 10:06:00 2011

Tools Copyright (c) 1996-2006 Texas Instruments Incorporated
C:\DOCUME~1\ADMINI~1\LOCALS~1\Temp\TI1122                            PAGE  236

   12284                      .dwattr DW$618, DW_AT_end_column(0x01)
   12285                      .dwendentry
   12286                      .dwendtag DW$618
   12287              
   12288              ;***************************************************************
   12289              ;* FAR STRINGS                                                 *
   12290              ;***************************************************************
   12291 00000000               .sect   ".econst"
   12292                      .align  2
   12293 00000000 0022  FSL1:   .string 34,"*+,:;<=>?[]|",127,0
         00000001 002A 
         00000002 002B 
         00000003 002C 
         00000004 003A 
         00000005 003B 
         00000006 003C 
         00000007 003D 
         00000008 003E 
         00000009 003F 
         0000000a 005B 
         0000000b 005D 
         0000000c 007C 
         0000000d 007F 
         0000000e 0000 
   12294              ;***************************************************************
   12295              ;* UNDEFINED EXTERNAL REFERENCES                               *
   12296              ;***************************************************************
   12297                      .global _ff_rel_grant
   12298                      .global _disk_write
   12299                      .global _disk_ioctl
   12300                      .global _ff_del_syncobj
   12301                      .global _disk_initialize
   12302                      .global _ff_cre_syncobj
   12303                      .global _disk_read
   12304                      .global _ff_req_grant
   12305                      .global _disk_status
   12306                      .global _get_fattime
   12307              
   12308              ;***************************************************************
   12309              ;* TYPE INFORMATION                                            *
   12310              ;***************************************************************
   12311              DW$T$3  .dwtag  DW_TAG_pointer_type
   12312                      .dwattr DW$T$3, DW_AT_address_class(0x16)
   12313              
   12314              DW$T$39 .dwtag  DW_TAG_subroutine_type
   12315                      .dwattr DW$T$39, DW_AT_language(DW_LANG_C)
   12316              DW$727  .dwtag  DW_TAG_formal_parameter, DW_AT_type(*DW$T$26)
   12317                      .dwendtag DW$T$39
   12318              
   12319              DW$T$42 .dwtag  DW_TAG_pointer_type, DW_AT_type(*DW$T$41)
   12320                      .dwattr DW$T$42, DW_AT_address_class(0x16)
   12321              
   12322              DW$T$44 .dwtag  DW_TAG_subroutine_type
   12323                      .dwattr DW$T$44, DW_AT_language(DW_LANG_C)
   12324              DW$728  .dwtag  DW_TAG_formal_parameter, DW_AT_type(*DW$T$3)
TMS320C2000 COFF Assembler PC v4.1.3 Thu May 05 10:06:00 2011

Tools Copyright (c) 1996-2006 Texas Instruments Incorporated
C:\DOCUME~1\ADMINI~1\LOCALS~1\Temp\TI1122                            PAGE  237

   12325              DW$729  .dwtag  DW_TAG_formal_parameter, DW_AT_type(*DW$T$42)
   12326              DW$730  .dwtag  DW_TAG_formal_parameter, DW_AT_type(*DW$T$43)
   12327                      .dwendtag DW$T$44
   12328              
   12329              
   12330              DW$T$46 .dwtag  DW_TAG_subroutine_type
   12331                      .dwattr DW$T$46, DW_AT_language(DW_LANG_C)
   12332              DW$731  .dwtag  DW_TAG_formal_parameter, DW_AT_type(*DW$T$3)
   12333              DW$732  .dwtag  DW_TAG_formal_parameter, DW_AT_type(*DW$T$10)
   12334              DW$733  .dwtag  DW_TAG_formal_parameter, DW_AT_type(*DW$T$43)
   12335                      .dwendtag DW$T$46
   12336              
   12337              
   12338              DW$T$50 .dwtag  DW_TAG_subroutine_type
   12339                      .dwattr DW$T$50, DW_AT_language(DW_LANG_C)
   12340              DW$734  .dwtag  DW_TAG_formal_parameter, DW_AT_type(*DW$T$31)
   12341              DW$735  .dwtag  DW_TAG_formal_parameter, DW_AT_type(*DW$T$49)
   12342                      .dwendtag DW$T$50
   12343              
   12344              
   12345              DW$T$56 .dwtag  DW_TAG_subroutine_type
   12346                      .dwattr DW$T$56, DW_AT_language(DW_LANG_C)
   12347              DW$736  .dwtag  DW_TAG_formal_parameter, DW_AT_type(*DW$T$53)
   12348              DW$737  .dwtag  DW_TAG_formal_parameter, DW_AT_type(*DW$T$55)
   12349                      .dwendtag DW$T$56
   12350              
   12351              DW$T$6  .dwtag  DW_TAG_base_type, DW_AT_name("unsigned char")
   12352                      .dwattr DW$T$6, DW_AT_encoding(DW_ATE_unsigned_char)
   12353                      .dwattr DW$T$6, DW_AT_byte_size(0x01)
   12354              DW$T$23 .dwtag  DW_TAG_typedef, DW_AT_name("BYTE"), DW_AT_type(*DW$T$6)
   12355                      .dwattr DW$T$23, DW_AT_language(DW_LANG_C)
   12356              DW$T$32 .dwtag  DW_TAG_pointer_type, DW_AT_type(*DW$T$23)
   12357                      .dwattr DW$T$32, DW_AT_address_class(0x16)
   12358              DW$T$58 .dwtag  DW_TAG_typedef, DW_AT_name("DSTATUS"), DW_AT_type(*DW$T$23)
   12359                      .dwattr DW$T$58, DW_AT_language(DW_LANG_C)
   12360              
   12361              DW$T$59 .dwtag  DW_TAG_subroutine_type, DW_AT_type(*DW$T$58)
   12362                      .dwattr DW$T$59, DW_AT_language(DW_LANG_C)
   12363              DW$738  .dwtag  DW_TAG_formal_parameter, DW_AT_type(*DW$T$23)
   12364                      .dwendtag DW$T$59
   12365              
   12366              DW$T$62 .dwtag  DW_TAG_pointer_type, DW_AT_type(*DW$T$61)
   12367                      .dwattr DW$T$62, DW_AT_address_class(0x16)
   12368              
   12369              DW$T$64 .dwtag  DW_TAG_subroutine_type, DW_AT_type(*DW$T$23)
   12370                      .dwattr DW$T$64, DW_AT_language(DW_LANG_C)
   12371              DW$739  .dwtag  DW_TAG_formal_parameter, DW_AT_type(*DW$T$31)
   12372              DW$740  .dwtag  DW_TAG_formal_parameter, DW_AT_type(*DW$T$27)
   12373                      .dwendtag DW$T$64
   12374              
   12375              
   12376              DW$T$66 .dwtag  DW_TAG_array_type, DW_AT_type(*DW$T$23)
   12377                      .dwattr DW$T$66, DW_AT_language(DW_LANG_C)
   12378                      .dwattr DW$T$66, DW_AT_byte_size(0x0c)
   12379              DW$741  .dwtag  DW_TAG_subrange_type
TMS320C2000 COFF Assembler PC v4.1.3 Thu May 05 10:06:00 2011

Tools Copyright (c) 1996-2006 Texas Instruments Incorporated
C:\DOCUME~1\ADMINI~1\LOCALS~1\Temp\TI1122                            PAGE  238

   12380                      .dwattr DW$741, DW_AT_upper_bound(0x0b)
   12381                      .dwendtag DW$T$66
   12382              
   12383              
   12384              DW$T$68 .dwtag  DW_TAG_array_type, DW_AT_type(*DW$T$23)
   12385                      .dwattr DW$T$68, DW_AT_language(DW_LANG_C)
   12386                      .dwattr DW$T$68, DW_AT_byte_size(0x15)
   12387              DW$742  .dwtag  DW_TAG_subrange_type
   12388                      .dwattr DW$742, DW_AT_upper_bound(0x14)
   12389                      .dwendtag DW$T$68
   12390              
   12391              
   12392              DW$T$70 .dwtag  DW_TAG_array_type, DW_AT_type(*DW$T$23)
   12393                      .dwattr DW$T$70, DW_AT_language(DW_LANG_C)
   12394                      .dwattr DW$T$70, DW_AT_byte_size(0x02)
   12395              DW$743  .dwtag  DW_TAG_subrange_type
   12396                      .dwattr DW$743, DW_AT_upper_bound(0x01)
   12397                      .dwendtag DW$T$70
   12398              
   12399              
   12400              DW$T$72 .dwtag  DW_TAG_array_type, DW_AT_type(*DW$T$23)
   12401                      .dwattr DW$T$72, DW_AT_language(DW_LANG_C)
   12402                      .dwattr DW$T$72, DW_AT_byte_size(0x03)
   12403              DW$744  .dwtag  DW_TAG_subrange_type
   12404                      .dwattr DW$744, DW_AT_upper_bound(0x02)
   12405                      .dwendtag DW$T$72
   12406              
   12407              
   12408              DW$T$75 .dwtag  DW_TAG_subroutine_type, DW_AT_type(*DW$T$6)
   12409                      .dwattr DW$T$75, DW_AT_language(DW_LANG_C)
   12410              DW$745  .dwtag  DW_TAG_formal_parameter, DW_AT_type(*DW$T$23)
   12411              DW$746  .dwtag  DW_TAG_formal_parameter, DW_AT_type(*DW$T$74)
   12412                      .dwendtag DW$T$75
   12413              
   12414              
   12415              DW$T$77 .dwtag  DW_TAG_subroutine_type, DW_AT_type(*DW$T$6)
   12416                      .dwattr DW$T$77, DW_AT_language(DW_LANG_C)
   12417              DW$747  .dwtag  DW_TAG_formal_parameter, DW_AT_type(*DW$T$26)
   12418                      .dwendtag DW$T$77
   12419              
   12420              DW$T$24 .dwtag  DW_TAG_typedef, DW_AT_name("WORD"), DW_AT_type(*DW$T$9)
   12421                      .dwattr DW$T$24, DW_AT_language(DW_LANG_C)
   12422              DW$T$10 .dwtag  DW_TAG_base_type, DW_AT_name("int")
   12423                      .dwattr DW$T$10, DW_AT_encoding(DW_ATE_signed)
   12424                      .dwattr DW$T$10, DW_AT_byte_size(0x01)
   12425              
   12426              DW$T$80 .dwtag  DW_TAG_subroutine_type, DW_AT_type(*DW$T$10)
   12427                      .dwattr DW$T$80, DW_AT_language(DW_LANG_C)
   12428              DW$748  .dwtag  DW_TAG_formal_parameter, DW_AT_type(*DW$T$42)
   12429              DW$749  .dwtag  DW_TAG_formal_parameter, DW_AT_type(*DW$T$42)
   12430              DW$750  .dwtag  DW_TAG_formal_parameter, DW_AT_type(*DW$T$43)
   12431                      .dwendtag DW$T$80
   12432              
   12433              
   12434              DW$T$84 .dwtag  DW_TAG_subroutine_type, DW_AT_type(*DW$T$10)
TMS320C2000 COFF Assembler PC v4.1.3 Thu May 05 10:06:00 2011

Tools Copyright (c) 1996-2006 Texas Instruments Incorporated
C:\DOCUME~1\ADMINI~1\LOCALS~1\Temp\TI1122                            PAGE  239

   12435                      .dwattr DW$T$84, DW_AT_language(DW_LANG_C)
   12436              DW$751  .dwtag  DW_TAG_formal_parameter, DW_AT_type(*DW$T$83)
   12437              DW$752  .dwtag  DW_TAG_formal_parameter, DW_AT_type(*DW$T$10)
   12438                      .dwendtag DW$T$84
   12439              
   12440              
   12441              DW$T$86 .dwtag  DW_TAG_subroutine_type, DW_AT_type(*DW$T$10)
   12442                      .dwattr DW$T$86, DW_AT_language(DW_LANG_C)
   12443              DW$753  .dwtag  DW_TAG_formal_parameter, DW_AT_type(*DW$T$31)
   12444                      .dwendtag DW$T$86
   12445              
   12446              
   12447              DW$T$90 .dwtag  DW_TAG_subroutine_type, DW_AT_type(*DW$T$10)
   12448                      .dwattr DW$T$90, DW_AT_language(DW_LANG_C)
   12449              DW$754  .dwtag  DW_TAG_formal_parameter, DW_AT_type(*DW$T$35)
   12450              DW$755  .dwtag  DW_TAG_formal_parameter, DW_AT_type(*DW$T$89)
   12451                      .dwendtag DW$T$90
   12452              
   12453              
   12454              DW$T$94 .dwtag  DW_TAG_subroutine_type, DW_AT_type(*DW$T$10)
   12455                      .dwattr DW$T$94, DW_AT_language(DW_LANG_C)
   12456              DW$756  .dwtag  DW_TAG_formal_parameter, DW_AT_type(*DW$T$93)
   12457              DW$757  .dwtag  DW_TAG_formal_parameter, DW_AT_type(*DW$T$89)
   12458                      .dwendtag DW$T$94
   12459              
   12460              
   12461              DW$T$96 .dwtag  DW_TAG_subroutine_type, DW_AT_type(*DW$T$10)
   12462                      .dwattr DW$T$96, DW_AT_language(DW_LANG_C)
   12463              DW$758  .dwtag  DW_TAG_formal_parameter, DW_AT_type(*DW$T$89)
   12464              DW$759  .dwtag  DW_TAG_formal_parameter, DW_AT_type(*DW$T$93)
   12465              DW$760  .dwtag  DW_TAG_unspecified_parameters
   12466                      .dwendtag DW$T$96
   12467              
   12468              DW$T$43 .dwtag  DW_TAG_typedef, DW_AT_name("UINT"), DW_AT_type(*DW$T$11)
   12469                      .dwattr DW$T$43, DW_AT_language(DW_LANG_C)
   12470              DW$T$98 .dwtag  DW_TAG_pointer_type, DW_AT_type(*DW$T$43)
   12471                      .dwattr DW$T$98, DW_AT_address_class(0x16)
   12472              DW$T$27 .dwtag  DW_TAG_typedef, DW_AT_name("DWORD"), DW_AT_type(*DW$T$13)
   12473                      .dwattr DW$T$27, DW_AT_language(DW_LANG_C)
   12474              
   12475              DW$T$101        .dwtag  DW_TAG_subroutine_type, DW_AT_type(*DW$T$27)
   12476                      .dwattr DW$T$101, DW_AT_language(DW_LANG_C)
   12477              
   12478              DW$T$103        .dwtag  DW_TAG_subroutine_type, DW_AT_type(*DW$T$27)
   12479                      .dwattr DW$T$103, DW_AT_language(DW_LANG_C)
   12480              DW$761  .dwtag  DW_TAG_formal_parameter, DW_AT_type(*DW$T$31)
   12481              DW$762  .dwtag  DW_TAG_formal_parameter, DW_AT_type(*DW$T$27)
   12482                      .dwendtag DW$T$103
   12483              
   12484              DW$T$105        .dwtag  DW_TAG_pointer_type, DW_AT_type(*DW$T$27)
   12485                      .dwattr DW$T$105, DW_AT_address_class(0x16)
   12486              DW$T$106        .dwtag  DW_TAG_typedef, DW_AT_name("ULONG"), DW_AT_type(*DW$T$13)
   12487                      .dwattr DW$T$106, DW_AT_language(DW_LANG_C)
   12488              DW$T$26 .dwtag  DW_TAG_pointer_type, DW_AT_type(*DW$T$25)
   12489                      .dwattr DW$T$26, DW_AT_address_class(0x16)
TMS320C2000 COFF Assembler PC v4.1.3 Thu May 05 10:06:00 2011

Tools Copyright (c) 1996-2006 Texas Instruments Incorporated
C:\DOCUME~1\ADMINI~1\LOCALS~1\Temp\TI1122                            PAGE  240

   12490              DW$T$74 .dwtag  DW_TAG_pointer_type, DW_AT_type(*DW$T$26)
   12491                      .dwattr DW$T$74, DW_AT_address_class(0x16)
   12492              DW$T$31 .dwtag  DW_TAG_pointer_type, DW_AT_type(*DW$T$30)
   12493                      .dwattr DW$T$31, DW_AT_address_class(0x16)
   12494              DW$T$126        .dwtag  DW_TAG_pointer_type, DW_AT_type(*DW$T$31)
   12495                      .dwattr DW$T$126, DW_AT_address_class(0x16)
   12496              
   12497              DW$T$127        .dwtag  DW_TAG_array_type, DW_AT_type(*DW$T$31)
   12498                      .dwattr DW$T$127, DW_AT_language(DW_LANG_C)
   12499                      .dwattr DW$T$127, DW_AT_byte_size(0x02)
   12500              DW$763  .dwtag  DW_TAG_subrange_type
   12501                      .dwattr DW$763, DW_AT_upper_bound(0x00)
   12502                      .dwendtag DW$T$127
   12503              
   12504              DW$T$52 .dwtag  DW_TAG_typedef, DW_AT_name("DIR"), DW_AT_type(*DW$T$33)
   12505                      .dwattr DW$T$52, DW_AT_language(DW_LANG_C)
   12506              DW$T$53 .dwtag  DW_TAG_pointer_type, DW_AT_type(*DW$T$52)
   12507                      .dwattr DW$T$53, DW_AT_address_class(0x16)
   12508              DW$T$35 .dwtag  DW_TAG_typedef, DW_AT_name("TCHAR"), DW_AT_type(*DW$T$34)
   12509                      .dwattr DW$T$35, DW_AT_language(DW_LANG_C)
   12510              DW$T$93 .dwtag  DW_TAG_pointer_type, DW_AT_type(*DW$T$92)
   12511                      .dwattr DW$T$93, DW_AT_address_class(0x16)
   12512              DW$T$115        .dwtag  DW_TAG_pointer_type, DW_AT_type(*DW$T$93)
   12513                      .dwattr DW$T$115, DW_AT_address_class(0x16)
   12514              DW$T$117        .dwtag  DW_TAG_pointer_type, DW_AT_type(*DW$T$35)
   12515                      .dwattr DW$T$117, DW_AT_address_class(0x16)
   12516              
   12517              DW$T$118        .dwtag  DW_TAG_subroutine_type, DW_AT_type(*DW$T$117)
   12518                      .dwattr DW$T$118, DW_AT_language(DW_LANG_C)
   12519              DW$764  .dwtag  DW_TAG_formal_parameter, DW_AT_type(*DW$T$117)
   12520              DW$765  .dwtag  DW_TAG_formal_parameter, DW_AT_type(*DW$T$10)
   12521              DW$766  .dwtag  DW_TAG_formal_parameter, DW_AT_type(*DW$T$89)
   12522                      .dwendtag DW$T$118
   12523              
   12524              
   12525              DW$T$120        .dwtag  DW_TAG_array_type, DW_AT_type(*DW$T$35)
   12526                      .dwattr DW$T$120, DW_AT_language(DW_LANG_C)
   12527                      .dwattr DW$T$120, DW_AT_byte_size(0x10)
   12528              DW$767  .dwtag  DW_TAG_subrange_type
   12529                      .dwattr DW$767, DW_AT_upper_bound(0x0f)
   12530                      .dwendtag DW$T$120
   12531              
   12532              DW$T$83 .dwtag  DW_TAG_pointer_type, DW_AT_type(*DW$T$82)
   12533                      .dwattr DW$T$83, DW_AT_address_class(0x16)
   12534              DW$T$125        .dwtag  DW_TAG_typedef, DW_AT_name("va_list"), DW_AT_type(*DW$T$124)
   12535                      .dwattr DW$T$125, DW_AT_language(DW_LANG_C)
   12536              DW$T$55 .dwtag  DW_TAG_pointer_type, DW_AT_type(*DW$T$54)
   12537                      .dwattr DW$T$55, DW_AT_address_class(0x16)
   12538              DW$T$163        .dwtag  DW_TAG_pointer_type, DW_AT_type(*DW$T$162)
   12539                      .dwattr DW$T$163, DW_AT_address_class(0x16)
   12540              DW$T$89 .dwtag  DW_TAG_pointer_type, DW_AT_type(*DW$T$88)
   12541                      .dwattr DW$T$89, DW_AT_address_class(0x16)
   12542              DW$T$49 .dwtag  DW_TAG_typedef, DW_AT_name("FRESULT"), DW_AT_type(*DW$T$48)
   12543                      .dwattr DW$T$49, DW_AT_language(DW_LANG_C)
   12544              
TMS320C2000 COFF Assembler PC v4.1.3 Thu May 05 10:06:00 2011

Tools Copyright (c) 1996-2006 Texas Instruments Incorporated
C:\DOCUME~1\ADMINI~1\LOCALS~1\Temp\TI1122                            PAGE  241

   12545              DW$T$128        .dwtag  DW_TAG_subroutine_type, DW_AT_type(*DW$T$49)
   12546                      .dwattr DW$T$128, DW_AT_language(DW_LANG_C)
   12547              DW$768  .dwtag  DW_TAG_formal_parameter, DW_AT_type(*DW$T$31)
   12548              DW$769  .dwtag  DW_TAG_formal_parameter, DW_AT_type(*DW$T$27)
   12549                      .dwendtag DW$T$128
   12550              
   12551              
   12552              DW$T$130        .dwtag  DW_TAG_subroutine_type, DW_AT_type(*DW$T$49)
   12553                      .dwattr DW$T$130, DW_AT_language(DW_LANG_C)
   12554              DW$770  .dwtag  DW_TAG_formal_parameter, DW_AT_type(*DW$T$31)
   12555                      .dwendtag DW$T$130
   12556              
   12557              
   12558              DW$T$132        .dwtag  DW_TAG_subroutine_type, DW_AT_type(*DW$T$49)
   12559                      .dwattr DW$T$132, DW_AT_language(DW_LANG_C)
   12560              DW$771  .dwtag  DW_TAG_formal_parameter, DW_AT_type(*DW$T$31)
   12561              DW$772  .dwtag  DW_TAG_formal_parameter, DW_AT_type(*DW$T$27)
   12562              DW$773  .dwtag  DW_TAG_formal_parameter, DW_AT_type(*DW$T$27)
   12563                      .dwendtag DW$T$132
   12564              
   12565              
   12566              DW$T$134        .dwtag  DW_TAG_subroutine_type, DW_AT_type(*DW$T$49)
   12567                      .dwattr DW$T$134, DW_AT_language(DW_LANG_C)
   12568              DW$774  .dwtag  DW_TAG_formal_parameter, DW_AT_type(*DW$T$53)
   12569              DW$775  .dwtag  DW_TAG_formal_parameter, DW_AT_type(*DW$T$24)
   12570                      .dwendtag DW$T$134
   12571              
   12572              
   12573              DW$T$136        .dwtag  DW_TAG_subroutine_type, DW_AT_type(*DW$T$49)
   12574                      .dwattr DW$T$136, DW_AT_language(DW_LANG_C)
   12575              DW$776  .dwtag  DW_TAG_formal_parameter, DW_AT_type(*DW$T$53)
   12576              DW$777  .dwtag  DW_TAG_formal_parameter, DW_AT_type(*DW$T$10)
   12577                      .dwendtag DW$T$136
   12578              
   12579              
   12580              DW$T$138        .dwtag  DW_TAG_subroutine_type, DW_AT_type(*DW$T$49)
   12581                      .dwattr DW$T$138, DW_AT_language(DW_LANG_C)
   12582              DW$778  .dwtag  DW_TAG_formal_parameter, DW_AT_type(*DW$T$53)
   12583                      .dwendtag DW$T$138
   12584              
   12585              
   12586              DW$T$140        .dwtag  DW_TAG_subroutine_type, DW_AT_type(*DW$T$49)
   12587                      .dwattr DW$T$140, DW_AT_language(DW_LANG_C)
   12588              DW$779  .dwtag  DW_TAG_formal_parameter, DW_AT_type(*DW$T$53)
   12589              DW$780  .dwtag  DW_TAG_formal_parameter, DW_AT_type(*DW$T$115)
   12590                      .dwendtag DW$T$140
   12591              
   12592              
   12593              DW$T$142        .dwtag  DW_TAG_subroutine_type, DW_AT_type(*DW$T$49)
   12594                      .dwattr DW$T$142, DW_AT_language(DW_LANG_C)
   12595              DW$781  .dwtag  DW_TAG_formal_parameter, DW_AT_type(*DW$T$53)
   12596              DW$782  .dwtag  DW_TAG_formal_parameter, DW_AT_type(*DW$T$93)
   12597                      .dwendtag DW$T$142
   12598              
   12599              
TMS320C2000 COFF Assembler PC v4.1.3 Thu May 05 10:06:00 2011

Tools Copyright (c) 1996-2006 Texas Instruments Incorporated
C:\DOCUME~1\ADMINI~1\LOCALS~1\Temp\TI1122                            PAGE  242

   12600              DW$T$144        .dwtag  DW_TAG_subroutine_type, DW_AT_type(*DW$T$49)
   12601                      .dwattr DW$T$144, DW_AT_language(DW_LANG_C)
   12602              DW$783  .dwtag  DW_TAG_formal_parameter, DW_AT_type(*DW$T$115)
   12603              DW$784  .dwtag  DW_TAG_formal_parameter, DW_AT_type(*DW$T$126)
   12604              DW$785  .dwtag  DW_TAG_formal_parameter, DW_AT_type(*DW$T$23)
   12605                      .dwendtag DW$T$144
   12606              
   12607              
   12608              DW$T$146        .dwtag  DW_TAG_subroutine_type, DW_AT_type(*DW$T$49)
   12609                      .dwattr DW$T$146, DW_AT_language(DW_LANG_C)
   12610              DW$786  .dwtag  DW_TAG_formal_parameter, DW_AT_type(*DW$T$31)
   12611              DW$787  .dwtag  DW_TAG_formal_parameter, DW_AT_type(*DW$T$24)
   12612                      .dwendtag DW$T$146
   12613              
   12614              
   12615              DW$T$148        .dwtag  DW_TAG_subroutine_type, DW_AT_type(*DW$T$49)
   12616                      .dwattr DW$T$148, DW_AT_language(DW_LANG_C)
   12617              DW$788  .dwtag  DW_TAG_formal_parameter, DW_AT_type(*DW$T$23)
   12618              DW$789  .dwtag  DW_TAG_formal_parameter, DW_AT_type(*DW$T$31)
   12619                      .dwendtag DW$T$148
   12620              
   12621              
   12622              DW$T$149        .dwtag  DW_TAG_subroutine_type, DW_AT_type(*DW$T$49)
   12623                      .dwattr DW$T$149, DW_AT_language(DW_LANG_C)
   12624              DW$790  .dwtag  DW_TAG_formal_parameter, DW_AT_type(*DW$T$89)
   12625              DW$791  .dwtag  DW_TAG_formal_parameter, DW_AT_type(*DW$T$93)
   12626              DW$792  .dwtag  DW_TAG_formal_parameter, DW_AT_type(*DW$T$23)
   12627                      .dwendtag DW$T$149
   12628              
   12629              
   12630              DW$T$150        .dwtag  DW_TAG_subroutine_type, DW_AT_type(*DW$T$49)
   12631                      .dwattr DW$T$150, DW_AT_language(DW_LANG_C)
   12632              DW$793  .dwtag  DW_TAG_formal_parameter, DW_AT_type(*DW$T$89)
   12633              DW$794  .dwtag  DW_TAG_formal_parameter, DW_AT_type(*DW$T$3)
   12634              DW$795  .dwtag  DW_TAG_formal_parameter, DW_AT_type(*DW$T$43)
   12635              DW$796  .dwtag  DW_TAG_formal_parameter, DW_AT_type(*DW$T$98)
   12636                      .dwendtag DW$T$150
   12637              
   12638              
   12639              DW$T$152        .dwtag  DW_TAG_subroutine_type, DW_AT_type(*DW$T$49)
   12640                      .dwattr DW$T$152, DW_AT_language(DW_LANG_C)
   12641              DW$797  .dwtag  DW_TAG_formal_parameter, DW_AT_type(*DW$T$89)
   12642              DW$798  .dwtag  DW_TAG_formal_parameter, DW_AT_type(*DW$T$42)
   12643              DW$799  .dwtag  DW_TAG_formal_parameter, DW_AT_type(*DW$T$43)
   12644              DW$800  .dwtag  DW_TAG_formal_parameter, DW_AT_type(*DW$T$98)
   12645                      .dwendtag DW$T$152
   12646              
   12647              
   12648              DW$T$154        .dwtag  DW_TAG_subroutine_type, DW_AT_type(*DW$T$49)
   12649                      .dwattr DW$T$154, DW_AT_language(DW_LANG_C)
   12650              DW$801  .dwtag  DW_TAG_formal_parameter, DW_AT_type(*DW$T$89)
   12651                      .dwendtag DW$T$154
   12652              
   12653              
   12654              DW$T$156        .dwtag  DW_TAG_subroutine_type, DW_AT_type(*DW$T$49)
TMS320C2000 COFF Assembler PC v4.1.3 Thu May 05 10:06:00 2011

Tools Copyright (c) 1996-2006 Texas Instruments Incorporated
C:\DOCUME~1\ADMINI~1\LOCALS~1\Temp\TI1122                            PAGE  243

   12655                      .dwattr DW$T$156, DW_AT_language(DW_LANG_C)
   12656              DW$802  .dwtag  DW_TAG_formal_parameter, DW_AT_type(*DW$T$89)
   12657              DW$803  .dwtag  DW_TAG_formal_parameter, DW_AT_type(*DW$T$27)
   12658                      .dwendtag DW$T$156
   12659              
   12660              
   12661              DW$T$157        .dwtag  DW_TAG_subroutine_type, DW_AT_type(*DW$T$49)
   12662                      .dwattr DW$T$157, DW_AT_language(DW_LANG_C)
   12663              DW$804  .dwtag  DW_TAG_formal_parameter, DW_AT_type(*DW$T$53)
   12664              DW$805  .dwtag  DW_TAG_formal_parameter, DW_AT_type(*DW$T$55)
   12665                      .dwendtag DW$T$157
   12666              
   12667              
   12668              DW$T$158        .dwtag  DW_TAG_subroutine_type, DW_AT_type(*DW$T$49)
   12669                      .dwattr DW$T$158, DW_AT_language(DW_LANG_C)
   12670              DW$806  .dwtag  DW_TAG_formal_parameter, DW_AT_type(*DW$T$93)
   12671              DW$807  .dwtag  DW_TAG_formal_parameter, DW_AT_type(*DW$T$55)
   12672                      .dwendtag DW$T$158
   12673              
   12674              
   12675              DW$T$159        .dwtag  DW_TAG_subroutine_type, DW_AT_type(*DW$T$49)
   12676                      .dwattr DW$T$159, DW_AT_language(DW_LANG_C)
   12677              DW$808  .dwtag  DW_TAG_formal_parameter, DW_AT_type(*DW$T$93)
   12678              DW$809  .dwtag  DW_TAG_formal_parameter, DW_AT_type(*DW$T$105)
   12679              DW$810  .dwtag  DW_TAG_formal_parameter, DW_AT_type(*DW$T$126)
   12680                      .dwendtag DW$T$159
   12681              
   12682              
   12683              DW$T$160        .dwtag  DW_TAG_subroutine_type, DW_AT_type(*DW$T$49)
   12684                      .dwattr DW$T$160, DW_AT_language(DW_LANG_C)
   12685              DW$811  .dwtag  DW_TAG_formal_parameter, DW_AT_type(*DW$T$93)
   12686                      .dwendtag DW$T$160
   12687              
   12688              
   12689              DW$T$161        .dwtag  DW_TAG_subroutine_type, DW_AT_type(*DW$T$49)
   12690                      .dwattr DW$T$161, DW_AT_language(DW_LANG_C)
   12691              DW$812  .dwtag  DW_TAG_formal_parameter, DW_AT_type(*DW$T$93)
   12692              DW$813  .dwtag  DW_TAG_formal_parameter, DW_AT_type(*DW$T$23)
   12693              DW$814  .dwtag  DW_TAG_formal_parameter, DW_AT_type(*DW$T$23)
   12694                      .dwendtag DW$T$161
   12695              
   12696              
   12697              DW$T$164        .dwtag  DW_TAG_subroutine_type, DW_AT_type(*DW$T$49)
   12698                      .dwattr DW$T$164, DW_AT_language(DW_LANG_C)
   12699              DW$815  .dwtag  DW_TAG_formal_parameter, DW_AT_type(*DW$T$93)
   12700              DW$816  .dwtag  DW_TAG_formal_parameter, DW_AT_type(*DW$T$163)
   12701                      .dwendtag DW$T$164
   12702              
   12703              
   12704              DW$T$165        .dwtag  DW_TAG_subroutine_type, DW_AT_type(*DW$T$49)
   12705                      .dwattr DW$T$165, DW_AT_language(DW_LANG_C)
   12706              DW$817  .dwtag  DW_TAG_formal_parameter, DW_AT_type(*DW$T$93)
   12707              DW$818  .dwtag  DW_TAG_formal_parameter, DW_AT_type(*DW$T$93)
   12708                      .dwendtag DW$T$165
   12709              
TMS320C2000 COFF Assembler PC v4.1.3 Thu May 05 10:06:00 2011

Tools Copyright (c) 1996-2006 Texas Instruments Incorporated
C:\DOCUME~1\ADMINI~1\LOCALS~1\Temp\TI1122                            PAGE  244

   12710              DW$T$108        .dwtag  DW_TAG_typedef, DW_AT_name("DRESULT"), DW_AT_type(*DW$T$107)
   12711                      .dwattr DW$T$108, DW_AT_language(DW_LANG_C)
   12712              
   12713              DW$T$109        .dwtag  DW_TAG_subroutine_type, DW_AT_type(*DW$T$108)
   12714                      .dwattr DW$T$109, DW_AT_language(DW_LANG_C)
   12715              DW$819  .dwtag  DW_TAG_formal_parameter, DW_AT_type(*DW$T$23)
   12716              DW$820  .dwtag  DW_TAG_formal_parameter, DW_AT_type(*DW$T$32)
   12717              DW$821  .dwtag  DW_TAG_formal_parameter, DW_AT_type(*DW$T$27)
   12718              DW$822  .dwtag  DW_TAG_formal_parameter, DW_AT_type(*DW$T$23)
   12719                      .dwendtag DW$T$109
   12720              
   12721              
   12722              DW$T$111        .dwtag  DW_TAG_subroutine_type, DW_AT_type(*DW$T$108)
   12723                      .dwattr DW$T$111, DW_AT_language(DW_LANG_C)
   12724              DW$823  .dwtag  DW_TAG_formal_parameter, DW_AT_type(*DW$T$23)
   12725              DW$824  .dwtag  DW_TAG_formal_parameter, DW_AT_type(*DW$T$62)
   12726              DW$825  .dwtag  DW_TAG_formal_parameter, DW_AT_type(*DW$T$27)
   12727              DW$826  .dwtag  DW_TAG_formal_parameter, DW_AT_type(*DW$T$23)
   12728                      .dwendtag DW$T$111
   12729              
   12730              
   12731              DW$T$113        .dwtag  DW_TAG_subroutine_type, DW_AT_type(*DW$T$108)
   12732                      .dwattr DW$T$113, DW_AT_language(DW_LANG_C)
   12733              DW$827  .dwtag  DW_TAG_formal_parameter, DW_AT_type(*DW$T$23)
   12734              DW$828  .dwtag  DW_TAG_formal_parameter, DW_AT_type(*DW$T$23)
   12735              DW$829  .dwtag  DW_TAG_formal_parameter, DW_AT_type(*DW$T$3)
   12736                      .dwendtag DW$T$113
   12737              
   12738              DW$830  .dwtag  DW_TAG_far_type
   12739              DW$T$41 .dwtag  DW_TAG_const_type
   12740                      .dwattr DW$T$41, DW_AT_type(*DW$830)
   12741              DW$831  .dwtag  DW_TAG_far_type
   12742                      .dwattr DW$831, DW_AT_type(*DW$T$23)
   12743              DW$T$61 .dwtag  DW_TAG_const_type
   12744                      .dwattr DW$T$61, DW_AT_type(*DW$831)
   12745              DW$T$9  .dwtag  DW_TAG_base_type, DW_AT_name("unsigned short")
   12746                      .dwattr DW$T$9, DW_AT_encoding(DW_ATE_unsigned)
   12747                      .dwattr DW$T$9, DW_AT_byte_size(0x01)
   12748              DW$T$11 .dwtag  DW_TAG_base_type, DW_AT_name("unsigned int")
   12749                      .dwattr DW$T$11, DW_AT_encoding(DW_ATE_unsigned)
   12750                      .dwattr DW$T$11, DW_AT_byte_size(0x01)
   12751              DW$T$13 .dwtag  DW_TAG_base_type, DW_AT_name("unsigned long")
   12752                      .dwattr DW$T$13, DW_AT_encoding(DW_ATE_unsigned)
   12753                      .dwattr DW$T$13, DW_AT_byte_size(0x02)
   12754              DW$T$25 .dwtag  DW_TAG_typedef, DW_AT_name("OS_EVENT"), DW_AT_type(*DW$T$22)
   12755                      .dwattr DW$T$25, DW_AT_language(DW_LANG_C)
   12756              DW$T$30 .dwtag  DW_TAG_typedef, DW_AT_name("FATFS"), DW_AT_type(*DW$T$29)
   12757                      .dwattr DW$T$30, DW_AT_language(DW_LANG_C)
   12758              
   12759              DW$T$33 .dwtag  DW_TAG_structure_type
   12760                      .dwattr DW$T$33, DW_AT_byte_size(0x0e)
   12761              DW$832  .dwtag  DW_TAG_member, DW_AT_type(*DW$T$31)
   12762                      .dwattr DW$832, DW_AT_name("fs"), DW_AT_symbol_name("_fs")
   12763                      .dwattr DW$832, DW_AT_data_member_location[DW_OP_plus_uconst 0x0]
   12764                      .dwattr DW$832, DW_AT_accessibility(DW_ACCESS_public)
TMS320C2000 COFF Assembler PC v4.1.3 Thu May 05 10:06:00 2011

Tools Copyright (c) 1996-2006 Texas Instruments Incorporated
C:\DOCUME~1\ADMINI~1\LOCALS~1\Temp\TI1122                            PAGE  245

   12765              DW$833  .dwtag  DW_TAG_member, DW_AT_type(*DW$T$24)
   12766                      .dwattr DW$833, DW_AT_name("id"), DW_AT_symbol_name("_id")
   12767                      .dwattr DW$833, DW_AT_data_member_location[DW_OP_plus_uconst 0x2]
   12768                      .dwattr DW$833, DW_AT_accessibility(DW_ACCESS_public)
   12769              DW$834  .dwtag  DW_TAG_member, DW_AT_type(*DW$T$24)
   12770                      .dwattr DW$834, DW_AT_name("index"), DW_AT_symbol_name("_index")
   12771                      .dwattr DW$834, DW_AT_data_member_location[DW_OP_plus_uconst 0x3]
   12772                      .dwattr DW$834, DW_AT_accessibility(DW_ACCESS_public)
   12773              DW$835  .dwtag  DW_TAG_member, DW_AT_type(*DW$T$27)
   12774                      .dwattr DW$835, DW_AT_name("sclust"), DW_AT_symbol_name("_sclust")
   12775                      .dwattr DW$835, DW_AT_data_member_location[DW_OP_plus_uconst 0x4]
   12776                      .dwattr DW$835, DW_AT_accessibility(DW_ACCESS_public)
   12777              DW$836  .dwtag  DW_TAG_member, DW_AT_type(*DW$T$27)
   12778                      .dwattr DW$836, DW_AT_name("clust"), DW_AT_symbol_name("_clust")
   12779                      .dwattr DW$836, DW_AT_data_member_location[DW_OP_plus_uconst 0x6]
   12780                      .dwattr DW$836, DW_AT_accessibility(DW_ACCESS_public)
   12781              DW$837  .dwtag  DW_TAG_member, DW_AT_type(*DW$T$27)
   12782                      .dwattr DW$837, DW_AT_name("sect"), DW_AT_symbol_name("_sect")
   12783                      .dwattr DW$837, DW_AT_data_member_location[DW_OP_plus_uconst 0x8]
   12784                      .dwattr DW$837, DW_AT_accessibility(DW_ACCESS_public)
   12785              DW$838  .dwtag  DW_TAG_member, DW_AT_type(*DW$T$32)
   12786                      .dwattr DW$838, DW_AT_name("dir"), DW_AT_symbol_name("_dir")
   12787                      .dwattr DW$838, DW_AT_data_member_location[DW_OP_plus_uconst 0xa]
   12788                      .dwattr DW$838, DW_AT_accessibility(DW_ACCESS_public)
   12789              DW$839  .dwtag  DW_TAG_member, DW_AT_type(*DW$T$32)
   12790                      .dwattr DW$839, DW_AT_name("fn"), DW_AT_symbol_name("_fn")
   12791                      .dwattr DW$839, DW_AT_data_member_location[DW_OP_plus_uconst 0xc]
   12792                      .dwattr DW$839, DW_AT_accessibility(DW_ACCESS_public)
   12793                      .dwendtag DW$T$33
   12794              
   12795              DW$T$34 .dwtag  DW_TAG_base_type, DW_AT_name("signed char")
   12796                      .dwattr DW$T$34, DW_AT_encoding(DW_ATE_signed_char)
   12797                      .dwattr DW$T$34, DW_AT_byte_size(0x01)
   12798              DW$840  .dwtag  DW_TAG_far_type
   12799                      .dwattr DW$840, DW_AT_type(*DW$T$35)
   12800              DW$T$92 .dwtag  DW_TAG_const_type
   12801                      .dwattr DW$T$92, DW_AT_type(*DW$840)
   12802              DW$841  .dwtag  DW_TAG_far_type
   12803                      .dwattr DW$841, DW_AT_type(*DW$T$34)
   12804              DW$T$82 .dwtag  DW_TAG_const_type
   12805                      .dwattr DW$T$82, DW_AT_type(*DW$841)
   12806              DW$T$124        .dwtag  DW_TAG_pointer_type, DW_AT_type(*DW$T$34)
   12807                      .dwattr DW$T$124, DW_AT_address_class(0x16)
   12808              DW$T$54 .dwtag  DW_TAG_typedef, DW_AT_name("FILINFO"), DW_AT_type(*DW$T$37)
   12809                      .dwattr DW$T$54, DW_AT_language(DW_LANG_C)
   12810              DW$842  .dwtag  DW_TAG_far_type
   12811                      .dwattr DW$842, DW_AT_type(*DW$T$54)
   12812              DW$T$162        .dwtag  DW_TAG_const_type
   12813                      .dwattr DW$T$162, DW_AT_type(*DW$842)
   12814              DW$T$88 .dwtag  DW_TAG_typedef, DW_AT_name("FIL"), DW_AT_type(*DW$T$38)
   12815                      .dwattr DW$T$88, DW_AT_language(DW_LANG_C)
   12816              
   12817              DW$T$48 .dwtag  DW_TAG_enumeration_type
   12818                      .dwattr DW$T$48, DW_AT_byte_size(0x01)
   12819              DW$843  .dwtag  DW_TAG_enumerator, DW_AT_name("FR_OK"), DW_AT_const_value(0x00)
TMS320C2000 COFF Assembler PC v4.1.3 Thu May 05 10:06:00 2011

Tools Copyright (c) 1996-2006 Texas Instruments Incorporated
C:\DOCUME~1\ADMINI~1\LOCALS~1\Temp\TI1122                            PAGE  246

   12820              DW$844  .dwtag  DW_TAG_enumerator, DW_AT_name("FR_DISK_ERR"), DW_AT_const_value(0x01)
   12821              DW$845  .dwtag  DW_TAG_enumerator, DW_AT_name("FR_INT_ERR"), DW_AT_const_value(0x02)
   12822              DW$846  .dwtag  DW_TAG_enumerator, DW_AT_name("FR_NOT_READY"), DW_AT_const_value(0x03)
   12823              DW$847  .dwtag  DW_TAG_enumerator, DW_AT_name("FR_NO_FILE"), DW_AT_const_value(0x04)
   12824              DW$848  .dwtag  DW_TAG_enumerator, DW_AT_name("FR_NO_PATH"), DW_AT_const_value(0x05)
   12825              DW$849  .dwtag  DW_TAG_enumerator, DW_AT_name("FR_INVALID_NAME"), DW_AT_const_value(0x06)
   12826              DW$850  .dwtag  DW_TAG_enumerator, DW_AT_name("FR_DENIED"), DW_AT_const_value(0x07)
   12827              DW$851  .dwtag  DW_TAG_enumerator, DW_AT_name("FR_EXIST"), DW_AT_const_value(0x08)
   12828              DW$852  .dwtag  DW_TAG_enumerator, DW_AT_name("FR_INVALID_OBJECT"), DW_AT_const_value(0x09)
   12829              DW$853  .dwtag  DW_TAG_enumerator, DW_AT_name("FR_WRITE_PROTECTED"), DW_AT_const_value(0x0a)
   12830              DW$854  .dwtag  DW_TAG_enumerator, DW_AT_name("FR_INVALID_DRIVE"), DW_AT_const_value(0x0b)
   12831              DW$855  .dwtag  DW_TAG_enumerator, DW_AT_name("FR_NOT_ENABLED"), DW_AT_const_value(0x0c)
   12832              DW$856  .dwtag  DW_TAG_enumerator, DW_AT_name("FR_NO_FILESYSTEM"), DW_AT_const_value(0x0d)
   12833              DW$857  .dwtag  DW_TAG_enumerator, DW_AT_name("FR_MKFS_ABORTED"), DW_AT_const_value(0x0e)
   12834              DW$858  .dwtag  DW_TAG_enumerator, DW_AT_name("FR_TIMEOUT"), DW_AT_const_value(0x0f)
   12835              DW$859  .dwtag  DW_TAG_enumerator, DW_AT_name("FR_LOCKED"), DW_AT_const_value(0x10)
   12836              DW$860  .dwtag  DW_TAG_enumerator, DW_AT_name("FR_NOT_ENOUGH_CORE"), DW_AT_const_value(0x11)
   12837              DW$861  .dwtag  DW_TAG_enumerator, DW_AT_name("FR_TOO_MANY_OPEN_FILES"), DW_AT_const_value(0x12)
   12838                      .dwendtag DW$T$48
   12839              
   12840              
   12841              DW$T$107        .dwtag  DW_TAG_enumeration_type
   12842                      .dwattr DW$T$107, DW_AT_byte_size(0x01)
   12843              DW$862  .dwtag  DW_TAG_enumerator, DW_AT_name("RES_OK"), DW_AT_const_value(0x00)
   12844              DW$863  .dwtag  DW_TAG_enumerator, DW_AT_name("RES_ERROR"), DW_AT_const_value(0x01)
   12845              DW$864  .dwtag  DW_TAG_enumerator, DW_AT_name("RES_WRPRT"), DW_AT_const_value(0x02)
   12846              DW$865  .dwtag  DW_TAG_enumerator, DW_AT_name("RES_NOTRDY"), DW_AT_const_value(0x03)
   12847              DW$866  .dwtag  DW_TAG_enumerator, DW_AT_name("RES_PARERR"), DW_AT_const_value(0x04)
   12848                      .dwendtag DW$T$107
   12849              
   12850              
   12851              DW$T$22 .dwtag  DW_TAG_structure_type
   12852                      .dwattr DW$T$22, DW_AT_name("os_event")
   12853                      .dwattr DW$T$22, DW_AT_byte_size(0x0e)
   12854              DW$867  .dwtag  DW_TAG_member, DW_AT_type(*DW$T$19)
   12855                      .dwattr DW$867, DW_AT_name("OSEventType"), DW_AT_symbol_name("_OSEventType")
   12856                      .dwattr DW$867, DW_AT_data_member_location[DW_OP_plus_uconst 0x0]
   12857                      .dwattr DW$867, DW_AT_accessibility(DW_ACCESS_public)
   12858              DW$868  .dwtag  DW_TAG_member, DW_AT_type(*DW$T$3)
   12859                      .dwattr DW$868, DW_AT_name("OSEventPtr"), DW_AT_symbol_name("_OSEventPtr")
   12860                      .dwattr DW$868, DW_AT_data_member_location[DW_OP_plus_uconst 0x2]
   12861                      .dwattr DW$868, DW_AT_accessibility(DW_ACCESS_public)
   12862              DW$869  .dwtag  DW_TAG_member, DW_AT_type(*DW$T$20)
   12863                      .dwattr DW$869, DW_AT_name("OSEventCnt"), DW_AT_symbol_name("_OSEventCnt")
   12864                      .dwattr DW$869, DW_AT_data_member_location[DW_OP_plus_uconst 0x4]
   12865                      .dwattr DW$869, DW_AT_accessibility(DW_ACCESS_public)
   12866              DW$870  .dwtag  DW_TAG_member, DW_AT_type(*DW$T$19)
   12867                      .dwattr DW$870, DW_AT_name("OSEventGrp"), DW_AT_symbol_name("_OSEventGrp")
   12868                      .dwattr DW$870, DW_AT_data_member_location[DW_OP_plus_uconst 0x5]
   12869                      .dwattr DW$870, DW_AT_accessibility(DW_ACCESS_public)
   12870              DW$871  .dwtag  DW_TAG_member, DW_AT_type(*DW$T$21)
   12871                      .dwattr DW$871, DW_AT_name("OSEventTbl"), DW_AT_symbol_name("_OSEventTbl")
   12872                      .dwattr DW$871, DW_AT_data_member_location[DW_OP_plus_uconst 0x6]
   12873                      .dwattr DW$871, DW_AT_accessibility(DW_ACCESS_public)
   12874                      .dwendtag DW$T$22
TMS320C2000 COFF Assembler PC v4.1.3 Thu May 05 10:06:00 2011

Tools Copyright (c) 1996-2006 Texas Instruments Incorporated
C:\DOCUME~1\ADMINI~1\LOCALS~1\Temp\TI1122                            PAGE  247

   12875              
   12876              
   12877              DW$T$29 .dwtag  DW_TAG_structure_type
   12878                      .dwattr DW$T$29, DW_AT_byte_size(0x21c)
   12879              DW$872  .dwtag  DW_TAG_member, DW_AT_type(*DW$T$23)
   12880                      .dwattr DW$872, DW_AT_name("fs_type"), DW_AT_symbol_name("_fs_type")
   12881                      .dwattr DW$872, DW_AT_data_member_location[DW_OP_plus_uconst 0x0]
   12882                      .dwattr DW$872, DW_AT_accessibility(DW_ACCESS_public)
   12883              DW$873  .dwtag  DW_TAG_member, DW_AT_type(*DW$T$23)
   12884                      .dwattr DW$873, DW_AT_name("drv"), DW_AT_symbol_name("_drv")
   12885                      .dwattr DW$873, DW_AT_data_member_location[DW_OP_plus_uconst 0x1]
   12886                      .dwattr DW$873, DW_AT_accessibility(DW_ACCESS_public)
   12887              DW$874  .dwtag  DW_TAG_member, DW_AT_type(*DW$T$23)
   12888                      .dwattr DW$874, DW_AT_name("csize"), DW_AT_symbol_name("_csize")
   12889                      .dwattr DW$874, DW_AT_data_member_location[DW_OP_plus_uconst 0x2]
   12890                      .dwattr DW$874, DW_AT_accessibility(DW_ACCESS_public)
   12891              DW$875  .dwtag  DW_TAG_member, DW_AT_type(*DW$T$23)
   12892                      .dwattr DW$875, DW_AT_name("n_fats"), DW_AT_symbol_name("_n_fats")
   12893                      .dwattr DW$875, DW_AT_data_member_location[DW_OP_plus_uconst 0x3]
   12894                      .dwattr DW$875, DW_AT_accessibility(DW_ACCESS_public)
   12895              DW$876  .dwtag  DW_TAG_member, DW_AT_type(*DW$T$23)
   12896                      .dwattr DW$876, DW_AT_name("wflag"), DW_AT_symbol_name("_wflag")
   12897                      .dwattr DW$876, DW_AT_data_member_location[DW_OP_plus_uconst 0x4]
   12898                      .dwattr DW$876, DW_AT_accessibility(DW_ACCESS_public)
   12899              DW$877  .dwtag  DW_TAG_member, DW_AT_type(*DW$T$23)
   12900                      .dwattr DW$877, DW_AT_name("fsi_flag"), DW_AT_symbol_name("_fsi_flag")
   12901                      .dwattr DW$877, DW_AT_data_member_location[DW_OP_plus_uconst 0x5]
   12902                      .dwattr DW$877, DW_AT_accessibility(DW_ACCESS_public)
   12903              DW$878  .dwtag  DW_TAG_member, DW_AT_type(*DW$T$24)
   12904                      .dwattr DW$878, DW_AT_name("id"), DW_AT_symbol_name("_id")
   12905                      .dwattr DW$878, DW_AT_data_member_location[DW_OP_plus_uconst 0x6]
   12906                      .dwattr DW$878, DW_AT_accessibility(DW_ACCESS_public)
   12907              DW$879  .dwtag  DW_TAG_member, DW_AT_type(*DW$T$24)
   12908                      .dwattr DW$879, DW_AT_name("n_rootdir"), DW_AT_symbol_name("_n_rootdir")
   12909                      .dwattr DW$879, DW_AT_data_member_location[DW_OP_plus_uconst 0x7]
   12910                      .dwattr DW$879, DW_AT_accessibility(DW_ACCESS_public)
   12911              DW$880  .dwtag  DW_TAG_member, DW_AT_type(*DW$T$26)
   12912                      .dwattr DW$880, DW_AT_name("sobj"), DW_AT_symbol_name("_sobj")
   12913                      .dwattr DW$880, DW_AT_data_member_location[DW_OP_plus_uconst 0x8]
   12914                      .dwattr DW$880, DW_AT_accessibility(DW_ACCESS_public)
   12915              DW$881  .dwtag  DW_TAG_member, DW_AT_type(*DW$T$27)
   12916                      .dwattr DW$881, DW_AT_name("last_clust"), DW_AT_symbol_name("_last_clust")
   12917                      .dwattr DW$881, DW_AT_data_member_location[DW_OP_plus_uconst 0xa]
   12918                      .dwattr DW$881, DW_AT_accessibility(DW_ACCESS_public)
   12919              DW$882  .dwtag  DW_TAG_member, DW_AT_type(*DW$T$27)
   12920                      .dwattr DW$882, DW_AT_name("free_clust"), DW_AT_symbol_name("_free_clust")
   12921                      .dwattr DW$882, DW_AT_data_member_location[DW_OP_plus_uconst 0xc]
   12922                      .dwattr DW$882, DW_AT_accessibility(DW_ACCESS_public)
   12923              DW$883  .dwtag  DW_TAG_member, DW_AT_type(*DW$T$27)
   12924                      .dwattr DW$883, DW_AT_name("fsi_sector"), DW_AT_symbol_name("_fsi_sector")
   12925                      .dwattr DW$883, DW_AT_data_member_location[DW_OP_plus_uconst 0xe]
   12926                      .dwattr DW$883, DW_AT_accessibility(DW_ACCESS_public)
   12927              DW$884  .dwtag  DW_TAG_member, DW_AT_type(*DW$T$27)
   12928                      .dwattr DW$884, DW_AT_name("n_fatent"), DW_AT_symbol_name("_n_fatent")
   12929                      .dwattr DW$884, DW_AT_data_member_location[DW_OP_plus_uconst 0x10]
TMS320C2000 COFF Assembler PC v4.1.3 Thu May 05 10:06:00 2011

Tools Copyright (c) 1996-2006 Texas Instruments Incorporated
C:\DOCUME~1\ADMINI~1\LOCALS~1\Temp\TI1122                            PAGE  248

   12930                      .dwattr DW$884, DW_AT_accessibility(DW_ACCESS_public)
   12931              DW$885  .dwtag  DW_TAG_member, DW_AT_type(*DW$T$27)
   12932                      .dwattr DW$885, DW_AT_name("fsize"), DW_AT_symbol_name("_fsize")
   12933                      .dwattr DW$885, DW_AT_data_member_location[DW_OP_plus_uconst 0x12]
   12934                      .dwattr DW$885, DW_AT_accessibility(DW_ACCESS_public)
   12935              DW$886  .dwtag  DW_TAG_member, DW_AT_type(*DW$T$27)
   12936                      .dwattr DW$886, DW_AT_name("fatbase"), DW_AT_symbol_name("_fatbase")
   12937                      .dwattr DW$886, DW_AT_data_member_location[DW_OP_plus_uconst 0x14]
   12938                      .dwattr DW$886, DW_AT_accessibility(DW_ACCESS_public)
   12939              DW$887  .dwtag  DW_TAG_member, DW_AT_type(*DW$T$27)
   12940                      .dwattr DW$887, DW_AT_name("dirbase"), DW_AT_symbol_name("_dirbase")
   12941                      .dwattr DW$887, DW_AT_data_member_location[DW_OP_plus_uconst 0x16]
   12942                      .dwattr DW$887, DW_AT_accessibility(DW_ACCESS_public)
   12943              DW$888  .dwtag  DW_TAG_member, DW_AT_type(*DW$T$27)
   12944                      .dwattr DW$888, DW_AT_name("database"), DW_AT_symbol_name("_database")
   12945                      .dwattr DW$888, DW_AT_data_member_location[DW_OP_plus_uconst 0x18]
   12946                      .dwattr DW$888, DW_AT_accessibility(DW_ACCESS_public)
   12947              DW$889  .dwtag  DW_TAG_member, DW_AT_type(*DW$T$27)
   12948                      .dwattr DW$889, DW_AT_name("winsect"), DW_AT_symbol_name("_winsect")
   12949                      .dwattr DW$889, DW_AT_data_member_location[DW_OP_plus_uconst 0x1a]
   12950                      .dwattr DW$889, DW_AT_accessibility(DW_ACCESS_public)
   12951              DW$890  .dwtag  DW_TAG_member, DW_AT_type(*DW$T$28)
   12952                      .dwattr DW$890, DW_AT_name("win"), DW_AT_symbol_name("_win")
   12953                      .dwattr DW$890, DW_AT_data_member_location[DW_OP_plus_uconst 0x1c]
   12954                      .dwattr DW$890, DW_AT_accessibility(DW_ACCESS_public)
   12955                      .dwendtag DW$T$29
   12956              
   12957              
   12958              DW$T$37 .dwtag  DW_TAG_structure_type
   12959                      .dwattr DW$T$37, DW_AT_byte_size(0x12)
   12960              DW$891  .dwtag  DW_TAG_member, DW_AT_type(*DW$T$27)
   12961                      .dwattr DW$891, DW_AT_name("fsize"), DW_AT_symbol_name("_fsize")
   12962                      .dwattr DW$891, DW_AT_data_member_location[DW_OP_plus_uconst 0x0]
   12963                      .dwattr DW$891, DW_AT_accessibility(DW_ACCESS_public)
   12964              DW$892  .dwtag  DW_TAG_member, DW_AT_type(*DW$T$24)
   12965                      .dwattr DW$892, DW_AT_name("fdate"), DW_AT_symbol_name("_fdate")
   12966                      .dwattr DW$892, DW_AT_data_member_location[DW_OP_plus_uconst 0x2]
   12967                      .dwattr DW$892, DW_AT_accessibility(DW_ACCESS_public)
   12968              DW$893  .dwtag  DW_TAG_member, DW_AT_type(*DW$T$24)
   12969                      .dwattr DW$893, DW_AT_name("ftime"), DW_AT_symbol_name("_ftime")
   12970                      .dwattr DW$893, DW_AT_data_member_location[DW_OP_plus_uconst 0x3]
   12971                      .dwattr DW$893, DW_AT_accessibility(DW_ACCESS_public)
   12972              DW$894  .dwtag  DW_TAG_member, DW_AT_type(*DW$T$23)
   12973                      .dwattr DW$894, DW_AT_name("fattrib"), DW_AT_symbol_name("_fattrib")
   12974                      .dwattr DW$894, DW_AT_data_member_location[DW_OP_plus_uconst 0x4]
   12975                      .dwattr DW$894, DW_AT_accessibility(DW_ACCESS_public)
   12976              DW$895  .dwtag  DW_TAG_member, DW_AT_type(*DW$T$36)
   12977                      .dwattr DW$895, DW_AT_name("fname"), DW_AT_symbol_name("_fname")
   12978                      .dwattr DW$895, DW_AT_data_member_location[DW_OP_plus_uconst 0x5]
   12979                      .dwattr DW$895, DW_AT_accessibility(DW_ACCESS_public)
   12980                      .dwendtag DW$T$37
   12981              
   12982              
   12983              DW$T$38 .dwtag  DW_TAG_structure_type
   12984                      .dwattr DW$T$38, DW_AT_byte_size(0x214)
TMS320C2000 COFF Assembler PC v4.1.3 Thu May 05 10:06:00 2011

Tools Copyright (c) 1996-2006 Texas Instruments Incorporated
C:\DOCUME~1\ADMINI~1\LOCALS~1\Temp\TI1122                            PAGE  249

   12985              DW$896  .dwtag  DW_TAG_member, DW_AT_type(*DW$T$31)
   12986                      .dwattr DW$896, DW_AT_name("fs"), DW_AT_symbol_name("_fs")
   12987                      .dwattr DW$896, DW_AT_data_member_location[DW_OP_plus_uconst 0x0]
   12988                      .dwattr DW$896, DW_AT_accessibility(DW_ACCESS_public)
   12989              DW$897  .dwtag  DW_TAG_member, DW_AT_type(*DW$T$24)
   12990                      .dwattr DW$897, DW_AT_name("id"), DW_AT_symbol_name("_id")
   12991                      .dwattr DW$897, DW_AT_data_member_location[DW_OP_plus_uconst 0x2]
   12992                      .dwattr DW$897, DW_AT_accessibility(DW_ACCESS_public)
   12993              DW$898  .dwtag  DW_TAG_member, DW_AT_type(*DW$T$23)
   12994                      .dwattr DW$898, DW_AT_name("flag"), DW_AT_symbol_name("_flag")
   12995                      .dwattr DW$898, DW_AT_data_member_location[DW_OP_plus_uconst 0x3]
   12996                      .dwattr DW$898, DW_AT_accessibility(DW_ACCESS_public)
   12997              DW$899  .dwtag  DW_TAG_member, DW_AT_type(*DW$T$23)
   12998                      .dwattr DW$899, DW_AT_name("pad1"), DW_AT_symbol_name("_pad1")
   12999                      .dwattr DW$899, DW_AT_data_member_location[DW_OP_plus_uconst 0x4]
   13000                      .dwattr DW$899, DW_AT_accessibility(DW_ACCESS_public)
   13001              DW$900  .dwtag  DW_TAG_member, DW_AT_type(*DW$T$27)
   13002                      .dwattr DW$900, DW_AT_name("fptr"), DW_AT_symbol_name("_fptr")
   13003                      .dwattr DW$900, DW_AT_data_member_location[DW_OP_plus_uconst 0x6]
   13004                      .dwattr DW$900, DW_AT_accessibility(DW_ACCESS_public)
   13005              DW$901  .dwtag  DW_TAG_member, DW_AT_type(*DW$T$27)
   13006                      .dwattr DW$901, DW_AT_name("fsize"), DW_AT_symbol_name("_fsize")
   13007                      .dwattr DW$901, DW_AT_data_member_location[DW_OP_plus_uconst 0x8]
   13008                      .dwattr DW$901, DW_AT_accessibility(DW_ACCESS_public)
   13009              DW$902  .dwtag  DW_TAG_member, DW_AT_type(*DW$T$27)
   13010                      .dwattr DW$902, DW_AT_name("sclust"), DW_AT_symbol_name("_sclust")
   13011                      .dwattr DW$902, DW_AT_data_member_location[DW_OP_plus_uconst 0xa]
   13012                      .dwattr DW$902, DW_AT_accessibility(DW_ACCESS_public)
   13013              DW$903  .dwtag  DW_TAG_member, DW_AT_type(*DW$T$27)
   13014                      .dwattr DW$903, DW_AT_name("clust"), DW_AT_symbol_name("_clust")
   13015                      .dwattr DW$903, DW_AT_data_member_location[DW_OP_plus_uconst 0xc]
   13016                      .dwattr DW$903, DW_AT_accessibility(DW_ACCESS_public)
   13017              DW$904  .dwtag  DW_TAG_member, DW_AT_type(*DW$T$27)
   13018                      .dwattr DW$904, DW_AT_name("dsect"), DW_AT_symbol_name("_dsect")
   13019                      .dwattr DW$904, DW_AT_data_member_location[DW_OP_plus_uconst 0xe]
   13020                      .dwattr DW$904, DW_AT_accessibility(DW_ACCESS_public)
   13021              DW$905  .dwtag  DW_TAG_member, DW_AT_type(*DW$T$27)
   13022                      .dwattr DW$905, DW_AT_name("dir_sect"), DW_AT_symbol_name("_dir_sect")
   13023                      .dwattr DW$905, DW_AT_data_member_location[DW_OP_plus_uconst 0x10]
   13024                      .dwattr DW$905, DW_AT_accessibility(DW_ACCESS_public)
   13025              DW$906  .dwtag  DW_TAG_member, DW_AT_type(*DW$T$32)
   13026                      .dwattr DW$906, DW_AT_name("dir_ptr"), DW_AT_symbol_name("_dir_ptr")
   13027                      .dwattr DW$906, DW_AT_data_member_location[DW_OP_plus_uconst 0x12]
   13028                      .dwattr DW$906, DW_AT_accessibility(DW_ACCESS_public)
   13029              DW$907  .dwtag  DW_TAG_member, DW_AT_type(*DW$T$28)
   13030                      .dwattr DW$907, DW_AT_name("buf"), DW_AT_symbol_name("_buf")
   13031                      .dwattr DW$907, DW_AT_data_member_location[DW_OP_plus_uconst 0x14]
   13032                      .dwattr DW$907, DW_AT_accessibility(DW_ACCESS_public)
   13033                      .dwendtag DW$T$38
   13034              
   13035              DW$T$19 .dwtag  DW_TAG_typedef, DW_AT_name("INT8U"), DW_AT_type(*DW$T$6)
   13036                      .dwattr DW$T$19, DW_AT_language(DW_LANG_C)
   13037              
   13038              DW$T$21 .dwtag  DW_TAG_array_type, DW_AT_type(*DW$T$19)
   13039                      .dwattr DW$T$21, DW_AT_language(DW_LANG_C)
TMS320C2000 COFF Assembler PC v4.1.3 Thu May 05 10:06:00 2011

Tools Copyright (c) 1996-2006 Texas Instruments Incorporated
C:\DOCUME~1\ADMINI~1\LOCALS~1\Temp\TI1122                            PAGE  250

   13040                      .dwattr DW$T$21, DW_AT_byte_size(0x08)
   13041              DW$908  .dwtag  DW_TAG_subrange_type
   13042                      .dwattr DW$908, DW_AT_upper_bound(0x07)
   13043                      .dwendtag DW$T$21
   13044              
   13045              
   13046              DW$T$28 .dwtag  DW_TAG_array_type, DW_AT_type(*DW$T$23)
   13047                      .dwattr DW$T$28, DW_AT_language(DW_LANG_C)
   13048                      .dwattr DW$T$28, DW_AT_byte_size(0x200)
   13049              DW$909  .dwtag  DW_TAG_subrange_type
   13050                      .dwattr DW$909, DW_AT_upper_bound(0x1ff)
   13051                      .dwendtag DW$T$28
   13052              
   13053              DW$T$20 .dwtag  DW_TAG_typedef, DW_AT_name("INT16U"), DW_AT_type(*DW$T$11)
   13054                      .dwattr DW$T$20, DW_AT_language(DW_LANG_C)
   13055              
   13056              DW$T$36 .dwtag  DW_TAG_array_type, DW_AT_type(*DW$T$35)
   13057                      .dwattr DW$T$36, DW_AT_language(DW_LANG_C)
   13058                      .dwattr DW$T$36, DW_AT_byte_size(0x0d)
   13059              DW$910  .dwtag  DW_TAG_subrange_type
   13060                      .dwattr DW$910, DW_AT_upper_bound(0x0c)
   13061                      .dwendtag DW$T$36
   13062              
   13063              
   13064                      .dwattr DW$299, DW_AT_type(*DW$T$23)
   13065                      .dwattr DW$65, DW_AT_type(*DW$T$10)
   13066                      .dwattr DW$304, DW_AT_type(*DW$T$49)
   13067                      .dwattr DW$96, DW_AT_external(0x01)
   13068                      .dwattr DW$96, DW_AT_type(*DW$T$27)
   13069                      .dwattr DW$134, DW_AT_type(*DW$T$27)
   13070                      .dwattr DW$220, DW_AT_type(*DW$T$49)
   13071                      .dwattr DW$176, DW_AT_type(*DW$T$49)
   13072                      .dwattr DW$163, DW_AT_type(*DW$T$49)
   13073                      .dwattr DW$189, DW_AT_type(*DW$T$49)
   13074                      .dwattr DW$205, DW_AT_type(*DW$T$49)
   13075                      .dwattr DW$216, DW_AT_type(*DW$T$49)
   13076                      .dwattr DW$150, DW_AT_type(*DW$T$49)
   13077                      .dwattr DW$551, DW_AT_external(0x01)
   13078                      .dwattr DW$551, DW_AT_type(*DW$T$49)
   13079                      .dwattr DW$445, DW_AT_external(0x01)
   13080                      .dwattr DW$445, DW_AT_type(*DW$T$49)
   13081                      .dwattr DW$490, DW_AT_external(0x01)
   13082                      .dwattr DW$490, DW_AT_type(*DW$T$49)
   13083                      .dwattr DW$583, DW_AT_external(0x01)
   13084                      .dwattr DW$583, DW_AT_type(*DW$T$117)
   13085                      .dwattr DW$449, DW_AT_external(0x01)
   13086                      .dwattr DW$449, DW_AT_type(*DW$T$49)
   13087                      .dwattr DW$536, DW_AT_external(0x01)
   13088                      .dwattr DW$536, DW_AT_type(*DW$T$49)
   13089                      .dwattr DW$330, DW_AT_external(0x01)
   13090                      .dwattr DW$330, DW_AT_type(*DW$T$49)
   13091                      .dwattr DW$336, DW_AT_external(0x01)
   13092                      .dwattr DW$336, DW_AT_type(*DW$T$49)
   13093                      .dwattr DW$468, DW_AT_external(0x01)
   13094                      .dwattr DW$468, DW_AT_type(*DW$T$49)
TMS320C2000 COFF Assembler PC v4.1.3 Thu May 05 10:06:00 2011

Tools Copyright (c) 1996-2006 Texas Instruments Incorporated
C:\DOCUME~1\ADMINI~1\LOCALS~1\Temp\TI1122                            PAGE  251

   13095                      .dwattr DW$618, DW_AT_external(0x01)
   13096                      .dwattr DW$618, DW_AT_type(*DW$T$10)
   13097                      .dwattr DW$600, DW_AT_external(0x01)
   13098                      .dwattr DW$600, DW_AT_type(*DW$T$10)
   13099                      .dwattr DW$608, DW_AT_external(0x01)
   13100                      .dwattr DW$608, DW_AT_type(*DW$T$10)
   13101                      .dwattr DW$350, DW_AT_external(0x01)
   13102                      .dwattr DW$350, DW_AT_type(*DW$T$49)
   13103                      .dwattr DW$475, DW_AT_external(0x01)
   13104                      .dwattr DW$475, DW_AT_type(*DW$T$49)
   13105                      .dwattr DW$571, DW_AT_external(0x01)
   13106                      .dwattr DW$571, DW_AT_type(*DW$T$49)
   13107                      .dwattr DW$482, DW_AT_external(0x01)
   13108                      .dwattr DW$482, DW_AT_type(*DW$T$49)
   13109                      .dwattr DW$439, DW_AT_external(0x01)
   13110                      .dwattr DW$439, DW_AT_type(*DW$T$49)
   13111                      .dwattr DW$522, DW_AT_external(0x01)
   13112                      .dwattr DW$522, DW_AT_type(*DW$T$49)
   13113                      .dwattr DW$527, DW_AT_external(0x01)
   13114                      .dwattr DW$527, DW_AT_type(*DW$T$49)
   13115                      .dwattr DW$562, DW_AT_external(0x01)
   13116                      .dwattr DW$562, DW_AT_type(*DW$T$49)
   13117                      .dwattr DW$394, DW_AT_external(0x01)
   13118                      .dwattr DW$394, DW_AT_type(*DW$T$49)
   13119                      .dwattr DW$285, DW_AT_type(*DW$T$49)
   13120                      .dwattr DW$101, DW_AT_external(0x01)
   13121                      .dwattr DW$101, DW_AT_type(*DW$T$27)
   13122                      .dwattr DW$74, DW_AT_type(*DW$T$10)
   13123                      .dwattr DW$52, DW_AT_type(*DW$T$10)
   13124                      .dwattr DW$82, DW_AT_type(*DW$T$49)
   13125                      .dwattr DW$109, DW_AT_external(0x01)
   13126                      .dwattr DW$109, DW_AT_type(*DW$T$49)
   13127                      .dwattr DW$118, DW_AT_type(*DW$T$49)
   13128                      .dwattr DW$92, DW_AT_type(*DW$T$49)
   13129                      .dwattr DW$325, DW_AT_type(*DW$T$49)
   13130                      .dwattr DW$CU, DW_AT_language(DW_LANG_C)
   13131              
   13132              ;***************************************************************
   13133              ;* DWARF CIE ENTRIES                                           *
   13134              ;***************************************************************
   13135              
   13136              DW$CIE  .dwcie 1, 40
   13137                      .dwcfa  0x0c, 20, 0
   13138                      .dwcfa  0x07, 0
   13139                      .dwcfa  0x07, 1
   13140                      .dwcfa  0x07, 2
   13141                      .dwcfa  0x07, 3
   13142                      .dwcfa  0x07, 4
   13143                      .dwcfa  0x07, 5
   13144                      .dwcfa  0x08, 6
   13145                      .dwcfa  0x08, 7
   13146                      .dwcfa  0x08, 8
   13147                      .dwcfa  0x08, 9
   13148                      .dwcfa  0x08, 10
   13149                      .dwcfa  0x08, 11
TMS320C2000 COFF Assembler PC v4.1.3 Thu May 05 10:06:00 2011

Tools Copyright (c) 1996-2006 Texas Instruments Incorporated
C:\DOCUME~1\ADMINI~1\LOCALS~1\Temp\TI1122                            PAGE  252

   13150                      .dwcfa  0x07, 12
   13151                      .dwcfa  0x07, 13
   13152                      .dwcfa  0x07, 14
   13153                      .dwcfa  0x07, 15
   13154                      .dwcfa  0x07, 16
   13155                      .dwcfa  0x07, 17
   13156                      .dwcfa  0x07, 18
   13157                      .dwcfa  0x07, 19
   13158                      .dwcfa  0x07, 20
   13159                      .dwcfa  0x07, 21
   13160                      .dwcfa  0x07, 22
   13161                      .dwcfa  0x07, 23
   13162                      .dwcfa  0x07, 24
   13163                      .dwcfa  0x07, 25
   13164                      .dwcfa  0x07, 26
   13165                      .dwcfa  0x08, 27
   13166                      .dwcfa  0x07, 28
   13167                      .dwcfa  0x07, 29
   13168                      .dwcfa  0x07, 30
   13169                      .dwcfa  0x07, 31
   13170                      .dwcfa  0x07, 32
   13171                      .dwcfa  0x07, 33
   13172                      .dwcfa  0x07, 34
   13173                      .dwcfa  0x07, 35
   13174                      .dwcfa  0x07, 36
   13175                      .dwcfa  0x07, 37
   13176                      .dwcfa  0x07, 38
   13177                      .dwcfa  0x07, 39
   13178                      .dwcfa  0x07, 40
   13179              
   13180              ;***************************************************************
   13181              ;* DWARF REGISTER MAP                                          *
   13182              ;***************************************************************
   13183              
   13184              DW$911  .dwtag  DW_TAG_assign_register, DW_AT_name("AL")
   13185                      .dwattr DW$911, DW_AT_location[DW_OP_reg0]
   13186              DW$912  .dwtag  DW_TAG_assign_register, DW_AT_name("AH")
   13187                      .dwattr DW$912, DW_AT_location[DW_OP_reg1]
   13188              DW$913  .dwtag  DW_TAG_assign_register, DW_AT_name("PL")
   13189                      .dwattr DW$913, DW_AT_location[DW_OP_reg2]
   13190              DW$914  .dwtag  DW_TAG_assign_register, DW_AT_name("PH")
   13191                      .dwattr DW$914, DW_AT_location[DW_OP_reg3]
   13192              DW$915  .dwtag  DW_TAG_assign_register, DW_AT_name("AR0")
   13193                      .dwattr DW$915, DW_AT_location[DW_OP_reg4]
   13194              DW$916  .dwtag  DW_TAG_assign_register, DW_AT_name("XAR0")
   13195                      .dwattr DW$916, DW_AT_location[DW_OP_reg5]
   13196              DW$917  .dwtag  DW_TAG_assign_register, DW_AT_name("AR1")
   13197                      .dwattr DW$917, DW_AT_location[DW_OP_reg6]
   13198              DW$918  .dwtag  DW_TAG_assign_register, DW_AT_name("XAR1")
   13199                      .dwattr DW$918, DW_AT_location[DW_OP_reg7]
   13200              DW$919  .dwtag  DW_TAG_assign_register, DW_AT_name("AR2")
   13201                      .dwattr DW$919, DW_AT_location[DW_OP_reg8]
   13202              DW$920  .dwtag  DW_TAG_assign_register, DW_AT_name("XAR2")
   13203                      .dwattr DW$920, DW_AT_location[DW_OP_reg9]
   13204              DW$921  .dwtag  DW_TAG_assign_register, DW_AT_name("AR3")
TMS320C2000 COFF Assembler PC v4.1.3 Thu May 05 10:06:00 2011

Tools Copyright (c) 1996-2006 Texas Instruments Incorporated
C:\DOCUME~1\ADMINI~1\LOCALS~1\Temp\TI1122                            PAGE  253

   13205                      .dwattr DW$921, DW_AT_location[DW_OP_reg10]
   13206              DW$922  .dwtag  DW_TAG_assign_register, DW_AT_name("XAR3")
   13207                      .dwattr DW$922, DW_AT_location[DW_OP_reg11]
   13208              DW$923  .dwtag  DW_TAG_assign_register, DW_AT_name("AR4")
   13209                      .dwattr DW$923, DW_AT_location[DW_OP_reg12]
   13210              DW$924  .dwtag  DW_TAG_assign_register, DW_AT_name("XAR4")
   13211                      .dwattr DW$924, DW_AT_location[DW_OP_reg13]
   13212              DW$925  .dwtag  DW_TAG_assign_register, DW_AT_name("AR5")
   13213                      .dwattr DW$925, DW_AT_location[DW_OP_reg14]
   13214              DW$926  .dwtag  DW_TAG_assign_register, DW_AT_name("XAR5")
   13215                      .dwattr DW$926, DW_AT_location[DW_OP_reg15]
   13216              DW$927  .dwtag  DW_TAG_assign_register, DW_AT_name("AR6")
   13217                      .dwattr DW$927, DW_AT_location[DW_OP_reg16]
   13218              DW$928  .dwtag  DW_TAG_assign_register, DW_AT_name("XAR6")
   13219                      .dwattr DW$928, DW_AT_location[DW_OP_reg17]
   13220              DW$929  .dwtag  DW_TAG_assign_register, DW_AT_name("AR7")
   13221                      .dwattr DW$929, DW_AT_location[DW_OP_reg18]
   13222              DW$930  .dwtag  DW_TAG_assign_register, DW_AT_name("XAR7")
   13223                      .dwattr DW$930, DW_AT_location[DW_OP_reg19]
   13224              DW$931  .dwtag  DW_TAG_assign_register, DW_AT_name("SP")
   13225                      .dwattr DW$931, DW_AT_location[DW_OP_reg20]
   13226              DW$932  .dwtag  DW_TAG_assign_register, DW_AT_name("XT")
   13227                      .dwattr DW$932, DW_AT_location[DW_OP_reg21]
   13228              DW$933  .dwtag  DW_TAG_assign_register, DW_AT_name("T")
   13229                      .dwattr DW$933, DW_AT_location[DW_OP_reg22]
   13230              DW$934  .dwtag  DW_TAG_assign_register, DW_AT_name("ST0")
   13231                      .dwattr DW$934, DW_AT_location[DW_OP_reg23]
   13232              DW$935  .dwtag  DW_TAG_assign_register, DW_AT_name("ST1")
   13233                      .dwattr DW$935, DW_AT_location[DW_OP_reg24]
   13234              DW$936  .dwtag  DW_TAG_assign_register, DW_AT_name("PC")
   13235                      .dwattr DW$936, DW_AT_location[DW_OP_reg25]
   13236              DW$937  .dwtag  DW_TAG_assign_register, DW_AT_name("RPC")
   13237                      .dwattr DW$937, DW_AT_location[DW_OP_reg26]
   13238              DW$938  .dwtag  DW_TAG_assign_register, DW_AT_name("FP")
   13239                      .dwattr DW$938, DW_AT_location[DW_OP_reg27]
   13240              DW$939  .dwtag  DW_TAG_assign_register, DW_AT_name("DP")
   13241                      .dwattr DW$939, DW_AT_location[DW_OP_reg28]
   13242              DW$940  .dwtag  DW_TAG_assign_register, DW_AT_name("SXM")
   13243                      .dwattr DW$940, DW_AT_location[DW_OP_reg29]
   13244              DW$941  .dwtag  DW_TAG_assign_register, DW_AT_name("PM")
   13245                      .dwattr DW$941, DW_AT_location[DW_OP_reg30]
   13246              DW$942  .dwtag  DW_TAG_assign_register, DW_AT_name("OVM")
   13247                      .dwattr DW$942, DW_AT_location[DW_OP_reg31]
   13248              DW$943  .dwtag  DW_TAG_assign_register, DW_AT_name("PAGE0")
   13249                      .dwattr DW$943, DW_AT_location[DW_OP_regx 0x20]
   13250              DW$944  .dwtag  DW_TAG_assign_register, DW_AT_name("AMODE")
   13251                      .dwattr DW$944, DW_AT_location[DW_OP_regx 0x21]
   13252              DW$945  .dwtag  DW_TAG_assign_register, DW_AT_name("IFR")
   13253                      .dwattr DW$945, DW_AT_location[DW_OP_regx 0x22]
   13254              DW$946  .dwtag  DW_TAG_assign_register, DW_AT_name("IER")
   13255                      .dwattr DW$946, DW_AT_location[DW_OP_regx 0x23]
   13256              DW$947  .dwtag  DW_TAG_assign_register, DW_AT_name("IER")
   13257                      .dwattr DW$947, DW_AT_location[DW_OP_regx 0x24]
   13258              DW$948  .dwtag  DW_TAG_assign_register, DW_AT_name("PSEUDO")
   13259                      .dwattr DW$948, DW_AT_location[DW_OP_regx 0x25]
TMS320C2000 COFF Assembler PC v4.1.3 Thu May 05 10:06:00 2011

Tools Copyright (c) 1996-2006 Texas Instruments Incorporated
C:\DOCUME~1\ADMINI~1\LOCALS~1\Temp\TI1122                            PAGE  254

   13260              DW$949  .dwtag  DW_TAG_assign_register, DW_AT_name("PSEUDOH")
   13261                      .dwattr DW$949, DW_AT_location[DW_OP_regx 0x26]
   13262              DW$950  .dwtag  DW_TAG_assign_register, DW_AT_name("VOL")
   13263                      .dwattr DW$950, DW_AT_location[DW_OP_regx 0x27]
   13264              DW$951  .dwtag  DW_TAG_assign_register, DW_AT_name("CIE_RETA")
   13265                      .dwattr DW$951, DW_AT_location[DW_OP_regx 0x28]
   13266                      .dwendtag DW$CU
   13267              

No Assembly Errors, No Assembly Warnings
