TMS320C2000 COFF Assembler PC v4.1.3 Thu Jul 15 08:50:48 2010

Tools Copyright (c) 1996-2006 Texas Instruments Incorporated
C:\DOCUME~1\ADMINI~1\LOCALS~1\Temp\TI6202                            PAGE    1

       1              ;***************************************************************
       2              ;* TMS320C2000 C/C++ Codegen                         PC v4.1.3 *
       3              ;* Date/Time created: Thu Jul 15 08:50:47 2010                 *
       4              ;***************************************************************
       5                      .compiler_opts --mem_model:code=flat --mem_model:data=large --silicon_version=28 
       6        0002  FP      .set    XAR2
       7              
       8              DW$CU   .dwtag  DW_TAG_compile_unit
       9                      .dwattr DW$CU, DW_AT_name("uCOS_II.C")
      10                      .dwattr DW$CU, DW_AT_producer("TMS320C2000 C/C++ Codegen PC v4.1.3 Copyright (c) 1996-2006 Texas Inst
      11                      .dwattr DW$CU, DW_AT_stmt_list(0x00)
      12                      .dwattr DW$CU, DW_AT_TI_VERSION(0x01)
      13              
      14              DW$1    .dwtag  DW_TAG_subprogram, DW_AT_name("OSTaskIdleHook"), DW_AT_symbol_name("_OSTaskIdleHook")
      15                      .dwattr DW$1, DW_AT_declaration(0x01)
      16                      .dwattr DW$1, DW_AT_external(0x01)
      17              
      18              DW$2    .dwtag  DW_TAG_subprogram, DW_AT_name("OSTaskDelHook"), DW_AT_symbol_name("_OSTaskDelHook")
      19                      .dwattr DW$2, DW_AT_declaration(0x01)
      20                      .dwattr DW$2, DW_AT_external(0x01)
      21              DW$3    .dwtag  DW_TAG_formal_parameter, DW_AT_type(*DW$T$38)
      22                      .dwendtag DW$2
      23              
      24              
      25              DW$4    .dwtag  DW_TAG_subprogram, DW_AT_name("OSTimeTickHook"), DW_AT_symbol_name("_OSTimeTickHook")
      26                      .dwattr DW$4, DW_AT_declaration(0x01)
      27                      .dwattr DW$4, DW_AT_external(0x01)
      28              
      29              DW$5    .dwtag  DW_TAG_subprogram, DW_AT_name("OSTCBInitHook"), DW_AT_symbol_name("_OSTCBInitHook")
      30                      .dwattr DW$5, DW_AT_declaration(0x01)
      31                      .dwattr DW$5, DW_AT_external(0x01)
      32              DW$6    .dwtag  DW_TAG_formal_parameter, DW_AT_type(*DW$T$38)
      33                      .dwendtag DW$5
      34              
      35              
      36              DW$7    .dwtag  DW_TAG_subprogram, DW_AT_name("OSStartHighRdy"), DW_AT_symbol_name("_OSStartHighRdy")
      37                      .dwattr DW$7, DW_AT_declaration(0x01)
      38                      .dwattr DW$7, DW_AT_external(0x01)
      39              
      40              DW$8    .dwtag  DW_TAG_subprogram, DW_AT_name("OSIntCtxSw"), DW_AT_symbol_name("_OSIntCtxSw")
      41                      .dwattr DW$8, DW_AT_declaration(0x01)
      42                      .dwattr DW$8, DW_AT_external(0x01)
      43              
      44              DW$9    .dwtag  DW_TAG_subprogram, DW_AT_name("OSTaskCreateHook"), DW_AT_symbol_name("_OSTaskCreateHook")
      45                      .dwattr DW$9, DW_AT_declaration(0x01)
      46                      .dwattr DW$9, DW_AT_external(0x01)
      47              DW$10   .dwtag  DW_TAG_formal_parameter, DW_AT_type(*DW$T$38)
      48                      .dwendtag DW$9
      49              
      50              
      51              DW$11   .dwtag  DW_TAG_subprogram, DW_AT_name("OSInitHookEnd"), DW_AT_symbol_name("_OSInitHookEnd")
      52                      .dwattr DW$11, DW_AT_declaration(0x01)
      53                      .dwattr DW$11, DW_AT_external(0x01)
      54                      .global _OSPrioHighRdy
      55 00000000       _OSPrioHighRdy: .usect  ".ebss",1,1,0
TMS320C2000 COFF Assembler PC v4.1.3 Thu Jul 15 08:50:48 2010

Tools Copyright (c) 1996-2006 Texas Instruments Incorporated
C:\DOCUME~1\ADMINI~1\LOCALS~1\Temp\TI6202                            PAGE    2

      56              DW$12   .dwtag  DW_TAG_variable, DW_AT_name("OSPrioHighRdy"), DW_AT_symbol_name("_OSPrioHighRdy")
      57                      .dwattr DW$12, DW_AT_location[DW_OP_addr _OSPrioHighRdy]
      58                      .dwattr DW$12, DW_AT_type(*DW$T$19)
      59                      .dwattr DW$12, DW_AT_external(0x01)
      60                      .global _OSRdyGrp
      61 00000001       _OSRdyGrp:      .usect  ".ebss",1,1,0
      62              DW$13   .dwtag  DW_TAG_variable, DW_AT_name("OSRdyGrp"), DW_AT_symbol_name("_OSRdyGrp")
      63                      .dwattr DW$13, DW_AT_location[DW_OP_addr _OSRdyGrp]
      64                      .dwattr DW$13, DW_AT_type(*DW$T$19)
      65                      .dwattr DW$13, DW_AT_external(0x01)
      66                      .global _OSPrioCur
      67 00000002       _OSPrioCur:     .usect  ".ebss",1,1,0
      68              DW$14   .dwtag  DW_TAG_variable, DW_AT_name("OSPrioCur"), DW_AT_symbol_name("_OSPrioCur")
      69                      .dwattr DW$14, DW_AT_location[DW_OP_addr _OSPrioCur]
      70                      .dwattr DW$14, DW_AT_type(*DW$T$19)
      71                      .dwattr DW$14, DW_AT_external(0x01)
      72                      .global _OSTaskCtr
      73 00000003       _OSTaskCtr:     .usect  ".ebss",1,1,0
      74              DW$15   .dwtag  DW_TAG_variable, DW_AT_name("OSTaskCtr"), DW_AT_symbol_name("_OSTaskCtr")
      75                      .dwattr DW$15, DW_AT_location[DW_OP_addr _OSTaskCtr]
      76                      .dwattr DW$15, DW_AT_type(*DW$T$19)
      77                      .dwattr DW$15, DW_AT_external(0x01)
      78                      .global _OSLockNesting
      79 00000004       _OSLockNesting: .usect  ".ebss",1,1,0
      80              DW$16   .dwtag  DW_TAG_variable, DW_AT_name("OSLockNesting"), DW_AT_symbol_name("_OSLockNesting")
      81                      .dwattr DW$16, DW_AT_location[DW_OP_addr _OSLockNesting]
      82                      .dwattr DW$16, DW_AT_type(*DW$T$19)
      83                      .dwattr DW$16, DW_AT_external(0x01)
      84                      .global _OSRunning
      85 00000005       _OSRunning:     .usect  ".ebss",1,1,0
      86              DW$17   .dwtag  DW_TAG_variable, DW_AT_name("OSRunning"), DW_AT_symbol_name("_OSRunning")
      87                      .dwattr DW$17, DW_AT_location[DW_OP_addr _OSRunning]
      88                      .dwattr DW$17, DW_AT_type(*DW$T$73)
      89                      .dwattr DW$17, DW_AT_external(0x01)
      90                      .global _OSIntNesting
      91 00000006       _OSIntNesting:  .usect  ".ebss",1,1,0
      92              DW$18   .dwtag  DW_TAG_variable, DW_AT_name("OSIntNesting"), DW_AT_symbol_name("_OSIntNesting")
      93                      .dwattr DW$18, DW_AT_location[DW_OP_addr _OSIntNesting]
      94                      .dwattr DW$18, DW_AT_type(*DW$T$19)
      95                      .dwattr DW$18, DW_AT_external(0x01)
      96                      .global _OSTCBFreeList
      97 00000008       _OSTCBFreeList: .usect  ".ebss",2,1,1
      98              DW$19   .dwtag  DW_TAG_variable, DW_AT_name("OSTCBFreeList"), DW_AT_symbol_name("_OSTCBFreeList")
      99                      .dwattr DW$19, DW_AT_location[DW_OP_addr _OSTCBFreeList]
     100                      .dwattr DW$19, DW_AT_type(*DW$T$38)
     101                      .dwattr DW$19, DW_AT_external(0x01)
     102                      .global _OSTCBList
     103 0000000a       _OSTCBList:     .usect  ".ebss",2,1,1
     104              DW$20   .dwtag  DW_TAG_variable, DW_AT_name("OSTCBList"), DW_AT_symbol_name("_OSTCBList")
     105                      .dwattr DW$20, DW_AT_location[DW_OP_addr _OSTCBList]
     106                      .dwattr DW$20, DW_AT_type(*DW$T$38)
     107                      .dwattr DW$20, DW_AT_external(0x01)
     108                      .global _OSTCBCur
     109 0000000c       _OSTCBCur:      .usect  ".ebss",2,1,1
     110              DW$21   .dwtag  DW_TAG_variable, DW_AT_name("OSTCBCur"), DW_AT_symbol_name("_OSTCBCur")
TMS320C2000 COFF Assembler PC v4.1.3 Thu Jul 15 08:50:48 2010

Tools Copyright (c) 1996-2006 Texas Instruments Incorporated
C:\DOCUME~1\ADMINI~1\LOCALS~1\Temp\TI6202                            PAGE    3

     111                      .dwattr DW$21, DW_AT_location[DW_OP_addr _OSTCBCur]
     112                      .dwattr DW$21, DW_AT_type(*DW$T$38)
     113                      .dwattr DW$21, DW_AT_external(0x01)
     114                      .global _OSTCBHighRdy
     115 0000000e       _OSTCBHighRdy:  .usect  ".ebss",2,1,1
     116              DW$22   .dwtag  DW_TAG_variable, DW_AT_name("OSTCBHighRdy"), DW_AT_symbol_name("_OSTCBHighRdy")
     117                      .dwattr DW$22, DW_AT_location[DW_OP_addr _OSTCBHighRdy]
     118                      .dwattr DW$22, DW_AT_type(*DW$T$38)
     119                      .dwattr DW$22, DW_AT_external(0x01)
     120              
     121              DW$23   .dwtag  DW_TAG_subprogram, DW_AT_name("OSTaskStkInit"), DW_AT_symbol_name("_OSTaskStkInit")
     122                      .dwattr DW$23, DW_AT_type(*DW$T$25)
     123                      .dwattr DW$23, DW_AT_declaration(0x01)
     124                      .dwattr DW$23, DW_AT_external(0x01)
     125              DW$24   .dwtag  DW_TAG_formal_parameter, DW_AT_type(*DW$T$42)
     126              DW$25   .dwtag  DW_TAG_formal_parameter, DW_AT_type(*DW$T$3)
     127              DW$26   .dwtag  DW_TAG_formal_parameter, DW_AT_type(*DW$T$25)
     128              DW$27   .dwtag  DW_TAG_formal_parameter, DW_AT_type(*DW$T$20)
     129                      .dwendtag DW$23
     130              
     131                      .global _OSQFreeList
     132 00000010       _OSQFreeList:   .usect  ".ebss",2,1,1
     133              DW$28   .dwtag  DW_TAG_variable, DW_AT_name("OSQFreeList"), DW_AT_symbol_name("_OSQFreeList")
     134                      .dwattr DW$28, DW_AT_location[DW_OP_addr _OSQFreeList]
     135                      .dwattr DW$28, DW_AT_type(*DW$T$86)
     136                      .dwattr DW$28, DW_AT_external(0x01)
     137                      .global _OSCtxSwCtr
     138 00000012       _OSCtxSwCtr:    .usect  ".ebss",2,1,1
     139              DW$29   .dwtag  DW_TAG_variable, DW_AT_name("OSCtxSwCtr"), DW_AT_symbol_name("_OSCtxSwCtr")
     140                      .dwattr DW$29, DW_AT_location[DW_OP_addr _OSCtxSwCtr]
     141                      .dwattr DW$29, DW_AT_type(*DW$T$62)
     142                      .dwattr DW$29, DW_AT_external(0x01)
     143                      .global _OSIdleCtr
     144 00000014       _OSIdleCtr:     .usect  ".ebss",2,1,1
     145              DW$30   .dwtag  DW_TAG_variable, DW_AT_name("OSIdleCtr"), DW_AT_symbol_name("_OSIdleCtr")
     146                      .dwattr DW$30, DW_AT_location[DW_OP_addr _OSIdleCtr]
     147                      .dwattr DW$30, DW_AT_type(*DW$T$78)
     148                      .dwattr DW$30, DW_AT_external(0x01)
     149                      .global _OSEventFreeList
     150 00000016       _OSEventFreeList:       .usect  ".ebss",2,1,1
     151              DW$31   .dwtag  DW_TAG_variable, DW_AT_name("OSEventFreeList"), DW_AT_symbol_name("_OSEventFreeList")
     152                      .dwattr DW$31, DW_AT_location[DW_OP_addr _OSEventFreeList]
     153                      .dwattr DW$31, DW_AT_type(*DW$T$28)
     154                      .dwattr DW$31, DW_AT_external(0x01)
     155                      .global _OSRdyTbl
     156 00000018       _OSRdyTbl:      .usect  ".ebss",8,1,0
     157              DW$32   .dwtag  DW_TAG_variable, DW_AT_name("OSRdyTbl"), DW_AT_symbol_name("_OSRdyTbl")
     158                      .dwattr DW$32, DW_AT_location[DW_OP_addr _OSRdyTbl]
     159                      .dwattr DW$32, DW_AT_type(*DW$T$21)
     160                      .dwattr DW$32, DW_AT_external(0x01)
     161                      .global _OSQTbl
     162 00000040       _OSQTbl:        .usect  ".ebss",60,1,1
     163              DW$33   .dwtag  DW_TAG_variable, DW_AT_name("OSQTbl"), DW_AT_symbol_name("_OSQTbl")
     164                      .dwattr DW$33, DW_AT_location[DW_OP_addr _OSQTbl]
     165                      .dwattr DW$33, DW_AT_type(*DW$T$87)
TMS320C2000 COFF Assembler PC v4.1.3 Thu Jul 15 08:50:48 2010

Tools Copyright (c) 1996-2006 Texas Instruments Incorporated
C:\DOCUME~1\ADMINI~1\LOCALS~1\Temp\TI6202                            PAGE    4

     166                      .dwattr DW$33, DW_AT_external(0x01)
     167                      .global _OSTCBPrioTbl
     168 00000080       _OSTCBPrioTbl:  .usect  ".ebss",128,1,1
     169              DW$34   .dwtag  DW_TAG_variable, DW_AT_name("OSTCBPrioTbl"), DW_AT_symbol_name("_OSTCBPrioTbl")
     170                      .dwattr DW$34, DW_AT_location[DW_OP_addr _OSTCBPrioTbl]
     171                      .dwattr DW$34, DW_AT_type(*DW$T$82)
     172                      .dwattr DW$34, DW_AT_external(0x01)
     173              DW$35   .dwtag  DW_TAG_variable, DW_AT_name("OSTaskIdleStk"), DW_AT_symbol_name("_OSTaskIdleStk")
     174                      .dwattr DW$35, DW_AT_type(*DW$T$76)
     175                      .dwattr DW$35, DW_AT_declaration(0x01)
     176                      .dwattr DW$35, DW_AT_external(0x01)
     177                      .global _OSUnMapTbl
     178 00000000               .sect   ".econst"
     179                      .align  1
     180 00000000       _OSUnMapTbl:
     181 00000000 0000          .field          0,16                    ; _OSUnMapTbl[0] @ 0
     182 00000001 0000          .field          0,16                    ; _OSUnMapTbl[1] @ 16
     183 00000002 0001          .field          1,16                    ; _OSUnMapTbl[2] @ 32
     184 00000003 0000          .field          0,16                    ; _OSUnMapTbl[3] @ 48
     185 00000004 0002          .field          2,16                    ; _OSUnMapTbl[4] @ 64
     186 00000005 0000          .field          0,16                    ; _OSUnMapTbl[5] @ 80
     187 00000006 0001          .field          1,16                    ; _OSUnMapTbl[6] @ 96
     188 00000007 0000          .field          0,16                    ; _OSUnMapTbl[7] @ 112
     189 00000008 0003          .field          3,16                    ; _OSUnMapTbl[8] @ 128
     190 00000009 0000          .field          0,16                    ; _OSUnMapTbl[9] @ 144
     191 0000000a 0001          .field          1,16                    ; _OSUnMapTbl[10] @ 160
     192 0000000b 0000          .field          0,16                    ; _OSUnMapTbl[11] @ 176
     193 0000000c 0002          .field          2,16                    ; _OSUnMapTbl[12] @ 192
     194 0000000d 0000          .field          0,16                    ; _OSUnMapTbl[13] @ 208
     195 0000000e 0001          .field          1,16                    ; _OSUnMapTbl[14] @ 224
     196 0000000f 0000          .field          0,16                    ; _OSUnMapTbl[15] @ 240
     197 00000010 0004          .field          4,16                    ; _OSUnMapTbl[16] @ 256
     198 00000011 0000          .field          0,16                    ; _OSUnMapTbl[17] @ 272
     199 00000012 0001          .field          1,16                    ; _OSUnMapTbl[18] @ 288
     200 00000013 0000          .field          0,16                    ; _OSUnMapTbl[19] @ 304
     201 00000014 0002          .field          2,16                    ; _OSUnMapTbl[20] @ 320
     202 00000015 0000          .field          0,16                    ; _OSUnMapTbl[21] @ 336
     203 00000016 0001          .field          1,16                    ; _OSUnMapTbl[22] @ 352
     204 00000017 0000          .field          0,16                    ; _OSUnMapTbl[23] @ 368
     205 00000018 0003          .field          3,16                    ; _OSUnMapTbl[24] @ 384
     206 00000019 0000          .field          0,16                    ; _OSUnMapTbl[25] @ 400
     207 0000001a 0001          .field          1,16                    ; _OSUnMapTbl[26] @ 416
     208 0000001b 0000          .field          0,16                    ; _OSUnMapTbl[27] @ 432
     209 0000001c 0002          .field          2,16                    ; _OSUnMapTbl[28] @ 448
     210 0000001d 0000          .field          0,16                    ; _OSUnMapTbl[29] @ 464
     211 0000001e 0001          .field          1,16                    ; _OSUnMapTbl[30] @ 480
     212 0000001f 0000          .field          0,16                    ; _OSUnMapTbl[31] @ 496
     213 00000020 0005          .field          5,16                    ; _OSUnMapTbl[32] @ 512
     214 00000021 0000          .field          0,16                    ; _OSUnMapTbl[33] @ 528
     215 00000022 0001          .field          1,16                    ; _OSUnMapTbl[34] @ 544
     216 00000023 0000          .field          0,16                    ; _OSUnMapTbl[35] @ 560
     217 00000024 0002          .field          2,16                    ; _OSUnMapTbl[36] @ 576
     218 00000025 0000          .field          0,16                    ; _OSUnMapTbl[37] @ 592
     219 00000026 0001          .field          1,16                    ; _OSUnMapTbl[38] @ 608
     220 00000027 0000          .field          0,16                    ; _OSUnMapTbl[39] @ 624
TMS320C2000 COFF Assembler PC v4.1.3 Thu Jul 15 08:50:48 2010

Tools Copyright (c) 1996-2006 Texas Instruments Incorporated
C:\DOCUME~1\ADMINI~1\LOCALS~1\Temp\TI6202                            PAGE    5

     221 00000028 0003          .field          3,16                    ; _OSUnMapTbl[40] @ 640
     222 00000029 0000          .field          0,16                    ; _OSUnMapTbl[41] @ 656
     223 0000002a 0001          .field          1,16                    ; _OSUnMapTbl[42] @ 672
     224 0000002b 0000          .field          0,16                    ; _OSUnMapTbl[43] @ 688
     225 0000002c 0002          .field          2,16                    ; _OSUnMapTbl[44] @ 704
     226 0000002d 0000          .field          0,16                    ; _OSUnMapTbl[45] @ 720
     227 0000002e 0001          .field          1,16                    ; _OSUnMapTbl[46] @ 736
     228 0000002f 0000          .field          0,16                    ; _OSUnMapTbl[47] @ 752
     229 00000030 0004          .field          4,16                    ; _OSUnMapTbl[48] @ 768
     230 00000031 0000          .field          0,16                    ; _OSUnMapTbl[49] @ 784
     231 00000032 0001          .field          1,16                    ; _OSUnMapTbl[50] @ 800
     232 00000033 0000          .field          0,16                    ; _OSUnMapTbl[51] @ 816
     233 00000034 0002          .field          2,16                    ; _OSUnMapTbl[52] @ 832
     234 00000035 0000          .field          0,16                    ; _OSUnMapTbl[53] @ 848
     235 00000036 0001          .field          1,16                    ; _OSUnMapTbl[54] @ 864
     236 00000037 0000          .field          0,16                    ; _OSUnMapTbl[55] @ 880
     237 00000038 0003          .field          3,16                    ; _OSUnMapTbl[56] @ 896
     238 00000039 0000          .field          0,16                    ; _OSUnMapTbl[57] @ 912
     239 0000003a 0001          .field          1,16                    ; _OSUnMapTbl[58] @ 928
     240 0000003b 0000          .field          0,16                    ; _OSUnMapTbl[59] @ 944
     241 0000003c 0002          .field          2,16                    ; _OSUnMapTbl[60] @ 960
     242 0000003d 0000          .field          0,16                    ; _OSUnMapTbl[61] @ 976
     243 0000003e 0001          .field          1,16                    ; _OSUnMapTbl[62] @ 992
     244 0000003f 0000          .field          0,16                    ; _OSUnMapTbl[63] @ 1008
     245 00000040 0006          .field          6,16                    ; _OSUnMapTbl[64] @ 1024
     246 00000041 0000          .field          0,16                    ; _OSUnMapTbl[65] @ 1040
     247 00000042 0001          .field          1,16                    ; _OSUnMapTbl[66] @ 1056
     248 00000043 0000          .field          0,16                    ; _OSUnMapTbl[67] @ 1072
     249 00000044 0002          .field          2,16                    ; _OSUnMapTbl[68] @ 1088
     250 00000045 0000          .field          0,16                    ; _OSUnMapTbl[69] @ 1104
     251 00000046 0001          .field          1,16                    ; _OSUnMapTbl[70] @ 1120
     252 00000047 0000          .field          0,16                    ; _OSUnMapTbl[71] @ 1136
     253 00000048 0003          .field          3,16                    ; _OSUnMapTbl[72] @ 1152
     254 00000049 0000          .field          0,16                    ; _OSUnMapTbl[73] @ 1168
     255 0000004a 0001          .field          1,16                    ; _OSUnMapTbl[74] @ 1184
     256 0000004b 0000          .field          0,16                    ; _OSUnMapTbl[75] @ 1200
     257 0000004c 0002          .field          2,16                    ; _OSUnMapTbl[76] @ 1216
     258 0000004d 0000          .field          0,16                    ; _OSUnMapTbl[77] @ 1232
     259 0000004e 0001          .field          1,16                    ; _OSUnMapTbl[78] @ 1248
     260 0000004f 0000          .field          0,16                    ; _OSUnMapTbl[79] @ 1264
     261 00000050 0004          .field          4,16                    ; _OSUnMapTbl[80] @ 1280
     262 00000051 0000          .field          0,16                    ; _OSUnMapTbl[81] @ 1296
     263 00000052 0001          .field          1,16                    ; _OSUnMapTbl[82] @ 1312
     264 00000053 0000          .field          0,16                    ; _OSUnMapTbl[83] @ 1328
     265 00000054 0002          .field          2,16                    ; _OSUnMapTbl[84] @ 1344
     266 00000055 0000          .field          0,16                    ; _OSUnMapTbl[85] @ 1360
     267 00000056 0001          .field          1,16                    ; _OSUnMapTbl[86] @ 1376
     268 00000057 0000          .field          0,16                    ; _OSUnMapTbl[87] @ 1392
     269 00000058 0003          .field          3,16                    ; _OSUnMapTbl[88] @ 1408
     270 00000059 0000          .field          0,16                    ; _OSUnMapTbl[89] @ 1424
     271 0000005a 0001          .field          1,16                    ; _OSUnMapTbl[90] @ 1440
     272 0000005b 0000          .field          0,16                    ; _OSUnMapTbl[91] @ 1456
     273 0000005c 0002          .field          2,16                    ; _OSUnMapTbl[92] @ 1472
     274 0000005d 0000          .field          0,16                    ; _OSUnMapTbl[93] @ 1488
     275 0000005e 0001          .field          1,16                    ; _OSUnMapTbl[94] @ 1504
TMS320C2000 COFF Assembler PC v4.1.3 Thu Jul 15 08:50:48 2010

Tools Copyright (c) 1996-2006 Texas Instruments Incorporated
C:\DOCUME~1\ADMINI~1\LOCALS~1\Temp\TI6202                            PAGE    6

     276 0000005f 0000          .field          0,16                    ; _OSUnMapTbl[95] @ 1520
     277 00000060 0005          .field          5,16                    ; _OSUnMapTbl[96] @ 1536
     278 00000061 0000          .field          0,16                    ; _OSUnMapTbl[97] @ 1552
     279 00000062 0001          .field          1,16                    ; _OSUnMapTbl[98] @ 1568
     280 00000063 0000          .field          0,16                    ; _OSUnMapTbl[99] @ 1584
     281 00000064 0002          .field          2,16                    ; _OSUnMapTbl[100] @ 1600
     282 00000065 0000          .field          0,16                    ; _OSUnMapTbl[101] @ 1616
     283 00000066 0001          .field          1,16                    ; _OSUnMapTbl[102] @ 1632
     284 00000067 0000          .field          0,16                    ; _OSUnMapTbl[103] @ 1648
     285 00000068 0003          .field          3,16                    ; _OSUnMapTbl[104] @ 1664
     286 00000069 0000          .field          0,16                    ; _OSUnMapTbl[105] @ 1680
     287 0000006a 0001          .field          1,16                    ; _OSUnMapTbl[106] @ 1696
     288 0000006b 0000          .field          0,16                    ; _OSUnMapTbl[107] @ 1712
     289 0000006c 0002          .field          2,16                    ; _OSUnMapTbl[108] @ 1728
     290 0000006d 0000          .field          0,16                    ; _OSUnMapTbl[109] @ 1744
     291 0000006e 0001          .field          1,16                    ; _OSUnMapTbl[110] @ 1760
     292 0000006f 0000          .field          0,16                    ; _OSUnMapTbl[111] @ 1776
     293 00000070 0004          .field          4,16                    ; _OSUnMapTbl[112] @ 1792
     294 00000071 0000          .field          0,16                    ; _OSUnMapTbl[113] @ 1808
     295 00000072 0001          .field          1,16                    ; _OSUnMapTbl[114] @ 1824
     296 00000073 0000          .field          0,16                    ; _OSUnMapTbl[115] @ 1840
     297 00000074 0002          .field          2,16                    ; _OSUnMapTbl[116] @ 1856
     298 00000075 0000          .field          0,16                    ; _OSUnMapTbl[117] @ 1872
     299 00000076 0001          .field          1,16                    ; _OSUnMapTbl[118] @ 1888
     300 00000077 0000          .field          0,16                    ; _OSUnMapTbl[119] @ 1904
     301 00000078 0003          .field          3,16                    ; _OSUnMapTbl[120] @ 1920
     302 00000079 0000          .field          0,16                    ; _OSUnMapTbl[121] @ 1936
     303 0000007a 0001          .field          1,16                    ; _OSUnMapTbl[122] @ 1952
     304 0000007b 0000          .field          0,16                    ; _OSUnMapTbl[123] @ 1968
     305 0000007c 0002          .field          2,16                    ; _OSUnMapTbl[124] @ 1984
     306 0000007d 0000          .field          0,16                    ; _OSUnMapTbl[125] @ 2000
     307 0000007e 0001          .field          1,16                    ; _OSUnMapTbl[126] @ 2016
     308 0000007f 0000          .field          0,16                    ; _OSUnMapTbl[127] @ 2032
     309 00000080 0007          .field          7,16                    ; _OSUnMapTbl[128] @ 2048
     310 00000081 0000          .field          0,16                    ; _OSUnMapTbl[129] @ 2064
     311 00000082 0001          .field          1,16                    ; _OSUnMapTbl[130] @ 2080
     312 00000083 0000          .field          0,16                    ; _OSUnMapTbl[131] @ 2096
     313 00000084 0002          .field          2,16                    ; _OSUnMapTbl[132] @ 2112
     314 00000085 0000          .field          0,16                    ; _OSUnMapTbl[133] @ 2128
     315 00000086 0001          .field          1,16                    ; _OSUnMapTbl[134] @ 2144
     316 00000087 0000          .field          0,16                    ; _OSUnMapTbl[135] @ 2160
     317 00000088 0003          .field          3,16                    ; _OSUnMapTbl[136] @ 2176
     318 00000089 0000          .field          0,16                    ; _OSUnMapTbl[137] @ 2192
     319 0000008a 0001          .field          1,16                    ; _OSUnMapTbl[138] @ 2208
     320 0000008b 0000          .field          0,16                    ; _OSUnMapTbl[139] @ 2224
     321 0000008c 0002          .field          2,16                    ; _OSUnMapTbl[140] @ 2240
     322 0000008d 0000          .field          0,16                    ; _OSUnMapTbl[141] @ 2256
     323 0000008e 0001          .field          1,16                    ; _OSUnMapTbl[142] @ 2272
     324 0000008f 0000          .field          0,16                    ; _OSUnMapTbl[143] @ 2288
     325 00000090 0004          .field          4,16                    ; _OSUnMapTbl[144] @ 2304
     326 00000091 0000          .field          0,16                    ; _OSUnMapTbl[145] @ 2320
     327 00000092 0001          .field          1,16                    ; _OSUnMapTbl[146] @ 2336
     328 00000093 0000          .field          0,16                    ; _OSUnMapTbl[147] @ 2352
     329 00000094 0002          .field          2,16                    ; _OSUnMapTbl[148] @ 2368
     330 00000095 0000          .field          0,16                    ; _OSUnMapTbl[149] @ 2384
TMS320C2000 COFF Assembler PC v4.1.3 Thu Jul 15 08:50:48 2010

Tools Copyright (c) 1996-2006 Texas Instruments Incorporated
C:\DOCUME~1\ADMINI~1\LOCALS~1\Temp\TI6202                            PAGE    7

     331 00000096 0001          .field          1,16                    ; _OSUnMapTbl[150] @ 2400
     332 00000097 0000          .field          0,16                    ; _OSUnMapTbl[151] @ 2416
     333 00000098 0003          .field          3,16                    ; _OSUnMapTbl[152] @ 2432
     334 00000099 0000          .field          0,16                    ; _OSUnMapTbl[153] @ 2448
     335 0000009a 0001          .field          1,16                    ; _OSUnMapTbl[154] @ 2464
     336 0000009b 0000          .field          0,16                    ; _OSUnMapTbl[155] @ 2480
     337 0000009c 0002          .field          2,16                    ; _OSUnMapTbl[156] @ 2496
     338 0000009d 0000          .field          0,16                    ; _OSUnMapTbl[157] @ 2512
     339 0000009e 0001          .field          1,16                    ; _OSUnMapTbl[158] @ 2528
     340 0000009f 0000          .field          0,16                    ; _OSUnMapTbl[159] @ 2544
     341 000000a0 0005          .field          5,16                    ; _OSUnMapTbl[160] @ 2560
     342 000000a1 0000          .field          0,16                    ; _OSUnMapTbl[161] @ 2576
     343 000000a2 0001          .field          1,16                    ; _OSUnMapTbl[162] @ 2592
     344 000000a3 0000          .field          0,16                    ; _OSUnMapTbl[163] @ 2608
     345 000000a4 0002          .field          2,16                    ; _OSUnMapTbl[164] @ 2624
     346 000000a5 0000          .field          0,16                    ; _OSUnMapTbl[165] @ 2640
     347 000000a6 0001          .field          1,16                    ; _OSUnMapTbl[166] @ 2656
     348 000000a7 0000          .field          0,16                    ; _OSUnMapTbl[167] @ 2672
     349 000000a8 0003          .field          3,16                    ; _OSUnMapTbl[168] @ 2688
     350 000000a9 0000          .field          0,16                    ; _OSUnMapTbl[169] @ 2704
     351 000000aa 0001          .field          1,16                    ; _OSUnMapTbl[170] @ 2720
     352 000000ab 0000          .field          0,16                    ; _OSUnMapTbl[171] @ 2736
     353 000000ac 0002          .field          2,16                    ; _OSUnMapTbl[172] @ 2752
     354 000000ad 0000          .field          0,16                    ; _OSUnMapTbl[173] @ 2768
     355 000000ae 0001          .field          1,16                    ; _OSUnMapTbl[174] @ 2784
     356 000000af 0000          .field          0,16                    ; _OSUnMapTbl[175] @ 2800
     357 000000b0 0004          .field          4,16                    ; _OSUnMapTbl[176] @ 2816
     358 000000b1 0000          .field          0,16                    ; _OSUnMapTbl[177] @ 2832
     359 000000b2 0001          .field          1,16                    ; _OSUnMapTbl[178] @ 2848
     360 000000b3 0000          .field          0,16                    ; _OSUnMapTbl[179] @ 2864
     361 000000b4 0002          .field          2,16                    ; _OSUnMapTbl[180] @ 2880
     362 000000b5 0000          .field          0,16                    ; _OSUnMapTbl[181] @ 2896
     363 000000b6 0001          .field          1,16                    ; _OSUnMapTbl[182] @ 2912
     364 000000b7 0000          .field          0,16                    ; _OSUnMapTbl[183] @ 2928
     365 000000b8 0003          .field          3,16                    ; _OSUnMapTbl[184] @ 2944
     366 000000b9 0000          .field          0,16                    ; _OSUnMapTbl[185] @ 2960
     367 000000ba 0001          .field          1,16                    ; _OSUnMapTbl[186] @ 2976
     368 000000bb 0000          .field          0,16                    ; _OSUnMapTbl[187] @ 2992
     369 000000bc 0002          .field          2,16                    ; _OSUnMapTbl[188] @ 3008
     370 000000bd 0000          .field          0,16                    ; _OSUnMapTbl[189] @ 3024
     371 000000be 0001          .field          1,16                    ; _OSUnMapTbl[190] @ 3040
     372 000000bf 0000          .field          0,16                    ; _OSUnMapTbl[191] @ 3056
     373 000000c0 0006          .field          6,16                    ; _OSUnMapTbl[192] @ 3072
     374 000000c1 0000          .field          0,16                    ; _OSUnMapTbl[193] @ 3088
     375 000000c2 0001          .field          1,16                    ; _OSUnMapTbl[194] @ 3104
     376 000000c3 0000          .field          0,16                    ; _OSUnMapTbl[195] @ 3120
     377 000000c4 0002          .field          2,16                    ; _OSUnMapTbl[196] @ 3136
     378 000000c5 0000          .field          0,16                    ; _OSUnMapTbl[197] @ 3152
     379 000000c6 0001          .field          1,16                    ; _OSUnMapTbl[198] @ 3168
     380 000000c7 0000          .field          0,16                    ; _OSUnMapTbl[199] @ 3184
     381 000000c8 0003          .field          3,16                    ; _OSUnMapTbl[200] @ 3200
     382 000000c9 0000          .field          0,16                    ; _OSUnMapTbl[201] @ 3216
     383 000000ca 0001          .field          1,16                    ; _OSUnMapTbl[202] @ 3232
     384 000000cb 0000          .field          0,16                    ; _OSUnMapTbl[203] @ 3248
     385 000000cc 0002          .field          2,16                    ; _OSUnMapTbl[204] @ 3264
TMS320C2000 COFF Assembler PC v4.1.3 Thu Jul 15 08:50:48 2010

Tools Copyright (c) 1996-2006 Texas Instruments Incorporated
C:\DOCUME~1\ADMINI~1\LOCALS~1\Temp\TI6202                            PAGE    8

     386 000000cd 0000          .field          0,16                    ; _OSUnMapTbl[205] @ 3280
     387 000000ce 0001          .field          1,16                    ; _OSUnMapTbl[206] @ 3296
     388 000000cf 0000          .field          0,16                    ; _OSUnMapTbl[207] @ 3312
     389 000000d0 0004          .field          4,16                    ; _OSUnMapTbl[208] @ 3328
     390 000000d1 0000          .field          0,16                    ; _OSUnMapTbl[209] @ 3344
     391 000000d2 0001          .field          1,16                    ; _OSUnMapTbl[210] @ 3360
     392 000000d3 0000          .field          0,16                    ; _OSUnMapTbl[211] @ 3376
     393 000000d4 0002          .field          2,16                    ; _OSUnMapTbl[212] @ 3392
     394 000000d5 0000          .field          0,16                    ; _OSUnMapTbl[213] @ 3408
     395 000000d6 0001          .field          1,16                    ; _OSUnMapTbl[214] @ 3424
     396 000000d7 0000          .field          0,16                    ; _OSUnMapTbl[215] @ 3440
     397 000000d8 0003          .field          3,16                    ; _OSUnMapTbl[216] @ 3456
     398 000000d9 0000          .field          0,16                    ; _OSUnMapTbl[217] @ 3472
     399 000000da 0001          .field          1,16                    ; _OSUnMapTbl[218] @ 3488
     400 000000db 0000          .field          0,16                    ; _OSUnMapTbl[219] @ 3504
     401 000000dc 0002          .field          2,16                    ; _OSUnMapTbl[220] @ 3520
     402 000000dd 0000          .field          0,16                    ; _OSUnMapTbl[221] @ 3536
     403 000000de 0001          .field          1,16                    ; _OSUnMapTbl[222] @ 3552
     404 000000df 0000          .field          0,16                    ; _OSUnMapTbl[223] @ 3568
     405 000000e0 0005          .field          5,16                    ; _OSUnMapTbl[224] @ 3584
     406 000000e1 0000          .field          0,16                    ; _OSUnMapTbl[225] @ 3600
     407 000000e2 0001          .field          1,16                    ; _OSUnMapTbl[226] @ 3616
     408 000000e3 0000          .field          0,16                    ; _OSUnMapTbl[227] @ 3632
     409 000000e4 0002          .field          2,16                    ; _OSUnMapTbl[228] @ 3648
     410 000000e5 0000          .field          0,16                    ; _OSUnMapTbl[229] @ 3664
     411 000000e6 0001          .field          1,16                    ; _OSUnMapTbl[230] @ 3680
     412 000000e7 0000          .field          0,16                    ; _OSUnMapTbl[231] @ 3696
     413 000000e8 0003          .field          3,16                    ; _OSUnMapTbl[232] @ 3712
     414 000000e9 0000          .field          0,16                    ; _OSUnMapTbl[233] @ 3728
     415 000000ea 0001          .field          1,16                    ; _OSUnMapTbl[234] @ 3744
     416 000000eb 0000          .field          0,16                    ; _OSUnMapTbl[235] @ 3760
     417 000000ec 0002          .field          2,16                    ; _OSUnMapTbl[236] @ 3776
     418 000000ed 0000          .field          0,16                    ; _OSUnMapTbl[237] @ 3792
     419 000000ee 0001          .field          1,16                    ; _OSUnMapTbl[238] @ 3808
     420 000000ef 0000          .field          0,16                    ; _OSUnMapTbl[239] @ 3824
     421 000000f0 0004          .field          4,16                    ; _OSUnMapTbl[240] @ 3840
     422 000000f1 0000          .field          0,16                    ; _OSUnMapTbl[241] @ 3856
     423 000000f2 0001          .field          1,16                    ; _OSUnMapTbl[242] @ 3872
     424 000000f3 0000          .field          0,16                    ; _OSUnMapTbl[243] @ 3888
     425 000000f4 0002          .field          2,16                    ; _OSUnMapTbl[244] @ 3904
     426 000000f5 0000          .field          0,16                    ; _OSUnMapTbl[245] @ 3920
     427 000000f6 0001          .field          1,16                    ; _OSUnMapTbl[246] @ 3936
     428 000000f7 0000          .field          0,16                    ; _OSUnMapTbl[247] @ 3952
     429 000000f8 0003          .field          3,16                    ; _OSUnMapTbl[248] @ 3968
     430 000000f9 0000          .field          0,16                    ; _OSUnMapTbl[249] @ 3984
     431 000000fa 0001          .field          1,16                    ; _OSUnMapTbl[250] @ 4000
     432 000000fb 0000          .field          0,16                    ; _OSUnMapTbl[251] @ 4016
     433 000000fc 0002          .field          2,16                    ; _OSUnMapTbl[252] @ 4032
     434 000000fd 0000          .field          0,16                    ; _OSUnMapTbl[253] @ 4048
     435 000000fe 0001          .field          1,16                    ; _OSUnMapTbl[254] @ 4064
     436 000000ff 0000          .field          0,16                    ; _OSUnMapTbl[255] @ 4080
     437              
     438              DW$36   .dwtag  DW_TAG_variable, DW_AT_name("OSUnMapTbl"), DW_AT_symbol_name("_OSUnMapTbl")
     439                      .dwattr DW$36, DW_AT_location[DW_OP_addr _OSUnMapTbl]
     440                      .dwattr DW$36, DW_AT_type(*DW$T$71)
TMS320C2000 COFF Assembler PC v4.1.3 Thu Jul 15 08:50:48 2010

Tools Copyright (c) 1996-2006 Texas Instruments Incorporated
C:\DOCUME~1\ADMINI~1\LOCALS~1\Temp\TI6202                            PAGE    9

     441                      .dwattr DW$36, DW_AT_external(0x01)
     442                      .global _OSTCBTbl
     443 00000100       _OSTCBTbl:      .usect  ".ebss",420,1,1
     444              DW$37   .dwtag  DW_TAG_variable, DW_AT_name("OSTCBTbl"), DW_AT_symbol_name("_OSTCBTbl")
     445                      .dwattr DW$37, DW_AT_location[DW_OP_addr _OSTCBTbl]
     446                      .dwattr DW$37, DW_AT_type(*DW$T$84)
     447                      .dwattr DW$37, DW_AT_external(0x01)
     448                      .global _OSEventTbl
     449 000002c0       _OSEventTbl:    .usect  ".ebss",600,1,1
     450              DW$38   .dwtag  DW_TAG_variable, DW_AT_name("OSEventTbl"), DW_AT_symbol_name("_OSEventTbl")
     451                      .dwattr DW$38, DW_AT_location[DW_OP_addr _OSEventTbl]
     452                      .dwattr DW$38, DW_AT_type(*DW$T$81)
     453                      .dwattr DW$38, DW_AT_external(0x01)
     454              ;       C:\CCStudio_v3.3\C2000\cgtools\bin\ac2000.exe -@C:\DOCUME~1\ADMINI~1\LOCALS~1\Temp\TI6204 
     455 00000000               .sect   ".text"
     456                      .global _OSEventNameGet
     457              
     458              DW$39   .dwtag  DW_TAG_subprogram, DW_AT_name("OSEventNameGet"), DW_AT_symbol_name("_OSEventNameGet")
     459                      .dwattr DW$39, DW_AT_low_pc(_OSEventNameGet)
     460                      .dwattr DW$39, DW_AT_high_pc(0x00)
     461                      .dwattr DW$39, DW_AT_begin_file("./os_core.c")
     462                      .dwattr DW$39, DW_AT_begin_line(0x6f)
     463                      .dwattr DW$39, DW_AT_begin_column(0x08)
     464                      .dwpsn  "./os_core.c",112,1
     465              
     466                      .dwfde DW$CIE
     467              
     468              ;***************************************************************
     469              ;* FNAME: _OSEventNameGet               FR SIZE:   6           *
     470              ;*                                                             *
     471              ;* FUNCTION ENVIRONMENT                                        *
     472              ;*                                                             *
     473              ;* FUNCTION PROPERTIES                                         *
     474              ;*                            0 Parameter,  5 Auto,  0 SOE     *
     475              ;***************************************************************
     476              
     477              _OSEventNameGet:
     478                      .dwcfa  0x1d, -2
     479                      .dwcfa  0x1c, 26, 0
     480                      .dwcfa  0x09, 40, 26
     481 00000000 FE06          ADDB      SP,#6
     482                      .dwcfa  0x1d, -8
     483              ;* AR4   assigned to _pevent
     484              DW$40   .dwtag  DW_TAG_formal_parameter, DW_AT_name("pevent"), DW_AT_symbol_name("_pevent")
     485                      .dwattr DW$40, DW_AT_type(*DW$T$28)
     486                      .dwattr DW$40, DW_AT_location[DW_OP_reg12]
     487              ;* AR5   assigned to _pname
     488              DW$41   .dwtag  DW_TAG_formal_parameter, DW_AT_name("pname"), DW_AT_symbol_name("_pname")
     489                      .dwattr DW$41, DW_AT_type(*DW$T$33)
     490                      .dwattr DW$41, DW_AT_location[DW_OP_reg14]
     491              DW$42   .dwtag  DW_TAG_formal_parameter, DW_AT_name("perr"), DW_AT_symbol_name("_perr")
     492                      .dwattr DW$42, DW_AT_type(*DW$T$33)
     493                      .dwattr DW$42, DW_AT_location[DW_OP_breg20 -10]
     494              DW$43   .dwtag  DW_TAG_variable, DW_AT_name("pevent"), DW_AT_symbol_name("_pevent")
     495                      .dwattr DW$43, DW_AT_type(*DW$T$28)
TMS320C2000 COFF Assembler PC v4.1.3 Thu Jul 15 08:50:48 2010

Tools Copyright (c) 1996-2006 Texas Instruments Incorporated
C:\DOCUME~1\ADMINI~1\LOCALS~1\Temp\TI6202                            PAGE   10

     496                      .dwattr DW$43, DW_AT_location[DW_OP_breg20 -2]
     497              DW$44   .dwtag  DW_TAG_variable, DW_AT_name("pname"), DW_AT_symbol_name("_pname")
     498                      .dwattr DW$44, DW_AT_type(*DW$T$33)
     499                      .dwattr DW$44, DW_AT_location[DW_OP_breg20 -4]
     500              DW$45   .dwtag  DW_TAG_variable, DW_AT_name("len"), DW_AT_symbol_name("_len")
     501                      .dwattr DW$45, DW_AT_type(*DW$T$19)
     502                      .dwattr DW$45, DW_AT_location[DW_OP_breg20 -5]
     503 00000001 A044          MOVL      *-SP[4],XAR5          ; |112| 
     504 00000002 A842          MOVL      *-SP[2],XAR4          ; |112| 
     505                      .dwpsn  "./os_core.c",136,2
     506 00000003 761F-         MOVW      DP,#_OSIntNesting
         00000004 0000 
     507 00000005 9206-         MOV       AL,@_OSIntNesting     ; |136| 
     508 00000006 EC0B          BF        L2,EQ                 ; |136| 
     509                      ; branchcc occurs ; |136| 
     510                      .dwpsn  "./os_core.c",138,3
     511 00000007 8A4A          MOVL      XAR4,*-SP[10]         ; |138| 
     512 00000008 28C4          MOV       *+XAR4[0],#17         ; |138| 
         00000009 0011 
     513                      .dwpsn  "./os_core.c",139,3
     514 0000000a 9A00          MOVB      AL,#0
     515 0000000b 6F17          B         L3,UNC                ; |139| 
     516                      ; branch occurs ; |139| 
     517              L1:    
     518                      .dwpsn  "./os_core.c",150,3
     519 0000000c 8A4A          MOVL      XAR4,*-SP[10]         ; |150| 
     520 0000000d 28C4          MOV       *+XAR4[0],#1          ; |150| 
         0000000e 0001 
     521                      .dwpsn  "./os_core.c",151,3
     522 0000000f 9A00          MOVB      AL,#0
     523 00000010 6F12          B         L3,UNC                ; |151| 
     524                      ; branch occurs ; |151| 
     525              L2:    
     526                      .dwpsn  "./os_core.c",141,2
     527 00000011 8A42          MOVL      XAR4,*-SP[2]          ; |141| 
     528 00000012 92C4          MOV       AL,*+XAR4[0]          ; |141| 
     529 00000013 9CFF          ADDB      AL,#-1
     530 00000014 5203          CMPB      AL,#3                 ; |141| 
     531 00000015 66F7          B         L1,HI                 ; |141| 
     532                      ; branchcc occurs ; |141| 
     533                      .dwpsn  "./os_core.c",153,2
     534 00000016 3B10   setc INTM
     535                      .dwpsn  "./os_core.c",154,2
     536 00000017 8342          MOVL      XAR5,*-SP[2]          ; |154| 
     537 00000018 8A44          MOVL      XAR4,*-SP[4]          ; |154| 
     538 00000019 FF69          SPM       #0
     539 0000001a DD0E          ADDB      XAR5,#14              ; |154| 
     540 0000001b 7640'         LCR       #_OS_StrCopy          ; |154| 
         0000001c 0290 
     541                      ; call occurs [#_OS_StrCopy] ; |154| 
     542 0000001d 9645          MOV       *-SP[5],AL            ; |154| 
     543                      .dwpsn  "./os_core.c",155,2
     544 0000001e 2910   clrc INTM
     545                      .dwpsn  "./os_core.c",156,2
     546 0000001f 8A4A          MOVL      XAR4,*-SP[10]         ; |156| 
TMS320C2000 COFF Assembler PC v4.1.3 Thu Jul 15 08:50:48 2010

Tools Copyright (c) 1996-2006 Texas Instruments Incorporated
C:\DOCUME~1\ADMINI~1\LOCALS~1\Temp\TI6202                            PAGE   11

     547 00000020 2BC4          MOV       *+XAR4[0],#0          ; |156| 
     548                      .dwpsn  "./os_core.c",157,2
     549 00000021 9245          MOV       AL,*-SP[5]            ; |157| 
     550              L3:    
     551                      .dwpsn  "./os_core.c",158,1
     552 00000022 FE86          SUBB      SP,#6                 ; |157| 
     553                      .dwcfa  0x1d, -2
     554 00000023 FF69          SPM       #0
     555 00000024 0006          LRETR
     556                      ; return occurs
     557                      .dwattr DW$39, DW_AT_end_file("./os_core.c")
     558                      .dwattr DW$39, DW_AT_end_line(0x9e)
     559                      .dwattr DW$39, DW_AT_end_column(0x01)
     560                      .dwendentry
     561                      .dwendtag DW$39
     562              
     563 00000025               .sect   ".text"
     564                      .global _OSEventNameSet
     565              
     566              DW$46   .dwtag  DW_TAG_subprogram, DW_AT_name("OSEventNameSet"), DW_AT_symbol_name("_OSEventNameSet")
     567                      .dwattr DW$46, DW_AT_low_pc(_OSEventNameSet)
     568                      .dwattr DW$46, DW_AT_high_pc(0x00)
     569                      .dwattr DW$46, DW_AT_begin_file("./os_core.c")
     570                      .dwattr DW$46, DW_AT_begin_line(0xbe)
     571                      .dwattr DW$46, DW_AT_begin_column(0x07)
     572                      .dwpsn  "./os_core.c",191,1
     573              
     574                      .dwfde DW$CIE
     575              
     576              ;***************************************************************
     577              ;* FNAME: _OSEventNameSet               FR SIZE:   6           *
     578              ;*                                                             *
     579              ;* FUNCTION ENVIRONMENT                                        *
     580              ;*                                                             *
     581              ;* FUNCTION PROPERTIES                                         *
     582              ;*                            0 Parameter,  5 Auto,  0 SOE     *
     583              ;***************************************************************
     584              
     585              _OSEventNameSet:
     586                      .dwcfa  0x1d, -2
     587                      .dwcfa  0x1c, 26, 0
     588                      .dwcfa  0x09, 40, 26
     589 00000025 FE06          ADDB      SP,#6
     590                      .dwcfa  0x1d, -8
     591              ;* AR4   assigned to _pevent
     592              DW$47   .dwtag  DW_TAG_formal_parameter, DW_AT_name("pevent"), DW_AT_symbol_name("_pevent")
     593                      .dwattr DW$47, DW_AT_type(*DW$T$28)
     594                      .dwattr DW$47, DW_AT_location[DW_OP_reg12]
     595              ;* AR5   assigned to _pname
     596              DW$48   .dwtag  DW_TAG_formal_parameter, DW_AT_name("pname"), DW_AT_symbol_name("_pname")
     597                      .dwattr DW$48, DW_AT_type(*DW$T$33)
     598                      .dwattr DW$48, DW_AT_location[DW_OP_reg14]
     599              DW$49   .dwtag  DW_TAG_formal_parameter, DW_AT_name("perr"), DW_AT_symbol_name("_perr")
     600                      .dwattr DW$49, DW_AT_type(*DW$T$33)
     601                      .dwattr DW$49, DW_AT_location[DW_OP_breg20 -10]
TMS320C2000 COFF Assembler PC v4.1.3 Thu Jul 15 08:50:48 2010

Tools Copyright (c) 1996-2006 Texas Instruments Incorporated
C:\DOCUME~1\ADMINI~1\LOCALS~1\Temp\TI6202                            PAGE   12

     602              DW$50   .dwtag  DW_TAG_variable, DW_AT_name("pevent"), DW_AT_symbol_name("_pevent")
     603                      .dwattr DW$50, DW_AT_type(*DW$T$28)
     604                      .dwattr DW$50, DW_AT_location[DW_OP_breg20 -2]
     605              DW$51   .dwtag  DW_TAG_variable, DW_AT_name("pname"), DW_AT_symbol_name("_pname")
     606                      .dwattr DW$51, DW_AT_type(*DW$T$33)
     607                      .dwattr DW$51, DW_AT_location[DW_OP_breg20 -4]
     608              DW$52   .dwtag  DW_TAG_variable, DW_AT_name("len"), DW_AT_symbol_name("_len")
     609                      .dwattr DW$52, DW_AT_type(*DW$T$19)
     610                      .dwattr DW$52, DW_AT_location[DW_OP_breg20 -5]
     611 00000026 A044          MOVL      *-SP[4],XAR5          ; |191| 
     612 00000027 A842          MOVL      *-SP[2],XAR4          ; |191| 
     613                      .dwpsn  "./os_core.c",215,2
     614 00000028 761F-         MOVW      DP,#_OSIntNesting
         00000029 0000 
     615 0000002a 9206-         MOV       AL,@_OSIntNesting     ; |215| 
     616 0000002b EC09          BF        L5,EQ                 ; |215| 
     617                      ; branchcc occurs ; |215| 
     618                      .dwpsn  "./os_core.c",217,3
     619 0000002c 8A4A          MOVL      XAR4,*-SP[10]         ; |217| 
     620 0000002d 28C4          MOV       *+XAR4[0],#18         ; |217| 
         0000002e 0012 
     621                      .dwpsn  "./os_core.c",218,3
     622 0000002f 6F1F          B         L7,UNC                ; |218| 
     623                      ; branch occurs ; |218| 
     624              L4:    
     625                      .dwpsn  "./os_core.c",229,3
     626 00000030 8A4A          MOVL      XAR4,*-SP[10]         ; |229| 
     627 00000031 28C4          MOV       *+XAR4[0],#1          ; |229| 
         00000032 0001 
     628                      .dwpsn  "./os_core.c",230,3
     629 00000033 6F1B          B         L7,UNC                ; |230| 
     630                      ; branch occurs ; |230| 
     631              L5:    
     632                      .dwpsn  "./os_core.c",220,2
     633 00000034 8A42          MOVL      XAR4,*-SP[2]          ; |220| 
     634 00000035 92C4          MOV       AL,*+XAR4[0]          ; |220| 
     635 00000036 9CFF          ADDB      AL,#-1
     636 00000037 5203          CMPB      AL,#3                 ; |220| 
     637 00000038 66F8          B         L4,HI                 ; |220| 
     638                      ; branchcc occurs ; |220| 
     639                      .dwpsn  "./os_core.c",232,2
     640 00000039 3B10   setc INTM
     641                      .dwpsn  "./os_core.c",233,2
     642 0000003a 8A44          MOVL      XAR4,*-SP[4]          ; |233| 
     643 0000003b FF69          SPM       #0
     644 0000003c 7640'         LCR       #_OS_StrLen           ; |233| 
         0000003d 02A6 
     645                      ; call occurs [#_OS_StrLen] ; |233| 
     646 0000003e 9645          MOV       *-SP[5],AL            ; |233| 
     647                      .dwpsn  "./os_core.c",234,2
     648 0000003f 520F          CMPB      AL,#15                ; |234| 
     649 00000040 6906          B         L6,LOS                ; |234| 
     650                      ; branchcc occurs ; |234| 
     651                      .dwpsn  "./os_core.c",236,3
     652 00000041 2910   clrc INTM
TMS320C2000 COFF Assembler PC v4.1.3 Thu Jul 15 08:50:48 2010

Tools Copyright (c) 1996-2006 Texas Instruments Incorporated
C:\DOCUME~1\ADMINI~1\LOCALS~1\Temp\TI6202                            PAGE   13

     653                      .dwpsn  "./os_core.c",237,3
     654 00000042 8A4A          MOVL      XAR4,*-SP[10]         ; |237| 
     655 00000043 28C4          MOV       *+XAR4[0],#11         ; |237| 
         00000044 000B 
     656                      .dwpsn  "./os_core.c",238,3
     657 00000045 6F09          B         L7,UNC                ; |238| 
     658                      ; branch occurs ; |238| 
     659              L6:    
     660                      .dwpsn  "./os_core.c",240,2
     661 00000046 8A42          MOVL      XAR4,*-SP[2]          ; |240| 
     662 00000047 8344          MOVL      XAR5,*-SP[4]          ; |240| 
     663 00000048 DC0E          ADDB      XAR4,#14              ; |240| 
     664 00000049 7640'         LCR       #_OS_StrCopy          ; |240| 
         0000004a 0290 
     665                      ; call occurs [#_OS_StrCopy] ; |240| 
     666                      .dwpsn  "./os_core.c",241,2
     667 0000004b 2910   clrc INTM
     668                      .dwpsn  "./os_core.c",242,2
     669 0000004c 8A4A          MOVL      XAR4,*-SP[10]         ; |242| 
     670 0000004d 2BC4          MOV       *+XAR4[0],#0          ; |242| 
     671              L7:    
     672                      .dwpsn  "./os_core.c",243,1
     673 0000004e FE86          SUBB      SP,#6
     674                      .dwcfa  0x1d, -2
     675 0000004f FF69          SPM       #0
     676 00000050 0006          LRETR
     677                      ; return occurs
     678                      .dwattr DW$46, DW_AT_end_file("./os_core.c")
     679                      .dwattr DW$46, DW_AT_end_line(0xf3)
     680                      .dwattr DW$46, DW_AT_end_column(0x01)
     681                      .dwendentry
     682                      .dwendtag DW$46
     683              
     684 00000051               .sect   ".text"
     685                      .global _OSInit
     686              
     687              DW$53   .dwtag  DW_TAG_subprogram, DW_AT_name("OSInit"), DW_AT_symbol_name("_OSInit")
     688                      .dwattr DW$53, DW_AT_low_pc(_OSInit)
     689                      .dwattr DW$53, DW_AT_high_pc(0x00)
     690                      .dwattr DW$53, DW_AT_begin_file("./os_core.c")
     691                      .dwattr DW$53, DW_AT_begin_line(0x252)
     692                      .dwattr DW$53, DW_AT_begin_column(0x07)
     693                      .dwpsn  "./os_core.c",595,1
     694              
     695                      .dwfde DW$CIE
     696              
     697              ;***************************************************************
     698              ;* FNAME: _OSInit                       FR SIZE:   0           *
     699              ;*                                                             *
     700              ;* FUNCTION ENVIRONMENT                                        *
     701              ;*                                                             *
     702              ;* FUNCTION PROPERTIES                                         *
     703              ;*                            0 Parameter,  0 Auto,  0 SOE     *
     704              ;***************************************************************
     705              
TMS320C2000 COFF Assembler PC v4.1.3 Thu Jul 15 08:50:48 2010

Tools Copyright (c) 1996-2006 Texas Instruments Incorporated
C:\DOCUME~1\ADMINI~1\LOCALS~1\Temp\TI6202                            PAGE   14

     706              _OSInit:
     707                      .dwcfa  0x1d, -2
     708                      .dwcfa  0x1c, 26, 0
     709                      .dwcfa  0x09, 40, 26
     710                      .dwpsn  "./os_core.c",598,2
     711 00000051 7640'         LCR       #_OS_InitMisc         ; |598| 
         00000052 01DC 
     712                      ; call occurs [#_OS_InitMisc] ; |598| 
     713                      .dwpsn  "./os_core.c",600,2
     714 00000053 7640'         LCR       #_OS_InitRdyList      ; |600| 
         00000054 01E6 
     715                      ; call occurs [#_OS_InitRdyList] ; |600| 
     716                      .dwpsn  "./os_core.c",602,2
     717 00000055 7640'         LCR       #_OS_InitTCBList      ; |602| 
         00000056 020F 
     718                      ; call occurs [#_OS_InitTCBList] ; |602| 
     719                      .dwpsn  "./os_core.c",604,2
     720 00000057 7640'         LCR       #_OS_InitEventList    ; |604| 
         00000058 01A3 
     721                      ; call occurs [#_OS_InitEventList] ; |604| 
     722                      .dwpsn  "./os_core.c",615,2
     723 00000059 7640'         LCR       #_OS_QInit            ; |615| 
         0000005a 0471 
     724                      ; call occurs [#_OS_QInit] ; |615| 
     725                      .dwpsn  "./os_core.c",618,2
     726 0000005b 7640'         LCR       #_OS_InitTaskIdle     ; |618| 
         0000005c 0203 
     727                      ; call occurs [#_OS_InitTaskIdle] ; |618| 
     728                      .dwpsn  "./os_core.c",627,2
     729 0000005d 7640!         LCR       #_OSInitHookEnd       ; |627| 
         0000005e 0000 
     730                      ; call occurs [#_OSInitHookEnd] ; |627| 
     731                      .dwpsn  "./os_core.c",632,1
     732 0000005f 0006          LRETR
     733                      ; return occurs
     734                      .dwattr DW$53, DW_AT_end_file("./os_core.c")
     735                      .dwattr DW$53, DW_AT_end_line(0x278)
     736                      .dwattr DW$53, DW_AT_end_column(0x01)
     737                      .dwendentry
     738                      .dwendtag DW$53
     739              
     740 00000060               .sect   ".text"
     741                      .global _OSIntEnter
     742              
     743              DW$54   .dwtag  DW_TAG_subprogram, DW_AT_name("OSIntEnter"), DW_AT_symbol_name("_OSIntEnter")
     744                      .dwattr DW$54, DW_AT_low_pc(_OSIntEnter)
     745                      .dwattr DW$54, DW_AT_high_pc(0x00)
     746                      .dwattr DW$54, DW_AT_begin_file("./os_core.c")
     747                      .dwattr DW$54, DW_AT_begin_line(0x292)
     748                      .dwattr DW$54, DW_AT_begin_column(0x07)
     749                      .dwpsn  "./os_core.c",659,1
     750              
     751                      .dwfde DW$CIE
     752              
     753              ;***************************************************************
TMS320C2000 COFF Assembler PC v4.1.3 Thu Jul 15 08:50:48 2010

Tools Copyright (c) 1996-2006 Texas Instruments Incorporated
C:\DOCUME~1\ADMINI~1\LOCALS~1\Temp\TI6202                            PAGE   15

     754              ;* FNAME: _OSIntEnter                   FR SIZE:   0           *
     755              ;*                                                             *
     756              ;* FUNCTION ENVIRONMENT                                        *
     757              ;*                                                             *
     758              ;* FUNCTION PROPERTIES                                         *
     759              ;*                            0 Parameter,  0 Auto,  0 SOE     *
     760              ;***************************************************************
     761              
     762              _OSIntEnter:
     763                      .dwcfa  0x1d, -2
     764                      .dwcfa  0x1c, 26, 0
     765                      .dwcfa  0x09, 40, 26
     766                      .dwpsn  "./os_core.c",660,2
     767 00000060 761F-         MOVW      DP,#_OSRunning
         00000061 0000 
     768 00000062 9205-         MOV       AL,@_OSRunning        ; |660| 
     769 00000063 5201          CMPB      AL,#1                 ; |660| 
     770 00000064 ED05          BF        L8,NEQ                ; |660| 
     771                      ; branchcc occurs ; |660| 
     772                      .dwpsn  "./os_core.c",662,3
     773 00000065 9206-         MOV       AL,@_OSIntNesting     ; |662| 
     774 00000066 52FF          CMPB      AL,#255               ; |662| 
     775 00000067 6702          B         L8,HIS                ; |662| 
     776                      ; branchcc occurs ; |662| 
     777                      .dwpsn  "./os_core.c",664,4
     778 00000068 0A06-         INC       @_OSIntNesting        ; |664| 
     779                      .dwpsn  "./os_core.c",666,2
     780              L8:    
     781                      .dwpsn  "./os_core.c",667,1
     782 00000069 0006          LRETR
     783                      ; return occurs
     784                      .dwattr DW$54, DW_AT_end_file("./os_core.c")
     785                      .dwattr DW$54, DW_AT_end_line(0x29b)
     786                      .dwattr DW$54, DW_AT_end_column(0x01)
     787                      .dwendentry
     788                      .dwendtag DW$54
     789              
     790 0000006a               .sect   ".text"
     791                      .global _OSIntExit
     792              
     793              DW$55   .dwtag  DW_TAG_subprogram, DW_AT_name("OSIntExit"), DW_AT_symbol_name("_OSIntExit")
     794                      .dwattr DW$55, DW_AT_low_pc(_OSIntExit)
     795                      .dwattr DW$55, DW_AT_high_pc(0x00)
     796                      .dwattr DW$55, DW_AT_begin_file("./os_core.c")
     797                      .dwattr DW$55, DW_AT_begin_line(0x2af)
     798                      .dwattr DW$55, DW_AT_begin_column(0x07)
     799                      .dwpsn  "./os_core.c",688,1
     800              
     801                      .dwfde DW$CIE
     802              
     803              ;***************************************************************
     804              ;* FNAME: _OSIntExit                    FR SIZE:   0           *
     805              ;*                                                             *
     806              ;* FUNCTION ENVIRONMENT                                        *
     807              ;*                                                             *
TMS320C2000 COFF Assembler PC v4.1.3 Thu Jul 15 08:50:48 2010

Tools Copyright (c) 1996-2006 Texas Instruments Incorporated
C:\DOCUME~1\ADMINI~1\LOCALS~1\Temp\TI6202                            PAGE   16

     808              ;* FUNCTION PROPERTIES                                         *
     809              ;*                            0 Parameter,  0 Auto,  0 SOE     *
     810              ;***************************************************************
     811              
     812              _OSIntExit:
     813                      .dwcfa  0x1d, -2
     814                      .dwcfa  0x1c, 26, 0
     815                      .dwcfa  0x09, 40, 26
     816                      .dwpsn  "./os_core.c",695,2
     817 0000006a 761F-         MOVW      DP,#_OSRunning
         0000006b 0000 
     818 0000006c 9205-         MOV       AL,@_OSRunning        ; |695| 
     819 0000006d 5201          CMPB      AL,#1                 ; |695| 
     820 0000006e ED1F          BF        L11,NEQ               ; |695| 
     821                      ; branchcc occurs ; |695| 
     822                      .dwpsn  "./os_core.c",697,3
     823 0000006f 3B10   setc INTM
     824                      .dwpsn  "./os_core.c",698,3
     825 00000070 9206-         MOV       AL,@_OSIntNesting     ; |698| 
     826 00000071 EC02          BF        L9,EQ                 ; |698| 
     827                      ; branchcc occurs ; |698| 
     828                      .dwpsn  "./os_core.c",700,4
     829 00000072 0B06-         DEC       @_OSIntNesting        ; |700| 
     830              L9:    
     831                      .dwpsn  "./os_core.c",702,3
     832 00000073 9206-         MOV       AL,@_OSIntNesting     ; |702| 
     833 00000074 ED18          BF        L10,NEQ               ; |702| 
     834                      ; branchcc occurs ; |702| 
     835                      .dwpsn  "./os_core.c",704,4
     836 00000075 9204-         MOV       AL,@_OSLockNesting    ; |704| 
     837 00000076 ED16          BF        L10,NEQ               ; |704| 
     838                      ; branchcc occurs ; |704| 
     839                      .dwpsn  "./os_core.c",706,5
     840 00000077 FF69          SPM       #0
     841 00000078 7640'         LCR       #_OS_SchedNew         ; |706| 
         00000079 027C 
     842                      ; call occurs [#_OS_SchedNew] ; |706| 
     843                      .dwpsn  "./os_core.c",707,5
     844 0000007a 761F-         MOVW      DP,#_OSPrioCur
         0000007b 0000 
     845 0000007c 9202-         MOV       AL,@_OSPrioCur        ; |707| 
     846 0000007d 5400-         CMP       AL,@_OSPrioHighRdy    ; |707| 
     847 0000007e EC0E          BF        L10,EQ                ; |707| 
     848                      ; branchcc occurs ; |707| 
     849                      .dwpsn  "./os_core.c",709,6
     850 0000007f 0E00-         MOVU      ACC,@_OSPrioHighRdy
     851 00000080 8F00-         MOVL      XAR4,#_OSTCBPrioTbl   ; |709| 
         00000081 0080 
     852 00000082 FF30          LSL       ACC,1                 ; |709| 
     853 00000083 5601          ADDL      XAR4,ACC
         00000084 00A4 
     854 00000085 06C4          MOVL      ACC,*+XAR4[0]         ; |709| 
     855 00000086 1E0E-         MOVL      @_OSTCBHighRdy,ACC    ; |709| 
     856                      .dwpsn  "./os_core.c",713,6
     857 00000087 0201          MOVB      ACC,#1
TMS320C2000 COFF Assembler PC v4.1.3 Thu Jul 15 08:50:48 2010

Tools Copyright (c) 1996-2006 Texas Instruments Incorporated
C:\DOCUME~1\ADMINI~1\LOCALS~1\Temp\TI6202                            PAGE   17

     858 00000088 5601-         ADDL      @_OSCtxSwCtr,ACC      ; |713| 
         00000089 0012 
     859                      .dwpsn  "./os_core.c",714,6
     860 0000008a 7640!         LCR       #_OSIntCtxSw          ; |714| 
         0000008b 0000 
     861                      ; call occurs [#_OSIntCtxSw] ; |714| 
     862              L10:    
     863                      .dwpsn  "./os_core.c",718,3
     864 0000008c 2910   clrc INTM
     865                      .dwpsn  "./os_core.c",719,2
     866              L11:    
     867                      .dwpsn  "./os_core.c",720,1
     868 0000008d FF69          SPM       #0
     869 0000008e 0006          LRETR
     870                      ; return occurs
     871                      .dwattr DW$55, DW_AT_end_file("./os_core.c")
     872                      .dwattr DW$55, DW_AT_end_line(0x2d0)
     873                      .dwattr DW$55, DW_AT_end_column(0x01)
     874                      .dwendentry
     875                      .dwendtag DW$55
     876              
     877 0000008f               .sect   ".text"
     878                      .global _OSStart
     879              
     880              DW$56   .dwtag  DW_TAG_subprogram, DW_AT_name("OSStart"), DW_AT_symbol_name("_OSStart")
     881                      .dwattr DW$56, DW_AT_low_pc(_OSStart)
     882                      .dwattr DW$56, DW_AT_high_pc(0x00)
     883                      .dwattr DW$56, DW_AT_begin_file("./os_core.c")
     884                      .dwattr DW$56, DW_AT_begin_line(0x347)
     885                      .dwattr DW$56, DW_AT_begin_column(0x07)
     886                      .dwpsn  "./os_core.c",840,1
     887              
     888                      .dwfde DW$CIE
     889              
     890              ;***************************************************************
     891              ;* FNAME: _OSStart                      FR SIZE:   0           *
     892              ;*                                                             *
     893              ;* FUNCTION ENVIRONMENT                                        *
     894              ;*                                                             *
     895              ;* FUNCTION PROPERTIES                                         *
     896              ;*                            0 Parameter,  0 Auto,  0 SOE     *
     897              ;***************************************************************
     898              
     899              _OSStart:
     900                      .dwcfa  0x1d, -2
     901                      .dwcfa  0x1c, 26, 0
     902                      .dwcfa  0x09, 40, 26
     903                      .dwpsn  "./os_core.c",841,2
     904 0000008f 761F-         MOVW      DP,#_OSRunning
         00000090 0000 
     905 00000091 9205-         MOV       AL,@_OSRunning        ; |841| 
     906 00000092 ED13          BF        L12,NEQ               ; |841| 
     907                      ; branchcc occurs ; |841| 
     908                      .dwpsn  "./os_core.c",843,3
     909 00000093 7640'         LCR       #_OS_SchedNew         ; |843| 
TMS320C2000 COFF Assembler PC v4.1.3 Thu Jul 15 08:50:48 2010

Tools Copyright (c) 1996-2006 Texas Instruments Incorporated
C:\DOCUME~1\ADMINI~1\LOCALS~1\Temp\TI6202                            PAGE   18

         00000094 027C 
     910                      ; call occurs [#_OS_SchedNew] ; |843| 
     911                      .dwpsn  "./os_core.c",844,3
     912 00000095 761F-         MOVW      DP,#_OSPrioHighRdy
         00000096 0000 
     913 00000097 9200-         MOV       AL,@_OSPrioHighRdy    ; |844| 
     914 00000098 9602-         MOV       @_OSPrioCur,AL        ; |844| 
     915                      .dwpsn  "./os_core.c",845,3
     916 00000099 0E00-         MOVU      ACC,@_OSPrioHighRdy
     917 0000009a 8F00-         MOVL      XAR4,#_OSTCBPrioTbl   ; |845| 
         0000009b 0080 
     918 0000009c FF30          LSL       ACC,1                 ; |845| 
     919 0000009d 5601          ADDL      XAR4,ACC
         0000009e 00A4 
     920 0000009f 06C4          MOVL      ACC,*+XAR4[0]         ; |845| 
     921 000000a0 1E0E-         MOVL      @_OSTCBHighRdy,ACC    ; |845| 
     922                      .dwpsn  "./os_core.c",846,3
     923 000000a1 060E-         MOVL      ACC,@_OSTCBHighRdy    ; |846| 
     924 000000a2 1E0C-         MOVL      @_OSTCBCur,ACC        ; |846| 
     925                      .dwpsn  "./os_core.c",847,3
     926 000000a3 7640!         LCR       #_OSStartHighRdy      ; |847| 
         000000a4 0000 
     927                      ; call occurs [#_OSStartHighRdy] ; |847| 
     928                      .dwpsn  "./os_core.c",848,2
     929              L12:    
     930                      .dwpsn  "./os_core.c",849,1
     931 000000a5 0006          LRETR
     932                      ; return occurs
     933                      .dwattr DW$56, DW_AT_end_file("./os_core.c")
     934                      .dwattr DW$56, DW_AT_end_line(0x351)
     935                      .dwattr DW$56, DW_AT_end_column(0x01)
     936                      .dwendentry
     937                      .dwendtag DW$56
     938              
     939 000000a6               .sect   ".text"
     940                      .global _OSTimeTick
     941              
     942              DW$57   .dwtag  DW_TAG_subprogram, DW_AT_name("OSTimeTick"), DW_AT_symbol_name("_OSTimeTick")
     943                      .dwattr DW$57, DW_AT_low_pc(_OSTimeTick)
     944                      .dwattr DW$57, DW_AT_high_pc(0x00)
     945                      .dwattr DW$57, DW_AT_begin_file("./os_core.c")
     946                      .dwattr DW$57, DW_AT_begin_line(0x38c)
     947                      .dwattr DW$57, DW_AT_begin_column(0x07)
     948                      .dwpsn  "./os_core.c",909,1
     949              
     950                      .dwfde DW$CIE
     951              
     952              ;***************************************************************
     953              ;* FNAME: _OSTimeTick                   FR SIZE:   2           *
     954              ;*                                                             *
     955              ;* FUNCTION ENVIRONMENT                                        *
     956              ;*                                                             *
     957              ;* FUNCTION PROPERTIES                                         *
     958              ;*                            0 Parameter,  2 Auto,  0 SOE     *
     959              ;***************************************************************
TMS320C2000 COFF Assembler PC v4.1.3 Thu Jul 15 08:50:48 2010

Tools Copyright (c) 1996-2006 Texas Instruments Incorporated
C:\DOCUME~1\ADMINI~1\LOCALS~1\Temp\TI6202                            PAGE   19

     960              
     961              _OSTimeTick:
     962                      .dwcfa  0x1d, -2
     963                      .dwcfa  0x1c, 26, 0
     964                      .dwcfa  0x09, 40, 26
     965 000000a6 FE02          ADDB      SP,#2
     966                      .dwcfa  0x1d, -4
     967              DW$58   .dwtag  DW_TAG_variable, DW_AT_name("ptcb"), DW_AT_symbol_name("_ptcb")
     968                      .dwattr DW$58, DW_AT_type(*DW$T$38)
     969                      .dwattr DW$58, DW_AT_location[DW_OP_breg20 -2]
     970                      .dwpsn  "./os_core.c",921,2
     971 000000a7 7640!         LCR       #_OSTimeTickHook      ; |921| 
         000000a8 0000 
     972                      ; call occurs [#_OSTimeTickHook] ; |921| 
     973                      .dwpsn  "./os_core.c",928,2
     974 000000a9 761F-         MOVW      DP,#_OSRunning
         000000aa 0000 
     975 000000ab 9205-         MOV       AL,@_OSRunning        ; |928| 
     976 000000ac 5201          CMPB      AL,#1                 ; |928| 
     977 000000ad ED3D          BF        L18,NEQ               ; |928| 
     978                      ; branchcc occurs ; |928| 
     979                      .dwpsn  "./os_core.c",956,3
     980 000000ae 060A-         MOVL      ACC,@_OSTCBList       ; |956| 
     981 000000af 1E42          MOVL      *-SP[2],ACC           ; |956| 
     982                      .dwpsn  "./os_core.c",957,3
     983 000000b0 6F35          B         L17,UNC               ; |957| 
     984                      ; branch occurs ; |957| 
     985              L13:    
     986              DW$L$_OSTimeTick$3$B:
     987                      .dwpsn  "./os_core.c",959,4
     988 000000b1 3B10   setc INTM
     989                      .dwpsn  "./os_core.c",960,4
     990 000000b2 8A42          MOVL      XAR4,*-SP[2]          ; |960| 
     991 000000b3 D00A          MOVB      XAR0,#10              ; |960| 
     992 000000b4 9294          MOV       AL,*+XAR4[AR0]        ; |960| 
     993 000000b5 EC2C          BF        L16,EQ                ; |960| 
     994                      ; branchcc occurs ; |960| 
     995              DW$L$_OSTimeTick$3$E:
     996              DW$L$_OSTimeTick$4$B:
     997                      .dwpsn  "./os_core.c",962,5
     998 000000b6 8A42          MOVL      XAR4,*-SP[2]          ; |962| 
     999 000000b7 DC0A          ADDB      XAR4,#10              ; |962| 
    1000 000000b8 0BC4          DEC       *+XAR4[0]             ; |962| 
    1001 000000b9 ED28          BF        L16,NEQ               ; |962| 
    1002                      ; branchcc occurs ; |962| 
    1003              DW$L$_OSTimeTick$4$E:
    1004              DW$L$_OSTimeTick$5$B:
    1005                      .dwpsn  "./os_core.c",965,6
    1006 000000ba 8A42          MOVL      XAR4,*-SP[2]          ; |965| 
    1007 000000bb D00B          MOVB      XAR0,#11              ; |965| 
    1008 000000bc 9294          MOV       AL,*+XAR4[AR0]        ; |965| 
    1009 000000bd 9037          ANDB      AL,#0x37              ; |965| 
    1010 000000be EC0A          BF        L14,EQ                ; |965| 
    1011                      ; branchcc occurs ; |965| 
    1012              DW$L$_OSTimeTick$5$E:
TMS320C2000 COFF Assembler PC v4.1.3 Thu Jul 15 08:50:48 2010

Tools Copyright (c) 1996-2006 Texas Instruments Incorporated
C:\DOCUME~1\ADMINI~1\LOCALS~1\Temp\TI6202                            PAGE   20

    1013              DW$L$_OSTimeTick$6$B:
    1014                      .dwpsn  "./os_core.c",967,7
    1015 000000bf 8A42          MOVL      XAR4,*-SP[2]          ; |967| 
    1016 000000c0 DC0B          ADDB      XAR4,#11              ; |967| 
    1017 000000c1 18C4          AND       *+XAR4[0],#0xffc8     ; |967| 
         000000c2 FFC8 
    1018                      .dwpsn  "./os_core.c",968,7
    1019 000000c3 8A42          MOVL      XAR4,*-SP[2]          ; |968| 
    1020 000000c4 D00C          MOVB      XAR0,#12              ; |968| 
    1021 000000c5 2894          MOV       *+XAR4[AR0],#1        ; |968| 
         000000c6 0001 
    1022                      .dwpsn  "./os_core.c",969,6
    1023 000000c7 6F04          B         L15,UNC               ; |969| 
    1024                      ; branch occurs ; |969| 
    1025              DW$L$_OSTimeTick$6$E:
    1026              L14:    
    1027              DW$L$_OSTimeTick$7$B:
    1028                      .dwpsn  "./os_core.c",972,7
    1029 000000c8 8A42          MOVL      XAR4,*-SP[2]          ; |972| 
    1030 000000c9 D00C          MOVB      XAR0,#12              ; |972| 
    1031 000000ca 2B94          MOV       *+XAR4[AR0],#0        ; |972| 
    1032              DW$L$_OSTimeTick$7$E:
    1033              L15:    
    1034              DW$L$_OSTimeTick$8$B:
    1035                      .dwpsn  "./os_core.c",975,6
    1036 000000cb 8A42          MOVL      XAR4,*-SP[2]          ; |975| 
    1037 000000cc D00B          MOVB      XAR0,#11              ; |975| 
    1038 000000cd 4394          TBIT      *+XAR4[AR0],#3        ; |975| 
    1039 000000ce EE13          BF        L16,TC                ; |975| 
    1040                      ; branchcc occurs ; |975| 
    1041              DW$L$_OSTimeTick$8$E:
    1042              DW$L$_OSTimeTick$9$B:
    1043                      .dwpsn  "./os_core.c",977,7
    1044 000000cf 8A42          MOVL      XAR4,*-SP[2]          ; |977| 
    1045 000000d0 D011          MOVB      XAR0,#17              ; |977| 
    1046 000000d1 761F-         MOVW      DP,#_OSRdyGrp
         000000d2 0000 
    1047 000000d3 9294          MOV       AL,*+XAR4[AR0]        ; |977| 
    1048 000000d4 9801-         OR        @_OSRdyGrp,AL         ; |977| 
    1049                      .dwpsn  "./os_core.c",978,7
    1050 000000d5 8A42          MOVL      XAR4,*-SP[2]          ; |978| 
    1051 000000d6 D00F          MOVB      XAR0,#15              ; |978| 
    1052 000000d7 8894          MOVZ      AR6,*+XAR4[AR0]       ; |978| 
    1053 000000d8 8F00-         MOVL      XAR4,#_OSRdyTbl       ; |978| 
         000000d9 0018 
    1054 000000da A8A9          MOVL      ACC,XAR4              ; |978| 
    1055 000000db 8342          MOVL      XAR5,*-SP[2]          ; |978| 
    1056 000000dc 0DA6          ADDU      ACC,AR6               ; |978| 
    1057 000000dd 8AA9          MOVL      XAR4,ACC              ; |978| 
    1058 000000de D010          MOVB      XAR0,#16              ; |978| 
    1059 000000df 9295          MOV       AL,*+XAR5[AR0]        ; |978| 
    1060 000000e0 98C4          OR        *+XAR4[0],AL          ; |978| 
    1061              DW$L$_OSTimeTick$9$E:
    1062              L16:    
    1063              DW$L$_OSTimeTick$10$B:
TMS320C2000 COFF Assembler PC v4.1.3 Thu Jul 15 08:50:48 2010

Tools Copyright (c) 1996-2006 Texas Instruments Incorporated
C:\DOCUME~1\ADMINI~1\LOCALS~1\Temp\TI6202                            PAGE   21

    1064                      .dwpsn  "./os_core.c",982,4
    1065 000000e1 8A42          MOVL      XAR4,*-SP[2]          ; |982| 
    1066 000000e2 06D4          MOVL      ACC,*+XAR4[2]         ; |982| 
    1067 000000e3 1E42          MOVL      *-SP[2],ACC           ; |982| 
    1068                      .dwpsn  "./os_core.c",983,4
    1069 000000e4 2910   clrc INTM
    1070              DW$L$_OSTimeTick$10$E:
    1071              L17:    
    1072              DW$L$_OSTimeTick$11$B:
    1073                      .dwpsn  "./os_core.c",957,11
    1074 000000e5 8A42          MOVL      XAR4,*-SP[2]          ; |957| 
    1075 000000e6 D00D          MOVB      XAR0,#13              ; |957| 
    1076 000000e7 9294          MOV       AL,*+XAR4[AR0]        ; |957| 
    1077 000000e8 523F          CMPB      AL,#63                ; |957| 
    1078 000000e9 EDC8          BF        L13,NEQ               ; |957| 
    1079                      ; branchcc occurs ; |957| 
    1080              DW$L$_OSTimeTick$11$E:
    1081                      .dwpsn  "./os_core.c",985,2
    1082              L18:    
    1083                      .dwpsn  "./os_core.c",986,1
    1084 000000ea FE82          SUBB      SP,#2
    1085                      .dwcfa  0x1d, -2
    1086 000000eb FF69          SPM       #0
    1087 000000ec 0006          LRETR
    1088                      ; return occurs
    1089              
    1090              DW$59   .dwtag  DW_TAG_loop
    1091                      .dwattr DW$59, DW_AT_name("C:\DOCUME~1\ADMINI~1\LOCALS~1\Temp\TI6202:L17:1:1279155047")
    1092                      .dwattr DW$59, DW_AT_begin_file("./os_core.c")
    1093                      .dwattr DW$59, DW_AT_begin_line(0x3bd)
    1094                      .dwattr DW$59, DW_AT_end_line(0x3d7)
    1095              DW$60   .dwtag  DW_TAG_loop_range
    1096                      .dwattr DW$60, DW_AT_low_pc(DW$L$_OSTimeTick$11$B)
    1097                      .dwattr DW$60, DW_AT_high_pc(DW$L$_OSTimeTick$11$E)
    1098              DW$61   .dwtag  DW_TAG_loop_range
    1099                      .dwattr DW$61, DW_AT_low_pc(DW$L$_OSTimeTick$5$B)
    1100                      .dwattr DW$61, DW_AT_high_pc(DW$L$_OSTimeTick$5$E)
    1101              DW$62   .dwtag  DW_TAG_loop_range
    1102                      .dwattr DW$62, DW_AT_low_pc(DW$L$_OSTimeTick$6$B)
    1103                      .dwattr DW$62, DW_AT_high_pc(DW$L$_OSTimeTick$6$E)
    1104              DW$63   .dwtag  DW_TAG_loop_range
    1105                      .dwattr DW$63, DW_AT_low_pc(DW$L$_OSTimeTick$7$B)
    1106                      .dwattr DW$63, DW_AT_high_pc(DW$L$_OSTimeTick$7$E)
    1107              DW$64   .dwtag  DW_TAG_loop_range
    1108                      .dwattr DW$64, DW_AT_low_pc(DW$L$_OSTimeTick$3$B)
    1109                      .dwattr DW$64, DW_AT_high_pc(DW$L$_OSTimeTick$3$E)
    1110              DW$65   .dwtag  DW_TAG_loop_range
    1111                      .dwattr DW$65, DW_AT_low_pc(DW$L$_OSTimeTick$4$B)
    1112                      .dwattr DW$65, DW_AT_high_pc(DW$L$_OSTimeTick$4$E)
    1113              DW$66   .dwtag  DW_TAG_loop_range
    1114                      .dwattr DW$66, DW_AT_low_pc(DW$L$_OSTimeTick$8$B)
    1115                      .dwattr DW$66, DW_AT_high_pc(DW$L$_OSTimeTick$8$E)
    1116              DW$67   .dwtag  DW_TAG_loop_range
    1117                      .dwattr DW$67, DW_AT_low_pc(DW$L$_OSTimeTick$9$B)
    1118                      .dwattr DW$67, DW_AT_high_pc(DW$L$_OSTimeTick$9$E)
TMS320C2000 COFF Assembler PC v4.1.3 Thu Jul 15 08:50:48 2010

Tools Copyright (c) 1996-2006 Texas Instruments Incorporated
C:\DOCUME~1\ADMINI~1\LOCALS~1\Temp\TI6202                            PAGE   22

    1119              DW$68   .dwtag  DW_TAG_loop_range
    1120                      .dwattr DW$68, DW_AT_low_pc(DW$L$_OSTimeTick$10$B)
    1121                      .dwattr DW$68, DW_AT_high_pc(DW$L$_OSTimeTick$10$E)
    1122                      .dwendtag DW$59
    1123              
    1124                      .dwattr DW$57, DW_AT_end_file("./os_core.c")
    1125                      .dwattr DW$57, DW_AT_end_line(0x3da)
    1126                      .dwattr DW$57, DW_AT_end_column(0x01)
    1127                      .dwendentry
    1128                      .dwendtag DW$57
    1129              
    1130 000000ed               .sect   ".text"
    1131                      .global _OSVersion
    1132              
    1133              DW$69   .dwtag  DW_TAG_subprogram, DW_AT_name("OSVersion"), DW_AT_symbol_name("_OSVersion")
    1134                      .dwattr DW$69, DW_AT_low_pc(_OSVersion)
    1135                      .dwattr DW$69, DW_AT_high_pc(0x00)
    1136                      .dwattr DW$69, DW_AT_begin_file("./os_core.c")
    1137                      .dwattr DW$69, DW_AT_begin_line(0x3eb)
    1138                      .dwattr DW$69, DW_AT_begin_column(0x09)
    1139                      .dwpsn  "./os_core.c",1004,1
    1140              
    1141                      .dwfde DW$CIE
    1142              
    1143              ;***************************************************************
    1144              ;* FNAME: _OSVersion                    FR SIZE:   0           *
    1145              ;*                                                             *
    1146              ;* FUNCTION ENVIRONMENT                                        *
    1147              ;*                                                             *
    1148              ;* FUNCTION PROPERTIES                                         *
    1149              ;*                            0 Parameter,  0 Auto,  0 SOE     *
    1150              ;***************************************************************
    1151              
    1152              _OSVersion:
    1153                      .dwcfa  0x1d, -2
    1154                      .dwcfa  0x1c, 26, 0
    1155                      .dwcfa  0x09, 40, 26
    1156                      .dwpsn  "./os_core.c",1005,2
    1157 000000ed 28A9          MOV       AL,#286               ; |1005| 
         000000ee 011E 
    1158                      .dwpsn  "./os_core.c",1006,1
    1159 000000ef 0006          LRETR
    1160                      ; return occurs
    1161                      .dwattr DW$69, DW_AT_end_file("./os_core.c")
    1162                      .dwattr DW$69, DW_AT_end_line(0x3ee)
    1163                      .dwattr DW$69, DW_AT_end_column(0x01)
    1164                      .dwendentry
    1165                      .dwendtag DW$69
    1166              
    1167 000000f0               .sect   ".text"
    1168                      .global _OS_Dummy
    1169              
    1170              DW$70   .dwtag  DW_TAG_subprogram, DW_AT_name("OS_Dummy"), DW_AT_symbol_name("_OS_Dummy")
    1171                      .dwattr DW$70, DW_AT_low_pc(_OS_Dummy)
    1172                      .dwattr DW$70, DW_AT_high_pc(0x00)
TMS320C2000 COFF Assembler PC v4.1.3 Thu Jul 15 08:50:48 2010

Tools Copyright (c) 1996-2006 Texas Instruments Incorporated
C:\DOCUME~1\ADMINI~1\LOCALS~1\Temp\TI6202                            PAGE   23

    1173                      .dwattr DW$70, DW_AT_begin_file("./os_core.c")
    1174                      .dwattr DW$70, DW_AT_begin_line(0x3ff)
    1175                      .dwattr DW$70, DW_AT_begin_column(0x07)
    1176                      .dwpsn  "./os_core.c",1024,1
    1177              
    1178                      .dwfde DW$CIE
    1179              
    1180              ;***************************************************************
    1181              ;* FNAME: _OS_Dummy                     FR SIZE:   0           *
    1182              ;*                                                             *
    1183              ;* FUNCTION ENVIRONMENT                                        *
    1184              ;*                                                             *
    1185              ;* FUNCTION PROPERTIES                                         *
    1186              ;*                            0 Parameter,  0 Auto,  0 SOE     *
    1187              ;***************************************************************
    1188              
    1189              _OS_Dummy:
    1190                      .dwcfa  0x1d, -2
    1191                      .dwcfa  0x1c, 26, 0
    1192                      .dwcfa  0x09, 40, 26
    1193                      .dwpsn  "./os_core.c",1025,1
    1194 000000f0 0006          LRETR
    1195                      ; return occurs
    1196                      .dwattr DW$70, DW_AT_end_file("./os_core.c")
    1197                      .dwattr DW$70, DW_AT_end_line(0x401)
    1198                      .dwattr DW$70, DW_AT_end_column(0x01)
    1199                      .dwendentry
    1200                      .dwendtag DW$70
    1201              
    1202 000000f1               .sect   ".text"
    1203                      .global _OS_EventTaskRdy
    1204              
    1205              DW$71   .dwtag  DW_TAG_subprogram, DW_AT_name("OS_EventTaskRdy"), DW_AT_symbol_name("_OS_EventTaskRdy")
    1206                      .dwattr DW$71, DW_AT_low_pc(_OS_EventTaskRdy)
    1207                      .dwattr DW$71, DW_AT_high_pc(0x00)
    1208                      .dwattr DW$71, DW_AT_begin_file("./os_core.c")
    1209                      .dwattr DW$71, DW_AT_begin_line(0x421)
    1210                      .dwattr DW$71, DW_AT_begin_column(0x08)
    1211                      .dwpsn  "./os_core.c",1058,1
    1212              
    1213                      .dwfde DW$CIE
    1214              
    1215              ;***************************************************************
    1216              ;* FNAME: _OS_EventTaskRdy              FR SIZE:  12           *
    1217              ;*                                                             *
    1218              ;* FUNCTION ENVIRONMENT                                        *
    1219              ;*                                                             *
    1220              ;* FUNCTION PROPERTIES                                         *
    1221              ;*                            0 Parameter, 11 Auto,  0 SOE     *
    1222              ;***************************************************************
    1223              
    1224              _OS_EventTaskRdy:
    1225                      .dwcfa  0x1d, -2
    1226                      .dwcfa  0x1c, 26, 0
    1227                      .dwcfa  0x09, 40, 26
TMS320C2000 COFF Assembler PC v4.1.3 Thu Jul 15 08:50:48 2010

Tools Copyright (c) 1996-2006 Texas Instruments Incorporated
C:\DOCUME~1\ADMINI~1\LOCALS~1\Temp\TI6202                            PAGE   24

    1228 000000f1 FE0C          ADDB      SP,#12
    1229                      .dwcfa  0x1d, -14
    1230              ;* AR4   assigned to _pevent
    1231              DW$72   .dwtag  DW_TAG_formal_parameter, DW_AT_name("pevent"), DW_AT_symbol_name("_pevent")
    1232                      .dwattr DW$72, DW_AT_type(*DW$T$28)
    1233                      .dwattr DW$72, DW_AT_location[DW_OP_reg12]
    1234              ;* AR5   assigned to _pmsg
    1235              DW$73   .dwtag  DW_TAG_formal_parameter, DW_AT_name("pmsg"), DW_AT_symbol_name("_pmsg")
    1236                      .dwattr DW$73, DW_AT_type(*DW$T$3)
    1237                      .dwattr DW$73, DW_AT_location[DW_OP_reg14]
    1238              ;* AL    assigned to _msk
    1239              DW$74   .dwtag  DW_TAG_formal_parameter, DW_AT_name("msk"), DW_AT_symbol_name("_msk")
    1240                      .dwattr DW$74, DW_AT_type(*DW$T$19)
    1241                      .dwattr DW$74, DW_AT_location[DW_OP_reg0]
    1242              ;* AH    assigned to _pend_stat
    1243              DW$75   .dwtag  DW_TAG_formal_parameter, DW_AT_name("pend_stat"), DW_AT_symbol_name("_pend_stat")
    1244                      .dwattr DW$75, DW_AT_type(*DW$T$19)
    1245                      .dwattr DW$75, DW_AT_location[DW_OP_reg1]
    1246              DW$76   .dwtag  DW_TAG_variable, DW_AT_name("pevent"), DW_AT_symbol_name("_pevent")
    1247                      .dwattr DW$76, DW_AT_type(*DW$T$28)
    1248                      .dwattr DW$76, DW_AT_location[DW_OP_breg20 -2]
    1249              DW$77   .dwtag  DW_TAG_variable, DW_AT_name("pmsg"), DW_AT_symbol_name("_pmsg")
    1250                      .dwattr DW$77, DW_AT_type(*DW$T$3)
    1251                      .dwattr DW$77, DW_AT_location[DW_OP_breg20 -4]
    1252              DW$78   .dwtag  DW_TAG_variable, DW_AT_name("msk"), DW_AT_symbol_name("_msk")
    1253                      .dwattr DW$78, DW_AT_type(*DW$T$19)
    1254                      .dwattr DW$78, DW_AT_location[DW_OP_breg20 -5]
    1255              DW$79   .dwtag  DW_TAG_variable, DW_AT_name("pend_stat"), DW_AT_symbol_name("_pend_stat")
    1256                      .dwattr DW$79, DW_AT_type(*DW$T$19)
    1257                      .dwattr DW$79, DW_AT_location[DW_OP_breg20 -6]
    1258              DW$80   .dwtag  DW_TAG_variable, DW_AT_name("ptcb"), DW_AT_symbol_name("_ptcb")
    1259                      .dwattr DW$80, DW_AT_type(*DW$T$38)
    1260                      .dwattr DW$80, DW_AT_location[DW_OP_breg20 -8]
    1261              DW$81   .dwtag  DW_TAG_variable, DW_AT_name("y"), DW_AT_symbol_name("_y")
    1262                      .dwattr DW$81, DW_AT_type(*DW$T$19)
    1263                      .dwattr DW$81, DW_AT_location[DW_OP_breg20 -9]
    1264              DW$82   .dwtag  DW_TAG_variable, DW_AT_name("x"), DW_AT_symbol_name("_x")
    1265                      .dwattr DW$82, DW_AT_type(*DW$T$19)
    1266                      .dwattr DW$82, DW_AT_location[DW_OP_breg20 -10]
    1267              DW$83   .dwtag  DW_TAG_variable, DW_AT_name("prio"), DW_AT_symbol_name("_prio")
    1268                      .dwattr DW$83, DW_AT_type(*DW$T$19)
    1269                      .dwattr DW$83, DW_AT_location[DW_OP_breg20 -11]
    1270 000000f2 9746          MOV       *-SP[6],AH            ; |1058| 
    1271 000000f3 9645          MOV       *-SP[5],AL            ; |1058| 
    1272 000000f4 A044          MOVL      *-SP[4],XAR5          ; |1058| 
    1273 000000f5 A842          MOVL      *-SP[2],XAR4          ; |1058| 
    1274                      .dwpsn  "./os_core.c",1069,2
    1275 000000f6 8A42          MOVL      XAR4,*-SP[2]          ; |1069| 
    1276 000000f7 58EC          MOVZ      AR0,*+XAR4[5]         ; |1069| 
    1277 000000f8 8F00+         MOVL      XAR4,#_OSUnMapTbl     ; |1069| 
         000000f9 0000 
    1278 000000fa 9294          MOV       AL,*+XAR4[AR0]        ; |1069| 
    1279 000000fb 9649          MOV       *-SP[9],AL            ; |1069| 
    1280                      .dwpsn  "./os_core.c",1070,2
    1281 000000fc 8849          MOVZ      AR6,*-SP[9]           ; |1070| 
TMS320C2000 COFF Assembler PC v4.1.3 Thu Jul 15 08:50:48 2010

Tools Copyright (c) 1996-2006 Texas Instruments Incorporated
C:\DOCUME~1\ADMINI~1\LOCALS~1\Temp\TI6202                            PAGE   25

    1282 000000fd 0642          MOVL      ACC,*-SP[2]           ; |1070| 
    1283 000000fe 0DA6          ADDU      ACC,AR6               ; |1070| 
    1284 000000ff 8AA9          MOVL      XAR4,ACC              ; |1070| 
    1285 00000100 58F4          MOVZ      AR0,*+XAR4[6]         ; |1070| 
    1286 00000101 8F00+         MOVL      XAR4,#_OSUnMapTbl     ; |1070| 
         00000102 0000 
    1287 00000103 9294          MOV       AL,*+XAR4[AR0]        ; |1070| 
    1288 00000104 964A          MOV       *-SP[10],AL           ; |1070| 
    1289                      .dwpsn  "./os_core.c",1071,2
    1290 00000105 5603          MOV       ACC,*-SP[9] << #3     ; |1071| 
         00000106 0349 
    1291 00000107 944A          ADD       AL,*-SP[10]           ; |1071| 
    1292 00000108 964B          MOV       *-SP[11],AL           ; |1071| 
    1293                      .dwpsn  "./os_core.c",1093,2
    1294 00000109 0E4B          MOVU      ACC,*-SP[11]
    1295 0000010a 8F00-         MOVL      XAR4,#_OSTCBPrioTbl   ; |1093| 
         0000010b 0080 
    1296 0000010c FF30          LSL       ACC,1                 ; |1093| 
    1297 0000010d 5601          ADDL      XAR4,ACC
         0000010e 00A4 
    1298 0000010f 06C4          MOVL      ACC,*+XAR4[0]         ; |1093| 
    1299 00000110 1E48          MOVL      *-SP[8],ACC           ; |1093| 
    1300                      .dwpsn  "./os_core.c",1094,2
    1301 00000111 8A48          MOVL      XAR4,*-SP[8]          ; |1094| 
    1302 00000112 D00A          MOVB      XAR0,#10              ; |1094| 
    1303 00000113 2B94          MOV       *+XAR4[AR0],#0        ; |1094| 
    1304                      .dwpsn  "./os_core.c",1096,2
    1305 00000114 8A48          MOVL      XAR4,*-SP[8]          ; |1096| 
    1306 00000115 D008          MOVB      XAR0,#8               ; |1096| 
    1307 00000116 0644          MOVL      ACC,*-SP[4]           ; |1096| 
    1308 00000117 1E94          MOVL      *+XAR4[AR0],ACC       ; |1096| 
    1309                      .dwpsn  "./os_core.c",1100,2
    1310 00000118 8A48          MOVL      XAR4,*-SP[8]          ; |1100| 
    1311 00000119 9245          MOV       AL,*-SP[5]            ; |1100| 
    1312 0000011a FF5E          NOT       AL                    ; |1100| 
    1313 0000011b DC0B          ADDB      XAR4,#11              ; |1100| 
    1314 0000011c C0C4          AND       *+XAR4[0],AL          ; |1100| 
    1315                      .dwpsn  "./os_core.c",1101,2
    1316 0000011d 8A48          MOVL      XAR4,*-SP[8]          ; |1101| 
    1317 0000011e D00C          MOVB      XAR0,#12              ; |1101| 
    1318 0000011f 9246          MOV       AL,*-SP[6]            ; |1101| 
    1319 00000120 9694          MOV       *+XAR4[AR0],AL        ; |1101| 
    1320                      .dwpsn  "./os_core.c",1103,2
    1321 00000121 8A48          MOVL      XAR4,*-SP[8]          ; |1103| 
    1322 00000122 D00B          MOVB      XAR0,#11              ; |1103| 
    1323 00000123 4394          TBIT      *+XAR4[AR0],#3        ; |1103| 
    1324 00000124 EE11          BF        L19,TC                ; |1103| 
    1325                      ; branchcc occurs ; |1103| 
    1326                      .dwpsn  "./os_core.c",1105,3
    1327 00000125 8A48          MOVL      XAR4,*-SP[8]          ; |1105| 
    1328 00000126 D011          MOVB      XAR0,#17              ; |1105| 
    1329 00000127 761F-         MOVW      DP,#_OSRdyGrp
         00000128 0000 
    1330 00000129 9294          MOV       AL,*+XAR4[AR0]        ; |1105| 
    1331 0000012a 9801-         OR        @_OSRdyGrp,AL         ; |1105| 
TMS320C2000 COFF Assembler PC v4.1.3 Thu Jul 15 08:50:48 2010

Tools Copyright (c) 1996-2006 Texas Instruments Incorporated
C:\DOCUME~1\ADMINI~1\LOCALS~1\Temp\TI6202                            PAGE   26

    1332                      .dwpsn  "./os_core.c",1106,3
    1333 0000012b 8849          MOVZ      AR6,*-SP[9]           ; |1106| 
    1334 0000012c 8F00-         MOVL      XAR4,#_OSRdyTbl       ; |1106| 
         0000012d 0018 
    1335 0000012e A8A9          MOVL      ACC,XAR4              ; |1106| 
    1336 0000012f 8348          MOVL      XAR5,*-SP[8]          ; |1106| 
    1337 00000130 0DA6          ADDU      ACC,AR6               ; |1106| 
    1338 00000131 8AA9          MOVL      XAR4,ACC              ; |1106| 
    1339 00000132 D010          MOVB      XAR0,#16              ; |1106| 
    1340 00000133 9295          MOV       AL,*+XAR5[AR0]        ; |1106| 
    1341 00000134 98C4          OR        *+XAR4[0],AL          ; |1106| 
    1342              L19:    
    1343                      .dwpsn  "./os_core.c",1109,2
    1344 00000135 8A48          MOVL      XAR4,*-SP[8]          ; |1109| 
    1345 00000136 8342          MOVL      XAR5,*-SP[2]          ; |1109| 
    1346 00000137 7640'         LCR       #_OS_EventTaskRemove  ; |1109| 
         00000138 016E 
    1347                      ; call occurs [#_OS_EventTaskRemove] ; |1109| 
    1348                      .dwpsn  "./os_core.c",1118,2
    1349 00000139 924B          MOV       AL,*-SP[11]           ; |1118| 
    1350                      .dwpsn  "./os_core.c",1119,1
    1351 0000013a FE8C          SUBB      SP,#12                ; |1118| 
    1352                      .dwcfa  0x1d, -2
    1353 0000013b 0006          LRETR
    1354                      ; return occurs
    1355                      .dwattr DW$71, DW_AT_end_file("./os_core.c")
    1356                      .dwattr DW$71, DW_AT_end_line(0x45f)
    1357                      .dwattr DW$71, DW_AT_end_column(0x01)
    1358                      .dwendentry
    1359                      .dwendtag DW$71
    1360              
    1361 0000013c               .sect   ".text"
    1362                      .global _OS_EventTaskWait
    1363              
    1364              DW$84   .dwtag  DW_TAG_subprogram, DW_AT_name("OS_EventTaskWait"), DW_AT_symbol_name("_OS_EventTaskWait")
    1365                      .dwattr DW$84, DW_AT_low_pc(_OS_EventTaskWait)
    1366                      .dwattr DW$84, DW_AT_high_pc(0x00)
    1367                      .dwattr DW$84, DW_AT_begin_file("./os_core.c")
    1368                      .dwattr DW$84, DW_AT_begin_line(0x471)
    1369                      .dwattr DW$84, DW_AT_begin_column(0x07)
    1370                      .dwpsn  "./os_core.c",1138,1
    1371              
    1372                      .dwfde DW$CIE
    1373              
    1374              ;***************************************************************
    1375              ;* FNAME: _OS_EventTaskWait             FR SIZE:   4           *
    1376              ;*                                                             *
    1377              ;* FUNCTION ENVIRONMENT                                        *
    1378              ;*                                                             *
    1379              ;* FUNCTION PROPERTIES                                         *
    1380              ;*                            0 Parameter,  3 Auto,  0 SOE     *
    1381              ;***************************************************************
    1382              
    1383              _OS_EventTaskWait:
    1384                      .dwcfa  0x1d, -2
TMS320C2000 COFF Assembler PC v4.1.3 Thu Jul 15 08:50:48 2010

Tools Copyright (c) 1996-2006 Texas Instruments Incorporated
C:\DOCUME~1\ADMINI~1\LOCALS~1\Temp\TI6202                            PAGE   27

    1385                      .dwcfa  0x1c, 26, 0
    1386                      .dwcfa  0x09, 40, 26
    1387 0000013c FE04          ADDB      SP,#4
    1388                      .dwcfa  0x1d, -6
    1389              ;* AR4   assigned to _pevent
    1390              DW$85   .dwtag  DW_TAG_formal_parameter, DW_AT_name("pevent"), DW_AT_symbol_name("_pevent")
    1391                      .dwattr DW$85, DW_AT_type(*DW$T$28)
    1392                      .dwattr DW$85, DW_AT_location[DW_OP_reg12]
    1393              DW$86   .dwtag  DW_TAG_variable, DW_AT_name("pevent"), DW_AT_symbol_name("_pevent")
    1394                      .dwattr DW$86, DW_AT_type(*DW$T$28)
    1395                      .dwattr DW$86, DW_AT_location[DW_OP_breg20 -2]
    1396              DW$87   .dwtag  DW_TAG_variable, DW_AT_name("y"), DW_AT_symbol_name("_y")
    1397                      .dwattr DW$87, DW_AT_type(*DW$T$19)
    1398                      .dwattr DW$87, DW_AT_location[DW_OP_breg20 -3]
    1399 0000013d A842          MOVL      *-SP[2],XAR4          ; |1138| 
    1400                      .dwpsn  "./os_core.c",1142,2
    1401 0000013e 761F-         MOVW      DP,#_OSTCBCur
         0000013f 0000 
    1402 00000140 8A0C-         MOVL      XAR4,@_OSTCBCur       ; |1142| 
    1403 00000141 0642          MOVL      ACC,*-SP[2]           ; |1142| 
    1404 00000142 1EF4          MOVL      *+XAR4[6],ACC         ; |1142| 
    1405                      .dwpsn  "./os_core.c",1144,2
    1406 00000143 8A0C-         MOVL      XAR4,@_OSTCBCur       ; |1144| 
    1407 00000144 D00F          MOVB      XAR0,#15              ; |1144| 
    1408 00000145 8894          MOVZ      AR6,*+XAR4[AR0]       ; |1144| 
    1409 00000146 0642          MOVL      ACC,*-SP[2]           ; |1144| 
    1410 00000147 0DA6          ADDU      ACC,AR6               ; |1144| 
    1411 00000148 8A0C-         MOVL      XAR4,@_OSTCBCur       ; |1144| 
    1412 00000149 0906          ADDB      ACC,#6                ; |1144| 
    1413 0000014a 83A9          MOVL      XAR5,ACC              ; |1144| 
    1414 0000014b D010          MOVB      XAR0,#16              ; |1144| 
    1415 0000014c 9294          MOV       AL,*+XAR4[AR0]        ; |1144| 
    1416 0000014d 98C5          OR        *+XAR5[0],AL          ; |1144| 
    1417                      .dwpsn  "./os_core.c",1145,2
    1418 0000014e 8A0C-         MOVL      XAR4,@_OSTCBCur       ; |1145| 
    1419 0000014f 8342          MOVL      XAR5,*-SP[2]          ; |1145| 
    1420 00000150 D011          MOVB      XAR0,#17              ; |1145| 
    1421 00000151 9294          MOV       AL,*+XAR4[AR0]        ; |1145| 
    1422 00000152 98ED          OR        *+XAR5[5],AL          ; |1145| 
    1423                      .dwpsn  "./os_core.c",1147,2
    1424 00000153 8A0C-         MOVL      XAR4,@_OSTCBCur       ; |1147| 
    1425 00000154 D00F          MOVB      XAR0,#15              ; |1147| 
    1426 00000155 9294          MOV       AL,*+XAR4[AR0]        ; |1147| 
    1427 00000156 9643          MOV       *-SP[3],AL            ; |1147| 
    1428                      .dwpsn  "./os_core.c",1148,2
    1429 00000157 8843          MOVZ      AR6,*-SP[3]           ; |1148| 
    1430 00000158 8F00-         MOVL      XAR4,#_OSRdyTbl       ; |1148| 
         00000159 0018 
    1431 0000015a A8A9          MOVL      ACC,XAR4              ; |1148| 
    1432 0000015b 830C-         MOVL      XAR5,@_OSTCBCur       ; |1148| 
    1433 0000015c 0DA6          ADDU      ACC,AR6               ; |1148| 
    1434 0000015d 8AA9          MOVL      XAR4,ACC              ; |1148| 
    1435 0000015e D010          MOVB      XAR0,#16              ; |1148| 
    1436 0000015f 9295          MOV       AL,*+XAR5[AR0]        ; |1148| 
    1437 00000160 FF5E          NOT       AL                    ; |1148| 
TMS320C2000 COFF Assembler PC v4.1.3 Thu Jul 15 08:50:48 2010

Tools Copyright (c) 1996-2006 Texas Instruments Incorporated
C:\DOCUME~1\ADMINI~1\LOCALS~1\Temp\TI6202                            PAGE   28

    1438 00000161 C0C4          AND       *+XAR4[0],AL          ; |1148| 
    1439                      .dwpsn  "./os_core.c",1149,2
    1440 00000162 5843          MOVZ      AR0,*-SP[3]           ; |1149| 
    1441 00000163 8F00-         MOVL      XAR4,#_OSRdyTbl       ; |1149| 
         00000164 0018 
    1442 00000165 9294          MOV       AL,*+XAR4[AR0]        ; |1149| 
    1443 00000166 ED06          BF        L20,NEQ               ; |1149| 
    1444                      ; branchcc occurs ; |1149| 
    1445                      .dwpsn  "./os_core.c",1151,3
    1446 00000167 8A0C-         MOVL      XAR4,@_OSTCBCur       ; |1151| 
    1447 00000168 D011          MOVB      XAR0,#17              ; |1151| 
    1448 00000169 9294          MOV       AL,*+XAR4[AR0]        ; |1151| 
    1449 0000016a FF5E          NOT       AL                    ; |1151| 
    1450 0000016b C001-         AND       @_OSRdyGrp,AL         ; |1151| 
    1451                      .dwpsn  "./os_core.c",1152,2
    1452              L20:    
    1453                      .dwpsn  "./os_core.c",1153,1
    1454 0000016c FE84          SUBB      SP,#4
    1455                      .dwcfa  0x1d, -2
    1456 0000016d 0006          LRETR
    1457                      ; return occurs
    1458                      .dwattr DW$84, DW_AT_end_file("./os_core.c")
    1459                      .dwattr DW$84, DW_AT_end_line(0x481)
    1460                      .dwattr DW$84, DW_AT_end_column(0x01)
    1461                      .dwendentry
    1462                      .dwendtag DW$84
    1463              
    1464 0000016e               .sect   ".text"
    1465                      .global _OS_EventTaskRemove
    1466              
    1467              DW$88   .dwtag  DW_TAG_subprogram, DW_AT_name("OS_EventTaskRemove"), DW_AT_symbol_name("_OS_EventTaskRemove")
    1468                      .dwattr DW$88, DW_AT_low_pc(_OS_EventTaskRemove)
    1469                      .dwattr DW$88, DW_AT_high_pc(0x00)
    1470                      .dwattr DW$88, DW_AT_begin_file("./os_core.c")
    1471                      .dwattr DW$88, DW_AT_begin_line(0x4c1)
    1472                      .dwattr DW$88, DW_AT_begin_column(0x07)
    1473                      .dwpsn  "./os_core.c",1219,1
    1474              
    1475                      .dwfde DW$CIE
    1476              
    1477              ;***************************************************************
    1478              ;* FNAME: _OS_EventTaskRemove           FR SIZE:   6           *
    1479              ;*                                                             *
    1480              ;* FUNCTION ENVIRONMENT                                        *
    1481              ;*                                                             *
    1482              ;* FUNCTION PROPERTIES                                         *
    1483              ;*                            0 Parameter,  5 Auto,  0 SOE     *
    1484              ;***************************************************************
    1485              
    1486              _OS_EventTaskRemove:
    1487                      .dwcfa  0x1d, -2
    1488                      .dwcfa  0x1c, 26, 0
    1489                      .dwcfa  0x09, 40, 26
    1490 0000016e FE06          ADDB      SP,#6
    1491                      .dwcfa  0x1d, -8
TMS320C2000 COFF Assembler PC v4.1.3 Thu Jul 15 08:50:48 2010

Tools Copyright (c) 1996-2006 Texas Instruments Incorporated
C:\DOCUME~1\ADMINI~1\LOCALS~1\Temp\TI6202                            PAGE   29

    1492              ;* AR4   assigned to _ptcb
    1493              DW$89   .dwtag  DW_TAG_formal_parameter, DW_AT_name("ptcb"), DW_AT_symbol_name("_ptcb")
    1494                      .dwattr DW$89, DW_AT_type(*DW$T$38)
    1495                      .dwattr DW$89, DW_AT_location[DW_OP_reg12]
    1496              ;* AR5   assigned to _pevent
    1497              DW$90   .dwtag  DW_TAG_formal_parameter, DW_AT_name("pevent"), DW_AT_symbol_name("_pevent")
    1498                      .dwattr DW$90, DW_AT_type(*DW$T$28)
    1499                      .dwattr DW$90, DW_AT_location[DW_OP_reg14]
    1500              DW$91   .dwtag  DW_TAG_variable, DW_AT_name("ptcb"), DW_AT_symbol_name("_ptcb")
    1501                      .dwattr DW$91, DW_AT_type(*DW$T$38)
    1502                      .dwattr DW$91, DW_AT_location[DW_OP_breg20 -2]
    1503              DW$92   .dwtag  DW_TAG_variable, DW_AT_name("pevent"), DW_AT_symbol_name("_pevent")
    1504                      .dwattr DW$92, DW_AT_type(*DW$T$28)
    1505                      .dwattr DW$92, DW_AT_location[DW_OP_breg20 -4]
    1506              DW$93   .dwtag  DW_TAG_variable, DW_AT_name("y"), DW_AT_symbol_name("_y")
    1507                      .dwattr DW$93, DW_AT_type(*DW$T$19)
    1508                      .dwattr DW$93, DW_AT_location[DW_OP_breg20 -5]
    1509 0000016f A044          MOVL      *-SP[4],XAR5          ; |1219| 
    1510 00000170 A842          MOVL      *-SP[2],XAR4          ; |1219| 
    1511                      .dwpsn  "./os_core.c",1223,2
    1512 00000171 8A42          MOVL      XAR4,*-SP[2]          ; |1223| 
    1513 00000172 D00F          MOVB      XAR0,#15              ; |1223| 
    1514 00000173 9294          MOV       AL,*+XAR4[AR0]        ; |1223| 
    1515 00000174 9645          MOV       *-SP[5],AL            ; |1223| 
    1516                      .dwpsn  "./os_core.c",1224,2
    1517 00000175 8845          MOVZ      AR6,*-SP[5]           ; |1224| 
    1518 00000176 0644          MOVL      ACC,*-SP[4]           ; |1224| 
    1519 00000177 0DA6          ADDU      ACC,AR6               ; |1224| 
    1520 00000178 8A42          MOVL      XAR4,*-SP[2]          ; |1224| 
    1521 00000179 0906          ADDB      ACC,#6                ; |1224| 
    1522 0000017a 83A9          MOVL      XAR5,ACC              ; |1224| 
    1523 0000017b D010          MOVB      XAR0,#16              ; |1224| 
    1524 0000017c 9294          MOV       AL,*+XAR4[AR0]        ; |1224| 
    1525 0000017d FF5E          NOT       AL                    ; |1224| 
    1526 0000017e C0C5          AND       *+XAR5[0],AL          ; |1224| 
    1527                      .dwpsn  "./os_core.c",1225,2
    1528 0000017f 8845          MOVZ      AR6,*-SP[5]           ; |1225| 
    1529 00000180 0644          MOVL      ACC,*-SP[4]           ; |1225| 
    1530 00000181 0DA6          ADDU      ACC,AR6               ; |1225| 
    1531 00000182 8AA9          MOVL      XAR4,ACC              ; |1225| 
    1532 00000183 92F4          MOV       AL,*+XAR4[6]          ; |1225| 
    1533 00000184 ED07          BF        L21,NEQ               ; |1225| 
    1534                      ; branchcc occurs ; |1225| 
    1535                      .dwpsn  "./os_core.c",1227,3
    1536 00000185 8A42          MOVL      XAR4,*-SP[2]          ; |1227| 
    1537 00000186 8344          MOVL      XAR5,*-SP[4]          ; |1227| 
    1538 00000187 D011          MOVB      XAR0,#17              ; |1227| 
    1539 00000188 9294          MOV       AL,*+XAR4[AR0]        ; |1227| 
    1540 00000189 FF5E          NOT       AL                    ; |1227| 
    1541 0000018a C0ED          AND       *+XAR5[5],AL          ; |1227| 
    1542                      .dwpsn  "./os_core.c",1228,2
    1543              L21:    
    1544                      .dwpsn  "./os_core.c",1229,1
    1545 0000018b FE86          SUBB      SP,#6
    1546                      .dwcfa  0x1d, -2
TMS320C2000 COFF Assembler PC v4.1.3 Thu Jul 15 08:50:48 2010

Tools Copyright (c) 1996-2006 Texas Instruments Incorporated
C:\DOCUME~1\ADMINI~1\LOCALS~1\Temp\TI6202                            PAGE   30

    1547 0000018c 0006          LRETR
    1548                      ; return occurs
    1549                      .dwattr DW$88, DW_AT_end_file("./os_core.c")
    1550                      .dwattr DW$88, DW_AT_end_line(0x4cd)
    1551                      .dwattr DW$88, DW_AT_end_column(0x01)
    1552                      .dwendentry
    1553                      .dwendtag DW$88
    1554              
    1555 0000018d               .sect   ".text"
    1556                      .global _OS_EventWaitListInit
    1557              
    1558              DW$94   .dwtag  DW_TAG_subprogram, DW_AT_name("OS_EventWaitListInit"), DW_AT_symbol_name("_OS_EventWaitListIn
    1559                      .dwattr DW$94, DW_AT_low_pc(_OS_EventWaitListInit)
    1560                      .dwattr DW$94, DW_AT_high_pc(0x00)
    1561                      .dwattr DW$94, DW_AT_begin_file("./os_core.c")
    1562                      .dwattr DW$94, DW_AT_begin_line(0x50f)
    1563                      .dwattr DW$94, DW_AT_begin_column(0x07)
    1564                      .dwpsn  "./os_core.c",1296,1
    1565              
    1566                      .dwfde DW$CIE
    1567              
    1568              ;***************************************************************
    1569              ;* FNAME: _OS_EventWaitListInit         FR SIZE:   6           *
    1570              ;*                                                             *
    1571              ;* FUNCTION ENVIRONMENT                                        *
    1572              ;*                                                             *
    1573              ;* FUNCTION PROPERTIES                                         *
    1574              ;*                            0 Parameter,  5 Auto,  0 SOE     *
    1575              ;***************************************************************
    1576              
    1577              _OS_EventWaitListInit:
    1578                      .dwcfa  0x1d, -2
    1579                      .dwcfa  0x1c, 26, 0
    1580                      .dwcfa  0x09, 40, 26
    1581 0000018d FE06          ADDB      SP,#6
    1582                      .dwcfa  0x1d, -8
    1583              ;* AR4   assigned to _pevent
    1584              DW$95   .dwtag  DW_TAG_formal_parameter, DW_AT_name("pevent"), DW_AT_symbol_name("_pevent")
    1585                      .dwattr DW$95, DW_AT_type(*DW$T$28)
    1586                      .dwattr DW$95, DW_AT_location[DW_OP_reg12]
    1587              DW$96   .dwtag  DW_TAG_variable, DW_AT_name("pevent"), DW_AT_symbol_name("_pevent")
    1588                      .dwattr DW$96, DW_AT_type(*DW$T$28)
    1589                      .dwattr DW$96, DW_AT_location[DW_OP_breg20 -2]
    1590              DW$97   .dwtag  DW_TAG_variable, DW_AT_name("ptbl"), DW_AT_symbol_name("_ptbl")
    1591                      .dwattr DW$97, DW_AT_type(*DW$T$33)
    1592                      .dwattr DW$97, DW_AT_location[DW_OP_breg20 -4]
    1593              DW$98   .dwtag  DW_TAG_variable, DW_AT_name("i"), DW_AT_symbol_name("_i")
    1594                      .dwattr DW$98, DW_AT_type(*DW$T$19)
    1595                      .dwattr DW$98, DW_AT_location[DW_OP_breg20 -5]
    1596 0000018e A842          MOVL      *-SP[2],XAR4          ; |1296| 
    1597                      .dwpsn  "./os_core.c",1305,2
    1598 0000018f 8A42          MOVL      XAR4,*-SP[2]          ; |1305| 
    1599 00000190 2BEC          MOV       *+XAR4[5],#0          ; |1305| 
    1600                      .dwpsn  "./os_core.c",1306,2
    1601 00000191 0642          MOVL      ACC,*-SP[2]           ; |1306| 
TMS320C2000 COFF Assembler PC v4.1.3 Thu Jul 15 08:50:48 2010

Tools Copyright (c) 1996-2006 Texas Instruments Incorporated
C:\DOCUME~1\ADMINI~1\LOCALS~1\Temp\TI6202                            PAGE   31

    1602 00000192 0906          ADDB      ACC,#6                ; |1306| 
    1603 00000193 1E44          MOVL      *-SP[4],ACC           ; |1306| 
    1604                      .dwpsn  "./os_core.c",1308,8
    1605 00000194 2B45          MOV       *-SP[5],#0            ; |1308| 
    1606                      .dwpsn  "./os_core.c",1308,15
    1607 00000195 9245          MOV       AL,*-SP[5]            ; |1308| 
    1608 00000196 5208          CMPB      AL,#8                 ; |1308| 
    1609 00000197 670A          B         L23,HIS               ; |1308| 
    1610                      ; branchcc occurs ; |1308| 
    1611              L22:    
    1612              DW$L$_OS_EventWaitListInit$2$B:
    1613                      .dwpsn  "./os_core.c",1310,3
    1614 00000198 8A44          MOVL      XAR4,*-SP[4]          ; |1310| 
    1615 00000199 0201          MOVB      ACC,#1
    1616 0000019a 07A4          ADDL      ACC,XAR4
    1617 0000019b 1E44          MOVL      *-SP[4],ACC           ; |1310| 
    1618 0000019c 2BC4          MOV       *+XAR4[0],#0          ; |1310| 
    1619                      .dwpsn  "./os_core.c",1308,38
    1620 0000019d 0A45          INC       *-SP[5]               ; |1308| 
    1621                      .dwpsn  "./os_core.c",1308,15
    1622 0000019e 9245          MOV       AL,*-SP[5]            ; |1308| 
    1623 0000019f 5208          CMPB      AL,#8                 ; |1308| 
    1624 000001a0 68F8          B         L22,LO                ; |1308| 
    1625                      ; branchcc occurs ; |1308| 
    1626              DW$L$_OS_EventWaitListInit$2$E:
    1627              L23:    
    1628                      .dwpsn  "./os_core.c",1312,1
    1629 000001a1 FE86          SUBB      SP,#6
    1630                      .dwcfa  0x1d, -2
    1631 000001a2 0006          LRETR
    1632                      ; return occurs
    1633              
    1634              DW$99   .dwtag  DW_TAG_loop
    1635                      .dwattr DW$99, DW_AT_name("C:\DOCUME~1\ADMINI~1\LOCALS~1\Temp\TI6202:L22:1:1279155047")
    1636                      .dwattr DW$99, DW_AT_begin_file("./os_core.c")
    1637                      .dwattr DW$99, DW_AT_begin_line(0x51c)
    1638                      .dwattr DW$99, DW_AT_end_line(0x51f)
    1639              DW$100  .dwtag  DW_TAG_loop_range
    1640                      .dwattr DW$100, DW_AT_low_pc(DW$L$_OS_EventWaitListInit$2$B)
    1641                      .dwattr DW$100, DW_AT_high_pc(DW$L$_OS_EventWaitListInit$2$E)
    1642                      .dwendtag DW$99
    1643              
    1644                      .dwattr DW$94, DW_AT_end_file("./os_core.c")
    1645                      .dwattr DW$94, DW_AT_end_line(0x520)
    1646                      .dwattr DW$94, DW_AT_end_column(0x01)
    1647                      .dwendentry
    1648                      .dwendtag DW$94
    1649              
    1650 000001a3               .sect   ".text"
    1651              
    1652              DW$101  .dwtag  DW_TAG_subprogram, DW_AT_name("OS_InitEventList"), DW_AT_symbol_name("_OS_InitEventList")
    1653                      .dwattr DW$101, DW_AT_low_pc(_OS_InitEventList)
    1654                      .dwattr DW$101, DW_AT_high_pc(0x00)
    1655                      .dwattr DW$101, DW_AT_begin_file("./os_core.c")
    1656                      .dwattr DW$101, DW_AT_begin_line(0x52f)
TMS320C2000 COFF Assembler PC v4.1.3 Thu Jul 15 08:50:48 2010

Tools Copyright (c) 1996-2006 Texas Instruments Incorporated
C:\DOCUME~1\ADMINI~1\LOCALS~1\Temp\TI6202                            PAGE   32

    1657                      .dwattr DW$101, DW_AT_begin_column(0x0f)
    1658                      .dwpsn  "./os_core.c",1328,1
    1659              
    1660                      .dwfde DW$CIE
    1661              
    1662              ;***************************************************************
    1663              ;* FNAME: _OS_InitEventList             FR SIZE:   6           *
    1664              ;*                                                             *
    1665              ;* FUNCTION ENVIRONMENT                                        *
    1666              ;*                                                             *
    1667              ;* FUNCTION PROPERTIES                                         *
    1668              ;*                            0 Parameter,  6 Auto,  0 SOE     *
    1669              ;***************************************************************
    1670              
    1671              _OS_InitEventList:
    1672                      .dwcfa  0x1d, -2
    1673                      .dwcfa  0x1c, 26, 0
    1674                      .dwcfa  0x09, 40, 26
    1675 000001a3 FE06          ADDB      SP,#6
    1676                      .dwcfa  0x1d, -8
    1677              DW$102  .dwtag  DW_TAG_variable, DW_AT_name("i"), DW_AT_symbol_name("_i")
    1678                      .dwattr DW$102, DW_AT_type(*DW$T$20)
    1679                      .dwattr DW$102, DW_AT_location[DW_OP_breg20 -1]
    1680              DW$103  .dwtag  DW_TAG_variable, DW_AT_name("pevent1"), DW_AT_symbol_name("_pevent1")
    1681                      .dwattr DW$103, DW_AT_type(*DW$T$28)
    1682                      .dwattr DW$103, DW_AT_location[DW_OP_breg20 -4]
    1683              DW$104  .dwtag  DW_TAG_variable, DW_AT_name("pevent2"), DW_AT_symbol_name("_pevent2")
    1684                      .dwattr DW$104, DW_AT_type(*DW$T$28)
    1685                      .dwattr DW$104, DW_AT_location[DW_OP_breg20 -6]
    1686                      .dwpsn  "./os_core.c",1336,2
    1687 000001a4 28A9          MOV       AL,#600               ; |1336| 
         000001a5 0258 
    1688 000001a6 8F00-         MOVL      XAR4,#_OSEventTbl     ; |1336| 
         000001a7 02C0 
    1689 000001a8 7640'         LCR       #_OS_MemClr           ; |1336| 
         000001a9 023C 
    1690                      ; call occurs [#_OS_MemClr] ; |1336| 
    1691                      .dwpsn  "./os_core.c",1337,2
    1692 000001aa 8F00-         MOVL      XAR4,#_OSEventTbl     ; |1337| 
         000001ab 02C0 
    1693 000001ac A844          MOVL      *-SP[4],XAR4          ; |1337| 
    1694                      .dwpsn  "./os_core.c",1338,2
    1695 000001ad 8F00-         MOVL      XAR4,#_OSEventTbl+30  ; |1338| 
         000001ae 02DE 
    1696 000001af A846          MOVL      *-SP[6],XAR4          ; |1338| 
    1697                      .dwpsn  "./os_core.c",1339,8
    1698 000001b0 2B41          MOV       *-SP[1],#0            ; |1339| 
    1699                      .dwpsn  "./os_core.c",1339,15
    1700 000001b1 9241          MOV       AL,*-SP[1]            ; |1339| 
    1701 000001b2 5213          CMPB      AL,#19                ; |1339| 
    1702 000001b3 6716          B         L25,HIS               ; |1339| 
    1703                      ; branchcc occurs ; |1339| 
    1704              L24:    
    1705              DW$L$_OS_InitEventList$2$B:
    1706                      .dwpsn  "./os_core.c",1341,3
TMS320C2000 COFF Assembler PC v4.1.3 Thu Jul 15 08:50:48 2010

Tools Copyright (c) 1996-2006 Texas Instruments Incorporated
C:\DOCUME~1\ADMINI~1\LOCALS~1\Temp\TI6202                            PAGE   33

    1707 000001b4 8A44          MOVL      XAR4,*-SP[4]          ; |1341| 
    1708 000001b5 2BC4          MOV       *+XAR4[0],#0          ; |1341| 
    1709                      .dwpsn  "./os_core.c",1342,3
    1710 000001b6 8A44          MOVL      XAR4,*-SP[4]          ; |1342| 
    1711 000001b7 0646          MOVL      ACC,*-SP[6]           ; |1342| 
    1712 000001b8 1ED4          MOVL      *+XAR4[2],ACC         ; |1342| 
    1713                      .dwpsn  "./os_core.c",1344,3
    1714 000001b9 8A44          MOVL      XAR4,*-SP[4]          ; |1344| 
    1715 000001ba D00E          MOVB      XAR0,#14              ; |1344| 
    1716 000001bb 2894          MOV       *+XAR4[AR0],#63       ; |1344| 
         000001bc 003F 
    1717                      .dwpsn  "./os_core.c",1345,3
    1718 000001bd 8A44          MOVL      XAR4,*-SP[4]          ; |1345| 
    1719 000001be D00F          MOVB      XAR0,#15              ; |1345| 
    1720 000001bf 2B94          MOV       *+XAR4[AR0],#0        ; |1345| 
    1721                      .dwpsn  "./os_core.c",1347,3
    1722 000001c0 021E          MOVB      ACC,#30
    1723 000001c1 5601          ADDL      *-SP[4],ACC           ; |1347| 
         000001c2 0044 
    1724                      .dwpsn  "./os_core.c",1348,3
    1725 000001c3 5601          ADDL      *-SP[6],ACC           ; |1348| 
         000001c4 0046 
    1726                      .dwpsn  "./os_core.c",1339,42
    1727 000001c5 0A41          INC       *-SP[1]               ; |1339| 
    1728                      .dwpsn  "./os_core.c",1339,15
    1729 000001c6 9241          MOV       AL,*-SP[1]            ; |1339| 
    1730 000001c7 5213          CMPB      AL,#19                ; |1339| 
    1731 000001c8 68EC          B         L24,LO                ; |1339| 
    1732                      ; branchcc occurs ; |1339| 
    1733              DW$L$_OS_InitEventList$2$E:
    1734              L25:    
    1735                      .dwpsn  "./os_core.c",1350,2
    1736 000001c9 8A44          MOVL      XAR4,*-SP[4]          ; |1350| 
    1737 000001ca 2BC4          MOV       *+XAR4[0],#0          ; |1350| 
    1738                      .dwpsn  "./os_core.c",1351,2
    1739 000001cb 8A44          MOVL      XAR4,*-SP[4]          ; |1351| 
    1740 000001cc 0200          MOVB      ACC,#0
    1741 000001cd 1ED4          MOVL      *+XAR4[2],ACC         ; |1351| 
    1742                      .dwpsn  "./os_core.c",1353,2
    1743 000001ce 8A44          MOVL      XAR4,*-SP[4]          ; |1353| 
    1744 000001cf D00E          MOVB      XAR0,#14              ; |1353| 
    1745 000001d0 2894          MOV       *+XAR4[AR0],#63       ; |1353| 
         000001d1 003F 
    1746                      .dwpsn  "./os_core.c",1354,2
    1747 000001d2 8A44          MOVL      XAR4,*-SP[4]          ; |1354| 
    1748 000001d3 D00F          MOVB      XAR0,#15              ; |1354| 
    1749 000001d4 2B94          MOV       *+XAR4[AR0],#0        ; |1354| 
    1750                      .dwpsn  "./os_core.c",1356,2
    1751 000001d5 761F-         MOVW      DP,#_OSEventFreeList
         000001d6 0000 
    1752 000001d7 8F00-         MOVL      XAR4,#_OSEventTbl     ; |1356| 
         000001d8 02C0 
    1753 000001d9 A816-         MOVL      @_OSEventFreeList,XAR4 ; |1356| 
    1754                      .dwpsn  "./os_core.c",1367,1
    1755 000001da FE86          SUBB      SP,#6
TMS320C2000 COFF Assembler PC v4.1.3 Thu Jul 15 08:50:48 2010

Tools Copyright (c) 1996-2006 Texas Instruments Incorporated
C:\DOCUME~1\ADMINI~1\LOCALS~1\Temp\TI6202                            PAGE   34

    1756                      .dwcfa  0x1d, -2
    1757 000001db 0006          LRETR
    1758                      ; return occurs
    1759              
    1760              DW$105  .dwtag  DW_TAG_loop
    1761                      .dwattr DW$105, DW_AT_name("C:\DOCUME~1\ADMINI~1\LOCALS~1\Temp\TI6202:L24:1:1279155047")
    1762                      .dwattr DW$105, DW_AT_begin_file("./os_core.c")
    1763                      .dwattr DW$105, DW_AT_begin_line(0x53b)
    1764                      .dwattr DW$105, DW_AT_end_line(0x545)
    1765              DW$106  .dwtag  DW_TAG_loop_range
    1766                      .dwattr DW$106, DW_AT_low_pc(DW$L$_OS_InitEventList$2$B)
    1767                      .dwattr DW$106, DW_AT_high_pc(DW$L$_OS_InitEventList$2$E)
    1768                      .dwendtag DW$105
    1769              
    1770                      .dwattr DW$101, DW_AT_end_file("./os_core.c")
    1771                      .dwattr DW$101, DW_AT_end_line(0x557)
    1772                      .dwattr DW$101, DW_AT_end_column(0x01)
    1773                      .dwendentry
    1774                      .dwendtag DW$101
    1775              
    1776 000001dc               .sect   ".text"
    1777              
    1778              DW$107  .dwtag  DW_TAG_subprogram, DW_AT_name("OS_InitMisc"), DW_AT_symbol_name("_OS_InitMisc")
    1779                      .dwattr DW$107, DW_AT_low_pc(_OS_InitMisc)
    1780                      .dwattr DW$107, DW_AT_high_pc(0x00)
    1781                      .dwattr DW$107, DW_AT_begin_file("./os_core.c")
    1782                      .dwattr DW$107, DW_AT_begin_line(0x566)
    1783                      .dwattr DW$107, DW_AT_begin_column(0x0f)
    1784                      .dwpsn  "./os_core.c",1383,1
    1785              
    1786                      .dwfde DW$CIE
    1787              
    1788              ;***************************************************************
    1789              ;* FNAME: _OS_InitMisc                  FR SIZE:   0           *
    1790              ;*                                                             *
    1791              ;* FUNCTION ENVIRONMENT                                        *
    1792              ;*                                                             *
    1793              ;* FUNCTION PROPERTIES                                         *
    1794              ;*                            0 Parameter,  0 Auto,  0 SOE     *
    1795              ;***************************************************************
    1796              
    1797              _OS_InitMisc:
    1798                      .dwcfa  0x1d, -2
    1799                      .dwcfa  0x1c, 26, 0
    1800                      .dwcfa  0x09, 40, 26
    1801                      .dwpsn  "./os_core.c",1388,2
    1802 000001dc 761F-         MOVW      DP,#_OSIntNesting
         000001dd 0000 
    1803 000001de 2B06-         MOV       @_OSIntNesting,#0     ; |1388| 
    1804                      .dwpsn  "./os_core.c",1389,2
    1805 000001df 2B04-         MOV       @_OSLockNesting,#0    ; |1389| 
    1806                      .dwpsn  "./os_core.c",1391,2
    1807 000001e0 2B03-         MOV       @_OSTaskCtr,#0        ; |1391| 
    1808                      .dwpsn  "./os_core.c",1393,2
    1809 000001e1 2B05-         MOV       @_OSRunning,#0        ; |1393| 
TMS320C2000 COFF Assembler PC v4.1.3 Thu Jul 15 08:50:48 2010

Tools Copyright (c) 1996-2006 Texas Instruments Incorporated
C:\DOCUME~1\ADMINI~1\LOCALS~1\Temp\TI6202                            PAGE   35

    1810                      .dwpsn  "./os_core.c",1395,2
    1811 000001e2 0200          MOVB      ACC,#0
    1812 000001e3 1E12-         MOVL      @_OSCtxSwCtr,ACC      ; |1395| 
    1813                      .dwpsn  "./os_core.c",1396,2
    1814 000001e4 1E14-         MOVL      @_OSIdleCtr,ACC       ; |1396| 
    1815                      .dwpsn  "./os_core.c",1403,1
    1816 000001e5 0006          LRETR
    1817                      ; return occurs
    1818                      .dwattr DW$107, DW_AT_end_file("./os_core.c")
    1819                      .dwattr DW$107, DW_AT_end_line(0x57b)
    1820                      .dwattr DW$107, DW_AT_end_column(0x01)
    1821                      .dwendentry
    1822                      .dwendtag DW$107
    1823              
    1824 000001e6               .sect   ".text"
    1825              
    1826              DW$108  .dwtag  DW_TAG_subprogram, DW_AT_name("OS_InitRdyList"), DW_AT_symbol_name("_OS_InitRdyList")
    1827                      .dwattr DW$108, DW_AT_low_pc(_OS_InitRdyList)
    1828                      .dwattr DW$108, DW_AT_high_pc(0x00)
    1829                      .dwattr DW$108, DW_AT_begin_file("./os_core.c")
    1830                      .dwattr DW$108, DW_AT_begin_line(0x58a)
    1831                      .dwattr DW$108, DW_AT_begin_column(0x0f)
    1832                      .dwpsn  "./os_core.c",1419,1
    1833              
    1834                      .dwfde DW$CIE
    1835              
    1836              ;***************************************************************
    1837              ;* FNAME: _OS_InitRdyList               FR SIZE:   4           *
    1838              ;*                                                             *
    1839              ;* FUNCTION ENVIRONMENT                                        *
    1840              ;*                                                             *
    1841              ;* FUNCTION PROPERTIES                                         *
    1842              ;*                            0 Parameter,  4 Auto,  0 SOE     *
    1843              ;***************************************************************
    1844              
    1845              _OS_InitRdyList:
    1846                      .dwcfa  0x1d, -2
    1847                      .dwcfa  0x1c, 26, 0
    1848                      .dwcfa  0x09, 40, 26
    1849 000001e6 FE04          ADDB      SP,#4
    1850                      .dwcfa  0x1d, -6
    1851              DW$109  .dwtag  DW_TAG_variable, DW_AT_name("i"), DW_AT_symbol_name("_i")
    1852                      .dwattr DW$109, DW_AT_type(*DW$T$19)
    1853                      .dwattr DW$109, DW_AT_location[DW_OP_breg20 -1]
    1854              DW$110  .dwtag  DW_TAG_variable, DW_AT_name("prdytbl"), DW_AT_symbol_name("_prdytbl")
    1855                      .dwattr DW$110, DW_AT_type(*DW$T$33)
    1856                      .dwattr DW$110, DW_AT_location[DW_OP_breg20 -4]
    1857                      .dwpsn  "./os_core.c",1428,2
    1858 000001e7 761F-         MOVW      DP,#_OSRdyGrp
         000001e8 0000 
    1859 000001e9 2B01-         MOV       @_OSRdyGrp,#0         ; |1428| 
    1860                      .dwpsn  "./os_core.c",1429,2
    1861 000001ea 8F00-         MOVL      XAR4,#_OSRdyTbl       ; |1429| 
         000001eb 0018 
    1862 000001ec A844          MOVL      *-SP[4],XAR4          ; |1429| 
TMS320C2000 COFF Assembler PC v4.1.3 Thu Jul 15 08:50:48 2010

Tools Copyright (c) 1996-2006 Texas Instruments Incorporated
C:\DOCUME~1\ADMINI~1\LOCALS~1\Temp\TI6202                            PAGE   36

    1863                      .dwpsn  "./os_core.c",1430,8
    1864 000001ed 2B41          MOV       *-SP[1],#0            ; |1430| 
    1865                      .dwpsn  "./os_core.c",1430,15
    1866 000001ee 9241          MOV       AL,*-SP[1]            ; |1430| 
    1867 000001ef 5208          CMPB      AL,#8                 ; |1430| 
    1868 000001f0 670A          B         L27,HIS               ; |1430| 
    1869                      ; branchcc occurs ; |1430| 
    1870              L26:    
    1871              DW$L$_OS_InitRdyList$2$B:
    1872                      .dwpsn  "./os_core.c",1432,3
    1873 000001f1 8A44          MOVL      XAR4,*-SP[4]          ; |1432| 
    1874 000001f2 0201          MOVB      ACC,#1
    1875 000001f3 07A4          ADDL      ACC,XAR4
    1876 000001f4 1E44          MOVL      *-SP[4],ACC           ; |1432| 
    1877 000001f5 2BC4          MOV       *+XAR4[0],#0          ; |1432| 
    1878                      .dwpsn  "./os_core.c",1430,36
    1879 000001f6 0A41          INC       *-SP[1]               ; |1430| 
    1880                      .dwpsn  "./os_core.c",1430,15
    1881 000001f7 9241          MOV       AL,*-SP[1]            ; |1430| 
    1882 000001f8 5208          CMPB      AL,#8                 ; |1430| 
    1883 000001f9 68F8          B         L26,LO                ; |1430| 
    1884                      ; branchcc occurs ; |1430| 
    1885              DW$L$_OS_InitRdyList$2$E:
    1886              L27:    
    1887                      .dwpsn  "./os_core.c",1435,2
    1888 000001fa 761F-         MOVW      DP,#_OSPrioCur
         000001fb 0000 
    1889 000001fc 2B02-         MOV       @_OSPrioCur,#0        ; |1435| 
    1890                      .dwpsn  "./os_core.c",1436,2
    1891 000001fd 2B00-         MOV       @_OSPrioHighRdy,#0    ; |1436| 
    1892                      .dwpsn  "./os_core.c",1438,2
    1893 000001fe 0200          MOVB      ACC,#0
    1894 000001ff 1E0E-         MOVL      @_OSTCBHighRdy,ACC    ; |1438| 
    1895                      .dwpsn  "./os_core.c",1439,2
    1896 00000200 1E0C-         MOVL      @_OSTCBCur,ACC        ; |1439| 
    1897                      .dwpsn  "./os_core.c",1440,1
    1898 00000201 FE84          SUBB      SP,#4
    1899                      .dwcfa  0x1d, -2
    1900 00000202 0006          LRETR
    1901                      ; return occurs
    1902              
    1903              DW$111  .dwtag  DW_TAG_loop
    1904                      .dwattr DW$111, DW_AT_name("C:\DOCUME~1\ADMINI~1\LOCALS~1\Temp\TI6202:L26:1:1279155047")
    1905                      .dwattr DW$111, DW_AT_begin_file("./os_core.c")
    1906                      .dwattr DW$111, DW_AT_begin_line(0x596)
    1907                      .dwattr DW$111, DW_AT_end_line(0x599)
    1908              DW$112  .dwtag  DW_TAG_loop_range
    1909                      .dwattr DW$112, DW_AT_low_pc(DW$L$_OS_InitRdyList$2$B)
    1910                      .dwattr DW$112, DW_AT_high_pc(DW$L$_OS_InitRdyList$2$E)
    1911                      .dwendtag DW$111
    1912              
    1913                      .dwattr DW$108, DW_AT_end_file("./os_core.c")
    1914                      .dwattr DW$108, DW_AT_end_line(0x5a0)
    1915                      .dwattr DW$108, DW_AT_end_column(0x01)
    1916                      .dwendentry
TMS320C2000 COFF Assembler PC v4.1.3 Thu Jul 15 08:50:48 2010

Tools Copyright (c) 1996-2006 Texas Instruments Incorporated
C:\DOCUME~1\ADMINI~1\LOCALS~1\Temp\TI6202                            PAGE   37

    1917                      .dwendtag DW$108
    1918              
    1919 00000203               .sect   ".text"
    1920              
    1921              DW$113  .dwtag  DW_TAG_subprogram, DW_AT_name("OS_InitTaskIdle"), DW_AT_symbol_name("_OS_InitTaskIdle")
    1922                      .dwattr DW$113, DW_AT_low_pc(_OS_InitTaskIdle)
    1923                      .dwattr DW$113, DW_AT_high_pc(0x00)
    1924                      .dwattr DW$113, DW_AT_begin_file("./os_core.c")
    1925                      .dwattr DW$113, DW_AT_begin_line(0x5b0)
    1926                      .dwattr DW$113, DW_AT_begin_column(0x0f)
    1927                      .dwpsn  "./os_core.c",1457,1
    1928              
    1929                      .dwfde DW$CIE
    1930              
    1931              ;***************************************************************
    1932              ;* FNAME: _OS_InitTaskIdle              FR SIZE:   2           *
    1933              ;*                                                             *
    1934              ;* FUNCTION ENVIRONMENT                                        *
    1935              ;*                                                             *
    1936              ;* FUNCTION PROPERTIES                                         *
    1937              ;*                            2 Parameter,  0 Auto,  0 SOE     *
    1938              ;***************************************************************
    1939              
    1940              _OS_InitTaskIdle:
    1941                      .dwcfa  0x1d, -2
    1942                      .dwcfa  0x1c, 26, 0
    1943                      .dwcfa  0x09, 40, 26
    1944 00000203 FE02          ADDB      SP,#2
    1945                      .dwcfa  0x1d, -4
    1946                      .dwpsn  "./os_core.c",1492,2
    1947 00000204 8F00!         MOVL      XAR4,#_OSTaskIdleStk  ; |1492| 
         00000205 0000 
    1948 00000206 9A3F          MOVB      AL,#63                ; |1492| 
    1949 00000207 D500          MOVB      XAR5,#0
    1950 00000208 A842          MOVL      *-SP[2],XAR4          ; |1492| 
    1951 00000209 8F00'         MOVL      XAR4,#_OS_TaskIdle    ; |1492| 
         0000020a 02B4 
    1952 0000020b 7640'         LCR       #_OSTaskCreate        ; |1492| 
         0000020c 0545 
    1953                      ; call occurs [#_OSTaskCreate] ; |1492| 
    1954                      .dwpsn  "./os_core.c",1506,1
    1955 0000020d FE82          SUBB      SP,#2
    1956                      .dwcfa  0x1d, -2
    1957 0000020e 0006          LRETR
    1958                      ; return occurs
    1959                      .dwattr DW$113, DW_AT_end_file("./os_core.c")
    1960                      .dwattr DW$113, DW_AT_end_line(0x5e2)
    1961                      .dwattr DW$113, DW_AT_end_column(0x01)
    1962                      .dwendentry
    1963                      .dwendtag DW$113
    1964              
    1965 0000020f               .sect   ".text"
    1966              
    1967              DW$114  .dwtag  DW_TAG_subprogram, DW_AT_name("OS_InitTCBList"), DW_AT_symbol_name("_OS_InitTCBList")
    1968                      .dwattr DW$114, DW_AT_low_pc(_OS_InitTCBList)
TMS320C2000 COFF Assembler PC v4.1.3 Thu Jul 15 08:50:48 2010

Tools Copyright (c) 1996-2006 Texas Instruments Incorporated
C:\DOCUME~1\ADMINI~1\LOCALS~1\Temp\TI6202                            PAGE   38

    1969                      .dwattr DW$114, DW_AT_high_pc(0x00)
    1970                      .dwattr DW$114, DW_AT_begin_file("./os_core.c")
    1971                      .dwattr DW$114, DW_AT_begin_line(0x634)
    1972                      .dwattr DW$114, DW_AT_begin_column(0x0f)
    1973                      .dwpsn  "./os_core.c",1589,1
    1974              
    1975                      .dwfde DW$CIE
    1976              
    1977              ;***************************************************************
    1978              ;* FNAME: _OS_InitTCBList               FR SIZE:   6           *
    1979              ;*                                                             *
    1980              ;* FUNCTION ENVIRONMENT                                        *
    1981              ;*                                                             *
    1982              ;* FUNCTION PROPERTIES                                         *
    1983              ;*                            0 Parameter,  6 Auto,  0 SOE     *
    1984              ;***************************************************************
    1985              
    1986              _OS_InitTCBList:
    1987                      .dwcfa  0x1d, -2
    1988                      .dwcfa  0x1c, 26, 0
    1989                      .dwcfa  0x09, 40, 26
    1990 0000020f FE06          ADDB      SP,#6
    1991                      .dwcfa  0x1d, -8
    1992              DW$115  .dwtag  DW_TAG_variable, DW_AT_name("i"), DW_AT_symbol_name("_i")
    1993                      .dwattr DW$115, DW_AT_type(*DW$T$19)
    1994                      .dwattr DW$115, DW_AT_location[DW_OP_breg20 -1]
    1995              DW$116  .dwtag  DW_TAG_variable, DW_AT_name("ptcb1"), DW_AT_symbol_name("_ptcb1")
    1996                      .dwattr DW$116, DW_AT_type(*DW$T$38)
    1997                      .dwattr DW$116, DW_AT_location[DW_OP_breg20 -4]
    1998              DW$117  .dwtag  DW_TAG_variable, DW_AT_name("ptcb2"), DW_AT_symbol_name("_ptcb2")
    1999                      .dwattr DW$117, DW_AT_type(*DW$T$38)
    2000                      .dwattr DW$117, DW_AT_location[DW_OP_breg20 -6]
    2001                      .dwpsn  "./os_core.c",1595,2
    2002 00000210 28A9          MOV       AL,#420               ; |1595| 
         00000211 01A4 
    2003 00000212 8F00-         MOVL      XAR4,#_OSTCBTbl       ; |1595| 
         00000213 0100 
    2004 00000214 7640'         LCR       #_OS_MemClr           ; |1595| 
         00000215 023C 
    2005                      ; call occurs [#_OS_MemClr] ; |1595| 
    2006                      .dwpsn  "./os_core.c",1596,2
    2007 00000216 9A80          MOVB      AL,#128               ; |1596| 
    2008 00000217 8F00-         MOVL      XAR4,#_OSTCBPrioTbl   ; |1596| 
         00000218 0080 
    2009 00000219 7640'         LCR       #_OS_MemClr           ; |1596| 
         0000021a 023C 
    2010                      ; call occurs [#_OS_MemClr] ; |1596| 
    2011                      .dwpsn  "./os_core.c",1597,2
    2012 0000021b 8F00-         MOVL      XAR4,#_OSTCBTbl       ; |1597| 
         0000021c 0100 
    2013 0000021d A844          MOVL      *-SP[4],XAR4          ; |1597| 
    2014                      .dwpsn  "./os_core.c",1598,2
    2015 0000021e 8F00-         MOVL      XAR4,#_OSTCBTbl+20    ; |1598| 
         0000021f 0114 
    2016 00000220 A846          MOVL      *-SP[6],XAR4          ; |1598| 
TMS320C2000 COFF Assembler PC v4.1.3 Thu Jul 15 08:50:48 2010

Tools Copyright (c) 1996-2006 Texas Instruments Incorporated
C:\DOCUME~1\ADMINI~1\LOCALS~1\Temp\TI6202                            PAGE   39

    2017                      .dwpsn  "./os_core.c",1599,8
    2018 00000221 2B41          MOV       *-SP[1],#0            ; |1599| 
    2019                      .dwpsn  "./os_core.c",1599,15
    2020 00000222 9241          MOV       AL,*-SP[1]            ; |1599| 
    2021 00000223 5214          CMPB      AL,#20                ; |1599| 
    2022 00000224 670D          B         L29,HIS               ; |1599| 
    2023                      ; branchcc occurs ; |1599| 
    2024              L28:    
    2025              DW$L$_OS_InitTCBList$2$B:
    2026                      .dwpsn  "./os_core.c",1601,3
    2027 00000225 8A44          MOVL      XAR4,*-SP[4]          ; |1601| 
    2028 00000226 0646          MOVL      ACC,*-SP[6]           ; |1601| 
    2029 00000227 1ED4          MOVL      *+XAR4[2],ACC         ; |1601| 
    2030                      .dwpsn  "./os_core.c",1606,3
    2031 00000228 0214          MOVB      ACC,#20
    2032 00000229 5601          ADDL      *-SP[4],ACC           ; |1606| 
         0000022a 0044 
    2033                      .dwpsn  "./os_core.c",1607,3
    2034 0000022b 5601          ADDL      *-SP[6],ACC           ; |1607| 
         0000022c 0046 
    2035                      .dwpsn  "./os_core.c",1599,58
    2036 0000022d 0A41          INC       *-SP[1]               ; |1599| 
    2037                      .dwpsn  "./os_core.c",1599,15
    2038 0000022e 9241          MOV       AL,*-SP[1]            ; |1599| 
    2039 0000022f 5214          CMPB      AL,#20                ; |1599| 
    2040 00000230 68F5          B         L28,LO                ; |1599| 
    2041                      ; branchcc occurs ; |1599| 
    2042              DW$L$_OS_InitTCBList$2$E:
    2043              L29:    
    2044                      .dwpsn  "./os_core.c",1609,2
    2045 00000231 8A44          MOVL      XAR4,*-SP[4]          ; |1609| 
    2046 00000232 0200          MOVB      ACC,#0
    2047 00000233 1ED4          MOVL      *+XAR4[2],ACC         ; |1609| 
    2048                      .dwpsn  "./os_core.c",1614,2
    2049 00000234 761F-         MOVW      DP,#_OSTCBList
         00000235 0000 
    2050 00000236 1E0A-         MOVL      @_OSTCBList,ACC       ; |1614| 
    2051                      .dwpsn  "./os_core.c",1615,2
    2052 00000237 8F00-         MOVL      XAR4,#_OSTCBTbl       ; |1615| 
         00000238 0100 
    2053 00000239 A808-         MOVL      @_OSTCBFreeList,XAR4  ; |1615| 
    2054                      .dwpsn  "./os_core.c",1616,1
    2055 0000023a FE86          SUBB      SP,#6
    2056                      .dwcfa  0x1d, -2
    2057 0000023b 0006          LRETR
    2058                      ; return occurs
    2059              
    2060              DW$118  .dwtag  DW_TAG_loop
    2061                      .dwattr DW$118, DW_AT_name("C:\DOCUME~1\ADMINI~1\LOCALS~1\Temp\TI6202:L28:1:1279155047")
    2062                      .dwattr DW$118, DW_AT_begin_file("./os_core.c")
    2063                      .dwattr DW$118, DW_AT_begin_line(0x63f)
    2064                      .dwattr DW$118, DW_AT_end_line(0x648)
    2065              DW$119  .dwtag  DW_TAG_loop_range
    2066                      .dwattr DW$119, DW_AT_low_pc(DW$L$_OS_InitTCBList$2$B)
    2067                      .dwattr DW$119, DW_AT_high_pc(DW$L$_OS_InitTCBList$2$E)
TMS320C2000 COFF Assembler PC v4.1.3 Thu Jul 15 08:50:48 2010

Tools Copyright (c) 1996-2006 Texas Instruments Incorporated
C:\DOCUME~1\ADMINI~1\LOCALS~1\Temp\TI6202                            PAGE   40

    2068                      .dwendtag DW$118
    2069              
    2070                      .dwattr DW$114, DW_AT_end_file("./os_core.c")
    2071                      .dwattr DW$114, DW_AT_end_line(0x650)
    2072                      .dwattr DW$114, DW_AT_end_column(0x01)
    2073                      .dwendentry
    2074                      .dwendtag DW$114
    2075              
    2076 0000023c               .sect   ".text"
    2077                      .global _OS_MemClr
    2078              
    2079              DW$120  .dwtag  DW_TAG_subprogram, DW_AT_name("OS_MemClr"), DW_AT_symbol_name("_OS_MemClr")
    2080                      .dwattr DW$120, DW_AT_low_pc(_OS_MemClr)
    2081                      .dwattr DW$120, DW_AT_high_pc(0x00)
    2082                      .dwattr DW$120, DW_AT_begin_file("./os_core.c")
    2083                      .dwattr DW$120, DW_AT_begin_line(0x666)
    2084                      .dwattr DW$120, DW_AT_begin_column(0x07)
    2085                      .dwpsn  "./os_core.c",1639,1
    2086              
    2087                      .dwfde DW$CIE
    2088              
    2089              ;***************************************************************
    2090              ;* FNAME: _OS_MemClr                    FR SIZE:   4           *
    2091              ;*                                                             *
    2092              ;* FUNCTION ENVIRONMENT                                        *
    2093              ;*                                                             *
    2094              ;* FUNCTION PROPERTIES                                         *
    2095              ;*                            0 Parameter,  3 Auto,  0 SOE     *
    2096              ;***************************************************************
    2097              
    2098              _OS_MemClr:
    2099                      .dwcfa  0x1d, -2
    2100                      .dwcfa  0x1c, 26, 0
    2101                      .dwcfa  0x09, 40, 26
    2102 0000023c FE04          ADDB      SP,#4
    2103                      .dwcfa  0x1d, -6
    2104              ;* AR4   assigned to _pdest
    2105              DW$121  .dwtag  DW_TAG_formal_parameter, DW_AT_name("pdest"), DW_AT_symbol_name("_pdest")
    2106                      .dwattr DW$121, DW_AT_type(*DW$T$33)
    2107                      .dwattr DW$121, DW_AT_location[DW_OP_reg12]
    2108              ;* AL    assigned to _size
    2109              DW$122  .dwtag  DW_TAG_formal_parameter, DW_AT_name("size"), DW_AT_symbol_name("_size")
    2110                      .dwattr DW$122, DW_AT_type(*DW$T$20)
    2111                      .dwattr DW$122, DW_AT_location[DW_OP_reg0]
    2112              DW$123  .dwtag  DW_TAG_variable, DW_AT_name("pdest"), DW_AT_symbol_name("_pdest")
    2113                      .dwattr DW$123, DW_AT_type(*DW$T$33)
    2114                      .dwattr DW$123, DW_AT_location[DW_OP_breg20 -2]
    2115              DW$124  .dwtag  DW_TAG_variable, DW_AT_name("size"), DW_AT_symbol_name("_size")
    2116                      .dwattr DW$124, DW_AT_type(*DW$T$20)
    2117                      .dwattr DW$124, DW_AT_location[DW_OP_breg20 -3]
    2118 0000023d 9643          MOV       *-SP[3],AL            ; |1639| 
    2119 0000023e A842          MOVL      *-SP[2],XAR4          ; |1639| 
    2120                      .dwpsn  "./os_core.c",1640,10
    2121 0000023f 9243          MOV       AL,*-SP[3]            ; |1640| 
    2122 00000240 EC09          BF        L31,EQ                ; |1640| 
TMS320C2000 COFF Assembler PC v4.1.3 Thu Jul 15 08:50:48 2010

Tools Copyright (c) 1996-2006 Texas Instruments Incorporated
C:\DOCUME~1\ADMINI~1\LOCALS~1\Temp\TI6202                            PAGE   41

    2123                      ; branchcc occurs ; |1640| 
    2124              L30:    
    2125              DW$L$_OS_MemClr$2$B:
    2126                      .dwpsn  "./os_core.c",1642,3
    2127 00000241 8A42          MOVL      XAR4,*-SP[2]          ; |1642| 
    2128 00000242 0201          MOVB      ACC,#1
    2129 00000243 07A4          ADDL      ACC,XAR4
    2130 00000244 1E42          MOVL      *-SP[2],ACC           ; |1642| 
    2131 00000245 2BC4          MOV       *+XAR4[0],#0          ; |1642| 
    2132                      .dwpsn  "./os_core.c",1643,3
    2133 00000246 0B43          DEC       *-SP[3]               ; |1643| 
    2134                      .dwpsn  "./os_core.c",1640,10
    2135 00000247 9243          MOV       AL,*-SP[3]            ; |1640| 
    2136 00000248 EDF9          BF        L30,NEQ               ; |1640| 
    2137                      ; branchcc occurs ; |1640| 
    2138              DW$L$_OS_MemClr$2$E:
    2139              L31:    
    2140                      .dwpsn  "./os_core.c",1645,1
    2141 00000249 FE84          SUBB      SP,#4
    2142                      .dwcfa  0x1d, -2
    2143 0000024a 0006          LRETR
    2144                      ; return occurs
    2145              
    2146              DW$125  .dwtag  DW_TAG_loop
    2147                      .dwattr DW$125, DW_AT_name("C:\DOCUME~1\ADMINI~1\LOCALS~1\Temp\TI6202:L30:1:1279155047")
    2148                      .dwattr DW$125, DW_AT_begin_file("./os_core.c")
    2149                      .dwattr DW$125, DW_AT_begin_line(0x668)
    2150                      .dwattr DW$125, DW_AT_end_line(0x66c)
    2151              DW$126  .dwtag  DW_TAG_loop_range
    2152                      .dwattr DW$126, DW_AT_low_pc(DW$L$_OS_MemClr$2$B)
    2153                      .dwattr DW$126, DW_AT_high_pc(DW$L$_OS_MemClr$2$E)
    2154                      .dwendtag DW$125
    2155              
    2156                      .dwattr DW$120, DW_AT_end_file("./os_core.c")
    2157                      .dwattr DW$120, DW_AT_end_line(0x66d)
    2158                      .dwattr DW$120, DW_AT_end_column(0x01)
    2159                      .dwendentry
    2160                      .dwendtag DW$120
    2161              
    2162 0000024b               .sect   ".text"
    2163                      .global _OS_MemCopy
    2164              
    2165              DW$127  .dwtag  DW_TAG_subprogram, DW_AT_name("OS_MemCopy"), DW_AT_symbol_name("_OS_MemCopy")
    2166                      .dwattr DW$127, DW_AT_low_pc(_OS_MemCopy)
    2167                      .dwattr DW$127, DW_AT_high_pc(0x00)
    2168                      .dwattr DW$127, DW_AT_begin_file("./os_core.c")
    2169                      .dwattr DW$127, DW_AT_begin_line(0x687)
    2170                      .dwattr DW$127, DW_AT_begin_column(0x07)
    2171                      .dwpsn  "./os_core.c",1672,1
    2172              
    2173                      .dwfde DW$CIE
    2174              
    2175              ;***************************************************************
    2176              ;* FNAME: _OS_MemCopy                   FR SIZE:   6           *
    2177              ;*                                                             *
TMS320C2000 COFF Assembler PC v4.1.3 Thu Jul 15 08:50:48 2010

Tools Copyright (c) 1996-2006 Texas Instruments Incorporated
C:\DOCUME~1\ADMINI~1\LOCALS~1\Temp\TI6202                            PAGE   42

    2178              ;* FUNCTION ENVIRONMENT                                        *
    2179              ;*                                                             *
    2180              ;* FUNCTION PROPERTIES                                         *
    2181              ;*                            0 Parameter,  5 Auto,  0 SOE     *
    2182              ;***************************************************************
    2183              
    2184              _OS_MemCopy:
    2185                      .dwcfa  0x1d, -2
    2186                      .dwcfa  0x1c, 26, 0
    2187                      .dwcfa  0x09, 40, 26
    2188 0000024b FE06          ADDB      SP,#6
    2189                      .dwcfa  0x1d, -8
    2190              ;* AR4   assigned to _pdest
    2191              DW$128  .dwtag  DW_TAG_formal_parameter, DW_AT_name("pdest"), DW_AT_symbol_name("_pdest")
    2192                      .dwattr DW$128, DW_AT_type(*DW$T$33)
    2193                      .dwattr DW$128, DW_AT_location[DW_OP_reg12]
    2194              ;* AR5   assigned to _psrc
    2195              DW$129  .dwtag  DW_TAG_formal_parameter, DW_AT_name("psrc"), DW_AT_symbol_name("_psrc")
    2196                      .dwattr DW$129, DW_AT_type(*DW$T$33)
    2197                      .dwattr DW$129, DW_AT_location[DW_OP_reg14]
    2198              ;* AL    assigned to _size
    2199              DW$130  .dwtag  DW_TAG_formal_parameter, DW_AT_name("size"), DW_AT_symbol_name("_size")
    2200                      .dwattr DW$130, DW_AT_type(*DW$T$20)
    2201                      .dwattr DW$130, DW_AT_location[DW_OP_reg0]
    2202              DW$131  .dwtag  DW_TAG_variable, DW_AT_name("pdest"), DW_AT_symbol_name("_pdest")
    2203                      .dwattr DW$131, DW_AT_type(*DW$T$33)
    2204                      .dwattr DW$131, DW_AT_location[DW_OP_breg20 -2]
    2205              DW$132  .dwtag  DW_TAG_variable, DW_AT_name("psrc"), DW_AT_symbol_name("_psrc")
    2206                      .dwattr DW$132, DW_AT_type(*DW$T$33)
    2207                      .dwattr DW$132, DW_AT_location[DW_OP_breg20 -4]
    2208              DW$133  .dwtag  DW_TAG_variable, DW_AT_name("size"), DW_AT_symbol_name("_size")
    2209                      .dwattr DW$133, DW_AT_type(*DW$T$20)
    2210                      .dwattr DW$133, DW_AT_location[DW_OP_breg20 -5]
    2211 0000024c 9645          MOV       *-SP[5],AL            ; |1672| 
    2212 0000024d A044          MOVL      *-SP[4],XAR5          ; |1672| 
    2213 0000024e A842          MOVL      *-SP[2],XAR4          ; |1672| 
    2214                      .dwpsn  "./os_core.c",1673,10
    2215 0000024f 9245          MOV       AL,*-SP[5]            ; |1673| 
    2216 00000250 EC0C          BF        L33,EQ                ; |1673| 
    2217                      ; branchcc occurs ; |1673| 
    2218              L32:    
    2219              DW$L$_OS_MemCopy$2$B:
    2220                      .dwpsn  "./os_core.c",1675,3
    2221 00000251 8342          MOVL      XAR5,*-SP[2]          ; |1675| 
    2222 00000252 0201          MOVB      ACC,#1
    2223 00000253 07A5          ADDL      ACC,XAR5
    2224 00000254 1E42          MOVL      *-SP[2],ACC           ; |1675| 
    2225 00000255 8A44          MOVL      XAR4,*-SP[4]          ; |1675| 
    2226 00000256 9284          MOV       AL,*XAR4++            ; |1675| 
    2227 00000257 A844          MOVL      *-SP[4],XAR4          ; |1675| 
    2228 00000258 96C5          MOV       *+XAR5[0],AL          ; |1675| 
    2229                      .dwpsn  "./os_core.c",1676,3
    2230 00000259 0B45          DEC       *-SP[5]               ; |1676| 
    2231                      .dwpsn  "./os_core.c",1673,10
    2232 0000025a 9245          MOV       AL,*-SP[5]            ; |1673| 
TMS320C2000 COFF Assembler PC v4.1.3 Thu Jul 15 08:50:48 2010

Tools Copyright (c) 1996-2006 Texas Instruments Incorporated
C:\DOCUME~1\ADMINI~1\LOCALS~1\Temp\TI6202                            PAGE   43

    2233 0000025b EDF6          BF        L32,NEQ               ; |1673| 
    2234                      ; branchcc occurs ; |1673| 
    2235              DW$L$_OS_MemCopy$2$E:
    2236              L33:    
    2237                      .dwpsn  "./os_core.c",1678,1
    2238 0000025c FE86          SUBB      SP,#6
    2239                      .dwcfa  0x1d, -2
    2240 0000025d 0006          LRETR
    2241                      ; return occurs
    2242              
    2243              DW$134  .dwtag  DW_TAG_loop
    2244                      .dwattr DW$134, DW_AT_name("C:\DOCUME~1\ADMINI~1\LOCALS~1\Temp\TI6202:L32:1:1279155047")
    2245                      .dwattr DW$134, DW_AT_begin_file("./os_core.c")
    2246                      .dwattr DW$134, DW_AT_begin_line(0x689)
    2247                      .dwattr DW$134, DW_AT_end_line(0x68d)
    2248              DW$135  .dwtag  DW_TAG_loop_range
    2249                      .dwattr DW$135, DW_AT_low_pc(DW$L$_OS_MemCopy$2$B)
    2250                      .dwattr DW$135, DW_AT_high_pc(DW$L$_OS_MemCopy$2$E)
    2251                      .dwendtag DW$134
    2252              
    2253                      .dwattr DW$127, DW_AT_end_file("./os_core.c")
    2254                      .dwattr DW$127, DW_AT_end_line(0x68e)
    2255                      .dwattr DW$127, DW_AT_end_column(0x01)
    2256                      .dwendentry
    2257                      .dwendtag DW$127
    2258              
    2259 0000025e               .sect   ".text"
    2260                      .global _OS_Sched
    2261              
    2262              DW$136  .dwtag  DW_TAG_subprogram, DW_AT_name("OS_Sched"), DW_AT_symbol_name("_OS_Sched")
    2263                      .dwattr DW$136, DW_AT_low_pc(_OS_Sched)
    2264                      .dwattr DW$136, DW_AT_high_pc(0x00)
    2265                      .dwattr DW$136, DW_AT_begin_file("./os_core.c")
    2266                      .dwattr DW$136, DW_AT_begin_line(0x6a1)
    2267                      .dwattr DW$136, DW_AT_begin_column(0x07)
    2268                      .dwpsn  "./os_core.c",1698,1
    2269              
    2270                      .dwfde DW$CIE
    2271              
    2272              ;***************************************************************
    2273              ;* FNAME: _OS_Sched                     FR SIZE:   0           *
    2274              ;*                                                             *
    2275              ;* FUNCTION ENVIRONMENT                                        *
    2276              ;*                                                             *
    2277              ;* FUNCTION PROPERTIES                                         *
    2278              ;*                            0 Parameter,  0 Auto,  0 SOE     *
    2279              ;***************************************************************
    2280              
    2281              _OS_Sched:
    2282                      .dwcfa  0x1d, -2
    2283                      .dwcfa  0x1c, 26, 0
    2284                      .dwcfa  0x09, 40, 26
    2285                      .dwpsn  "./os_core.c",1705,2
    2286 0000025e 3B10   setc INTM
    2287                      .dwpsn  "./os_core.c",1706,2
TMS320C2000 COFF Assembler PC v4.1.3 Thu Jul 15 08:50:48 2010

Tools Copyright (c) 1996-2006 Texas Instruments Incorporated
C:\DOCUME~1\ADMINI~1\LOCALS~1\Temp\TI6202                            PAGE   44

    2288 0000025f 761F-         MOVW      DP,#_OSIntNesting
         00000260 0000 
    2289 00000261 9206-         MOV       AL,@_OSIntNesting     ; |1706| 
    2290 00000262 ED17          BF        L34,NEQ               ; |1706| 
    2291                      ; branchcc occurs ; |1706| 
    2292                      .dwpsn  "./os_core.c",1708,3
    2293 00000263 9204-         MOV       AL,@_OSLockNesting    ; |1708| 
    2294 00000264 ED15          BF        L34,NEQ               ; |1708| 
    2295                      ; branchcc occurs ; |1708| 
    2296                      .dwpsn  "./os_core.c",1710,4
    2297 00000265 FF69          SPM       #0
    2298 00000266 7640'         LCR       #_OS_SchedNew         ; |1710| 
         00000267 027C 
    2299                      ; call occurs [#_OS_SchedNew] ; |1710| 
    2300                      .dwpsn  "./os_core.c",1711,4
    2301 00000268 761F-         MOVW      DP,#_OSPrioCur
         00000269 0000 
    2302 0000026a 9202-         MOV       AL,@_OSPrioCur        ; |1711| 
    2303 0000026b 5400-         CMP       AL,@_OSPrioHighRdy    ; |1711| 
    2304 0000026c EC0D          BF        L34,EQ                ; |1711| 
    2305                      ; branchcc occurs ; |1711| 
    2306                      .dwpsn  "./os_core.c",1713,5
    2307 0000026d 0E00-         MOVU      ACC,@_OSPrioHighRdy
    2308 0000026e 8F00-         MOVL      XAR4,#_OSTCBPrioTbl   ; |1713| 
         0000026f 0080 
    2309 00000270 FF30          LSL       ACC,1                 ; |1713| 
    2310 00000271 5601          ADDL      XAR4,ACC
         00000272 00A4 
    2311 00000273 06C4          MOVL      ACC,*+XAR4[0]         ; |1713| 
    2312 00000274 1E0E-         MOVL      @_OSTCBHighRdy,ACC    ; |1713| 
    2313                      .dwpsn  "./os_core.c",1717,5
    2314 00000275 0201          MOVB      ACC,#1
    2315 00000276 5601-         ADDL      @_OSCtxSwCtr,ACC      ; |1717| 
         00000277 0012 
    2316                      .dwpsn  "./os_core.c",1718,5
    2317 00000278 003F       TRAP #31
    2318              L34:    
    2319                      .dwpsn  "./os_core.c",1722,2
    2320 00000279 2910   clrc INTM
    2321                      .dwpsn  "./os_core.c",1723,1
    2322 0000027a FF69          SPM       #0
    2323 0000027b 0006          LRETR
    2324                      ; return occurs
    2325                      .dwattr DW$136, DW_AT_end_file("./os_core.c")
    2326                      .dwattr DW$136, DW_AT_end_line(0x6bb)
    2327                      .dwattr DW$136, DW_AT_end_column(0x01)
    2328                      .dwendentry
    2329                      .dwendtag DW$136
    2330              
    2331 0000027c               .sect   ".text"
    2332              
    2333              DW$137  .dwtag  DW_TAG_subprogram, DW_AT_name("OS_SchedNew"), DW_AT_symbol_name("_OS_SchedNew")
    2334                      .dwattr DW$137, DW_AT_low_pc(_OS_SchedNew)
    2335                      .dwattr DW$137, DW_AT_high_pc(0x00)
    2336                      .dwattr DW$137, DW_AT_begin_file("./os_core.c")
TMS320C2000 COFF Assembler PC v4.1.3 Thu Jul 15 08:50:48 2010

Tools Copyright (c) 1996-2006 Texas Instruments Incorporated
C:\DOCUME~1\ADMINI~1\LOCALS~1\Temp\TI6202                            PAGE   45

    2337                      .dwattr DW$137, DW_AT_begin_line(0x6ce)
    2338                      .dwattr DW$137, DW_AT_begin_column(0x0f)
    2339                      .dwpsn  "./os_core.c",1743,1
    2340              
    2341                      .dwfde DW$CIE
    2342              
    2343              ;***************************************************************
    2344              ;* FNAME: _OS_SchedNew                  FR SIZE:   2           *
    2345              ;*                                                             *
    2346              ;* FUNCTION ENVIRONMENT                                        *
    2347              ;*                                                             *
    2348              ;* FUNCTION PROPERTIES                                         *
    2349              ;*                            0 Parameter,  1 Auto,  0 SOE     *
    2350              ;***************************************************************
    2351              
    2352              _OS_SchedNew:
    2353                      .dwcfa  0x1d, -2
    2354                      .dwcfa  0x1c, 26, 0
    2355                      .dwcfa  0x09, 40, 26
    2356 0000027c FE02          ADDB      SP,#2
    2357                      .dwcfa  0x1d, -4
    2358              DW$138  .dwtag  DW_TAG_variable, DW_AT_name("y"), DW_AT_symbol_name("_y")
    2359                      .dwattr DW$138, DW_AT_type(*DW$T$19)
    2360                      .dwattr DW$138, DW_AT_location[DW_OP_breg20 -1]
    2361                      .dwpsn  "./os_core.c",1748,2
    2362 0000027d 761F-         MOVW      DP,#_OSRdyGrp
         0000027e 0000 
    2363 0000027f 5801-         MOVZ      AR0,@_OSRdyGrp        ; |1748| 
    2364 00000280 8F00+         MOVL      XAR4,#_OSUnMapTbl     ; |1748| 
         00000281 0000 
    2365 00000282 9294          MOV       AL,*+XAR4[AR0]        ; |1748| 
    2366 00000283 9641          MOV       *-SP[1],AL            ; |1748| 
    2367                      .dwpsn  "./os_core.c",1749,2
    2368 00000284 5841          MOVZ      AR0,*-SP[1]           ; |1749| 
    2369 00000285 8F00-         MOVL      XAR4,#_OSRdyTbl       ; |1749| 
         00000286 0018 
    2370 00000287 5894          MOVZ      AR0,*+XAR4[AR0]       ; |1749| 
    2371 00000288 5603          MOV       ACC,*-SP[1] << #3     ; |1749| 
         00000289 0341 
    2372 0000028a 8F00+         MOVL      XAR4,#_OSUnMapTbl     ; |1749| 
         0000028b 0000 
    2373 0000028c 9494          ADD       AL,*+XAR4[AR0]        ; |1749| 
    2374 0000028d 9600-         MOV       @_OSPrioHighRdy,AL    ; |1749| 
    2375                      .dwpsn  "./os_core.c",1773,1
    2376 0000028e FE82          SUBB      SP,#2
    2377                      .dwcfa  0x1d, -2
    2378 0000028f 0006          LRETR
    2379                      ; return occurs
    2380                      .dwattr DW$137, DW_AT_end_file("./os_core.c")
    2381                      .dwattr DW$137, DW_AT_end_line(0x6ed)
    2382                      .dwattr DW$137, DW_AT_end_column(0x01)
    2383                      .dwendentry
    2384                      .dwendtag DW$137
    2385              
    2386 00000290               .sect   ".text"
TMS320C2000 COFF Assembler PC v4.1.3 Thu Jul 15 08:50:48 2010

Tools Copyright (c) 1996-2006 Texas Instruments Incorporated
C:\DOCUME~1\ADMINI~1\LOCALS~1\Temp\TI6202                            PAGE   46

    2387                      .global _OS_StrCopy
    2388              
    2389              DW$139  .dwtag  DW_TAG_subprogram, DW_AT_name("OS_StrCopy"), DW_AT_symbol_name("_OS_StrCopy")
    2390                      .dwattr DW$139, DW_AT_low_pc(_OS_StrCopy)
    2391                      .dwattr DW$139, DW_AT_high_pc(0x00)
    2392                      .dwattr DW$139, DW_AT_begin_file("./os_core.c")
    2393                      .dwattr DW$139, DW_AT_begin_line(0x704)
    2394                      .dwattr DW$139, DW_AT_begin_column(0x08)
    2395                      .dwpsn  "./os_core.c",1797,1
    2396              
    2397                      .dwfde DW$CIE
    2398              
    2399              ;***************************************************************
    2400              ;* FNAME: _OS_StrCopy                   FR SIZE:   6           *
    2401              ;*                                                             *
    2402              ;* FUNCTION ENVIRONMENT                                        *
    2403              ;*                                                             *
    2404              ;* FUNCTION PROPERTIES                                         *
    2405              ;*                            0 Parameter,  5 Auto,  0 SOE     *
    2406              ;***************************************************************
    2407              
    2408              _OS_StrCopy:
    2409                      .dwcfa  0x1d, -2
    2410                      .dwcfa  0x1c, 26, 0
    2411                      .dwcfa  0x09, 40, 26
    2412 00000290 FE06          ADDB      SP,#6
    2413                      .dwcfa  0x1d, -8
    2414              ;* AR4   assigned to _pdest
    2415              DW$140  .dwtag  DW_TAG_formal_parameter, DW_AT_name("pdest"), DW_AT_symbol_name("_pdest")
    2416                      .dwattr DW$140, DW_AT_type(*DW$T$33)
    2417                      .dwattr DW$140, DW_AT_location[DW_OP_reg12]
    2418              ;* AR5   assigned to _psrc
    2419              DW$141  .dwtag  DW_TAG_formal_parameter, DW_AT_name("psrc"), DW_AT_symbol_name("_psrc")
    2420                      .dwattr DW$141, DW_AT_type(*DW$T$33)
    2421                      .dwattr DW$141, DW_AT_location[DW_OP_reg14]
    2422              DW$142  .dwtag  DW_TAG_variable, DW_AT_name("pdest"), DW_AT_symbol_name("_pdest")
    2423                      .dwattr DW$142, DW_AT_type(*DW$T$33)
    2424                      .dwattr DW$142, DW_AT_location[DW_OP_breg20 -2]
    2425              DW$143  .dwtag  DW_TAG_variable, DW_AT_name("psrc"), DW_AT_symbol_name("_psrc")
    2426                      .dwattr DW$143, DW_AT_type(*DW$T$33)
    2427                      .dwattr DW$143, DW_AT_location[DW_OP_breg20 -4]
    2428              DW$144  .dwtag  DW_TAG_variable, DW_AT_name("len"), DW_AT_symbol_name("_len")
    2429                      .dwattr DW$144, DW_AT_type(*DW$T$19)
    2430                      .dwattr DW$144, DW_AT_location[DW_OP_breg20 -5]
    2431 00000291 A044          MOVL      *-SP[4],XAR5          ; |1797| 
    2432 00000292 A842          MOVL      *-SP[2],XAR4          ; |1797| 
    2433                      .dwpsn  "./os_core.c",1801,2
    2434 00000293 2B45          MOV       *-SP[5],#0            ; |1801| 
    2435                      .dwpsn  "./os_core.c",1802,2
    2436 00000294 6F0A          B         L36,UNC               ; |1802| 
    2437                      ; branch occurs ; |1802| 
    2438              L35:    
    2439              DW$L$_OS_StrCopy$2$B:
    2440                      .dwpsn  "./os_core.c",1804,3
    2441 00000295 8342          MOVL      XAR5,*-SP[2]          ; |1804| 
TMS320C2000 COFF Assembler PC v4.1.3 Thu Jul 15 08:50:48 2010

Tools Copyright (c) 1996-2006 Texas Instruments Incorporated
C:\DOCUME~1\ADMINI~1\LOCALS~1\Temp\TI6202                            PAGE   47

    2442 00000296 0201          MOVB      ACC,#1
    2443 00000297 07A5          ADDL      ACC,XAR5
    2444 00000298 1E42          MOVL      *-SP[2],ACC           ; |1804| 
    2445 00000299 8A44          MOVL      XAR4,*-SP[4]          ; |1804| 
    2446 0000029a 9284          MOV       AL,*XAR4++            ; |1804| 
    2447 0000029b A844          MOVL      *-SP[4],XAR4          ; |1804| 
    2448 0000029c 96C5          MOV       *+XAR5[0],AL          ; |1804| 
    2449                      .dwpsn  "./os_core.c",1805,3
    2450 0000029d 0A45          INC       *-SP[5]               ; |1805| 
    2451              DW$L$_OS_StrCopy$2$E:
    2452              L36:    
    2453              DW$L$_OS_StrCopy$3$B:
    2454                      .dwpsn  "./os_core.c",1802,10
    2455 0000029e 8A44          MOVL      XAR4,*-SP[4]          ; |1802| 
    2456 0000029f 92C4          MOV       AL,*+XAR4[0]          ; |1802| 
    2457 000002a0 EDF5          BF        L35,NEQ               ; |1802| 
    2458                      ; branchcc occurs ; |1802| 
    2459              DW$L$_OS_StrCopy$3$E:
    2460                      .dwpsn  "./os_core.c",1807,2
    2461 000002a1 8A42          MOVL      XAR4,*-SP[2]          ; |1807| 
    2462 000002a2 2BC4          MOV       *+XAR4[0],#0          ; |1807| 
    2463                      .dwpsn  "./os_core.c",1808,2
    2464 000002a3 9245          MOV       AL,*-SP[5]            ; |1808| 
    2465                      .dwpsn  "./os_core.c",1809,1
    2466 000002a4 FE86          SUBB      SP,#6                 ; |1808| 
    2467                      .dwcfa  0x1d, -2
    2468 000002a5 0006          LRETR
    2469                      ; return occurs
    2470              
    2471              DW$145  .dwtag  DW_TAG_loop
    2472                      .dwattr DW$145, DW_AT_name("C:\DOCUME~1\ADMINI~1\LOCALS~1\Temp\TI6202:L36:1:1279155047")
    2473                      .dwattr DW$145, DW_AT_begin_file("./os_core.c")
    2474                      .dwattr DW$145, DW_AT_begin_line(0x70a)
    2475                      .dwattr DW$145, DW_AT_end_line(0x70d)
    2476              DW$146  .dwtag  DW_TAG_loop_range
    2477                      .dwattr DW$146, DW_AT_low_pc(DW$L$_OS_StrCopy$3$B)
    2478                      .dwattr DW$146, DW_AT_high_pc(DW$L$_OS_StrCopy$3$E)
    2479              DW$147  .dwtag  DW_TAG_loop_range
    2480                      .dwattr DW$147, DW_AT_low_pc(DW$L$_OS_StrCopy$2$B)
    2481                      .dwattr DW$147, DW_AT_high_pc(DW$L$_OS_StrCopy$2$E)
    2482                      .dwendtag DW$145
    2483              
    2484                      .dwattr DW$139, DW_AT_end_file("./os_core.c")
    2485                      .dwattr DW$139, DW_AT_end_line(0x711)
    2486                      .dwattr DW$139, DW_AT_end_column(0x01)
    2487                      .dwendentry
    2488                      .dwendtag DW$139
    2489              
    2490 000002a6               .sect   ".text"
    2491                      .global _OS_StrLen
    2492              
    2493              DW$148  .dwtag  DW_TAG_subprogram, DW_AT_name("OS_StrLen"), DW_AT_symbol_name("_OS_StrLen")
    2494                      .dwattr DW$148, DW_AT_low_pc(_OS_StrLen)
    2495                      .dwattr DW$148, DW_AT_high_pc(0x00)
    2496                      .dwattr DW$148, DW_AT_begin_file("./os_core.c")
TMS320C2000 COFF Assembler PC v4.1.3 Thu Jul 15 08:50:48 2010

Tools Copyright (c) 1996-2006 Texas Instruments Incorporated
C:\DOCUME~1\ADMINI~1\LOCALS~1\Temp\TI6202                            PAGE   48

    2497                      .dwattr DW$148, DW_AT_begin_line(0x725)
    2498                      .dwattr DW$148, DW_AT_begin_column(0x08)
    2499                      .dwpsn  "./os_core.c",1830,1
    2500              
    2501                      .dwfde DW$CIE
    2502              
    2503              ;***************************************************************
    2504              ;* FNAME: _OS_StrLen                    FR SIZE:   4           *
    2505              ;*                                                             *
    2506              ;* FUNCTION ENVIRONMENT                                        *
    2507              ;*                                                             *
    2508              ;* FUNCTION PROPERTIES                                         *
    2509              ;*                            0 Parameter,  3 Auto,  0 SOE     *
    2510              ;***************************************************************
    2511              
    2512              _OS_StrLen:
    2513                      .dwcfa  0x1d, -2
    2514                      .dwcfa  0x1c, 26, 0
    2515                      .dwcfa  0x09, 40, 26
    2516 000002a6 FE04          ADDB      SP,#4
    2517                      .dwcfa  0x1d, -6
    2518              ;* AR4   assigned to _psrc
    2519              DW$149  .dwtag  DW_TAG_formal_parameter, DW_AT_name("psrc"), DW_AT_symbol_name("_psrc")
    2520                      .dwattr DW$149, DW_AT_type(*DW$T$33)
    2521                      .dwattr DW$149, DW_AT_location[DW_OP_reg12]
    2522              DW$150  .dwtag  DW_TAG_variable, DW_AT_name("psrc"), DW_AT_symbol_name("_psrc")
    2523                      .dwattr DW$150, DW_AT_type(*DW$T$33)
    2524                      .dwattr DW$150, DW_AT_location[DW_OP_breg20 -2]
    2525              DW$151  .dwtag  DW_TAG_variable, DW_AT_name("len"), DW_AT_symbol_name("_len")
    2526                      .dwattr DW$151, DW_AT_type(*DW$T$19)
    2527                      .dwattr DW$151, DW_AT_location[DW_OP_breg20 -3]
    2528 000002a7 A842          MOVL      *-SP[2],XAR4          ; |1830| 
    2529                      .dwpsn  "./os_core.c",1834,2
    2530 000002a8 2B43          MOV       *-SP[3],#0            ; |1834| 
    2531                      .dwpsn  "./os_core.c",1835,2
    2532 000002a9 6F05          B         L38,UNC               ; |1835| 
    2533                      ; branch occurs ; |1835| 
    2534              L37:    
    2535              DW$L$_OS_StrLen$2$B:
    2536                      .dwpsn  "./os_core.c",1837,3
    2537 000002aa 0201          MOVB      ACC,#1
    2538 000002ab 5601          ADDL      *-SP[2],ACC           ; |1837| 
         000002ac 0042 
    2539                      .dwpsn  "./os_core.c",1838,3
    2540 000002ad 0A43          INC       *-SP[3]               ; |1838| 
    2541              DW$L$_OS_StrLen$2$E:
    2542              L38:    
    2543              DW$L$_OS_StrLen$3$B:
    2544                      .dwpsn  "./os_core.c",1835,10
    2545 000002ae 8A42          MOVL      XAR4,*-SP[2]          ; |1835| 
    2546 000002af 92C4          MOV       AL,*+XAR4[0]          ; |1835| 
    2547 000002b0 EDFA          BF        L37,NEQ               ; |1835| 
    2548                      ; branchcc occurs ; |1835| 
    2549              DW$L$_OS_StrLen$3$E:
    2550                      .dwpsn  "./os_core.c",1840,2
TMS320C2000 COFF Assembler PC v4.1.3 Thu Jul 15 08:50:48 2010

Tools Copyright (c) 1996-2006 Texas Instruments Incorporated
C:\DOCUME~1\ADMINI~1\LOCALS~1\Temp\TI6202                            PAGE   49

    2551 000002b1 9243          MOV       AL,*-SP[3]            ; |1840| 
    2552                      .dwpsn  "./os_core.c",1841,1
    2553 000002b2 FE84          SUBB      SP,#4                 ; |1840| 
    2554                      .dwcfa  0x1d, -2
    2555 000002b3 0006          LRETR
    2556                      ; return occurs
    2557              
    2558              DW$152  .dwtag  DW_TAG_loop
    2559                      .dwattr DW$152, DW_AT_name("C:\DOCUME~1\ADMINI~1\LOCALS~1\Temp\TI6202:L38:1:1279155047")
    2560                      .dwattr DW$152, DW_AT_begin_file("./os_core.c")
    2561                      .dwattr DW$152, DW_AT_begin_line(0x72b)
    2562                      .dwattr DW$152, DW_AT_end_line(0x72e)
    2563              DW$153  .dwtag  DW_TAG_loop_range
    2564                      .dwattr DW$153, DW_AT_low_pc(DW$L$_OS_StrLen$3$B)
    2565                      .dwattr DW$153, DW_AT_high_pc(DW$L$_OS_StrLen$3$E)
    2566              DW$154  .dwtag  DW_TAG_loop_range
    2567                      .dwattr DW$154, DW_AT_low_pc(DW$L$_OS_StrLen$2$B)
    2568                      .dwattr DW$154, DW_AT_high_pc(DW$L$_OS_StrLen$2$E)
    2569                      .dwendtag DW$152
    2570              
    2571                      .dwattr DW$148, DW_AT_end_file("./os_core.c")
    2572                      .dwattr DW$148, DW_AT_end_line(0x731)
    2573                      .dwattr DW$148, DW_AT_end_column(0x01)
    2574                      .dwendentry
    2575                      .dwendtag DW$148
    2576              
    2577 000002b4               .sect   ".text"
    2578                      .global _OS_TaskIdle
    2579              
    2580              DW$155  .dwtag  DW_TAG_subprogram, DW_AT_name("OS_TaskIdle"), DW_AT_symbol_name("_OS_TaskIdle")
    2581                      .dwattr DW$155, DW_AT_low_pc(_OS_TaskIdle)
    2582                      .dwattr DW$155, DW_AT_high_pc(0x00)
    2583                      .dwattr DW$155, DW_AT_begin_file("./os_core.c")
    2584                      .dwattr DW$155, DW_AT_begin_line(0x749)
    2585                      .dwattr DW$155, DW_AT_begin_column(0x07)
    2586                      .dwpsn  "./os_core.c",1866,1
    2587              
    2588                      .dwfde DW$CIE
    2589              
    2590              ;***************************************************************
    2591              ;* FNAME: _OS_TaskIdle                  FR SIZE:   2           *
    2592              ;*                                                             *
    2593              ;* FUNCTION ENVIRONMENT                                        *
    2594              ;*                                                             *
    2595              ;* FUNCTION PROPERTIES                                         *
    2596              ;*                            0 Parameter,  2 Auto,  0 SOE     *
    2597              ;***************************************************************
    2598              
    2599              _OS_TaskIdle:
    2600                      .dwcfa  0x1d, -2
    2601                      .dwcfa  0x1c, 26, 0
    2602                      .dwcfa  0x09, 40, 26
    2603 000002b4 FE02          ADDB      SP,#2
    2604                      .dwcfa  0x1d, -4
    2605              ;* AR4   assigned to _p_arg
TMS320C2000 COFF Assembler PC v4.1.3 Thu Jul 15 08:50:48 2010

Tools Copyright (c) 1996-2006 Texas Instruments Incorporated
C:\DOCUME~1\ADMINI~1\LOCALS~1\Temp\TI6202                            PAGE   50

    2606              DW$156  .dwtag  DW_TAG_formal_parameter, DW_AT_name("p_arg"), DW_AT_symbol_name("_p_arg")
    2607                      .dwattr DW$156, DW_AT_type(*DW$T$3)
    2608                      .dwattr DW$156, DW_AT_location[DW_OP_reg12]
    2609              DW$157  .dwtag  DW_TAG_variable, DW_AT_name("p_arg"), DW_AT_symbol_name("_p_arg")
    2610                      .dwattr DW$157, DW_AT_type(*DW$T$3)
    2611                      .dwattr DW$157, DW_AT_location[DW_OP_breg20 -2]
    2612 000002b5 A842          MOVL      *-SP[2],XAR4          ; |1866| 
    2613                      .dwpsn  "./os_core.c",1873,2
    2614              L39:    
    2615              DW$L$_OS_TaskIdle$2$B:
    2616                      .dwpsn  "./os_core.c",1876,3
    2617 000002b6 3B10   setc INTM
    2618                      .dwpsn  "./os_core.c",1877,3
    2619 000002b7 0201          MOVB      ACC,#1
    2620 000002b8 761F-         MOVW      DP,#_OSIdleCtr
         000002b9 0000 
    2621 000002ba 5601-         ADDL      @_OSIdleCtr,ACC       ; |1877| 
         000002bb 0014 
    2622                      .dwpsn  "./os_core.c",1878,3
    2623 000002bc 2910   clrc INTM
    2624                      .dwpsn  "./os_core.c",1879,3
    2625 000002bd FF69          SPM       #0
    2626 000002be 7640!         LCR       #_OSTaskIdleHook      ; |1879| 
         000002bf 0000 
    2627                      ; call occurs [#_OSTaskIdleHook] ; |1879| 
    2628                      .dwpsn  "./os_core.c",1880,2
    2629 000002c0 6FF6          B         L39,UNC               ; |1880| 
    2630                      ; branch occurs ; |1880| 
    2631              DW$L$_OS_TaskIdle$2$E:
    2632                      .dwcfa  0x1d, -2
    2633              
    2634              DW$158  .dwtag  DW_TAG_loop
    2635                      .dwattr DW$158, DW_AT_name("C:\DOCUME~1\ADMINI~1\LOCALS~1\Temp\TI6202:L39:1:1279155047")
    2636                      .dwattr DW$158, DW_AT_begin_file("./os_core.c")
    2637                      .dwattr DW$158, DW_AT_begin_line(0x752)
    2638                      .dwattr DW$158, DW_AT_end_line(0x758)
    2639              DW$159  .dwtag  DW_TAG_loop_range
    2640                      .dwattr DW$159, DW_AT_low_pc(DW$L$_OS_TaskIdle$2$B)
    2641                      .dwattr DW$159, DW_AT_high_pc(DW$L$_OS_TaskIdle$2$E)
    2642                      .dwendtag DW$158
    2643              
    2644                      .dwattr DW$155, DW_AT_end_file("./os_core.c")
    2645                      .dwattr DW$155, DW_AT_end_line(0x759)
    2646                      .dwattr DW$155, DW_AT_end_column(0x01)
    2647                      .dwendentry
    2648                      .dwendtag DW$155
    2649              
    2650 000002c1               .sect   ".text"
    2651                      .global _OS_TCBInit
    2652              
    2653              DW$160  .dwtag  DW_TAG_subprogram, DW_AT_name("OS_TCBInit"), DW_AT_symbol_name("_OS_TCBInit")
    2654                      .dwattr DW$160, DW_AT_low_pc(_OS_TCBInit)
    2655                      .dwattr DW$160, DW_AT_high_pc(0x00)
    2656                      .dwattr DW$160, DW_AT_begin_file("./os_core.c")
    2657                      .dwattr DW$160, DW_AT_begin_line(0x7f0)
TMS320C2000 COFF Assembler PC v4.1.3 Thu Jul 15 08:50:48 2010

Tools Copyright (c) 1996-2006 Texas Instruments Incorporated
C:\DOCUME~1\ADMINI~1\LOCALS~1\Temp\TI6202                            PAGE   51

    2658                      .dwattr DW$160, DW_AT_begin_column(0x08)
    2659                      .dwpsn  "./os_core.c",2033,1
    2660              
    2661                      .dwfde DW$CIE
    2662              
    2663              ;***************************************************************
    2664              ;* FNAME: _OS_TCBInit                   FR SIZE:  10           *
    2665              ;*                                                             *
    2666              ;* FUNCTION ENVIRONMENT                                        *
    2667              ;*                                                             *
    2668              ;* FUNCTION PROPERTIES                                         *
    2669              ;*                            0 Parameter,  8 Auto,  2 SOE     *
    2670              ;***************************************************************
    2671              
    2672              _OS_TCBInit:
    2673                      .dwcfa  0x1d, -2
    2674                      .dwcfa  0x1c, 26, 0
    2675                      .dwcfa  0x09, 40, 26
    2676 000002c1 B2BD          MOVL      *SP++,XAR1
    2677                      .dwcfa  0x80, 7, 2
    2678                      .dwcfa  0x1d, -4
    2679 000002c2 FE08          ADDB      SP,#8
    2680                      .dwcfa  0x1d, -12
    2681              DW$161  .dwtag  DW_TAG_formal_parameter, DW_AT_name("prio"), DW_AT_symbol_name("_prio")
    2682                      .dwattr DW$161, DW_AT_type(*DW$T$19)
    2683                      .dwattr DW$161, DW_AT_location[DW_OP_breg20 -13]
    2684              ;* AR4   assigned to _ptos
    2685              DW$162  .dwtag  DW_TAG_formal_parameter, DW_AT_name("ptos"), DW_AT_symbol_name("_ptos")
    2686                      .dwattr DW$162, DW_AT_type(*DW$T$25)
    2687                      .dwattr DW$162, DW_AT_location[DW_OP_reg12]
    2688              ;* AR5   assigned to _pbos
    2689              DW$163  .dwtag  DW_TAG_formal_parameter, DW_AT_name("pbos"), DW_AT_symbol_name("_pbos")
    2690                      .dwattr DW$163, DW_AT_type(*DW$T$25)
    2691                      .dwattr DW$163, DW_AT_location[DW_OP_reg14]
    2692              DW$164  .dwtag  DW_TAG_formal_parameter, DW_AT_name("id"), DW_AT_symbol_name("_id")
    2693                      .dwattr DW$164, DW_AT_type(*DW$T$20)
    2694                      .dwattr DW$164, DW_AT_location[DW_OP_breg20 -14]
    2695              ;* AL    assigned to _stk_size
    2696              DW$165  .dwtag  DW_TAG_formal_parameter, DW_AT_name("stk_size"), DW_AT_symbol_name("_stk_size")
    2697                      .dwattr DW$165, DW_AT_type(*DW$T$62)
    2698                      .dwattr DW$165, DW_AT_location[DW_OP_reg0]
    2699              DW$166  .dwtag  DW_TAG_formal_parameter, DW_AT_name("pext"), DW_AT_symbol_name("_pext")
    2700                      .dwattr DW$166, DW_AT_type(*DW$T$3)
    2701                      .dwattr DW$166, DW_AT_location[DW_OP_breg20 -16]
    2702              DW$167  .dwtag  DW_TAG_formal_parameter, DW_AT_name("opt"), DW_AT_symbol_name("_opt")
    2703                      .dwattr DW$167, DW_AT_type(*DW$T$20)
    2704                      .dwattr DW$167, DW_AT_location[DW_OP_breg20 -17]
    2705              DW$168  .dwtag  DW_TAG_variable, DW_AT_name("ptos"), DW_AT_symbol_name("_ptos")
    2706                      .dwattr DW$168, DW_AT_type(*DW$T$25)
    2707                      .dwattr DW$168, DW_AT_location[DW_OP_breg20 -2]
    2708              DW$169  .dwtag  DW_TAG_variable, DW_AT_name("pbos"), DW_AT_symbol_name("_pbos")
    2709                      .dwattr DW$169, DW_AT_type(*DW$T$25)
    2710                      .dwattr DW$169, DW_AT_location[DW_OP_breg20 -4]
    2711              DW$170  .dwtag  DW_TAG_variable, DW_AT_name("stk_size"), DW_AT_symbol_name("_stk_size")
    2712                      .dwattr DW$170, DW_AT_type(*DW$T$62)
TMS320C2000 COFF Assembler PC v4.1.3 Thu Jul 15 08:50:48 2010

Tools Copyright (c) 1996-2006 Texas Instruments Incorporated
C:\DOCUME~1\ADMINI~1\LOCALS~1\Temp\TI6202                            PAGE   52

    2713                      .dwattr DW$170, DW_AT_location[DW_OP_breg20 -6]
    2714              DW$171  .dwtag  DW_TAG_variable, DW_AT_name("ptcb"), DW_AT_symbol_name("_ptcb")
    2715                      .dwattr DW$171, DW_AT_type(*DW$T$38)
    2716                      .dwattr DW$171, DW_AT_location[DW_OP_breg20 -8]
    2717 000002c3 1E46          MOVL      *-SP[6],ACC           ; |2033| 
    2718 000002c4 A044          MOVL      *-SP[4],XAR5          ; |2033| 
    2719 000002c5 A842          MOVL      *-SP[2],XAR4          ; |2033| 
    2720                      .dwpsn  "./os_core.c",2041,2
    2721 000002c6 3B10   setc INTM
    2722                      .dwpsn  "./os_core.c",2042,2
    2723 000002c7 761F-         MOVW      DP,#_OSTCBFreeList
         000002c8 0000 
    2724 000002c9 0608-         MOVL      ACC,@_OSTCBFreeList   ; |2042| 
    2725 000002ca 1E48          MOVL      *-SP[8],ACC           ; |2042| 
    2726                      .dwpsn  "./os_core.c",2043,2
    2727 000002cb 0648          MOVL      ACC,*-SP[8]           ; |2043| 
    2728 000002cc EC71          BF        L41,EQ                ; |2043| 
    2729                      ; branchcc occurs ; |2043| 
    2730                      .dwpsn  "./os_core.c",2045,3
    2731 000002cd 8A48          MOVL      XAR4,*-SP[8]          ; |2045| 
    2732 000002ce 06D4          MOVL      ACC,*+XAR4[2]         ; |2045| 
    2733 000002cf 1E08-         MOVL      @_OSTCBFreeList,ACC   ; |2045| 
    2734                      .dwpsn  "./os_core.c",2046,3
    2735 000002d0 2910   clrc INTM
    2736                      .dwpsn  "./os_core.c",2047,3
    2737 000002d1 8A48          MOVL      XAR4,*-SP[8]          ; |2047| 
    2738 000002d2 0642          MOVL      ACC,*-SP[2]           ; |2047| 
    2739 000002d3 1EC4          MOVL      *+XAR4[0],ACC         ; |2047| 
    2740                      .dwpsn  "./os_core.c",2048,3
    2741 000002d4 8A48          MOVL      XAR4,*-SP[8]          ; |2048| 
    2742 000002d5 D10D          MOVB      XAR1,#13              ; |2048| 
    2743 000002d6 924D          MOV       AL,*-SP[13]           ; |2048| 
    2744 000002d7 969C          MOV       *+XAR4[AR1],AL        ; |2048| 
    2745                      .dwpsn  "./os_core.c",2049,3
    2746 000002d8 8A48          MOVL      XAR4,*-SP[8]          ; |2049| 
    2747 000002d9 D00B          MOVB      XAR0,#11              ; |2049| 
    2748 000002da 2B94          MOV       *+XAR4[AR0],#0        ; |2049| 
    2749                      .dwpsn  "./os_core.c",2050,3
    2750 000002db 8A48          MOVL      XAR4,*-SP[8]          ; |2050| 
    2751 000002dc D00C          MOVB      XAR0,#12              ; |2050| 
    2752 000002dd 2B94          MOV       *+XAR4[AR0],#0        ; |2050| 
    2753                      .dwpsn  "./os_core.c",2051,3
    2754 000002de 8A48          MOVL      XAR4,*-SP[8]          ; |2051| 
    2755 000002df D00A          MOVB      XAR0,#10              ; |2051| 
    2756 000002e0 2B94          MOV       *+XAR4[AR0],#0        ; |2051| 
    2757                      .dwpsn  "./os_core.c",2060,3
    2758 000002e1 0650          MOVL      ACC,*-SP[16]          ; |2060| 
    2759 000002e2 1E50          MOVL      *-SP[16],ACC          ; |2060| 
    2760                      .dwpsn  "./os_core.c",2061,3
    2761 000002e3 0646          MOVL      ACC,*-SP[6]           ; |2061| 
    2762 000002e4 1E46          MOVL      *-SP[6],ACC           ; |2061| 
    2763                      .dwpsn  "./os_core.c",2062,3
    2764 000002e5 0644          MOVL      ACC,*-SP[4]           ; |2062| 
    2765 000002e6 1E44          MOVL      *-SP[4],ACC           ; |2062| 
    2766                      .dwpsn  "./os_core.c",2063,3
TMS320C2000 COFF Assembler PC v4.1.3 Thu Jul 15 08:50:48 2010

Tools Copyright (c) 1996-2006 Texas Instruments Incorporated
C:\DOCUME~1\ADMINI~1\LOCALS~1\Temp\TI6202                            PAGE   53

    2767                      .dwpsn  "./os_core.c",2064,3
    2768                      .dwpsn  "./os_core.c",2068,3
    2769 000002e7 8A48          MOVL      XAR4,*-SP[8]          ; |2068| 
    2770 000002e8 D012          MOVB      XAR0,#18              ; |2068| 
    2771 000002e9 2B94          MOV       *+XAR4[AR0],#0        ; |2068| 
    2772                      .dwpsn  "./os_core.c",2072,3
    2773 000002ea 8A48          MOVL      XAR4,*-SP[8]          ; |2072| 
    2774 000002eb 924D          MOV       AL,*-SP[13]           ; |2072| 
    2775 000002ec D10F          MOVB      XAR1,#15              ; |2072| 
    2776 000002ed FFC2          LSR       AL,3                  ; |2072| 
    2777 000002ee 969C          MOV       *+XAR4[AR1],AL        ; |2072| 
    2778                      .dwpsn  "./os_core.c",2073,3
    2779 000002ef 8A48          MOVL      XAR4,*-SP[8]          ; |2073| 
    2780 000002f0 924D          MOV       AL,*-SP[13]           ; |2073| 
    2781 000002f1 D10E          MOVB      XAR1,#14              ; |2073| 
    2782 000002f2 9007          ANDB      AL,#0x07              ; |2073| 
    2783 000002f3 969C          MOV       *+XAR4[AR1],AL        ; |2073| 
    2784                      .dwpsn  "./os_core.c",2074,3
    2785 000002f4 8A48          MOVL      XAR4,*-SP[8]          ; |2074| 
    2786 000002f5 D00F          MOVB      XAR0,#15              ; |2074| 
    2787 000002f6 2D94          MOV       T,*+XAR4[AR0]         ; |2074| 
    2788 000002f7 8A48          MOVL      XAR4,*-SP[8]          ; |2074| 
    2789 000002f8 9A01          MOVB      AL,#1                 ; |2074| 
    2790 000002f9 D011          MOVB      XAR0,#17              ; |2074| 
    2791 000002fa FF66          LSL       AL,T                  ; |2074| 
    2792 000002fb 9694          MOV       *+XAR4[AR0],AL        ; |2074| 
    2793                      .dwpsn  "./os_core.c",2075,3
    2794 000002fc 8A48          MOVL      XAR4,*-SP[8]          ; |2075| 
    2795 000002fd D00E          MOVB      XAR0,#14              ; |2075| 
    2796 000002fe 2D94          MOV       T,*+XAR4[AR0]         ; |2075| 
    2797 000002ff 8A48          MOVL      XAR4,*-SP[8]          ; |2075| 
    2798 00000300 9A01          MOVB      AL,#1                 ; |2075| 
    2799 00000301 D010          MOVB      XAR0,#16              ; |2075| 
    2800 00000302 FF66          LSL       AL,T                  ; |2075| 
    2801 00000303 9694          MOV       *+XAR4[AR0],AL        ; |2075| 
    2802                      .dwpsn  "./os_core.c",2084,3
    2803 00000304 8A48          MOVL      XAR4,*-SP[8]          ; |2084| 
    2804 00000305 0200          MOVB      ACC,#0
    2805 00000306 1EF4          MOVL      *+XAR4[6],ACC         ; |2084| 
    2806                      .dwpsn  "./os_core.c",2095,3
    2807 00000307 8A48          MOVL      XAR4,*-SP[8]          ; |2095| 
    2808 00000308 D008          MOVB      XAR0,#8               ; |2095| 
    2809 00000309 1E94          MOVL      *+XAR4[AR0],ACC       ; |2095| 
    2810                      .dwpsn  "./os_core.c",2111,3
    2811 0000030a 8A48          MOVL      XAR4,*-SP[8]          ; |2111| 
    2812 0000030b FF69          SPM       #0
    2813 0000030c 7640!         LCR       #_OSTCBInitHook       ; |2111| 
         0000030d 0000 
    2814                      ; call occurs [#_OSTCBInitHook] ; |2111| 
    2815                      .dwpsn  "./os_core.c",2113,3
    2816 0000030e 8A48          MOVL      XAR4,*-SP[8]          ; |2113| 
    2817 0000030f 7640!         LCR       #_OSTaskCreateHook    ; |2113| 
         00000310 0000 
    2818                      ; call occurs [#_OSTaskCreateHook] ; |2113| 
    2819                      .dwpsn  "./os_core.c",2115,3
TMS320C2000 COFF Assembler PC v4.1.3 Thu Jul 15 08:50:48 2010

Tools Copyright (c) 1996-2006 Texas Instruments Incorporated
C:\DOCUME~1\ADMINI~1\LOCALS~1\Temp\TI6202                            PAGE   54

    2820 00000311 3B10   setc INTM
    2821                      .dwpsn  "./os_core.c",2116,3
    2822 00000312 0E4D          MOVU      ACC,*-SP[13]
    2823 00000313 8F00-         MOVL      XAR4,#_OSTCBPrioTbl   ; |2116| 
         00000314 0080 
    2824 00000315 FF30          LSL       ACC,1                 ; |2116| 
    2825 00000316 5601          ADDL      XAR4,ACC
         00000317 00A4 
    2826 00000318 0648          MOVL      ACC,*-SP[8]           ; |2116| 
    2827 00000319 1EC4          MOVL      *+XAR4[0],ACC         ; |2116| 
    2828                      .dwpsn  "./os_core.c",2117,3
    2829 0000031a 8A48          MOVL      XAR4,*-SP[8]          ; |2117| 
    2830 0000031b 761F-         MOVW      DP,#_OSTCBList
         0000031c 0000 
    2831 0000031d 060A-         MOVL      ACC,@_OSTCBList       ; |2117| 
    2832 0000031e 1ED4          MOVL      *+XAR4[2],ACC         ; |2117| 
    2833                      .dwpsn  "./os_core.c",2118,3
    2834 0000031f 8A48          MOVL      XAR4,*-SP[8]          ; |2118| 
    2835 00000320 0200          MOVB      ACC,#0
    2836 00000321 1EE4          MOVL      *+XAR4[4],ACC         ; |2118| 
    2837                      .dwpsn  "./os_core.c",2119,3
    2838 00000322 060A-         MOVL      ACC,@_OSTCBList       ; |2119| 
    2839 00000323 EC04          BF        L40,EQ                ; |2119| 
    2840                      ; branchcc occurs ; |2119| 
    2841                      .dwpsn  "./os_core.c",2121,4
    2842 00000324 8A0A-         MOVL      XAR4,@_OSTCBList      ; |2121| 
    2843 00000325 0648          MOVL      ACC,*-SP[8]           ; |2121| 
    2844 00000326 1EE4          MOVL      *+XAR4[4],ACC         ; |2121| 
    2845              L40:    
    2846                      .dwpsn  "./os_core.c",2123,3
    2847 00000327 0648          MOVL      ACC,*-SP[8]           ; |2123| 
    2848 00000328 1E0A-         MOVL      @_OSTCBList,ACC       ; |2123| 
    2849                      .dwpsn  "./os_core.c",2124,3
    2850 00000329 8A48          MOVL      XAR4,*-SP[8]          ; |2124| 
    2851 0000032a D011          MOVB      XAR0,#17              ; |2124| 
    2852 0000032b 9294          MOV       AL,*+XAR4[AR0]        ; |2124| 
    2853 0000032c 9801-         OR        @_OSRdyGrp,AL         ; |2124| 
    2854                      .dwpsn  "./os_core.c",2125,3
    2855 0000032d 8A48          MOVL      XAR4,*-SP[8]          ; |2125| 
    2856 0000032e D00F          MOVB      XAR0,#15              ; |2125| 
    2857 0000032f 8894          MOVZ      AR6,*+XAR4[AR0]       ; |2125| 
    2858 00000330 8F00-         MOVL      XAR4,#_OSRdyTbl       ; |2125| 
         00000331 0018 
    2859 00000332 A8A9          MOVL      ACC,XAR4              ; |2125| 
    2860 00000333 8348          MOVL      XAR5,*-SP[8]          ; |2125| 
    2861 00000334 0DA6          ADDU      ACC,AR6               ; |2125| 
    2862 00000335 8AA9          MOVL      XAR4,ACC              ; |2125| 
    2863 00000336 D010          MOVB      XAR0,#16              ; |2125| 
    2864 00000337 9295          MOV       AL,*+XAR5[AR0]        ; |2125| 
    2865 00000338 98C4          OR        *+XAR4[0],AL          ; |2125| 
    2866                      .dwpsn  "./os_core.c",2126,3
    2867 00000339 0A03-         INC       @_OSTaskCtr           ; |2126| 
    2868                      .dwpsn  "./os_core.c",2127,3
    2869 0000033a 2910   clrc INTM
    2870                      .dwpsn  "./os_core.c",2128,3
TMS320C2000 COFF Assembler PC v4.1.3 Thu Jul 15 08:50:48 2010

Tools Copyright (c) 1996-2006 Texas Instruments Incorporated
C:\DOCUME~1\ADMINI~1\LOCALS~1\Temp\TI6202                            PAGE   55

    2871 0000033b 9A00          MOVB      AL,#0
    2872 0000033c 6F03          B         L42,UNC               ; |2128| 
    2873                      ; branch occurs ; |2128| 
    2874              L41:    
    2875                      .dwpsn  "./os_core.c",2130,2
    2876 0000033d 2910   clrc INTM
    2877                      .dwpsn  "./os_core.c",2131,2
    2878 0000033e 9A42          MOVB      AL,#66                ; |2131| 
    2879              L42:    
    2880                      .dwpsn  "./os_core.c",2132,1
    2881 0000033f FE88          SUBB      SP,#8                 ; |2131| 
    2882                      .dwcfa  0x1d, -4
    2883 00000340 8BBE          MOVL      XAR1,*--SP            ; |2131| 
    2884                      .dwcfa  0x1d, -2
    2885                      .dwcfa  0xc0, 7
    2886 00000341 FF69          SPM       #0
    2887 00000342 0006          LRETR
    2888                      ; return occurs
    2889                      .dwattr DW$160, DW_AT_end_file("./os_core.c")
    2890                      .dwattr DW$160, DW_AT_end_line(0x854)
    2891                      .dwattr DW$160, DW_AT_end_column(0x01)
    2892                      .dwendentry
    2893                      .dwendtag DW$160
    2894              
    2895 00000343               .sect   ".text"
    2896                      .global _OSQCreate
    2897              
    2898              DW$172  .dwtag  DW_TAG_subprogram, DW_AT_name("OSQCreate"), DW_AT_symbol_name("_OSQCreate")
    2899                      .dwattr DW$172, DW_AT_low_pc(_OSQCreate)
    2900                      .dwattr DW$172, DW_AT_high_pc(0x00)
    2901                      .dwattr DW$172, DW_AT_begin_file("./os_q.c")
    2902                      .dwattr DW$172, DW_AT_begin_line(0x82)
    2903                      .dwattr DW$172, DW_AT_begin_column(0x0c)
    2904                      .dwpsn  "./os_q.c",131,1
    2905              
    2906                      .dwfde DW$CIE
    2907              
    2908              ;***************************************************************
    2909              ;* FNAME: _OSQCreate                    FR SIZE:   8           *
    2910              ;*                                                             *
    2911              ;* FUNCTION ENVIRONMENT                                        *
    2912              ;*                                                             *
    2913              ;* FUNCTION PROPERTIES                                         *
    2914              ;*                            0 Parameter,  8 Auto,  0 SOE     *
    2915              ;***************************************************************
    2916              
    2917              _OSQCreate:
    2918                      .dwcfa  0x1d, -2
    2919                      .dwcfa  0x1c, 26, 0
    2920                      .dwcfa  0x09, 40, 26
    2921 00000343 FE08          ADDB      SP,#8
    2922                      .dwcfa  0x1d, -10
    2923              ;* AR4   assigned to _start
    2924              DW$173  .dwtag  DW_TAG_formal_parameter, DW_AT_name("start"), DW_AT_symbol_name("_start")
    2925                      .dwattr DW$173, DW_AT_type(*DW$T$31)
TMS320C2000 COFF Assembler PC v4.1.3 Thu Jul 15 08:50:48 2010

Tools Copyright (c) 1996-2006 Texas Instruments Incorporated
C:\DOCUME~1\ADMINI~1\LOCALS~1\Temp\TI6202                            PAGE   56

    2926                      .dwattr DW$173, DW_AT_location[DW_OP_reg12]
    2927              ;* AL    assigned to _size
    2928              DW$174  .dwtag  DW_TAG_formal_parameter, DW_AT_name("size"), DW_AT_symbol_name("_size")
    2929                      .dwattr DW$174, DW_AT_type(*DW$T$20)
    2930                      .dwattr DW$174, DW_AT_location[DW_OP_reg0]
    2931              DW$175  .dwtag  DW_TAG_variable, DW_AT_name("start"), DW_AT_symbol_name("_start")
    2932                      .dwattr DW$175, DW_AT_type(*DW$T$31)
    2933                      .dwattr DW$175, DW_AT_location[DW_OP_breg20 -2]
    2934              DW$176  .dwtag  DW_TAG_variable, DW_AT_name("size"), DW_AT_symbol_name("_size")
    2935                      .dwattr DW$176, DW_AT_type(*DW$T$20)
    2936                      .dwattr DW$176, DW_AT_location[DW_OP_breg20 -3]
    2937              DW$177  .dwtag  DW_TAG_variable, DW_AT_name("pevent"), DW_AT_symbol_name("_pevent")
    2938                      .dwattr DW$177, DW_AT_type(*DW$T$28)
    2939                      .dwattr DW$177, DW_AT_location[DW_OP_breg20 -6]
    2940              DW$178  .dwtag  DW_TAG_variable, DW_AT_name("pq"), DW_AT_symbol_name("_pq")
    2941                      .dwattr DW$178, DW_AT_type(*DW$T$86)
    2942                      .dwattr DW$178, DW_AT_location[DW_OP_breg20 -8]
    2943 00000344 9643          MOV       *-SP[3],AL            ; |131| 
    2944 00000345 A842          MOVL      *-SP[2],XAR4          ; |131| 
    2945                      .dwpsn  "./os_q.c",140,2
    2946 00000346 761F-         MOVW      DP,#_OSIntNesting
         00000347 0000 
    2947 00000348 9206-         MOV       AL,@_OSIntNesting     ; |140| 
    2948 00000349 EC03          BF        L43,EQ                ; |140| 
    2949                      ; branchcc occurs ; |140| 
    2950                      .dwpsn  "./os_q.c",142,3
    2951 0000034a D400          MOVB      XAR4,#0
    2952 0000034b 6F4A          B         L47,UNC               ; |142| 
    2953                      ; branch occurs ; |142| 
    2954              L43:    
    2955                      .dwpsn  "./os_q.c",144,2
    2956 0000034c 3B10   setc INTM
    2957                      .dwpsn  "./os_q.c",145,2
    2958 0000034d 0616-         MOVL      ACC,@_OSEventFreeList ; |145| 
    2959 0000034e 1E46          MOVL      *-SP[6],ACC           ; |145| 
    2960                      .dwpsn  "./os_q.c",146,2
    2961 0000034f 0616-         MOVL      ACC,@_OSEventFreeList ; |146| 
    2962 00000350 EC04          BF        L44,EQ                ; |146| 
    2963                      ; branchcc occurs ; |146| 
    2964                      .dwpsn  "./os_q.c",148,3
    2965 00000351 8A16-         MOVL      XAR4,@_OSEventFreeList ; |148| 
    2966 00000352 06D4          MOVL      ACC,*+XAR4[2]         ; |148| 
    2967 00000353 1E16-         MOVL      @_OSEventFreeList,ACC ; |148| 
    2968              L44:    
    2969                      .dwpsn  "./os_q.c",150,2
    2970 00000354 2910   clrc INTM
    2971                      .dwpsn  "./os_q.c",151,2
    2972 00000355 0646          MOVL      ACC,*-SP[6]           ; |151| 
    2973 00000356 EC3E          BF        L46,EQ                ; |151| 
    2974                      ; branchcc occurs ; |151| 
    2975                      .dwpsn  "./os_q.c",153,3
    2976 00000357 3B10   setc INTM
    2977                      .dwpsn  "./os_q.c",154,3
    2978 00000358 0610-         MOVL      ACC,@_OSQFreeList     ; |154| 
    2979 00000359 1E48          MOVL      *-SP[8],ACC           ; |154| 
TMS320C2000 COFF Assembler PC v4.1.3 Thu Jul 15 08:50:48 2010

Tools Copyright (c) 1996-2006 Texas Instruments Incorporated
C:\DOCUME~1\ADMINI~1\LOCALS~1\Temp\TI6202                            PAGE   57

    2980                      .dwpsn  "./os_q.c",155,3
    2981 0000035a 0648          MOVL      ACC,*-SP[8]           ; |155| 
    2982 0000035b EC31          BF        L45,EQ                ; |155| 
    2983                      ; branchcc occurs ; |155| 
    2984                      .dwpsn  "./os_q.c",157,4
    2985 0000035c 8A10-         MOVL      XAR4,@_OSQFreeList    ; |157| 
    2986 0000035d 06C4          MOVL      ACC,*+XAR4[0]         ; |157| 
    2987 0000035e 1E10-         MOVL      @_OSQFreeList,ACC     ; |157| 
    2988                      .dwpsn  "./os_q.c",158,4
    2989 0000035f 2910   clrc INTM
    2990                      .dwpsn  "./os_q.c",159,4
    2991 00000360 8A48          MOVL      XAR4,*-SP[8]          ; |159| 
    2992 00000361 0642          MOVL      ACC,*-SP[2]           ; |159| 
    2993 00000362 1ED4          MOVL      *+XAR4[2],ACC         ; |159| 
    2994                      .dwpsn  "./os_q.c",160,4
    2995 00000363 C442          MOVL      XAR6,*-SP[2]          ; |160| 
    2996 00000364 8A48          MOVL      XAR4,*-SP[8]          ; |160| 
    2997 00000365 0E43          MOVU      ACC,*-SP[3]
    2998 00000366 FF30          LSL       ACC,1                 ; |160| 
    2999 00000367 5601          ADDL      XAR6,ACC
         00000368 00A6 
    3000 00000369 C2E4          MOVL      *+XAR4[4],XAR6        ; |160| 
    3001                      .dwpsn  "./os_q.c",161,4
    3002 0000036a 8A48          MOVL      XAR4,*-SP[8]          ; |161| 
    3003 0000036b 0642          MOVL      ACC,*-SP[2]           ; |161| 
    3004 0000036c 1EF4          MOVL      *+XAR4[6],ACC         ; |161| 
    3005                      .dwpsn  "./os_q.c",162,4
    3006 0000036d 8A48          MOVL      XAR4,*-SP[8]          ; |162| 
    3007 0000036e D008          MOVB      XAR0,#8               ; |162| 
    3008 0000036f 0642          MOVL      ACC,*-SP[2]           ; |162| 
    3009 00000370 1E94          MOVL      *+XAR4[AR0],ACC       ; |162| 
    3010                      .dwpsn  "./os_q.c",163,4
    3011 00000371 8A48          MOVL      XAR4,*-SP[8]          ; |163| 
    3012 00000372 D00A          MOVB      XAR0,#10              ; |163| 
    3013 00000373 9243          MOV       AL,*-SP[3]            ; |163| 
    3014 00000374 9694          MOV       *+XAR4[AR0],AL        ; |163| 
    3015                      .dwpsn  "./os_q.c",164,4
    3016 00000375 8A48          MOVL      XAR4,*-SP[8]          ; |164| 
    3017 00000376 D00B          MOVB      XAR0,#11              ; |164| 
    3018 00000377 2B94          MOV       *+XAR4[AR0],#0        ; |164| 
    3019                      .dwpsn  "./os_q.c",165,4
    3020 00000378 8A46          MOVL      XAR4,*-SP[6]          ; |165| 
    3021 00000379 28C4          MOV       *+XAR4[0],#2          ; |165| 
         0000037a 0002 
    3022                      .dwpsn  "./os_q.c",166,4
    3023 0000037b 8A46          MOVL      XAR4,*-SP[6]          ; |166| 
    3024 0000037c 2BE4          MOV       *+XAR4[4],#0          ; |166| 
    3025                      .dwpsn  "./os_q.c",167,4
    3026 0000037d 8A46          MOVL      XAR4,*-SP[6]          ; |167| 
    3027 0000037e 0648          MOVL      ACC,*-SP[8]           ; |167| 
    3028 0000037f 1ED4          MOVL      *+XAR4[2],ACC         ; |167| 
    3029                      .dwpsn  "./os_q.c",169,4
    3030 00000380 8A46          MOVL      XAR4,*-SP[6]          ; |169| 
    3031 00000381 D00E          MOVB      XAR0,#14              ; |169| 
    3032 00000382 2894          MOV       *+XAR4[AR0],#63       ; |169| 
TMS320C2000 COFF Assembler PC v4.1.3 Thu Jul 15 08:50:48 2010

Tools Copyright (c) 1996-2006 Texas Instruments Incorporated
C:\DOCUME~1\ADMINI~1\LOCALS~1\Temp\TI6202                            PAGE   58

         00000383 003F 
    3033                      .dwpsn  "./os_q.c",170,4
    3034 00000384 8A46          MOVL      XAR4,*-SP[6]          ; |170| 
    3035 00000385 D00F          MOVB      XAR0,#15              ; |170| 
    3036 00000386 2B94          MOV       *+XAR4[AR0],#0        ; |170| 
    3037                      .dwpsn  "./os_q.c",172,4
    3038 00000387 8A46          MOVL      XAR4,*-SP[6]          ; |172| 
    3039 00000388 FF69          SPM       #0
    3040 00000389 7640'         LCR       #_OS_EventWaitListInit ; |172| 
         0000038a 018D 
    3041                      ; call occurs [#_OS_EventWaitListInit] ; |172| 
    3042                      .dwpsn  "./os_q.c",173,3
    3043 0000038b 6F09          B         L46,UNC               ; |173| 
    3044                      ; branch occurs ; |173| 
    3045              L45:    
    3046                      .dwpsn  "./os_q.c",176,4
    3047 0000038c 8A46          MOVL      XAR4,*-SP[6]          ; |176| 
    3048 0000038d 0616-         MOVL      ACC,@_OSEventFreeList ; |176| 
    3049 0000038e 1ED4          MOVL      *+XAR4[2],ACC         ; |176| 
    3050                      .dwpsn  "./os_q.c",177,4
    3051 0000038f 0646          MOVL      ACC,*-SP[6]           ; |177| 
    3052 00000390 1E16-         MOVL      @_OSEventFreeList,ACC ; |177| 
    3053                      .dwpsn  "./os_q.c",178,4
    3054 00000391 2910   clrc INTM
    3055                      .dwpsn  "./os_q.c",179,4
    3056 00000392 0200          MOVB      ACC,#0
    3057 00000393 1E46          MOVL      *-SP[6],ACC           ; |179| 
    3058              L46:    
    3059                      .dwpsn  "./os_q.c",182,2
    3060 00000394 8A46          MOVL      XAR4,*-SP[6]          ; |182| 
    3061              L47:    
    3062                      .dwpsn  "./os_q.c",183,1
    3063 00000395 FE88          SUBB      SP,#8                 ; |182| 
    3064                      .dwcfa  0x1d, -2
    3065 00000396 FF69          SPM       #0
    3066 00000397 0006          LRETR
    3067                      ; return occurs
    3068                      .dwattr DW$172, DW_AT_end_file("./os_q.c")
    3069                      .dwattr DW$172, DW_AT_end_line(0xb7)
    3070                      .dwattr DW$172, DW_AT_end_column(0x01)
    3071                      .dwendentry
    3072                      .dwendtag DW$172
    3073              
    3074 00000398               .sect   ".text"
    3075                      .global _OSQFlush
    3076              
    3077              DW$179  .dwtag  DW_TAG_subprogram, DW_AT_name("OSQFlush"), DW_AT_symbol_name("_OSQFlush")
    3078                      .dwattr DW$179, DW_AT_low_pc(_OSQFlush)
    3079                      .dwattr DW$179, DW_AT_high_pc(0x00)
    3080                      .dwattr DW$179, DW_AT_begin_file("./os_q.c")
    3081                      .dwattr DW$179, DW_AT_begin_line(0x162)
    3082                      .dwattr DW$179, DW_AT_begin_column(0x08)
    3083                      .dwpsn  "./os_q.c",355,1
    3084              
    3085                      .dwfde DW$CIE
TMS320C2000 COFF Assembler PC v4.1.3 Thu Jul 15 08:50:48 2010

Tools Copyright (c) 1996-2006 Texas Instruments Incorporated
C:\DOCUME~1\ADMINI~1\LOCALS~1\Temp\TI6202                            PAGE   59

    3086              
    3087              ;***************************************************************
    3088              ;* FNAME: _OSQFlush                     FR SIZE:   4           *
    3089              ;*                                                             *
    3090              ;* FUNCTION ENVIRONMENT                                        *
    3091              ;*                                                             *
    3092              ;* FUNCTION PROPERTIES                                         *
    3093              ;*                            0 Parameter,  4 Auto,  0 SOE     *
    3094              ;***************************************************************
    3095              
    3096              _OSQFlush:
    3097                      .dwcfa  0x1d, -2
    3098                      .dwcfa  0x1c, 26, 0
    3099                      .dwcfa  0x09, 40, 26
    3100 00000398 FE04          ADDB      SP,#4
    3101                      .dwcfa  0x1d, -6
    3102              ;* AR4   assigned to _pevent
    3103              DW$180  .dwtag  DW_TAG_formal_parameter, DW_AT_name("pevent"), DW_AT_symbol_name("_pevent")
    3104                      .dwattr DW$180, DW_AT_type(*DW$T$28)
    3105                      .dwattr DW$180, DW_AT_location[DW_OP_reg12]
    3106              DW$181  .dwtag  DW_TAG_variable, DW_AT_name("pevent"), DW_AT_symbol_name("_pevent")
    3107                      .dwattr DW$181, DW_AT_type(*DW$T$28)
    3108                      .dwattr DW$181, DW_AT_location[DW_OP_breg20 -2]
    3109              DW$182  .dwtag  DW_TAG_variable, DW_AT_name("pq"), DW_AT_symbol_name("_pq")
    3110                      .dwattr DW$182, DW_AT_type(*DW$T$86)
    3111                      .dwattr DW$182, DW_AT_location[DW_OP_breg20 -4]
    3112 00000399 A842          MOVL      *-SP[2],XAR4          ; |355| 
    3113                      .dwpsn  "./os_q.c",373,2
    3114 0000039a 3B10   setc INTM
    3115                      .dwpsn  "./os_q.c",374,2
    3116 0000039b 8A42          MOVL      XAR4,*-SP[2]          ; |374| 
    3117 0000039c 06D4          MOVL      ACC,*+XAR4[2]         ; |374| 
    3118 0000039d 1E44          MOVL      *-SP[4],ACC           ; |374| 
    3119                      .dwpsn  "./os_q.c",375,2
    3120 0000039e 8A44          MOVL      XAR4,*-SP[4]          ; |375| 
    3121 0000039f 06D4          MOVL      ACC,*+XAR4[2]         ; |375| 
    3122 000003a0 8A44          MOVL      XAR4,*-SP[4]          ; |375| 
    3123 000003a1 1EF4          MOVL      *+XAR4[6],ACC         ; |375| 
    3124                      .dwpsn  "./os_q.c",376,2
    3125 000003a2 8A44          MOVL      XAR4,*-SP[4]          ; |376| 
    3126 000003a3 8344          MOVL      XAR5,*-SP[4]          ; |376| 
    3127 000003a4 D008          MOVB      XAR0,#8               ; |376| 
    3128 000003a5 06D4          MOVL      ACC,*+XAR4[2]         ; |376| 
    3129 000003a6 1E95          MOVL      *+XAR5[AR0],ACC       ; |376| 
    3130                      .dwpsn  "./os_q.c",377,2
    3131 000003a7 8A44          MOVL      XAR4,*-SP[4]          ; |377| 
    3132 000003a8 D00B          MOVB      XAR0,#11              ; |377| 
    3133 000003a9 2B94          MOV       *+XAR4[AR0],#0        ; |377| 
    3134                      .dwpsn  "./os_q.c",378,2
    3135 000003aa 2910   clrc INTM
    3136                      .dwpsn  "./os_q.c",379,2
    3137 000003ab 9A00          MOVB      AL,#0
    3138                      .dwpsn  "./os_q.c",380,1
    3139 000003ac FE84          SUBB      SP,#4                 ; |379| 
    3140                      .dwcfa  0x1d, -2
TMS320C2000 COFF Assembler PC v4.1.3 Thu Jul 15 08:50:48 2010

Tools Copyright (c) 1996-2006 Texas Instruments Incorporated
C:\DOCUME~1\ADMINI~1\LOCALS~1\Temp\TI6202                            PAGE   60

    3141 000003ad FF69          SPM       #0
    3142 000003ae 0006          LRETR
    3143                      ; return occurs
    3144                      .dwattr DW$179, DW_AT_end_file("./os_q.c")
    3145                      .dwattr DW$179, DW_AT_end_line(0x17c)
    3146                      .dwattr DW$179, DW_AT_end_column(0x01)
    3147                      .dwendentry
    3148                      .dwendtag DW$179
    3149              
    3150 000003af               .sect   ".text"
    3151                      .global _OSQPend
    3152              
    3153              DW$183  .dwtag  DW_TAG_subprogram, DW_AT_name("OSQPend"), DW_AT_symbol_name("_OSQPend")
    3154                      .dwattr DW$183, DW_AT_low_pc(_OSQPend)
    3155                      .dwattr DW$183, DW_AT_high_pc(0x00)
    3156                      .dwattr DW$183, DW_AT_begin_file("./os_q.c")
    3157                      .dwattr DW$183, DW_AT_begin_line(0x1a5)
    3158                      .dwattr DW$183, DW_AT_begin_column(0x08)
    3159                      .dwpsn  "./os_q.c",422,1
    3160              
    3161                      .dwfde DW$CIE
    3162              
    3163              ;***************************************************************
    3164              ;* FNAME: _OSQPend                      FR SIZE:  10           *
    3165              ;*                                                             *
    3166              ;* FUNCTION ENVIRONMENT                                        *
    3167              ;*                                                             *
    3168              ;* FUNCTION PROPERTIES                                         *
    3169              ;*                            0 Parameter, 10 Auto,  0 SOE     *
    3170              ;***************************************************************
    3171              
    3172              _OSQPend:
    3173                      .dwcfa  0x1d, -2
    3174                      .dwcfa  0x1c, 26, 0
    3175                      .dwcfa  0x09, 40, 26
    3176 000003af FE0A          ADDB      SP,#10
    3177                      .dwcfa  0x1d, -12
    3178              ;* AR4   assigned to _pevent
    3179              DW$184  .dwtag  DW_TAG_formal_parameter, DW_AT_name("pevent"), DW_AT_symbol_name("_pevent")
    3180                      .dwattr DW$184, DW_AT_type(*DW$T$28)
    3181                      .dwattr DW$184, DW_AT_location[DW_OP_reg12]
    3182              ;* AL    assigned to _timeout
    3183              DW$185  .dwtag  DW_TAG_formal_parameter, DW_AT_name("timeout"), DW_AT_symbol_name("_timeout")
    3184                      .dwattr DW$185, DW_AT_type(*DW$T$20)
    3185                      .dwattr DW$185, DW_AT_location[DW_OP_reg0]
    3186              ;* AR5   assigned to _perr
    3187              DW$186  .dwtag  DW_TAG_formal_parameter, DW_AT_name("perr"), DW_AT_symbol_name("_perr")
    3188                      .dwattr DW$186, DW_AT_type(*DW$T$33)
    3189                      .dwattr DW$186, DW_AT_location[DW_OP_reg14]
    3190              DW$187  .dwtag  DW_TAG_variable, DW_AT_name("pevent"), DW_AT_symbol_name("_pevent")
    3191                      .dwattr DW$187, DW_AT_type(*DW$T$28)
    3192                      .dwattr DW$187, DW_AT_location[DW_OP_breg20 -2]
    3193              DW$188  .dwtag  DW_TAG_variable, DW_AT_name("timeout"), DW_AT_symbol_name("_timeout")
    3194                      .dwattr DW$188, DW_AT_type(*DW$T$20)
    3195                      .dwattr DW$188, DW_AT_location[DW_OP_breg20 -3]
TMS320C2000 COFF Assembler PC v4.1.3 Thu Jul 15 08:50:48 2010

Tools Copyright (c) 1996-2006 Texas Instruments Incorporated
C:\DOCUME~1\ADMINI~1\LOCALS~1\Temp\TI6202                            PAGE   61

    3196              DW$189  .dwtag  DW_TAG_variable, DW_AT_name("perr"), DW_AT_symbol_name("_perr")
    3197                      .dwattr DW$189, DW_AT_type(*DW$T$33)
    3198                      .dwattr DW$189, DW_AT_location[DW_OP_breg20 -6]
    3199              DW$190  .dwtag  DW_TAG_variable, DW_AT_name("pmsg"), DW_AT_symbol_name("_pmsg")
    3200                      .dwattr DW$190, DW_AT_type(*DW$T$3)
    3201                      .dwattr DW$190, DW_AT_location[DW_OP_breg20 -8]
    3202              DW$191  .dwtag  DW_TAG_variable, DW_AT_name("pq"), DW_AT_symbol_name("_pq")
    3203                      .dwattr DW$191, DW_AT_type(*DW$T$86)
    3204                      .dwattr DW$191, DW_AT_location[DW_OP_breg20 -10]
    3205 000003b0 A046          MOVL      *-SP[6],XAR5          ; |422| 
    3206 000003b1 9643          MOV       *-SP[3],AL            ; |422| 
    3207 000003b2 A842          MOVL      *-SP[2],XAR4          ; |422| 
    3208                      .dwpsn  "./os_q.c",442,2
    3209 000003b3 8A42          MOVL      XAR4,*-SP[2]          ; |442| 
    3210 000003b4 92C4          MOV       AL,*+XAR4[0]          ; |442| 
    3211 000003b5 5202          CMPB      AL,#2                 ; |442| 
    3212 000003b6 EC06          BF        L48,EQ                ; |442| 
    3213                      ; branchcc occurs ; |442| 
    3214                      .dwpsn  "./os_q.c",444,3
    3215 000003b7 8A46          MOVL      XAR4,*-SP[6]          ; |444| 
    3216 000003b8 28C4          MOV       *+XAR4[0],#1          ; |444| 
         000003b9 0001 
    3217                      .dwpsn  "./os_q.c",445,3
    3218 000003ba D400          MOVB      XAR4,#0
    3219 000003bb 6F74          B         L58,UNC               ; |445| 
    3220                      ; branch occurs ; |445| 
    3221              L48:    
    3222                      .dwpsn  "./os_q.c",447,2
    3223 000003bc 761F-         MOVW      DP,#_OSIntNesting
         000003bd 0000 
    3224 000003be 9206-         MOV       AL,@_OSIntNesting     ; |447| 
    3225 000003bf EC06          BF        L49,EQ                ; |447| 
    3226                      ; branchcc occurs ; |447| 
    3227                      .dwpsn  "./os_q.c",449,3
    3228 000003c0 8A46          MOVL      XAR4,*-SP[6]          ; |449| 
    3229 000003c1 28C4          MOV       *+XAR4[0],#2          ; |449| 
         000003c2 0002 
    3230                      .dwpsn  "./os_q.c",450,3
    3231 000003c3 D400          MOVB      XAR4,#0
    3232 000003c4 6F6B          B         L58,UNC               ; |450| 
    3233                      ; branch occurs ; |450| 
    3234              L49:    
    3235                      .dwpsn  "./os_q.c",452,2
    3236 000003c5 9204-         MOV       AL,@_OSLockNesting    ; |452| 
    3237 000003c6 EC06          BF        L50,EQ                ; |452| 
    3238                      ; branchcc occurs ; |452| 
    3239                      .dwpsn  "./os_q.c",454,3
    3240 000003c7 8A46          MOVL      XAR4,*-SP[6]          ; |454| 
    3241 000003c8 28C4          MOV       *+XAR4[0],#13         ; |454| 
         000003c9 000D 
    3242                      .dwpsn  "./os_q.c",455,3
    3243 000003ca D400          MOVB      XAR4,#0
    3244 000003cb 6F64          B         L58,UNC               ; |455| 
    3245                      ; branch occurs ; |455| 
    3246              L50:    
TMS320C2000 COFF Assembler PC v4.1.3 Thu Jul 15 08:50:48 2010

Tools Copyright (c) 1996-2006 Texas Instruments Incorporated
C:\DOCUME~1\ADMINI~1\LOCALS~1\Temp\TI6202                            PAGE   62

    3247                      .dwpsn  "./os_q.c",457,2
    3248 000003cc 3B10   setc INTM
    3249                      .dwpsn  "./os_q.c",458,2
    3250 000003cd 8A42          MOVL      XAR4,*-SP[2]          ; |458| 
    3251 000003ce 06D4          MOVL      ACC,*+XAR4[2]         ; |458| 
    3252 000003cf 1E4A          MOVL      *-SP[10],ACC          ; |458| 
    3253                      .dwpsn  "./os_q.c",459,2
    3254 000003d0 8A4A          MOVL      XAR4,*-SP[10]         ; |459| 
    3255 000003d1 D00B          MOVB      XAR0,#11              ; |459| 
    3256 000003d2 9294          MOV       AL,*+XAR4[AR0]        ; |459| 
    3257 000003d3 EC1A          BF        L52,EQ                ; |459| 
    3258                      ; branchcc occurs ; |459| 
    3259                      .dwpsn  "./os_q.c",461,3
    3260 000003d4 8A4A          MOVL      XAR4,*-SP[10]         ; |461| 
    3261 000003d5 D008          MOVB      XAR0,#8               ; |461| 
    3262 000003d6 8A94          MOVL      XAR4,*+XAR4[AR0]      ; |461| 
    3263 000003d7 834A          MOVL      XAR5,*-SP[10]         ; |461| 
    3264 000003d8 0684          MOVL      ACC,*XAR4++           ; |461| 
    3265 000003d9 A895          MOVL      *+XAR5[AR0],XAR4      ; |461| 
    3266 000003da 1E48          MOVL      *-SP[8],ACC           ; |461| 
    3267                      .dwpsn  "./os_q.c",462,3
    3268 000003db 8A4A          MOVL      XAR4,*-SP[10]         ; |462| 
    3269 000003dc DC0B          ADDB      XAR4,#11              ; |462| 
    3270 000003dd 0BC4          DEC       *+XAR4[0]             ; |462| 
    3271                      .dwpsn  "./os_q.c",463,3
    3272 000003de 8A4A          MOVL      XAR4,*-SP[10]         ; |463| 
    3273 000003df C494          MOVL      XAR6,*+XAR4[AR0]      ; |463| 
    3274 000003e0 8A4A          MOVL      XAR4,*-SP[10]         ; |463| 
    3275 000003e1 06E4          MOVL      ACC,*+XAR4[4]         ; |463| 
    3276 000003e2 0FA6          CMPL      ACC,XAR6              ; |463| 
    3277 000003e3 ED05          BF        L51,NEQ               ; |463| 
    3278                      ; branchcc occurs ; |463| 
    3279                      .dwpsn  "./os_q.c",465,4
    3280 000003e4 8A4A          MOVL      XAR4,*-SP[10]         ; |465| 
    3281 000003e5 834A          MOVL      XAR5,*-SP[10]         ; |465| 
    3282 000003e6 06D4          MOVL      ACC,*+XAR4[2]         ; |465| 
    3283 000003e7 1E95          MOVL      *+XAR5[AR0],ACC       ; |465| 
    3284              L51:    
    3285                      .dwpsn  "./os_q.c",467,3
    3286 000003e8 2910   clrc INTM
    3287                      .dwpsn  "./os_q.c",468,3
    3288 000003e9 8A46          MOVL      XAR4,*-SP[6]          ; |468| 
    3289 000003ea 2BC4          MOV       *+XAR4[0],#0          ; |468| 
    3290                      .dwpsn  "./os_q.c",469,3
    3291 000003eb 8A48          MOVL      XAR4,*-SP[8]          ; |469| 
    3292 000003ec 6F43          B         L58,UNC               ; |469| 
    3293                      ; branch occurs ; |469| 
    3294              L52:    
    3295                      .dwpsn  "./os_q.c",471,2
    3296 000003ed 8A0C-         MOVL      XAR4,@_OSTCBCur       ; |471| 
    3297 000003ee DC0B          ADDB      XAR4,#11              ; |471| 
    3298 000003ef 1AC4          OR        *+XAR4[0],#0x0004     ; |471| 
         000003f0 0004 
    3299                      .dwpsn  "./os_q.c",472,2
    3300 000003f1 8A0C-         MOVL      XAR4,@_OSTCBCur       ; |472| 
TMS320C2000 COFF Assembler PC v4.1.3 Thu Jul 15 08:50:48 2010

Tools Copyright (c) 1996-2006 Texas Instruments Incorporated
C:\DOCUME~1\ADMINI~1\LOCALS~1\Temp\TI6202                            PAGE   63

    3301 000003f2 D00C          MOVB      XAR0,#12              ; |472| 
    3302 000003f3 2B94          MOV       *+XAR4[AR0],#0        ; |472| 
    3303                      .dwpsn  "./os_q.c",473,2
    3304 000003f4 8A0C-         MOVL      XAR4,@_OSTCBCur       ; |473| 
    3305 000003f5 D00A          MOVB      XAR0,#10              ; |473| 
    3306 000003f6 9243          MOV       AL,*-SP[3]            ; |473| 
    3307 000003f7 9694          MOV       *+XAR4[AR0],AL        ; |473| 
    3308                      .dwpsn  "./os_q.c",474,2
    3309 000003f8 8A42          MOVL      XAR4,*-SP[2]          ; |474| 
    3310 000003f9 FF69          SPM       #0
    3311 000003fa 7640'         LCR       #_OS_EventTaskWait    ; |474| 
         000003fb 013C 
    3312                      ; call occurs [#_OS_EventTaskWait] ; |474| 
    3313                      .dwpsn  "./os_q.c",475,2
    3314 000003fc 2910   clrc INTM
    3315                      .dwpsn  "./os_q.c",476,2
    3316 000003fd FF69          SPM       #0
    3317 000003fe 7640'         LCR       #_OS_Sched            ; |476| 
         000003ff 025E 
    3318                      ; call occurs [#_OS_Sched] ; |476| 
    3319                      .dwpsn  "./os_q.c",477,2
    3320 00000400 3B10   setc INTM
    3321                      .dwpsn  "./os_q.c",478,2
    3322 00000401 6F19          B         L56,UNC               ; |478| 
    3323                      ; branch occurs ; |478| 
    3324              L53:    
    3325                      .dwpsn  "./os_q.c",481,3
    3326 00000402 8A0C-         MOVL      XAR4,@_OSTCBCur       ; |481| 
    3327 00000403 D008          MOVB      XAR0,#8               ; |481| 
    3328 00000404 0694          MOVL      ACC,*+XAR4[AR0]       ; |481| 
    3329 00000405 1E48          MOVL      *-SP[8],ACC           ; |481| 
    3330                      .dwpsn  "./os_q.c",482,3
    3331 00000406 8A46          MOVL      XAR4,*-SP[6]          ; |482| 
    3332 00000407 2BC4          MOV       *+XAR4[0],#0          ; |482| 
    3333                      .dwpsn  "./os_q.c",483,8
    3334 00000408 6F19          B         L57,UNC               ; |483| 
    3335                      ; branch occurs ; |483| 
    3336              L54:    
    3337                      .dwpsn  "./os_q.c",486,3
    3338 00000409 0200          MOVB      ACC,#0
    3339 0000040a 1E48          MOVL      *-SP[8],ACC           ; |486| 
    3340                      .dwpsn  "./os_q.c",487,3
    3341 0000040b 8A46          MOVL      XAR4,*-SP[6]          ; |487| 
    3342 0000040c 28C4          MOV       *+XAR4[0],#14         ; |487| 
         0000040d 000E 
    3343                      .dwpsn  "./os_q.c",488,8
    3344 0000040e 6F13          B         L57,UNC               ; |488| 
    3345                      ; branch occurs ; |488| 
    3346              L55:    
    3347                      .dwpsn  "./os_q.c",492,3
    3348 0000040f 8342          MOVL      XAR5,*-SP[2]          ; |492| 
    3349 00000410 8A0C-         MOVL      XAR4,@_OSTCBCur       ; |492| 
    3350 00000411 FF69          SPM       #0
    3351 00000412 7640'         LCR       #_OS_EventTaskRemove  ; |492| 
         00000413 016E 
TMS320C2000 COFF Assembler PC v4.1.3 Thu Jul 15 08:50:48 2010

Tools Copyright (c) 1996-2006 Texas Instruments Incorporated
C:\DOCUME~1\ADMINI~1\LOCALS~1\Temp\TI6202                            PAGE   64

    3352                      ; call occurs [#_OS_EventTaskRemove] ; |492| 
    3353                      .dwpsn  "./os_q.c",493,3
    3354 00000414 0200          MOVB      ACC,#0
    3355 00000415 1E48          MOVL      *-SP[8],ACC           ; |493| 
    3356                      .dwpsn  "./os_q.c",494,3
    3357 00000416 8A46          MOVL      XAR4,*-SP[6]          ; |494| 
    3358 00000417 28C4          MOV       *+XAR4[0],#10         ; |494| 
         00000418 000A 
    3359                      .dwpsn  "./os_q.c",495,8
    3360 00000419 6F08          B         L57,UNC               ; |495| 
    3361                      ; branch occurs ; |495| 
    3362              L56:    
    3363                      .dwpsn  "./os_q.c",478,2
    3364 0000041a 8A0C-         MOVL      XAR4,@_OSTCBCur       ; |478| 
    3365 0000041b D00C          MOVB      XAR0,#12              ; |478| 
    3366 0000041c 9294          MOV       AL,*+XAR4[AR0]        ; |478| 
    3367 0000041d ECE5          BF        L53,EQ                ; |478| 
    3368                      ; branchcc occurs ; |478| 
    3369 0000041e 5202          CMPB      AL,#2                 ; |478| 
    3370 0000041f ECEA          BF        L54,EQ                ; |478| 
    3371                      ; branchcc occurs ; |478| 
    3372 00000420 6FEF          B         L55,UNC               ; |478| 
    3373                      ; branch occurs ; |478| 
    3374              L57:    
    3375                      .dwpsn  "./os_q.c",497,2
    3376 00000421 8A0C-         MOVL      XAR4,@_OSTCBCur       ; |497| 
    3377 00000422 D00B          MOVB      XAR0,#11              ; |497| 
    3378 00000423 2B94          MOV       *+XAR4[AR0],#0        ; |497| 
    3379                      .dwpsn  "./os_q.c",498,2
    3380 00000424 8A0C-         MOVL      XAR4,@_OSTCBCur       ; |498| 
    3381 00000425 D00C          MOVB      XAR0,#12              ; |498| 
    3382 00000426 2B94          MOV       *+XAR4[AR0],#0        ; |498| 
    3383                      .dwpsn  "./os_q.c",499,2
    3384 00000427 8A0C-         MOVL      XAR4,@_OSTCBCur       ; |499| 
    3385 00000428 0200          MOVB      ACC,#0
    3386 00000429 1EF4          MOVL      *+XAR4[6],ACC         ; |499| 
    3387                      .dwpsn  "./os_q.c",503,2
    3388 0000042a 8A0C-         MOVL      XAR4,@_OSTCBCur       ; |503| 
    3389 0000042b D008          MOVB      XAR0,#8               ; |503| 
    3390 0000042c 1E94          MOVL      *+XAR4[AR0],ACC       ; |503| 
    3391                      .dwpsn  "./os_q.c",504,2
    3392 0000042d 2910   clrc INTM
    3393                      .dwpsn  "./os_q.c",505,2
    3394 0000042e 8A48          MOVL      XAR4,*-SP[8]          ; |505| 
    3395              L58:    
    3396                      .dwpsn  "./os_q.c",506,1
    3397 0000042f FE8A          SUBB      SP,#10                ; |505| 
    3398                      .dwcfa  0x1d, -2
    3399 00000430 FF69          SPM       #0
    3400 00000431 0006          LRETR
    3401                      ; return occurs
    3402                      .dwattr DW$183, DW_AT_end_file("./os_q.c")
    3403                      .dwattr DW$183, DW_AT_end_line(0x1fa)
    3404                      .dwattr DW$183, DW_AT_end_column(0x01)
    3405                      .dwendentry
TMS320C2000 COFF Assembler PC v4.1.3 Thu Jul 15 08:50:48 2010

Tools Copyright (c) 1996-2006 Texas Instruments Incorporated
C:\DOCUME~1\ADMINI~1\LOCALS~1\Temp\TI6202                            PAGE   65

    3406                      .dwendtag DW$183
    3407              
    3408 00000432               .sect   ".text"
    3409                      .global _OSQPost
    3410              
    3411              DW$192  .dwtag  DW_TAG_subprogram, DW_AT_name("OSQPost"), DW_AT_symbol_name("_OSQPost")
    3412                      .dwattr DW$192, DW_AT_low_pc(_OSQPost)
    3413                      .dwattr DW$192, DW_AT_high_pc(0x00)
    3414                      .dwattr DW$192, DW_AT_begin_file("./os_q.c")
    3415                      .dwattr DW$192, DW_AT_begin_line(0x26c)
    3416                      .dwattr DW$192, DW_AT_begin_column(0x08)
    3417                      .dwpsn  "./os_q.c",621,1
    3418              
    3419                      .dwfde DW$CIE
    3420              
    3421              ;***************************************************************
    3422              ;* FNAME: _OSQPost                      FR SIZE:   6           *
    3423              ;*                                                             *
    3424              ;* FUNCTION ENVIRONMENT                                        *
    3425              ;*                                                             *
    3426              ;* FUNCTION PROPERTIES                                         *
    3427              ;*                            0 Parameter,  6 Auto,  0 SOE     *
    3428              ;***************************************************************
    3429              
    3430              _OSQPost:
    3431                      .dwcfa  0x1d, -2
    3432                      .dwcfa  0x1c, 26, 0
    3433                      .dwcfa  0x09, 40, 26
    3434 00000432 FE06          ADDB      SP,#6
    3435                      .dwcfa  0x1d, -8
    3436              ;* AR4   assigned to _pevent
    3437              DW$193  .dwtag  DW_TAG_formal_parameter, DW_AT_name("pevent"), DW_AT_symbol_name("_pevent")
    3438                      .dwattr DW$193, DW_AT_type(*DW$T$28)
    3439                      .dwattr DW$193, DW_AT_location[DW_OP_reg12]
    3440              ;* AR5   assigned to _pmsg
    3441              DW$194  .dwtag  DW_TAG_formal_parameter, DW_AT_name("pmsg"), DW_AT_symbol_name("_pmsg")
    3442                      .dwattr DW$194, DW_AT_type(*DW$T$3)
    3443                      .dwattr DW$194, DW_AT_location[DW_OP_reg14]
    3444              DW$195  .dwtag  DW_TAG_variable, DW_AT_name("pevent"), DW_AT_symbol_name("_pevent")
    3445                      .dwattr DW$195, DW_AT_type(*DW$T$28)
    3446                      .dwattr DW$195, DW_AT_location[DW_OP_breg20 -2]
    3447              DW$196  .dwtag  DW_TAG_variable, DW_AT_name("pmsg"), DW_AT_symbol_name("_pmsg")
    3448                      .dwattr DW$196, DW_AT_type(*DW$T$3)
    3449                      .dwattr DW$196, DW_AT_location[DW_OP_breg20 -4]
    3450              DW$197  .dwtag  DW_TAG_variable, DW_AT_name("pq"), DW_AT_symbol_name("_pq")
    3451                      .dwattr DW$197, DW_AT_type(*DW$T$86)
    3452                      .dwattr DW$197, DW_AT_location[DW_OP_breg20 -6]
    3453 00000433 A044          MOVL      *-SP[4],XAR5          ; |621| 
    3454 00000434 A842          MOVL      *-SP[2],XAR4          ; |621| 
    3455                      .dwpsn  "./os_q.c",635,2
    3456 00000435 8A42          MOVL      XAR4,*-SP[2]          ; |635| 
    3457 00000436 92C4          MOV       AL,*+XAR4[0]          ; |635| 
    3458 00000437 5202          CMPB      AL,#2                 ; |635| 
    3459 00000438 EC03          BF        L59,EQ                ; |635| 
    3460                      ; branchcc occurs ; |635| 
TMS320C2000 COFF Assembler PC v4.1.3 Thu Jul 15 08:50:48 2010

Tools Copyright (c) 1996-2006 Texas Instruments Incorporated
C:\DOCUME~1\ADMINI~1\LOCALS~1\Temp\TI6202                            PAGE   66

    3461                      .dwpsn  "./os_q.c",637,3
    3462 00000439 9A01          MOVB      AL,#1                 ; |637| 
    3463 0000043a 6F34          B         L63,UNC               ; |637| 
    3464                      ; branch occurs ; |637| 
    3465              L59:    
    3466                      .dwpsn  "./os_q.c",639,2
    3467 0000043b 3B10   setc INTM
    3468                      .dwpsn  "./os_q.c",640,2
    3469 0000043c 8A42          MOVL      XAR4,*-SP[2]          ; |640| 
    3470 0000043d 92EC          MOV       AL,*+XAR4[5]          ; |640| 
    3471 0000043e EC0D          BF        L60,EQ                ; |640| 
    3472                      ; branchcc occurs ; |640| 
    3473                      .dwpsn  "./os_q.c",643,3
    3474 0000043f 8A42          MOVL      XAR4,*-SP[2]          ; |643| 
    3475 00000440 8344          MOVL      XAR5,*-SP[4]          ; |643| 
    3476 00000441 FF69          SPM       #0
    3477 00000442 0204          MOVB      ACC,#4
    3478 00000443 7640'         LCR       #_OS_EventTaskRdy     ; |643| 
         00000444 00F1 
    3479                      ; call occurs [#_OS_EventTaskRdy] ; |643| 
    3480                      .dwpsn  "./os_q.c",644,3
    3481 00000445 2910   clrc INTM
    3482                      .dwpsn  "./os_q.c",645,3
    3483 00000446 FF69          SPM       #0
    3484 00000447 7640'         LCR       #_OS_Sched            ; |645| 
         00000448 025E 
    3485                      ; call occurs [#_OS_Sched] ; |645| 
    3486                      .dwpsn  "./os_q.c",646,3
    3487 00000449 9A00          MOVB      AL,#0
    3488 0000044a 6F24          B         L63,UNC               ; |646| 
    3489                      ; branch occurs ; |646| 
    3490              L60:    
    3491                      .dwpsn  "./os_q.c",648,2
    3492 0000044b 8A42          MOVL      XAR4,*-SP[2]          ; |648| 
    3493 0000044c 06D4          MOVL      ACC,*+XAR4[2]         ; |648| 
    3494 0000044d 1E46          MOVL      *-SP[6],ACC           ; |648| 
    3495                      .dwpsn  "./os_q.c",649,2
    3496 0000044e 8A46          MOVL      XAR4,*-SP[6]          ; |649| 
    3497 0000044f D00A          MOVB      XAR0,#10              ; |649| 
    3498 00000450 9294          MOV       AL,*+XAR4[AR0]        ; |649| 
    3499 00000451 8A46          MOVL      XAR4,*-SP[6]          ; |649| 
    3500 00000452 D00B          MOVB      XAR0,#11              ; |649| 
    3501 00000453 5494          CMP       AL,*+XAR4[AR0]        ; |649| 
    3502 00000454 6604          B         L61,HI                ; |649| 
    3503                      ; branchcc occurs ; |649| 
    3504                      .dwpsn  "./os_q.c",651,3
    3505 00000455 2910   clrc INTM
    3506                      .dwpsn  "./os_q.c",652,3
    3507 00000456 9A1E          MOVB      AL,#30                ; |652| 
    3508 00000457 6F17          B         L63,UNC               ; |652| 
    3509                      ; branch occurs ; |652| 
    3510              L61:    
    3511                      .dwpsn  "./os_q.c",654,2
    3512 00000458 8346          MOVL      XAR5,*-SP[6]          ; |654| 
    3513 00000459 8AF5          MOVL      XAR4,*+XAR5[6]        ; |654| 
TMS320C2000 COFF Assembler PC v4.1.3 Thu Jul 15 08:50:48 2010

Tools Copyright (c) 1996-2006 Texas Instruments Incorporated
C:\DOCUME~1\ADMINI~1\LOCALS~1\Temp\TI6202                            PAGE   67

    3514 0000045a 0202          MOVB      ACC,#2
    3515 0000045b 07A4          ADDL      ACC,XAR4
    3516 0000045c 1EF5          MOVL      *+XAR5[6],ACC         ; |654| 
    3517 0000045d 0644          MOVL      ACC,*-SP[4]           ; |654| 
    3518 0000045e 1EC4          MOVL      *+XAR4[0],ACC         ; |654| 
    3519                      .dwpsn  "./os_q.c",655,2
    3520 0000045f 8A46          MOVL      XAR4,*-SP[6]          ; |655| 
    3521 00000460 DC0B          ADDB      XAR4,#11              ; |655| 
    3522 00000461 0AC4          INC       *+XAR4[0]             ; |655| 
    3523                      .dwpsn  "./os_q.c",656,2
    3524 00000462 8A46          MOVL      XAR4,*-SP[6]          ; |656| 
    3525 00000463 06E4          MOVL      ACC,*+XAR4[4]         ; |656| 
    3526 00000464 8A46          MOVL      XAR4,*-SP[6]          ; |656| 
    3527 00000465 C4F4          MOVL      XAR6,*+XAR4[6]        ; |656| 
    3528 00000466 0FA6          CMPL      ACC,XAR6              ; |656| 
    3529 00000467 ED05          BF        L62,NEQ               ; |656| 
    3530                      ; branchcc occurs ; |656| 
    3531                      .dwpsn  "./os_q.c",658,3
    3532 00000468 8A46          MOVL      XAR4,*-SP[6]          ; |658| 
    3533 00000469 06D4          MOVL      ACC,*+XAR4[2]         ; |658| 
    3534 0000046a 8A46          MOVL      XAR4,*-SP[6]          ; |658| 
    3535 0000046b 1EF4          MOVL      *+XAR4[6],ACC         ; |658| 
    3536              L62:    
    3537                      .dwpsn  "./os_q.c",660,2
    3538 0000046c 2910   clrc INTM
    3539                      .dwpsn  "./os_q.c",661,2
    3540 0000046d 9A00          MOVB      AL,#0
    3541              L63:    
    3542                      .dwpsn  "./os_q.c",662,1
    3543 0000046e FE86          SUBB      SP,#6                 ; |661| 
    3544                      .dwcfa  0x1d, -2
    3545 0000046f FF69          SPM       #0
    3546 00000470 0006          LRETR
    3547                      ; return occurs
    3548                      .dwattr DW$192, DW_AT_end_file("./os_q.c")
    3549                      .dwattr DW$192, DW_AT_end_line(0x296)
    3550                      .dwattr DW$192, DW_AT_end_column(0x01)
    3551                      .dwendentry
    3552                      .dwendtag DW$192
    3553              
    3554 00000471               .sect   ".text"
    3555                      .global _OS_QInit
    3556              
    3557              DW$198  .dwtag  DW_TAG_subprogram, DW_AT_name("OS_QInit"), DW_AT_symbol_name("_OS_QInit")
    3558                      .dwattr DW$198, DW_AT_low_pc(_OS_QInit)
    3559                      .dwattr DW$198, DW_AT_high_pc(0x00)
    3560                      .dwattr DW$198, DW_AT_begin_file("./os_q.c")
    3561                      .dwattr DW$198, DW_AT_begin_line(0x39d)
    3562                      .dwattr DW$198, DW_AT_begin_column(0x07)
    3563                      .dwpsn  "./os_q.c",926,1
    3564              
    3565                      .dwfde DW$CIE
    3566              
    3567              ;***************************************************************
    3568              ;* FNAME: _OS_QInit                     FR SIZE:   6           *
TMS320C2000 COFF Assembler PC v4.1.3 Thu Jul 15 08:50:48 2010

Tools Copyright (c) 1996-2006 Texas Instruments Incorporated
C:\DOCUME~1\ADMINI~1\LOCALS~1\Temp\TI6202                            PAGE   68

    3569              ;*                                                             *
    3570              ;* FUNCTION ENVIRONMENT                                        *
    3571              ;*                                                             *
    3572              ;* FUNCTION PROPERTIES                                         *
    3573              ;*                            0 Parameter,  6 Auto,  0 SOE     *
    3574              ;***************************************************************
    3575              
    3576              _OS_QInit:
    3577                      .dwcfa  0x1d, -2
    3578                      .dwcfa  0x1c, 26, 0
    3579                      .dwcfa  0x09, 40, 26
    3580 00000471 FE06          ADDB      SP,#6
    3581                      .dwcfa  0x1d, -8
    3582              DW$199  .dwtag  DW_TAG_variable, DW_AT_name("i"), DW_AT_symbol_name("_i")
    3583                      .dwattr DW$199, DW_AT_type(*DW$T$20)
    3584                      .dwattr DW$199, DW_AT_location[DW_OP_breg20 -1]
    3585              DW$200  .dwtag  DW_TAG_variable, DW_AT_name("pq1"), DW_AT_symbol_name("_pq1")
    3586                      .dwattr DW$200, DW_AT_type(*DW$T$86)
    3587                      .dwattr DW$200, DW_AT_location[DW_OP_breg20 -4]
    3588              DW$201  .dwtag  DW_TAG_variable, DW_AT_name("pq2"), DW_AT_symbol_name("_pq2")
    3589                      .dwattr DW$201, DW_AT_type(*DW$T$86)
    3590                      .dwattr DW$201, DW_AT_location[DW_OP_breg20 -6]
    3591                      .dwpsn  "./os_q.c",939,2
    3592 00000472 9A3C          MOVB      AL,#60                ; |939| 
    3593 00000473 8F00-         MOVL      XAR4,#_OSQTbl         ; |939| 
         00000474 0040 
    3594 00000475 7640'         LCR       #_OS_MemClr           ; |939| 
         00000476 023C 
    3595                      ; call occurs [#_OS_MemClr] ; |939| 
    3596                      .dwpsn  "./os_q.c",940,2
    3597 00000477 8F00-         MOVL      XAR4,#_OSQTbl         ; |940| 
         00000478 0040 
    3598 00000479 A844          MOVL      *-SP[4],XAR4          ; |940| 
    3599                      .dwpsn  "./os_q.c",941,2
    3600 0000047a 8F00-         MOVL      XAR4,#_OSQTbl+12      ; |941| 
         0000047b 004C 
    3601 0000047c A846          MOVL      *-SP[6],XAR4          ; |941| 
    3602                      .dwpsn  "./os_q.c",942,8
    3603 0000047d 2B41          MOV       *-SP[1],#0            ; |942| 
    3604                      .dwpsn  "./os_q.c",942,15
    3605 0000047e 9241          MOV       AL,*-SP[1]            ; |942| 
    3606 0000047f 5204          CMPB      AL,#4                 ; |942| 
    3607 00000480 670D          B         L65,HIS               ; |942| 
    3608                      ; branchcc occurs ; |942| 
    3609              L64:    
    3610              DW$L$_OS_QInit$2$B:
    3611                      .dwpsn  "./os_q.c",944,3
    3612 00000481 8A44          MOVL      XAR4,*-SP[4]          ; |944| 
    3613 00000482 0646          MOVL      ACC,*-SP[6]           ; |944| 
    3614 00000483 1EC4          MOVL      *+XAR4[0],ACC         ; |944| 
    3615                      .dwpsn  "./os_q.c",945,3
    3616 00000484 020C          MOVB      ACC,#12
    3617 00000485 5601          ADDL      *-SP[4],ACC           ; |945| 
         00000486 0044 
    3618                      .dwpsn  "./os_q.c",946,3
TMS320C2000 COFF Assembler PC v4.1.3 Thu Jul 15 08:50:48 2010

Tools Copyright (c) 1996-2006 Texas Instruments Incorporated
C:\DOCUME~1\ADMINI~1\LOCALS~1\Temp\TI6202                            PAGE   69

    3619 00000487 5601          ADDL      *-SP[6],ACC           ; |946| 
         00000488 0046 
    3620                      .dwpsn  "./os_q.c",942,38
    3621 00000489 0A41          INC       *-SP[1]               ; |942| 
    3622                      .dwpsn  "./os_q.c",942,15
    3623 0000048a 9241          MOV       AL,*-SP[1]            ; |942| 
    3624 0000048b 5204          CMPB      AL,#4                 ; |942| 
    3625 0000048c 68F5          B         L64,LO                ; |942| 
    3626                      ; branchcc occurs ; |942| 
    3627              DW$L$_OS_QInit$2$E:
    3628              L65:    
    3629                      .dwpsn  "./os_q.c",948,2
    3630 0000048d 8A44          MOVL      XAR4,*-SP[4]          ; |948| 
    3631 0000048e 0200          MOVB      ACC,#0
    3632 0000048f 1EC4          MOVL      *+XAR4[0],ACC         ; |948| 
    3633                      .dwpsn  "./os_q.c",949,2
    3634 00000490 761F-         MOVW      DP,#_OSQFreeList
         00000491 0000 
    3635 00000492 8F00-         MOVL      XAR4,#_OSQTbl         ; |949| 
         00000493 0040 
    3636 00000494 A810-         MOVL      @_OSQFreeList,XAR4    ; |949| 
    3637                      .dwpsn  "./os_q.c",951,1
    3638 00000495 FE86          SUBB      SP,#6
    3639                      .dwcfa  0x1d, -2
    3640 00000496 0006          LRETR
    3641                      ; return occurs
    3642              
    3643              DW$202  .dwtag  DW_TAG_loop
    3644                      .dwattr DW$202, DW_AT_name("C:\DOCUME~1\ADMINI~1\LOCALS~1\Temp\TI6202:L64:1:1279155047")
    3645                      .dwattr DW$202, DW_AT_begin_file("./os_q.c")
    3646                      .dwattr DW$202, DW_AT_begin_line(0x3ae)
    3647                      .dwattr DW$202, DW_AT_end_line(0x3b3)
    3648              DW$203  .dwtag  DW_TAG_loop_range
    3649                      .dwattr DW$203, DW_AT_low_pc(DW$L$_OS_QInit$2$B)
    3650                      .dwattr DW$203, DW_AT_high_pc(DW$L$_OS_QInit$2$E)
    3651                      .dwendtag DW$202
    3652              
    3653                      .dwattr DW$198, DW_AT_end_file("./os_q.c")
    3654                      .dwattr DW$198, DW_AT_end_line(0x3b7)
    3655                      .dwattr DW$198, DW_AT_end_column(0x01)
    3656                      .dwendentry
    3657                      .dwendtag DW$198
    3658              
    3659 00000497               .sect   ".text"
    3660                      .global _OSSemCreate
    3661              
    3662              DW$204  .dwtag  DW_TAG_subprogram, DW_AT_name("OSSemCreate"), DW_AT_symbol_name("_OSSemCreate")
    3663                      .dwattr DW$204, DW_AT_low_pc(_OSSemCreate)
    3664                      .dwattr DW$204, DW_AT_high_pc(0x00)
    3665                      .dwattr DW$204, DW_AT_begin_file("./os_sem.c")
    3666                      .dwattr DW$204, DW_AT_begin_line(0x63)
    3667                      .dwattr DW$204, DW_AT_begin_column(0x0c)
    3668                      .dwpsn  "./os_sem.c",100,1
    3669              
    3670                      .dwfde DW$CIE
TMS320C2000 COFF Assembler PC v4.1.3 Thu Jul 15 08:50:48 2010

Tools Copyright (c) 1996-2006 Texas Instruments Incorporated
C:\DOCUME~1\ADMINI~1\LOCALS~1\Temp\TI6202                            PAGE   70

    3671              
    3672              ;***************************************************************
    3673              ;* FNAME: _OSSemCreate                  FR SIZE:   4           *
    3674              ;*                                                             *
    3675              ;* FUNCTION ENVIRONMENT                                        *
    3676              ;*                                                             *
    3677              ;* FUNCTION PROPERTIES                                         *
    3678              ;*                            0 Parameter,  4 Auto,  0 SOE     *
    3679              ;***************************************************************
    3680              
    3681              _OSSemCreate:
    3682                      .dwcfa  0x1d, -2
    3683                      .dwcfa  0x1c, 26, 0
    3684                      .dwcfa  0x09, 40, 26
    3685 00000497 FE04          ADDB      SP,#4
    3686                      .dwcfa  0x1d, -6
    3687              ;* AL    assigned to _cnt
    3688              DW$205  .dwtag  DW_TAG_formal_parameter, DW_AT_name("cnt"), DW_AT_symbol_name("_cnt")
    3689                      .dwattr DW$205, DW_AT_type(*DW$T$20)
    3690                      .dwattr DW$205, DW_AT_location[DW_OP_reg0]
    3691              DW$206  .dwtag  DW_TAG_variable, DW_AT_name("cnt"), DW_AT_symbol_name("_cnt")
    3692                      .dwattr DW$206, DW_AT_type(*DW$T$20)
    3693                      .dwattr DW$206, DW_AT_location[DW_OP_breg20 -1]
    3694              DW$207  .dwtag  DW_TAG_variable, DW_AT_name("pevent"), DW_AT_symbol_name("_pevent")
    3695                      .dwattr DW$207, DW_AT_type(*DW$T$28)
    3696                      .dwattr DW$207, DW_AT_location[DW_OP_breg20 -4]
    3697 00000498 9641          MOV       *-SP[1],AL            ; |100| 
    3698                      .dwpsn  "./os_sem.c",108,2
    3699 00000499 761F-         MOVW      DP,#_OSIntNesting
         0000049a 0000 
    3700 0000049b 9206-         MOV       AL,@_OSIntNesting     ; |108| 
    3701 0000049c EC03          BF        L66,EQ                ; |108| 
    3702                      ; branchcc occurs ; |108| 
    3703                      .dwpsn  "./os_sem.c",110,3
    3704 0000049d D400          MOVB      XAR4,#0
    3705 0000049e 6F21          B         L69,UNC               ; |110| 
    3706                      ; branch occurs ; |110| 
    3707              L66:    
    3708                      .dwpsn  "./os_sem.c",112,2
    3709 0000049f 3B10   setc INTM
    3710                      .dwpsn  "./os_sem.c",113,2
    3711 000004a0 0616-         MOVL      ACC,@_OSEventFreeList ; |113| 
    3712 000004a1 1E44          MOVL      *-SP[4],ACC           ; |113| 
    3713                      .dwpsn  "./os_sem.c",114,2
    3714 000004a2 0616-         MOVL      ACC,@_OSEventFreeList ; |114| 
    3715 000004a3 EC04          BF        L67,EQ                ; |114| 
    3716                      ; branchcc occurs ; |114| 
    3717                      .dwpsn  "./os_sem.c",116,3
    3718 000004a4 8A16-         MOVL      XAR4,@_OSEventFreeList ; |116| 
    3719 000004a5 06D4          MOVL      ACC,*+XAR4[2]         ; |116| 
    3720 000004a6 1E16-         MOVL      @_OSEventFreeList,ACC ; |116| 
    3721              L67:    
    3722                      .dwpsn  "./os_sem.c",118,2
    3723 000004a7 2910   clrc INTM
    3724                      .dwpsn  "./os_sem.c",119,2
TMS320C2000 COFF Assembler PC v4.1.3 Thu Jul 15 08:50:48 2010

Tools Copyright (c) 1996-2006 Texas Instruments Incorporated
C:\DOCUME~1\ADMINI~1\LOCALS~1\Temp\TI6202                            PAGE   71

    3725 000004a8 0644          MOVL      ACC,*-SP[4]           ; |119| 
    3726 000004a9 EC15          BF        L68,EQ                ; |119| 
    3727                      ; branchcc occurs ; |119| 
    3728                      .dwpsn  "./os_sem.c",121,3
    3729 000004aa 8A44          MOVL      XAR4,*-SP[4]          ; |121| 
    3730 000004ab 28C4          MOV       *+XAR4[0],#3          ; |121| 
         000004ac 0003 
    3731                      .dwpsn  "./os_sem.c",122,3
    3732 000004ad 8A44          MOVL      XAR4,*-SP[4]          ; |122| 
    3733 000004ae 9241          MOV       AL,*-SP[1]            ; |122| 
    3734 000004af 96E4          MOV       *+XAR4[4],AL          ; |122| 
    3735                      .dwpsn  "./os_sem.c",123,3
    3736 000004b0 8A44          MOVL      XAR4,*-SP[4]          ; |123| 
    3737 000004b1 0200          MOVB      ACC,#0
    3738 000004b2 1ED4          MOVL      *+XAR4[2],ACC         ; |123| 
    3739                      .dwpsn  "./os_sem.c",125,3
    3740 000004b3 8A44          MOVL      XAR4,*-SP[4]          ; |125| 
    3741 000004b4 D00E          MOVB      XAR0,#14              ; |125| 
    3742 000004b5 2894          MOV       *+XAR4[AR0],#63       ; |125| 
         000004b6 003F 
    3743                      .dwpsn  "./os_sem.c",126,3
    3744 000004b7 8A44          MOVL      XAR4,*-SP[4]          ; |126| 
    3745 000004b8 D00F          MOVB      XAR0,#15              ; |126| 
    3746 000004b9 2B94          MOV       *+XAR4[AR0],#0        ; |126| 
    3747                      .dwpsn  "./os_sem.c",128,3
    3748 000004ba FF69          SPM       #0
    3749 000004bb 8A44          MOVL      XAR4,*-SP[4]          ; |128| 
    3750 000004bc 7640'         LCR       #_OS_EventWaitListInit ; |128| 
         000004bd 018D 
    3751                      ; call occurs [#_OS_EventWaitListInit] ; |128| 
    3752              L68:    
    3753                      .dwpsn  "./os_sem.c",130,2
    3754 000004be 8A44          MOVL      XAR4,*-SP[4]          ; |130| 
    3755              L69:    
    3756                      .dwpsn  "./os_sem.c",131,1
    3757 000004bf FE84          SUBB      SP,#4                 ; |130| 
    3758                      .dwcfa  0x1d, -2
    3759 000004c0 FF69          SPM       #0
    3760 000004c1 0006          LRETR
    3761                      ; return occurs
    3762                      .dwattr DW$204, DW_AT_end_file("./os_sem.c")
    3763                      .dwattr DW$204, DW_AT_end_line(0x83)
    3764                      .dwattr DW$204, DW_AT_end_column(0x01)
    3765                      .dwendentry
    3766                      .dwendtag DW$204
    3767              
    3768 000004c2               .sect   ".text"
    3769                      .global _OSSemPend
    3770              
    3771              DW$208  .dwtag  DW_TAG_subprogram, DW_AT_name("OSSemPend"), DW_AT_symbol_name("_OSSemPend")
    3772                      .dwattr DW$208, DW_AT_low_pc(_OSSemPend)
    3773                      .dwattr DW$208, DW_AT_high_pc(0x00)
    3774                      .dwattr DW$208, DW_AT_begin_file("./os_sem.c")
    3775                      .dwattr DW$208, DW_AT_begin_line(0x130)
    3776                      .dwattr DW$208, DW_AT_begin_column(0x07)
TMS320C2000 COFF Assembler PC v4.1.3 Thu Jul 15 08:50:48 2010

Tools Copyright (c) 1996-2006 Texas Instruments Incorporated
C:\DOCUME~1\ADMINI~1\LOCALS~1\Temp\TI6202                            PAGE   72

    3777                      .dwpsn  "./os_sem.c",305,1
    3778              
    3779                      .dwfde DW$CIE
    3780              
    3781              ;***************************************************************
    3782              ;* FNAME: _OSSemPend                    FR SIZE:   6           *
    3783              ;*                                                             *
    3784              ;* FUNCTION ENVIRONMENT                                        *
    3785              ;*                                                             *
    3786              ;* FUNCTION PROPERTIES                                         *
    3787              ;*                            0 Parameter,  6 Auto,  0 SOE     *
    3788              ;***************************************************************
    3789              
    3790              _OSSemPend:
    3791                      .dwcfa  0x1d, -2
    3792                      .dwcfa  0x1c, 26, 0
    3793                      .dwcfa  0x09, 40, 26
    3794 000004c2 FE06          ADDB      SP,#6
    3795                      .dwcfa  0x1d, -8
    3796              ;* AR4   assigned to _pevent
    3797              DW$209  .dwtag  DW_TAG_formal_parameter, DW_AT_name("pevent"), DW_AT_symbol_name("_pevent")
    3798                      .dwattr DW$209, DW_AT_type(*DW$T$28)
    3799                      .dwattr DW$209, DW_AT_location[DW_OP_reg12]
    3800              ;* AL    assigned to _timeout
    3801              DW$210  .dwtag  DW_TAG_formal_parameter, DW_AT_name("timeout"), DW_AT_symbol_name("_timeout")
    3802                      .dwattr DW$210, DW_AT_type(*DW$T$20)
    3803                      .dwattr DW$210, DW_AT_location[DW_OP_reg0]
    3804              ;* AR5   assigned to _perr
    3805              DW$211  .dwtag  DW_TAG_formal_parameter, DW_AT_name("perr"), DW_AT_symbol_name("_perr")
    3806                      .dwattr DW$211, DW_AT_type(*DW$T$33)
    3807                      .dwattr DW$211, DW_AT_location[DW_OP_reg14]
    3808              DW$212  .dwtag  DW_TAG_variable, DW_AT_name("pevent"), DW_AT_symbol_name("_pevent")
    3809                      .dwattr DW$212, DW_AT_type(*DW$T$28)
    3810                      .dwattr DW$212, DW_AT_location[DW_OP_breg20 -2]
    3811              DW$213  .dwtag  DW_TAG_variable, DW_AT_name("timeout"), DW_AT_symbol_name("_timeout")
    3812                      .dwattr DW$213, DW_AT_type(*DW$T$20)
    3813                      .dwattr DW$213, DW_AT_location[DW_OP_breg20 -3]
    3814              DW$214  .dwtag  DW_TAG_variable, DW_AT_name("perr"), DW_AT_symbol_name("_perr")
    3815                      .dwattr DW$214, DW_AT_type(*DW$T$33)
    3816                      .dwattr DW$214, DW_AT_location[DW_OP_breg20 -6]
    3817 000004c3 A046          MOVL      *-SP[6],XAR5          ; |305| 
    3818 000004c4 9643          MOV       *-SP[3],AL            ; |305| 
    3819 000004c5 A842          MOVL      *-SP[2],XAR4          ; |305| 
    3820                      .dwpsn  "./os_sem.c",323,2
    3821 000004c6 8A42          MOVL      XAR4,*-SP[2]          ; |323| 
    3822 000004c7 92C4          MOV       AL,*+XAR4[0]          ; |323| 
    3823 000004c8 5203          CMPB      AL,#3                 ; |323| 
    3824 000004c9 EC05          BF        L70,EQ                ; |323| 
    3825                      ; branchcc occurs ; |323| 
    3826                      .dwpsn  "./os_sem.c",325,3
    3827 000004ca 8A46          MOVL      XAR4,*-SP[6]          ; |325| 
    3828 000004cb 28C4          MOV       *+XAR4[0],#1          ; |325| 
         000004cc 0001 
    3829                      .dwpsn  "./os_sem.c",326,3
    3830 000004cd 6F4F          B         L79,UNC               ; |326| 
TMS320C2000 COFF Assembler PC v4.1.3 Thu Jul 15 08:50:48 2010

Tools Copyright (c) 1996-2006 Texas Instruments Incorporated
C:\DOCUME~1\ADMINI~1\LOCALS~1\Temp\TI6202                            PAGE   73

    3831                      ; branch occurs ; |326| 
    3832              L70:    
    3833                      .dwpsn  "./os_sem.c",328,2
    3834 000004ce 761F-         MOVW      DP,#_OSIntNesting
         000004cf 0000 
    3835 000004d0 9206-         MOV       AL,@_OSIntNesting     ; |328| 
    3836 000004d1 EC05          BF        L71,EQ                ; |328| 
    3837                      ; branchcc occurs ; |328| 
    3838                      .dwpsn  "./os_sem.c",330,3
    3839 000004d2 8A46          MOVL      XAR4,*-SP[6]          ; |330| 
    3840 000004d3 28C4          MOV       *+XAR4[0],#2          ; |330| 
         000004d4 0002 
    3841                      .dwpsn  "./os_sem.c",331,3
    3842 000004d5 6F47          B         L79,UNC               ; |331| 
    3843                      ; branch occurs ; |331| 
    3844              L71:    
    3845                      .dwpsn  "./os_sem.c",333,2
    3846 000004d6 9204-         MOV       AL,@_OSLockNesting    ; |333| 
    3847 000004d7 EC05          BF        L72,EQ                ; |333| 
    3848                      ; branchcc occurs ; |333| 
    3849                      .dwpsn  "./os_sem.c",335,3
    3850 000004d8 8A46          MOVL      XAR4,*-SP[6]          ; |335| 
    3851 000004d9 28C4          MOV       *+XAR4[0],#13         ; |335| 
         000004da 000D 
    3852                      .dwpsn  "./os_sem.c",336,3
    3853 000004db 6F41          B         L79,UNC               ; |336| 
    3854                      ; branch occurs ; |336| 
    3855              L72:    
    3856                      .dwpsn  "./os_sem.c",338,2
    3857 000004dc 3B10   setc INTM
    3858                      .dwpsn  "./os_sem.c",339,2
    3859 000004dd 8A42          MOVL      XAR4,*-SP[2]          ; |339| 
    3860 000004de 92E4          MOV       AL,*+XAR4[4]          ; |339| 
    3861 000004df EC07          BF        L73,EQ                ; |339| 
    3862                      ; branchcc occurs ; |339| 
    3863                      .dwpsn  "./os_sem.c",341,3
    3864 000004e0 8A42          MOVL      XAR4,*-SP[2]          ; |341| 
    3865 000004e1 0BE4          DEC       *+XAR4[4]             ; |341| 
    3866                      .dwpsn  "./os_sem.c",342,3
    3867 000004e2 2910   clrc INTM
    3868                      .dwpsn  "./os_sem.c",343,3
    3869 000004e3 8A46          MOVL      XAR4,*-SP[6]          ; |343| 
    3870 000004e4 2BC4          MOV       *+XAR4[0],#0          ; |343| 
    3871                      .dwpsn  "./os_sem.c",344,3
    3872 000004e5 6F37          B         L79,UNC               ; |344| 
    3873                      ; branch occurs ; |344| 
    3874              L73:    
    3875                      .dwpsn  "./os_sem.c",347,2
    3876 000004e6 8A0C-         MOVL      XAR4,@_OSTCBCur       ; |347| 
    3877 000004e7 DC0B          ADDB      XAR4,#11              ; |347| 
    3878 000004e8 1AC4          OR        *+XAR4[0],#0x0001     ; |347| 
         000004e9 0001 
    3879                      .dwpsn  "./os_sem.c",348,2
    3880 000004ea 8A0C-         MOVL      XAR4,@_OSTCBCur       ; |348| 
    3881 000004eb D00C          MOVB      XAR0,#12              ; |348| 
TMS320C2000 COFF Assembler PC v4.1.3 Thu Jul 15 08:50:48 2010

Tools Copyright (c) 1996-2006 Texas Instruments Incorporated
C:\DOCUME~1\ADMINI~1\LOCALS~1\Temp\TI6202                            PAGE   74

    3882 000004ec 2B94          MOV       *+XAR4[AR0],#0        ; |348| 
    3883                      .dwpsn  "./os_sem.c",349,2
    3884 000004ed 8A0C-         MOVL      XAR4,@_OSTCBCur       ; |349| 
    3885 000004ee D00A          MOVB      XAR0,#10              ; |349| 
    3886 000004ef 9243          MOV       AL,*-SP[3]            ; |349| 
    3887 000004f0 9694          MOV       *+XAR4[AR0],AL        ; |349| 
    3888                      .dwpsn  "./os_sem.c",350,2
    3889 000004f1 8A42          MOVL      XAR4,*-SP[2]          ; |350| 
    3890 000004f2 FF69          SPM       #0
    3891 000004f3 7640'         LCR       #_OS_EventTaskWait    ; |350| 
         000004f4 013C 
    3892                      ; call occurs [#_OS_EventTaskWait] ; |350| 
    3893                      .dwpsn  "./os_sem.c",351,2
    3894 000004f5 2910   clrc INTM
    3895                      .dwpsn  "./os_sem.c",352,2
    3896 000004f6 FF69          SPM       #0
    3897 000004f7 7640'         LCR       #_OS_Sched            ; |352| 
         000004f8 025E 
    3898                      ; call occurs [#_OS_Sched] ; |352| 
    3899                      .dwpsn  "./os_sem.c",353,2
    3900 000004f9 3B10   setc INTM
    3901                      .dwpsn  "./os_sem.c",354,2
    3902 000004fa 6F11          B         L77,UNC               ; |354| 
    3903                      ; branch occurs ; |354| 
    3904              L74:    
    3905                      .dwpsn  "./os_sem.c",357,3
    3906 000004fb 8A46          MOVL      XAR4,*-SP[6]          ; |357| 
    3907 000004fc 2BC4          MOV       *+XAR4[0],#0          ; |357| 
    3908                      .dwpsn  "./os_sem.c",358,8
    3909 000004fd 6F15          B         L78,UNC               ; |358| 
    3910                      ; branch occurs ; |358| 
    3911              L75:    
    3912                      .dwpsn  "./os_sem.c",361,3
    3913 000004fe 8A46          MOVL      XAR4,*-SP[6]          ; |361| 
    3914 000004ff 28C4          MOV       *+XAR4[0],#14         ; |361| 
         00000500 000E 
    3915                      .dwpsn  "./os_sem.c",362,8
    3916 00000501 6F11          B         L78,UNC               ; |362| 
    3917                      ; branch occurs ; |362| 
    3918              L76:    
    3919                      .dwpsn  "./os_sem.c",366,3
    3920 00000502 8342          MOVL      XAR5,*-SP[2]          ; |366| 
    3921 00000503 8A0C-         MOVL      XAR4,@_OSTCBCur       ; |366| 
    3922 00000504 FF69          SPM       #0
    3923 00000505 7640'         LCR       #_OS_EventTaskRemove  ; |366| 
         00000506 016E 
    3924                      ; call occurs [#_OS_EventTaskRemove] ; |366| 
    3925                      .dwpsn  "./os_sem.c",367,3
    3926 00000507 8A46          MOVL      XAR4,*-SP[6]          ; |367| 
    3927 00000508 28C4          MOV       *+XAR4[0],#10         ; |367| 
         00000509 000A 
    3928                      .dwpsn  "./os_sem.c",368,8
    3929 0000050a 6F08          B         L78,UNC               ; |368| 
    3930                      ; branch occurs ; |368| 
    3931              L77:    
TMS320C2000 COFF Assembler PC v4.1.3 Thu Jul 15 08:50:48 2010

Tools Copyright (c) 1996-2006 Texas Instruments Incorporated
C:\DOCUME~1\ADMINI~1\LOCALS~1\Temp\TI6202                            PAGE   75

    3932                      .dwpsn  "./os_sem.c",354,2
    3933 0000050b 8A0C-         MOVL      XAR4,@_OSTCBCur       ; |354| 
    3934 0000050c D00C          MOVB      XAR0,#12              ; |354| 
    3935 0000050d 9294          MOV       AL,*+XAR4[AR0]        ; |354| 
    3936 0000050e ECED          BF        L74,EQ                ; |354| 
    3937                      ; branchcc occurs ; |354| 
    3938 0000050f 5202          CMPB      AL,#2                 ; |354| 
    3939 00000510 ECEE          BF        L75,EQ                ; |354| 
    3940                      ; branchcc occurs ; |354| 
    3941 00000511 6FF1          B         L76,UNC               ; |354| 
    3942                      ; branch occurs ; |354| 
    3943              L78:    
    3944                      .dwpsn  "./os_sem.c",370,2
    3945 00000512 8A0C-         MOVL      XAR4,@_OSTCBCur       ; |370| 
    3946 00000513 D00B          MOVB      XAR0,#11              ; |370| 
    3947 00000514 2B94          MOV       *+XAR4[AR0],#0        ; |370| 
    3948                      .dwpsn  "./os_sem.c",371,2
    3949 00000515 8A0C-         MOVL      XAR4,@_OSTCBCur       ; |371| 
    3950 00000516 D00C          MOVB      XAR0,#12              ; |371| 
    3951 00000517 2B94          MOV       *+XAR4[AR0],#0        ; |371| 
    3952                      .dwpsn  "./os_sem.c",372,2
    3953 00000518 0200          MOVB      ACC,#0
    3954 00000519 8A0C-         MOVL      XAR4,@_OSTCBCur       ; |372| 
    3955 0000051a 1EF4          MOVL      *+XAR4[6],ACC         ; |372| 
    3956                      .dwpsn  "./os_sem.c",376,2
    3957 0000051b 2910   clrc INTM
    3958              L79:    
    3959                      .dwpsn  "./os_sem.c",377,1
    3960 0000051c FE86          SUBB      SP,#6
    3961                      .dwcfa  0x1d, -2
    3962 0000051d FF69          SPM       #0
    3963 0000051e 0006          LRETR
    3964                      ; return occurs
    3965                      .dwattr DW$208, DW_AT_end_file("./os_sem.c")
    3966                      .dwattr DW$208, DW_AT_end_line(0x179)
    3967                      .dwattr DW$208, DW_AT_end_column(0x01)
    3968                      .dwendentry
    3969                      .dwendtag DW$208
    3970              
    3971 0000051f               .sect   ".text"
    3972                      .global _OSSemPost
    3973              
    3974              DW$215  .dwtag  DW_TAG_subprogram, DW_AT_name("OSSemPost"), DW_AT_symbol_name("_OSSemPost")
    3975                      .dwattr DW$215, DW_AT_low_pc(_OSSemPost)
    3976                      .dwattr DW$215, DW_AT_high_pc(0x00)
    3977                      .dwattr DW$215, DW_AT_begin_file("./os_sem.c")
    3978                      .dwattr DW$215, DW_AT_begin_line(0x1eb)
    3979                      .dwattr DW$215, DW_AT_begin_column(0x08)
    3980                      .dwpsn  "./os_sem.c",492,1
    3981              
    3982                      .dwfde DW$CIE
    3983              
    3984              ;***************************************************************
    3985              ;* FNAME: _OSSemPost                    FR SIZE:   2           *
    3986              ;*                                                             *
TMS320C2000 COFF Assembler PC v4.1.3 Thu Jul 15 08:50:48 2010

Tools Copyright (c) 1996-2006 Texas Instruments Incorporated
C:\DOCUME~1\ADMINI~1\LOCALS~1\Temp\TI6202                            PAGE   76

    3987              ;* FUNCTION ENVIRONMENT                                        *
    3988              ;*                                                             *
    3989              ;* FUNCTION PROPERTIES                                         *
    3990              ;*                            0 Parameter,  2 Auto,  0 SOE     *
    3991              ;***************************************************************
    3992              
    3993              _OSSemPost:
    3994                      .dwcfa  0x1d, -2
    3995                      .dwcfa  0x1c, 26, 0
    3996                      .dwcfa  0x09, 40, 26
    3997 0000051f FE02          ADDB      SP,#2
    3998                      .dwcfa  0x1d, -4
    3999              ;* AR4   assigned to _pevent
    4000              DW$216  .dwtag  DW_TAG_formal_parameter, DW_AT_name("pevent"), DW_AT_symbol_name("_pevent")
    4001                      .dwattr DW$216, DW_AT_type(*DW$T$28)
    4002                      .dwattr DW$216, DW_AT_location[DW_OP_reg12]
    4003              DW$217  .dwtag  DW_TAG_variable, DW_AT_name("pevent"), DW_AT_symbol_name("_pevent")
    4004                      .dwattr DW$217, DW_AT_type(*DW$T$28)
    4005                      .dwattr DW$217, DW_AT_location[DW_OP_breg20 -2]
    4006 00000520 A842          MOVL      *-SP[2],XAR4          ; |492| 
    4007                      .dwpsn  "./os_sem.c",505,2
    4008 00000521 8A42          MOVL      XAR4,*-SP[2]          ; |505| 
    4009 00000522 92C4          MOV       AL,*+XAR4[0]          ; |505| 
    4010 00000523 5203          CMPB      AL,#3                 ; |505| 
    4011 00000524 EC03          BF        L80,EQ                ; |505| 
    4012                      ; branchcc occurs ; |505| 
    4013                      .dwpsn  "./os_sem.c",507,3
    4014 00000525 9A01          MOVB      AL,#1                 ; |507| 
    4015 00000526 6F1C          B         L83,UNC               ; |507| 
    4016                      ; branch occurs ; |507| 
    4017              L80:    
    4018                      .dwpsn  "./os_sem.c",509,2
    4019 00000527 3B10   setc INTM
    4020                      .dwpsn  "./os_sem.c",510,2
    4021 00000528 8A42          MOVL      XAR4,*-SP[2]          ; |510| 
    4022 00000529 92EC          MOV       AL,*+XAR4[5]          ; |510| 
    4023 0000052a EC0D          BF        L81,EQ                ; |510| 
    4024                      ; branchcc occurs ; |510| 
    4025                      .dwpsn  "./os_sem.c",513,3
    4026 0000052b 8A42          MOVL      XAR4,*-SP[2]          ; |513| 
    4027 0000052c D500          MOVB      XAR5,#0
    4028 0000052d FF69          SPM       #0
    4029 0000052e 0201          MOVB      ACC,#1
    4030 0000052f 7640'         LCR       #_OS_EventTaskRdy     ; |513| 
         00000530 00F1 
    4031                      ; call occurs [#_OS_EventTaskRdy] ; |513| 
    4032                      .dwpsn  "./os_sem.c",514,3
    4033 00000531 2910   clrc INTM
    4034                      .dwpsn  "./os_sem.c",515,3
    4035 00000532 FF69          SPM       #0
    4036 00000533 7640'         LCR       #_OS_Sched            ; |515| 
         00000534 025E 
    4037                      ; call occurs [#_OS_Sched] ; |515| 
    4038                      .dwpsn  "./os_sem.c",516,3
    4039 00000535 9A00          MOVB      AL,#0
TMS320C2000 COFF Assembler PC v4.1.3 Thu Jul 15 08:50:48 2010

Tools Copyright (c) 1996-2006 Texas Instruments Incorporated
C:\DOCUME~1\ADMINI~1\LOCALS~1\Temp\TI6202                            PAGE   77

    4040 00000536 6F0C          B         L83,UNC               ; |516| 
    4041                      ; branch occurs ; |516| 
    4042              L81:    
    4043                      .dwpsn  "./os_sem.c",518,2
    4044 00000537 8A42          MOVL      XAR4,*-SP[2]          ; |518| 
    4045 00000538 1BE4          CMP       *+XAR4[4],#65535      ; |518| 
         00000539 FFFF 
    4046 0000053a 6706          B         L82,HIS               ; |518| 
    4047                      ; branchcc occurs ; |518| 
    4048                      .dwpsn  "./os_sem.c",520,3
    4049 0000053b 8A42          MOVL      XAR4,*-SP[2]          ; |520| 
    4050 0000053c 0AE4          INC       *+XAR4[4]             ; |520| 
    4051                      .dwpsn  "./os_sem.c",521,3
    4052 0000053d 2910   clrc INTM
    4053                      .dwpsn  "./os_sem.c",522,3
    4054 0000053e 9A00          MOVB      AL,#0
    4055 0000053f 6F03          B         L83,UNC               ; |522| 
    4056                      ; branch occurs ; |522| 
    4057              L82:    
    4058                      .dwpsn  "./os_sem.c",524,2
    4059 00000540 2910   clrc INTM
    4060                      .dwpsn  "./os_sem.c",525,2
    4061 00000541 9A32          MOVB      AL,#50                ; |525| 
    4062              L83:    
    4063                      .dwpsn  "./os_sem.c",526,1
    4064 00000542 FE82          SUBB      SP,#2                 ; |525| 
    4065                      .dwcfa  0x1d, -2
    4066 00000543 FF69          SPM       #0
    4067 00000544 0006          LRETR
    4068                      ; return occurs
    4069                      .dwattr DW$215, DW_AT_end_file("./os_sem.c")
    4070                      .dwattr DW$215, DW_AT_end_line(0x20e)
    4071                      .dwattr DW$215, DW_AT_end_column(0x01)
    4072                      .dwendentry
    4073                      .dwendtag DW$215
    4074              
    4075 00000545               .sect   ".text"
    4076                      .global _OSTaskCreate
    4077              
    4078              DW$218  .dwtag  DW_TAG_subprogram, DW_AT_name("OSTaskCreate"), DW_AT_symbol_name("_OSTaskCreate")
    4079                      .dwattr DW$218, DW_AT_low_pc(_OSTaskCreate)
    4080                      .dwattr DW$218, DW_AT_high_pc(0x00)
    4081                      .dwattr DW$218, DW_AT_begin_file("./os_task.c")
    4082                      .dwattr DW$218, DW_AT_begin_line(0xe9)
    4083                      .dwattr DW$218, DW_AT_begin_column(0x08)
    4084                      .dwpsn  "./os_task.c",234,1
    4085              
    4086                      .dwfde DW$CIE
    4087              
    4088              ;***************************************************************
    4089              ;* FNAME: _OSTaskCreate                 FR SIZE:  16           *
    4090              ;*                                                             *
    4091              ;* FUNCTION ENVIRONMENT                                        *
    4092              ;*                                                             *
    4093              ;* FUNCTION PROPERTIES                                         *
TMS320C2000 COFF Assembler PC v4.1.3 Thu Jul 15 08:50:48 2010

Tools Copyright (c) 1996-2006 Texas Instruments Incorporated
C:\DOCUME~1\ADMINI~1\LOCALS~1\Temp\TI6202                            PAGE   78

    4094              ;*                            5 Parameter, 10 Auto,  0 SOE     *
    4095              ;***************************************************************
    4096              
    4097              _OSTaskCreate:
    4098                      .dwcfa  0x1d, -2
    4099                      .dwcfa  0x1c, 26, 0
    4100                      .dwcfa  0x09, 40, 26
    4101 00000545 FE10          ADDB      SP,#16
    4102                      .dwcfa  0x1d, -18
    4103              ;* AR4   assigned to _task
    4104              DW$219  .dwtag  DW_TAG_formal_parameter, DW_AT_name("task"), DW_AT_symbol_name("_task")
    4105                      .dwattr DW$219, DW_AT_type(*DW$T$42)
    4106                      .dwattr DW$219, DW_AT_location[DW_OP_reg12]
    4107              ;* AR5   assigned to _p_arg
    4108              DW$220  .dwtag  DW_TAG_formal_parameter, DW_AT_name("p_arg"), DW_AT_symbol_name("_p_arg")
    4109                      .dwattr DW$220, DW_AT_type(*DW$T$3)
    4110                      .dwattr DW$220, DW_AT_location[DW_OP_reg14]
    4111              DW$221  .dwtag  DW_TAG_formal_parameter, DW_AT_name("ptos"), DW_AT_symbol_name("_ptos")
    4112                      .dwattr DW$221, DW_AT_type(*DW$T$25)
    4113                      .dwattr DW$221, DW_AT_location[DW_OP_breg20 -20]
    4114              ;* AL    assigned to _prio
    4115              DW$222  .dwtag  DW_TAG_formal_parameter, DW_AT_name("prio"), DW_AT_symbol_name("_prio")
    4116                      .dwattr DW$222, DW_AT_type(*DW$T$19)
    4117                      .dwattr DW$222, DW_AT_location[DW_OP_reg0]
    4118              DW$223  .dwtag  DW_TAG_variable, DW_AT_name("task"), DW_AT_symbol_name("_task")
    4119                      .dwattr DW$223, DW_AT_type(*DW$T$42)
    4120                      .dwattr DW$223, DW_AT_location[DW_OP_breg20 -8]
    4121              DW$224  .dwtag  DW_TAG_variable, DW_AT_name("p_arg"), DW_AT_symbol_name("_p_arg")
    4122                      .dwattr DW$224, DW_AT_type(*DW$T$3)
    4123                      .dwattr DW$224, DW_AT_location[DW_OP_breg20 -10]
    4124              DW$225  .dwtag  DW_TAG_variable, DW_AT_name("prio"), DW_AT_symbol_name("_prio")
    4125                      .dwattr DW$225, DW_AT_type(*DW$T$19)
    4126                      .dwattr DW$225, DW_AT_location[DW_OP_breg20 -11]
    4127              DW$226  .dwtag  DW_TAG_variable, DW_AT_name("psp"), DW_AT_symbol_name("_psp")
    4128                      .dwattr DW$226, DW_AT_type(*DW$T$25)
    4129                      .dwattr DW$226, DW_AT_location[DW_OP_breg20 -14]
    4130              DW$227  .dwtag  DW_TAG_variable, DW_AT_name("err"), DW_AT_symbol_name("_err")
    4131                      .dwattr DW$227, DW_AT_type(*DW$T$19)
    4132                      .dwattr DW$227, DW_AT_location[DW_OP_breg20 -15]
    4133 00000546 964B          MOV       *-SP[11],AL           ; |234| 
    4134 00000547 A04A          MOVL      *-SP[10],XAR5         ; |234| 
    4135 00000548 A848          MOVL      *-SP[8],XAR4          ; |234| 
    4136                      .dwpsn  "./os_task.c",249,2
    4137 00000549 3B10   setc INTM
    4138                      .dwpsn  "./os_task.c",250,2
    4139 0000054a 761F-         MOVW      DP,#_OSIntNesting
         0000054b 0000 
    4140 0000054c 9206-         MOV       AL,@_OSIntNesting     ; |250| 
    4141 0000054d EC04          BF        L84,EQ                ; |250| 
    4142                      ; branchcc occurs ; |250| 
    4143                      .dwpsn  "./os_task.c",252,3
    4144 0000054e 2910   clrc INTM
    4145                      .dwpsn  "./os_task.c",253,3
    4146 0000054f 9A3C          MOVB      AL,#60                ; |253| 
    4147 00000550 6F3C          B         L88,UNC               ; |253| 
TMS320C2000 COFF Assembler PC v4.1.3 Thu Jul 15 08:50:48 2010

Tools Copyright (c) 1996-2006 Texas Instruments Incorporated
C:\DOCUME~1\ADMINI~1\LOCALS~1\Temp\TI6202                            PAGE   79

    4148                      ; branch occurs ; |253| 
    4149              L84:    
    4150                      .dwpsn  "./os_task.c",255,2
    4151 00000551 0E4B          MOVU      ACC,*-SP[11]
    4152 00000552 8F00-         MOVL      XAR4,#_OSTCBPrioTbl   ; |255| 
         00000553 0080 
    4153 00000554 FF30          LSL       ACC,1                 ; |255| 
    4154 00000555 5601          ADDL      XAR4,ACC
         00000556 00A4 
    4155 00000557 06C4          MOVL      ACC,*+XAR4[0]         ; |255| 
    4156 00000558 ED32          BF        L87,NEQ               ; |255| 
    4157                      ; branchcc occurs ; |255| 
    4158                      .dwpsn  "./os_task.c",257,3
    4159 00000559 0E4B          MOVU      ACC,*-SP[11]
    4160 0000055a 8F00-         MOVL      XAR4,#_OSTCBPrioTbl   ; |257| 
         0000055b 0080 
    4161 0000055c FF30          LSL       ACC,1                 ; |257| 
    4162 0000055d 5601          ADDL      XAR4,ACC
         0000055e 00A4 
    4163 0000055f 0201          MOVB      ACC,#1
    4164 00000560 1EC4          MOVL      *+XAR4[0],ACC         ; |257| 
    4165                      .dwpsn  "./os_task.c",259,3
    4166 00000561 2910   clrc INTM
    4167                      .dwpsn  "./os_task.c",260,3
    4168 00000562 0654          MOVL      ACC,*-SP[20]          ; |260| 
    4169 00000563 1E42          MOVL      *-SP[2],ACC           ; |260| 
    4170 00000564 834A          MOVL      XAR5,*-SP[10]         ; |260| 
    4171 00000565 8A48          MOVL      XAR4,*-SP[8]          ; |260| 
    4172 00000566 FF69          SPM       #0
    4173 00000567 9A00          MOVB      AL,#0
    4174 00000568 7640!         LCR       #_OSTaskStkInit       ; |260| 
         00000569 0000 
    4175                      ; call occurs [#_OSTaskStkInit] ; |260| 
    4176 0000056a A84E          MOVL      *-SP[14],XAR4         ; |260| 
    4177                      .dwpsn  "./os_task.c",261,3
    4178 0000056b 924B          MOV       AL,*-SP[11]           ; |261| 
    4179 0000056c 9641          MOV       *-SP[1],AL            ; |261| 
    4180 0000056d 0200          MOVB      ACC,#0
    4181 0000056e 2B42          MOV       *-SP[2],#0            ; |261| 
    4182 0000056f 1E44          MOVL      *-SP[4],ACC           ; |261| 
    4183 00000570 2B45          MOV       *-SP[5],#0            ; |261| 
    4184 00000571 8A4E          MOVL      XAR4,*-SP[14]         ; |261| 
    4185 00000572 D500          MOVB      XAR5,#0
    4186 00000573 7640'         LCR       #_OS_TCBInit          ; |261| 
         00000574 02C1 
    4187                      ; call occurs [#_OS_TCBInit] ; |261| 
    4188 00000575 964F          MOV       *-SP[15],AL           ; |261| 
    4189                      .dwpsn  "./os_task.c",262,3
    4190 00000576 5200          CMPB      AL,#0                 ; |262| 
    4191 00000577 ED07          BF        L85,NEQ               ; |262| 
    4192                      ; branchcc occurs ; |262| 
    4193                      .dwpsn  "./os_task.c",264,4
    4194 00000578 9205-         MOV       AL,@_OSRunning        ; |264| 
    4195 00000579 5201          CMPB      AL,#1                 ; |264| 
    4196 0000057a ED0E          BF        L86,NEQ               ; |264| 
TMS320C2000 COFF Assembler PC v4.1.3 Thu Jul 15 08:50:48 2010

Tools Copyright (c) 1996-2006 Texas Instruments Incorporated
C:\DOCUME~1\ADMINI~1\LOCALS~1\Temp\TI6202                            PAGE   80

    4197                      ; branchcc occurs ; |264| 
    4198                      .dwpsn  "./os_task.c",266,5
    4199 0000057b 7640'         LCR       #_OS_Sched            ; |266| 
         0000057c 025E 
    4200                      ; call occurs [#_OS_Sched] ; |266| 
    4201                      .dwpsn  "./os_task.c",268,3
    4202 0000057d 6F0B          B         L86,UNC               ; |268| 
    4203                      ; branch occurs ; |268| 
    4204              L85:    
    4205                      .dwpsn  "./os_task.c",271,4
    4206 0000057e 3B10   setc INTM
    4207                      .dwpsn  "./os_task.c",272,4
    4208 0000057f 0E4B          MOVU      ACC,*-SP[11]
    4209 00000580 8F00-         MOVL      XAR4,#_OSTCBPrioTbl   ; |272| 
         00000581 0080 
    4210 00000582 FF30          LSL       ACC,1                 ; |272| 
    4211 00000583 5601          ADDL      XAR4,ACC
         00000584 00A4 
    4212 00000585 0200          MOVB      ACC,#0
    4213 00000586 1EC4          MOVL      *+XAR4[0],ACC         ; |272| 
    4214                      .dwpsn  "./os_task.c",273,4
    4215 00000587 2910   clrc INTM
    4216              L86:    
    4217                      .dwpsn  "./os_task.c",275,3
    4218 00000588 924F          MOV       AL,*-SP[15]           ; |275| 
    4219 00000589 6F03          B         L88,UNC               ; |275| 
    4220                      ; branch occurs ; |275| 
    4221              L87:    
    4222                      .dwpsn  "./os_task.c",277,2
    4223 0000058a 2910   clrc INTM
    4224                      .dwpsn  "./os_task.c",278,2
    4225 0000058b 9A28          MOVB      AL,#40                ; |278| 
    4226              L88:    
    4227                      .dwpsn  "./os_task.c",279,1
    4228 0000058c FE90          SUBB      SP,#16                ; |278| 
    4229                      .dwcfa  0x1d, -2
    4230 0000058d FF69          SPM       #0
    4231 0000058e 0006          LRETR
    4232                      ; return occurs
    4233                      .dwattr DW$218, DW_AT_end_file("./os_task.c")
    4234                      .dwattr DW$218, DW_AT_end_line(0x117)
    4235                      .dwattr DW$218, DW_AT_end_column(0x01)
    4236                      .dwendentry
    4237                      .dwendtag DW$218
    4238              
    4239 0000058f               .sect   ".text"
    4240                      .global _OSTaskDel
    4241              
    4242              DW$228  .dwtag  DW_TAG_subprogram, DW_AT_name("OSTaskDel"), DW_AT_symbol_name("_OSTaskDel")
    4243                      .dwattr DW$228, DW_AT_low_pc(_OSTaskDel)
    4244                      .dwattr DW$228, DW_AT_high_pc(0x00)
    4245                      .dwattr DW$228, DW_AT_begin_file("./os_task.c")
    4246                      .dwattr DW$228, DW_AT_begin_line(0x1c6)
    4247                      .dwattr DW$228, DW_AT_begin_column(0x08)
    4248                      .dwpsn  "./os_task.c",455,1
TMS320C2000 COFF Assembler PC v4.1.3 Thu Jul 15 08:50:48 2010

Tools Copyright (c) 1996-2006 Texas Instruments Incorporated
C:\DOCUME~1\ADMINI~1\LOCALS~1\Temp\TI6202                            PAGE   81

    4249              
    4250                      .dwfde DW$CIE
    4251              
    4252              ;***************************************************************
    4253              ;* FNAME: _OSTaskDel                    FR SIZE:   4           *
    4254              ;*                                                             *
    4255              ;* FUNCTION ENVIRONMENT                                        *
    4256              ;*                                                             *
    4257              ;* FUNCTION PROPERTIES                                         *
    4258              ;*                            0 Parameter,  4 Auto,  0 SOE     *
    4259              ;***************************************************************
    4260              
    4261              _OSTaskDel:
    4262                      .dwcfa  0x1d, -2
    4263                      .dwcfa  0x1c, 26, 0
    4264                      .dwcfa  0x09, 40, 26
    4265 0000058f FE04          ADDB      SP,#4
    4266                      .dwcfa  0x1d, -6
    4267              ;* AL    assigned to _prio
    4268              DW$229  .dwtag  DW_TAG_formal_parameter, DW_AT_name("prio"), DW_AT_symbol_name("_prio")
    4269                      .dwattr DW$229, DW_AT_type(*DW$T$19)
    4270                      .dwattr DW$229, DW_AT_location[DW_OP_reg0]
    4271              DW$230  .dwtag  DW_TAG_variable, DW_AT_name("prio"), DW_AT_symbol_name("_prio")
    4272                      .dwattr DW$230, DW_AT_type(*DW$T$19)
    4273                      .dwattr DW$230, DW_AT_location[DW_OP_breg20 -1]
    4274              DW$231  .dwtag  DW_TAG_variable, DW_AT_name("ptcb"), DW_AT_symbol_name("_ptcb")
    4275                      .dwattr DW$231, DW_AT_type(*DW$T$38)
    4276                      .dwattr DW$231, DW_AT_location[DW_OP_breg20 -4]
    4277 00000590 9641          MOV       *-SP[1],AL            ; |455| 
    4278                      .dwpsn  "./os_task.c",466,2
    4279 00000591 761F-         MOVW      DP,#_OSIntNesting
         00000592 0000 
    4280 00000593 9206-         MOV       AL,@_OSIntNesting     ; |466| 
    4281 00000594 EC04          BF        L89,EQ                ; |466| 
    4282                      ; branchcc occurs ; |466| 
    4283                      .dwpsn  "./os_task.c",468,3
    4284 00000595 9A40          MOVB      AL,#64                ; |468| 
    4285 00000596 FFEF          B         L101,UNC              ; |468| 
         00000597 008B 
    4286                      ; branch occurs ; |468| 
    4287              L89:    
    4288                      .dwpsn  "./os_task.c",470,2
    4289 00000598 9241          MOV       AL,*-SP[1]            ; |470| 
    4290 00000599 523F          CMPB      AL,#63                ; |470| 
    4291 0000059a ED04          BF        L90,NEQ               ; |470| 
    4292                      ; branchcc occurs ; |470| 
    4293                      .dwpsn  "./os_task.c",472,3
    4294 0000059b 9A3E          MOVB      AL,#62                ; |472| 
    4295 0000059c FFEF          B         L101,UNC              ; |472| 
         0000059d 0085 
    4296                      ; branch occurs ; |472| 
    4297              L90:    
    4298                      .dwpsn  "./os_task.c",485,2
    4299 0000059e 3B10   setc INTM
    4300                      .dwpsn  "./os_task.c",486,2
TMS320C2000 COFF Assembler PC v4.1.3 Thu Jul 15 08:50:48 2010

Tools Copyright (c) 1996-2006 Texas Instruments Incorporated
C:\DOCUME~1\ADMINI~1\LOCALS~1\Temp\TI6202                            PAGE   82

    4301 0000059f 52FF          CMPB      AL,#255               ; |486| 
    4302 000005a0 ED05          BF        L91,NEQ               ; |486| 
    4303                      ; branchcc occurs ; |486| 
    4304                      .dwpsn  "./os_task.c",488,3
    4305 000005a1 8A0C-         MOVL      XAR4,@_OSTCBCur       ; |488| 
    4306 000005a2 D00D          MOVB      XAR0,#13              ; |488| 
    4307 000005a3 9294          MOV       AL,*+XAR4[AR0]        ; |488| 
    4308 000005a4 9641          MOV       *-SP[1],AL            ; |488| 
    4309              L91:    
    4310                      .dwpsn  "./os_task.c",490,2
    4311 000005a5 0E41          MOVU      ACC,*-SP[1]
    4312 000005a6 8F00-         MOVL      XAR4,#_OSTCBPrioTbl   ; |490| 
         000005a7 0080 
    4313 000005a8 FF30          LSL       ACC,1                 ; |490| 
    4314 000005a9 5601          ADDL      XAR4,ACC
         000005aa 00A4 
    4315 000005ab 06C4          MOVL      ACC,*+XAR4[0]         ; |490| 
    4316 000005ac 1E44          MOVL      *-SP[4],ACC           ; |490| 
    4317                      .dwpsn  "./os_task.c",491,2
    4318 000005ad 0644          MOVL      ACC,*-SP[4]           ; |491| 
    4319 000005ae ED04          BF        L92,NEQ               ; |491| 
    4320                      ; branchcc occurs ; |491| 
    4321                      .dwpsn  "./os_task.c",493,3
    4322 000005af 2910   clrc INTM
    4323                      .dwpsn  "./os_task.c",494,3
    4324 000005b0 9A43          MOVB      AL,#67                ; |494| 
    4325 000005b1 6F70          B         L101,UNC              ; |494| 
    4326                      ; branch occurs ; |494| 
    4327              L92:    
    4328                      .dwpsn  "./os_task.c",496,2
    4329 000005b2 C444          MOVL      XAR6,*-SP[4]          ; |496| 
    4330 000005b3 0201          MOVB      ACC,#1
    4331 000005b4 0FA6          CMPL      ACC,XAR6              ; |496| 
    4332 000005b5 ED04          BF        L93,NEQ               ; |496| 
    4333                      ; branchcc occurs ; |496| 
    4334                      .dwpsn  "./os_task.c",498,3
    4335 000005b6 2910   clrc INTM
    4336                      .dwpsn  "./os_task.c",499,3
    4337 000005b7 9A3D          MOVB      AL,#61                ; |499| 
    4338 000005b8 6F69          B         L101,UNC              ; |499| 
    4339                      ; branch occurs ; |499| 
    4340              L93:    
    4341                      .dwpsn  "./os_task.c",502,2
    4342 000005b9 8A44          MOVL      XAR4,*-SP[4]          ; |502| 
    4343 000005ba D00F          MOVB      XAR0,#15              ; |502| 
    4344 000005bb 8894          MOVZ      AR6,*+XAR4[AR0]       ; |502| 
    4345 000005bc 8344          MOVL      XAR5,*-SP[4]          ; |502| 
    4346 000005bd 8F00-         MOVL      XAR4,#_OSRdyTbl       ; |502| 
         000005be 0018 
    4347 000005bf A8A9          MOVL      ACC,XAR4              ; |502| 
    4348 000005c0 0DA6          ADDU      ACC,AR6               ; |502| 
    4349 000005c1 8AA9          MOVL      XAR4,ACC              ; |502| 
    4350 000005c2 D010          MOVB      XAR0,#16              ; |502| 
    4351 000005c3 9295          MOV       AL,*+XAR5[AR0]        ; |502| 
    4352 000005c4 FF5E          NOT       AL                    ; |502| 
TMS320C2000 COFF Assembler PC v4.1.3 Thu Jul 15 08:50:48 2010

Tools Copyright (c) 1996-2006 Texas Instruments Incorporated
C:\DOCUME~1\ADMINI~1\LOCALS~1\Temp\TI6202                            PAGE   83

    4353 000005c5 C0C4          AND       *+XAR4[0],AL          ; |502| 
    4354                      .dwpsn  "./os_task.c",503,2
    4355 000005c6 8A44          MOVL      XAR4,*-SP[4]          ; |503| 
    4356 000005c7 D00F          MOVB      XAR0,#15              ; |503| 
    4357 000005c8 5894          MOVZ      AR0,*+XAR4[AR0]       ; |503| 
    4358 000005c9 8F00-         MOVL      XAR4,#_OSRdyTbl       ; |503| 
         000005ca 0018 
    4359 000005cb 9294          MOV       AL,*+XAR4[AR0]        ; |503| 
    4360 000005cc ED06          BF        L94,NEQ               ; |503| 
    4361                      ; branchcc occurs ; |503| 
    4362                      .dwpsn  "./os_task.c",505,3
    4363 000005cd 8A44          MOVL      XAR4,*-SP[4]          ; |505| 
    4364 000005ce D011          MOVB      XAR0,#17              ; |505| 
    4365 000005cf 9294          MOV       AL,*+XAR4[AR0]        ; |505| 
    4366 000005d0 FF5E          NOT       AL                    ; |505| 
    4367 000005d1 C001-         AND       @_OSRdyGrp,AL         ; |505| 
    4368              L94:    
    4369                      .dwpsn  "./os_task.c",509,2
    4370 000005d2 8A44          MOVL      XAR4,*-SP[4]          ; |509| 
    4371 000005d3 06F4          MOVL      ACC,*+XAR4[6]         ; |509| 
    4372 000005d4 EC07          BF        L95,EQ                ; |509| 
    4373                      ; branchcc occurs ; |509| 
    4374                      .dwpsn  "./os_task.c",511,3
    4375 000005d5 8A44          MOVL      XAR4,*-SP[4]          ; |511| 
    4376 000005d6 83F4          MOVL      XAR5,*+XAR4[6]        ; |511| 
    4377 000005d7 8A44          MOVL      XAR4,*-SP[4]          ; |511| 
    4378 000005d8 FF69          SPM       #0
    4379 000005d9 7640'         LCR       #_OS_EventTaskRemove  ; |511| 
         000005da 016E 
    4380                      ; call occurs [#_OS_EventTaskRemove] ; |511| 
    4381              L95:    
    4382                      .dwpsn  "./os_task.c",529,2
    4383 000005db 8A44          MOVL      XAR4,*-SP[4]          ; |529| 
    4384 000005dc D00A          MOVB      XAR0,#10              ; |529| 
    4385 000005dd 2B94          MOV       *+XAR4[AR0],#0        ; |529| 
    4386                      .dwpsn  "./os_task.c",530,2
    4387 000005de 8A44          MOVL      XAR4,*-SP[4]          ; |530| 
    4388 000005df D00B          MOVB      XAR0,#11              ; |530| 
    4389 000005e0 2B94          MOV       *+XAR4[AR0],#0        ; |530| 
    4390                      .dwpsn  "./os_task.c",531,2
    4391 000005e1 8A44          MOVL      XAR4,*-SP[4]          ; |531| 
    4392 000005e2 D00C          MOVB      XAR0,#12              ; |531| 
    4393 000005e3 2B94          MOV       *+XAR4[AR0],#0        ; |531| 
    4394                      .dwpsn  "./os_task.c",532,2
    4395 000005e4 9204-         MOV       AL,@_OSLockNesting    ; |532| 
    4396 000005e5 52FF          CMPB      AL,#255               ; |532| 
    4397 000005e6 6702          B         L96,HIS               ; |532| 
    4398                      ; branchcc occurs ; |532| 
    4399                      .dwpsn  "./os_task.c",534,3
    4400 000005e7 0A04-         INC       @_OSLockNesting       ; |534| 
    4401              L96:    
    4402                      .dwpsn  "./os_task.c",536,2
    4403 000005e8 2910   clrc INTM
    4404                      .dwpsn  "./os_task.c",537,2
    4405 000005e9 FF69          SPM       #0
TMS320C2000 COFF Assembler PC v4.1.3 Thu Jul 15 08:50:48 2010

Tools Copyright (c) 1996-2006 Texas Instruments Incorporated
C:\DOCUME~1\ADMINI~1\LOCALS~1\Temp\TI6202                            PAGE   84

    4406 000005ea 7640'         LCR       #_OS_Dummy            ; |537| 
         000005eb 00F0 
    4407                      ; call occurs [#_OS_Dummy] ; |537| 
    4408                      .dwpsn  "./os_task.c",538,2
    4409 000005ec 3B10   setc INTM
    4410                      .dwpsn  "./os_task.c",539,2
    4411 000005ed 9204-         MOV       AL,@_OSLockNesting    ; |539| 
    4412 000005ee EC02          BF        L97,EQ                ; |539| 
    4413                      ; branchcc occurs ; |539| 
    4414                      .dwpsn  "./os_task.c",541,3
    4415 000005ef 0B04-         DEC       @_OSLockNesting       ; |541| 
    4416              L97:    
    4417                      .dwpsn  "./os_task.c",543,2
    4418 000005f0 8A44          MOVL      XAR4,*-SP[4]          ; |543| 
    4419 000005f1 FF69          SPM       #0
    4420 000005f2 7640!         LCR       #_OSTaskDelHook       ; |543| 
         000005f3 0000 
    4421                      ; call occurs [#_OSTaskDelHook] ; |543| 
    4422                      .dwpsn  "./os_task.c",544,2
    4423 000005f4 761F-         MOVW      DP,#_OSTaskCtr
         000005f5 0000 
    4424 000005f6 0B03-         DEC       @_OSTaskCtr           ; |544| 
    4425                      .dwpsn  "./os_task.c",545,2
    4426 000005f7 0E41          MOVU      ACC,*-SP[1]
    4427 000005f8 8F00-         MOVL      XAR4,#_OSTCBPrioTbl   ; |545| 
         000005f9 0080 
    4428 000005fa FF30          LSL       ACC,1                 ; |545| 
    4429 000005fb 5601          ADDL      XAR4,ACC
         000005fc 00A4 
    4430 000005fd 0200          MOVB      ACC,#0
    4431 000005fe 1EC4          MOVL      *+XAR4[0],ACC         ; |545| 
    4432                      .dwpsn  "./os_task.c",546,2
    4433 000005ff 8A44          MOVL      XAR4,*-SP[4]          ; |546| 
    4434 00000600 06E4          MOVL      ACC,*+XAR4[4]         ; |546| 
    4435 00000601 ED09          BF        L98,NEQ               ; |546| 
    4436                      ; branchcc occurs ; |546| 
    4437                      .dwpsn  "./os_task.c",548,3
    4438 00000602 8A44          MOVL      XAR4,*-SP[4]          ; |548| 
    4439 00000603 8AD4          MOVL      XAR4,*+XAR4[2]        ; |548| 
    4440 00000604 0200          MOVB      ACC,#0
    4441 00000605 1EE4          MOVL      *+XAR4[4],ACC         ; |548| 
    4442                      .dwpsn  "./os_task.c",549,3
    4443 00000606 8A44          MOVL      XAR4,*-SP[4]          ; |549| 
    4444 00000607 06D4          MOVL      ACC,*+XAR4[2]         ; |549| 
    4445 00000608 1E0A-         MOVL      @_OSTCBList,ACC       ; |549| 
    4446                      .dwpsn  "./os_task.c",550,2
    4447 00000609 6F0B          B         L99,UNC               ; |550| 
    4448                      ; branch occurs ; |550| 
    4449              L98:    
    4450                      .dwpsn  "./os_task.c",553,3
    4451 0000060a 8A44          MOVL      XAR4,*-SP[4]          ; |553| 
    4452 0000060b 06D4          MOVL      ACC,*+XAR4[2]         ; |553| 
    4453 0000060c 8A44          MOVL      XAR4,*-SP[4]          ; |553| 
    4454 0000060d 8AE4          MOVL      XAR4,*+XAR4[4]        ; |553| 
    4455 0000060e 1ED4          MOVL      *+XAR4[2],ACC         ; |553| 
TMS320C2000 COFF Assembler PC v4.1.3 Thu Jul 15 08:50:48 2010

Tools Copyright (c) 1996-2006 Texas Instruments Incorporated
C:\DOCUME~1\ADMINI~1\LOCALS~1\Temp\TI6202                            PAGE   85

    4456                      .dwpsn  "./os_task.c",554,3
    4457 0000060f 8A44          MOVL      XAR4,*-SP[4]          ; |554| 
    4458 00000610 06E4          MOVL      ACC,*+XAR4[4]         ; |554| 
    4459 00000611 8A44          MOVL      XAR4,*-SP[4]          ; |554| 
    4460 00000612 8AD4          MOVL      XAR4,*+XAR4[2]        ; |554| 
    4461 00000613 1EE4          MOVL      *+XAR4[4],ACC         ; |554| 
    4462              L99:    
    4463                      .dwpsn  "./os_task.c",556,2
    4464 00000614 8A44          MOVL      XAR4,*-SP[4]          ; |556| 
    4465 00000615 0608-         MOVL      ACC,@_OSTCBFreeList   ; |556| 
    4466 00000616 1ED4          MOVL      *+XAR4[2],ACC         ; |556| 
    4467                      .dwpsn  "./os_task.c",557,2
    4468 00000617 0644          MOVL      ACC,*-SP[4]           ; |557| 
    4469 00000618 1E08-         MOVL      @_OSTCBFreeList,ACC   ; |557| 
    4470                      .dwpsn  "./os_task.c",562,2
    4471 00000619 2910   clrc INTM
    4472                      .dwpsn  "./os_task.c",563,2
    4473 0000061a 9205-         MOV       AL,@_OSRunning        ; |563| 
    4474 0000061b 5201          CMPB      AL,#1                 ; |563| 
    4475 0000061c ED04          BF        L100,NEQ              ; |563| 
    4476                      ; branchcc occurs ; |563| 
    4477                      .dwpsn  "./os_task.c",565,3
    4478 0000061d FF69          SPM       #0
    4479 0000061e 7640'         LCR       #_OS_Sched            ; |565| 
         0000061f 025E 
    4480                      ; call occurs [#_OS_Sched] ; |565| 
    4481              L100:    
    4482                      .dwpsn  "./os_task.c",567,2
    4483 00000620 9A00          MOVB      AL,#0
    4484              L101:    
    4485                      .dwpsn  "./os_task.c",568,1
    4486 00000621 FE84          SUBB      SP,#4                 ; |567| 
    4487                      .dwcfa  0x1d, -2
    4488 00000622 FF69          SPM       #0
    4489 00000623 0006          LRETR
    4490                      ; return occurs
    4491                      .dwattr DW$228, DW_AT_end_file("./os_task.c")
    4492                      .dwattr DW$228, DW_AT_end_line(0x238)
    4493                      .dwattr DW$228, DW_AT_end_column(0x01)
    4494                      .dwendentry
    4495                      .dwendtag DW$228
    4496              
    4497 00000624               .sect   ".text"
    4498                      .global _OSTaskDelReq
    4499              
    4500              DW$232  .dwtag  DW_TAG_subprogram, DW_AT_name("OSTaskDelReq"), DW_AT_symbol_name("_OSTaskDelReq")
    4501                      .dwattr DW$232, DW_AT_low_pc(_OSTaskDelReq)
    4502                      .dwattr DW$232, DW_AT_high_pc(0x00)
    4503                      .dwattr DW$232, DW_AT_begin_file("./os_task.c")
    4504                      .dwattr DW$232, DW_AT_begin_line(0x26b)
    4505                      .dwattr DW$232, DW_AT_begin_column(0x08)
    4506                      .dwpsn  "./os_task.c",620,1
    4507              
    4508                      .dwfde DW$CIE
    4509              
TMS320C2000 COFF Assembler PC v4.1.3 Thu Jul 15 08:50:48 2010

Tools Copyright (c) 1996-2006 Texas Instruments Incorporated
C:\DOCUME~1\ADMINI~1\LOCALS~1\Temp\TI6202                            PAGE   86

    4510              ;***************************************************************
    4511              ;* FNAME: _OSTaskDelReq                 FR SIZE:   4           *
    4512              ;*                                                             *
    4513              ;* FUNCTION ENVIRONMENT                                        *
    4514              ;*                                                             *
    4515              ;* FUNCTION PROPERTIES                                         *
    4516              ;*                            0 Parameter,  4 Auto,  0 SOE     *
    4517              ;***************************************************************
    4518              
    4519              _OSTaskDelReq:
    4520                      .dwcfa  0x1d, -2
    4521                      .dwcfa  0x1c, 26, 0
    4522                      .dwcfa  0x09, 40, 26
    4523 00000624 FE04          ADDB      SP,#4
    4524                      .dwcfa  0x1d, -6
    4525              ;* AL    assigned to _prio
    4526              DW$233  .dwtag  DW_TAG_formal_parameter, DW_AT_name("prio"), DW_AT_symbol_name("_prio")
    4527                      .dwattr DW$233, DW_AT_type(*DW$T$19)
    4528                      .dwattr DW$233, DW_AT_location[DW_OP_reg0]
    4529              DW$234  .dwtag  DW_TAG_variable, DW_AT_name("prio"), DW_AT_symbol_name("_prio")
    4530                      .dwattr DW$234, DW_AT_type(*DW$T$19)
    4531                      .dwattr DW$234, DW_AT_location[DW_OP_breg20 -1]
    4532              DW$235  .dwtag  DW_TAG_variable, DW_AT_name("stat"), DW_AT_symbol_name("_stat")
    4533                      .dwattr DW$235, DW_AT_type(*DW$T$19)
    4534                      .dwattr DW$235, DW_AT_location[DW_OP_breg20 -2]
    4535              DW$236  .dwtag  DW_TAG_variable, DW_AT_name("ptcb"), DW_AT_symbol_name("_ptcb")
    4536                      .dwattr DW$236, DW_AT_type(*DW$T$38)
    4537                      .dwattr DW$236, DW_AT_location[DW_OP_breg20 -4]
    4538 00000625 9641          MOV       *-SP[1],AL            ; |620| 
    4539                      .dwpsn  "./os_task.c",629,2
    4540 00000626 523F          CMPB      AL,#63                ; |629| 
    4541 00000627 ED03          BF        L102,NEQ              ; |629| 
    4542                      ; branchcc occurs ; |629| 
    4543                      .dwpsn  "./os_task.c",631,3
    4544 00000628 9A3E          MOVB      AL,#62                ; |631| 
    4545 00000629 6F27          B         L106,UNC              ; |631| 
    4546                      ; branch occurs ; |631| 
    4547              L102:    
    4548                      .dwpsn  "./os_task.c",642,2
    4549 0000062a 52FF          CMPB      AL,#255               ; |642| 
    4550 0000062b ED0A          BF        L103,NEQ              ; |642| 
    4551                      ; branchcc occurs ; |642| 
    4552                      .dwpsn  "./os_task.c",644,3
    4553 0000062c 3B10   setc INTM
    4554                      .dwpsn  "./os_task.c",645,3
    4555 0000062d 761F-         MOVW      DP,#_OSTCBCur
         0000062e 0000 
    4556 0000062f 8A0C-         MOVL      XAR4,@_OSTCBCur       ; |645| 
    4557 00000630 D012          MOVB      XAR0,#18              ; |645| 
    4558 00000631 9294          MOV       AL,*+XAR4[AR0]        ; |645| 
    4559 00000632 9642          MOV       *-SP[2],AL            ; |645| 
    4560                      .dwpsn  "./os_task.c",646,3
    4561 00000633 2910   clrc INTM
    4562                      .dwpsn  "./os_task.c",647,3
    4563 00000634 6F1C          B         L106,UNC              ; |647| 
TMS320C2000 COFF Assembler PC v4.1.3 Thu Jul 15 08:50:48 2010

Tools Copyright (c) 1996-2006 Texas Instruments Incorporated
C:\DOCUME~1\ADMINI~1\LOCALS~1\Temp\TI6202                            PAGE   87

    4564                      ; branch occurs ; |647| 
    4565              L103:    
    4566                      .dwpsn  "./os_task.c",649,2
    4567 00000635 3B10   setc INTM
    4568                      .dwpsn  "./os_task.c",650,2
    4569 00000636 0E41          MOVU      ACC,*-SP[1]
    4570 00000637 8F00-         MOVL      XAR4,#_OSTCBPrioTbl   ; |650| 
         00000638 0080 
    4571 00000639 FF30          LSL       ACC,1                 ; |650| 
    4572 0000063a 5601          ADDL      XAR4,ACC
         0000063b 00A4 
    4573 0000063c 06C4          MOVL      ACC,*+XAR4[0]         ; |650| 
    4574 0000063d 1E44          MOVL      *-SP[4],ACC           ; |650| 
    4575                      .dwpsn  "./os_task.c",651,2
    4576 0000063e 0644          MOVL      ACC,*-SP[4]           ; |651| 
    4577 0000063f ED04          BF        L104,NEQ              ; |651| 
    4578                      ; branchcc occurs ; |651| 
    4579                      .dwpsn  "./os_task.c",653,3
    4580 00000640 2910   clrc INTM
    4581                      .dwpsn  "./os_task.c",654,3
    4582 00000641 9A43          MOVB      AL,#67                ; |654| 
    4583 00000642 6F0E          B         L106,UNC              ; |654| 
    4584                      ; branch occurs ; |654| 
    4585              L104:    
    4586                      .dwpsn  "./os_task.c",656,2
    4587 00000643 C444          MOVL      XAR6,*-SP[4]          ; |656| 
    4588 00000644 0201          MOVB      ACC,#1
    4589 00000645 0FA6          CMPL      ACC,XAR6              ; |656| 
    4590 00000646 ED04          BF        L105,NEQ              ; |656| 
    4591                      ; branchcc occurs ; |656| 
    4592                      .dwpsn  "./os_task.c",658,3
    4593 00000647 2910   clrc INTM
    4594                      .dwpsn  "./os_task.c",659,3
    4595 00000648 9A3D          MOVB      AL,#61                ; |659| 
    4596 00000649 6F07          B         L106,UNC              ; |659| 
    4597                      ; branch occurs ; |659| 
    4598              L105:    
    4599                      .dwpsn  "./os_task.c",661,2
    4600 0000064a 8A44          MOVL      XAR4,*-SP[4]          ; |661| 
    4601 0000064b D012          MOVB      XAR0,#18              ; |661| 
    4602 0000064c 2894          MOV       *+XAR4[AR0],#63       ; |661| 
         0000064d 003F 
    4603                      .dwpsn  "./os_task.c",662,2
    4604 0000064e 2910   clrc INTM
    4605                      .dwpsn  "./os_task.c",663,2
    4606 0000064f 9A00          MOVB      AL,#0
    4607              L106:    
    4608                      .dwpsn  "./os_task.c",664,1
    4609 00000650 FE84          SUBB      SP,#4                 ; |663| 
    4610                      .dwcfa  0x1d, -2
    4611 00000651 FF69          SPM       #0
    4612 00000652 0006          LRETR
    4613                      ; return occurs
    4614                      .dwattr DW$232, DW_AT_end_file("./os_task.c")
    4615                      .dwattr DW$232, DW_AT_end_line(0x298)
TMS320C2000 COFF Assembler PC v4.1.3 Thu Jul 15 08:50:48 2010

Tools Copyright (c) 1996-2006 Texas Instruments Incorporated
C:\DOCUME~1\ADMINI~1\LOCALS~1\Temp\TI6202                            PAGE   88

    4616                      .dwattr DW$232, DW_AT_end_column(0x01)
    4617                      .dwendentry
    4618                      .dwendtag DW$232
    4619              
    4620 00000653               .sect   ".text"
    4621                      .global _OSTimeDly
    4622              
    4623              DW$237  .dwtag  DW_TAG_subprogram, DW_AT_name("OSTimeDly"), DW_AT_symbol_name("_OSTimeDly")
    4624                      .dwattr DW$237, DW_AT_low_pc(_OSTimeDly)
    4625                      .dwattr DW$237, DW_AT_high_pc(0x00)
    4626                      .dwattr DW$237, DW_AT_begin_file("./os_time.c")
    4627                      .dwattr DW$237, DW_AT_begin_line(0x2d)
    4628                      .dwattr DW$237, DW_AT_begin_column(0x07)
    4629                      .dwpsn  "./os_time.c",46,1
    4630              
    4631                      .dwfde DW$CIE
    4632              
    4633              ;***************************************************************
    4634              ;* FNAME: _OSTimeDly                    FR SIZE:   2           *
    4635              ;*                                                             *
    4636              ;* FUNCTION ENVIRONMENT                                        *
    4637              ;*                                                             *
    4638              ;* FUNCTION PROPERTIES                                         *
    4639              ;*                            0 Parameter,  2 Auto,  0 SOE     *
    4640              ;***************************************************************
    4641              
    4642              _OSTimeDly:
    4643                      .dwcfa  0x1d, -2
    4644                      .dwcfa  0x1c, 26, 0
    4645                      .dwcfa  0x09, 40, 26
    4646 00000653 FE02          ADDB      SP,#2
    4647                      .dwcfa  0x1d, -4
    4648              ;* AL    assigned to _ticks
    4649              DW$238  .dwtag  DW_TAG_formal_parameter, DW_AT_name("ticks"), DW_AT_symbol_name("_ticks")
    4650                      .dwattr DW$238, DW_AT_type(*DW$T$20)
    4651                      .dwattr DW$238, DW_AT_location[DW_OP_reg0]
    4652              DW$239  .dwtag  DW_TAG_variable, DW_AT_name("ticks"), DW_AT_symbol_name("_ticks")
    4653                      .dwattr DW$239, DW_AT_type(*DW$T$20)
    4654                      .dwattr DW$239, DW_AT_location[DW_OP_breg20 -1]
    4655              DW$240  .dwtag  DW_TAG_variable, DW_AT_name("y"), DW_AT_symbol_name("_y")
    4656                      .dwattr DW$240, DW_AT_type(*DW$T$19)
    4657                      .dwattr DW$240, DW_AT_location[DW_OP_breg20 -2]
    4658 00000654 9641          MOV       *-SP[1],AL            ; |46| 
    4659                      .dwpsn  "./os_time.c",54,2
    4660 00000655 761F-         MOVW      DP,#_OSIntNesting
         00000656 0000 
    4661 00000657 9206-         MOV       AL,@_OSIntNesting     ; |54| 
    4662 00000658 ED25          BF        L108,NEQ              ; |54| 
    4663                      ; branchcc occurs ; |54| 
    4664                      .dwpsn  "./os_time.c",56,3
    4665                      .dwpsn  "./os_time.c",58,2
    4666 00000659 9241          MOV       AL,*-SP[1]            ; |58| 
    4667 0000065a EC23          BF        L108,EQ               ; |58| 
    4668                      ; branchcc occurs ; |58| 
    4669                      .dwpsn  "./os_time.c",60,3
TMS320C2000 COFF Assembler PC v4.1.3 Thu Jul 15 08:50:48 2010

Tools Copyright (c) 1996-2006 Texas Instruments Incorporated
C:\DOCUME~1\ADMINI~1\LOCALS~1\Temp\TI6202                            PAGE   89

    4670 0000065b 3B10   setc INTM
    4671                      .dwpsn  "./os_time.c",61,3
    4672 0000065c 8A0C-         MOVL      XAR4,@_OSTCBCur       ; |61| 
    4673 0000065d D00F          MOVB      XAR0,#15              ; |61| 
    4674 0000065e 9294          MOV       AL,*+XAR4[AR0]        ; |61| 
    4675 0000065f 9642          MOV       *-SP[2],AL            ; |61| 
    4676                      .dwpsn  "./os_time.c",62,3
    4677 00000660 8842          MOVZ      AR6,*-SP[2]           ; |62| 
    4678 00000661 8F00-         MOVL      XAR4,#_OSRdyTbl       ; |62| 
         00000662 0018 
    4679 00000663 A8A9          MOVL      ACC,XAR4              ; |62| 
    4680 00000664 830C-         MOVL      XAR5,@_OSTCBCur       ; |62| 
    4681 00000665 0DA6          ADDU      ACC,AR6               ; |62| 
    4682 00000666 8AA9          MOVL      XAR4,ACC              ; |62| 
    4683 00000667 D010          MOVB      XAR0,#16              ; |62| 
    4684 00000668 9295          MOV       AL,*+XAR5[AR0]        ; |62| 
    4685 00000669 FF5E          NOT       AL                    ; |62| 
    4686 0000066a C0C4          AND       *+XAR4[0],AL          ; |62| 
    4687                      .dwpsn  "./os_time.c",63,3
    4688 0000066b 5842          MOVZ      AR0,*-SP[2]           ; |63| 
    4689 0000066c 8F00-         MOVL      XAR4,#_OSRdyTbl       ; |63| 
         0000066d 0018 
    4690 0000066e 9294          MOV       AL,*+XAR4[AR0]        ; |63| 
    4691 0000066f ED06          BF        L107,NEQ              ; |63| 
    4692                      ; branchcc occurs ; |63| 
    4693                      .dwpsn  "./os_time.c",65,4
    4694 00000670 8A0C-         MOVL      XAR4,@_OSTCBCur       ; |65| 
    4695 00000671 D011          MOVB      XAR0,#17              ; |65| 
    4696 00000672 9294          MOV       AL,*+XAR4[AR0]        ; |65| 
    4697 00000673 FF5E          NOT       AL                    ; |65| 
    4698 00000674 C001-         AND       @_OSRdyGrp,AL         ; |65| 
    4699              L107:    
    4700                      .dwpsn  "./os_time.c",67,3
    4701 00000675 8A0C-         MOVL      XAR4,@_OSTCBCur       ; |67| 
    4702 00000676 9241          MOV       AL,*-SP[1]            ; |67| 
    4703 00000677 D00A          MOVB      XAR0,#10              ; |67| 
    4704 00000678 9694          MOV       *+XAR4[AR0],AL        ; |67| 
    4705                      .dwpsn  "./os_time.c",68,3
    4706 00000679 2910   clrc INTM
    4707                      .dwpsn  "./os_time.c",69,3
    4708 0000067a FF69          SPM       #0
    4709 0000067b 7640'         LCR       #_OS_Sched            ; |69| 
         0000067c 025E 
    4710                      ; call occurs [#_OS_Sched] ; |69| 
    4711                      .dwpsn  "./os_time.c",70,2
    4712              L108:    
    4713                      .dwpsn  "./os_time.c",71,1
    4714 0000067d FE82          SUBB      SP,#2
    4715                      .dwcfa  0x1d, -2
    4716 0000067e 0006          LRETR
    4717                      ; return occurs
    4718                      .dwattr DW$237, DW_AT_end_file("./os_time.c")
    4719                      .dwattr DW$237, DW_AT_end_line(0x47)
    4720                      .dwattr DW$237, DW_AT_end_column(0x01)
    4721                      .dwendentry
TMS320C2000 COFF Assembler PC v4.1.3 Thu Jul 15 08:50:48 2010

Tools Copyright (c) 1996-2006 Texas Instruments Incorporated
C:\DOCUME~1\ADMINI~1\LOCALS~1\Temp\TI6202                            PAGE   90

    4722                      .dwendtag DW$237
    4723              
    4724              ;***************************************************************
    4725              ;* UNDEFINED EXTERNAL REFERENCES                               *
    4726              ;***************************************************************
    4727                      .global _OSTaskIdleHook
    4728                      .global _OSTaskDelHook
    4729                      .global _OSTimeTickHook
    4730                      .global _OSTCBInitHook
    4731                      .global _OSStartHighRdy
    4732                      .global _OSIntCtxSw
    4733                      .global _OSTaskCreateHook
    4734                      .global _OSInitHookEnd
    4735                      .global _OSTaskStkInit
    4736                      .global _OSTaskIdleStk
    4737              
    4738              ;***************************************************************
    4739              ;* TYPE INFORMATION                                            *
    4740              ;***************************************************************
    4741              DW$T$3  .dwtag  DW_TAG_pointer_type
    4742                      .dwattr DW$T$3, DW_AT_address_class(0x16)
    4743              DW$T$31 .dwtag  DW_TAG_pointer_type, DW_AT_type(*DW$T$3)
    4744                      .dwattr DW$T$31, DW_AT_address_class(0x16)
    4745              
    4746              DW$T$34 .dwtag  DW_TAG_subroutine_type, DW_AT_type(*DW$T$3)
    4747                      .dwattr DW$T$34, DW_AT_language(DW_LANG_C)
    4748              DW$241  .dwtag  DW_TAG_formal_parameter, DW_AT_type(*DW$T$28)
    4749              DW$242  .dwtag  DW_TAG_formal_parameter, DW_AT_type(*DW$T$20)
    4750              DW$243  .dwtag  DW_TAG_formal_parameter, DW_AT_type(*DW$T$33)
    4751                      .dwendtag DW$T$34
    4752              
    4753              
    4754              DW$T$35 .dwtag  DW_TAG_subroutine_type
    4755                      .dwattr DW$T$35, DW_AT_language(DW_LANG_C)
    4756              
    4757              DW$T$39 .dwtag  DW_TAG_subroutine_type
    4758                      .dwattr DW$T$39, DW_AT_language(DW_LANG_C)
    4759              DW$244  .dwtag  DW_TAG_formal_parameter, DW_AT_type(*DW$T$38)
    4760                      .dwendtag DW$T$39
    4761              
    4762              
    4763              DW$T$41 .dwtag  DW_TAG_subroutine_type
    4764                      .dwattr DW$T$41, DW_AT_language(DW_LANG_C)
    4765              DW$245  .dwtag  DW_TAG_formal_parameter, DW_AT_type(*DW$T$3)
    4766                      .dwendtag DW$T$41
    4767              
    4768              DW$T$42 .dwtag  DW_TAG_pointer_type, DW_AT_type(*DW$T$41)
    4769                      .dwattr DW$T$42, DW_AT_address_class(0x16)
    4770              
    4771              DW$T$43 .dwtag  DW_TAG_subroutine_type
    4772                      .dwattr DW$T$43, DW_AT_language(DW_LANG_C)
    4773              DW$246  .dwtag  DW_TAG_formal_parameter, DW_AT_type(*DW$T$28)
    4774              DW$247  .dwtag  DW_TAG_formal_parameter, DW_AT_type(*DW$T$33)
    4775              DW$248  .dwtag  DW_TAG_formal_parameter, DW_AT_type(*DW$T$33)
    4776                      .dwendtag DW$T$43
TMS320C2000 COFF Assembler PC v4.1.3 Thu Jul 15 08:50:48 2010

Tools Copyright (c) 1996-2006 Texas Instruments Incorporated
C:\DOCUME~1\ADMINI~1\LOCALS~1\Temp\TI6202                            PAGE   91

    4777              
    4778              
    4779              DW$T$44 .dwtag  DW_TAG_subroutine_type
    4780                      .dwattr DW$T$44, DW_AT_language(DW_LANG_C)
    4781              DW$249  .dwtag  DW_TAG_formal_parameter, DW_AT_type(*DW$T$28)
    4782                      .dwendtag DW$T$44
    4783              
    4784              
    4785              DW$T$46 .dwtag  DW_TAG_subroutine_type
    4786                      .dwattr DW$T$46, DW_AT_language(DW_LANG_C)
    4787              DW$250  .dwtag  DW_TAG_formal_parameter, DW_AT_type(*DW$T$38)
    4788              DW$251  .dwtag  DW_TAG_formal_parameter, DW_AT_type(*DW$T$28)
    4789                      .dwendtag DW$T$46
    4790              
    4791              
    4792              DW$T$48 .dwtag  DW_TAG_subroutine_type
    4793                      .dwattr DW$T$48, DW_AT_language(DW_LANG_C)
    4794              DW$252  .dwtag  DW_TAG_formal_parameter, DW_AT_type(*DW$T$33)
    4795              DW$253  .dwtag  DW_TAG_formal_parameter, DW_AT_type(*DW$T$20)
    4796                      .dwendtag DW$T$48
    4797              
    4798              
    4799              DW$T$50 .dwtag  DW_TAG_subroutine_type
    4800                      .dwattr DW$T$50, DW_AT_language(DW_LANG_C)
    4801              DW$254  .dwtag  DW_TAG_formal_parameter, DW_AT_type(*DW$T$33)
    4802              DW$255  .dwtag  DW_TAG_formal_parameter, DW_AT_type(*DW$T$33)
    4803              DW$256  .dwtag  DW_TAG_formal_parameter, DW_AT_type(*DW$T$20)
    4804                      .dwendtag DW$T$50
    4805              
    4806              
    4807              DW$T$51 .dwtag  DW_TAG_subroutine_type
    4808                      .dwattr DW$T$51, DW_AT_language(DW_LANG_C)
    4809              DW$257  .dwtag  DW_TAG_formal_parameter, DW_AT_type(*DW$T$28)
    4810              DW$258  .dwtag  DW_TAG_formal_parameter, DW_AT_type(*DW$T$20)
    4811              DW$259  .dwtag  DW_TAG_formal_parameter, DW_AT_type(*DW$T$33)
    4812                      .dwendtag DW$T$51
    4813              
    4814              
    4815              DW$T$52 .dwtag  DW_TAG_subroutine_type
    4816                      .dwattr DW$T$52, DW_AT_language(DW_LANG_C)
    4817              DW$260  .dwtag  DW_TAG_formal_parameter, DW_AT_type(*DW$T$20)
    4818                      .dwendtag DW$T$52
    4819              
    4820              DW$T$19 .dwtag  DW_TAG_typedef, DW_AT_name("INT8U"), DW_AT_type(*DW$T$6)
    4821                      .dwattr DW$T$19, DW_AT_language(DW_LANG_C)
    4822              
    4823              DW$T$21 .dwtag  DW_TAG_array_type, DW_AT_type(*DW$T$19)
    4824                      .dwattr DW$T$21, DW_AT_language(DW_LANG_C)
    4825                      .dwattr DW$T$21, DW_AT_byte_size(0x08)
    4826              DW$261  .dwtag  DW_TAG_subrange_type
    4827                      .dwattr DW$261, DW_AT_upper_bound(0x07)
    4828                      .dwendtag DW$T$21
    4829              
    4830              DW$T$33 .dwtag  DW_TAG_pointer_type, DW_AT_type(*DW$T$19)
    4831                      .dwattr DW$T$33, DW_AT_address_class(0x16)
TMS320C2000 COFF Assembler PC v4.1.3 Thu Jul 15 08:50:48 2010

Tools Copyright (c) 1996-2006 Texas Instruments Incorporated
C:\DOCUME~1\ADMINI~1\LOCALS~1\Temp\TI6202                            PAGE   92

    4832              
    4833              DW$T$55 .dwtag  DW_TAG_subroutine_type, DW_AT_type(*DW$T$19)
    4834                      .dwattr DW$T$55, DW_AT_language(DW_LANG_C)
    4835              DW$262  .dwtag  DW_TAG_formal_parameter, DW_AT_type(*DW$T$28)
    4836              DW$263  .dwtag  DW_TAG_formal_parameter, DW_AT_type(*DW$T$33)
    4837              DW$264  .dwtag  DW_TAG_formal_parameter, DW_AT_type(*DW$T$33)
    4838                      .dwendtag DW$T$55
    4839              
    4840              
    4841              DW$T$56 .dwtag  DW_TAG_subroutine_type, DW_AT_type(*DW$T$19)
    4842                      .dwattr DW$T$56, DW_AT_language(DW_LANG_C)
    4843              DW$265  .dwtag  DW_TAG_formal_parameter, DW_AT_type(*DW$T$28)
    4844              DW$266  .dwtag  DW_TAG_formal_parameter, DW_AT_type(*DW$T$3)
    4845              DW$267  .dwtag  DW_TAG_formal_parameter, DW_AT_type(*DW$T$19)
    4846              DW$268  .dwtag  DW_TAG_formal_parameter, DW_AT_type(*DW$T$19)
    4847                      .dwendtag DW$T$56
    4848              
    4849              
    4850              DW$T$58 .dwtag  DW_TAG_subroutine_type, DW_AT_type(*DW$T$19)
    4851                      .dwattr DW$T$58, DW_AT_language(DW_LANG_C)
    4852              DW$269  .dwtag  DW_TAG_formal_parameter, DW_AT_type(*DW$T$33)
    4853              DW$270  .dwtag  DW_TAG_formal_parameter, DW_AT_type(*DW$T$33)
    4854                      .dwendtag DW$T$58
    4855              
    4856              
    4857              DW$T$60 .dwtag  DW_TAG_subroutine_type, DW_AT_type(*DW$T$19)
    4858                      .dwattr DW$T$60, DW_AT_language(DW_LANG_C)
    4859              DW$271  .dwtag  DW_TAG_formal_parameter, DW_AT_type(*DW$T$33)
    4860                      .dwendtag DW$T$60
    4861              
    4862              
    4863              DW$T$63 .dwtag  DW_TAG_subroutine_type, DW_AT_type(*DW$T$19)
    4864                      .dwattr DW$T$63, DW_AT_language(DW_LANG_C)
    4865              DW$272  .dwtag  DW_TAG_formal_parameter, DW_AT_type(*DW$T$19)
    4866              DW$273  .dwtag  DW_TAG_formal_parameter, DW_AT_type(*DW$T$25)
    4867              DW$274  .dwtag  DW_TAG_formal_parameter, DW_AT_type(*DW$T$25)
    4868              DW$275  .dwtag  DW_TAG_formal_parameter, DW_AT_type(*DW$T$20)
    4869              DW$276  .dwtag  DW_TAG_formal_parameter, DW_AT_type(*DW$T$62)
    4870              DW$277  .dwtag  DW_TAG_formal_parameter, DW_AT_type(*DW$T$3)
    4871              DW$278  .dwtag  DW_TAG_formal_parameter, DW_AT_type(*DW$T$20)
    4872                      .dwendtag DW$T$63
    4873              
    4874              
    4875              DW$T$65 .dwtag  DW_TAG_subroutine_type, DW_AT_type(*DW$T$19)
    4876                      .dwattr DW$T$65, DW_AT_language(DW_LANG_C)
    4877              DW$279  .dwtag  DW_TAG_formal_parameter, DW_AT_type(*DW$T$28)
    4878                      .dwendtag DW$T$65
    4879              
    4880              
    4881              DW$T$66 .dwtag  DW_TAG_subroutine_type, DW_AT_type(*DW$T$19)
    4882                      .dwattr DW$T$66, DW_AT_language(DW_LANG_C)
    4883              DW$280  .dwtag  DW_TAG_formal_parameter, DW_AT_type(*DW$T$28)
    4884              DW$281  .dwtag  DW_TAG_formal_parameter, DW_AT_type(*DW$T$3)
    4885                      .dwendtag DW$T$66
    4886              
TMS320C2000 COFF Assembler PC v4.1.3 Thu Jul 15 08:50:48 2010

Tools Copyright (c) 1996-2006 Texas Instruments Incorporated
C:\DOCUME~1\ADMINI~1\LOCALS~1\Temp\TI6202                            PAGE   93

    4887              
    4888              DW$T$67 .dwtag  DW_TAG_subroutine_type, DW_AT_type(*DW$T$19)
    4889                      .dwattr DW$T$67, DW_AT_language(DW_LANG_C)
    4890              DW$282  .dwtag  DW_TAG_formal_parameter, DW_AT_type(*DW$T$42)
    4891              DW$283  .dwtag  DW_TAG_formal_parameter, DW_AT_type(*DW$T$3)
    4892              DW$284  .dwtag  DW_TAG_formal_parameter, DW_AT_type(*DW$T$25)
    4893              DW$285  .dwtag  DW_TAG_formal_parameter, DW_AT_type(*DW$T$19)
    4894                      .dwendtag DW$T$67
    4895              
    4896              
    4897              DW$T$69 .dwtag  DW_TAG_subroutine_type, DW_AT_type(*DW$T$19)
    4898                      .dwattr DW$T$69, DW_AT_language(DW_LANG_C)
    4899              DW$286  .dwtag  DW_TAG_formal_parameter, DW_AT_type(*DW$T$19)
    4900                      .dwendtag DW$T$69
    4901              
    4902              
    4903              DW$T$71 .dwtag  DW_TAG_array_type, DW_AT_type(*DW$T$70)
    4904                      .dwattr DW$T$71, DW_AT_language(DW_LANG_C)
    4905                      .dwattr DW$T$71, DW_AT_byte_size(0x100)
    4906              DW$287  .dwtag  DW_TAG_subrange_type
    4907                      .dwattr DW$287, DW_AT_upper_bound(0xff)
    4908                      .dwendtag DW$T$71
    4909              
    4910              DW$T$73 .dwtag  DW_TAG_typedef, DW_AT_name("BOOLEAN"), DW_AT_type(*DW$T$6)
    4911                      .dwattr DW$T$73, DW_AT_language(DW_LANG_C)
    4912              DW$T$20 .dwtag  DW_TAG_typedef, DW_AT_name("INT16U"), DW_AT_type(*DW$T$11)
    4913                      .dwattr DW$T$20, DW_AT_language(DW_LANG_C)
    4914              
    4915              DW$T$77 .dwtag  DW_TAG_subroutine_type, DW_AT_type(*DW$T$20)
    4916                      .dwattr DW$T$77, DW_AT_language(DW_LANG_C)
    4917              DW$T$25 .dwtag  DW_TAG_pointer_type, DW_AT_type(*DW$T$24)
    4918                      .dwattr DW$T$25, DW_AT_address_class(0x16)
    4919              
    4920              DW$T$74 .dwtag  DW_TAG_subroutine_type, DW_AT_type(*DW$T$25)
    4921                      .dwattr DW$T$74, DW_AT_language(DW_LANG_C)
    4922              DW$288  .dwtag  DW_TAG_formal_parameter, DW_AT_type(*DW$T$42)
    4923              DW$289  .dwtag  DW_TAG_formal_parameter, DW_AT_type(*DW$T$3)
    4924              DW$290  .dwtag  DW_TAG_formal_parameter, DW_AT_type(*DW$T$25)
    4925              DW$291  .dwtag  DW_TAG_formal_parameter, DW_AT_type(*DW$T$20)
    4926                      .dwendtag DW$T$74
    4927              
    4928              
    4929              DW$T$76 .dwtag  DW_TAG_array_type, DW_AT_type(*DW$T$24)
    4930                      .dwattr DW$T$76, DW_AT_language(DW_LANG_C)
    4931                      .dwattr DW$T$76, DW_AT_byte_size(0x100)
    4932              DW$292  .dwtag  DW_TAG_subrange_type
    4933                      .dwattr DW$292, DW_AT_upper_bound(0xff)
    4934                      .dwendtag DW$T$76
    4935              
    4936              DW$T$62 .dwtag  DW_TAG_typedef, DW_AT_name("INT32U"), DW_AT_type(*DW$T$13)
    4937                      .dwattr DW$T$62, DW_AT_language(DW_LANG_C)
    4938              DW$293  .dwtag  DW_TAG_far_type
    4939                      .dwattr DW$293, DW_AT_type(*DW$T$62)
    4940              DW$T$78 .dwtag  DW_TAG_volatile_type
    4941                      .dwattr DW$T$78, DW_AT_type(*DW$293)
TMS320C2000 COFF Assembler PC v4.1.3 Thu Jul 15 08:50:48 2010

Tools Copyright (c) 1996-2006 Texas Instruments Incorporated
C:\DOCUME~1\ADMINI~1\LOCALS~1\Temp\TI6202                            PAGE   94

    4942              DW$T$28 .dwtag  DW_TAG_pointer_type, DW_AT_type(*DW$T$27)
    4943                      .dwattr DW$T$28, DW_AT_address_class(0x16)
    4944              
    4945              DW$T$79 .dwtag  DW_TAG_subroutine_type, DW_AT_type(*DW$T$28)
    4946                      .dwattr DW$T$79, DW_AT_language(DW_LANG_C)
    4947              DW$294  .dwtag  DW_TAG_formal_parameter, DW_AT_type(*DW$T$31)
    4948              DW$295  .dwtag  DW_TAG_formal_parameter, DW_AT_type(*DW$T$20)
    4949                      .dwendtag DW$T$79
    4950              
    4951              
    4952              DW$T$80 .dwtag  DW_TAG_subroutine_type, DW_AT_type(*DW$T$28)
    4953                      .dwattr DW$T$80, DW_AT_language(DW_LANG_C)
    4954              DW$296  .dwtag  DW_TAG_formal_parameter, DW_AT_type(*DW$T$20)
    4955                      .dwendtag DW$T$80
    4956              
    4957              
    4958              DW$T$81 .dwtag  DW_TAG_array_type, DW_AT_type(*DW$T$27)
    4959                      .dwattr DW$T$81, DW_AT_language(DW_LANG_C)
    4960                      .dwattr DW$T$81, DW_AT_byte_size(0x258)
    4961              DW$297  .dwtag  DW_TAG_subrange_type
    4962                      .dwattr DW$297, DW_AT_upper_bound(0x13)
    4963                      .dwendtag DW$T$81
    4964              
    4965              DW$T$38 .dwtag  DW_TAG_pointer_type, DW_AT_type(*DW$T$37)
    4966                      .dwattr DW$T$38, DW_AT_address_class(0x16)
    4967              
    4968              DW$T$82 .dwtag  DW_TAG_array_type, DW_AT_type(*DW$T$38)
    4969                      .dwattr DW$T$82, DW_AT_language(DW_LANG_C)
    4970                      .dwattr DW$T$82, DW_AT_byte_size(0x80)
    4971              DW$298  .dwtag  DW_TAG_subrange_type
    4972                      .dwattr DW$298, DW_AT_upper_bound(0x3f)
    4973                      .dwendtag DW$T$82
    4974              
    4975              
    4976              DW$T$84 .dwtag  DW_TAG_array_type, DW_AT_type(*DW$T$37)
    4977                      .dwattr DW$T$84, DW_AT_language(DW_LANG_C)
    4978                      .dwattr DW$T$84, DW_AT_byte_size(0x1a4)
    4979              DW$299  .dwtag  DW_TAG_subrange_type
    4980                      .dwattr DW$299, DW_AT_upper_bound(0x14)
    4981                      .dwendtag DW$T$84
    4982              
    4983              DW$T$86 .dwtag  DW_TAG_pointer_type, DW_AT_type(*DW$T$85)
    4984                      .dwattr DW$T$86, DW_AT_address_class(0x16)
    4985              
    4986              DW$T$87 .dwtag  DW_TAG_array_type, DW_AT_type(*DW$T$85)
    4987                      .dwattr DW$T$87, DW_AT_language(DW_LANG_C)
    4988                      .dwattr DW$T$87, DW_AT_byte_size(0x3c)
    4989              DW$300  .dwtag  DW_TAG_subrange_type
    4990                      .dwattr DW$300, DW_AT_upper_bound(0x04)
    4991                      .dwendtag DW$T$87
    4992              
    4993              DW$T$6  .dwtag  DW_TAG_base_type, DW_AT_name("unsigned char")
    4994                      .dwattr DW$T$6, DW_AT_encoding(DW_ATE_unsigned_char)
    4995                      .dwattr DW$T$6, DW_AT_byte_size(0x01)
    4996              DW$301  .dwtag  DW_TAG_far_type
TMS320C2000 COFF Assembler PC v4.1.3 Thu Jul 15 08:50:48 2010

Tools Copyright (c) 1996-2006 Texas Instruments Incorporated
C:\DOCUME~1\ADMINI~1\LOCALS~1\Temp\TI6202                            PAGE   95

    4997                      .dwattr DW$301, DW_AT_type(*DW$T$19)
    4998              DW$T$70 .dwtag  DW_TAG_const_type
    4999                      .dwattr DW$T$70, DW_AT_type(*DW$301)
    5000              DW$T$11 .dwtag  DW_TAG_base_type, DW_AT_name("unsigned int")
    5001                      .dwattr DW$T$11, DW_AT_encoding(DW_ATE_unsigned)
    5002                      .dwattr DW$T$11, DW_AT_byte_size(0x01)
    5003              DW$T$24 .dwtag  DW_TAG_typedef, DW_AT_name("OS_STK"), DW_AT_type(*DW$T$11)
    5004                      .dwattr DW$T$24, DW_AT_language(DW_LANG_C)
    5005              DW$T$13 .dwtag  DW_TAG_base_type, DW_AT_name("unsigned long")
    5006                      .dwattr DW$T$13, DW_AT_encoding(DW_ATE_unsigned)
    5007                      .dwattr DW$T$13, DW_AT_byte_size(0x02)
    5008              DW$T$27 .dwtag  DW_TAG_typedef, DW_AT_name("OS_EVENT"), DW_AT_type(*DW$T$23)
    5009                      .dwattr DW$T$27, DW_AT_language(DW_LANG_C)
    5010              DW$T$37 .dwtag  DW_TAG_typedef, DW_AT_name("OS_TCB"), DW_AT_type(*DW$T$29)
    5011                      .dwattr DW$T$37, DW_AT_language(DW_LANG_C)
    5012              DW$T$85 .dwtag  DW_TAG_typedef, DW_AT_name("OS_Q"), DW_AT_type(*DW$T$32)
    5013                      .dwattr DW$T$85, DW_AT_language(DW_LANG_C)
    5014              
    5015              DW$T$23 .dwtag  DW_TAG_structure_type
    5016                      .dwattr DW$T$23, DW_AT_name("os_event")
    5017                      .dwattr DW$T$23, DW_AT_byte_size(0x1e)
    5018              DW$302  .dwtag  DW_TAG_member, DW_AT_type(*DW$T$19)
    5019                      .dwattr DW$302, DW_AT_name("OSEventType"), DW_AT_symbol_name("_OSEventType")
    5020                      .dwattr DW$302, DW_AT_data_member_location[DW_OP_plus_uconst 0x0]
    5021                      .dwattr DW$302, DW_AT_accessibility(DW_ACCESS_public)
    5022              DW$303  .dwtag  DW_TAG_member, DW_AT_type(*DW$T$3)
    5023                      .dwattr DW$303, DW_AT_name("OSEventPtr"), DW_AT_symbol_name("_OSEventPtr")
    5024                      .dwattr DW$303, DW_AT_data_member_location[DW_OP_plus_uconst 0x2]
    5025                      .dwattr DW$303, DW_AT_accessibility(DW_ACCESS_public)
    5026              DW$304  .dwtag  DW_TAG_member, DW_AT_type(*DW$T$20)
    5027                      .dwattr DW$304, DW_AT_name("OSEventCnt"), DW_AT_symbol_name("_OSEventCnt")
    5028                      .dwattr DW$304, DW_AT_data_member_location[DW_OP_plus_uconst 0x4]
    5029                      .dwattr DW$304, DW_AT_accessibility(DW_ACCESS_public)
    5030              DW$305  .dwtag  DW_TAG_member, DW_AT_type(*DW$T$19)
    5031                      .dwattr DW$305, DW_AT_name("OSEventGrp"), DW_AT_symbol_name("_OSEventGrp")
    5032                      .dwattr DW$305, DW_AT_data_member_location[DW_OP_plus_uconst 0x5]
    5033                      .dwattr DW$305, DW_AT_accessibility(DW_ACCESS_public)
    5034              DW$306  .dwtag  DW_TAG_member, DW_AT_type(*DW$T$21)
    5035                      .dwattr DW$306, DW_AT_name("OSEventTbl"), DW_AT_symbol_name("_OSEventTbl")
    5036                      .dwattr DW$306, DW_AT_data_member_location[DW_OP_plus_uconst 0x6]
    5037                      .dwattr DW$306, DW_AT_accessibility(DW_ACCESS_public)
    5038              DW$307  .dwtag  DW_TAG_member, DW_AT_type(*DW$T$22)
    5039                      .dwattr DW$307, DW_AT_name("OSEventName"), DW_AT_symbol_name("_OSEventName")
    5040                      .dwattr DW$307, DW_AT_data_member_location[DW_OP_plus_uconst 0xe]
    5041                      .dwattr DW$307, DW_AT_accessibility(DW_ACCESS_public)
    5042                      .dwendtag DW$T$23
    5043              
    5044              
    5045              DW$T$29 .dwtag  DW_TAG_structure_type
    5046                      .dwattr DW$T$29, DW_AT_name("os_tcb")
    5047                      .dwattr DW$T$29, DW_AT_byte_size(0x14)
    5048              DW$308  .dwtag  DW_TAG_member, DW_AT_type(*DW$T$25)
    5049                      .dwattr DW$308, DW_AT_name("OSTCBStkPtr"), DW_AT_symbol_name("_OSTCBStkPtr")
    5050                      .dwattr DW$308, DW_AT_data_member_location[DW_OP_plus_uconst 0x0]
    5051                      .dwattr DW$308, DW_AT_accessibility(DW_ACCESS_public)
TMS320C2000 COFF Assembler PC v4.1.3 Thu Jul 15 08:50:48 2010

Tools Copyright (c) 1996-2006 Texas Instruments Incorporated
C:\DOCUME~1\ADMINI~1\LOCALS~1\Temp\TI6202                            PAGE   96

    5052              DW$309  .dwtag  DW_TAG_member, DW_AT_type(*DW$T$26)
    5053                      .dwattr DW$309, DW_AT_name("OSTCBNext"), DW_AT_symbol_name("_OSTCBNext")
    5054                      .dwattr DW$309, DW_AT_data_member_location[DW_OP_plus_uconst 0x2]
    5055                      .dwattr DW$309, DW_AT_accessibility(DW_ACCESS_public)
    5056              DW$310  .dwtag  DW_TAG_member, DW_AT_type(*DW$T$26)
    5057                      .dwattr DW$310, DW_AT_name("OSTCBPrev"), DW_AT_symbol_name("_OSTCBPrev")
    5058                      .dwattr DW$310, DW_AT_data_member_location[DW_OP_plus_uconst 0x4]
    5059                      .dwattr DW$310, DW_AT_accessibility(DW_ACCESS_public)
    5060              DW$311  .dwtag  DW_TAG_member, DW_AT_type(*DW$T$28)
    5061                      .dwattr DW$311, DW_AT_name("OSTCBEventPtr"), DW_AT_symbol_name("_OSTCBEventPtr")
    5062                      .dwattr DW$311, DW_AT_data_member_location[DW_OP_plus_uconst 0x6]
    5063                      .dwattr DW$311, DW_AT_accessibility(DW_ACCESS_public)
    5064              DW$312  .dwtag  DW_TAG_member, DW_AT_type(*DW$T$3)
    5065                      .dwattr DW$312, DW_AT_name("OSTCBMsg"), DW_AT_symbol_name("_OSTCBMsg")
    5066                      .dwattr DW$312, DW_AT_data_member_location[DW_OP_plus_uconst 0x8]
    5067                      .dwattr DW$312, DW_AT_accessibility(DW_ACCESS_public)
    5068              DW$313  .dwtag  DW_TAG_member, DW_AT_type(*DW$T$20)
    5069                      .dwattr DW$313, DW_AT_name("OSTCBDly"), DW_AT_symbol_name("_OSTCBDly")
    5070                      .dwattr DW$313, DW_AT_data_member_location[DW_OP_plus_uconst 0xa]
    5071                      .dwattr DW$313, DW_AT_accessibility(DW_ACCESS_public)
    5072              DW$314  .dwtag  DW_TAG_member, DW_AT_type(*DW$T$19)
    5073                      .dwattr DW$314, DW_AT_name("OSTCBStat"), DW_AT_symbol_name("_OSTCBStat")
    5074                      .dwattr DW$314, DW_AT_data_member_location[DW_OP_plus_uconst 0xb]
    5075                      .dwattr DW$314, DW_AT_accessibility(DW_ACCESS_public)
    5076              DW$315  .dwtag  DW_TAG_member, DW_AT_type(*DW$T$19)
    5077                      .dwattr DW$315, DW_AT_name("OSTCBStatPend"), DW_AT_symbol_name("_OSTCBStatPend")
    5078                      .dwattr DW$315, DW_AT_data_member_location[DW_OP_plus_uconst 0xc]
    5079                      .dwattr DW$315, DW_AT_accessibility(DW_ACCESS_public)
    5080              DW$316  .dwtag  DW_TAG_member, DW_AT_type(*DW$T$19)
    5081                      .dwattr DW$316, DW_AT_name("OSTCBPrio"), DW_AT_symbol_name("_OSTCBPrio")
    5082                      .dwattr DW$316, DW_AT_data_member_location[DW_OP_plus_uconst 0xd]
    5083                      .dwattr DW$316, DW_AT_accessibility(DW_ACCESS_public)
    5084              DW$317  .dwtag  DW_TAG_member, DW_AT_type(*DW$T$19)
    5085                      .dwattr DW$317, DW_AT_name("OSTCBX"), DW_AT_symbol_name("_OSTCBX")
    5086                      .dwattr DW$317, DW_AT_data_member_location[DW_OP_plus_uconst 0xe]
    5087                      .dwattr DW$317, DW_AT_accessibility(DW_ACCESS_public)
    5088              DW$318  .dwtag  DW_TAG_member, DW_AT_type(*DW$T$19)
    5089                      .dwattr DW$318, DW_AT_name("OSTCBY"), DW_AT_symbol_name("_OSTCBY")
    5090                      .dwattr DW$318, DW_AT_data_member_location[DW_OP_plus_uconst 0xf]
    5091                      .dwattr DW$318, DW_AT_accessibility(DW_ACCESS_public)
    5092              DW$319  .dwtag  DW_TAG_member, DW_AT_type(*DW$T$19)
    5093                      .dwattr DW$319, DW_AT_name("OSTCBBitX"), DW_AT_symbol_name("_OSTCBBitX")
    5094                      .dwattr DW$319, DW_AT_data_member_location[DW_OP_plus_uconst 0x10]
    5095                      .dwattr DW$319, DW_AT_accessibility(DW_ACCESS_public)
    5096              DW$320  .dwtag  DW_TAG_member, DW_AT_type(*DW$T$19)
    5097                      .dwattr DW$320, DW_AT_name("OSTCBBitY"), DW_AT_symbol_name("_OSTCBBitY")
    5098                      .dwattr DW$320, DW_AT_data_member_location[DW_OP_plus_uconst 0x11]
    5099                      .dwattr DW$320, DW_AT_accessibility(DW_ACCESS_public)
    5100              DW$321  .dwtag  DW_TAG_member, DW_AT_type(*DW$T$19)
    5101                      .dwattr DW$321, DW_AT_name("OSTCBDelReq"), DW_AT_symbol_name("_OSTCBDelReq")
    5102                      .dwattr DW$321, DW_AT_data_member_location[DW_OP_plus_uconst 0x12]
    5103                      .dwattr DW$321, DW_AT_accessibility(DW_ACCESS_public)
    5104                      .dwendtag DW$T$29
    5105              
    5106              DW$T$26 .dwtag  DW_TAG_pointer_type, DW_AT_type(*DW$T$29)
TMS320C2000 COFF Assembler PC v4.1.3 Thu Jul 15 08:50:48 2010

Tools Copyright (c) 1996-2006 Texas Instruments Incorporated
C:\DOCUME~1\ADMINI~1\LOCALS~1\Temp\TI6202                            PAGE   97

    5107                      .dwattr DW$T$26, DW_AT_address_class(0x16)
    5108              
    5109              DW$T$32 .dwtag  DW_TAG_structure_type
    5110                      .dwattr DW$T$32, DW_AT_name("os_q")
    5111                      .dwattr DW$T$32, DW_AT_byte_size(0x0c)
    5112              DW$322  .dwtag  DW_TAG_member, DW_AT_type(*DW$T$30)
    5113                      .dwattr DW$322, DW_AT_name("OSQPtr"), DW_AT_symbol_name("_OSQPtr")
    5114                      .dwattr DW$322, DW_AT_data_member_location[DW_OP_plus_uconst 0x0]
    5115                      .dwattr DW$322, DW_AT_accessibility(DW_ACCESS_public)
    5116              DW$323  .dwtag  DW_TAG_member, DW_AT_type(*DW$T$31)
    5117                      .dwattr DW$323, DW_AT_name("OSQStart"), DW_AT_symbol_name("_OSQStart")
    5118                      .dwattr DW$323, DW_AT_data_member_location[DW_OP_plus_uconst 0x2]
    5119                      .dwattr DW$323, DW_AT_accessibility(DW_ACCESS_public)
    5120              DW$324  .dwtag  DW_TAG_member, DW_AT_type(*DW$T$31)
    5121                      .dwattr DW$324, DW_AT_name("OSQEnd"), DW_AT_symbol_name("_OSQEnd")
    5122                      .dwattr DW$324, DW_AT_data_member_location[DW_OP_plus_uconst 0x4]
    5123                      .dwattr DW$324, DW_AT_accessibility(DW_ACCESS_public)
    5124              DW$325  .dwtag  DW_TAG_member, DW_AT_type(*DW$T$31)
    5125                      .dwattr DW$325, DW_AT_name("OSQIn"), DW_AT_symbol_name("_OSQIn")
    5126                      .dwattr DW$325, DW_AT_data_member_location[DW_OP_plus_uconst 0x6]
    5127                      .dwattr DW$325, DW_AT_accessibility(DW_ACCESS_public)
    5128              DW$326  .dwtag  DW_TAG_member, DW_AT_type(*DW$T$31)
    5129                      .dwattr DW$326, DW_AT_name("OSQOut"), DW_AT_symbol_name("_OSQOut")
    5130                      .dwattr DW$326, DW_AT_data_member_location[DW_OP_plus_uconst 0x8]
    5131                      .dwattr DW$326, DW_AT_accessibility(DW_ACCESS_public)
    5132              DW$327  .dwtag  DW_TAG_member, DW_AT_type(*DW$T$20)
    5133                      .dwattr DW$327, DW_AT_name("OSQSize"), DW_AT_symbol_name("_OSQSize")
    5134                      .dwattr DW$327, DW_AT_data_member_location[DW_OP_plus_uconst 0xa]
    5135                      .dwattr DW$327, DW_AT_accessibility(DW_ACCESS_public)
    5136              DW$328  .dwtag  DW_TAG_member, DW_AT_type(*DW$T$20)
    5137                      .dwattr DW$328, DW_AT_name("OSQEntries"), DW_AT_symbol_name("_OSQEntries")
    5138                      .dwattr DW$328, DW_AT_data_member_location[DW_OP_plus_uconst 0xb]
    5139                      .dwattr DW$328, DW_AT_accessibility(DW_ACCESS_public)
    5140                      .dwendtag DW$T$32
    5141              
    5142              DW$T$30 .dwtag  DW_TAG_pointer_type, DW_AT_type(*DW$T$32)
    5143                      .dwattr DW$T$30, DW_AT_address_class(0x16)
    5144              
    5145              DW$T$22 .dwtag  DW_TAG_array_type, DW_AT_type(*DW$T$19)
    5146                      .dwattr DW$T$22, DW_AT_language(DW_LANG_C)
    5147                      .dwattr DW$T$22, DW_AT_byte_size(0x10)
    5148              DW$329  .dwtag  DW_TAG_subrange_type
    5149                      .dwattr DW$329, DW_AT_upper_bound(0x0f)
    5150                      .dwendtag DW$T$22
    5151              
    5152              
    5153                      .dwattr DW$39, DW_AT_external(0x01)
    5154                      .dwattr DW$39, DW_AT_type(*DW$T$19)
    5155                      .dwattr DW$46, DW_AT_external(0x01)
    5156                      .dwattr DW$53, DW_AT_external(0x01)
    5157                      .dwattr DW$54, DW_AT_external(0x01)
    5158                      .dwattr DW$55, DW_AT_external(0x01)
    5159                      .dwattr DW$172, DW_AT_external(0x01)
    5160                      .dwattr DW$172, DW_AT_type(*DW$T$28)
    5161                      .dwattr DW$179, DW_AT_external(0x01)
TMS320C2000 COFF Assembler PC v4.1.3 Thu Jul 15 08:50:48 2010

Tools Copyright (c) 1996-2006 Texas Instruments Incorporated
C:\DOCUME~1\ADMINI~1\LOCALS~1\Temp\TI6202                            PAGE   98

    5162                      .dwattr DW$179, DW_AT_type(*DW$T$19)
    5163                      .dwattr DW$183, DW_AT_external(0x01)
    5164                      .dwattr DW$183, DW_AT_type(*DW$T$3)
    5165                      .dwattr DW$192, DW_AT_external(0x01)
    5166                      .dwattr DW$192, DW_AT_type(*DW$T$19)
    5167                      .dwattr DW$204, DW_AT_external(0x01)
    5168                      .dwattr DW$204, DW_AT_type(*DW$T$28)
    5169                      .dwattr DW$208, DW_AT_external(0x01)
    5170                      .dwattr DW$215, DW_AT_external(0x01)
    5171                      .dwattr DW$215, DW_AT_type(*DW$T$19)
    5172                      .dwattr DW$56, DW_AT_external(0x01)
    5173                      .dwattr DW$218, DW_AT_external(0x01)
    5174                      .dwattr DW$218, DW_AT_type(*DW$T$19)
    5175                      .dwattr DW$228, DW_AT_external(0x01)
    5176                      .dwattr DW$228, DW_AT_type(*DW$T$19)
    5177                      .dwattr DW$232, DW_AT_external(0x01)
    5178                      .dwattr DW$232, DW_AT_type(*DW$T$19)
    5179                      .dwattr DW$237, DW_AT_external(0x01)
    5180                      .dwattr DW$57, DW_AT_external(0x01)
    5181                      .dwattr DW$69, DW_AT_external(0x01)
    5182                      .dwattr DW$69, DW_AT_type(*DW$T$20)
    5183                      .dwattr DW$70, DW_AT_external(0x01)
    5184                      .dwattr DW$71, DW_AT_external(0x01)
    5185                      .dwattr DW$71, DW_AT_type(*DW$T$19)
    5186                      .dwattr DW$88, DW_AT_external(0x01)
    5187                      .dwattr DW$84, DW_AT_external(0x01)
    5188                      .dwattr DW$94, DW_AT_external(0x01)
    5189                      .dwattr DW$120, DW_AT_external(0x01)
    5190                      .dwattr DW$127, DW_AT_external(0x01)
    5191                      .dwattr DW$198, DW_AT_external(0x01)
    5192                      .dwattr DW$136, DW_AT_external(0x01)
    5193                      .dwattr DW$139, DW_AT_external(0x01)
    5194                      .dwattr DW$139, DW_AT_type(*DW$T$19)
    5195                      .dwattr DW$148, DW_AT_external(0x01)
    5196                      .dwattr DW$148, DW_AT_type(*DW$T$19)
    5197                      .dwattr DW$160, DW_AT_external(0x01)
    5198                      .dwattr DW$160, DW_AT_type(*DW$T$19)
    5199                      .dwattr DW$155, DW_AT_external(0x01)
    5200                      .dwattr DW$CU, DW_AT_language(DW_LANG_C)
    5201              
    5202              ;***************************************************************
    5203              ;* DWARF CIE ENTRIES                                           *
    5204              ;***************************************************************
    5205              
    5206              DW$CIE  .dwcie 1, 40
    5207                      .dwcfa  0x0c, 20, 0
    5208                      .dwcfa  0x07, 0
    5209                      .dwcfa  0x07, 1
    5210                      .dwcfa  0x07, 2
    5211                      .dwcfa  0x07, 3
    5212                      .dwcfa  0x07, 4
    5213                      .dwcfa  0x07, 5
    5214                      .dwcfa  0x08, 6
    5215                      .dwcfa  0x08, 7
    5216                      .dwcfa  0x08, 8
TMS320C2000 COFF Assembler PC v4.1.3 Thu Jul 15 08:50:48 2010

Tools Copyright (c) 1996-2006 Texas Instruments Incorporated
C:\DOCUME~1\ADMINI~1\LOCALS~1\Temp\TI6202                            PAGE   99

    5217                      .dwcfa  0x08, 9
    5218                      .dwcfa  0x08, 10
    5219                      .dwcfa  0x08, 11
    5220                      .dwcfa  0x07, 12
    5221                      .dwcfa  0x07, 13
    5222                      .dwcfa  0x07, 14
    5223                      .dwcfa  0x07, 15
    5224                      .dwcfa  0x07, 16
    5225                      .dwcfa  0x07, 17
    5226                      .dwcfa  0x07, 18
    5227                      .dwcfa  0x07, 19
    5228                      .dwcfa  0x07, 20
    5229                      .dwcfa  0x07, 21
    5230                      .dwcfa  0x07, 22
    5231                      .dwcfa  0x07, 23
    5232                      .dwcfa  0x07, 24
    5233                      .dwcfa  0x07, 25
    5234                      .dwcfa  0x07, 26
    5235                      .dwcfa  0x08, 27
    5236                      .dwcfa  0x07, 28
    5237                      .dwcfa  0x07, 29
    5238                      .dwcfa  0x07, 30
    5239                      .dwcfa  0x07, 31
    5240                      .dwcfa  0x07, 32
    5241                      .dwcfa  0x07, 33
    5242                      .dwcfa  0x07, 34
    5243                      .dwcfa  0x07, 35
    5244                      .dwcfa  0x07, 36
    5245                      .dwcfa  0x07, 37
    5246                      .dwcfa  0x07, 38
    5247                      .dwcfa  0x07, 39
    5248                      .dwcfa  0x07, 40
    5249              
    5250              ;***************************************************************
    5251              ;* DWARF REGISTER MAP                                          *
    5252              ;***************************************************************
    5253              
    5254              DW$330  .dwtag  DW_TAG_assign_register, DW_AT_name("AL")
    5255                      .dwattr DW$330, DW_AT_location[DW_OP_reg0]
    5256              DW$331  .dwtag  DW_TAG_assign_register, DW_AT_name("AH")
    5257                      .dwattr DW$331, DW_AT_location[DW_OP_reg1]
    5258              DW$332  .dwtag  DW_TAG_assign_register, DW_AT_name("PL")
    5259                      .dwattr DW$332, DW_AT_location[DW_OP_reg2]
    5260              DW$333  .dwtag  DW_TAG_assign_register, DW_AT_name("PH")
    5261                      .dwattr DW$333, DW_AT_location[DW_OP_reg3]
    5262              DW$334  .dwtag  DW_TAG_assign_register, DW_AT_name("AR0")
    5263                      .dwattr DW$334, DW_AT_location[DW_OP_reg4]
    5264              DW$335  .dwtag  DW_TAG_assign_register, DW_AT_name("XAR0")
    5265                      .dwattr DW$335, DW_AT_location[DW_OP_reg5]
    5266              DW$336  .dwtag  DW_TAG_assign_register, DW_AT_name("AR1")
    5267                      .dwattr DW$336, DW_AT_location[DW_OP_reg6]
    5268              DW$337  .dwtag  DW_TAG_assign_register, DW_AT_name("XAR1")
    5269                      .dwattr DW$337, DW_AT_location[DW_OP_reg7]
    5270              DW$338  .dwtag  DW_TAG_assign_register, DW_AT_name("AR2")
    5271                      .dwattr DW$338, DW_AT_location[DW_OP_reg8]
TMS320C2000 COFF Assembler PC v4.1.3 Thu Jul 15 08:50:48 2010

Tools Copyright (c) 1996-2006 Texas Instruments Incorporated
C:\DOCUME~1\ADMINI~1\LOCALS~1\Temp\TI6202                            PAGE  100

    5272              DW$339  .dwtag  DW_TAG_assign_register, DW_AT_name("XAR2")
    5273                      .dwattr DW$339, DW_AT_location[DW_OP_reg9]
    5274              DW$340  .dwtag  DW_TAG_assign_register, DW_AT_name("AR3")
    5275                      .dwattr DW$340, DW_AT_location[DW_OP_reg10]
    5276              DW$341  .dwtag  DW_TAG_assign_register, DW_AT_name("XAR3")
    5277                      .dwattr DW$341, DW_AT_location[DW_OP_reg11]
    5278              DW$342  .dwtag  DW_TAG_assign_register, DW_AT_name("AR4")
    5279                      .dwattr DW$342, DW_AT_location[DW_OP_reg12]
    5280              DW$343  .dwtag  DW_TAG_assign_register, DW_AT_name("XAR4")
    5281                      .dwattr DW$343, DW_AT_location[DW_OP_reg13]
    5282              DW$344  .dwtag  DW_TAG_assign_register, DW_AT_name("AR5")
    5283                      .dwattr DW$344, DW_AT_location[DW_OP_reg14]
    5284              DW$345  .dwtag  DW_TAG_assign_register, DW_AT_name("XAR5")
    5285                      .dwattr DW$345, DW_AT_location[DW_OP_reg15]
    5286              DW$346  .dwtag  DW_TAG_assign_register, DW_AT_name("AR6")
    5287                      .dwattr DW$346, DW_AT_location[DW_OP_reg16]
    5288              DW$347  .dwtag  DW_TAG_assign_register, DW_AT_name("XAR6")
    5289                      .dwattr DW$347, DW_AT_location[DW_OP_reg17]
    5290              DW$348  .dwtag  DW_TAG_assign_register, DW_AT_name("AR7")
    5291                      .dwattr DW$348, DW_AT_location[DW_OP_reg18]
    5292              DW$349  .dwtag  DW_TAG_assign_register, DW_AT_name("XAR7")
    5293                      .dwattr DW$349, DW_AT_location[DW_OP_reg19]
    5294              DW$350  .dwtag  DW_TAG_assign_register, DW_AT_name("SP")
    5295                      .dwattr DW$350, DW_AT_location[DW_OP_reg20]
    5296              DW$351  .dwtag  DW_TAG_assign_register, DW_AT_name("XT")
    5297                      .dwattr DW$351, DW_AT_location[DW_OP_reg21]
    5298              DW$352  .dwtag  DW_TAG_assign_register, DW_AT_name("T")
    5299                      .dwattr DW$352, DW_AT_location[DW_OP_reg22]
    5300              DW$353  .dwtag  DW_TAG_assign_register, DW_AT_name("ST0")
    5301                      .dwattr DW$353, DW_AT_location[DW_OP_reg23]
    5302              DW$354  .dwtag  DW_TAG_assign_register, DW_AT_name("ST1")
    5303                      .dwattr DW$354, DW_AT_location[DW_OP_reg24]
    5304              DW$355  .dwtag  DW_TAG_assign_register, DW_AT_name("PC")
    5305                      .dwattr DW$355, DW_AT_location[DW_OP_reg25]
    5306              DW$356  .dwtag  DW_TAG_assign_register, DW_AT_name("RPC")
    5307                      .dwattr DW$356, DW_AT_location[DW_OP_reg26]
    5308              DW$357  .dwtag  DW_TAG_assign_register, DW_AT_name("FP")
    5309                      .dwattr DW$357, DW_AT_location[DW_OP_reg27]
    5310              DW$358  .dwtag  DW_TAG_assign_register, DW_AT_name("DP")
    5311                      .dwattr DW$358, DW_AT_location[DW_OP_reg28]
    5312              DW$359  .dwtag  DW_TAG_assign_register, DW_AT_name("SXM")
    5313                      .dwattr DW$359, DW_AT_location[DW_OP_reg29]
    5314              DW$360  .dwtag  DW_TAG_assign_register, DW_AT_name("PM")
    5315                      .dwattr DW$360, DW_AT_location[DW_OP_reg30]
    5316              DW$361  .dwtag  DW_TAG_assign_register, DW_AT_name("OVM")
    5317                      .dwattr DW$361, DW_AT_location[DW_OP_reg31]
    5318              DW$362  .dwtag  DW_TAG_assign_register, DW_AT_name("PAGE0")
    5319                      .dwattr DW$362, DW_AT_location[DW_OP_regx 0x20]
    5320              DW$363  .dwtag  DW_TAG_assign_register, DW_AT_name("AMODE")
    5321                      .dwattr DW$363, DW_AT_location[DW_OP_regx 0x21]
    5322              DW$364  .dwtag  DW_TAG_assign_register, DW_AT_name("IFR")
    5323                      .dwattr DW$364, DW_AT_location[DW_OP_regx 0x22]
    5324              DW$365  .dwtag  DW_TAG_assign_register, DW_AT_name("IER")
    5325                      .dwattr DW$365, DW_AT_location[DW_OP_regx 0x23]
    5326              DW$366  .dwtag  DW_TAG_assign_register, DW_AT_name("IER")
TMS320C2000 COFF Assembler PC v4.1.3 Thu Jul 15 08:50:48 2010

Tools Copyright (c) 1996-2006 Texas Instruments Incorporated
C:\DOCUME~1\ADMINI~1\LOCALS~1\Temp\TI6202                            PAGE  101

    5327                      .dwattr DW$366, DW_AT_location[DW_OP_regx 0x24]
    5328              DW$367  .dwtag  DW_TAG_assign_register, DW_AT_name("PSEUDO")
    5329                      .dwattr DW$367, DW_AT_location[DW_OP_regx 0x25]
    5330              DW$368  .dwtag  DW_TAG_assign_register, DW_AT_name("PSEUDOH")
    5331                      .dwattr DW$368, DW_AT_location[DW_OP_regx 0x26]
    5332              DW$369  .dwtag  DW_TAG_assign_register, DW_AT_name("VOL")
    5333                      .dwattr DW$369, DW_AT_location[DW_OP_regx 0x27]
    5334              DW$370  .dwtag  DW_TAG_assign_register, DW_AT_name("CIE_RETA")
    5335                      .dwattr DW$370, DW_AT_location[DW_OP_regx 0x28]
    5336                      .dwendtag DW$CU
    5337              

No Assembly Errors, No Assembly Warnings
