TMS320C2000 COFF Assembler PC v4.1.3 Mon Dec 03 13:50:31 2012

Tools Copyright (c) 1996-2006 Texas Instruments Incorporated
C:\DOCUME~1\ADMINI~1\LOCALS~1\Temp\TI9922                            PAGE    1

       1              ;***************************************************************
       2              ;* TMS320C2000 C/C++ Codegen                         PC v4.1.3 *
       3              ;* Date/Time created: Mon Dec 03 13:50:31 2012                 *
       4              ;***************************************************************
       5                      .compiler_opts --mem_model:code=flat --mem_model:data=large --silicon_version=28 
       6        0002  FP      .set    XAR2
       7              
       8              DW$CU   .dwtag  DW_TAG_compile_unit
       9                      .dwattr DW$CU, DW_AT_name("GUI_lcd_driver.c")
      10                      .dwattr DW$CU, DW_AT_producer("TMS320C2000 C/C++ Codegen PC v4.1.3 Copyright (c) 1996-2006 Texas Inst
      11                      .dwattr DW$CU, DW_AT_stmt_list(0x00)
      12                      .dwattr DW$CU, DW_AT_TI_VERSION(0x01)
      13              
      14              DW$1    .dwtag  DW_TAG_subprogram, DW_AT_name("global_round_off_float"), DW_AT_symbol_name("_global_round_off
      15                      .dwattr DW$1, DW_AT_type(*DW$T$16)
      16                      .dwattr DW$1, DW_AT_declaration(0x01)
      17                      .dwattr DW$1, DW_AT_external(0x01)
      18              DW$2    .dwtag  DW_TAG_formal_parameter, DW_AT_type(*DW$T$16)
      19                      .dwendtag DW$1
      20              
      21              DW$3    .dwtag  DW_TAG_variable, DW_AT_name("GpioDataRegs"), DW_AT_symbol_name("_GpioDataRegs")
      22                      .dwattr DW$3, DW_AT_type(*DW$T$173)
      23                      .dwattr DW$3, DW_AT_declaration(0x01)
      24                      .dwattr DW$3, DW_AT_external(0x01)
      25              DW$4    .dwtag  DW_TAG_variable, DW_AT_name("GpioMuxRegs"), DW_AT_symbol_name("_GpioMuxRegs")
      26                      .dwattr DW$4, DW_AT_type(*DW$T$168)
      27                      .dwattr DW$4, DW_AT_declaration(0x01)
      28                      .dwattr DW$4, DW_AT_external(0x01)
      29              DW$5    .dwtag  DW_TAG_variable, DW_AT_name("EvbRegs"), DW_AT_symbol_name("_EvbRegs")
      30                      .dwattr DW$5, DW_AT_type(*DW$T$184)
      31                      .dwattr DW$5, DW_AT_declaration(0x01)
      32                      .dwattr DW$5, DW_AT_external(0x01)
      33              ;       C:\CCStudio_v3.3\C2000\cgtools\bin\ac2000.exe -@C:\DOCUME~1\ADMINI~1\LOCALS~1\Temp\TI9924 
      34 00000000               .sect   ".text"
      35              
      36              DW$6    .dwtag  DW_TAG_subprogram, DW_AT_name("lcd_driver_write_cmd"), DW_AT_symbol_name("_lcd_driver_write_c
      37                      .dwattr DW$6, DW_AT_low_pc(_lcd_driver_write_cmd)
      38                      .dwattr DW$6, DW_AT_high_pc(0x00)
      39                      .dwattr DW$6, DW_AT_begin_file("GUI_lcd_driver.c")
      40                      .dwattr DW$6, DW_AT_begin_line(0x1c)
      41                      .dwattr DW$6, DW_AT_begin_column(0x0d)
      42                      .dwpsn  "GUI_lcd_driver.c",29,1
      43              
      44                      .dwfde DW$CIE
      45              
      46              ;***************************************************************
      47              ;* FNAME: _lcd_driver_write_cmd         FR SIZE:   2           *
      48              ;*                                                             *
      49              ;* FUNCTION ENVIRONMENT                                        *
      50              ;*                                                             *
      51              ;* FUNCTION PROPERTIES                                         *
      52              ;*                            0 Parameter,  1 Auto,  0 SOE     *
      53              ;***************************************************************
      54              
      55              _lcd_driver_write_cmd:
TMS320C2000 COFF Assembler PC v4.1.3 Mon Dec 03 13:50:31 2012

Tools Copyright (c) 1996-2006 Texas Instruments Incorporated
C:\DOCUME~1\ADMINI~1\LOCALS~1\Temp\TI9922                            PAGE    2

      56                      .dwcfa  0x1d, -2
      57                      .dwcfa  0x1c, 26, 0
      58                      .dwcfa  0x09, 40, 26
      59 00000000 FE02          ADDB      SP,#2
      60                      .dwcfa  0x1d, -4
      61              ;* AL    assigned to _temp
      62              DW$7    .dwtag  DW_TAG_formal_parameter, DW_AT_name("temp"), DW_AT_symbol_name("_temp")
      63                      .dwattr DW$7, DW_AT_type(*DW$T$11)
      64                      .dwattr DW$7, DW_AT_location[DW_OP_reg0]
      65              DW$8    .dwtag  DW_TAG_variable, DW_AT_name("temp"), DW_AT_symbol_name("_temp")
      66                      .dwattr DW$8, DW_AT_type(*DW$T$11)
      67                      .dwattr DW$8, DW_AT_location[DW_OP_breg20 -1]
      68 00000001 9641          MOV       *-SP[1],AL            ; |29| 
      69                      .dwpsn  "GUI_lcd_driver.c",30,2
      70 00000002 9A01          MOVB      AL,#1                 ; |30| 
      71 00000003 F4A9          MOV       *(0:0x2101),AL        ; |30| 
         00000004 2101 
      72                      .dwpsn  "GUI_lcd_driver.c",31,2
      73 00000005 F441          MOV       *(0:0x2100),*-SP[1]   ; |31| 
         00000006 2100 
      74                      .dwpsn  "GUI_lcd_driver.c",32,2
      75 00000007 9A00          MOVB      AL,#0
      76 00000008 F4A9          MOV       *(0:0x2101),AL        ; |32| 
         00000009 2101 
      77                      .dwpsn  "GUI_lcd_driver.c",33,2
      78                      .dwpsn  "GUI_lcd_driver.c",34,1
      79 0000000a FE82          SUBB      SP,#2
      80                      .dwcfa  0x1d, -2
      81 0000000b 0006          LRETR
      82                      ; return occurs
      83                      .dwattr DW$6, DW_AT_end_file("GUI_lcd_driver.c")
      84                      .dwattr DW$6, DW_AT_end_line(0x22)
      85                      .dwattr DW$6, DW_AT_end_column(0x01)
      86                      .dwendentry
      87                      .dwendtag DW$6
      88              
      89 0000000c               .sect   ".text"
      90              
      91              DW$9    .dwtag  DW_TAG_subprogram, DW_AT_name("lcd_driver_write_data"), DW_AT_symbol_name("_lcd_driver_write_
      92                      .dwattr DW$9, DW_AT_low_pc(_lcd_driver_write_data)
      93                      .dwattr DW$9, DW_AT_high_pc(0x00)
      94                      .dwattr DW$9, DW_AT_begin_file("GUI_lcd_driver.c")
      95                      .dwattr DW$9, DW_AT_begin_line(0x29)
      96                      .dwattr DW$9, DW_AT_begin_column(0x0d)
      97                      .dwpsn  "GUI_lcd_driver.c",42,1
      98              
      99                      .dwfde DW$CIE
     100              
     101              ;***************************************************************
     102              ;* FNAME: _lcd_driver_write_data        FR SIZE:   2           *
     103              ;*                                                             *
     104              ;* FUNCTION ENVIRONMENT                                        *
     105              ;*                                                             *
     106              ;* FUNCTION PROPERTIES                                         *
     107              ;*                            0 Parameter,  1 Auto,  0 SOE     *
TMS320C2000 COFF Assembler PC v4.1.3 Mon Dec 03 13:50:31 2012

Tools Copyright (c) 1996-2006 Texas Instruments Incorporated
C:\DOCUME~1\ADMINI~1\LOCALS~1\Temp\TI9922                            PAGE    3

     108              ;***************************************************************
     109              
     110              _lcd_driver_write_data:
     111                      .dwcfa  0x1d, -2
     112                      .dwcfa  0x1c, 26, 0
     113                      .dwcfa  0x09, 40, 26
     114 0000000c FE02          ADDB      SP,#2
     115                      .dwcfa  0x1d, -4
     116              ;* AL    assigned to _temp
     117              DW$10   .dwtag  DW_TAG_formal_parameter, DW_AT_name("temp"), DW_AT_symbol_name("_temp")
     118                      .dwattr DW$10, DW_AT_type(*DW$T$11)
     119                      .dwattr DW$10, DW_AT_location[DW_OP_reg0]
     120              DW$11   .dwtag  DW_TAG_variable, DW_AT_name("temp"), DW_AT_symbol_name("_temp")
     121                      .dwattr DW$11, DW_AT_type(*DW$T$11)
     122                      .dwattr DW$11, DW_AT_location[DW_OP_breg20 -1]
     123 0000000d 9641          MOV       *-SP[1],AL            ; |42| 
     124                      .dwpsn  "GUI_lcd_driver.c",43,2
     125 0000000e 9A00          MOVB      AL,#0
     126 0000000f F4A9          MOV       *(0:0x2101),AL        ; |43| 
         00000010 2101 
     127                      .dwpsn  "GUI_lcd_driver.c",44,2
     128 00000011 F441          MOV       *(0:0x2100),*-SP[1]   ; |44| 
         00000012 2100 
     129                      .dwpsn  "GUI_lcd_driver.c",45,2
     130 00000013 F4A9          MOV       *(0:0x2101),AL        ; |45| 
         00000014 2101 
     131                      .dwpsn  "GUI_lcd_driver.c",46,2
     132                      .dwpsn  "GUI_lcd_driver.c",47,1
     133 00000015 FE82          SUBB      SP,#2
     134                      .dwcfa  0x1d, -2
     135 00000016 0006          LRETR
     136                      ; return occurs
     137                      .dwattr DW$9, DW_AT_end_file("GUI_lcd_driver.c")
     138                      .dwattr DW$9, DW_AT_end_line(0x2f)
     139                      .dwattr DW$9, DW_AT_end_column(0x01)
     140                      .dwendentry
     141                      .dwendtag DW$9
     142              
     143 00000017               .sect   ".text"
     144              
     145              DW$12   .dwtag  DW_TAG_subprogram, DW_AT_name("lcd_driver_write_cmd_data"), DW_AT_symbol_name("_lcd_driver_wr
     146                      .dwattr DW$12, DW_AT_low_pc(_lcd_driver_write_cmd_data)
     147                      .dwattr DW$12, DW_AT_high_pc(0x00)
     148                      .dwattr DW$12, DW_AT_begin_file("GUI_lcd_driver.c")
     149                      .dwattr DW$12, DW_AT_begin_line(0x36)
     150                      .dwattr DW$12, DW_AT_begin_column(0x0d)
     151                      .dwpsn  "GUI_lcd_driver.c",55,1
     152              
     153                      .dwfde DW$CIE
     154              
     155              ;***************************************************************
     156              ;* FNAME: _lcd_driver_write_cmd_data    FR SIZE:   2           *
     157              ;*                                                             *
     158              ;* FUNCTION ENVIRONMENT                                        *
     159              ;*                                                             *
TMS320C2000 COFF Assembler PC v4.1.3 Mon Dec 03 13:50:31 2012

Tools Copyright (c) 1996-2006 Texas Instruments Incorporated
C:\DOCUME~1\ADMINI~1\LOCALS~1\Temp\TI9922                            PAGE    4

     160              ;* FUNCTION PROPERTIES                                         *
     161              ;*                            0 Parameter,  1 Auto,  0 SOE     *
     162              ;***************************************************************
     163              
     164              _lcd_driver_write_cmd_data:
     165                      .dwcfa  0x1d, -2
     166                      .dwcfa  0x1c, 26, 0
     167                      .dwcfa  0x09, 40, 26
     168 00000017 FE02          ADDB      SP,#2
     169                      .dwcfa  0x1d, -4
     170              ;* AL    assigned to _temp
     171              DW$13   .dwtag  DW_TAG_formal_parameter, DW_AT_name("temp"), DW_AT_symbol_name("_temp")
     172                      .dwattr DW$13, DW_AT_type(*DW$T$140)
     173                      .dwattr DW$13, DW_AT_location[DW_OP_reg0]
     174              DW$14   .dwtag  DW_TAG_variable, DW_AT_name("temp"), DW_AT_symbol_name("_temp")
     175                      .dwattr DW$14, DW_AT_type(*DW$T$140)
     176                      .dwattr DW$14, DW_AT_location[DW_OP_breg20 -1]
     177 00000018 9641          MOV       *-SP[1],AL            ; |55| 
     178                      .dwpsn  "GUI_lcd_driver.c",56,2
     179 00000019 9A00          MOVB      AL,#0
     180 0000001a F4A9          MOV       *(0:0x2101),AL        ; |56| 
         0000001b 2101 
     181                      .dwpsn  "GUI_lcd_driver.c",57,2
     182 0000001c F441          MOV       *(0:0x2100),*-SP[1]   ; |57| 
         0000001d 2100 
     183                      .dwpsn  "GUI_lcd_driver.c",58,2
     184 0000001e F4A9          MOV       *(0:0x2101),AL        ; |58| 
         0000001f 2101 
     185                      .dwpsn  "GUI_lcd_driver.c",59,2
     186                      .dwpsn  "GUI_lcd_driver.c",60,1
     187 00000020 FE82          SUBB      SP,#2
     188                      .dwcfa  0x1d, -2
     189 00000021 0006          LRETR
     190                      ; return occurs
     191                      .dwattr DW$12, DW_AT_end_file("GUI_lcd_driver.c")
     192                      .dwattr DW$12, DW_AT_end_line(0x3c)
     193                      .dwattr DW$12, DW_AT_end_column(0x01)
     194                      .dwendentry
     195                      .dwendtag DW$12
     196              
     197 00000022               .sect   ".text"
     198              
     199              DW$15   .dwtag  DW_TAG_subprogram, DW_AT_name("lcd_driver_read_data"), DW_AT_symbol_name("_lcd_driver_read_da
     200                      .dwattr DW$15, DW_AT_low_pc(_lcd_driver_read_data)
     201                      .dwattr DW$15, DW_AT_high_pc(0x00)
     202                      .dwattr DW$15, DW_AT_begin_file("GUI_lcd_driver.c")
     203                      .dwattr DW$15, DW_AT_begin_line(0x43)
     204                      .dwattr DW$15, DW_AT_begin_column(0x10)
     205                      .dwpsn  "GUI_lcd_driver.c",68,1
     206              
     207                      .dwfde DW$CIE
     208              
     209              ;***************************************************************
     210              ;* FNAME: _lcd_driver_read_data         FR SIZE:   2           *
     211              ;*                                                             *
TMS320C2000 COFF Assembler PC v4.1.3 Mon Dec 03 13:50:31 2012

Tools Copyright (c) 1996-2006 Texas Instruments Incorporated
C:\DOCUME~1\ADMINI~1\LOCALS~1\Temp\TI9922                            PAGE    5

     212              ;* FUNCTION ENVIRONMENT                                        *
     213              ;*                                                             *
     214              ;* FUNCTION PROPERTIES                                         *
     215              ;*                            0 Parameter,  1 Auto,  0 SOE     *
     216              ;***************************************************************
     217              
     218              _lcd_driver_read_data:
     219                      .dwcfa  0x1d, -2
     220                      .dwcfa  0x1c, 26, 0
     221                      .dwcfa  0x09, 40, 26
     222 00000022 FE02          ADDB      SP,#2
     223                      .dwcfa  0x1d, -4
     224              DW$16   .dwtag  DW_TAG_variable, DW_AT_name("ch"), DW_AT_symbol_name("_ch")
     225                      .dwattr DW$16, DW_AT_type(*DW$T$6)
     226                      .dwattr DW$16, DW_AT_location[DW_OP_breg20 -1]
     227                      .dwpsn  "GUI_lcd_driver.c",69,10
     228 00000023 2B41          MOV       *-SP[1],#0            ; |69| 
     229                      .dwpsn  "GUI_lcd_driver.c",70,2
     230 00000024 9A00          MOVB      AL,#0
     231 00000025 F4A9          MOV       *(0:0x2101),AL        ; |70| 
         00000026 2101 
     232                      .dwpsn  "GUI_lcd_driver.c",71,2
     233 00000027 7700          nop
     234 00000028 7700          nop
     235 00000029 7700          nop
     236 0000002a 7700          nop
     237 0000002b 7700          nop
     238 0000002c 7700          nop
     239 0000002d 7700          nop
     240 0000002e 7700          nop
     241                      .dwpsn  "GUI_lcd_driver.c",72,2
     242 0000002f F5A9          MOV       AL,*(0:0x2100)        ; |72| 
         00000030 2100 
     243 00000031 90FF          ANDB      AL,#0xff              ; |72| 
     244 00000032 9641          MOV       *-SP[1],AL            ; |72| 
     245                      .dwpsn  "GUI_lcd_driver.c",73,2
     246 00000033 7700          nop
     247 00000034 7700          nop
     248 00000035 7700          nop
     249 00000036 7700          nop
     250 00000037 7700          nop
     251 00000038 7700          nop
     252 00000039 7700          nop
     253 0000003a 7700          nop
     254                      .dwpsn  "GUI_lcd_driver.c",74,2
     255 0000003b 9A01          MOVB      AL,#1                 ; |74| 
     256 0000003c F4A9          MOV       *(0:0x2101),AL        ; |74| 
         0000003d 2101 
     257                      .dwpsn  "GUI_lcd_driver.c",75,2
     258 0000003e 7700          nop
     259 0000003f 7700          nop
     260 00000040 7700          nop
     261 00000041 7700          nop
     262 00000042 7700          nop
     263 00000043 7700          nop
TMS320C2000 COFF Assembler PC v4.1.3 Mon Dec 03 13:50:31 2012

Tools Copyright (c) 1996-2006 Texas Instruments Incorporated
C:\DOCUME~1\ADMINI~1\LOCALS~1\Temp\TI9922                            PAGE    6

     264 00000044 7700          nop
     265 00000045 7700          nop
     266                      .dwpsn  "GUI_lcd_driver.c",76,2
     267 00000046 9241          MOV       AL,*-SP[1]            ; |76| 
     268                      .dwpsn  "GUI_lcd_driver.c",77,1
     269 00000047 FE82          SUBB      SP,#2                 ; |76| 
     270                      .dwcfa  0x1d, -2
     271 00000048 FF69          SPM       #0
     272 00000049 0006          LRETR
     273                      ; return occurs
     274                      .dwattr DW$15, DW_AT_end_file("GUI_lcd_driver.c")
     275                      .dwattr DW$15, DW_AT_end_line(0x4d)
     276                      .dwattr DW$15, DW_AT_end_column(0x01)
     277                      .dwendentry
     278                      .dwendtag DW$15
     279              
     280 0000004a               .sect   ".text"
     281              
     282              DW$17   .dwtag  DW_TAG_subprogram, DW_AT_name("lcd_driver_clear_dot"), DW_AT_symbol_name("_lcd_driver_clear_d
     283                      .dwattr DW$17, DW_AT_low_pc(_lcd_driver_clear_dot)
     284                      .dwattr DW$17, DW_AT_high_pc(0x00)
     285                      .dwattr DW$17, DW_AT_begin_file("GUI_lcd_driver.c")
     286                      .dwattr DW$17, DW_AT_begin_line(0x54)
     287                      .dwattr DW$17, DW_AT_begin_column(0x0e)
     288                      .dwpsn  "GUI_lcd_driver.c",85,1
     289              
     290                      .dwfde DW$CIE
     291              
     292              ;***************************************************************
     293              ;* FNAME: _lcd_driver_clear_dot         FR SIZE:   4           *
     294              ;*                                                             *
     295              ;* FUNCTION ENVIRONMENT                                        *
     296              ;*                                                             *
     297              ;* FUNCTION PROPERTIES                                         *
     298              ;*                            0 Parameter,  4 Auto,  0 SOE     *
     299              ;***************************************************************
     300              
     301              _lcd_driver_clear_dot:
     302                      .dwcfa  0x1d, -2
     303                      .dwcfa  0x1c, 26, 0
     304                      .dwcfa  0x09, 40, 26
     305 0000004a FE04          ADDB      SP,#4
     306                      .dwcfa  0x1d, -6
     307              ;* AL    assigned to _coord_x
     308              DW$18   .dwtag  DW_TAG_formal_parameter, DW_AT_name("coord_x"), DW_AT_symbol_name("_coord_x")
     309                      .dwattr DW$18, DW_AT_type(*DW$T$10)
     310                      .dwattr DW$18, DW_AT_location[DW_OP_reg0]
     311              ;* AH    assigned to _coord_y
     312              DW$19   .dwtag  DW_TAG_formal_parameter, DW_AT_name("coord_y"), DW_AT_symbol_name("_coord_y")
     313                      .dwattr DW$19, DW_AT_type(*DW$T$143)
     314                      .dwattr DW$19, DW_AT_location[DW_OP_reg1]
     315              ;* AR4   assigned to _sele
     316              DW$20   .dwtag  DW_TAG_formal_parameter, DW_AT_name("sele"), DW_AT_symbol_name("_sele")
     317                      .dwattr DW$20, DW_AT_type(*DW$T$6)
     318                      .dwattr DW$20, DW_AT_location[DW_OP_reg12]
TMS320C2000 COFF Assembler PC v4.1.3 Mon Dec 03 13:50:31 2012

Tools Copyright (c) 1996-2006 Texas Instruments Incorporated
C:\DOCUME~1\ADMINI~1\LOCALS~1\Temp\TI9922                            PAGE    7

     319              DW$21   .dwtag  DW_TAG_variable, DW_AT_name("coord_x"), DW_AT_symbol_name("_coord_x")
     320                      .dwattr DW$21, DW_AT_type(*DW$T$10)
     321                      .dwattr DW$21, DW_AT_location[DW_OP_breg20 -1]
     322              DW$22   .dwtag  DW_TAG_variable, DW_AT_name("coord_y"), DW_AT_symbol_name("_coord_y")
     323                      .dwattr DW$22, DW_AT_type(*DW$T$143)
     324                      .dwattr DW$22, DW_AT_location[DW_OP_breg20 -2]
     325              DW$23   .dwtag  DW_TAG_variable, DW_AT_name("sele"), DW_AT_symbol_name("_sele")
     326                      .dwattr DW$23, DW_AT_type(*DW$T$6)
     327                      .dwattr DW$23, DW_AT_location[DW_OP_breg20 -3]
     328              DW$24   .dwtag  DW_TAG_variable, DW_AT_name("i"), DW_AT_symbol_name("_i")
     329                      .dwattr DW$24, DW_AT_type(*DW$T$143)
     330                      .dwattr DW$24, DW_AT_location[DW_OP_breg20 -4]
     331 0000004b 7C43          MOV       *-SP[3],AR4           ; |85| 
     332 0000004c 9742          MOV       *-SP[2],AH            ; |85| 
     333 0000004d 9641          MOV       *-SP[1],AL            ; |85| 
     334                      .dwpsn  "GUI_lcd_driver.c",87,2
     335 0000004e 9243          MOV       AL,*-SP[3]            ; |87| 
     336 0000004f 9644          MOV       *-SP[4],AL            ; |87| 
     337                      .dwpsn  "GUI_lcd_driver.c",88,2
     338 00000050 9A14          MOVB      AL,#20                ; |88| 
     339 00000051 7640'         LCR       #_lcd_driver_write_cmd ; |88| 
         00000052 0000 
     340                      ; call occurs [#_lcd_driver_write_cmd] ; |88| 
     341                      .dwpsn  "GUI_lcd_driver.c",89,2
     342 00000053 9A01          MOVB      AL,#1                 ; |89| 
     343 00000054 7640'         LCR       #_lcd_driver_write_cmd_data ; |89| 
         00000055 0017 
     344                      ; call occurs [#_lcd_driver_write_cmd_data] ; |89| 
     345                      .dwpsn  "GUI_lcd_driver.c",90,2
     346 00000056 9A03          MOVB      AL,#3                 ; |90| 
     347 00000057 7640'         LCR       #_lcd_driver_write_cmd ; |90| 
         00000058 0000 
     348                      ; call occurs [#_lcd_driver_write_cmd] ; |90| 
     349                      .dwpsn  "GUI_lcd_driver.c",91,2
     350 00000059 9242          MOV       AL,*-SP[2]            ; |91| 
     351 0000005a 7640'         LCR       #_lcd_driver_write_cmd_data ; |91| 
         0000005b 0017 
     352                      ; call occurs [#_lcd_driver_write_cmd_data] ; |91| 
     353                      .dwpsn  "GUI_lcd_driver.c",92,2
     354 0000005c 9A04          MOVB      AL,#4                 ; |92| 
     355 0000005d 7640'         LCR       #_lcd_driver_write_cmd ; |92| 
         0000005e 0000 
     356                      ; call occurs [#_lcd_driver_write_cmd] ; |92| 
     357                      .dwpsn  "GUI_lcd_driver.c",93,2
     358 0000005f 9241          MOV       AL,*-SP[1]            ; |93| 
     359 00000060 FFA7          ASR       AL,8                  ; |93| 
     360 00000061 9644          MOV       *-SP[4],AL            ; |93| 
     361                      .dwpsn  "GUI_lcd_driver.c",94,2
     362 00000062 9244          MOV       AL,*-SP[4]            ; |94| 
     363 00000063 7640'         LCR       #_lcd_driver_write_cmd_data ; |94| 
         00000064 0017 
     364                      ; call occurs [#_lcd_driver_write_cmd_data] ; |94| 
     365                      .dwpsn  "GUI_lcd_driver.c",95,2
     366 00000065 9A05          MOVB      AL,#5                 ; |95| 
     367 00000066 7640'         LCR       #_lcd_driver_write_cmd ; |95| 
TMS320C2000 COFF Assembler PC v4.1.3 Mon Dec 03 13:50:31 2012

Tools Copyright (c) 1996-2006 Texas Instruments Incorporated
C:\DOCUME~1\ADMINI~1\LOCALS~1\Temp\TI9922                            PAGE    8

         00000067 0000 
     368                      ; call occurs [#_lcd_driver_write_cmd] ; |95| 
     369                      .dwpsn  "GUI_lcd_driver.c",96,2
     370 00000068 9241          MOV       AL,*-SP[1]            ; |96| 
     371 00000069 90FF          ANDB      AL,#0xff              ; |96| 
     372 0000006a 9644          MOV       *-SP[4],AL            ; |96| 
     373                      .dwpsn  "GUI_lcd_driver.c",97,2
     374 0000006b 9244          MOV       AL,*-SP[4]            ; |97| 
     375 0000006c 7640'         LCR       #_lcd_driver_write_cmd_data ; |97| 
         0000006d 0017 
     376                      ; call occurs [#_lcd_driver_write_cmd_data] ; |97| 
     377                      .dwpsn  "GUI_lcd_driver.c",98,2
     378                      .dwpsn  "GUI_lcd_driver.c",99,1
     379 0000006e FE84          SUBB      SP,#4
     380                      .dwcfa  0x1d, -2
     381 0000006f 0006          LRETR
     382                      ; return occurs
     383                      .dwattr DW$17, DW_AT_end_file("GUI_lcd_driver.c")
     384                      .dwattr DW$17, DW_AT_end_line(0x63)
     385                      .dwattr DW$17, DW_AT_end_column(0x01)
     386                      .dwendentry
     387                      .dwendtag DW$17
     388              
     389 00000070               .sect   ".text"
     390                      .global _lcd_driver_draw_dot
     391              
     392              DW$25   .dwtag  DW_TAG_subprogram, DW_AT_name("lcd_driver_draw_dot"), DW_AT_symbol_name("_lcd_driver_draw_dot
     393                      .dwattr DW$25, DW_AT_low_pc(_lcd_driver_draw_dot)
     394                      .dwattr DW$25, DW_AT_high_pc(0x00)
     395                      .dwattr DW$25, DW_AT_begin_file("GUI_lcd_driver.c")
     396                      .dwattr DW$25, DW_AT_begin_line(0x6d)
     397                      .dwattr DW$25, DW_AT_begin_column(0x06)
     398                      .dwpsn  "GUI_lcd_driver.c",110,1
     399              
     400                      .dwfde DW$CIE
     401              
     402              ;***************************************************************
     403              ;* FNAME: _lcd_driver_draw_dot          FR SIZE:   4           *
     404              ;*                                                             *
     405              ;* FUNCTION ENVIRONMENT                                        *
     406              ;*                                                             *
     407              ;* FUNCTION PROPERTIES                                         *
     408              ;*                            0 Parameter,  3 Auto,  0 SOE     *
     409              ;***************************************************************
     410              
     411              _lcd_driver_draw_dot:
     412                      .dwcfa  0x1d, -2
     413                      .dwcfa  0x1c, 26, 0
     414                      .dwcfa  0x09, 40, 26
     415 00000070 FE04          ADDB      SP,#4
     416                      .dwcfa  0x1d, -6
     417              ;* AL    assigned to _coord_x
     418              DW$26   .dwtag  DW_TAG_formal_parameter, DW_AT_name("coord_x"), DW_AT_symbol_name("_coord_x")
     419                      .dwattr DW$26, DW_AT_type(*DW$T$11)
     420                      .dwattr DW$26, DW_AT_location[DW_OP_reg0]
TMS320C2000 COFF Assembler PC v4.1.3 Mon Dec 03 13:50:31 2012

Tools Copyright (c) 1996-2006 Texas Instruments Incorporated
C:\DOCUME~1\ADMINI~1\LOCALS~1\Temp\TI9922                            PAGE    9

     421              ;* AH    assigned to _coord_y
     422              DW$27   .dwtag  DW_TAG_formal_parameter, DW_AT_name("coord_y"), DW_AT_symbol_name("_coord_y")
     423                      .dwattr DW$27, DW_AT_type(*DW$T$11)
     424                      .dwattr DW$27, DW_AT_location[DW_OP_reg1]
     425              ;* AR4   assigned to _color
     426              DW$28   .dwtag  DW_TAG_formal_parameter, DW_AT_name("color"), DW_AT_symbol_name("_color")
     427                      .dwattr DW$28, DW_AT_type(*DW$T$6)
     428                      .dwattr DW$28, DW_AT_location[DW_OP_reg12]
     429              DW$29   .dwtag  DW_TAG_variable, DW_AT_name("coord_x"), DW_AT_symbol_name("_coord_x")
     430                      .dwattr DW$29, DW_AT_type(*DW$T$11)
     431                      .dwattr DW$29, DW_AT_location[DW_OP_breg20 -1]
     432              DW$30   .dwtag  DW_TAG_variable, DW_AT_name("coord_y"), DW_AT_symbol_name("_coord_y")
     433                      .dwattr DW$30, DW_AT_type(*DW$T$11)
     434                      .dwattr DW$30, DW_AT_location[DW_OP_breg20 -2]
     435              DW$31   .dwtag  DW_TAG_variable, DW_AT_name("color"), DW_AT_symbol_name("_color")
     436                      .dwattr DW$31, DW_AT_type(*DW$T$6)
     437                      .dwattr DW$31, DW_AT_location[DW_OP_breg20 -3]
     438 00000071 7C43          MOV       *-SP[3],AR4           ; |110| 
     439 00000072 9742          MOV       *-SP[2],AH            ; |110| 
     440 00000073 9641          MOV       *-SP[1],AL            ; |110| 
     441                      .dwpsn  "GUI_lcd_driver.c",111,2
     442 00000074 9241          MOV       AL,*-SP[1]            ; |111| 
     443 00000075 9342          MOV       AH,*-SP[2]            ; |111| 
     444 00000076 D400          MOVB      XAR4,#0
     445 00000077 7640'         LCR       #_lcd_driver_clear_dot ; |111| 
         00000078 004A 
     446                      ; call occurs [#_lcd_driver_clear_dot] ; |111| 
     447                      .dwpsn  "GUI_lcd_driver.c",112,2
     448 00000079 9A1F          MOVB      AL,#31                ; |112| 
     449 0000007a 7640'         LCR       #_lcd_driver_write_cmd ; |112| 
         0000007b 0000 
     450                      ; call occurs [#_lcd_driver_write_cmd] ; |112| 
     451                      .dwpsn  "GUI_lcd_driver.c",113,2
     452 0000007c 9243          MOV       AL,*-SP[3]            ; |113| 
     453 0000007d 7640'         LCR       #_lcd_driver_write_data ; |113| 
         0000007e 000C 
     454                      ; call occurs [#_lcd_driver_write_data] ; |113| 
     455                      .dwpsn  "GUI_lcd_driver.c",114,1
     456 0000007f FE84          SUBB      SP,#4
     457                      .dwcfa  0x1d, -2
     458 00000080 0006          LRETR
     459                      ; return occurs
     460                      .dwattr DW$25, DW_AT_end_file("GUI_lcd_driver.c")
     461                      .dwattr DW$25, DW_AT_end_line(0x72)
     462                      .dwattr DW$25, DW_AT_end_column(0x01)
     463                      .dwendentry
     464                      .dwendtag DW$25
     465              
     466 00000081               .sect   ".text"
     467                      .global _lcd_driver_read_dot
     468              
     469              DW$32   .dwtag  DW_TAG_subprogram, DW_AT_name("lcd_driver_read_dot"), DW_AT_symbol_name("_lcd_driver_read_dot
     470                      .dwattr DW$32, DW_AT_low_pc(_lcd_driver_read_dot)
     471                      .dwattr DW$32, DW_AT_high_pc(0x00)
     472                      .dwattr DW$32, DW_AT_begin_file("GUI_lcd_driver.c")
TMS320C2000 COFF Assembler PC v4.1.3 Mon Dec 03 13:50:31 2012

Tools Copyright (c) 1996-2006 Texas Instruments Incorporated
C:\DOCUME~1\ADMINI~1\LOCALS~1\Temp\TI9922                            PAGE   10

     473                      .dwattr DW$32, DW_AT_begin_line(0x79)
     474                      .dwattr DW$32, DW_AT_begin_column(0x06)
     475                      .dwpsn  "GUI_lcd_driver.c",122,1
     476              
     477                      .dwfde DW$CIE
     478              
     479              ;***************************************************************
     480              ;* FNAME: _lcd_driver_read_dot          FR SIZE:   6           *
     481              ;*                                                             *
     482              ;* FUNCTION ENVIRONMENT                                        *
     483              ;*                                                             *
     484              ;* FUNCTION PROPERTIES                                         *
     485              ;*                            0 Parameter,  5 Auto,  0 SOE     *
     486              ;***************************************************************
     487              
     488              _lcd_driver_read_dot:
     489                      .dwcfa  0x1d, -2
     490                      .dwcfa  0x1c, 26, 0
     491                      .dwcfa  0x09, 40, 26
     492 00000081 FE06          ADDB      SP,#6
     493                      .dwcfa  0x1d, -8
     494              ;* AL    assigned to _coord_x
     495              DW$33   .dwtag  DW_TAG_formal_parameter, DW_AT_name("coord_x"), DW_AT_symbol_name("_coord_x")
     496                      .dwattr DW$33, DW_AT_type(*DW$T$11)
     497                      .dwattr DW$33, DW_AT_location[DW_OP_reg0]
     498              ;* AH    assigned to _coord_y
     499              DW$34   .dwtag  DW_TAG_formal_parameter, DW_AT_name("coord_y"), DW_AT_symbol_name("_coord_y")
     500                      .dwattr DW$34, DW_AT_type(*DW$T$11)
     501                      .dwattr DW$34, DW_AT_location[DW_OP_reg1]
     502              ;* AR4   assigned to _color
     503              DW$35   .dwtag  DW_TAG_formal_parameter, DW_AT_name("color"), DW_AT_symbol_name("_color")
     504                      .dwattr DW$35, DW_AT_type(*DW$T$148)
     505                      .dwattr DW$35, DW_AT_location[DW_OP_reg12]
     506              DW$36   .dwtag  DW_TAG_variable, DW_AT_name("coord_x"), DW_AT_symbol_name("_coord_x")
     507                      .dwattr DW$36, DW_AT_type(*DW$T$11)
     508                      .dwattr DW$36, DW_AT_location[DW_OP_breg20 -1]
     509              DW$37   .dwtag  DW_TAG_variable, DW_AT_name("coord_y"), DW_AT_symbol_name("_coord_y")
     510                      .dwattr DW$37, DW_AT_type(*DW$T$11)
     511                      .dwattr DW$37, DW_AT_location[DW_OP_breg20 -2]
     512              DW$38   .dwtag  DW_TAG_variable, DW_AT_name("color"), DW_AT_symbol_name("_color")
     513                      .dwattr DW$38, DW_AT_type(*DW$T$148)
     514                      .dwattr DW$38, DW_AT_location[DW_OP_breg20 -4]
     515              DW$39   .dwtag  DW_TAG_variable, DW_AT_name("ch"), DW_AT_symbol_name("_ch")
     516                      .dwattr DW$39, DW_AT_type(*DW$T$6)
     517                      .dwattr DW$39, DW_AT_location[DW_OP_breg20 -5]
     518 00000082 A844          MOVL      *-SP[4],XAR4          ; |122| 
     519 00000083 9742          MOV       *-SP[2],AH            ; |122| 
     520 00000084 9641          MOV       *-SP[1],AL            ; |122| 
     521                      .dwpsn  "GUI_lcd_driver.c",123,10
     522 00000085 2B45          MOV       *-SP[5],#0            ; |123| 
     523                      .dwpsn  "GUI_lcd_driver.c",124,2
     524 00000086 9A00          MOVB      AL,#0
     525 00000087 F4A9          MOV       *(0:0x2101),AL        ; |124| 
         00000088 2101 
     526                      .dwpsn  "GUI_lcd_driver.c",125,2
TMS320C2000 COFF Assembler PC v4.1.3 Mon Dec 03 13:50:31 2012

Tools Copyright (c) 1996-2006 Texas Instruments Incorporated
C:\DOCUME~1\ADMINI~1\LOCALS~1\Temp\TI9922                            PAGE   11

     527 00000089 7700          nop
     528 0000008a 7700          nop
     529 0000008b 7700          nop
     530 0000008c 7700          nop
     531 0000008d 7700          nop
     532 0000008e 7700          nop
     533 0000008f 7700          nop
     534 00000090 7700          nop
     535                      .dwpsn  "GUI_lcd_driver.c",126,2
     536 00000091 F5A9          MOV       AL,*(0:0x2100)        ; |126| 
         00000092 2100 
     537 00000093 90FF          ANDB      AL,#0xff              ; |126| 
     538 00000094 9645          MOV       *-SP[5],AL            ; |126| 
     539                      .dwpsn  "GUI_lcd_driver.c",127,2
     540 00000095 7700          nop
     541 00000096 7700          nop
     542 00000097 7700          nop
     543 00000098 7700          nop
     544 00000099 7700          nop
     545 0000009a 7700          nop
     546 0000009b 7700          nop
     547 0000009c 7700          nop
     548                      .dwpsn  "GUI_lcd_driver.c",128,2
     549 0000009d 9A01          MOVB      AL,#1                 ; |128| 
     550 0000009e F4A9          MOV       *(0:0x2101),AL        ; |128| 
         0000009f 2101 
     551                      .dwpsn  "GUI_lcd_driver.c",129,2
     552 000000a0 7700          nop
     553 000000a1 7700          nop
     554 000000a2 7700          nop
     555 000000a3 7700          nop
     556 000000a4 7700          nop
     557 000000a5 7700          nop
     558 000000a6 7700          nop
     559 000000a7 7700          nop
     560                      .dwpsn  "GUI_lcd_driver.c",130,2
     561 000000a8 8A44          MOVL      XAR4,*-SP[4]          ; |130| 
     562 000000a9 9245          MOV       AL,*-SP[5]            ; |130| 
     563 000000aa 96C4          MOV       *+XAR4[0],AL          ; |130| 
     564                      .dwpsn  "GUI_lcd_driver.c",131,2
     565                      .dwpsn  "GUI_lcd_driver.c",132,1
     566 000000ab FE86          SUBB      SP,#6
     567                      .dwcfa  0x1d, -2
     568 000000ac FF69          SPM       #0
     569 000000ad 0006          LRETR
     570                      ; return occurs
     571                      .dwattr DW$32, DW_AT_end_file("GUI_lcd_driver.c")
     572                      .dwattr DW$32, DW_AT_end_line(0x84)
     573                      .dwattr DW$32, DW_AT_end_column(0x01)
     574                      .dwendentry
     575                      .dwendtag DW$32
     576              
     577 000000ae               .sect   ".text"
     578                      .global _lcd_driver_fill_rectangle
     579              
TMS320C2000 COFF Assembler PC v4.1.3 Mon Dec 03 13:50:31 2012

Tools Copyright (c) 1996-2006 Texas Instruments Incorporated
C:\DOCUME~1\ADMINI~1\LOCALS~1\Temp\TI9922                            PAGE   12

     580              DW$40   .dwtag  DW_TAG_subprogram, DW_AT_name("lcd_driver_fill_rectangle"), DW_AT_symbol_name("_lcd_driver_fi
     581                      .dwattr DW$40, DW_AT_low_pc(_lcd_driver_fill_rectangle)
     582                      .dwattr DW$40, DW_AT_high_pc(0x00)
     583                      .dwattr DW$40, DW_AT_begin_file("GUI_lcd_driver.c")
     584                      .dwattr DW$40, DW_AT_begin_line(0x8b)
     585                      .dwattr DW$40, DW_AT_begin_column(0x06)
     586                      .dwpsn  "GUI_lcd_driver.c",142,1
     587              
     588                      .dwfde DW$CIE
     589              
     590              ;***************************************************************
     591              ;* FNAME: _lcd_driver_fill_rectangle    FR SIZE:   6           *
     592              ;*                                                             *
     593              ;* FUNCTION ENVIRONMENT                                        *
     594              ;*                                                             *
     595              ;* FUNCTION PROPERTIES                                         *
     596              ;*                            0 Parameter,  6 Auto,  0 SOE     *
     597              ;***************************************************************
     598              
     599              _lcd_driver_fill_rectangle:
     600                      .dwcfa  0x1d, -2
     601                      .dwcfa  0x1c, 26, 0
     602                      .dwcfa  0x09, 40, 26
     603 000000ae FE06          ADDB      SP,#6
     604                      .dwcfa  0x1d, -8
     605              ;* AL    assigned to _coord_x
     606              DW$41   .dwtag  DW_TAG_formal_parameter, DW_AT_name("coord_x"), DW_AT_symbol_name("_coord_x")
     607                      .dwattr DW$41, DW_AT_type(*DW$T$11)
     608                      .dwattr DW$41, DW_AT_location[DW_OP_reg0]
     609              ;* AH    assigned to _coord_y
     610              DW$42   .dwtag  DW_TAG_formal_parameter, DW_AT_name("coord_y"), DW_AT_symbol_name("_coord_y")
     611                      .dwattr DW$42, DW_AT_type(*DW$T$11)
     612                      .dwattr DW$42, DW_AT_location[DW_OP_reg1]
     613              ;* AR4   assigned to _x_len
     614              DW$43   .dwtag  DW_TAG_formal_parameter, DW_AT_name("x_len"), DW_AT_symbol_name("_x_len")
     615                      .dwattr DW$43, DW_AT_type(*DW$T$11)
     616                      .dwattr DW$43, DW_AT_location[DW_OP_reg12]
     617              ;* AR5   assigned to _y_len
     618              DW$44   .dwtag  DW_TAG_formal_parameter, DW_AT_name("y_len"), DW_AT_symbol_name("_y_len")
     619                      .dwattr DW$44, DW_AT_type(*DW$T$11)
     620                      .dwattr DW$44, DW_AT_location[DW_OP_reg14]
     621              DW$45   .dwtag  DW_TAG_formal_parameter, DW_AT_name("color"), DW_AT_symbol_name("_color")
     622                      .dwattr DW$45, DW_AT_type(*DW$T$6)
     623                      .dwattr DW$45, DW_AT_location[DW_OP_breg20 -9]
     624              DW$46   .dwtag  DW_TAG_variable, DW_AT_name("coord_x"), DW_AT_symbol_name("_coord_x")
     625                      .dwattr DW$46, DW_AT_type(*DW$T$11)
     626                      .dwattr DW$46, DW_AT_location[DW_OP_breg20 -1]
     627              DW$47   .dwtag  DW_TAG_variable, DW_AT_name("coord_y"), DW_AT_symbol_name("_coord_y")
     628                      .dwattr DW$47, DW_AT_type(*DW$T$11)
     629                      .dwattr DW$47, DW_AT_location[DW_OP_breg20 -2]
     630              DW$48   .dwtag  DW_TAG_variable, DW_AT_name("x_len"), DW_AT_symbol_name("_x_len")
     631                      .dwattr DW$48, DW_AT_type(*DW$T$11)
     632                      .dwattr DW$48, DW_AT_location[DW_OP_breg20 -3]
     633              DW$49   .dwtag  DW_TAG_variable, DW_AT_name("y_len"), DW_AT_symbol_name("_y_len")
     634                      .dwattr DW$49, DW_AT_type(*DW$T$11)
TMS320C2000 COFF Assembler PC v4.1.3 Mon Dec 03 13:50:31 2012

Tools Copyright (c) 1996-2006 Texas Instruments Incorporated
C:\DOCUME~1\ADMINI~1\LOCALS~1\Temp\TI9922                            PAGE   13

     635                      .dwattr DW$49, DW_AT_location[DW_OP_breg20 -4]
     636              DW$50   .dwtag  DW_TAG_variable, DW_AT_name("xoffset"), DW_AT_symbol_name("_xoffset")
     637                      .dwattr DW$50, DW_AT_type(*DW$T$140)
     638                      .dwattr DW$50, DW_AT_location[DW_OP_breg20 -5]
     639              DW$51   .dwtag  DW_TAG_variable, DW_AT_name("yoffset"), DW_AT_symbol_name("_yoffset")
     640                      .dwattr DW$51, DW_AT_type(*DW$T$140)
     641                      .dwattr DW$51, DW_AT_location[DW_OP_breg20 -6]
     642 000000af 7D44          MOV       *-SP[4],AR5           ; |142| 
     643 000000b0 7C43          MOV       *-SP[3],AR4           ; |142| 
     644 000000b1 9742          MOV       *-SP[2],AH            ; |142| 
     645 000000b2 9641          MOV       *-SP[1],AL            ; |142| 
     646                      .dwpsn  "GUI_lcd_driver.c",145,2
     647 000000b3 9A10          MOVB      AL,#16                ; |145| 
     648 000000b4 7640'         LCR       #_lcd_driver_write_cmd ; |145| 
         000000b5 0000 
     649                      ; call occurs [#_lcd_driver_write_cmd] ; |145| 
     650                      .dwpsn  "GUI_lcd_driver.c",146,2
     651 000000b6 9A00          MOVB      AL,#0
     652 000000b7 7640'         LCR       #_lcd_driver_write_data ; |146| 
         000000b8 000C 
     653                      ; call occurs [#_lcd_driver_write_data] ; |146| 
     654                      .dwpsn  "GUI_lcd_driver.c",147,8
     655 000000b9 2B46          MOV       *-SP[6],#0            ; |147| 
     656                      .dwpsn  "GUI_lcd_driver.c",147,20
     657 000000ba 9244          MOV       AL,*-SP[4]            ; |147| 
     658 000000bb 5446          CMP       AL,*-SP[6]            ; |147| 
     659 000000bc 6919          B         L4,LOS                ; |147| 
     660                      ; branchcc occurs ; |147| 
     661              L1:    
     662              DW$L$_lcd_driver_fill_rectangle$2$B:
     663                      .dwpsn  "GUI_lcd_driver.c",149,3
     664 000000bd 9241          MOV       AL,*-SP[1]            ; |149| 
     665 000000be 9346          MOV       AH,*-SP[6]            ; |149| 
     666 000000bf D400          MOVB      XAR4,#0
     667 000000c0 9542          ADD       AH,*-SP[2]            ; |149| 
     668 000000c1 7640'         LCR       #_lcd_driver_clear_dot ; |149| 
         000000c2 004A 
     669                      ; call occurs [#_lcd_driver_clear_dot] ; |149| 
     670                      .dwpsn  "GUI_lcd_driver.c",151,3
     671 000000c3 9A1F          MOVB      AL,#31                ; |151| 
     672 000000c4 7640'         LCR       #_lcd_driver_write_cmd ; |151| 
         000000c5 0000 
     673                      ; call occurs [#_lcd_driver_write_cmd] ; |151| 
     674                      .dwpsn  "GUI_lcd_driver.c",152,9
     675 000000c6 2B45          MOV       *-SP[5],#0            ; |152| 
     676                      .dwpsn  "GUI_lcd_driver.c",152,21
     677 000000c7 9243          MOV       AL,*-SP[3]            ; |152| 
     678 000000c8 5445          CMP       AL,*-SP[5]            ; |152| 
     679 000000c9 6908          B         L3,LOS                ; |152| 
     680                      ; branchcc occurs ; |152| 
     681              DW$L$_lcd_driver_fill_rectangle$2$E:
     682              L2:    
     683              DW$L$_lcd_driver_fill_rectangle$3$B:
     684                      .dwpsn  "GUI_lcd_driver.c",154,4
     685 000000ca 9249          MOV       AL,*-SP[9]            ; |154| 
TMS320C2000 COFF Assembler PC v4.1.3 Mon Dec 03 13:50:31 2012

Tools Copyright (c) 1996-2006 Texas Instruments Incorporated
C:\DOCUME~1\ADMINI~1\LOCALS~1\Temp\TI9922                            PAGE   14

     686 000000cb 7640'         LCR       #_lcd_driver_write_data ; |154| 
         000000cc 000C 
     687                      ; call occurs [#_lcd_driver_write_data] ; |154| 
     688                      .dwpsn  "GUI_lcd_driver.c",152,36
     689 000000cd 0A45          INC       *-SP[5]               ; |152| 
     690                      .dwpsn  "GUI_lcd_driver.c",152,21
     691 000000ce 9243          MOV       AL,*-SP[3]            ; |152| 
     692 000000cf 5445          CMP       AL,*-SP[5]            ; |152| 
     693 000000d0 66FA          B         L2,HI                 ; |152| 
     694                      ; branchcc occurs ; |152| 
     695              DW$L$_lcd_driver_fill_rectangle$3$E:
     696              L3:    
     697              DW$L$_lcd_driver_fill_rectangle$4$B:
     698                      .dwpsn  "GUI_lcd_driver.c",147,35
     699 000000d1 0A46          INC       *-SP[6]               ; |147| 
     700                      .dwpsn  "GUI_lcd_driver.c",147,20
     701 000000d2 9244          MOV       AL,*-SP[4]            ; |147| 
     702 000000d3 5446          CMP       AL,*-SP[6]            ; |147| 
     703 000000d4 66E9          B         L1,HI                 ; |147| 
     704                      ; branchcc occurs ; |147| 
     705              DW$L$_lcd_driver_fill_rectangle$4$E:
     706                      .dwpsn  "GUI_lcd_driver.c",157,2
     707              L4:    
     708                      .dwpsn  "GUI_lcd_driver.c",158,1
     709 000000d5 FE86          SUBB      SP,#6
     710                      .dwcfa  0x1d, -2
     711 000000d6 0006          LRETR
     712                      ; return occurs
     713              
     714              DW$52   .dwtag  DW_TAG_loop
     715                      .dwattr DW$52, DW_AT_name("C:\DOCUME~1\ADMINI~1\LOCALS~1\Temp\TI9922:L1:1:1354513831")
     716                      .dwattr DW$52, DW_AT_begin_file("GUI_lcd_driver.c")
     717                      .dwattr DW$52, DW_AT_begin_line(0x93)
     718                      .dwattr DW$52, DW_AT_end_line(0x9c)
     719              DW$53   .dwtag  DW_TAG_loop_range
     720                      .dwattr DW$53, DW_AT_low_pc(DW$L$_lcd_driver_fill_rectangle$2$B)
     721                      .dwattr DW$53, DW_AT_high_pc(DW$L$_lcd_driver_fill_rectangle$2$E)
     722              DW$54   .dwtag  DW_TAG_loop_range
     723                      .dwattr DW$54, DW_AT_low_pc(DW$L$_lcd_driver_fill_rectangle$4$B)
     724                      .dwattr DW$54, DW_AT_high_pc(DW$L$_lcd_driver_fill_rectangle$4$E)
     725              
     726              DW$55   .dwtag  DW_TAG_loop
     727                      .dwattr DW$55, DW_AT_name("C:\DOCUME~1\ADMINI~1\LOCALS~1\Temp\TI9922:L2:2:1354513831")
     728                      .dwattr DW$55, DW_AT_begin_file("GUI_lcd_driver.c")
     729                      .dwattr DW$55, DW_AT_begin_line(0x98)
     730                      .dwattr DW$55, DW_AT_end_line(0x9b)
     731              DW$56   .dwtag  DW_TAG_loop_range
     732                      .dwattr DW$56, DW_AT_low_pc(DW$L$_lcd_driver_fill_rectangle$3$B)
     733                      .dwattr DW$56, DW_AT_high_pc(DW$L$_lcd_driver_fill_rectangle$3$E)
     734                      .dwendtag DW$55
     735              
     736                      .dwendtag DW$52
     737              
     738                      .dwattr DW$40, DW_AT_end_file("GUI_lcd_driver.c")
     739                      .dwattr DW$40, DW_AT_end_line(0x9e)
TMS320C2000 COFF Assembler PC v4.1.3 Mon Dec 03 13:50:31 2012

Tools Copyright (c) 1996-2006 Texas Instruments Incorporated
C:\DOCUME~1\ADMINI~1\LOCALS~1\Temp\TI9922                            PAGE   15

     740                      .dwattr DW$40, DW_AT_end_column(0x01)
     741                      .dwendentry
     742                      .dwendtag DW$40
     743              
     744 000000d7               .sect   ".text"
     745                      .global _lcd_driver_ASCcode_display
     746              
     747              DW$57   .dwtag  DW_TAG_subprogram, DW_AT_name("lcd_driver_ASCcode_display"), DW_AT_symbol_name("_lcd_driver_A
     748                      .dwattr DW$57, DW_AT_low_pc(_lcd_driver_ASCcode_display)
     749                      .dwattr DW$57, DW_AT_high_pc(0x00)
     750                      .dwattr DW$57, DW_AT_begin_file("GUI_lcd_driver.c")
     751                      .dwattr DW$57, DW_AT_begin_line(0xa5)
     752                      .dwattr DW$57, DW_AT_begin_column(0x06)
     753                      .dwpsn  "GUI_lcd_driver.c",168,1
     754              
     755                      .dwfde DW$CIE
     756              
     757              ;***************************************************************
     758              ;* FNAME: _lcd_driver_ASCcode_display   FR SIZE:  12           *
     759              ;*                                                             *
     760              ;* FUNCTION ENVIRONMENT                                        *
     761              ;*                                                             *
     762              ;* FUNCTION PROPERTIES                                         *
     763              ;*                            0 Parameter, 11 Auto,  0 SOE     *
     764              ;***************************************************************
     765              
     766              _lcd_driver_ASCcode_display:
     767                      .dwcfa  0x1d, -2
     768                      .dwcfa  0x1c, 26, 0
     769                      .dwcfa  0x09, 40, 26
     770 000000d7 FE0C          ADDB      SP,#12
     771                      .dwcfa  0x1d, -14
     772              ;* AL    assigned to _x
     773              DW$58   .dwtag  DW_TAG_formal_parameter, DW_AT_name("x"), DW_AT_symbol_name("_x")
     774                      .dwattr DW$58, DW_AT_type(*DW$T$11)
     775                      .dwattr DW$58, DW_AT_location[DW_OP_reg0]
     776              ;* AH    assigned to _y
     777              DW$59   .dwtag  DW_TAG_formal_parameter, DW_AT_name("y"), DW_AT_symbol_name("_y")
     778                      .dwattr DW$59, DW_AT_type(*DW$T$11)
     779                      .dwattr DW$59, DW_AT_location[DW_OP_reg1]
     780              ;* AR5   assigned to _wide
     781              DW$60   .dwtag  DW_TAG_formal_parameter, DW_AT_name("wide"), DW_AT_symbol_name("_wide")
     782                      .dwattr DW$60, DW_AT_type(*DW$T$140)
     783                      .dwattr DW$60, DW_AT_location[DW_OP_reg14]
     784              DW$61   .dwtag  DW_TAG_formal_parameter, DW_AT_name("high"), DW_AT_symbol_name("_high")
     785                      .dwattr DW$61, DW_AT_type(*DW$T$140)
     786                      .dwattr DW$61, DW_AT_location[DW_OP_breg20 -15]
     787              DW$62   .dwtag  DW_TAG_formal_parameter, DW_AT_name("Fcolor"), DW_AT_symbol_name("_Fcolor")
     788                      .dwattr DW$62, DW_AT_type(*DW$T$140)
     789                      .dwattr DW$62, DW_AT_location[DW_OP_breg20 -16]
     790              DW$63   .dwtag  DW_TAG_formal_parameter, DW_AT_name("Bcolor"), DW_AT_symbol_name("_Bcolor")
     791                      .dwattr DW$63, DW_AT_type(*DW$T$140)
     792                      .dwattr DW$63, DW_AT_location[DW_OP_breg20 -17]
     793              ;* AR4   assigned to _pbuf
     794              DW$64   .dwtag  DW_TAG_formal_parameter, DW_AT_name("pbuf"), DW_AT_symbol_name("_pbuf")
TMS320C2000 COFF Assembler PC v4.1.3 Mon Dec 03 13:50:31 2012

Tools Copyright (c) 1996-2006 Texas Instruments Incorporated
C:\DOCUME~1\ADMINI~1\LOCALS~1\Temp\TI9922                            PAGE   16

     795                      .dwattr DW$64, DW_AT_type(*DW$T$152)
     796                      .dwattr DW$64, DW_AT_location[DW_OP_reg12]
     797              DW$65   .dwtag  DW_TAG_variable, DW_AT_name("x"), DW_AT_symbol_name("_x")
     798                      .dwattr DW$65, DW_AT_type(*DW$T$11)
     799                      .dwattr DW$65, DW_AT_location[DW_OP_breg20 -1]
     800              DW$66   .dwtag  DW_TAG_variable, DW_AT_name("y"), DW_AT_symbol_name("_y")
     801                      .dwattr DW$66, DW_AT_type(*DW$T$11)
     802                      .dwattr DW$66, DW_AT_location[DW_OP_breg20 -2]
     803              DW$67   .dwtag  DW_TAG_variable, DW_AT_name("wide"), DW_AT_symbol_name("_wide")
     804                      .dwattr DW$67, DW_AT_type(*DW$T$140)
     805                      .dwattr DW$67, DW_AT_location[DW_OP_breg20 -3]
     806              DW$68   .dwtag  DW_TAG_variable, DW_AT_name("pbuf"), DW_AT_symbol_name("_pbuf")
     807                      .dwattr DW$68, DW_AT_type(*DW$T$152)
     808                      .dwattr DW$68, DW_AT_location[DW_OP_breg20 -6]
     809              DW$69   .dwtag  DW_TAG_variable, DW_AT_name("Hoffset"), DW_AT_symbol_name("_Hoffset")
     810                      .dwattr DW$69, DW_AT_type(*DW$T$140)
     811                      .dwattr DW$69, DW_AT_location[DW_OP_breg20 -7]
     812              DW$70   .dwtag  DW_TAG_variable, DW_AT_name("Woffset"), DW_AT_symbol_name("_Woffset")
     813                      .dwattr DW$70, DW_AT_type(*DW$T$140)
     814                      .dwattr DW$70, DW_AT_location[DW_OP_breg20 -8]
     815              DW$71   .dwtag  DW_TAG_variable, DW_AT_name("Boffset"), DW_AT_symbol_name("_Boffset")
     816                      .dwattr DW$71, DW_AT_type(*DW$T$140)
     817                      .dwattr DW$71, DW_AT_location[DW_OP_breg20 -9]
     818              DW$72   .dwtag  DW_TAG_variable, DW_AT_name("cdata"), DW_AT_symbol_name("_cdata")
     819                      .dwattr DW$72, DW_AT_type(*DW$T$143)
     820                      .dwattr DW$72, DW_AT_location[DW_OP_breg20 -10]
     821              DW$73   .dwtag  DW_TAG_variable, DW_AT_name("B_Color"), DW_AT_symbol_name("_B_Color")
     822                      .dwattr DW$73, DW_AT_type(*DW$T$6)
     823                      .dwattr DW$73, DW_AT_location[DW_OP_breg20 -11]
     824 000000d8 A846          MOVL      *-SP[6],XAR4          ; |168| 
     825 000000d9 7D43          MOV       *-SP[3],AR5           ; |168| 
     826 000000da 9742          MOV       *-SP[2],AH            ; |168| 
     827 000000db 9641          MOV       *-SP[1],AL            ; |168| 
     828                      .dwpsn  "GUI_lcd_driver.c",169,10
     829 000000dc 2B47          MOV       *-SP[7],#0            ; |169| 
     830                      .dwpsn  "GUI_lcd_driver.c",170,10
     831 000000dd 2B48          MOV       *-SP[8],#0            ; |170| 
     832                      .dwpsn  "GUI_lcd_driver.c",171,10
     833 000000de 2B49          MOV       *-SP[9],#0            ; |171| 
     834                      .dwpsn  "GUI_lcd_driver.c",173,10
     835 000000df 2B4B          MOV       *-SP[11],#0           ; |173| 
     836                      .dwpsn  "GUI_lcd_driver.c",174,2
     837 000000e0 9250          MOV       AL,*-SP[16]           ; |174| 
     838 000000e1 52FF          CMPB      AL,#255               ; |174| 
     839 000000e2 6904          B         L5,LOS                ; |174| 
     840                      ; branchcc occurs ; |174| 
     841 000000e3 FFC7          LSR       AL,8                  ; |174| 
     842 000000e4 964B          MOV       *-SP[11],AL           ; |174| 
     843 000000e5 6F03          B         L6,UNC                ; |174| 
     844                      ; branch occurs ; |174| 
     845 000000e6       L5:    
     846 000000e6 9251          MOV       AL,*-SP[17]           ; |174| 
     847 000000e7 964B          MOV       *-SP[11],AL           ; |174| 
     848              L6:    
     849                      .dwpsn  "GUI_lcd_driver.c",177,2
TMS320C2000 COFF Assembler PC v4.1.3 Mon Dec 03 13:50:31 2012

Tools Copyright (c) 1996-2006 Texas Instruments Incorporated
C:\DOCUME~1\ADMINI~1\LOCALS~1\Temp\TI9922                            PAGE   17

     850 000000e8 9A10          MOVB      AL,#16                ; |177| 
     851 000000e9 7640'         LCR       #_lcd_driver_write_cmd ; |177| 
         000000ea 0000 
     852                      ; call occurs [#_lcd_driver_write_cmd] ; |177| 
     853                      .dwpsn  "GUI_lcd_driver.c",178,2
     854 000000eb 9A00          MOVB      AL,#0
     855 000000ec 7640'         LCR       #_lcd_driver_write_cmd_data ; |178| 
         000000ed 0017 
     856                      ; call occurs [#_lcd_driver_write_cmd_data] ; |178| 
     857                      .dwpsn  "GUI_lcd_driver.c",179,8
     858 000000ee 2B47          MOV       *-SP[7],#0            ; |179| 
     859                      .dwpsn  "GUI_lcd_driver.c",179,20
     860 000000ef 924F          MOV       AL,*-SP[15]           ; |179| 
     861 000000f0 5447          CMP       AL,*-SP[7]            ; |179| 
     862 000000f1 6934          B         L14,LOS               ; |179| 
     863                      ; branchcc occurs ; |179| 
     864              L7:    
     865              DW$L$_lcd_driver_ASCcode_display$5$B:
     866                      .dwpsn  "GUI_lcd_driver.c",181,9
     867 000000f2 2B48          MOV       *-SP[8],#0            ; |181| 
     868 000000f3 6F2A          B         L13,UNC               ; |181| 
     869                      ; branch occurs ; |181| 
     870              DW$L$_lcd_driver_ASCcode_display$5$E:
     871              L8:    
     872              DW$L$_lcd_driver_ASCcode_display$6$B:
     873                      .dwpsn  "GUI_lcd_driver.c",183,4
     874 000000f4 5603          MOV       ACC,*-SP[8] << #3     ; |183| 
         000000f5 0348 
     875 000000f6 9441          ADD       AL,*-SP[1]            ; |183| 
     876 000000f7 D401          MOVB      XAR4,#1               ; |183| 
     877 000000f8 9347          MOV       AH,*-SP[7]            ; |183| 
     878 000000f9 9542          ADD       AH,*-SP[2]            ; |183| 
     879 000000fa 7640'         LCR       #_lcd_driver_clear_dot ; |183| 
         000000fb 004A 
     880                      ; call occurs [#_lcd_driver_clear_dot] ; |183| 
     881                      .dwpsn  "GUI_lcd_driver.c",184,4
     882 000000fc 9A1F          MOVB      AL,#31                ; |184| 
     883 000000fd 7640'         LCR       #_lcd_driver_write_cmd ; |184| 
         000000fe 0000 
     884                      ; call occurs [#_lcd_driver_write_cmd] ; |184| 
     885                      .dwpsn  "GUI_lcd_driver.c",185,4
     886 000000ff 9243          MOV       AL,*-SP[3]            ; |185| 
     887 00000100 FFC2          LSR       AL,3                  ; |185| 
     888 00000101 2DA9          MOV       T,AL                  ; |185| 
     889 00000102 8A46          MOVL      XAR4,*-SP[6]          ; |185| 
     890 00000103 1247          MPY       ACC,T,*-SP[7]         ; |185| 
     891 00000104 9448          ADD       AL,*-SP[8]            ; |185| 
     892 00000105 58A9          MOVZ      AR0,AL                ; |185| 
     893 00000106 9294          MOV       AL,*+XAR4[AR0]        ; |185| 
     894 00000107 964A          MOV       *-SP[10],AL           ; |185| 
     895                      .dwpsn  "GUI_lcd_driver.c",186,10
     896 00000108 2B49          MOV       *-SP[9],#0            ; |186| 
     897                      .dwpsn  "GUI_lcd_driver.c",186,22
     898 00000109 9249          MOV       AL,*-SP[9]            ; |186| 
     899 0000010a 5208          CMPB      AL,#8                 ; |186| 
TMS320C2000 COFF Assembler PC v4.1.3 Mon Dec 03 13:50:31 2012

Tools Copyright (c) 1996-2006 Texas Instruments Incorporated
C:\DOCUME~1\ADMINI~1\LOCALS~1\Temp\TI9922                            PAGE   18

     900 0000010b 6711          B         L12,HIS               ; |186| 
     901                      ; branchcc occurs ; |186| 
     902              DW$L$_lcd_driver_ASCcode_display$6$E:
     903              L9:    
     904              DW$L$_lcd_driver_ASCcode_display$7$B:
     905                      .dwpsn  "GUI_lcd_driver.c",188,5
     906 0000010c 9A80          MOVB      AL,#128               ; |188| 
     907 0000010d 2D49          MOV       T,*-SP[9]             ; |188| 
     908 0000010e FF62          LSR       AL,T                  ; |188| 
     909 0000010f CE4A          AND       AL,*-SP[10]           ; |188| 
     910 00000110 ED05          BF        L10,NEQ               ; |188| 
     911                      ; branchcc occurs ; |188| 
     912              DW$L$_lcd_driver_ASCcode_display$7$E:
     913              DW$L$_lcd_driver_ASCcode_display$8$B:
     914                      .dwpsn  "GUI_lcd_driver.c",188,42
     915 00000111 924B          MOV       AL,*-SP[11]           ; |188| 
     916 00000112 7640'         LCR       #_lcd_driver_write_data ; |188| 
         00000113 000C 
     917                      ; call occurs [#_lcd_driver_write_data] ; |188| 
     918 00000114 6F04          B         L11,UNC               ; |188| 
     919                      ; branch occurs ; |188| 
     920              DW$L$_lcd_driver_ASCcode_display$8$E:
     921              L10:    
     922              DW$L$_lcd_driver_ASCcode_display$9$B:
     923                      .dwpsn  "GUI_lcd_driver.c",189,10
     924 00000115 9250          MOV       AL,*-SP[16]           ; |189| 
     925 00000116 7640'         LCR       #_lcd_driver_write_data ; |189| 
         00000117 000C 
     926                      ; call occurs [#_lcd_driver_write_data] ; |189| 
     927              DW$L$_lcd_driver_ASCcode_display$9$E:
     928              L11:    
     929              DW$L$_lcd_driver_ASCcode_display$10$B:
     930                      .dwpsn  "GUI_lcd_driver.c",186,34
     931 00000118 0A49          INC       *-SP[9]               ; |186| 
     932                      .dwpsn  "GUI_lcd_driver.c",186,22
     933 00000119 9249          MOV       AL,*-SP[9]            ; |186| 
     934 0000011a 5208          CMPB      AL,#8                 ; |186| 
     935 0000011b 68F1          B         L9,LO                 ; |186| 
     936                      ; branchcc occurs ; |186| 
     937              DW$L$_lcd_driver_ASCcode_display$10$E:
     938              L12:    
     939              DW$L$_lcd_driver_ASCcode_display$11$B:
     940                      .dwpsn  "GUI_lcd_driver.c",181,44
     941 0000011c 0A48          INC       *-SP[8]               ; |181| 
     942              DW$L$_lcd_driver_ASCcode_display$11$E:
     943              L13:    
     944              DW$L$_lcd_driver_ASCcode_display$12$B:
     945                      .dwpsn  "GUI_lcd_driver.c",181,21
     946 0000011d 9243          MOV       AL,*-SP[3]            ; |181| 
     947 0000011e FFC2          LSR       AL,3                  ; |181| 
     948 0000011f 5448          CMP       AL,*-SP[8]            ; |181| 
     949 00000120 66D4          B         L8,HI                 ; |181| 
     950                      ; branchcc occurs ; |181| 
     951              DW$L$_lcd_driver_ASCcode_display$12$E:
     952              DW$L$_lcd_driver_ASCcode_display$13$B:
TMS320C2000 COFF Assembler PC v4.1.3 Mon Dec 03 13:50:31 2012

Tools Copyright (c) 1996-2006 Texas Instruments Incorporated
C:\DOCUME~1\ADMINI~1\LOCALS~1\Temp\TI9922                            PAGE   19

     953                      .dwpsn  "GUI_lcd_driver.c",179,35
     954 00000121 0A47          INC       *-SP[7]               ; |179| 
     955                      .dwpsn  "GUI_lcd_driver.c",179,20
     956 00000122 924F          MOV       AL,*-SP[15]           ; |179| 
     957 00000123 5447          CMP       AL,*-SP[7]            ; |179| 
     958 00000124 66CE          B         L7,HI                 ; |179| 
     959                      ; branchcc occurs ; |179| 
     960              DW$L$_lcd_driver_ASCcode_display$13$E:
     961                      .dwpsn  "GUI_lcd_driver.c",193,2
     962              L14:    
     963                      .dwpsn  "GUI_lcd_driver.c",194,1
     964 00000125 FE8C          SUBB      SP,#12
     965                      .dwcfa  0x1d, -2
     966 00000126 0006          LRETR
     967                      ; return occurs
     968              
     969              DW$74   .dwtag  DW_TAG_loop
     970                      .dwattr DW$74, DW_AT_name("C:\DOCUME~1\ADMINI~1\LOCALS~1\Temp\TI9922:L7:1:1354513831")
     971                      .dwattr DW$74, DW_AT_begin_file("GUI_lcd_driver.c")
     972                      .dwattr DW$74, DW_AT_begin_line(0xb3)
     973                      .dwattr DW$74, DW_AT_end_line(0xc0)
     974              DW$75   .dwtag  DW_TAG_loop_range
     975                      .dwattr DW$75, DW_AT_low_pc(DW$L$_lcd_driver_ASCcode_display$5$B)
     976                      .dwattr DW$75, DW_AT_high_pc(DW$L$_lcd_driver_ASCcode_display$5$E)
     977              DW$76   .dwtag  DW_TAG_loop_range
     978                      .dwattr DW$76, DW_AT_low_pc(DW$L$_lcd_driver_ASCcode_display$13$B)
     979                      .dwattr DW$76, DW_AT_high_pc(DW$L$_lcd_driver_ASCcode_display$13$E)
     980              
     981              DW$77   .dwtag  DW_TAG_loop
     982                      .dwattr DW$77, DW_AT_name("C:\DOCUME~1\ADMINI~1\LOCALS~1\Temp\TI9922:L13:2:1354513831")
     983                      .dwattr DW$77, DW_AT_begin_file("GUI_lcd_driver.c")
     984                      .dwattr DW$77, DW_AT_begin_line(0xb5)
     985                      .dwattr DW$77, DW_AT_end_line(0xba)
     986              DW$78   .dwtag  DW_TAG_loop_range
     987                      .dwattr DW$78, DW_AT_low_pc(DW$L$_lcd_driver_ASCcode_display$12$B)
     988                      .dwattr DW$78, DW_AT_high_pc(DW$L$_lcd_driver_ASCcode_display$12$E)
     989              DW$79   .dwtag  DW_TAG_loop_range
     990                      .dwattr DW$79, DW_AT_low_pc(DW$L$_lcd_driver_ASCcode_display$6$B)
     991                      .dwattr DW$79, DW_AT_high_pc(DW$L$_lcd_driver_ASCcode_display$6$E)
     992              DW$80   .dwtag  DW_TAG_loop_range
     993                      .dwattr DW$80, DW_AT_low_pc(DW$L$_lcd_driver_ASCcode_display$11$B)
     994                      .dwattr DW$80, DW_AT_high_pc(DW$L$_lcd_driver_ASCcode_display$11$E)
     995              
     996              DW$81   .dwtag  DW_TAG_loop
     997                      .dwattr DW$81, DW_AT_name("C:\DOCUME~1\ADMINI~1\LOCALS~1\Temp\TI9922:L9:3:1354513831")
     998                      .dwattr DW$81, DW_AT_begin_file("GUI_lcd_driver.c")
     999                      .dwattr DW$81, DW_AT_begin_line(0xba)
    1000                      .dwattr DW$81, DW_AT_end_line(0xbe)
    1001              DW$82   .dwtag  DW_TAG_loop_range
    1002                      .dwattr DW$82, DW_AT_low_pc(DW$L$_lcd_driver_ASCcode_display$7$B)
    1003                      .dwattr DW$82, DW_AT_high_pc(DW$L$_lcd_driver_ASCcode_display$7$E)
    1004              DW$83   .dwtag  DW_TAG_loop_range
    1005                      .dwattr DW$83, DW_AT_low_pc(DW$L$_lcd_driver_ASCcode_display$8$B)
    1006                      .dwattr DW$83, DW_AT_high_pc(DW$L$_lcd_driver_ASCcode_display$8$E)
    1007              DW$84   .dwtag  DW_TAG_loop_range
TMS320C2000 COFF Assembler PC v4.1.3 Mon Dec 03 13:50:31 2012

Tools Copyright (c) 1996-2006 Texas Instruments Incorporated
C:\DOCUME~1\ADMINI~1\LOCALS~1\Temp\TI9922                            PAGE   20

    1008                      .dwattr DW$84, DW_AT_low_pc(DW$L$_lcd_driver_ASCcode_display$9$B)
    1009                      .dwattr DW$84, DW_AT_high_pc(DW$L$_lcd_driver_ASCcode_display$9$E)
    1010              DW$85   .dwtag  DW_TAG_loop_range
    1011                      .dwattr DW$85, DW_AT_low_pc(DW$L$_lcd_driver_ASCcode_display$10$B)
    1012                      .dwattr DW$85, DW_AT_high_pc(DW$L$_lcd_driver_ASCcode_display$10$E)
    1013                      .dwendtag DW$81
    1014              
    1015                      .dwendtag DW$77
    1016              
    1017                      .dwendtag DW$74
    1018              
    1019                      .dwattr DW$57, DW_AT_end_file("GUI_lcd_driver.c")
    1020                      .dwattr DW$57, DW_AT_end_line(0xc2)
    1021                      .dwattr DW$57, DW_AT_end_column(0x01)
    1022                      .dwendentry
    1023                      .dwendtag DW$57
    1024              
    1025 00000127               .sect   ".text"
    1026                      .global _lcd_driver_HZASCcode_display
    1027              
    1028              DW$86   .dwtag  DW_TAG_subprogram, DW_AT_name("lcd_driver_HZASCcode_display"), DW_AT_symbol_name("_lcd_driver
    1029                      .dwattr DW$86, DW_AT_low_pc(_lcd_driver_HZASCcode_display)
    1030                      .dwattr DW$86, DW_AT_high_pc(0x00)
    1031                      .dwattr DW$86, DW_AT_begin_file("GUI_lcd_driver.c")
    1032                      .dwattr DW$86, DW_AT_begin_line(0xc9)
    1033                      .dwattr DW$86, DW_AT_begin_column(0x06)
    1034                      .dwpsn  "GUI_lcd_driver.c",204,1
    1035              
    1036                      .dwfde DW$CIE
    1037              
    1038              ;***************************************************************
    1039              ;* FNAME: _lcd_driver_HZASCcode_display FR SIZE:  12           *
    1040              ;*                                                             *
    1041              ;* FUNCTION ENVIRONMENT                                        *
    1042              ;*                                                             *
    1043              ;* FUNCTION PROPERTIES                                         *
    1044              ;*                            0 Parameter, 11 Auto,  0 SOE     *
    1045              ;***************************************************************
    1046              
    1047              _lcd_driver_HZASCcode_display:
    1048                      .dwcfa  0x1d, -2
    1049                      .dwcfa  0x1c, 26, 0
    1050                      .dwcfa  0x09, 40, 26
    1051 00000127 FE0C          ADDB      SP,#12
    1052                      .dwcfa  0x1d, -14
    1053              ;* AL    assigned to _x
    1054              DW$87   .dwtag  DW_TAG_formal_parameter, DW_AT_name("x"), DW_AT_symbol_name("_x")
    1055                      .dwattr DW$87, DW_AT_type(*DW$T$11)
    1056                      .dwattr DW$87, DW_AT_location[DW_OP_reg0]
    1057              ;* AH    assigned to _y
    1058              DW$88   .dwtag  DW_TAG_formal_parameter, DW_AT_name("y"), DW_AT_symbol_name("_y")
    1059                      .dwattr DW$88, DW_AT_type(*DW$T$11)
    1060                      .dwattr DW$88, DW_AT_location[DW_OP_reg1]
    1061              ;* AR5   assigned to _wide
    1062              DW$89   .dwtag  DW_TAG_formal_parameter, DW_AT_name("wide"), DW_AT_symbol_name("_wide")
TMS320C2000 COFF Assembler PC v4.1.3 Mon Dec 03 13:50:31 2012

Tools Copyright (c) 1996-2006 Texas Instruments Incorporated
C:\DOCUME~1\ADMINI~1\LOCALS~1\Temp\TI9922                            PAGE   21

    1063                      .dwattr DW$89, DW_AT_type(*DW$T$140)
    1064                      .dwattr DW$89, DW_AT_location[DW_OP_reg14]
    1065              DW$90   .dwtag  DW_TAG_formal_parameter, DW_AT_name("high"), DW_AT_symbol_name("_high")
    1066                      .dwattr DW$90, DW_AT_type(*DW$T$140)
    1067                      .dwattr DW$90, DW_AT_location[DW_OP_breg20 -15]
    1068              DW$91   .dwtag  DW_TAG_formal_parameter, DW_AT_name("real_wide"), DW_AT_symbol_name("_real_wide")
    1069                      .dwattr DW$91, DW_AT_type(*DW$T$140)
    1070                      .dwattr DW$91, DW_AT_location[DW_OP_breg20 -16]
    1071              DW$92   .dwtag  DW_TAG_formal_parameter, DW_AT_name("Fcolor"), DW_AT_symbol_name("_Fcolor")
    1072                      .dwattr DW$92, DW_AT_type(*DW$T$140)
    1073                      .dwattr DW$92, DW_AT_location[DW_OP_breg20 -17]
    1074              DW$93   .dwtag  DW_TAG_formal_parameter, DW_AT_name("Bcolor"), DW_AT_symbol_name("_Bcolor")
    1075                      .dwattr DW$93, DW_AT_type(*DW$T$140)
    1076                      .dwattr DW$93, DW_AT_location[DW_OP_breg20 -18]
    1077              ;* AR4   assigned to _pbuf
    1078              DW$94   .dwtag  DW_TAG_formal_parameter, DW_AT_name("pbuf"), DW_AT_symbol_name("_pbuf")
    1079                      .dwattr DW$94, DW_AT_type(*DW$T$152)
    1080                      .dwattr DW$94, DW_AT_location[DW_OP_reg12]
    1081              DW$95   .dwtag  DW_TAG_variable, DW_AT_name("x"), DW_AT_symbol_name("_x")
    1082                      .dwattr DW$95, DW_AT_type(*DW$T$11)
    1083                      .dwattr DW$95, DW_AT_location[DW_OP_breg20 -1]
    1084              DW$96   .dwtag  DW_TAG_variable, DW_AT_name("y"), DW_AT_symbol_name("_y")
    1085                      .dwattr DW$96, DW_AT_type(*DW$T$11)
    1086                      .dwattr DW$96, DW_AT_location[DW_OP_breg20 -2]
    1087              DW$97   .dwtag  DW_TAG_variable, DW_AT_name("wide"), DW_AT_symbol_name("_wide")
    1088                      .dwattr DW$97, DW_AT_type(*DW$T$140)
    1089                      .dwattr DW$97, DW_AT_location[DW_OP_breg20 -3]
    1090              DW$98   .dwtag  DW_TAG_variable, DW_AT_name("pbuf"), DW_AT_symbol_name("_pbuf")
    1091                      .dwattr DW$98, DW_AT_type(*DW$T$152)
    1092                      .dwattr DW$98, DW_AT_location[DW_OP_breg20 -6]
    1093              DW$99   .dwtag  DW_TAG_variable, DW_AT_name("Hoffset"), DW_AT_symbol_name("_Hoffset")
    1094                      .dwattr DW$99, DW_AT_type(*DW$T$140)
    1095                      .dwattr DW$99, DW_AT_location[DW_OP_breg20 -7]
    1096              DW$100  .dwtag  DW_TAG_variable, DW_AT_name("Woffset"), DW_AT_symbol_name("_Woffset")
    1097                      .dwattr DW$100, DW_AT_type(*DW$T$140)
    1098                      .dwattr DW$100, DW_AT_location[DW_OP_breg20 -8]
    1099              DW$101  .dwtag  DW_TAG_variable, DW_AT_name("Boffset"), DW_AT_symbol_name("_Boffset")
    1100                      .dwattr DW$101, DW_AT_type(*DW$T$140)
    1101                      .dwattr DW$101, DW_AT_location[DW_OP_breg20 -9]
    1102              DW$102  .dwtag  DW_TAG_variable, DW_AT_name("cdata"), DW_AT_symbol_name("_cdata")
    1103                      .dwattr DW$102, DW_AT_type(*DW$T$143)
    1104                      .dwattr DW$102, DW_AT_location[DW_OP_breg20 -10]
    1105              DW$103  .dwtag  DW_TAG_variable, DW_AT_name("B_Color"), DW_AT_symbol_name("_B_Color")
    1106                      .dwattr DW$103, DW_AT_type(*DW$T$6)
    1107                      .dwattr DW$103, DW_AT_location[DW_OP_breg20 -11]
    1108 00000128 A846          MOVL      *-SP[6],XAR4          ; |204| 
    1109 00000129 7D43          MOV       *-SP[3],AR5           ; |204| 
    1110 0000012a 9742          MOV       *-SP[2],AH            ; |204| 
    1111 0000012b 9641          MOV       *-SP[1],AL            ; |204| 
    1112                      .dwpsn  "GUI_lcd_driver.c",205,10
    1113 0000012c 2B47          MOV       *-SP[7],#0            ; |205| 
    1114                      .dwpsn  "GUI_lcd_driver.c",206,10
    1115 0000012d 2B48          MOV       *-SP[8],#0            ; |206| 
    1116                      .dwpsn  "GUI_lcd_driver.c",207,10
    1117 0000012e 2B49          MOV       *-SP[9],#0            ; |207| 
TMS320C2000 COFF Assembler PC v4.1.3 Mon Dec 03 13:50:31 2012

Tools Copyright (c) 1996-2006 Texas Instruments Incorporated
C:\DOCUME~1\ADMINI~1\LOCALS~1\Temp\TI9922                            PAGE   22

    1118                      .dwpsn  "GUI_lcd_driver.c",209,10
    1119 0000012f 2B4B          MOV       *-SP[11],#0           ; |209| 
    1120                      .dwpsn  "GUI_lcd_driver.c",210,2
    1121 00000130 9251          MOV       AL,*-SP[17]           ; |210| 
    1122 00000131 52FF          CMPB      AL,#255               ; |210| 
    1123 00000132 6904          B         L15,LOS               ; |210| 
    1124                      ; branchcc occurs ; |210| 
    1125 00000133 FFC7          LSR       AL,8                  ; |210| 
    1126 00000134 964B          MOV       *-SP[11],AL           ; |210| 
    1127 00000135 6F03          B         L16,UNC               ; |210| 
    1128                      ; branch occurs ; |210| 
    1129 00000136       L15:    
    1130 00000136 9252          MOV       AL,*-SP[18]           ; |210| 
    1131 00000137 964B          MOV       *-SP[11],AL           ; |210| 
    1132              L16:    
    1133                      .dwpsn  "GUI_lcd_driver.c",213,2
    1134 00000138 9A10          MOVB      AL,#16                ; |213| 
    1135 00000139 7640'         LCR       #_lcd_driver_write_cmd ; |213| 
         0000013a 0000 
    1136                      ; call occurs [#_lcd_driver_write_cmd] ; |213| 
    1137                      .dwpsn  "GUI_lcd_driver.c",214,2
    1138 0000013b 9A00          MOVB      AL,#0
    1139 0000013c 7640'         LCR       #_lcd_driver_write_cmd_data ; |214| 
         0000013d 0017 
    1140                      ; call occurs [#_lcd_driver_write_cmd_data] ; |214| 
    1141                      .dwpsn  "GUI_lcd_driver.c",215,8
    1142 0000013e 2B47          MOV       *-SP[7],#0            ; |215| 
    1143                      .dwpsn  "GUI_lcd_driver.c",215,20
    1144 0000013f 924F          MOV       AL,*-SP[15]           ; |215| 
    1145 00000140 5447          CMP       AL,*-SP[7]            ; |215| 
    1146 00000141 6937          B         L24,LOS               ; |215| 
    1147                      ; branchcc occurs ; |215| 
    1148              L17:    
    1149              DW$L$_lcd_driver_HZASCcode_display$5$B:
    1150                      .dwpsn  "GUI_lcd_driver.c",217,9
    1151 00000142 2B48          MOV       *-SP[8],#0            ; |217| 
    1152 00000143 6F2D          B         L23,UNC               ; |217| 
    1153                      ; branch occurs ; |217| 
    1154              DW$L$_lcd_driver_HZASCcode_display$5$E:
    1155              L18:    
    1156              DW$L$_lcd_driver_HZASCcode_display$6$B:
    1157                      .dwpsn  "GUI_lcd_driver.c",219,4
    1158 00000144 5603          MOV       ACC,*-SP[8] << #3     ; |219| 
         00000145 0348 
    1159 00000146 9441          ADD       AL,*-SP[1]            ; |219| 
    1160 00000147 D401          MOVB      XAR4,#1               ; |219| 
    1161 00000148 9347          MOV       AH,*-SP[7]            ; |219| 
    1162 00000149 9542          ADD       AH,*-SP[2]            ; |219| 
    1163 0000014a 7640'         LCR       #_lcd_driver_clear_dot ; |219| 
         0000014b 004A 
    1164                      ; call occurs [#_lcd_driver_clear_dot] ; |219| 
    1165                      .dwpsn  "GUI_lcd_driver.c",220,4
    1166 0000014c 9A1F          MOVB      AL,#31                ; |220| 
    1167 0000014d 7640'         LCR       #_lcd_driver_write_cmd ; |220| 
         0000014e 0000 
TMS320C2000 COFF Assembler PC v4.1.3 Mon Dec 03 13:50:31 2012

Tools Copyright (c) 1996-2006 Texas Instruments Incorporated
C:\DOCUME~1\ADMINI~1\LOCALS~1\Temp\TI9922                            PAGE   23

    1168                      ; call occurs [#_lcd_driver_write_cmd] ; |220| 
    1169                      .dwpsn  "GUI_lcd_driver.c",221,4
    1170 0000014f 9243          MOV       AL,*-SP[3]            ; |221| 
    1171 00000150 FFC2          LSR       AL,3                  ; |221| 
    1172 00000151 2DA9          MOV       T,AL                  ; |221| 
    1173 00000152 8A46          MOVL      XAR4,*-SP[6]          ; |221| 
    1174 00000153 1247          MPY       ACC,T,*-SP[7]         ; |221| 
    1175 00000154 9448          ADD       AL,*-SP[8]            ; |221| 
    1176 00000155 58A9          MOVZ      AR0,AL                ; |221| 
    1177 00000156 9294          MOV       AL,*+XAR4[AR0]        ; |221| 
    1178 00000157 964A          MOV       *-SP[10],AL           ; |221| 
    1179                      .dwpsn  "GUI_lcd_driver.c",222,10
    1180 00000158 2B49          MOV       *-SP[9],#0            ; |222| 
    1181                      .dwpsn  "GUI_lcd_driver.c",222,22
    1182 00000159 9249          MOV       AL,*-SP[9]            ; |222| 
    1183 0000015a 5208          CMPB      AL,#8                 ; |222| 
    1184 0000015b 6714          B         L22,HIS               ; |222| 
    1185                      ; branchcc occurs ; |222| 
    1186              DW$L$_lcd_driver_HZASCcode_display$6$E:
    1187              L19:    
    1188              DW$L$_lcd_driver_HZASCcode_display$7$B:
    1189                      .dwpsn  "GUI_lcd_driver.c",224,8
    1190 0000015c 9250          MOV       AL,*-SP[16]           ; |224| 
    1191 0000015d 5449          CMP       AL,*-SP[9]            ; |224| 
    1192 0000015e 680D          B         L21,LO                ; |224| 
    1193                      ; branchcc occurs ; |224| 
    1194              DW$L$_lcd_driver_HZASCcode_display$7$E:
    1195              DW$L$_lcd_driver_HZASCcode_display$8$B:
    1196                      .dwpsn  "GUI_lcd_driver.c",224,29
    1197                      .dwpsn  "GUI_lcd_driver.c",225,5
    1198 0000015f 9A80          MOVB      AL,#128               ; |225| 
    1199 00000160 2D49          MOV       T,*-SP[9]             ; |225| 
    1200 00000161 FF62          LSR       AL,T                  ; |225| 
    1201 00000162 CE4A          AND       AL,*-SP[10]           ; |225| 
    1202 00000163 ED05          BF        L20,NEQ               ; |225| 
    1203                      ; branchcc occurs ; |225| 
    1204              DW$L$_lcd_driver_HZASCcode_display$8$E:
    1205              DW$L$_lcd_driver_HZASCcode_display$9$B:
    1206                      .dwpsn  "GUI_lcd_driver.c",225,42
    1207 00000164 924B          MOV       AL,*-SP[11]           ; |225| 
    1208 00000165 7640'         LCR       #_lcd_driver_write_data ; |225| 
         00000166 000C 
    1209                      ; call occurs [#_lcd_driver_write_data] ; |225| 
    1210 00000167 6F04          B         L21,UNC               ; |225| 
    1211                      ; branch occurs ; |225| 
    1212              DW$L$_lcd_driver_HZASCcode_display$9$E:
    1213              L20:    
    1214              DW$L$_lcd_driver_HZASCcode_display$10$B:
    1215                      .dwpsn  "GUI_lcd_driver.c",226,10
    1216 00000168 9251          MOV       AL,*-SP[17]           ; |226| 
    1217 00000169 7640'         LCR       #_lcd_driver_write_data ; |226| 
         0000016a 000C 
    1218                      ; call occurs [#_lcd_driver_write_data] ; |226| 
    1219              DW$L$_lcd_driver_HZASCcode_display$10$E:
    1220              L21:    
TMS320C2000 COFF Assembler PC v4.1.3 Mon Dec 03 13:50:31 2012

Tools Copyright (c) 1996-2006 Texas Instruments Incorporated
C:\DOCUME~1\ADMINI~1\LOCALS~1\Temp\TI9922                            PAGE   24

    1221              DW$L$_lcd_driver_HZASCcode_display$11$B:
    1222                      .dwpsn  "GUI_lcd_driver.c",222,34
    1223 0000016b 0A49          INC       *-SP[9]               ; |222| 
    1224                      .dwpsn  "GUI_lcd_driver.c",222,22
    1225 0000016c 9249          MOV       AL,*-SP[9]            ; |222| 
    1226 0000016d 5208          CMPB      AL,#8                 ; |222| 
    1227 0000016e 68EE          B         L19,LO                ; |222| 
    1228                      ; branchcc occurs ; |222| 
    1229              DW$L$_lcd_driver_HZASCcode_display$11$E:
    1230              L22:    
    1231              DW$L$_lcd_driver_HZASCcode_display$12$B:
    1232                      .dwpsn  "GUI_lcd_driver.c",217,44
    1233 0000016f 0A48          INC       *-SP[8]               ; |217| 
    1234              DW$L$_lcd_driver_HZASCcode_display$12$E:
    1235              L23:    
    1236              DW$L$_lcd_driver_HZASCcode_display$13$B:
    1237                      .dwpsn  "GUI_lcd_driver.c",217,21
    1238 00000170 9243          MOV       AL,*-SP[3]            ; |217| 
    1239 00000171 FFC2          LSR       AL,3                  ; |217| 
    1240 00000172 5448          CMP       AL,*-SP[8]            ; |217| 
    1241 00000173 66D1          B         L18,HI                ; |217| 
    1242                      ; branchcc occurs ; |217| 
    1243              DW$L$_lcd_driver_HZASCcode_display$13$E:
    1244              DW$L$_lcd_driver_HZASCcode_display$14$B:
    1245                      .dwpsn  "GUI_lcd_driver.c",215,35
    1246 00000174 0A47          INC       *-SP[7]               ; |215| 
    1247                      .dwpsn  "GUI_lcd_driver.c",215,20
    1248 00000175 924F          MOV       AL,*-SP[15]           ; |215| 
    1249 00000176 5447          CMP       AL,*-SP[7]            ; |215| 
    1250 00000177 66CB          B         L17,HI                ; |215| 
    1251                      ; branchcc occurs ; |215| 
    1252              DW$L$_lcd_driver_HZASCcode_display$14$E:
    1253                      .dwpsn  "GUI_lcd_driver.c",230,2
    1254              L24:    
    1255                      .dwpsn  "GUI_lcd_driver.c",231,1
    1256 00000178 FE8C          SUBB      SP,#12
    1257                      .dwcfa  0x1d, -2
    1258 00000179 0006          LRETR
    1259                      ; return occurs
    1260              
    1261              DW$104  .dwtag  DW_TAG_loop
    1262                      .dwattr DW$104, DW_AT_name("C:\DOCUME~1\ADMINI~1\LOCALS~1\Temp\TI9922:L17:1:1354513831")
    1263                      .dwattr DW$104, DW_AT_begin_file("GUI_lcd_driver.c")
    1264                      .dwattr DW$104, DW_AT_begin_line(0xd7)
    1265                      .dwattr DW$104, DW_AT_end_line(0xe5)
    1266              DW$105  .dwtag  DW_TAG_loop_range
    1267                      .dwattr DW$105, DW_AT_low_pc(DW$L$_lcd_driver_HZASCcode_display$5$B)
    1268                      .dwattr DW$105, DW_AT_high_pc(DW$L$_lcd_driver_HZASCcode_display$5$E)
    1269              DW$106  .dwtag  DW_TAG_loop_range
    1270                      .dwattr DW$106, DW_AT_low_pc(DW$L$_lcd_driver_HZASCcode_display$14$B)
    1271                      .dwattr DW$106, DW_AT_high_pc(DW$L$_lcd_driver_HZASCcode_display$14$E)
    1272              
    1273              DW$107  .dwtag  DW_TAG_loop
    1274                      .dwattr DW$107, DW_AT_name("C:\DOCUME~1\ADMINI~1\LOCALS~1\Temp\TI9922:L23:2:1354513831")
    1275                      .dwattr DW$107, DW_AT_begin_file("GUI_lcd_driver.c")
TMS320C2000 COFF Assembler PC v4.1.3 Mon Dec 03 13:50:31 2012

Tools Copyright (c) 1996-2006 Texas Instruments Incorporated
C:\DOCUME~1\ADMINI~1\LOCALS~1\Temp\TI9922                            PAGE   25

    1276                      .dwattr DW$107, DW_AT_begin_line(0xd9)
    1277                      .dwattr DW$107, DW_AT_end_line(0xde)
    1278              DW$108  .dwtag  DW_TAG_loop_range
    1279                      .dwattr DW$108, DW_AT_low_pc(DW$L$_lcd_driver_HZASCcode_display$13$B)
    1280                      .dwattr DW$108, DW_AT_high_pc(DW$L$_lcd_driver_HZASCcode_display$13$E)
    1281              DW$109  .dwtag  DW_TAG_loop_range
    1282                      .dwattr DW$109, DW_AT_low_pc(DW$L$_lcd_driver_HZASCcode_display$6$B)
    1283                      .dwattr DW$109, DW_AT_high_pc(DW$L$_lcd_driver_HZASCcode_display$6$E)
    1284              DW$110  .dwtag  DW_TAG_loop_range
    1285                      .dwattr DW$110, DW_AT_low_pc(DW$L$_lcd_driver_HZASCcode_display$12$B)
    1286                      .dwattr DW$110, DW_AT_high_pc(DW$L$_lcd_driver_HZASCcode_display$12$E)
    1287              
    1288              DW$111  .dwtag  DW_TAG_loop
    1289                      .dwattr DW$111, DW_AT_name("C:\DOCUME~1\ADMINI~1\LOCALS~1\Temp\TI9922:L19:3:1354513831")
    1290                      .dwattr DW$111, DW_AT_begin_file("GUI_lcd_driver.c")
    1291                      .dwattr DW$111, DW_AT_begin_line(0xde)
    1292                      .dwattr DW$111, DW_AT_end_line(0xe3)
    1293              DW$112  .dwtag  DW_TAG_loop_range
    1294                      .dwattr DW$112, DW_AT_low_pc(DW$L$_lcd_driver_HZASCcode_display$7$B)
    1295                      .dwattr DW$112, DW_AT_high_pc(DW$L$_lcd_driver_HZASCcode_display$7$E)
    1296              DW$113  .dwtag  DW_TAG_loop_range
    1297                      .dwattr DW$113, DW_AT_low_pc(DW$L$_lcd_driver_HZASCcode_display$8$B)
    1298                      .dwattr DW$113, DW_AT_high_pc(DW$L$_lcd_driver_HZASCcode_display$8$E)
    1299              DW$114  .dwtag  DW_TAG_loop_range
    1300                      .dwattr DW$114, DW_AT_low_pc(DW$L$_lcd_driver_HZASCcode_display$9$B)
    1301                      .dwattr DW$114, DW_AT_high_pc(DW$L$_lcd_driver_HZASCcode_display$9$E)
    1302              DW$115  .dwtag  DW_TAG_loop_range
    1303                      .dwattr DW$115, DW_AT_low_pc(DW$L$_lcd_driver_HZASCcode_display$10$B)
    1304                      .dwattr DW$115, DW_AT_high_pc(DW$L$_lcd_driver_HZASCcode_display$10$E)
    1305              DW$116  .dwtag  DW_TAG_loop_range
    1306                      .dwattr DW$116, DW_AT_low_pc(DW$L$_lcd_driver_HZASCcode_display$11$B)
    1307                      .dwattr DW$116, DW_AT_high_pc(DW$L$_lcd_driver_HZASCcode_display$11$E)
    1308                      .dwendtag DW$111
    1309              
    1310                      .dwendtag DW$107
    1311              
    1312                      .dwendtag DW$104
    1313              
    1314                      .dwattr DW$86, DW_AT_end_file("GUI_lcd_driver.c")
    1315                      .dwattr DW$86, DW_AT_end_line(0xe7)
    1316                      .dwattr DW$86, DW_AT_end_column(0x01)
    1317                      .dwendentry
    1318                      .dwendtag DW$86
    1319              
    1320 0000017a               .sect   ".text"
    1321                      .global _lcd_driver_read_block_Ext
    1322              
    1323              DW$117  .dwtag  DW_TAG_subprogram, DW_AT_name("lcd_driver_read_block_Ext"), DW_AT_symbol_name("_lcd_driver_re
    1324                      .dwattr DW$117, DW_AT_low_pc(_lcd_driver_read_block_Ext)
    1325                      .dwattr DW$117, DW_AT_high_pc(0x00)
    1326                      .dwattr DW$117, DW_AT_begin_file("GUI_lcd_driver.c")
    1327                      .dwattr DW$117, DW_AT_begin_line(0xea)
    1328                      .dwattr DW$117, DW_AT_begin_column(0x07)
    1329                      .dwpsn  "GUI_lcd_driver.c",241,1
    1330              
TMS320C2000 COFF Assembler PC v4.1.3 Mon Dec 03 13:50:31 2012

Tools Copyright (c) 1996-2006 Texas Instruments Incorporated
C:\DOCUME~1\ADMINI~1\LOCALS~1\Temp\TI9922                            PAGE   26

    1331                      .dwfde DW$CIE
    1332              
    1333              ;***************************************************************
    1334              ;* FNAME: _lcd_driver_read_block_Ext    FR SIZE:   4           *
    1335              ;*                                                             *
    1336              ;* FUNCTION ENVIRONMENT                                        *
    1337              ;*                                                             *
    1338              ;* FUNCTION PROPERTIES                                         *
    1339              ;*                            0 Parameter,  4 Auto,  0 SOE     *
    1340              ;***************************************************************
    1341              
    1342              _lcd_driver_read_block_Ext:
    1343                      .dwcfa  0x1d, -2
    1344                      .dwcfa  0x1c, 26, 0
    1345                      .dwcfa  0x09, 40, 26
    1346 0000017a FE04          ADDB      SP,#4
    1347                      .dwcfa  0x1d, -6
    1348              ;* AL    assigned to _x
    1349              DW$118  .dwtag  DW_TAG_formal_parameter, DW_AT_name("x"), DW_AT_symbol_name("_x")
    1350                      .dwattr DW$118, DW_AT_type(*DW$T$11)
    1351                      .dwattr DW$118, DW_AT_location[DW_OP_reg0]
    1352              ;* AH    assigned to _y
    1353              DW$119  .dwtag  DW_TAG_formal_parameter, DW_AT_name("y"), DW_AT_symbol_name("_y")
    1354                      .dwattr DW$119, DW_AT_type(*DW$T$11)
    1355                      .dwattr DW$119, DW_AT_location[DW_OP_reg1]
    1356              ;* AR4   assigned to _wide
    1357              DW$120  .dwtag  DW_TAG_formal_parameter, DW_AT_name("wide"), DW_AT_symbol_name("_wide")
    1358                      .dwattr DW$120, DW_AT_type(*DW$T$11)
    1359                      .dwattr DW$120, DW_AT_location[DW_OP_reg12]
    1360              ;* AR5   assigned to _high
    1361              DW$121  .dwtag  DW_TAG_formal_parameter, DW_AT_name("high"), DW_AT_symbol_name("_high")
    1362                      .dwattr DW$121, DW_AT_type(*DW$T$11)
    1363                      .dwattr DW$121, DW_AT_location[DW_OP_reg14]
    1364              DW$122  .dwtag  DW_TAG_formal_parameter, DW_AT_name("sector"), DW_AT_symbol_name("_sector")
    1365                      .dwattr DW$122, DW_AT_type(*DW$T$140)
    1366                      .dwattr DW$122, DW_AT_location[DW_OP_breg20 -7]
    1367              DW$123  .dwtag  DW_TAG_variable, DW_AT_name("x"), DW_AT_symbol_name("_x")
    1368                      .dwattr DW$123, DW_AT_type(*DW$T$11)
    1369                      .dwattr DW$123, DW_AT_location[DW_OP_breg20 -1]
    1370              DW$124  .dwtag  DW_TAG_variable, DW_AT_name("y"), DW_AT_symbol_name("_y")
    1371                      .dwattr DW$124, DW_AT_type(*DW$T$11)
    1372                      .dwattr DW$124, DW_AT_location[DW_OP_breg20 -2]
    1373              DW$125  .dwtag  DW_TAG_variable, DW_AT_name("wide"), DW_AT_symbol_name("_wide")
    1374                      .dwattr DW$125, DW_AT_type(*DW$T$11)
    1375                      .dwattr DW$125, DW_AT_location[DW_OP_breg20 -3]
    1376              DW$126  .dwtag  DW_TAG_variable, DW_AT_name("high"), DW_AT_symbol_name("_high")
    1377                      .dwattr DW$126, DW_AT_type(*DW$T$11)
    1378                      .dwattr DW$126, DW_AT_location[DW_OP_breg20 -4]
    1379 0000017b 7D44          MOV       *-SP[4],AR5           ; |241| 
    1380 0000017c 7C43          MOV       *-SP[3],AR4           ; |241| 
    1381 0000017d 9742          MOV       *-SP[2],AH            ; |241| 
    1382 0000017e 9641          MOV       *-SP[1],AL            ; |241| 
    1383                      .dwpsn  "GUI_lcd_driver.c",243,1
    1384 0000017f FE84          SUBB      SP,#4
    1385                      .dwcfa  0x1d, -2
TMS320C2000 COFF Assembler PC v4.1.3 Mon Dec 03 13:50:31 2012

Tools Copyright (c) 1996-2006 Texas Instruments Incorporated
C:\DOCUME~1\ADMINI~1\LOCALS~1\Temp\TI9922                            PAGE   27

    1386 00000180 0006          LRETR
    1387                      ; return occurs
    1388                      .dwattr DW$117, DW_AT_end_file("GUI_lcd_driver.c")
    1389                      .dwattr DW$117, DW_AT_end_line(0xf3)
    1390                      .dwattr DW$117, DW_AT_end_column(0x01)
    1391                      .dwendentry
    1392                      .dwendtag DW$117
    1393              
    1394 00000181               .sect   ".text"
    1395                      .global _lcd_driver_write_block_Ext
    1396              
    1397              DW$127  .dwtag  DW_TAG_subprogram, DW_AT_name("lcd_driver_write_block_Ext"), DW_AT_symbol_name("_lcd_driver_w
    1398                      .dwattr DW$127, DW_AT_low_pc(_lcd_driver_write_block_Ext)
    1399                      .dwattr DW$127, DW_AT_high_pc(0x00)
    1400                      .dwattr DW$127, DW_AT_begin_file("GUI_lcd_driver.c")
    1401                      .dwattr DW$127, DW_AT_begin_line(0xf5)
    1402                      .dwattr DW$127, DW_AT_begin_column(0x07)
    1403                      .dwpsn  "GUI_lcd_driver.c",252,1
    1404              
    1405                      .dwfde DW$CIE
    1406              
    1407              ;***************************************************************
    1408              ;* FNAME: _lcd_driver_write_block_Ext   FR SIZE:   4           *
    1409              ;*                                                             *
    1410              ;* FUNCTION ENVIRONMENT                                        *
    1411              ;*                                                             *
    1412              ;* FUNCTION PROPERTIES                                         *
    1413              ;*                            0 Parameter,  4 Auto,  0 SOE     *
    1414              ;***************************************************************
    1415              
    1416              _lcd_driver_write_block_Ext:
    1417                      .dwcfa  0x1d, -2
    1418                      .dwcfa  0x1c, 26, 0
    1419                      .dwcfa  0x09, 40, 26
    1420 00000181 FE04          ADDB      SP,#4
    1421                      .dwcfa  0x1d, -6
    1422              ;* AL    assigned to _x
    1423              DW$128  .dwtag  DW_TAG_formal_parameter, DW_AT_name("x"), DW_AT_symbol_name("_x")
    1424                      .dwattr DW$128, DW_AT_type(*DW$T$11)
    1425                      .dwattr DW$128, DW_AT_location[DW_OP_reg0]
    1426              ;* AH    assigned to _y
    1427              DW$129  .dwtag  DW_TAG_formal_parameter, DW_AT_name("y"), DW_AT_symbol_name("_y")
    1428                      .dwattr DW$129, DW_AT_type(*DW$T$11)
    1429                      .dwattr DW$129, DW_AT_location[DW_OP_reg1]
    1430              ;* AR4   assigned to _wide
    1431              DW$130  .dwtag  DW_TAG_formal_parameter, DW_AT_name("wide"), DW_AT_symbol_name("_wide")
    1432                      .dwattr DW$130, DW_AT_type(*DW$T$11)
    1433                      .dwattr DW$130, DW_AT_location[DW_OP_reg12]
    1434              ;* AR5   assigned to _high
    1435              DW$131  .dwtag  DW_TAG_formal_parameter, DW_AT_name("high"), DW_AT_symbol_name("_high")
    1436                      .dwattr DW$131, DW_AT_type(*DW$T$11)
    1437                      .dwattr DW$131, DW_AT_location[DW_OP_reg14]
    1438              DW$132  .dwtag  DW_TAG_formal_parameter, DW_AT_name("sector"), DW_AT_symbol_name("_sector")
    1439                      .dwattr DW$132, DW_AT_type(*DW$T$140)
    1440                      .dwattr DW$132, DW_AT_location[DW_OP_breg20 -7]
TMS320C2000 COFF Assembler PC v4.1.3 Mon Dec 03 13:50:31 2012

Tools Copyright (c) 1996-2006 Texas Instruments Incorporated
C:\DOCUME~1\ADMINI~1\LOCALS~1\Temp\TI9922                            PAGE   28

    1441              DW$133  .dwtag  DW_TAG_variable, DW_AT_name("x"), DW_AT_symbol_name("_x")
    1442                      .dwattr DW$133, DW_AT_type(*DW$T$11)
    1443                      .dwattr DW$133, DW_AT_location[DW_OP_breg20 -1]
    1444              DW$134  .dwtag  DW_TAG_variable, DW_AT_name("y"), DW_AT_symbol_name("_y")
    1445                      .dwattr DW$134, DW_AT_type(*DW$T$11)
    1446                      .dwattr DW$134, DW_AT_location[DW_OP_breg20 -2]
    1447              DW$135  .dwtag  DW_TAG_variable, DW_AT_name("wide"), DW_AT_symbol_name("_wide")
    1448                      .dwattr DW$135, DW_AT_type(*DW$T$11)
    1449                      .dwattr DW$135, DW_AT_location[DW_OP_breg20 -3]
    1450              DW$136  .dwtag  DW_TAG_variable, DW_AT_name("high"), DW_AT_symbol_name("_high")
    1451                      .dwattr DW$136, DW_AT_type(*DW$T$11)
    1452                      .dwattr DW$136, DW_AT_location[DW_OP_breg20 -4]
    1453 00000182 7D44          MOV       *-SP[4],AR5           ; |252| 
    1454 00000183 7C43          MOV       *-SP[3],AR4           ; |252| 
    1455 00000184 9742          MOV       *-SP[2],AH            ; |252| 
    1456 00000185 9641          MOV       *-SP[1],AL            ; |252| 
    1457                      .dwpsn  "GUI_lcd_driver.c",253,2
    1458                      .dwpsn  "GUI_lcd_driver.c",254,1
    1459 00000186 FE84          SUBB      SP,#4
    1460                      .dwcfa  0x1d, -2
    1461 00000187 0006          LRETR
    1462                      ; return occurs
    1463                      .dwattr DW$127, DW_AT_end_file("GUI_lcd_driver.c")
    1464                      .dwattr DW$127, DW_AT_end_line(0xfe)
    1465                      .dwattr DW$127, DW_AT_end_column(0x01)
    1466                      .dwendentry
    1467                      .dwendtag DW$127
    1468              
    1469 00000188               .sect   ".text"
    1470                      .global _lcd_driver_read_block
    1471              
    1472              DW$137  .dwtag  DW_TAG_subprogram, DW_AT_name("lcd_driver_read_block"), DW_AT_symbol_name("_lcd_driver_read_b
    1473                      .dwattr DW$137, DW_AT_low_pc(_lcd_driver_read_block)
    1474                      .dwattr DW$137, DW_AT_high_pc(0x00)
    1475                      .dwattr DW$137, DW_AT_begin_file("GUI_lcd_driver.c")
    1476                      .dwattr DW$137, DW_AT_begin_line(0x108)
    1477                      .dwattr DW$137, DW_AT_begin_column(0x06)
    1478                      .dwpsn  "GUI_lcd_driver.c",269,1
    1479              
    1480                      .dwfde DW$CIE
    1481              
    1482              ;***************************************************************
    1483              ;* FNAME: _lcd_driver_read_block        FR SIZE:  16           *
    1484              ;*                                                             *
    1485              ;* FUNCTION ENVIRONMENT                                        *
    1486              ;*                                                             *
    1487              ;* FUNCTION PROPERTIES                                         *
    1488              ;*                            0 Parameter, 16 Auto,  0 SOE     *
    1489              ;***************************************************************
    1490              
    1491              _lcd_driver_read_block:
    1492                      .dwcfa  0x1d, -2
    1493                      .dwcfa  0x1c, 26, 0
    1494                      .dwcfa  0x09, 40, 26
    1495 00000188 FE10          ADDB      SP,#16
TMS320C2000 COFF Assembler PC v4.1.3 Mon Dec 03 13:50:31 2012

Tools Copyright (c) 1996-2006 Texas Instruments Incorporated
C:\DOCUME~1\ADMINI~1\LOCALS~1\Temp\TI9922                            PAGE   29

    1496                      .dwcfa  0x1d, -18
    1497              ;* AL    assigned to _xcoord_start
    1498              DW$138  .dwtag  DW_TAG_formal_parameter, DW_AT_name("xcoord_start"), DW_AT_symbol_name("_xcoord_start")
    1499                      .dwattr DW$138, DW_AT_type(*DW$T$11)
    1500                      .dwattr DW$138, DW_AT_location[DW_OP_reg0]
    1501              ;* AH    assigned to _ycoord_start
    1502              DW$139  .dwtag  DW_TAG_formal_parameter, DW_AT_name("ycoord_start"), DW_AT_symbol_name("_ycoord_start")
    1503                      .dwattr DW$139, DW_AT_type(*DW$T$11)
    1504                      .dwattr DW$139, DW_AT_location[DW_OP_reg1]
    1505              ;* AR5   assigned to _xcoord_end
    1506              DW$140  .dwtag  DW_TAG_formal_parameter, DW_AT_name("xcoord_end"), DW_AT_symbol_name("_xcoord_end")
    1507                      .dwattr DW$140, DW_AT_type(*DW$T$11)
    1508                      .dwattr DW$140, DW_AT_location[DW_OP_reg14]
    1509              DW$141  .dwtag  DW_TAG_formal_parameter, DW_AT_name("ycoord_end"), DW_AT_symbol_name("_ycoord_end")
    1510                      .dwattr DW$141, DW_AT_type(*DW$T$11)
    1511                      .dwattr DW$141, DW_AT_location[DW_OP_breg20 -19]
    1512              ;* AR4   assigned to _buf
    1513              DW$142  .dwtag  DW_TAG_formal_parameter, DW_AT_name("buf"), DW_AT_symbol_name("_buf")
    1514                      .dwattr DW$142, DW_AT_type(*DW$T$148)
    1515                      .dwattr DW$142, DW_AT_location[DW_OP_reg12]
    1516              DW$143  .dwtag  DW_TAG_variable, DW_AT_name("xcoord_start"), DW_AT_symbol_name("_xcoord_start")
    1517                      .dwattr DW$143, DW_AT_type(*DW$T$11)
    1518                      .dwattr DW$143, DW_AT_location[DW_OP_breg20 -1]
    1519              DW$144  .dwtag  DW_TAG_variable, DW_AT_name("ycoord_start"), DW_AT_symbol_name("_ycoord_start")
    1520                      .dwattr DW$144, DW_AT_type(*DW$T$11)
    1521                      .dwattr DW$144, DW_AT_location[DW_OP_breg20 -2]
    1522              DW$145  .dwtag  DW_TAG_variable, DW_AT_name("xcoord_end"), DW_AT_symbol_name("_xcoord_end")
    1523                      .dwattr DW$145, DW_AT_type(*DW$T$11)
    1524                      .dwattr DW$145, DW_AT_location[DW_OP_breg20 -3]
    1525              DW$146  .dwtag  DW_TAG_variable, DW_AT_name("buf"), DW_AT_symbol_name("_buf")
    1526                      .dwattr DW$146, DW_AT_type(*DW$T$148)
    1527                      .dwattr DW$146, DW_AT_location[DW_OP_breg20 -6]
    1528              DW$147  .dwtag  DW_TAG_variable, DW_AT_name("i"), DW_AT_symbol_name("_i")
    1529                      .dwattr DW$147, DW_AT_type(*DW$T$11)
    1530                      .dwattr DW$147, DW_AT_location[DW_OP_breg20 -7]
    1531              DW$148  .dwtag  DW_TAG_variable, DW_AT_name("xx"), DW_AT_symbol_name("_xx")
    1532                      .dwattr DW$148, DW_AT_type(*DW$T$11)
    1533                      .dwattr DW$148, DW_AT_location[DW_OP_breg20 -8]
    1534              DW$149  .dwtag  DW_TAG_variable, DW_AT_name("k"), DW_AT_symbol_name("_k")
    1535                      .dwattr DW$149, DW_AT_type(*DW$T$11)
    1536                      .dwattr DW$149, DW_AT_location[DW_OP_breg20 -9]
    1537              DW$150  .dwtag  DW_TAG_variable, DW_AT_name("TempInt"), DW_AT_symbol_name("_TempInt")
    1538                      .dwattr DW$150, DW_AT_type(*DW$T$11)
    1539                      .dwattr DW$150, DW_AT_location[DW_OP_breg20 -10]
    1540              DW$151  .dwtag  DW_TAG_variable, DW_AT_name("TempInt1"), DW_AT_symbol_name("_TempInt1")
    1541                      .dwattr DW$151, DW_AT_type(*DW$T$11)
    1542                      .dwattr DW$151, DW_AT_location[DW_OP_breg20 -11]
    1543              DW$152  .dwtag  DW_TAG_variable, DW_AT_name("j"), DW_AT_symbol_name("_j")
    1544                      .dwattr DW$152, DW_AT_type(*DW$T$11)
    1545                      .dwattr DW$152, DW_AT_location[DW_OP_breg20 -12]
    1546              DW$153  .dwtag  DW_TAG_variable, DW_AT_name("yy"), DW_AT_symbol_name("_yy")
    1547                      .dwattr DW$153, DW_AT_type(*DW$T$11)
    1548                      .dwattr DW$153, DW_AT_location[DW_OP_breg20 -13]
    1549              DW$154  .dwtag  DW_TAG_variable, DW_AT_name("m"), DW_AT_symbol_name("_m")
    1550                      .dwattr DW$154, DW_AT_type(*DW$T$11)
TMS320C2000 COFF Assembler PC v4.1.3 Mon Dec 03 13:50:31 2012

Tools Copyright (c) 1996-2006 Texas Instruments Incorporated
C:\DOCUME~1\ADMINI~1\LOCALS~1\Temp\TI9922                            PAGE   30

    1551                      .dwattr DW$154, DW_AT_location[DW_OP_breg20 -14]
    1552              DW$155  .dwtag  DW_TAG_variable, DW_AT_name("BlockData"), DW_AT_symbol_name("_BlockData")
    1553                      .dwattr DW$155, DW_AT_type(*DW$T$163)
    1554                      .dwattr DW$155, DW_AT_location[DW_OP_breg20 -16]
    1555 00000189 A846          MOVL      *-SP[6],XAR4          ; |269| 
    1556 0000018a 7D43          MOV       *-SP[3],AR5           ; |269| 
    1557 0000018b 9742          MOV       *-SP[2],AH            ; |269| 
    1558 0000018c 9641          MOV       *-SP[1],AL            ; |269| 
    1559                      .dwpsn  "GUI_lcd_driver.c",272,11
    1560 0000018d 0646          MOVL      ACC,*-SP[6]           ; |272| 
    1561 0000018e 1E50          MOVL      *-SP[16],ACC          ; |272| 
    1562                      .dwpsn  "GUI_lcd_driver.c",273,2
    1563 0000018f 9243          MOV       AL,*-SP[3]            ; |273| 
    1564 00000190 9E41          SUB       AL,*-SP[1]            ; |273| 
    1565 00000191 9647          MOV       *-SP[7],AL            ; |273| 
    1566                      .dwpsn  "GUI_lcd_driver.c",274,2
    1567 00000192 9253          MOV       AL,*-SP[19]           ; |274| 
    1568 00000193 9E42          SUB       AL,*-SP[2]            ; |274| 
    1569 00000194 964C          MOV       *-SP[12],AL           ; |274| 
    1570                      .dwpsn  "GUI_lcd_driver.c",275,2
    1571 00000195 9241          MOV       AL,*-SP[1]            ; |275| 
    1572 00000196 9648          MOV       *-SP[8],AL            ; |275| 
    1573                      .dwpsn  "GUI_lcd_driver.c",276,2
    1574 00000197 9242          MOV       AL,*-SP[2]            ; |276| 
    1575 00000198 964D          MOV       *-SP[13],AL           ; |276| 
    1576                      .dwpsn  "GUI_lcd_driver.c",277,2
    1577 00000199 9A10          MOVB      AL,#16                ; |277| 
    1578 0000019a 7640'         LCR       #_lcd_driver_write_cmd ; |277| 
         0000019b 0000 
    1579                      ; call occurs [#_lcd_driver_write_cmd] ; |277| 
    1580                      .dwpsn  "GUI_lcd_driver.c",278,2
    1581 0000019c 9A00          MOVB      AL,#0
    1582 0000019d 7640'         LCR       #_lcd_driver_write_cmd_data ; |278| 
         0000019e 0017 
    1583                      ; call occurs [#_lcd_driver_write_cmd_data] ; |278| 
    1584                      .dwpsn  "GUI_lcd_driver.c",279,8
    1585 0000019f 2B4E          MOV       *-SP[14],#0           ; |279| 
    1586                      .dwpsn  "GUI_lcd_driver.c",279,14
    1587 000001a0 924C          MOV       AL,*-SP[12]           ; |279| 
    1588 000001a1 544E          CMP       AL,*-SP[14]           ; |279| 
    1589 000001a2 692A          B         L28,LOS               ; |279| 
    1590                      ; branchcc occurs ; |279| 
    1591              L25:    
    1592              DW$L$_lcd_driver_read_block$2$B:
    1593                      .dwpsn  "GUI_lcd_driver.c",281,3
    1594 000001a3 9248          MOV       AL,*-SP[8]            ; |281| 
    1595 000001a4 934E          MOV       AH,*-SP[14]           ; |281| 
    1596 000001a5 D400          MOVB      XAR4,#0
    1597 000001a6 954D          ADD       AH,*-SP[13]           ; |281| 
    1598 000001a7 7640'         LCR       #_lcd_driver_clear_dot ; |281| 
         000001a8 004A 
    1599                      ; call occurs [#_lcd_driver_clear_dot] ; |281| 
    1600                      .dwpsn  "GUI_lcd_driver.c",282,3
    1601 000001a9 9A1F          MOVB      AL,#31                ; |282| 
    1602 000001aa 7640'         LCR       #_lcd_driver_write_cmd ; |282| 
TMS320C2000 COFF Assembler PC v4.1.3 Mon Dec 03 13:50:31 2012

Tools Copyright (c) 1996-2006 Texas Instruments Incorporated
C:\DOCUME~1\ADMINI~1\LOCALS~1\Temp\TI9922                            PAGE   31

         000001ab 0000 
    1603                      ; call occurs [#_lcd_driver_write_cmd] ; |282| 
    1604                      .dwpsn  "GUI_lcd_driver.c",283,9
    1605 000001ac 2B49          MOV       *-SP[9],#0            ; |283| 
    1606                      .dwpsn  "GUI_lcd_driver.c",283,15
    1607 000001ad 9247          MOV       AL,*-SP[7]            ; |283| 
    1608 000001ae 5449          CMP       AL,*-SP[9]            ; |283| 
    1609 000001af 6919          B         L27,LOS               ; |283| 
    1610                      ; branchcc occurs ; |283| 
    1611              DW$L$_lcd_driver_read_block$2$E:
    1612              L26:    
    1613              DW$L$_lcd_driver_read_block$3$B:
    1614                      .dwpsn  "GUI_lcd_driver.c",285,4
    1615 000001b0 7640'         LCR       #_lcd_driver_read_data ; |285| 
         000001b1 0022 
    1616                      ; call occurs [#_lcd_driver_read_data] ; |285| 
    1617 000001b2 964B          MOV       *-SP[11],AL           ; |285| 
    1618                      .dwpsn  "GUI_lcd_driver.c",286,4
    1619 000001b3 5603          MOV       ACC,*-SP[11] << #8    ; |286| 
         000001b4 084B 
    1620 000001b5 964A          MOV       *-SP[10],AL           ; |286| 
    1621                      .dwpsn  "GUI_lcd_driver.c",287,4
    1622 000001b6 0A49          INC       *-SP[9]               ; |287| 
    1623                      .dwpsn  "GUI_lcd_driver.c",288,4
    1624 000001b7 7640'         LCR       #_lcd_driver_read_data ; |288| 
         000001b8 0022 
    1625                      ; call occurs [#_lcd_driver_read_data] ; |288| 
    1626 000001b9 964B          MOV       *-SP[11],AL           ; |288| 
    1627                      .dwpsn  "GUI_lcd_driver.c",289,4
    1628 000001ba 184B          AND       *-SP[11],#0x00ff      ; |289| 
         000001bb 00FF 
    1629                      .dwpsn  "GUI_lcd_driver.c",290,4
    1630 000001bc 924B          MOV       AL,*-SP[11]           ; |290| 
    1631 000001bd 984A          OR        *-SP[10],AL           ; |290| 
    1632                      .dwpsn  "GUI_lcd_driver.c",291,4
    1633 000001be 8A50          MOVL      XAR4,*-SP[16]         ; |291| 
    1634 000001bf 0201          MOVB      ACC,#1
    1635 000001c0 07A4          ADDL      ACC,XAR4
    1636 000001c1 1E50          MOVL      *-SP[16],ACC          ; |291| 
    1637 000001c2 924A          MOV       AL,*-SP[10]           ; |291| 
    1638 000001c3 96C4          MOV       *+XAR4[0],AL          ; |291| 
    1639                      .dwpsn  "GUI_lcd_driver.c",283,21
    1640 000001c4 0A49          INC       *-SP[9]               ; |283| 
    1641                      .dwpsn  "GUI_lcd_driver.c",283,15
    1642 000001c5 9247          MOV       AL,*-SP[7]            ; |283| 
    1643 000001c6 5449          CMP       AL,*-SP[9]            ; |283| 
    1644 000001c7 66E9          B         L26,HI                ; |283| 
    1645                      ; branchcc occurs ; |283| 
    1646              DW$L$_lcd_driver_read_block$3$E:
    1647              L27:    
    1648              DW$L$_lcd_driver_read_block$4$B:
    1649                      .dwpsn  "GUI_lcd_driver.c",279,20
    1650 000001c8 0A4E          INC       *-SP[14]              ; |279| 
    1651                      .dwpsn  "GUI_lcd_driver.c",279,14
    1652 000001c9 924C          MOV       AL,*-SP[12]           ; |279| 
TMS320C2000 COFF Assembler PC v4.1.3 Mon Dec 03 13:50:31 2012

Tools Copyright (c) 1996-2006 Texas Instruments Incorporated
C:\DOCUME~1\ADMINI~1\LOCALS~1\Temp\TI9922                            PAGE   32

    1653 000001ca 544E          CMP       AL,*-SP[14]           ; |279| 
    1654 000001cb 66D8          B         L25,HI                ; |279| 
    1655                      ; branchcc occurs ; |279| 
    1656              DW$L$_lcd_driver_read_block$4$E:
    1657                      .dwpsn  "GUI_lcd_driver.c",294,2
    1658              L28:    
    1659                      .dwpsn  "GUI_lcd_driver.c",295,1
    1660 000001cc FE90          SUBB      SP,#16
    1661                      .dwcfa  0x1d, -2
    1662 000001cd 0006          LRETR
    1663                      ; return occurs
    1664              
    1665              DW$156  .dwtag  DW_TAG_loop
    1666                      .dwattr DW$156, DW_AT_name("C:\DOCUME~1\ADMINI~1\LOCALS~1\Temp\TI9922:L25:1:1354513831")
    1667                      .dwattr DW$156, DW_AT_begin_file("GUI_lcd_driver.c")
    1668                      .dwattr DW$156, DW_AT_begin_line(0x117)
    1669                      .dwattr DW$156, DW_AT_end_line(0x125)
    1670              DW$157  .dwtag  DW_TAG_loop_range
    1671                      .dwattr DW$157, DW_AT_low_pc(DW$L$_lcd_driver_read_block$2$B)
    1672                      .dwattr DW$157, DW_AT_high_pc(DW$L$_lcd_driver_read_block$2$E)
    1673              DW$158  .dwtag  DW_TAG_loop_range
    1674                      .dwattr DW$158, DW_AT_low_pc(DW$L$_lcd_driver_read_block$4$B)
    1675                      .dwattr DW$158, DW_AT_high_pc(DW$L$_lcd_driver_read_block$4$E)
    1676              
    1677              DW$159  .dwtag  DW_TAG_loop
    1678                      .dwattr DW$159, DW_AT_name("C:\DOCUME~1\ADMINI~1\LOCALS~1\Temp\TI9922:L26:2:1354513831")
    1679                      .dwattr DW$159, DW_AT_begin_file("GUI_lcd_driver.c")
    1680                      .dwattr DW$159, DW_AT_begin_line(0x11b)
    1681                      .dwattr DW$159, DW_AT_end_line(0x124)
    1682              DW$160  .dwtag  DW_TAG_loop_range
    1683                      .dwattr DW$160, DW_AT_low_pc(DW$L$_lcd_driver_read_block$3$B)
    1684                      .dwattr DW$160, DW_AT_high_pc(DW$L$_lcd_driver_read_block$3$E)
    1685                      .dwendtag DW$159
    1686              
    1687                      .dwendtag DW$156
    1688              
    1689                      .dwattr DW$137, DW_AT_end_file("GUI_lcd_driver.c")
    1690                      .dwattr DW$137, DW_AT_end_line(0x127)
    1691                      .dwattr DW$137, DW_AT_end_column(0x01)
    1692                      .dwendentry
    1693                      .dwendtag DW$137
    1694              
    1695 000001ce               .sect   ".text"
    1696                      .global _lcd_driver_write_block
    1697              
    1698              DW$161  .dwtag  DW_TAG_subprogram, DW_AT_name("lcd_driver_write_block"), DW_AT_symbol_name("_lcd_driver_write
    1699                      .dwattr DW$161, DW_AT_low_pc(_lcd_driver_write_block)
    1700                      .dwattr DW$161, DW_AT_high_pc(0x00)
    1701                      .dwattr DW$161, DW_AT_begin_file("GUI_lcd_driver.c")
    1702                      .dwattr DW$161, DW_AT_begin_line(0x131)
    1703                      .dwattr DW$161, DW_AT_begin_column(0x06)
    1704                      .dwpsn  "GUI_lcd_driver.c",310,1
    1705              
    1706                      .dwfde DW$CIE
    1707              
TMS320C2000 COFF Assembler PC v4.1.3 Mon Dec 03 13:50:31 2012

Tools Copyright (c) 1996-2006 Texas Instruments Incorporated
C:\DOCUME~1\ADMINI~1\LOCALS~1\Temp\TI9922                            PAGE   33

    1708              ;***************************************************************
    1709              ;* FNAME: _lcd_driver_write_block       FR SIZE:  16           *
    1710              ;*                                                             *
    1711              ;* FUNCTION ENVIRONMENT                                        *
    1712              ;*                                                             *
    1713              ;* FUNCTION PROPERTIES                                         *
    1714              ;*                            0 Parameter, 16 Auto,  0 SOE     *
    1715              ;***************************************************************
    1716              
    1717              _lcd_driver_write_block:
    1718                      .dwcfa  0x1d, -2
    1719                      .dwcfa  0x1c, 26, 0
    1720                      .dwcfa  0x09, 40, 26
    1721 000001ce FE10          ADDB      SP,#16
    1722                      .dwcfa  0x1d, -18
    1723              ;* AL    assigned to _xcoord_start
    1724              DW$162  .dwtag  DW_TAG_formal_parameter, DW_AT_name("xcoord_start"), DW_AT_symbol_name("_xcoord_start")
    1725                      .dwattr DW$162, DW_AT_type(*DW$T$11)
    1726                      .dwattr DW$162, DW_AT_location[DW_OP_reg0]
    1727              ;* AH    assigned to _ycoord_start
    1728              DW$163  .dwtag  DW_TAG_formal_parameter, DW_AT_name("ycoord_start"), DW_AT_symbol_name("_ycoord_start")
    1729                      .dwattr DW$163, DW_AT_type(*DW$T$11)
    1730                      .dwattr DW$163, DW_AT_location[DW_OP_reg1]
    1731              ;* AR5   assigned to _xcoord_end
    1732              DW$164  .dwtag  DW_TAG_formal_parameter, DW_AT_name("xcoord_end"), DW_AT_symbol_name("_xcoord_end")
    1733                      .dwattr DW$164, DW_AT_type(*DW$T$11)
    1734                      .dwattr DW$164, DW_AT_location[DW_OP_reg14]
    1735              DW$165  .dwtag  DW_TAG_formal_parameter, DW_AT_name("ycoord_end"), DW_AT_symbol_name("_ycoord_end")
    1736                      .dwattr DW$165, DW_AT_type(*DW$T$11)
    1737                      .dwattr DW$165, DW_AT_location[DW_OP_breg20 -19]
    1738              ;* AR4   assigned to _buf
    1739              DW$166  .dwtag  DW_TAG_formal_parameter, DW_AT_name("buf"), DW_AT_symbol_name("_buf")
    1740                      .dwattr DW$166, DW_AT_type(*DW$T$148)
    1741                      .dwattr DW$166, DW_AT_location[DW_OP_reg12]
    1742              DW$167  .dwtag  DW_TAG_formal_parameter, DW_AT_name("sele"), DW_AT_symbol_name("_sele")
    1743                      .dwattr DW$167, DW_AT_type(*DW$T$6)
    1744                      .dwattr DW$167, DW_AT_location[DW_OP_breg20 -20]
    1745              DW$168  .dwtag  DW_TAG_variable, DW_AT_name("xcoord_start"), DW_AT_symbol_name("_xcoord_start")
    1746                      .dwattr DW$168, DW_AT_type(*DW$T$11)
    1747                      .dwattr DW$168, DW_AT_location[DW_OP_breg20 -1]
    1748              DW$169  .dwtag  DW_TAG_variable, DW_AT_name("ycoord_start"), DW_AT_symbol_name("_ycoord_start")
    1749                      .dwattr DW$169, DW_AT_type(*DW$T$11)
    1750                      .dwattr DW$169, DW_AT_location[DW_OP_breg20 -2]
    1751              DW$170  .dwtag  DW_TAG_variable, DW_AT_name("xcoord_end"), DW_AT_symbol_name("_xcoord_end")
    1752                      .dwattr DW$170, DW_AT_type(*DW$T$11)
    1753                      .dwattr DW$170, DW_AT_location[DW_OP_breg20 -3]
    1754              DW$171  .dwtag  DW_TAG_variable, DW_AT_name("buf"), DW_AT_symbol_name("_buf")
    1755                      .dwattr DW$171, DW_AT_type(*DW$T$148)
    1756                      .dwattr DW$171, DW_AT_location[DW_OP_breg20 -6]
    1757              DW$172  .dwtag  DW_TAG_variable, DW_AT_name("i"), DW_AT_symbol_name("_i")
    1758                      .dwattr DW$172, DW_AT_type(*DW$T$11)
    1759                      .dwattr DW$172, DW_AT_location[DW_OP_breg20 -7]
    1760              DW$173  .dwtag  DW_TAG_variable, DW_AT_name("xx"), DW_AT_symbol_name("_xx")
    1761                      .dwattr DW$173, DW_AT_type(*DW$T$11)
    1762                      .dwattr DW$173, DW_AT_location[DW_OP_breg20 -8]
TMS320C2000 COFF Assembler PC v4.1.3 Mon Dec 03 13:50:31 2012

Tools Copyright (c) 1996-2006 Texas Instruments Incorporated
C:\DOCUME~1\ADMINI~1\LOCALS~1\Temp\TI9922                            PAGE   34

    1763              DW$174  .dwtag  DW_TAG_variable, DW_AT_name("k"), DW_AT_symbol_name("_k")
    1764                      .dwattr DW$174, DW_AT_type(*DW$T$11)
    1765                      .dwattr DW$174, DW_AT_location[DW_OP_breg20 -9]
    1766              DW$175  .dwtag  DW_TAG_variable, DW_AT_name("TempInt"), DW_AT_symbol_name("_TempInt")
    1767                      .dwattr DW$175, DW_AT_type(*DW$T$11)
    1768                      .dwattr DW$175, DW_AT_location[DW_OP_breg20 -10]
    1769              DW$176  .dwtag  DW_TAG_variable, DW_AT_name("TempInt1"), DW_AT_symbol_name("_TempInt1")
    1770                      .dwattr DW$176, DW_AT_type(*DW$T$11)
    1771                      .dwattr DW$176, DW_AT_location[DW_OP_breg20 -11]
    1772              DW$177  .dwtag  DW_TAG_variable, DW_AT_name("j"), DW_AT_symbol_name("_j")
    1773                      .dwattr DW$177, DW_AT_type(*DW$T$11)
    1774                      .dwattr DW$177, DW_AT_location[DW_OP_breg20 -12]
    1775              DW$178  .dwtag  DW_TAG_variable, DW_AT_name("yy"), DW_AT_symbol_name("_yy")
    1776                      .dwattr DW$178, DW_AT_type(*DW$T$11)
    1777                      .dwattr DW$178, DW_AT_location[DW_OP_breg20 -13]
    1778              DW$179  .dwtag  DW_TAG_variable, DW_AT_name("m"), DW_AT_symbol_name("_m")
    1779                      .dwattr DW$179, DW_AT_type(*DW$T$11)
    1780                      .dwattr DW$179, DW_AT_location[DW_OP_breg20 -14]
    1781              DW$180  .dwtag  DW_TAG_variable, DW_AT_name("BlockData"), DW_AT_symbol_name("_BlockData")
    1782                      .dwattr DW$180, DW_AT_type(*DW$T$163)
    1783                      .dwattr DW$180, DW_AT_location[DW_OP_breg20 -16]
    1784 000001cf A846          MOVL      *-SP[6],XAR4          ; |310| 
    1785 000001d0 7D43          MOV       *-SP[3],AR5           ; |310| 
    1786 000001d1 9742          MOV       *-SP[2],AH            ; |310| 
    1787 000001d2 9641          MOV       *-SP[1],AL            ; |310| 
    1788                      .dwpsn  "GUI_lcd_driver.c",313,11
    1789 000001d3 0646          MOVL      ACC,*-SP[6]           ; |313| 
    1790 000001d4 1E50          MOVL      *-SP[16],ACC          ; |313| 
    1791                      .dwpsn  "GUI_lcd_driver.c",314,2
    1792 000001d5 9243          MOV       AL,*-SP[3]            ; |314| 
    1793 000001d6 9E41          SUB       AL,*-SP[1]            ; |314| 
    1794 000001d7 9647          MOV       *-SP[7],AL            ; |314| 
    1795                      .dwpsn  "GUI_lcd_driver.c",315,2
    1796 000001d8 9253          MOV       AL,*-SP[19]           ; |315| 
    1797 000001d9 9E42          SUB       AL,*-SP[2]            ; |315| 
    1798 000001da 964C          MOV       *-SP[12],AL           ; |315| 
    1799                      .dwpsn  "GUI_lcd_driver.c",316,2
    1800 000001db 9241          MOV       AL,*-SP[1]            ; |316| 
    1801 000001dc 9648          MOV       *-SP[8],AL            ; |316| 
    1802                      .dwpsn  "GUI_lcd_driver.c",317,2
    1803 000001dd 9242          MOV       AL,*-SP[2]            ; |317| 
    1804 000001de 964D          MOV       *-SP[13],AL           ; |317| 
    1805                      .dwpsn  "GUI_lcd_driver.c",318,2
    1806 000001df 9A10          MOVB      AL,#16                ; |318| 
    1807 000001e0 7640'         LCR       #_lcd_driver_write_cmd ; |318| 
         000001e1 0000 
    1808                      ; call occurs [#_lcd_driver_write_cmd] ; |318| 
    1809                      .dwpsn  "GUI_lcd_driver.c",319,2
    1810 000001e2 9A00          MOVB      AL,#0
    1811 000001e3 7640'         LCR       #_lcd_driver_write_cmd_data ; |319| 
         000001e4 0017 
    1812                      ; call occurs [#_lcd_driver_write_cmd_data] ; |319| 
    1813                      .dwpsn  "GUI_lcd_driver.c",320,8
    1814 000001e5 2B4E          MOV       *-SP[14],#0           ; |320| 
    1815                      .dwpsn  "GUI_lcd_driver.c",320,14
TMS320C2000 COFF Assembler PC v4.1.3 Mon Dec 03 13:50:31 2012

Tools Copyright (c) 1996-2006 Texas Instruments Incorporated
C:\DOCUME~1\ADMINI~1\LOCALS~1\Temp\TI9922                            PAGE   35

    1816 000001e6 924C          MOV       AL,*-SP[12]           ; |320| 
    1817 000001e7 544E          CMP       AL,*-SP[14]           ; |320| 
    1818 000001e8 6938          B         L34,LOS               ; |320| 
    1819                      ; branchcc occurs ; |320| 
    1820              L29:    
    1821              DW$L$_lcd_driver_write_block$2$B:
    1822                      .dwpsn  "GUI_lcd_driver.c",322,3
    1823 000001e9 9248          MOV       AL,*-SP[8]            ; |322| 
    1824 000001ea 934E          MOV       AH,*-SP[14]           ; |322| 
    1825 000001eb D400          MOVB      XAR4,#0
    1826 000001ec 954D          ADD       AH,*-SP[13]           ; |322| 
    1827 000001ed 7640'         LCR       #_lcd_driver_clear_dot ; |322| 
         000001ee 004A 
    1828                      ; call occurs [#_lcd_driver_clear_dot] ; |322| 
    1829                      .dwpsn  "GUI_lcd_driver.c",323,3
    1830 000001ef 9A1F          MOVB      AL,#31                ; |323| 
    1831 000001f0 7640'         LCR       #_lcd_driver_write_cmd ; |323| 
         000001f1 0000 
    1832                      ; call occurs [#_lcd_driver_write_cmd] ; |323| 
    1833                      .dwpsn  "GUI_lcd_driver.c",324,9
    1834 000001f2 2B49          MOV       *-SP[9],#0            ; |324| 
    1835                      .dwpsn  "GUI_lcd_driver.c",324,15
    1836 000001f3 9247          MOV       AL,*-SP[7]            ; |324| 
    1837 000001f4 5449          CMP       AL,*-SP[9]            ; |324| 
    1838 000001f5 6927          B         L33,LOS               ; |324| 
    1839                      ; branchcc occurs ; |324| 
    1840              DW$L$_lcd_driver_write_block$2$E:
    1841              L30:    
    1842              DW$L$_lcd_driver_write_block$3$B:
    1843                      .dwpsn  "GUI_lcd_driver.c",326,4
    1844 000001f6 8A50          MOVL      XAR4,*-SP[16]         ; |326| 
    1845 000001f7 92C4          MOV       AL,*+XAR4[0]          ; |326| 
    1846 000001f8 964A          MOV       *-SP[10],AL           ; |326| 
    1847                      .dwpsn  "GUI_lcd_driver.c",327,4
    1848 000001f9 9254          MOV       AL,*-SP[20]           ; |327| 
    1849 000001fa 5201          CMPB      AL,#1                 ; |327| 
    1850 000001fb ED0F          BF        L31,NEQ               ; |327| 
    1851                      ; branchcc occurs ; |327| 
    1852              DW$L$_lcd_driver_write_block$3$E:
    1853              DW$L$_lcd_driver_write_block$4$B:
    1854                      .dwpsn  "GUI_lcd_driver.c",329,5
    1855 000001fc 924A          MOV       AL,*-SP[10]           ; |329| 
    1856 000001fd FFC7          LSR       AL,8                  ; |329| 
    1857 000001fe 964B          MOV       *-SP[11],AL           ; |329| 
    1858                      .dwpsn  "GUI_lcd_driver.c",330,5
    1859 000001ff FF5E          NOT       AL                    ; |330| 
    1860 00000200 7640'         LCR       #_lcd_driver_write_data ; |330| 
         00000201 000C 
    1861                      ; call occurs [#_lcd_driver_write_data] ; |330| 
    1862                      .dwpsn  "GUI_lcd_driver.c",331,5
    1863 00000202 924A          MOV       AL,*-SP[10]           ; |331| 
    1864 00000203 90FF          ANDB      AL,#0xff              ; |331| 
    1865 00000204 964B          MOV       *-SP[11],AL           ; |331| 
    1866                      .dwpsn  "GUI_lcd_driver.c",332,5
    1867 00000205 FF5E          NOT       AL                    ; |332| 
TMS320C2000 COFF Assembler PC v4.1.3 Mon Dec 03 13:50:31 2012

Tools Copyright (c) 1996-2006 Texas Instruments Incorporated
C:\DOCUME~1\ADMINI~1\LOCALS~1\Temp\TI9922                            PAGE   36

    1868 00000206 7640'         LCR       #_lcd_driver_write_data ; |332| 
         00000207 000C 
    1869                      ; call occurs [#_lcd_driver_write_data] ; |332| 
    1870                      .dwpsn  "GUI_lcd_driver.c",333,5
    1871 00000208 0A49          INC       *-SP[9]               ; |333| 
    1872                      .dwpsn  "GUI_lcd_driver.c",334,4
    1873 00000209 6F0C          B         L32,UNC               ; |334| 
    1874                      ; branch occurs ; |334| 
    1875              DW$L$_lcd_driver_write_block$4$E:
    1876              L31:    
    1877              DW$L$_lcd_driver_write_block$5$B:
    1878                      .dwpsn  "GUI_lcd_driver.c",337,5
    1879 0000020a 924A          MOV       AL,*-SP[10]           ; |337| 
    1880 0000020b FFC7          LSR       AL,8                  ; |337| 
    1881 0000020c 964B          MOV       *-SP[11],AL           ; |337| 
    1882                      .dwpsn  "GUI_lcd_driver.c",338,5
    1883 0000020d 7640'         LCR       #_lcd_driver_write_data ; |338| 
         0000020e 000C 
    1884                      ; call occurs [#_lcd_driver_write_data] ; |338| 
    1885                      .dwpsn  "GUI_lcd_driver.c",339,5
    1886 0000020f 924A          MOV       AL,*-SP[10]           ; |339| 
    1887 00000210 90FF          ANDB      AL,#0xff              ; |339| 
    1888 00000211 964B          MOV       *-SP[11],AL           ; |339| 
    1889                      .dwpsn  "GUI_lcd_driver.c",340,5
    1890 00000212 7640'         LCR       #_lcd_driver_write_data ; |340| 
         00000213 000C 
    1891                      ; call occurs [#_lcd_driver_write_data] ; |340| 
    1892                      .dwpsn  "GUI_lcd_driver.c",341,5
    1893 00000214 0A49          INC       *-SP[9]               ; |341| 
    1894              DW$L$_lcd_driver_write_block$5$E:
    1895              L32:    
    1896              DW$L$_lcd_driver_write_block$6$B:
    1897                      .dwpsn  "GUI_lcd_driver.c",343,4
    1898 00000215 0201          MOVB      ACC,#1
    1899 00000216 5601          ADDL      *-SP[16],ACC          ; |343| 
         00000217 0050 
    1900                      .dwpsn  "GUI_lcd_driver.c",324,21
    1901 00000218 0A49          INC       *-SP[9]               ; |324| 
    1902                      .dwpsn  "GUI_lcd_driver.c",324,15
    1903 00000219 9247          MOV       AL,*-SP[7]            ; |324| 
    1904 0000021a 5449          CMP       AL,*-SP[9]            ; |324| 
    1905 0000021b 66DB          B         L30,HI                ; |324| 
    1906                      ; branchcc occurs ; |324| 
    1907              DW$L$_lcd_driver_write_block$6$E:
    1908              L33:    
    1909              DW$L$_lcd_driver_write_block$7$B:
    1910                      .dwpsn  "GUI_lcd_driver.c",320,20
    1911 0000021c 0A4E          INC       *-SP[14]              ; |320| 
    1912                      .dwpsn  "GUI_lcd_driver.c",320,14
    1913 0000021d 924C          MOV       AL,*-SP[12]           ; |320| 
    1914 0000021e 544E          CMP       AL,*-SP[14]           ; |320| 
    1915 0000021f 66CA          B         L29,HI                ; |320| 
    1916                      ; branchcc occurs ; |320| 
    1917              DW$L$_lcd_driver_write_block$7$E:
    1918                      .dwpsn  "GUI_lcd_driver.c",346,2
TMS320C2000 COFF Assembler PC v4.1.3 Mon Dec 03 13:50:31 2012

Tools Copyright (c) 1996-2006 Texas Instruments Incorporated
C:\DOCUME~1\ADMINI~1\LOCALS~1\Temp\TI9922                            PAGE   37

    1919              L34:    
    1920                      .dwpsn  "GUI_lcd_driver.c",347,1
    1921 00000220 FE90          SUBB      SP,#16
    1922                      .dwcfa  0x1d, -2
    1923 00000221 0006          LRETR
    1924                      ; return occurs
    1925              
    1926              DW$181  .dwtag  DW_TAG_loop
    1927                      .dwattr DW$181, DW_AT_name("C:\DOCUME~1\ADMINI~1\LOCALS~1\Temp\TI9922:L29:1:1354513831")
    1928                      .dwattr DW$181, DW_AT_begin_file("GUI_lcd_driver.c")
    1929                      .dwattr DW$181, DW_AT_begin_line(0x140)
    1930                      .dwattr DW$181, DW_AT_end_line(0x159)
    1931              DW$182  .dwtag  DW_TAG_loop_range
    1932                      .dwattr DW$182, DW_AT_low_pc(DW$L$_lcd_driver_write_block$2$B)
    1933                      .dwattr DW$182, DW_AT_high_pc(DW$L$_lcd_driver_write_block$2$E)
    1934              DW$183  .dwtag  DW_TAG_loop_range
    1935                      .dwattr DW$183, DW_AT_low_pc(DW$L$_lcd_driver_write_block$7$B)
    1936                      .dwattr DW$183, DW_AT_high_pc(DW$L$_lcd_driver_write_block$7$E)
    1937              
    1938              DW$184  .dwtag  DW_TAG_loop
    1939                      .dwattr DW$184, DW_AT_name("C:\DOCUME~1\ADMINI~1\LOCALS~1\Temp\TI9922:L30:2:1354513831")
    1940                      .dwattr DW$184, DW_AT_begin_file("GUI_lcd_driver.c")
    1941                      .dwattr DW$184, DW_AT_begin_line(0x144)
    1942                      .dwattr DW$184, DW_AT_end_line(0x158)
    1943              DW$185  .dwtag  DW_TAG_loop_range
    1944                      .dwattr DW$185, DW_AT_low_pc(DW$L$_lcd_driver_write_block$3$B)
    1945                      .dwattr DW$185, DW_AT_high_pc(DW$L$_lcd_driver_write_block$3$E)
    1946              DW$186  .dwtag  DW_TAG_loop_range
    1947                      .dwattr DW$186, DW_AT_low_pc(DW$L$_lcd_driver_write_block$4$B)
    1948                      .dwattr DW$186, DW_AT_high_pc(DW$L$_lcd_driver_write_block$4$E)
    1949              DW$187  .dwtag  DW_TAG_loop_range
    1950                      .dwattr DW$187, DW_AT_low_pc(DW$L$_lcd_driver_write_block$5$B)
    1951                      .dwattr DW$187, DW_AT_high_pc(DW$L$_lcd_driver_write_block$5$E)
    1952              DW$188  .dwtag  DW_TAG_loop_range
    1953                      .dwattr DW$188, DW_AT_low_pc(DW$L$_lcd_driver_write_block$6$B)
    1954                      .dwattr DW$188, DW_AT_high_pc(DW$L$_lcd_driver_write_block$6$E)
    1955                      .dwendtag DW$184
    1956              
    1957                      .dwendtag DW$181
    1958              
    1959                      .dwattr DW$161, DW_AT_end_file("GUI_lcd_driver.c")
    1960                      .dwattr DW$161, DW_AT_end_line(0x15b)
    1961                      .dwattr DW$161, DW_AT_end_column(0x01)
    1962                      .dwendentry
    1963                      .dwendtag DW$161
    1964              
    1965 00000222               .sect   ".text"
    1966                      .global _lcd_driver_bmp_display
    1967              
    1968              DW$189  .dwtag  DW_TAG_subprogram, DW_AT_name("lcd_driver_bmp_display"), DW_AT_symbol_name("_lcd_driver_bmp_d
    1969                      .dwattr DW$189, DW_AT_low_pc(_lcd_driver_bmp_display)
    1970                      .dwattr DW$189, DW_AT_high_pc(0x00)
    1971                      .dwattr DW$189, DW_AT_begin_file("GUI_lcd_driver.c")
    1972                      .dwattr DW$189, DW_AT_begin_line(0x165)
    1973                      .dwattr DW$189, DW_AT_begin_column(0x06)
TMS320C2000 COFF Assembler PC v4.1.3 Mon Dec 03 13:50:31 2012

Tools Copyright (c) 1996-2006 Texas Instruments Incorporated
C:\DOCUME~1\ADMINI~1\LOCALS~1\Temp\TI9922                            PAGE   38

    1974                      .dwpsn  "GUI_lcd_driver.c",363,1
    1975              
    1976                      .dwfde DW$CIE
    1977              
    1978              ;***************************************************************
    1979              ;* FNAME: _lcd_driver_bmp_display       FR SIZE:   6           *
    1980              ;*                                                             *
    1981              ;* FUNCTION ENVIRONMENT                                        *
    1982              ;*                                                             *
    1983              ;* FUNCTION PROPERTIES                                         *
    1984              ;*                            0 Parameter,  6 Auto,  0 SOE     *
    1985              ;***************************************************************
    1986              
    1987              _lcd_driver_bmp_display:
    1988                      .dwcfa  0x1d, -2
    1989                      .dwcfa  0x1c, 26, 0
    1990                      .dwcfa  0x09, 40, 26
    1991 00000222 FE06          ADDB      SP,#6
    1992                      .dwcfa  0x1d, -8
    1993              ;* AL    assigned to _xcoord
    1994              DW$190  .dwtag  DW_TAG_formal_parameter, DW_AT_name("xcoord"), DW_AT_symbol_name("_xcoord")
    1995                      .dwattr DW$190, DW_AT_type(*DW$T$11)
    1996                      .dwattr DW$190, DW_AT_location[DW_OP_reg0]
    1997              ;* AH    assigned to _ycoord
    1998              DW$191  .dwtag  DW_TAG_formal_parameter, DW_AT_name("ycoord"), DW_AT_symbol_name("_ycoord")
    1999                      .dwattr DW$191, DW_AT_type(*DW$T$11)
    2000                      .dwattr DW$191, DW_AT_location[DW_OP_reg1]
    2001              ;* AR5   assigned to _bmp_wide
    2002              DW$192  .dwtag  DW_TAG_formal_parameter, DW_AT_name("bmp_wide"), DW_AT_symbol_name("_bmp_wide")
    2003                      .dwattr DW$192, DW_AT_type(*DW$T$11)
    2004                      .dwattr DW$192, DW_AT_location[DW_OP_reg14]
    2005              DW$193  .dwtag  DW_TAG_formal_parameter, DW_AT_name("bmp_high"), DW_AT_symbol_name("_bmp_high")
    2006                      .dwattr DW$193, DW_AT_type(*DW$T$11)
    2007                      .dwattr DW$193, DW_AT_location[DW_OP_breg20 -9]
    2008              ;* AR4   assigned to _bmp_buf
    2009              DW$194  .dwtag  DW_TAG_formal_parameter, DW_AT_name("bmp_buf"), DW_AT_symbol_name("_bmp_buf")
    2010                      .dwattr DW$194, DW_AT_type(*DW$T$148)
    2011                      .dwattr DW$194, DW_AT_location[DW_OP_reg12]
    2012              DW$195  .dwtag  DW_TAG_formal_parameter, DW_AT_name("mod"), DW_AT_symbol_name("_mod")
    2013                      .dwattr DW$195, DW_AT_type(*DW$T$6)
    2014                      .dwattr DW$195, DW_AT_location[DW_OP_breg20 -10]
    2015              DW$196  .dwtag  DW_TAG_variable, DW_AT_name("xcoord"), DW_AT_symbol_name("_xcoord")
    2016                      .dwattr DW$196, DW_AT_type(*DW$T$11)
    2017                      .dwattr DW$196, DW_AT_location[DW_OP_breg20 -1]
    2018              DW$197  .dwtag  DW_TAG_variable, DW_AT_name("ycoord"), DW_AT_symbol_name("_ycoord")
    2019                      .dwattr DW$197, DW_AT_type(*DW$T$11)
    2020                      .dwattr DW$197, DW_AT_location[DW_OP_breg20 -2]
    2021              DW$198  .dwtag  DW_TAG_variable, DW_AT_name("bmp_wide"), DW_AT_symbol_name("_bmp_wide")
    2022                      .dwattr DW$198, DW_AT_type(*DW$T$11)
    2023                      .dwattr DW$198, DW_AT_location[DW_OP_breg20 -3]
    2024              DW$199  .dwtag  DW_TAG_variable, DW_AT_name("bmp_buf"), DW_AT_symbol_name("_bmp_buf")
    2025                      .dwattr DW$199, DW_AT_type(*DW$T$148)
    2026                      .dwattr DW$199, DW_AT_location[DW_OP_breg20 -6]
    2027 00000223 A846          MOVL      *-SP[6],XAR4          ; |363| 
    2028 00000224 7D43          MOV       *-SP[3],AR5           ; |363| 
TMS320C2000 COFF Assembler PC v4.1.3 Mon Dec 03 13:50:31 2012

Tools Copyright (c) 1996-2006 Texas Instruments Incorporated
C:\DOCUME~1\ADMINI~1\LOCALS~1\Temp\TI9922                            PAGE   39

    2029 00000225 9742          MOV       *-SP[2],AH            ; |363| 
    2030 00000226 9641          MOV       *-SP[1],AL            ; |363| 
    2031                      .dwpsn  "GUI_lcd_driver.c",365,2
    2032                      .dwpsn  "GUI_lcd_driver.c",366,1
    2033 00000227 FE86          SUBB      SP,#6
    2034                      .dwcfa  0x1d, -2
    2035 00000228 0006          LRETR
    2036                      ; return occurs
    2037                      .dwattr DW$189, DW_AT_end_file("GUI_lcd_driver.c")
    2038                      .dwattr DW$189, DW_AT_end_line(0x16e)
    2039                      .dwattr DW$189, DW_AT_end_column(0x01)
    2040                      .dwendentry
    2041                      .dwendtag DW$189
    2042              
    2043 00000229               .sect   ".text"
    2044                      .global _lcd_driver_init
    2045              
    2046              DW$200  .dwtag  DW_TAG_subprogram, DW_AT_name("lcd_driver_init"), DW_AT_symbol_name("_lcd_driver_init")
    2047                      .dwattr DW$200, DW_AT_low_pc(_lcd_driver_init)
    2048                      .dwattr DW$200, DW_AT_high_pc(0x00)
    2049                      .dwattr DW$200, DW_AT_begin_file("GUI_lcd_driver.c")
    2050                      .dwattr DW$200, DW_AT_begin_line(0x171)
    2051                      .dwattr DW$200, DW_AT_begin_column(0x06)
    2052                      .dwpsn  "GUI_lcd_driver.c",370,1
    2053              
    2054                      .dwfde DW$CIE
    2055              
    2056              ;***************************************************************
    2057              ;* FNAME: _lcd_driver_init              FR SIZE:   0           *
    2058              ;*                                                             *
    2059              ;* FUNCTION ENVIRONMENT                                        *
    2060              ;*                                                             *
    2061              ;* FUNCTION PROPERTIES                                         *
    2062              ;*                            0 Parameter,  0 Auto,  0 SOE     *
    2063              ;***************************************************************
    2064              
    2065              _lcd_driver_init:
    2066                      .dwcfa  0x1d, -2
    2067                      .dwcfa  0x1c, 26, 0
    2068                      .dwcfa  0x09, 40, 26
    2069                      .dwpsn  "GUI_lcd_driver.c",371,2
    2070 00000229 9A14          MOVB      AL,#20                ; |371| 
    2071 0000022a 7640'         LCR       #_lcd_driver_write_cmd ; |371| 
         0000022b 0000 
    2072                      ; call occurs [#_lcd_driver_write_cmd] ; |371| 
    2073                      .dwpsn  "GUI_lcd_driver.c",372,2
    2074 0000022c 9A01          MOVB      AL,#1                 ; |372| 
    2075 0000022d 7640'         LCR       #_lcd_driver_write_cmd_data ; |372| 
         0000022e 0017 
    2076                      ; call occurs [#_lcd_driver_write_cmd_data] ; |372| 
    2077                      .dwpsn  "GUI_lcd_driver.c",373,2
    2078 0000022f 761F!         MOVW      DP,#_GpioDataRegs+6
         00000230 0000 
    2079 00000231 1A06!         OR        @_GpioDataRegs+6,#0x0004 ; |373| 
         00000232 0004 
TMS320C2000 COFF Assembler PC v4.1.3 Mon Dec 03 13:50:31 2012

Tools Copyright (c) 1996-2006 Texas Instruments Incorporated
C:\DOCUME~1\ADMINI~1\LOCALS~1\Temp\TI9922                            PAGE   40

    2080                      .dwpsn  "GUI_lcd_driver.c",374,2
    2081 00000233 1A05!         OR        @_GpioDataRegs+5,#0x0004 ; |374| 
         00000234 0004 
    2082                      .dwpsn  "GUI_lcd_driver.c",375,2
    2083 00000235 7622   EALLOW
    2084                      .dwpsn  "GUI_lcd_driver.c",376,2
    2085 00000236 761F!         MOVW      DP,#_GpioMuxRegs+4
         00000237 0000 
    2086 00000238 2804!         MOV       @_GpioMuxRegs+4,#20   ; |376| 
         00000239 0014 
    2087                      .dwpsn  "GUI_lcd_driver.c",377,2
    2088 0000023a 761A   EDIS
    2089                      .dwpsn  "GUI_lcd_driver.c",378,2
    2090 0000023b 3B10   setc INTM
    2091                      .dwpsn  "GUI_lcd_driver.c",379,2
    2092 0000023c 761F!         MOVW      DP,#_EvbRegs+9
         0000023d 0000 
    2093 0000023e 1A09!         OR        @_EvbRegs+9,#0x0001   ; |379| 
         0000023f 0001 
    2094                      .dwpsn  "GUI_lcd_driver.c",380,2
    2095 00000240 2803!         MOV       @_EvbRegs+3,#700      ; |380| 
         00000241 02BC 
    2096                      .dwpsn  "GUI_lcd_driver.c",381,2
    2097 00000242 2B02!         MOV       @_EvbRegs+2,#0        ; |381| 
    2098                      .dwpsn  "GUI_lcd_driver.c",382,2
    2099 00000243 2B01!         MOV       @_EvbRegs+1,#0        ; |382| 
    2100                      .dwpsn  "GUI_lcd_driver.c",383,2
    2101 00000244 2804!         MOV       @_EvbRegs+4,#53314    ; |383| 
         00000245 D042 
    2102                      .dwpsn  "GUI_lcd_driver.c",384,2
    2103 00000246 2807!         MOV       @_EvbRegs+7,#32768    ; |384| 
         00000247 8000 
    2104                      .dwpsn  "GUI_lcd_driver.c",385,2
    2105 00000248 2B06!         MOV       @_EvbRegs+6,#0        ; |385| 
    2106                      .dwpsn  "GUI_lcd_driver.c",386,2
    2107 00000249 2B05!         MOV       @_EvbRegs+5,#0        ; |386| 
    2108                      .dwpsn  "GUI_lcd_driver.c",387,2
    2109 0000024a 2808!         MOV       @_EvbRegs+8,#53314    ; |387| 
         0000024b D042 
    2110                      .dwpsn  "GUI_lcd_driver.c",388,2
    2111 0000024c 1A00!         OR        @_EvbRegs,#0x0040     ; |388| 
         0000024d 0040 
    2112                      .dwpsn  "GUI_lcd_driver.c",389,2
    2113 0000024e CC00!         AND       AL,@_EvbRegs,#0xfffc  ; |389| 
         0000024f FFFC 
    2114 00000250 5002          ORB       AL,#0x02              ; |389| 
    2115 00000251 9600!         MOV       @_EvbRegs,AL          ; |389| 
    2116                      .dwpsn  "GUI_lcd_driver.c",390,2
    2117 00000252 CC00!         AND       AL,@_EvbRegs,#0xfff3  ; |390| 
         00000253 FFF3 
    2118 00000254 5008          ORB       AL,#0x08              ; |390| 
    2119 00000255 9600!         MOV       @_EvbRegs,AL          ; |390| 
    2120                      .dwpsn  "GUI_lcd_driver.c",391,2
    2121 00000256 1800!         AND       @_EvbRegs,#0xf7ff     ; |391| 
         00000257 F7FF 
TMS320C2000 COFF Assembler PC v4.1.3 Mon Dec 03 13:50:31 2012

Tools Copyright (c) 1996-2006 Texas Instruments Incorporated
C:\DOCUME~1\ADMINI~1\LOCALS~1\Temp\TI9922                            PAGE   41

    2122                      .dwpsn  "GUI_lcd_driver.c",392,2
    2123 00000258 1800!         AND       @_EvbRegs,#0xefff     ; |392| 
         00000259 EFFF 
    2124                      .dwpsn  "GUI_lcd_driver.c",393,2
    2125 0000025a 1A00!         OR        @_EvbRegs,#0x0020     ; |393| 
         0000025b 0020 
    2126                      .dwpsn  "GUI_lcd_driver.c",394,2
    2127 0000025c 1A00!         OR        @_EvbRegs,#0x0010     ; |394| 
         0000025d 0010 
    2128                      .dwpsn  "GUI_lcd_driver.c",395,2
    2129 0000025e 2819!         MOV       @_EvbRegs+25,#5       ; |395| 
         0000025f 0005 
    2130                      .dwpsn  "GUI_lcd_driver.c",396,2
    2131 00000260 2818!         MOV       @_EvbRegs+24,#690     ; |396| 
         00000261 02B2 
    2132                      .dwpsn  "GUI_lcd_driver.c",397,2
    2133 00000262 2813!         MOV       @_EvbRegs+19,#1638    ; |397| 
         00000263 0666 
    2134                      .dwpsn  "GUI_lcd_driver.c",398,2
    2135 00000264 2B15!         MOV       @_EvbRegs+21,#0       ; |398| 
    2136                      .dwpsn  "GUI_lcd_driver.c",399,2
    2137 00000265 2811!         MOV       @_EvbRegs+17,#42496   ; |399| 
         00000266 A600 
    2138                      .dwpsn  "GUI_lcd_driver.c",400,2
    2139 00000267 1A11!         OR        @_EvbRegs+17,#0x0080  ; |400| 
         00000268 0080 
    2140                      .dwpsn  "GUI_lcd_driver.c",401,2
    2141 00000269 1A11!         OR        @_EvbRegs+17,#0x0040  ; |401| 
         0000026a 0040 
    2142                      .dwpsn  "GUI_lcd_driver.c",402,2
    2143 0000026b 1A09!         OR        @_EvbRegs+9,#0x0001   ; |402| 
         0000026c 0001 
    2144                      .dwpsn  "GUI_lcd_driver.c",403,2
    2145 0000026d 2818!         MOV       @_EvbRegs+24,#686     ; |403| 
         0000026e 02AE 
    2146                      .dwpsn  "GUI_lcd_driver.c",404,2
    2147 0000026f 2819!         MOV       @_EvbRegs+25,#200     ; |404| 
         00000270 00C8 
    2148                      .dwpsn  "GUI_lcd_driver.c",405,2
    2149 00000271 2910   clrc INTM
    2150                      .dwpsn  "GUI_lcd_driver.c",406,2
    2151                      .dwpsn  "GUI_lcd_driver.c",407,1
    2152 00000272 FF69          SPM       #0
    2153 00000273 0006          LRETR
    2154                      ; return occurs
    2155                      .dwattr DW$200, DW_AT_end_file("GUI_lcd_driver.c")
    2156                      .dwattr DW$200, DW_AT_end_line(0x197)
    2157                      .dwattr DW$200, DW_AT_end_column(0x01)
    2158                      .dwendentry
    2159                      .dwendtag DW$200
    2160              
    2161 00000274               .sect   ".text"
    2162                      .global _lcd_driver_draw_line
    2163              
    2164              DW$201  .dwtag  DW_TAG_subprogram, DW_AT_name("lcd_driver_draw_line"), DW_AT_symbol_name("_lcd_driver_draw_li
TMS320C2000 COFF Assembler PC v4.1.3 Mon Dec 03 13:50:31 2012

Tools Copyright (c) 1996-2006 Texas Instruments Incorporated
C:\DOCUME~1\ADMINI~1\LOCALS~1\Temp\TI9922                            PAGE   42

    2165                      .dwattr DW$201, DW_AT_low_pc(_lcd_driver_draw_line)
    2166                      .dwattr DW$201, DW_AT_high_pc(0x00)
    2167                      .dwattr DW$201, DW_AT_begin_file("GUI_lcd_driver.c")
    2168                      .dwattr DW$201, DW_AT_begin_line(0x1a5)
    2169                      .dwattr DW$201, DW_AT_begin_column(0x06)
    2170                      .dwpsn  "GUI_lcd_driver.c",428,1
    2171              
    2172                      .dwfde DW$CIE
    2173              
    2174              ;***************************************************************
    2175              ;* FNAME: _lcd_driver_draw_line         FR SIZE:  22           *
    2176              ;*                                                             *
    2177              ;* FUNCTION ENVIRONMENT                                        *
    2178              ;*                                                             *
    2179              ;* FUNCTION PROPERTIES                                         *
    2180              ;*                            2 Parameter, 18 Auto,  2 SOE     *
    2181              ;***************************************************************
    2182              
    2183              _lcd_driver_draw_line:
    2184                      .dwcfa  0x1d, -2
    2185                      .dwcfa  0x1c, 26, 0
    2186                      .dwcfa  0x09, 40, 26
    2187 00000274 B2BD          MOVL      *SP++,XAR1
    2188                      .dwcfa  0x80, 7, 2
    2189                      .dwcfa  0x1d, -4
    2190 00000275 FE14          ADDB      SP,#20
    2191                      .dwcfa  0x1d, -24
    2192              ;* AL    assigned to _x_coord_start
    2193              DW$202  .dwtag  DW_TAG_formal_parameter, DW_AT_name("x_coord_start"), DW_AT_symbol_name("_x_coord_start")
    2194                      .dwattr DW$202, DW_AT_type(*DW$T$11)
    2195                      .dwattr DW$202, DW_AT_location[DW_OP_reg0]
    2196              ;* AH    assigned to _y_coord_start
    2197              DW$203  .dwtag  DW_TAG_formal_parameter, DW_AT_name("y_coord_start"), DW_AT_symbol_name("_y_coord_start")
    2198                      .dwattr DW$203, DW_AT_type(*DW$T$11)
    2199                      .dwattr DW$203, DW_AT_location[DW_OP_reg1]
    2200              ;* AR4   assigned to _x_coord_end
    2201              DW$204  .dwtag  DW_TAG_formal_parameter, DW_AT_name("x_coord_end"), DW_AT_symbol_name("_x_coord_end")
    2202                      .dwattr DW$204, DW_AT_type(*DW$T$11)
    2203                      .dwattr DW$204, DW_AT_location[DW_OP_reg12]
    2204              ;* AR5   assigned to _y_coord_end
    2205              DW$205  .dwtag  DW_TAG_formal_parameter, DW_AT_name("y_coord_end"), DW_AT_symbol_name("_y_coord_end")
    2206                      .dwattr DW$205, DW_AT_type(*DW$T$11)
    2207                      .dwattr DW$205, DW_AT_location[DW_OP_reg14]
    2208              DW$206  .dwtag  DW_TAG_formal_parameter, DW_AT_name("color"), DW_AT_symbol_name("_color")
    2209                      .dwattr DW$206, DW_AT_type(*DW$T$6)
    2210                      .dwattr DW$206, DW_AT_location[DW_OP_breg20 -25]
    2211              DW$207  .dwtag  DW_TAG_variable, DW_AT_name("x_coord_start"), DW_AT_symbol_name("_x_coord_start")
    2212                      .dwattr DW$207, DW_AT_type(*DW$T$11)
    2213                      .dwattr DW$207, DW_AT_location[DW_OP_breg20 -3]
    2214              DW$208  .dwtag  DW_TAG_variable, DW_AT_name("y_coord_start"), DW_AT_symbol_name("_y_coord_start")
    2215                      .dwattr DW$208, DW_AT_type(*DW$T$11)
    2216                      .dwattr DW$208, DW_AT_location[DW_OP_breg20 -4]
    2217              DW$209  .dwtag  DW_TAG_variable, DW_AT_name("x_coord_end"), DW_AT_symbol_name("_x_coord_end")
    2218                      .dwattr DW$209, DW_AT_type(*DW$T$11)
    2219                      .dwattr DW$209, DW_AT_location[DW_OP_breg20 -5]
TMS320C2000 COFF Assembler PC v4.1.3 Mon Dec 03 13:50:31 2012

Tools Copyright (c) 1996-2006 Texas Instruments Incorporated
C:\DOCUME~1\ADMINI~1\LOCALS~1\Temp\TI9922                            PAGE   43

    2220              DW$210  .dwtag  DW_TAG_variable, DW_AT_name("y_coord_end"), DW_AT_symbol_name("_y_coord_end")
    2221                      .dwattr DW$210, DW_AT_type(*DW$T$11)
    2222                      .dwattr DW$210, DW_AT_location[DW_OP_breg20 -6]
    2223              DW$211  .dwtag  DW_TAG_variable, DW_AT_name("line_type"), DW_AT_symbol_name("_line_type")
    2224                      .dwattr DW$211, DW_AT_type(*DW$T$6)
    2225                      .dwattr DW$211, DW_AT_location[DW_OP_breg20 -7]
    2226              DW$212  .dwtag  DW_TAG_variable, DW_AT_name("dxs"), DW_AT_symbol_name("_dxs")
    2227                      .dwattr DW$212, DW_AT_type(*DW$T$16)
    2228                      .dwattr DW$212, DW_AT_location[DW_OP_breg20 -10]
    2229              DW$213  .dwtag  DW_TAG_variable, DW_AT_name("dxe"), DW_AT_symbol_name("_dxe")
    2230                      .dwattr DW$213, DW_AT_type(*DW$T$16)
    2231                      .dwattr DW$213, DW_AT_location[DW_OP_breg20 -12]
    2232              DW$214  .dwtag  DW_TAG_variable, DW_AT_name("dys"), DW_AT_symbol_name("_dys")
    2233                      .dwattr DW$214, DW_AT_type(*DW$T$16)
    2234                      .dwattr DW$214, DW_AT_location[DW_OP_breg20 -14]
    2235              DW$215  .dwtag  DW_TAG_variable, DW_AT_name("dye"), DW_AT_symbol_name("_dye")
    2236                      .dwattr DW$215, DW_AT_type(*DW$T$16)
    2237                      .dwattr DW$215, DW_AT_location[DW_OP_breg20 -16]
    2238              DW$216  .dwtag  DW_TAG_variable, DW_AT_name("k"), DW_AT_symbol_name("_k")
    2239                      .dwattr DW$216, DW_AT_type(*DW$T$16)
    2240                      .dwattr DW$216, DW_AT_location[DW_OP_breg20 -18]
    2241              DW$217  .dwtag  DW_TAG_variable, DW_AT_name("b"), DW_AT_symbol_name("_b")
    2242                      .dwattr DW$217, DW_AT_type(*DW$T$16)
    2243                      .dwattr DW$217, DW_AT_location[DW_OP_breg20 -20]
    2244 00000276 7D46          MOV       *-SP[6],AR5           ; |428| 
    2245 00000277 7C45          MOV       *-SP[5],AR4           ; |428| 
    2246 00000278 9744          MOV       *-SP[4],AH            ; |428| 
    2247 00000279 9643          MOV       *-SP[3],AL            ; |428| 
    2248                      .dwpsn  "GUI_lcd_driver.c",432,10
    2249 0000027a 2B47          MOV       *-SP[7],#0            ; |432| 
    2250                      .dwpsn  "GUI_lcd_driver.c",433,8
    2251 0000027b 9B00          MOV       AH,#0
    2252 0000027c 9A00          MOV       AL,#0
    2253 0000027d 1E4A          MOVL      *-SP[10],ACC          ; |433| 
    2254                      .dwpsn  "GUI_lcd_driver.c",433,17
    2255 0000027e 9B00          MOV       AH,#0
    2256 0000027f 9A00          MOV       AL,#0
    2257 00000280 1E4C          MOVL      *-SP[12],ACC          ; |433| 
    2258                      .dwpsn  "GUI_lcd_driver.c",433,26
    2259 00000281 9B00          MOV       AH,#0
    2260 00000282 9A00          MOV       AL,#0
    2261 00000283 1E4E          MOVL      *-SP[14],ACC          ; |433| 
    2262                      .dwpsn  "GUI_lcd_driver.c",433,35
    2263 00000284 9B00          MOV       AH,#0
    2264 00000285 9A00          MOV       AL,#0
    2265 00000286 1E50          MOVL      *-SP[16],ACC          ; |433| 
    2266                      .dwpsn  "GUI_lcd_driver.c",435,2
    2267 00000287 9245          MOV       AL,*-SP[5]            ; |435| 
    2268 00000288 5443          CMP       AL,*-SP[3]            ; |435| 
    2269 00000289 ED04          BF        L35,NEQ               ; |435| 
    2270                      ; branchcc occurs ; |435| 
    2271                      .dwpsn  "GUI_lcd_driver.c",437,3
    2272 0000028a 9A02          MOVB      AL,#2                 ; |437| 
    2273 0000028b 9647          MOV       *-SP[7],AL            ; |437| 
    2274                      .dwpsn  "GUI_lcd_driver.c",438,2
TMS320C2000 COFF Assembler PC v4.1.3 Mon Dec 03 13:50:31 2012

Tools Copyright (c) 1996-2006 Texas Instruments Incorporated
C:\DOCUME~1\ADMINI~1\LOCALS~1\Temp\TI9922                            PAGE   44

    2275 0000028c 6F09          B         L37,UNC               ; |438| 
    2276                      ; branch occurs ; |438| 
    2277              L35:    
    2278                      .dwpsn  "GUI_lcd_driver.c",439,7
    2279 0000028d 9246          MOV       AL,*-SP[6]            ; |439| 
    2280 0000028e 5444          CMP       AL,*-SP[4]            ; |439| 
    2281 0000028f ED04          BF        L36,NEQ               ; |439| 
    2282                      ; branchcc occurs ; |439| 
    2283                      .dwpsn  "GUI_lcd_driver.c",441,3
    2284 00000290 9A01          MOVB      AL,#1                 ; |441| 
    2285 00000291 9647          MOV       *-SP[7],AL            ; |441| 
    2286                      .dwpsn  "GUI_lcd_driver.c",442,2
    2287 00000292 6F03          B         L37,UNC               ; |442| 
    2288                      ; branch occurs ; |442| 
    2289              L36:    
    2290                      .dwpsn  "GUI_lcd_driver.c",445,3
    2291 00000293 9A03          MOVB      AL,#3                 ; |445| 
    2292 00000294 9647          MOV       *-SP[7],AL            ; |445| 
    2293              L37:    
    2294                      .dwpsn  "GUI_lcd_driver.c",447,2
    2295 00000295 5201          CMPB      AL,#1                 ; |447| 
    2296 00000296 ED2E          BF        L41,NEQ               ; |447| 
    2297                      ; branchcc occurs ; |447| 
    2298                      .dwpsn  "GUI_lcd_driver.c",449,3
    2299 00000297 9245          MOV       AL,*-SP[5]            ; |449| 
    2300 00000298 5443          CMP       AL,*-SP[3]            ; |449| 
    2301 00000299 6902          B         L38,LOS               ; |449| 
    2302                      ; branchcc occurs ; |449| 
    2303 0000029a 9243          MOV       AL,*-SP[3]            ; |449| 
    2304 0000029b       L38:    
    2305 0000029b 7640!         LCR       #U$$TOFS              ; |449| 
         0000029c 0000 
    2306                      ; call occurs [#U$$TOFS] ; |449| 
    2307 0000029d 1E4A          MOVL      *-SP[10],ACC          ; |449| 
    2308                      .dwpsn  "GUI_lcd_driver.c",450,3
    2309 0000029e 9245          MOV       AL,*-SP[5]            ; |450| 
    2310 0000029f 5443          CMP       AL,*-SP[3]            ; |450| 
    2311 000002a0 6702          B         L39,HIS               ; |450| 
    2312                      ; branchcc occurs ; |450| 
    2313 000002a1 9243          MOV       AL,*-SP[3]            ; |450| 
    2314 000002a2       L39:    
    2315 000002a2 7640!         LCR       #U$$TOFS              ; |450| 
         000002a3 0000 
    2316                      ; call occurs [#U$$TOFS] ; |450| 
    2317 000002a4 1E4C          MOVL      *-SP[12],ACC          ; |450| 
    2318                      .dwpsn  "GUI_lcd_driver.c",451,11
    2319 000002a5 064C          MOVL      ACC,*-SP[12]          ; |451| 
    2320 000002a6 1E42          MOVL      *-SP[2],ACC           ; |451| 
    2321 000002a7 064A          MOVL      ACC,*-SP[10]          ; |451| 
    2322 000002a8 7640!         LCR       #FS$$CMP              ; |451| 
         000002a9 0000 
    2323                      ; call occurs [#FS$$CMP] ; |451| 
    2324 000002aa 5200          CMPB      AL,#0                 ; |451| 
    2325 000002ab FFE3          B         L55,GEQ               ; |451| 
         000002ac 0127 
TMS320C2000 COFF Assembler PC v4.1.3 Mon Dec 03 13:50:31 2012

Tools Copyright (c) 1996-2006 Texas Instruments Incorporated
C:\DOCUME~1\ADMINI~1\LOCALS~1\Temp\TI9922                            PAGE   45

    2326                      ; branchcc occurs ; |451| 
    2327              L40:    
    2328              DW$L$_lcd_driver_draw_line$12$B:
    2329                      .dwpsn  "GUI_lcd_driver.c",453,4
    2330 000002ad 064A          MOVL      ACC,*-SP[10]          ; |453| 
    2331 000002ae 7640!         LCR       #FS$$TOU              ; |453| 
         000002af 0000 
    2332                      ; call occurs [#FS$$TOU] ; |453| 
    2333 000002b0 5C59          MOVZ      AR4,*-SP[25]          ; |453| 
    2334 000002b1 9344          MOV       AH,*-SP[4]            ; |453| 
    2335 000002b2 7640'         LCR       #_lcd_driver_draw_dot ; |453| 
         000002b3 0070 
    2336                      ; call occurs [#_lcd_driver_draw_dot] ; |453| 
    2337                      .dwpsn  "GUI_lcd_driver.c",454,4
    2338 000002b4 FF2F          MOV       ACC,#32512 << 15
         000002b5 7F00 
    2339 000002b6 1E42          MOVL      *-SP[2],ACC           ; |454| 
    2340 000002b7 064A          MOVL      ACC,*-SP[10]          ; |454| 
    2341 000002b8 7640!         LCR       #FS$$ADD              ; |454| 
         000002b9 0000 
    2342                      ; call occurs [#FS$$ADD] ; |454| 
    2343 000002ba 1E4A          MOVL      *-SP[10],ACC          ; |454| 
    2344                      .dwpsn  "GUI_lcd_driver.c",451,11
    2345 000002bb 064C          MOVL      ACC,*-SP[12]          ; |451| 
    2346 000002bc 1E42          MOVL      *-SP[2],ACC           ; |451| 
    2347 000002bd 064A          MOVL      ACC,*-SP[10]          ; |451| 
    2348 000002be 7640!         LCR       #FS$$CMP              ; |451| 
         000002bf 0000 
    2349                      ; call occurs [#FS$$CMP] ; |451| 
    2350 000002c0 5200          CMPB      AL,#0                 ; |451| 
    2351 000002c1 64EC          B         L40,LT                ; |451| 
    2352                      ; branchcc occurs ; |451| 
    2353              DW$L$_lcd_driver_draw_line$12$E:
    2354                      .dwpsn  "GUI_lcd_driver.c",456,2
    2355 000002c2 FFEF          B         L55,UNC               ; |456| 
         000002c3 0110 
    2356                      ; branch occurs ; |456| 
    2357              L41:    
    2358                      .dwpsn  "GUI_lcd_driver.c",457,7
    2359 000002c4 5202          CMPB      AL,#2                 ; |457| 
    2360 000002c5 ED2F          BF        L45,NEQ               ; |457| 
    2361                      ; branchcc occurs ; |457| 
    2362                      .dwpsn  "GUI_lcd_driver.c",459,3
    2363 000002c6 9246          MOV       AL,*-SP[6]            ; |459| 
    2364 000002c7 5444          CMP       AL,*-SP[4]            ; |459| 
    2365 000002c8 6902          B         L42,LOS               ; |459| 
    2366                      ; branchcc occurs ; |459| 
    2367 000002c9 9244          MOV       AL,*-SP[4]            ; |459| 
    2368 000002ca       L42:    
    2369 000002ca 7640!         LCR       #U$$TOFS              ; |459| 
         000002cb 0000 
    2370                      ; call occurs [#U$$TOFS] ; |459| 
    2371 000002cc 1E4E          MOVL      *-SP[14],ACC          ; |459| 
    2372                      .dwpsn  "GUI_lcd_driver.c",460,3
    2373 000002cd 9246          MOV       AL,*-SP[6]            ; |460| 
TMS320C2000 COFF Assembler PC v4.1.3 Mon Dec 03 13:50:31 2012

Tools Copyright (c) 1996-2006 Texas Instruments Incorporated
C:\DOCUME~1\ADMINI~1\LOCALS~1\Temp\TI9922                            PAGE   46

    2374 000002ce 5444          CMP       AL,*-SP[4]            ; |460| 
    2375 000002cf 6702          B         L43,HIS               ; |460| 
    2376                      ; branchcc occurs ; |460| 
    2377 000002d0 9244          MOV       AL,*-SP[4]            ; |460| 
    2378 000002d1       L43:    
    2379 000002d1 7640!         LCR       #U$$TOFS              ; |460| 
         000002d2 0000 
    2380                      ; call occurs [#U$$TOFS] ; |460| 
    2381 000002d3 1E50          MOVL      *-SP[16],ACC          ; |460| 
    2382                      .dwpsn  "GUI_lcd_driver.c",461,11
    2383 000002d4 0650          MOVL      ACC,*-SP[16]          ; |461| 
    2384 000002d5 1E42          MOVL      *-SP[2],ACC           ; |461| 
    2385 000002d6 064E          MOVL      ACC,*-SP[14]          ; |461| 
    2386 000002d7 7640!         LCR       #FS$$CMP              ; |461| 
         000002d8 0000 
    2387                      ; call occurs [#FS$$CMP] ; |461| 
    2388 000002d9 5200          CMPB      AL,#0                 ; |461| 
    2389 000002da FFE3          B         L55,GEQ               ; |461| 
         000002db 00F8 
    2390                      ; branchcc occurs ; |461| 
    2391              L44:    
    2392              DW$L$_lcd_driver_draw_line$20$B:
    2393                      .dwpsn  "GUI_lcd_driver.c",463,4
    2394 000002dc 064E          MOVL      ACC,*-SP[14]          ; |463| 
    2395 000002dd 7640!         LCR       #FS$$TOU              ; |463| 
         000002de 0000 
    2396                      ; call occurs [#FS$$TOU] ; |463| 
    2397 000002df 5C59          MOVZ      AR4,*-SP[25]          ; |463| 
    2398 000002e0 93A9          MOV       AH,AL                 ; |463| 
    2399 000002e1 9243          MOV       AL,*-SP[3]            ; |463| 
    2400 000002e2 7640'         LCR       #_lcd_driver_draw_dot ; |463| 
         000002e3 0070 
    2401                      ; call occurs [#_lcd_driver_draw_dot] ; |463| 
    2402                      .dwpsn  "GUI_lcd_driver.c",464,4
    2403 000002e4 FF2F          MOV       ACC,#32512 << 15
         000002e5 7F00 
    2404 000002e6 1E42          MOVL      *-SP[2],ACC           ; |464| 
    2405 000002e7 064E          MOVL      ACC,*-SP[14]          ; |464| 
    2406 000002e8 7640!         LCR       #FS$$ADD              ; |464| 
         000002e9 0000 
    2407                      ; call occurs [#FS$$ADD] ; |464| 
    2408 000002ea 1E4E          MOVL      *-SP[14],ACC          ; |464| 
    2409                      .dwpsn  "GUI_lcd_driver.c",461,11
    2410 000002eb 0650          MOVL      ACC,*-SP[16]          ; |461| 
    2411 000002ec 1E42          MOVL      *-SP[2],ACC           ; |461| 
    2412 000002ed 064E          MOVL      ACC,*-SP[14]          ; |461| 
    2413 000002ee 7640!         LCR       #FS$$CMP              ; |461| 
         000002ef 0000 
    2414                      ; call occurs [#FS$$CMP] ; |461| 
    2415 000002f0 5200          CMPB      AL,#0                 ; |461| 
    2416 000002f1 64EB          B         L44,LT                ; |461| 
    2417                      ; branchcc occurs ; |461| 
    2418              DW$L$_lcd_driver_draw_line$20$E:
    2419                      .dwpsn  "GUI_lcd_driver.c",466,2
    2420 000002f2 FFEF          B         L55,UNC               ; |466| 
TMS320C2000 COFF Assembler PC v4.1.3 Mon Dec 03 13:50:31 2012

Tools Copyright (c) 1996-2006 Texas Instruments Incorporated
C:\DOCUME~1\ADMINI~1\LOCALS~1\Temp\TI9922                            PAGE   47

         000002f3 00E0 
    2421                      ; branch occurs ; |466| 
    2422              L45:    
    2423                      .dwpsn  "GUI_lcd_driver.c",469,3
    2424 000002f4 9245          MOV       AL,*-SP[5]            ; |469| 
    2425 000002f5 7640!         LCR       #U$$TOFS              ; |469| 
         000002f6 0000 
    2426                      ; call occurs [#U$$TOFS] ; |469| 
    2427 000002f7 8BA9          MOVL      XAR1,ACC              ; |469| 
    2428 000002f8 9243          MOV       AL,*-SP[3]            ; |469| 
    2429 000002f9 7640!         LCR       #U$$TOFS              ; |469| 
         000002fa 0000 
    2430                      ; call occurs [#U$$TOFS] ; |469| 
    2431 000002fb 1E42          MOVL      *-SP[2],ACC           ; |469| 
    2432 000002fc B2A9          MOVL      ACC,XAR1              ; |469| 
    2433 000002fd 7640!         LCR       #FS$$SUB              ; |469| 
         000002fe 0000 
    2434                      ; call occurs [#FS$$SUB] ; |469| 
    2435 000002ff 1E4A          MOVL      *-SP[10],ACC          ; |469| 
    2436                      .dwpsn  "GUI_lcd_driver.c",470,3
    2437 00000300 9246          MOV       AL,*-SP[6]            ; |470| 
    2438 00000301 7640!         LCR       #U$$TOFS              ; |470| 
         00000302 0000 
    2439                      ; call occurs [#U$$TOFS] ; |470| 
    2440 00000303 8BA9          MOVL      XAR1,ACC              ; |470| 
    2441 00000304 9244          MOV       AL,*-SP[4]            ; |470| 
    2442 00000305 7640!         LCR       #U$$TOFS              ; |470| 
         00000306 0000 
    2443                      ; call occurs [#U$$TOFS] ; |470| 
    2444 00000307 1E42          MOVL      *-SP[2],ACC           ; |470| 
    2445 00000308 B2A9          MOVL      ACC,XAR1              ; |470| 
    2446 00000309 7640!         LCR       #FS$$SUB              ; |470| 
         0000030a 0000 
    2447                      ; call occurs [#FS$$SUB] ; |470| 
    2448 0000030b 1E4E          MOVL      *-SP[14],ACC          ; |470| 
    2449                      .dwpsn  "GUI_lcd_driver.c",471,3
    2450 0000030c 064A          MOVL      ACC,*-SP[10]          ; |471| 
    2451 0000030d 1E42          MOVL      *-SP[2],ACC           ; |471| 
    2452 0000030e 064E          MOVL      ACC,*-SP[14]          ; |471| 
    2453 0000030f 7640!         LCR       #FS$$DIV              ; |471| 
         00000310 0000 
    2454                      ; call occurs [#FS$$DIV] ; |471| 
    2455 00000311 1E52          MOVL      *-SP[18],ACC          ; |471| 
    2456                      .dwpsn  "GUI_lcd_driver.c",472,3
    2457 00000312 9A00          MOV       AL,#0
    2458 00000313 9B00          MOV       AH,#0
    2459 00000314 1E42          MOVL      *-SP[2],ACC           ; |472| 
    2460 00000315 0652          MOVL      ACC,*-SP[18]          ; |472| 
    2461 00000316 7640!         LCR       #FS$$CMP              ; |472| 
         00000317 0000 
    2462                      ; call occurs [#FS$$CMP] ; |472| 
    2463 00000318 5200          CMPB      AL,#0                 ; |472| 
    2464 00000319 6503          B         L46,LEQ               ; |472| 
    2465                      ; branchcc occurs ; |472| 
    2466 0000031a C452          MOVL      XAR6,*-SP[18]         ; |472| 
TMS320C2000 COFF Assembler PC v4.1.3 Mon Dec 03 13:50:31 2012

Tools Copyright (c) 1996-2006 Texas Instruments Incorporated
C:\DOCUME~1\ADMINI~1\LOCALS~1\Temp\TI9922                            PAGE   48

    2467 0000031b 6F05          B         L47,UNC               ; |472| 
    2468                      ; branch occurs ; |472| 
    2469 0000031c       L46:    
    2470 0000031c 0652          MOVL      ACC,*-SP[18]          ; |472| 
    2471 0000031d 7640!         LCR       #FS$$NEG              ; |472| 
         0000031e 0000 
    2472                      ; call occurs [#FS$$NEG] ; |472| 
    2473 0000031f 1EA6          MOVL      XAR6,ACC              ; |472| 
    2474 00000320       L47:    
    2475 00000320 FF2F          MOV       ACC,#32512 << 15
         00000321 7F00 
    2476 00000322 1E42          MOVL      *-SP[2],ACC           ; |472| 
    2477 00000323 06A6          MOVL      ACC,XAR6              ; |472| 
    2478 00000324 7640!         LCR       #FS$$CMP              ; |472| 
         00000325 0000 
    2479                      ; call occurs [#FS$$CMP] ; |472| 
    2480 00000326 5200          CMPB      AL,#0                 ; |472| 
    2481 00000327 6354          B         L51,GEQ               ; |472| 
    2482                      ; branchcc occurs ; |472| 
    2483                      .dwpsn  "GUI_lcd_driver.c",474,4
    2484 00000328 9243          MOV       AL,*-SP[3]            ; |474| 
    2485 00000329 7640!         LCR       #U$$TOFS              ; |474| 
         0000032a 0000 
    2486                      ; call occurs [#U$$TOFS] ; |474| 
    2487 0000032b 1E4A          MOVL      *-SP[10],ACC          ; |474| 
    2488                      .dwpsn  "GUI_lcd_driver.c",475,4
    2489 0000032c 9244          MOV       AL,*-SP[4]            ; |475| 
    2490 0000032d 7640!         LCR       #U$$TOFS              ; |475| 
         0000032e 0000 
    2491                      ; call occurs [#U$$TOFS] ; |475| 
    2492 0000032f 1E4E          MOVL      *-SP[14],ACC          ; |475| 
    2493                      .dwpsn  "GUI_lcd_driver.c",476,4
    2494 00000330 064A          MOVL      ACC,*-SP[10]          ; |476| 
    2495 00000331 1E42          MOVL      *-SP[2],ACC           ; |476| 
    2496 00000332 0652          MOVL      ACC,*-SP[18]          ; |476| 
    2497 00000333 7640!         LCR       #FS$$MPY              ; |476| 
         00000334 0000 
    2498                      ; call occurs [#FS$$MPY] ; |476| 
    2499 00000335 1E42          MOVL      *-SP[2],ACC           ; |476| 
    2500 00000336 064E          MOVL      ACC,*-SP[14]          ; |476| 
    2501 00000337 7640!         LCR       #FS$$SUB              ; |476| 
         00000338 0000 
    2502                      ; call occurs [#FS$$SUB] ; |476| 
    2503 00000339 1E54          MOVL      *-SP[20],ACC          ; |476| 
    2504                      .dwpsn  "GUI_lcd_driver.c",477,4
    2505 0000033a 9245          MOV       AL,*-SP[5]            ; |477| 
    2506 0000033b 5443          CMP       AL,*-SP[3]            ; |477| 
    2507 0000033c 6902          B         L48,LOS               ; |477| 
    2508                      ; branchcc occurs ; |477| 
    2509 0000033d 9243          MOV       AL,*-SP[3]            ; |477| 
    2510 0000033e       L48:    
    2511 0000033e 7640!         LCR       #U$$TOFS              ; |477| 
         0000033f 0000 
    2512                      ; call occurs [#U$$TOFS] ; |477| 
    2513 00000340 1E4A          MOVL      *-SP[10],ACC          ; |477| 
TMS320C2000 COFF Assembler PC v4.1.3 Mon Dec 03 13:50:31 2012

Tools Copyright (c) 1996-2006 Texas Instruments Incorporated
C:\DOCUME~1\ADMINI~1\LOCALS~1\Temp\TI9922                            PAGE   49

    2514                      .dwpsn  "GUI_lcd_driver.c",478,4
    2515 00000341 9245          MOV       AL,*-SP[5]            ; |478| 
    2516 00000342 5443          CMP       AL,*-SP[3]            ; |478| 
    2517 00000343 6702          B         L49,HIS               ; |478| 
    2518                      ; branchcc occurs ; |478| 
    2519 00000344 9243          MOV       AL,*-SP[3]            ; |478| 
    2520 00000345       L49:    
    2521 00000345 7640!         LCR       #U$$TOFS              ; |478| 
         00000346 0000 
    2522                      ; call occurs [#U$$TOFS] ; |478| 
    2523 00000347 1E4C          MOVL      *-SP[12],ACC          ; |478| 
    2524                      .dwpsn  "GUI_lcd_driver.c",479,12
    2525 00000348 064C          MOVL      ACC,*-SP[12]          ; |479| 
    2526 00000349 1E42          MOVL      *-SP[2],ACC           ; |479| 
    2527 0000034a 064A          MOVL      ACC,*-SP[10]          ; |479| 
    2528 0000034b 7640!         LCR       #FS$$CMP              ; |479| 
         0000034c 0000 
    2529                      ; call occurs [#FS$$CMP] ; |479| 
    2530 0000034d 5200          CMPB      AL,#0                 ; |479| 
    2531 0000034e FFE3          B         L55,GEQ               ; |479| 
         0000034f 0084 
    2532                      ; branchcc occurs ; |479| 
    2533              L50:    
    2534              DW$L$_lcd_driver_draw_line$31$B:
    2535                      .dwpsn  "GUI_lcd_driver.c",481,5
    2536 00000350 064A          MOVL      ACC,*-SP[10]          ; |481| 
    2537 00000351 1E42          MOVL      *-SP[2],ACC           ; |481| 
    2538 00000352 0652          MOVL      ACC,*-SP[18]          ; |481| 
    2539 00000353 7640!         LCR       #FS$$MPY              ; |481| 
         00000354 0000 
    2540                      ; call occurs [#FS$$MPY] ; |481| 
    2541 00000355 C454          MOVL      XAR6,*-SP[20]         ; |481| 
    2542 00000356 C242          MOVL      *-SP[2],XAR6          ; |481| 
    2543 00000357 7640!         LCR       #FS$$ADD              ; |481| 
         00000358 0000 
    2544                      ; call occurs [#FS$$ADD] ; |481| 
    2545 00000359 1E4E          MOVL      *-SP[14],ACC          ; |481| 
    2546                      .dwpsn  "GUI_lcd_driver.c",482,5
    2547 0000035a 064A          MOVL      ACC,*-SP[10]          ; |482| 
    2548 0000035b 7640!         LCR       #_global_round_off_float ; |482| 
         0000035c 0000 
    2549                      ; call occurs [#_global_round_off_float] ; |482| 
    2550 0000035d 7640!         LCR       #FS$$TOU              ; |482| 
         0000035e 0000 
    2551                      ; call occurs [#FS$$TOU] ; |482| 
    2552 0000035f 59A9          MOVZ      AR1,AL                ; |482| 
    2553 00000360 064E          MOVL      ACC,*-SP[14]          ; |482| 
    2554 00000361 7640!         LCR       #_global_round_off_float ; |482| 
         00000362 0000 
    2555                      ; call occurs [#_global_round_off_float] ; |482| 
    2556 00000363 7640!         LCR       #FS$$TOU              ; |482| 
         00000364 0000 
    2557                      ; call occurs [#FS$$TOU] ; |482| 
    2558 00000365 5C59          MOVZ      AR4,*-SP[25]          ; |482| 
    2559 00000366 93A9          MOV       AH,AL                 ; |482| 
TMS320C2000 COFF Assembler PC v4.1.3 Mon Dec 03 13:50:31 2012

Tools Copyright (c) 1996-2006 Texas Instruments Incorporated
C:\DOCUME~1\ADMINI~1\LOCALS~1\Temp\TI9922                            PAGE   50

    2560 00000367 92A1          MOV       AL,AR1                ; |482| 
    2561 00000368 7640'         LCR       #_lcd_driver_draw_dot ; |482| 
         00000369 0070 
    2562                      ; call occurs [#_lcd_driver_draw_dot] ; |482| 
    2563                      .dwpsn  "GUI_lcd_driver.c",486,5
    2564 0000036a 28A9          MOV       AL,#52429
         0000036b CCCD 
    2565 0000036c 28A8          MOV       AH,#15948
         0000036d 3E4C 
    2566 0000036e 1E42          MOVL      *-SP[2],ACC           ; |486| 
    2567 0000036f 064A          MOVL      ACC,*-SP[10]          ; |486| 
    2568 00000370 7640!         LCR       #FS$$ADD              ; |486| 
         00000371 0000 
    2569                      ; call occurs [#FS$$ADD] ; |486| 
    2570 00000372 1E4A          MOVL      *-SP[10],ACC          ; |486| 
    2571                      .dwpsn  "GUI_lcd_driver.c",479,12
    2572 00000373 064C          MOVL      ACC,*-SP[12]          ; |479| 
    2573 00000374 1E42          MOVL      *-SP[2],ACC           ; |479| 
    2574 00000375 064A          MOVL      ACC,*-SP[10]          ; |479| 
    2575 00000376 7640!         LCR       #FS$$CMP              ; |479| 
         00000377 0000 
    2576                      ; call occurs [#FS$$CMP] ; |479| 
    2577 00000378 5200          CMPB      AL,#0                 ; |479| 
    2578 00000379 64D7          B         L50,LT                ; |479| 
    2579                      ; branchcc occurs ; |479| 
    2580              DW$L$_lcd_driver_draw_line$31$E:
    2581                      .dwpsn  "GUI_lcd_driver.c",488,3
    2582 0000037a 6F58          B         L55,UNC               ; |488| 
    2583                      ; branch occurs ; |488| 
    2584              L51:    
    2585                      .dwpsn  "GUI_lcd_driver.c",491,4
    2586 0000037b 064E          MOVL      ACC,*-SP[14]          ; |491| 
    2587 0000037c 1E42          MOVL      *-SP[2],ACC           ; |491| 
    2588 0000037d 064A          MOVL      ACC,*-SP[10]          ; |491| 
    2589 0000037e 7640!         LCR       #FS$$DIV              ; |491| 
         0000037f 0000 
    2590                      ; call occurs [#FS$$DIV] ; |491| 
    2591 00000380 1E52          MOVL      *-SP[18],ACC          ; |491| 
    2592                      .dwpsn  "GUI_lcd_driver.c",492,4
    2593 00000381 9243          MOV       AL,*-SP[3]            ; |492| 
    2594 00000382 7640!         LCR       #U$$TOFS              ; |492| 
         00000383 0000 
    2595                      ; call occurs [#U$$TOFS] ; |492| 
    2596 00000384 1E4A          MOVL      *-SP[10],ACC          ; |492| 
    2597                      .dwpsn  "GUI_lcd_driver.c",493,4
    2598 00000385 9244          MOV       AL,*-SP[4]            ; |493| 
    2599 00000386 7640!         LCR       #U$$TOFS              ; |493| 
         00000387 0000 
    2600                      ; call occurs [#U$$TOFS] ; |493| 
    2601 00000388 1E4E          MOVL      *-SP[14],ACC          ; |493| 
    2602                      .dwpsn  "GUI_lcd_driver.c",494,4
    2603 00000389 064E          MOVL      ACC,*-SP[14]          ; |494| 
    2604 0000038a 1E42          MOVL      *-SP[2],ACC           ; |494| 
    2605 0000038b 0652          MOVL      ACC,*-SP[18]          ; |494| 
    2606 0000038c 7640!         LCR       #FS$$MPY              ; |494| 
TMS320C2000 COFF Assembler PC v4.1.3 Mon Dec 03 13:50:31 2012

Tools Copyright (c) 1996-2006 Texas Instruments Incorporated
C:\DOCUME~1\ADMINI~1\LOCALS~1\Temp\TI9922                            PAGE   51

         0000038d 0000 
    2607                      ; call occurs [#FS$$MPY] ; |494| 
    2608 0000038e 1E42          MOVL      *-SP[2],ACC           ; |494| 
    2609 0000038f 064A          MOVL      ACC,*-SP[10]          ; |494| 
    2610 00000390 7640!         LCR       #FS$$SUB              ; |494| 
         00000391 0000 
    2611                      ; call occurs [#FS$$SUB] ; |494| 
    2612 00000392 1E54          MOVL      *-SP[20],ACC          ; |494| 
    2613                      .dwpsn  "GUI_lcd_driver.c",495,4
    2614 00000393 9246          MOV       AL,*-SP[6]            ; |495| 
    2615 00000394 5444          CMP       AL,*-SP[4]            ; |495| 
    2616 00000395 6902          B         L52,LOS               ; |495| 
    2617                      ; branchcc occurs ; |495| 
    2618 00000396 9244          MOV       AL,*-SP[4]            ; |495| 
    2619 00000397       L52:    
    2620 00000397 7640!         LCR       #U$$TOFS              ; |495| 
         00000398 0000 
    2621                      ; call occurs [#U$$TOFS] ; |495| 
    2622 00000399 1E4E          MOVL      *-SP[14],ACC          ; |495| 
    2623                      .dwpsn  "GUI_lcd_driver.c",496,4
    2624 0000039a 9246          MOV       AL,*-SP[6]            ; |496| 
    2625 0000039b 5444          CMP       AL,*-SP[4]            ; |496| 
    2626 0000039c 6702          B         L53,HIS               ; |496| 
    2627                      ; branchcc occurs ; |496| 
    2628 0000039d 9244          MOV       AL,*-SP[4]            ; |496| 
    2629 0000039e       L53:    
    2630 0000039e 7640!         LCR       #U$$TOFS              ; |496| 
         0000039f 0000 
    2631                      ; call occurs [#U$$TOFS] ; |496| 
    2632 000003a0 1E50          MOVL      *-SP[16],ACC          ; |496| 
    2633                      .dwpsn  "GUI_lcd_driver.c",497,12
    2634 000003a1 0650          MOVL      ACC,*-SP[16]          ; |497| 
    2635 000003a2 1E42          MOVL      *-SP[2],ACC           ; |497| 
    2636 000003a3 064E          MOVL      ACC,*-SP[14]          ; |497| 
    2637 000003a4 7640!         LCR       #FS$$CMP              ; |497| 
         000003a5 0000 
    2638                      ; call occurs [#FS$$CMP] ; |497| 
    2639 000003a6 5200          CMPB      AL,#0                 ; |497| 
    2640 000003a7 632B          B         L55,GEQ               ; |497| 
    2641                      ; branchcc occurs ; |497| 
    2642              L54:    
    2643              DW$L$_lcd_driver_draw_line$38$B:
    2644                      .dwpsn  "GUI_lcd_driver.c",499,5
    2645 000003a8 064E          MOVL      ACC,*-SP[14]          ; |499| 
    2646 000003a9 1E42          MOVL      *-SP[2],ACC           ; |499| 
    2647 000003aa 0652          MOVL      ACC,*-SP[18]          ; |499| 
    2648 000003ab 7640!         LCR       #FS$$MPY              ; |499| 
         000003ac 0000 
    2649                      ; call occurs [#FS$$MPY] ; |499| 
    2650 000003ad C454          MOVL      XAR6,*-SP[20]         ; |499| 
    2651 000003ae C242          MOVL      *-SP[2],XAR6          ; |499| 
    2652 000003af 7640!         LCR       #FS$$ADD              ; |499| 
         000003b0 0000 
    2653                      ; call occurs [#FS$$ADD] ; |499| 
    2654 000003b1 1E4A          MOVL      *-SP[10],ACC          ; |499| 
TMS320C2000 COFF Assembler PC v4.1.3 Mon Dec 03 13:50:31 2012

Tools Copyright (c) 1996-2006 Texas Instruments Incorporated
C:\DOCUME~1\ADMINI~1\LOCALS~1\Temp\TI9922                            PAGE   52

    2655                      .dwpsn  "GUI_lcd_driver.c",500,5
    2656 000003b2 064A          MOVL      ACC,*-SP[10]          ; |500| 
    2657 000003b3 7640!         LCR       #_global_round_off_float ; |500| 
         000003b4 0000 
    2658                      ; call occurs [#_global_round_off_float] ; |500| 
    2659 000003b5 7640!         LCR       #FS$$TOU              ; |500| 
         000003b6 0000 
    2660                      ; call occurs [#FS$$TOU] ; |500| 
    2661 000003b7 59A9          MOVZ      AR1,AL                ; |500| 
    2662 000003b8 064E          MOVL      ACC,*-SP[14]          ; |500| 
    2663 000003b9 7640!         LCR       #_global_round_off_float ; |500| 
         000003ba 0000 
    2664                      ; call occurs [#_global_round_off_float] ; |500| 
    2665 000003bb 7640!         LCR       #FS$$TOU              ; |500| 
         000003bc 0000 
    2666                      ; call occurs [#FS$$TOU] ; |500| 
    2667 000003bd 5C59          MOVZ      AR4,*-SP[25]          ; |500| 
    2668 000003be 93A9          MOV       AH,AL                 ; |500| 
    2669 000003bf 92A1          MOV       AL,AR1                ; |500| 
    2670 000003c0 7640'         LCR       #_lcd_driver_draw_dot ; |500| 
         000003c1 0070 
    2671                      ; call occurs [#_lcd_driver_draw_dot] ; |500| 
    2672                      .dwpsn  "GUI_lcd_driver.c",504,5
    2673 000003c2 28A9          MOV       AL,#52429
         000003c3 CCCD 
    2674 000003c4 28A8          MOV       AH,#15948
         000003c5 3E4C 
    2675 000003c6 1E42          MOVL      *-SP[2],ACC           ; |504| 
    2676 000003c7 064E          MOVL      ACC,*-SP[14]          ; |504| 
    2677 000003c8 7640!         LCR       #FS$$ADD              ; |504| 
         000003c9 0000 
    2678                      ; call occurs [#FS$$ADD] ; |504| 
    2679 000003ca 1E4E          MOVL      *-SP[14],ACC          ; |504| 
    2680                      .dwpsn  "GUI_lcd_driver.c",497,12
    2681 000003cb 0650          MOVL      ACC,*-SP[16]          ; |497| 
    2682 000003cc 1E42          MOVL      *-SP[2],ACC           ; |497| 
    2683 000003cd 064E          MOVL      ACC,*-SP[14]          ; |497| 
    2684 000003ce 7640!         LCR       #FS$$CMP              ; |497| 
         000003cf 0000 
    2685                      ; call occurs [#FS$$CMP] ; |497| 
    2686 000003d0 5200          CMPB      AL,#0                 ; |497| 
    2687 000003d1 64D7          B         L54,LT                ; |497| 
    2688                      ; branchcc occurs ; |497| 
    2689              DW$L$_lcd_driver_draw_line$38$E:
    2690                      .dwpsn  "GUI_lcd_driver.c",508,2
    2691              L55:    
    2692                      .dwpsn  "GUI_lcd_driver.c",509,1
    2693 000003d2 FE94          SUBB      SP,#20
    2694                      .dwcfa  0x1d, -4
    2695 000003d3 8BBE          MOVL      XAR1,*--SP
    2696                      .dwcfa  0x1d, -2
    2697                      .dwcfa  0xc0, 7
    2698 000003d4 0006          LRETR
    2699                      ; return occurs
    2700              
TMS320C2000 COFF Assembler PC v4.1.3 Mon Dec 03 13:50:31 2012

Tools Copyright (c) 1996-2006 Texas Instruments Incorporated
C:\DOCUME~1\ADMINI~1\LOCALS~1\Temp\TI9922                            PAGE   53

    2701              DW$218  .dwtag  DW_TAG_loop
    2702                      .dwattr DW$218, DW_AT_name("C:\DOCUME~1\ADMINI~1\LOCALS~1\Temp\TI9922:L54:1:1354513831")
    2703                      .dwattr DW$218, DW_AT_begin_file("GUI_lcd_driver.c")
    2704                      .dwattr DW$218, DW_AT_begin_line(0x1f1)
    2705                      .dwattr DW$218, DW_AT_end_line(0x1f9)
    2706              DW$219  .dwtag  DW_TAG_loop_range
    2707                      .dwattr DW$219, DW_AT_low_pc(DW$L$_lcd_driver_draw_line$38$B)
    2708                      .dwattr DW$219, DW_AT_high_pc(DW$L$_lcd_driver_draw_line$38$E)
    2709                      .dwendtag DW$218
    2710              
    2711              
    2712              DW$220  .dwtag  DW_TAG_loop
    2713                      .dwattr DW$220, DW_AT_name("C:\DOCUME~1\ADMINI~1\LOCALS~1\Temp\TI9922:L50:1:1354513831")
    2714                      .dwattr DW$220, DW_AT_begin_file("GUI_lcd_driver.c")
    2715                      .dwattr DW$220, DW_AT_begin_line(0x1df)
    2716                      .dwattr DW$220, DW_AT_end_line(0x1e7)
    2717              DW$221  .dwtag  DW_TAG_loop_range
    2718                      .dwattr DW$221, DW_AT_low_pc(DW$L$_lcd_driver_draw_line$31$B)
    2719                      .dwattr DW$221, DW_AT_high_pc(DW$L$_lcd_driver_draw_line$31$E)
    2720                      .dwendtag DW$220
    2721              
    2722              
    2723              DW$222  .dwtag  DW_TAG_loop
    2724                      .dwattr DW$222, DW_AT_name("C:\DOCUME~1\ADMINI~1\LOCALS~1\Temp\TI9922:L44:1:1354513831")
    2725                      .dwattr DW$222, DW_AT_begin_file("GUI_lcd_driver.c")
    2726                      .dwattr DW$222, DW_AT_begin_line(0x1cd)
    2727                      .dwattr DW$222, DW_AT_end_line(0x1d1)
    2728              DW$223  .dwtag  DW_TAG_loop_range
    2729                      .dwattr DW$223, DW_AT_low_pc(DW$L$_lcd_driver_draw_line$20$B)
    2730                      .dwattr DW$223, DW_AT_high_pc(DW$L$_lcd_driver_draw_line$20$E)
    2731                      .dwendtag DW$222
    2732              
    2733              
    2734              DW$224  .dwtag  DW_TAG_loop
    2735                      .dwattr DW$224, DW_AT_name("C:\DOCUME~1\ADMINI~1\LOCALS~1\Temp\TI9922:L40:1:1354513831")
    2736                      .dwattr DW$224, DW_AT_begin_file("GUI_lcd_driver.c")
    2737                      .dwattr DW$224, DW_AT_begin_line(0x1c3)
    2738                      .dwattr DW$224, DW_AT_end_line(0x1c7)
    2739              DW$225  .dwtag  DW_TAG_loop_range
    2740                      .dwattr DW$225, DW_AT_low_pc(DW$L$_lcd_driver_draw_line$12$B)
    2741                      .dwattr DW$225, DW_AT_high_pc(DW$L$_lcd_driver_draw_line$12$E)
    2742                      .dwendtag DW$224
    2743              
    2744                      .dwattr DW$201, DW_AT_end_file("GUI_lcd_driver.c")
    2745                      .dwattr DW$201, DW_AT_end_line(0x1fd)
    2746                      .dwattr DW$201, DW_AT_end_column(0x01)
    2747                      .dwendentry
    2748                      .dwendtag DW$201
    2749              
    2750 000003d5               .sect   ".text"
    2751                      .global _lcd_driver_draw_rectangle
    2752              
    2753              DW$226  .dwtag  DW_TAG_subprogram, DW_AT_name("lcd_driver_draw_rectangle"), DW_AT_symbol_name("_lcd_driver_dr
    2754                      .dwattr DW$226, DW_AT_low_pc(_lcd_driver_draw_rectangle)
    2755                      .dwattr DW$226, DW_AT_high_pc(0x00)
TMS320C2000 COFF Assembler PC v4.1.3 Mon Dec 03 13:50:31 2012

Tools Copyright (c) 1996-2006 Texas Instruments Incorporated
C:\DOCUME~1\ADMINI~1\LOCALS~1\Temp\TI9922                            PAGE   54

    2756                      .dwattr DW$226, DW_AT_begin_file("GUI_lcd_driver.c")
    2757                      .dwattr DW$226, DW_AT_begin_line(0x204)
    2758                      .dwattr DW$226, DW_AT_begin_column(0x06)
    2759                      .dwpsn  "GUI_lcd_driver.c",523,1
    2760              
    2761                      .dwfde DW$CIE
    2762              
    2763              ;***************************************************************
    2764              ;* FNAME: _lcd_driver_draw_rectangle    FR SIZE:   6           *
    2765              ;*                                                             *
    2766              ;* FUNCTION ENVIRONMENT                                        *
    2767              ;*                                                             *
    2768              ;* FUNCTION PROPERTIES                                         *
    2769              ;*                            1 Parameter,  4 Auto,  0 SOE     *
    2770              ;***************************************************************
    2771              
    2772              _lcd_driver_draw_rectangle:
    2773                      .dwcfa  0x1d, -2
    2774                      .dwcfa  0x1c, 26, 0
    2775                      .dwcfa  0x09, 40, 26
    2776 000003d5 FE06          ADDB      SP,#6
    2777                      .dwcfa  0x1d, -8
    2778              ;* AL    assigned to _coord_x
    2779              DW$227  .dwtag  DW_TAG_formal_parameter, DW_AT_name("coord_x"), DW_AT_symbol_name("_coord_x")
    2780                      .dwattr DW$227, DW_AT_type(*DW$T$11)
    2781                      .dwattr DW$227, DW_AT_location[DW_OP_reg0]
    2782              ;* AH    assigned to _coord_y
    2783              DW$228  .dwtag  DW_TAG_formal_parameter, DW_AT_name("coord_y"), DW_AT_symbol_name("_coord_y")
    2784                      .dwattr DW$228, DW_AT_type(*DW$T$11)
    2785                      .dwattr DW$228, DW_AT_location[DW_OP_reg1]
    2786              ;* AR4   assigned to _x_len
    2787              DW$229  .dwtag  DW_TAG_formal_parameter, DW_AT_name("x_len"), DW_AT_symbol_name("_x_len")
    2788                      .dwattr DW$229, DW_AT_type(*DW$T$11)
    2789                      .dwattr DW$229, DW_AT_location[DW_OP_reg12]
    2790              ;* AR5   assigned to _y_len
    2791              DW$230  .dwtag  DW_TAG_formal_parameter, DW_AT_name("y_len"), DW_AT_symbol_name("_y_len")
    2792                      .dwattr DW$230, DW_AT_type(*DW$T$11)
    2793                      .dwattr DW$230, DW_AT_location[DW_OP_reg14]
    2794              DW$231  .dwtag  DW_TAG_formal_parameter, DW_AT_name("color"), DW_AT_symbol_name("_color")
    2795                      .dwattr DW$231, DW_AT_type(*DW$T$6)
    2796                      .dwattr DW$231, DW_AT_location[DW_OP_breg20 -9]
    2797              DW$232  .dwtag  DW_TAG_variable, DW_AT_name("coord_x"), DW_AT_symbol_name("_coord_x")
    2798                      .dwattr DW$232, DW_AT_type(*DW$T$11)
    2799                      .dwattr DW$232, DW_AT_location[DW_OP_breg20 -2]
    2800              DW$233  .dwtag  DW_TAG_variable, DW_AT_name("coord_y"), DW_AT_symbol_name("_coord_y")
    2801                      .dwattr DW$233, DW_AT_type(*DW$T$11)
    2802                      .dwattr DW$233, DW_AT_location[DW_OP_breg20 -3]
    2803              DW$234  .dwtag  DW_TAG_variable, DW_AT_name("x_len"), DW_AT_symbol_name("_x_len")
    2804                      .dwattr DW$234, DW_AT_type(*DW$T$11)
    2805                      .dwattr DW$234, DW_AT_location[DW_OP_breg20 -4]
    2806              DW$235  .dwtag  DW_TAG_variable, DW_AT_name("y_len"), DW_AT_symbol_name("_y_len")
    2807                      .dwattr DW$235, DW_AT_type(*DW$T$11)
    2808                      .dwattr DW$235, DW_AT_location[DW_OP_breg20 -5]
    2809 000003d6 7D45          MOV       *-SP[5],AR5           ; |523| 
    2810 000003d7 7C44          MOV       *-SP[4],AR4           ; |523| 
TMS320C2000 COFF Assembler PC v4.1.3 Mon Dec 03 13:50:31 2012

Tools Copyright (c) 1996-2006 Texas Instruments Incorporated
C:\DOCUME~1\ADMINI~1\LOCALS~1\Temp\TI9922                            PAGE   55

    2811 000003d8 9743          MOV       *-SP[3],AH            ; |523| 
    2812 000003d9 9642          MOV       *-SP[2],AL            ; |523| 
    2813                      .dwpsn  "GUI_lcd_driver.c",524,2
    2814 000003da 9249          MOV       AL,*-SP[9]            ; |524| 
    2815 000003db 9641          MOV       *-SP[1],AL            ; |524| 
    2816 000003dc 9245          MOV       AL,*-SP[5]            ; |524| 
    2817 000003dd 9443          ADD       AL,*-SP[3]            ; |524| 
    2818 000003de 5DA9          MOVZ      AR5,AL                ; |524| 
    2819 000003df 5C42          MOVZ      AR4,*-SP[2]           ; |524| 
    2820 000003e0 9242          MOV       AL,*-SP[2]            ; |524| 
    2821 000003e1 9343          MOV       AH,*-SP[3]            ; |524| 
    2822 000003e2 7640'         LCR       #_lcd_driver_draw_line ; |524| 
         000003e3 0274 
    2823                      ; call occurs [#_lcd_driver_draw_line] ; |524| 
    2824                      .dwpsn  "GUI_lcd_driver.c",525,2
    2825 000003e4 9249          MOV       AL,*-SP[9]            ; |525| 
    2826 000003e5 9641          MOV       *-SP[1],AL            ; |525| 
    2827 000003e6 9244          MOV       AL,*-SP[4]            ; |525| 
    2828 000003e7 9442          ADD       AL,*-SP[2]            ; |525| 
    2829 000003e8 5CA9          MOVZ      AR4,AL                ; |525| 
    2830 000003e9 5D43          MOVZ      AR5,*-SP[3]           ; |525| 
    2831 000003ea 9242          MOV       AL,*-SP[2]            ; |525| 
    2832 000003eb 9343          MOV       AH,*-SP[3]            ; |525| 
    2833 000003ec 7640'         LCR       #_lcd_driver_draw_line ; |525| 
         000003ed 0274 
    2834                      ; call occurs [#_lcd_driver_draw_line] ; |525| 
    2835                      .dwpsn  "GUI_lcd_driver.c",526,2
    2836 000003ee 9249          MOV       AL,*-SP[9]            ; |526| 
    2837 000003ef 9641          MOV       *-SP[1],AL            ; |526| 
    2838 000003f0 9344          MOV       AH,*-SP[4]            ; |526| 
    2839 000003f1 9542          ADD       AH,*-SP[2]            ; |526| 
    2840 000003f2 9244          MOV       AL,*-SP[4]            ; |526| 
    2841 000003f3 5CA8          MOVZ      AR4,AH                ; |526| 
    2842 000003f4 9442          ADD       AL,*-SP[2]            ; |526| 
    2843 000003f5 9345          MOV       AH,*-SP[5]            ; |526| 
    2844 000003f6 9543          ADD       AH,*-SP[3]            ; |526| 
    2845 000003f7 5DA8          MOVZ      AR5,AH                ; |526| 
    2846 000003f8 9343          MOV       AH,*-SP[3]            ; |526| 
    2847 000003f9 7640'         LCR       #_lcd_driver_draw_line ; |526| 
         000003fa 0274 
    2848                      ; call occurs [#_lcd_driver_draw_line] ; |526| 
    2849                      .dwpsn  "GUI_lcd_driver.c",527,2
    2850 000003fb 9249          MOV       AL,*-SP[9]            ; |527| 
    2851 000003fc 9641          MOV       *-SP[1],AL            ; |527| 
    2852 000003fd 9244          MOV       AL,*-SP[4]            ; |527| 
    2853 000003fe 9442          ADD       AL,*-SP[2]            ; |527| 
    2854 000003ff 9345          MOV       AH,*-SP[5]            ; |527| 
    2855 00000400 5CA9          MOVZ      AR4,AL                ; |527| 
    2856 00000401 9543          ADD       AH,*-SP[3]            ; |527| 
    2857 00000402 9245          MOV       AL,*-SP[5]            ; |527| 
    2858 00000403 9443          ADD       AL,*-SP[3]            ; |527| 
    2859 00000404 5DA9          MOVZ      AR5,AL                ; |527| 
    2860 00000405 9242          MOV       AL,*-SP[2]            ; |527| 
    2861 00000406 7640'         LCR       #_lcd_driver_draw_line ; |527| 
         00000407 0274 
TMS320C2000 COFF Assembler PC v4.1.3 Mon Dec 03 13:50:31 2012

Tools Copyright (c) 1996-2006 Texas Instruments Incorporated
C:\DOCUME~1\ADMINI~1\LOCALS~1\Temp\TI9922                            PAGE   56

    2862                      ; call occurs [#_lcd_driver_draw_line] ; |527| 
    2863                      .dwpsn  "GUI_lcd_driver.c",528,2
    2864                      .dwpsn  "GUI_lcd_driver.c",529,1
    2865 00000408 FE86          SUBB      SP,#6
    2866                      .dwcfa  0x1d, -2
    2867 00000409 0006          LRETR
    2868                      ; return occurs
    2869                      .dwattr DW$226, DW_AT_end_file("GUI_lcd_driver.c")
    2870                      .dwattr DW$226, DW_AT_end_line(0x211)
    2871                      .dwattr DW$226, DW_AT_end_column(0x01)
    2872                      .dwendentry
    2873                      .dwendtag DW$226
    2874              
    2875 0000040a               .sect   ".text"
    2876                      .global _lcd_driver_clear_screen
    2877              
    2878              DW$236  .dwtag  DW_TAG_subprogram, DW_AT_name("lcd_driver_clear_screen"), DW_AT_symbol_name("_lcd_driver_clea
    2879                      .dwattr DW$236, DW_AT_low_pc(_lcd_driver_clear_screen)
    2880                      .dwattr DW$236, DW_AT_high_pc(0x00)
    2881                      .dwattr DW$236, DW_AT_begin_file("GUI_lcd_driver.c")
    2882                      .dwattr DW$236, DW_AT_begin_line(0x218)
    2883                      .dwattr DW$236, DW_AT_begin_column(0x06)
    2884                      .dwpsn  "GUI_lcd_driver.c",537,1
    2885              
    2886                      .dwfde DW$CIE
    2887              
    2888              ;***************************************************************
    2889              ;* FNAME: _lcd_driver_clear_screen      FR SIZE:   2           *
    2890              ;*                                                             *
    2891              ;* FUNCTION ENVIRONMENT                                        *
    2892              ;*                                                             *
    2893              ;* FUNCTION PROPERTIES                                         *
    2894              ;*                            1 Parameter,  1 Auto,  0 SOE     *
    2895              ;***************************************************************
    2896              
    2897              _lcd_driver_clear_screen:
    2898                      .dwcfa  0x1d, -2
    2899                      .dwcfa  0x1c, 26, 0
    2900                      .dwcfa  0x09, 40, 26
    2901 0000040a FE02          ADDB      SP,#2
    2902                      .dwcfa  0x1d, -4
    2903              ;* AL    assigned to _BColor
    2904              DW$237  .dwtag  DW_TAG_formal_parameter, DW_AT_name("BColor"), DW_AT_symbol_name("_BColor")
    2905                      .dwattr DW$237, DW_AT_type(*DW$T$6)
    2906                      .dwattr DW$237, DW_AT_location[DW_OP_reg0]
    2907              DW$238  .dwtag  DW_TAG_variable, DW_AT_name("BColor"), DW_AT_symbol_name("_BColor")
    2908                      .dwattr DW$238, DW_AT_type(*DW$T$6)
    2909                      .dwattr DW$238, DW_AT_location[DW_OP_breg20 -2]
    2910 0000040b 9642          MOV       *-SP[2],AL            ; |537| 
    2911                      .dwpsn  "GUI_lcd_driver.c",538,2
    2912 0000040c 9641          MOV       *-SP[1],AL            ; |538| 
    2913 0000040d 8F00          MOVL      XAR4,#320             ; |538| 
         0000040e 0140 
    2914 0000040f D5F0          MOVB      XAR5,#240             ; |538| 
    2915 00000410 0200          MOVB      ACC,#0
TMS320C2000 COFF Assembler PC v4.1.3 Mon Dec 03 13:50:31 2012

Tools Copyright (c) 1996-2006 Texas Instruments Incorporated
C:\DOCUME~1\ADMINI~1\LOCALS~1\Temp\TI9922                            PAGE   57

    2916 00000411 7640'         LCR       #_lcd_driver_fill_rectangle ; |538| 
         00000412 00AE 
    2917                      ; call occurs [#_lcd_driver_fill_rectangle] ; |538| 
    2918                      .dwpsn  "GUI_lcd_driver.c",539,2
    2919                      .dwpsn  "GUI_lcd_driver.c",540,1
    2920 00000413 FE82          SUBB      SP,#2
    2921                      .dwcfa  0x1d, -2
    2922 00000414 0006          LRETR
    2923                      ; return occurs
    2924                      .dwattr DW$236, DW_AT_end_file("GUI_lcd_driver.c")
    2925                      .dwattr DW$236, DW_AT_end_line(0x21c)
    2926                      .dwattr DW$236, DW_AT_end_column(0x01)
    2927                      .dwendentry
    2928                      .dwendtag DW$236
    2929              
    2930              ;***************************************************************
    2931              ;* UNDEFINED EXTERNAL REFERENCES                               *
    2932              ;***************************************************************
    2933                      .global _global_round_off_float
    2934                      .global _GpioDataRegs
    2935                      .global _GpioMuxRegs
    2936                      .global _EvbRegs
    2937                      .global FS$$TOU
    2938                      .global U$$TOFS
    2939                      .global FS$$CMP
    2940                      .global FS$$ADD
    2941                      .global FS$$SUB
    2942                      .global FS$$DIV
    2943                      .global FS$$NEG
    2944                      .global FS$$MPY
    2945              
    2946              ;***************************************************************
    2947              ;* TYPE INFORMATION                                            *
    2948              ;***************************************************************
    2949              
    2950              DW$T$138        .dwtag  DW_TAG_subroutine_type
    2951                      .dwattr DW$T$138, DW_AT_language(DW_LANG_C)
    2952              DW$239  .dwtag  DW_TAG_formal_parameter, DW_AT_type(*DW$T$11)
    2953                      .dwendtag DW$T$138
    2954              
    2955              
    2956              DW$T$141        .dwtag  DW_TAG_subroutine_type
    2957                      .dwattr DW$T$141, DW_AT_language(DW_LANG_C)
    2958              DW$240  .dwtag  DW_TAG_formal_parameter, DW_AT_type(*DW$T$140)
    2959                      .dwendtag DW$T$141
    2960              
    2961              
    2962              DW$T$144        .dwtag  DW_TAG_subroutine_type
    2963                      .dwattr DW$T$144, DW_AT_language(DW_LANG_C)
    2964              DW$241  .dwtag  DW_TAG_formal_parameter, DW_AT_type(*DW$T$10)
    2965              DW$242  .dwtag  DW_TAG_formal_parameter, DW_AT_type(*DW$T$143)
    2966              DW$243  .dwtag  DW_TAG_formal_parameter, DW_AT_type(*DW$T$6)
    2967                      .dwendtag DW$T$144
    2968              
    2969              
TMS320C2000 COFF Assembler PC v4.1.3 Mon Dec 03 13:50:31 2012

Tools Copyright (c) 1996-2006 Texas Instruments Incorporated
C:\DOCUME~1\ADMINI~1\LOCALS~1\Temp\TI9922                            PAGE   58

    2970              DW$T$146        .dwtag  DW_TAG_subroutine_type
    2971                      .dwattr DW$T$146, DW_AT_language(DW_LANG_C)
    2972              DW$244  .dwtag  DW_TAG_formal_parameter, DW_AT_type(*DW$T$11)
    2973              DW$245  .dwtag  DW_TAG_formal_parameter, DW_AT_type(*DW$T$11)
    2974              DW$246  .dwtag  DW_TAG_formal_parameter, DW_AT_type(*DW$T$6)
    2975                      .dwendtag DW$T$146
    2976              
    2977              
    2978              DW$T$149        .dwtag  DW_TAG_subroutine_type
    2979                      .dwattr DW$T$149, DW_AT_language(DW_LANG_C)
    2980              DW$247  .dwtag  DW_TAG_formal_parameter, DW_AT_type(*DW$T$11)
    2981              DW$248  .dwtag  DW_TAG_formal_parameter, DW_AT_type(*DW$T$11)
    2982              DW$249  .dwtag  DW_TAG_formal_parameter, DW_AT_type(*DW$T$148)
    2983                      .dwendtag DW$T$149
    2984              
    2985              
    2986              DW$T$150        .dwtag  DW_TAG_subroutine_type
    2987                      .dwattr DW$T$150, DW_AT_language(DW_LANG_C)
    2988              DW$250  .dwtag  DW_TAG_formal_parameter, DW_AT_type(*DW$T$11)
    2989              DW$251  .dwtag  DW_TAG_formal_parameter, DW_AT_type(*DW$T$11)
    2990              DW$252  .dwtag  DW_TAG_formal_parameter, DW_AT_type(*DW$T$11)
    2991              DW$253  .dwtag  DW_TAG_formal_parameter, DW_AT_type(*DW$T$11)
    2992              DW$254  .dwtag  DW_TAG_formal_parameter, DW_AT_type(*DW$T$6)
    2993                      .dwendtag DW$T$150
    2994              
    2995              
    2996              DW$T$153        .dwtag  DW_TAG_subroutine_type
    2997                      .dwattr DW$T$153, DW_AT_language(DW_LANG_C)
    2998              DW$255  .dwtag  DW_TAG_formal_parameter, DW_AT_type(*DW$T$11)
    2999              DW$256  .dwtag  DW_TAG_formal_parameter, DW_AT_type(*DW$T$11)
    3000              DW$257  .dwtag  DW_TAG_formal_parameter, DW_AT_type(*DW$T$140)
    3001              DW$258  .dwtag  DW_TAG_formal_parameter, DW_AT_type(*DW$T$140)
    3002              DW$259  .dwtag  DW_TAG_formal_parameter, DW_AT_type(*DW$T$140)
    3003              DW$260  .dwtag  DW_TAG_formal_parameter, DW_AT_type(*DW$T$140)
    3004              DW$261  .dwtag  DW_TAG_formal_parameter, DW_AT_type(*DW$T$152)
    3005                      .dwendtag DW$T$153
    3006              
    3007              
    3008              DW$T$154        .dwtag  DW_TAG_subroutine_type
    3009                      .dwattr DW$T$154, DW_AT_language(DW_LANG_C)
    3010              DW$262  .dwtag  DW_TAG_formal_parameter, DW_AT_type(*DW$T$11)
    3011              DW$263  .dwtag  DW_TAG_formal_parameter, DW_AT_type(*DW$T$11)
    3012              DW$264  .dwtag  DW_TAG_formal_parameter, DW_AT_type(*DW$T$140)
    3013              DW$265  .dwtag  DW_TAG_formal_parameter, DW_AT_type(*DW$T$140)
    3014              DW$266  .dwtag  DW_TAG_formal_parameter, DW_AT_type(*DW$T$140)
    3015              DW$267  .dwtag  DW_TAG_formal_parameter, DW_AT_type(*DW$T$140)
    3016              DW$268  .dwtag  DW_TAG_formal_parameter, DW_AT_type(*DW$T$140)
    3017              DW$269  .dwtag  DW_TAG_formal_parameter, DW_AT_type(*DW$T$152)
    3018                      .dwendtag DW$T$154
    3019              
    3020              
    3021              DW$T$155        .dwtag  DW_TAG_subroutine_type
    3022                      .dwattr DW$T$155, DW_AT_language(DW_LANG_C)
    3023              DW$270  .dwtag  DW_TAG_formal_parameter, DW_AT_type(*DW$T$11)
    3024              DW$271  .dwtag  DW_TAG_formal_parameter, DW_AT_type(*DW$T$11)
TMS320C2000 COFF Assembler PC v4.1.3 Mon Dec 03 13:50:31 2012

Tools Copyright (c) 1996-2006 Texas Instruments Incorporated
C:\DOCUME~1\ADMINI~1\LOCALS~1\Temp\TI9922                            PAGE   59

    3025              DW$272  .dwtag  DW_TAG_formal_parameter, DW_AT_type(*DW$T$11)
    3026              DW$273  .dwtag  DW_TAG_formal_parameter, DW_AT_type(*DW$T$11)
    3027              DW$274  .dwtag  DW_TAG_formal_parameter, DW_AT_type(*DW$T$140)
    3028                      .dwendtag DW$T$155
    3029              
    3030              
    3031              DW$T$156        .dwtag  DW_TAG_subroutine_type
    3032                      .dwattr DW$T$156, DW_AT_language(DW_LANG_C)
    3033              DW$275  .dwtag  DW_TAG_formal_parameter, DW_AT_type(*DW$T$11)
    3034              DW$276  .dwtag  DW_TAG_formal_parameter, DW_AT_type(*DW$T$11)
    3035              DW$277  .dwtag  DW_TAG_formal_parameter, DW_AT_type(*DW$T$11)
    3036              DW$278  .dwtag  DW_TAG_formal_parameter, DW_AT_type(*DW$T$11)
    3037              DW$279  .dwtag  DW_TAG_formal_parameter, DW_AT_type(*DW$T$148)
    3038                      .dwendtag DW$T$156
    3039              
    3040              
    3041              DW$T$157        .dwtag  DW_TAG_subroutine_type
    3042                      .dwattr DW$T$157, DW_AT_language(DW_LANG_C)
    3043              DW$280  .dwtag  DW_TAG_formal_parameter, DW_AT_type(*DW$T$11)
    3044              DW$281  .dwtag  DW_TAG_formal_parameter, DW_AT_type(*DW$T$11)
    3045              DW$282  .dwtag  DW_TAG_formal_parameter, DW_AT_type(*DW$T$11)
    3046              DW$283  .dwtag  DW_TAG_formal_parameter, DW_AT_type(*DW$T$11)
    3047              DW$284  .dwtag  DW_TAG_formal_parameter, DW_AT_type(*DW$T$148)
    3048              DW$285  .dwtag  DW_TAG_formal_parameter, DW_AT_type(*DW$T$6)
    3049                      .dwendtag DW$T$157
    3050              
    3051              
    3052              DW$T$158        .dwtag  DW_TAG_subroutine_type
    3053                      .dwattr DW$T$158, DW_AT_language(DW_LANG_C)
    3054              
    3055              DW$T$159        .dwtag  DW_TAG_subroutine_type
    3056                      .dwattr DW$T$159, DW_AT_language(DW_LANG_C)
    3057              DW$286  .dwtag  DW_TAG_formal_parameter, DW_AT_type(*DW$T$6)
    3058                      .dwendtag DW$T$159
    3059              
    3060              DW$T$6  .dwtag  DW_TAG_base_type, DW_AT_name("unsigned char")
    3061                      .dwattr DW$T$6, DW_AT_encoding(DW_ATE_unsigned_char)
    3062                      .dwattr DW$T$6, DW_AT_byte_size(0x01)
    3063              DW$T$148        .dwtag  DW_TAG_pointer_type, DW_AT_type(*DW$T$6)
    3064                      .dwattr DW$T$148, DW_AT_address_class(0x16)
    3065              
    3066              DW$T$160        .dwtag  DW_TAG_subroutine_type, DW_AT_type(*DW$T$6)
    3067                      .dwattr DW$T$160, DW_AT_language(DW_LANG_C)
    3068              DW$T$10 .dwtag  DW_TAG_base_type, DW_AT_name("int")
    3069                      .dwattr DW$T$10, DW_AT_encoding(DW_ATE_signed)
    3070                      .dwattr DW$T$10, DW_AT_byte_size(0x01)
    3071              DW$T$11 .dwtag  DW_TAG_base_type, DW_AT_name("unsigned int")
    3072                      .dwattr DW$T$11, DW_AT_encoding(DW_ATE_unsigned)
    3073                      .dwattr DW$T$11, DW_AT_byte_size(0x01)
    3074              DW$T$140        .dwtag  DW_TAG_typedef, DW_AT_name("Bsize_t"), DW_AT_type(*DW$T$11)
    3075                      .dwattr DW$T$140, DW_AT_language(DW_LANG_C)
    3076              DW$T$163        .dwtag  DW_TAG_pointer_type, DW_AT_type(*DW$T$11)
    3077                      .dwattr DW$T$163, DW_AT_address_class(0x16)
    3078              DW$T$16 .dwtag  DW_TAG_base_type, DW_AT_name("float")
    3079                      .dwattr DW$T$16, DW_AT_encoding(DW_ATE_float)
TMS320C2000 COFF Assembler PC v4.1.3 Mon Dec 03 13:50:31 2012

Tools Copyright (c) 1996-2006 Texas Instruments Incorporated
C:\DOCUME~1\ADMINI~1\LOCALS~1\Temp\TI9922                            PAGE   60

    3080                      .dwattr DW$T$16, DW_AT_byte_size(0x02)
    3081              
    3082              DW$T$165        .dwtag  DW_TAG_subroutine_type, DW_AT_type(*DW$T$16)
    3083                      .dwattr DW$T$165, DW_AT_language(DW_LANG_C)
    3084              DW$287  .dwtag  DW_TAG_formal_parameter, DW_AT_type(*DW$T$16)
    3085                      .dwendtag DW$T$165
    3086              
    3087              DW$288  .dwtag  DW_TAG_far_type
    3088                      .dwattr DW$288, DW_AT_type(*DW$T$55)
    3089              DW$T$168        .dwtag  DW_TAG_volatile_type
    3090                      .dwattr DW$T$168, DW_AT_type(*DW$288)
    3091              DW$289  .dwtag  DW_TAG_far_type
    3092                      .dwattr DW$289, DW_AT_type(*DW$T$105)
    3093              DW$T$173        .dwtag  DW_TAG_volatile_type
    3094                      .dwattr DW$T$173, DW_AT_type(*DW$289)
    3095              DW$290  .dwtag  DW_TAG_far_type
    3096                      .dwattr DW$290, DW_AT_type(*DW$T$137)
    3097              DW$T$184        .dwtag  DW_TAG_volatile_type
    3098                      .dwattr DW$T$184, DW_AT_type(*DW$290)
    3099              DW$T$143        .dwtag  DW_TAG_base_type, DW_AT_name("signed char")
    3100                      .dwattr DW$T$143, DW_AT_encoding(DW_ATE_signed_char)
    3101                      .dwattr DW$T$143, DW_AT_byte_size(0x01)
    3102              DW$T$152        .dwtag  DW_TAG_pointer_type, DW_AT_type(*DW$T$143)
    3103                      .dwattr DW$T$152, DW_AT_address_class(0x16)
    3104              
    3105              DW$T$55 .dwtag  DW_TAG_structure_type
    3106                      .dwattr DW$T$55, DW_AT_name("GPIO_MUX_REGS")
    3107                      .dwattr DW$T$55, DW_AT_byte_size(0x20)
    3108              DW$291  .dwtag  DW_TAG_member, DW_AT_type(*DW$T$21)
    3109                      .dwattr DW$291, DW_AT_name("GPAMUX"), DW_AT_symbol_name("_GPAMUX")
    3110                      .dwattr DW$291, DW_AT_data_member_location[DW_OP_plus_uconst 0x0]
    3111                      .dwattr DW$291, DW_AT_accessibility(DW_ACCESS_public)
    3112              DW$292  .dwtag  DW_TAG_member, DW_AT_type(*DW$T$23)
    3113                      .dwattr DW$292, DW_AT_name("GPADIR"), DW_AT_symbol_name("_GPADIR")
    3114                      .dwattr DW$292, DW_AT_data_member_location[DW_OP_plus_uconst 0x1]
    3115                      .dwattr DW$292, DW_AT_accessibility(DW_ACCESS_public)
    3116              DW$293  .dwtag  DW_TAG_member, DW_AT_type(*DW$T$25)
    3117                      .dwattr DW$293, DW_AT_name("GPAQUAL"), DW_AT_symbol_name("_GPAQUAL")
    3118                      .dwattr DW$293, DW_AT_data_member_location[DW_OP_plus_uconst 0x2]
    3119                      .dwattr DW$293, DW_AT_accessibility(DW_ACCESS_public)
    3120              DW$294  .dwtag  DW_TAG_member, DW_AT_type(*DW$T$19)
    3121                      .dwattr DW$294, DW_AT_name("rsvd1"), DW_AT_symbol_name("_rsvd1")
    3122                      .dwattr DW$294, DW_AT_data_member_location[DW_OP_plus_uconst 0x3]
    3123                      .dwattr DW$294, DW_AT_accessibility(DW_ACCESS_public)
    3124              DW$295  .dwtag  DW_TAG_member, DW_AT_type(*DW$T$27)
    3125                      .dwattr DW$295, DW_AT_name("GPBMUX"), DW_AT_symbol_name("_GPBMUX")
    3126                      .dwattr DW$295, DW_AT_data_member_location[DW_OP_plus_uconst 0x4]
    3127                      .dwattr DW$295, DW_AT_accessibility(DW_ACCESS_public)
    3128              DW$296  .dwtag  DW_TAG_member, DW_AT_type(*DW$T$29)
    3129                      .dwattr DW$296, DW_AT_name("GPBDIR"), DW_AT_symbol_name("_GPBDIR")
    3130                      .dwattr DW$296, DW_AT_data_member_location[DW_OP_plus_uconst 0x5]
    3131                      .dwattr DW$296, DW_AT_accessibility(DW_ACCESS_public)
    3132              DW$297  .dwtag  DW_TAG_member, DW_AT_type(*DW$T$31)
    3133                      .dwattr DW$297, DW_AT_name("GPBQUAL"), DW_AT_symbol_name("_GPBQUAL")
    3134                      .dwattr DW$297, DW_AT_data_member_location[DW_OP_plus_uconst 0x6]
TMS320C2000 COFF Assembler PC v4.1.3 Mon Dec 03 13:50:31 2012

Tools Copyright (c) 1996-2006 Texas Instruments Incorporated
C:\DOCUME~1\ADMINI~1\LOCALS~1\Temp\TI9922                            PAGE   61

    3135                      .dwattr DW$297, DW_AT_accessibility(DW_ACCESS_public)
    3136              DW$298  .dwtag  DW_TAG_member, DW_AT_type(*DW$T$52)
    3137                      .dwattr DW$298, DW_AT_name("rsvd2"), DW_AT_symbol_name("_rsvd2")
    3138                      .dwattr DW$298, DW_AT_data_member_location[DW_OP_plus_uconst 0x7]
    3139                      .dwattr DW$298, DW_AT_accessibility(DW_ACCESS_public)
    3140              DW$299  .dwtag  DW_TAG_member, DW_AT_type(*DW$T$33)
    3141                      .dwattr DW$299, DW_AT_name("GPDMUX"), DW_AT_symbol_name("_GPDMUX")
    3142                      .dwattr DW$299, DW_AT_data_member_location[DW_OP_plus_uconst 0xc]
    3143                      .dwattr DW$299, DW_AT_accessibility(DW_ACCESS_public)
    3144              DW$300  .dwtag  DW_TAG_member, DW_AT_type(*DW$T$35)
    3145                      .dwattr DW$300, DW_AT_name("GPDDIR"), DW_AT_symbol_name("_GPDDIR")
    3146                      .dwattr DW$300, DW_AT_data_member_location[DW_OP_plus_uconst 0xd]
    3147                      .dwattr DW$300, DW_AT_accessibility(DW_ACCESS_public)
    3148              DW$301  .dwtag  DW_TAG_member, DW_AT_type(*DW$T$37)
    3149                      .dwattr DW$301, DW_AT_name("GPDQUAL"), DW_AT_symbol_name("_GPDQUAL")
    3150                      .dwattr DW$301, DW_AT_data_member_location[DW_OP_plus_uconst 0xe]
    3151                      .dwattr DW$301, DW_AT_accessibility(DW_ACCESS_public)
    3152              DW$302  .dwtag  DW_TAG_member, DW_AT_type(*DW$T$19)
    3153                      .dwattr DW$302, DW_AT_name("rsvd3"), DW_AT_symbol_name("_rsvd3")
    3154                      .dwattr DW$302, DW_AT_data_member_location[DW_OP_plus_uconst 0xf]
    3155                      .dwattr DW$302, DW_AT_accessibility(DW_ACCESS_public)
    3156              DW$303  .dwtag  DW_TAG_member, DW_AT_type(*DW$T$39)
    3157                      .dwattr DW$303, DW_AT_name("GPEMUX"), DW_AT_symbol_name("_GPEMUX")
    3158                      .dwattr DW$303, DW_AT_data_member_location[DW_OP_plus_uconst 0x10]
    3159                      .dwattr DW$303, DW_AT_accessibility(DW_ACCESS_public)
    3160              DW$304  .dwtag  DW_TAG_member, DW_AT_type(*DW$T$41)
    3161                      .dwattr DW$304, DW_AT_name("GPEDIR"), DW_AT_symbol_name("_GPEDIR")
    3162                      .dwattr DW$304, DW_AT_data_member_location[DW_OP_plus_uconst 0x11]
    3163                      .dwattr DW$304, DW_AT_accessibility(DW_ACCESS_public)
    3164              DW$305  .dwtag  DW_TAG_member, DW_AT_type(*DW$T$43)
    3165                      .dwattr DW$305, DW_AT_name("GPEQUAL"), DW_AT_symbol_name("_GPEQUAL")
    3166                      .dwattr DW$305, DW_AT_data_member_location[DW_OP_plus_uconst 0x12]
    3167                      .dwattr DW$305, DW_AT_accessibility(DW_ACCESS_public)
    3168              DW$306  .dwtag  DW_TAG_member, DW_AT_type(*DW$T$19)
    3169                      .dwattr DW$306, DW_AT_name("rsvd4"), DW_AT_symbol_name("_rsvd4")
    3170                      .dwattr DW$306, DW_AT_data_member_location[DW_OP_plus_uconst 0x13]
    3171                      .dwattr DW$306, DW_AT_accessibility(DW_ACCESS_public)
    3172              DW$307  .dwtag  DW_TAG_member, DW_AT_type(*DW$T$45)
    3173                      .dwattr DW$307, DW_AT_name("GPFMUX"), DW_AT_symbol_name("_GPFMUX")
    3174                      .dwattr DW$307, DW_AT_data_member_location[DW_OP_plus_uconst 0x14]
    3175                      .dwattr DW$307, DW_AT_accessibility(DW_ACCESS_public)
    3176              DW$308  .dwtag  DW_TAG_member, DW_AT_type(*DW$T$47)
    3177                      .dwattr DW$308, DW_AT_name("GPFDIR"), DW_AT_symbol_name("_GPFDIR")
    3178                      .dwattr DW$308, DW_AT_data_member_location[DW_OP_plus_uconst 0x15]
    3179                      .dwattr DW$308, DW_AT_accessibility(DW_ACCESS_public)
    3180              DW$309  .dwtag  DW_TAG_member, DW_AT_type(*DW$T$53)
    3181                      .dwattr DW$309, DW_AT_name("rsvd5"), DW_AT_symbol_name("_rsvd5")
    3182                      .dwattr DW$309, DW_AT_data_member_location[DW_OP_plus_uconst 0x16]
    3183                      .dwattr DW$309, DW_AT_accessibility(DW_ACCESS_public)
    3184              DW$310  .dwtag  DW_TAG_member, DW_AT_type(*DW$T$49)
    3185                      .dwattr DW$310, DW_AT_name("GPGMUX"), DW_AT_symbol_name("_GPGMUX")
    3186                      .dwattr DW$310, DW_AT_data_member_location[DW_OP_plus_uconst 0x18]
    3187                      .dwattr DW$310, DW_AT_accessibility(DW_ACCESS_public)
    3188              DW$311  .dwtag  DW_TAG_member, DW_AT_type(*DW$T$51)
    3189                      .dwattr DW$311, DW_AT_name("GPGDIR"), DW_AT_symbol_name("_GPGDIR")
TMS320C2000 COFF Assembler PC v4.1.3 Mon Dec 03 13:50:31 2012

Tools Copyright (c) 1996-2006 Texas Instruments Incorporated
C:\DOCUME~1\ADMINI~1\LOCALS~1\Temp\TI9922                            PAGE   62

    3190                      .dwattr DW$311, DW_AT_data_member_location[DW_OP_plus_uconst 0x19]
    3191                      .dwattr DW$311, DW_AT_accessibility(DW_ACCESS_public)
    3192              DW$312  .dwtag  DW_TAG_member, DW_AT_type(*DW$T$54)
    3193                      .dwattr DW$312, DW_AT_name("rsvd6"), DW_AT_symbol_name("_rsvd6")
    3194                      .dwattr DW$312, DW_AT_data_member_location[DW_OP_plus_uconst 0x1a]
    3195                      .dwattr DW$312, DW_AT_accessibility(DW_ACCESS_public)
    3196                      .dwendtag DW$T$55
    3197              
    3198              
    3199              DW$T$105        .dwtag  DW_TAG_structure_type
    3200                      .dwattr DW$T$105, DW_AT_name("GPIO_DATA_REGS")
    3201                      .dwattr DW$T$105, DW_AT_byte_size(0x20)
    3202              DW$313  .dwtag  DW_TAG_member, DW_AT_type(*DW$T$57)
    3203                      .dwattr DW$313, DW_AT_name("GPADAT"), DW_AT_symbol_name("_GPADAT")
    3204                      .dwattr DW$313, DW_AT_data_member_location[DW_OP_plus_uconst 0x0]
    3205                      .dwattr DW$313, DW_AT_accessibility(DW_ACCESS_public)
    3206              DW$314  .dwtag  DW_TAG_member, DW_AT_type(*DW$T$59)
    3207                      .dwattr DW$314, DW_AT_name("GPASET"), DW_AT_symbol_name("_GPASET")
    3208                      .dwattr DW$314, DW_AT_data_member_location[DW_OP_plus_uconst 0x1]
    3209                      .dwattr DW$314, DW_AT_accessibility(DW_ACCESS_public)
    3210              DW$315  .dwtag  DW_TAG_member, DW_AT_type(*DW$T$61)
    3211                      .dwattr DW$315, DW_AT_name("GPACLEAR"), DW_AT_symbol_name("_GPACLEAR")
    3212                      .dwattr DW$315, DW_AT_data_member_location[DW_OP_plus_uconst 0x2]
    3213                      .dwattr DW$315, DW_AT_accessibility(DW_ACCESS_public)
    3214              DW$316  .dwtag  DW_TAG_member, DW_AT_type(*DW$T$63)
    3215                      .dwattr DW$316, DW_AT_name("GPATOGGLE"), DW_AT_symbol_name("_GPATOGGLE")
    3216                      .dwattr DW$316, DW_AT_data_member_location[DW_OP_plus_uconst 0x3]
    3217                      .dwattr DW$316, DW_AT_accessibility(DW_ACCESS_public)
    3218              DW$317  .dwtag  DW_TAG_member, DW_AT_type(*DW$T$65)
    3219                      .dwattr DW$317, DW_AT_name("GPBDAT"), DW_AT_symbol_name("_GPBDAT")
    3220                      .dwattr DW$317, DW_AT_data_member_location[DW_OP_plus_uconst 0x4]
    3221                      .dwattr DW$317, DW_AT_accessibility(DW_ACCESS_public)
    3222              DW$318  .dwtag  DW_TAG_member, DW_AT_type(*DW$T$67)
    3223                      .dwattr DW$318, DW_AT_name("GPBSET"), DW_AT_symbol_name("_GPBSET")
    3224                      .dwattr DW$318, DW_AT_data_member_location[DW_OP_plus_uconst 0x5]
    3225                      .dwattr DW$318, DW_AT_accessibility(DW_ACCESS_public)
    3226              DW$319  .dwtag  DW_TAG_member, DW_AT_type(*DW$T$69)
    3227                      .dwattr DW$319, DW_AT_name("GPBCLEAR"), DW_AT_symbol_name("_GPBCLEAR")
    3228                      .dwattr DW$319, DW_AT_data_member_location[DW_OP_plus_uconst 0x6]
    3229                      .dwattr DW$319, DW_AT_accessibility(DW_ACCESS_public)
    3230              DW$320  .dwtag  DW_TAG_member, DW_AT_type(*DW$T$71)
    3231                      .dwattr DW$320, DW_AT_name("GPBTOGGLE"), DW_AT_symbol_name("_GPBTOGGLE")
    3232                      .dwattr DW$320, DW_AT_data_member_location[DW_OP_plus_uconst 0x7]
    3233                      .dwattr DW$320, DW_AT_accessibility(DW_ACCESS_public)
    3234              DW$321  .dwtag  DW_TAG_member, DW_AT_type(*DW$T$104)
    3235                      .dwattr DW$321, DW_AT_name("rsvd1"), DW_AT_symbol_name("_rsvd1")
    3236                      .dwattr DW$321, DW_AT_data_member_location[DW_OP_plus_uconst 0x8]
    3237                      .dwattr DW$321, DW_AT_accessibility(DW_ACCESS_public)
    3238              DW$322  .dwtag  DW_TAG_member, DW_AT_type(*DW$T$73)
    3239                      .dwattr DW$322, DW_AT_name("GPDDAT"), DW_AT_symbol_name("_GPDDAT")
    3240                      .dwattr DW$322, DW_AT_data_member_location[DW_OP_plus_uconst 0xc]
    3241                      .dwattr DW$322, DW_AT_accessibility(DW_ACCESS_public)
    3242              DW$323  .dwtag  DW_TAG_member, DW_AT_type(*DW$T$75)
    3243                      .dwattr DW$323, DW_AT_name("GPDSET"), DW_AT_symbol_name("_GPDSET")
    3244                      .dwattr DW$323, DW_AT_data_member_location[DW_OP_plus_uconst 0xd]
TMS320C2000 COFF Assembler PC v4.1.3 Mon Dec 03 13:50:31 2012

Tools Copyright (c) 1996-2006 Texas Instruments Incorporated
C:\DOCUME~1\ADMINI~1\LOCALS~1\Temp\TI9922                            PAGE   63

    3245                      .dwattr DW$323, DW_AT_accessibility(DW_ACCESS_public)
    3246              DW$324  .dwtag  DW_TAG_member, DW_AT_type(*DW$T$77)
    3247                      .dwattr DW$324, DW_AT_name("GPDCLEAR"), DW_AT_symbol_name("_GPDCLEAR")
    3248                      .dwattr DW$324, DW_AT_data_member_location[DW_OP_plus_uconst 0xe]
    3249                      .dwattr DW$324, DW_AT_accessibility(DW_ACCESS_public)
    3250              DW$325  .dwtag  DW_TAG_member, DW_AT_type(*DW$T$79)
    3251                      .dwattr DW$325, DW_AT_name("GPDTOGGLE"), DW_AT_symbol_name("_GPDTOGGLE")
    3252                      .dwattr DW$325, DW_AT_data_member_location[DW_OP_plus_uconst 0xf]
    3253                      .dwattr DW$325, DW_AT_accessibility(DW_ACCESS_public)
    3254              DW$326  .dwtag  DW_TAG_member, DW_AT_type(*DW$T$81)
    3255                      .dwattr DW$326, DW_AT_name("GPEDAT"), DW_AT_symbol_name("_GPEDAT")
    3256                      .dwattr DW$326, DW_AT_data_member_location[DW_OP_plus_uconst 0x10]
    3257                      .dwattr DW$326, DW_AT_accessibility(DW_ACCESS_public)
    3258              DW$327  .dwtag  DW_TAG_member, DW_AT_type(*DW$T$83)
    3259                      .dwattr DW$327, DW_AT_name("GPESET"), DW_AT_symbol_name("_GPESET")
    3260                      .dwattr DW$327, DW_AT_data_member_location[DW_OP_plus_uconst 0x11]
    3261                      .dwattr DW$327, DW_AT_accessibility(DW_ACCESS_public)
    3262              DW$328  .dwtag  DW_TAG_member, DW_AT_type(*DW$T$85)
    3263                      .dwattr DW$328, DW_AT_name("GPECLEAR"), DW_AT_symbol_name("_GPECLEAR")
    3264                      .dwattr DW$328, DW_AT_data_member_location[DW_OP_plus_uconst 0x12]
    3265                      .dwattr DW$328, DW_AT_accessibility(DW_ACCESS_public)
    3266              DW$329  .dwtag  DW_TAG_member, DW_AT_type(*DW$T$87)
    3267                      .dwattr DW$329, DW_AT_name("GPETOGGLE"), DW_AT_symbol_name("_GPETOGGLE")
    3268                      .dwattr DW$329, DW_AT_data_member_location[DW_OP_plus_uconst 0x13]
    3269                      .dwattr DW$329, DW_AT_accessibility(DW_ACCESS_public)
    3270              DW$330  .dwtag  DW_TAG_member, DW_AT_type(*DW$T$89)
    3271                      .dwattr DW$330, DW_AT_name("GPFDAT"), DW_AT_symbol_name("_GPFDAT")
    3272                      .dwattr DW$330, DW_AT_data_member_location[DW_OP_plus_uconst 0x14]
    3273                      .dwattr DW$330, DW_AT_accessibility(DW_ACCESS_public)
    3274              DW$331  .dwtag  DW_TAG_member, DW_AT_type(*DW$T$91)
    3275                      .dwattr DW$331, DW_AT_name("GPFSET"), DW_AT_symbol_name("_GPFSET")
    3276                      .dwattr DW$331, DW_AT_data_member_location[DW_OP_plus_uconst 0x15]
    3277                      .dwattr DW$331, DW_AT_accessibility(DW_ACCESS_public)
    3278              DW$332  .dwtag  DW_TAG_member, DW_AT_type(*DW$T$93)
    3279                      .dwattr DW$332, DW_AT_name("GPFCLEAR"), DW_AT_symbol_name("_GPFCLEAR")
    3280                      .dwattr DW$332, DW_AT_data_member_location[DW_OP_plus_uconst 0x16]
    3281                      .dwattr DW$332, DW_AT_accessibility(DW_ACCESS_public)
    3282              DW$333  .dwtag  DW_TAG_member, DW_AT_type(*DW$T$95)
    3283                      .dwattr DW$333, DW_AT_name("GPFTOGGLE"), DW_AT_symbol_name("_GPFTOGGLE")
    3284                      .dwattr DW$333, DW_AT_data_member_location[DW_OP_plus_uconst 0x17]
    3285                      .dwattr DW$333, DW_AT_accessibility(DW_ACCESS_public)
    3286              DW$334  .dwtag  DW_TAG_member, DW_AT_type(*DW$T$97)
    3287                      .dwattr DW$334, DW_AT_name("GPGDAT"), DW_AT_symbol_name("_GPGDAT")
    3288                      .dwattr DW$334, DW_AT_data_member_location[DW_OP_plus_uconst 0x18]
    3289                      .dwattr DW$334, DW_AT_accessibility(DW_ACCESS_public)
    3290              DW$335  .dwtag  DW_TAG_member, DW_AT_type(*DW$T$99)
    3291                      .dwattr DW$335, DW_AT_name("GPGSET"), DW_AT_symbol_name("_GPGSET")
    3292                      .dwattr DW$335, DW_AT_data_member_location[DW_OP_plus_uconst 0x19]
    3293                      .dwattr DW$335, DW_AT_accessibility(DW_ACCESS_public)
    3294              DW$336  .dwtag  DW_TAG_member, DW_AT_type(*DW$T$101)
    3295                      .dwattr DW$336, DW_AT_name("GPGCLEAR"), DW_AT_symbol_name("_GPGCLEAR")
    3296                      .dwattr DW$336, DW_AT_data_member_location[DW_OP_plus_uconst 0x1a]
    3297                      .dwattr DW$336, DW_AT_accessibility(DW_ACCESS_public)
    3298              DW$337  .dwtag  DW_TAG_member, DW_AT_type(*DW$T$103)
    3299                      .dwattr DW$337, DW_AT_name("GPGTOGGLE"), DW_AT_symbol_name("_GPGTOGGLE")
TMS320C2000 COFF Assembler PC v4.1.3 Mon Dec 03 13:50:31 2012

Tools Copyright (c) 1996-2006 Texas Instruments Incorporated
C:\DOCUME~1\ADMINI~1\LOCALS~1\Temp\TI9922                            PAGE   64

    3300                      .dwattr DW$337, DW_AT_data_member_location[DW_OP_plus_uconst 0x1b]
    3301                      .dwattr DW$337, DW_AT_accessibility(DW_ACCESS_public)
    3302              DW$338  .dwtag  DW_TAG_member, DW_AT_type(*DW$T$104)
    3303                      .dwattr DW$338, DW_AT_name("rsvd2"), DW_AT_symbol_name("_rsvd2")
    3304                      .dwattr DW$338, DW_AT_data_member_location[DW_OP_plus_uconst 0x1c]
    3305                      .dwattr DW$338, DW_AT_accessibility(DW_ACCESS_public)
    3306                      .dwendtag DW$T$105
    3307              
    3308              
    3309              DW$T$137        .dwtag  DW_TAG_structure_type
    3310                      .dwattr DW$T$137, DW_AT_name("EVB_REGS")
    3311                      .dwattr DW$T$137, DW_AT_byte_size(0x32)
    3312              DW$339  .dwtag  DW_TAG_member, DW_AT_type(*DW$T$107)
    3313                      .dwattr DW$339, DW_AT_name("GPTCONB"), DW_AT_symbol_name("_GPTCONB")
    3314                      .dwattr DW$339, DW_AT_data_member_location[DW_OP_plus_uconst 0x0]
    3315                      .dwattr DW$339, DW_AT_accessibility(DW_ACCESS_public)
    3316              DW$340  .dwtag  DW_TAG_member, DW_AT_type(*DW$T$19)
    3317                      .dwattr DW$340, DW_AT_name("T3CNT"), DW_AT_symbol_name("_T3CNT")
    3318                      .dwattr DW$340, DW_AT_data_member_location[DW_OP_plus_uconst 0x1]
    3319                      .dwattr DW$340, DW_AT_accessibility(DW_ACCESS_public)
    3320              DW$341  .dwtag  DW_TAG_member, DW_AT_type(*DW$T$19)
    3321                      .dwattr DW$341, DW_AT_name("T3CMPR"), DW_AT_symbol_name("_T3CMPR")
    3322                      .dwattr DW$341, DW_AT_data_member_location[DW_OP_plus_uconst 0x2]
    3323                      .dwattr DW$341, DW_AT_accessibility(DW_ACCESS_public)
    3324              DW$342  .dwtag  DW_TAG_member, DW_AT_type(*DW$T$19)
    3325                      .dwattr DW$342, DW_AT_name("T3PR"), DW_AT_symbol_name("_T3PR")
    3326                      .dwattr DW$342, DW_AT_data_member_location[DW_OP_plus_uconst 0x3]
    3327                      .dwattr DW$342, DW_AT_accessibility(DW_ACCESS_public)
    3328              DW$343  .dwtag  DW_TAG_member, DW_AT_type(*DW$T$109)
    3329                      .dwattr DW$343, DW_AT_name("T3CON"), DW_AT_symbol_name("_T3CON")
    3330                      .dwattr DW$343, DW_AT_data_member_location[DW_OP_plus_uconst 0x4]
    3331                      .dwattr DW$343, DW_AT_accessibility(DW_ACCESS_public)
    3332              DW$344  .dwtag  DW_TAG_member, DW_AT_type(*DW$T$19)
    3333                      .dwattr DW$344, DW_AT_name("T4CNT"), DW_AT_symbol_name("_T4CNT")
    3334                      .dwattr DW$344, DW_AT_data_member_location[DW_OP_plus_uconst 0x5]
    3335                      .dwattr DW$344, DW_AT_accessibility(DW_ACCESS_public)
    3336              DW$345  .dwtag  DW_TAG_member, DW_AT_type(*DW$T$19)
    3337                      .dwattr DW$345, DW_AT_name("T4CMPR"), DW_AT_symbol_name("_T4CMPR")
    3338                      .dwattr DW$345, DW_AT_data_member_location[DW_OP_plus_uconst 0x6]
    3339                      .dwattr DW$345, DW_AT_accessibility(DW_ACCESS_public)
    3340              DW$346  .dwtag  DW_TAG_member, DW_AT_type(*DW$T$19)
    3341                      .dwattr DW$346, DW_AT_name("T4PR"), DW_AT_symbol_name("_T4PR")
    3342                      .dwattr DW$346, DW_AT_data_member_location[DW_OP_plus_uconst 0x7]
    3343                      .dwattr DW$346, DW_AT_accessibility(DW_ACCESS_public)
    3344              DW$347  .dwtag  DW_TAG_member, DW_AT_type(*DW$T$111)
    3345                      .dwattr DW$347, DW_AT_name("T4CON"), DW_AT_symbol_name("_T4CON")
    3346                      .dwattr DW$347, DW_AT_data_member_location[DW_OP_plus_uconst 0x8]
    3347                      .dwattr DW$347, DW_AT_accessibility(DW_ACCESS_public)
    3348              DW$348  .dwtag  DW_TAG_member, DW_AT_type(*DW$T$113)
    3349                      .dwattr DW$348, DW_AT_name("EXTCONB"), DW_AT_symbol_name("_EXTCONB")
    3350                      .dwattr DW$348, DW_AT_data_member_location[DW_OP_plus_uconst 0x9]
    3351                      .dwattr DW$348, DW_AT_accessibility(DW_ACCESS_public)
    3352              DW$349  .dwtag  DW_TAG_member, DW_AT_type(*DW$T$136)
    3353                      .dwattr DW$349, DW_AT_name("rsvd1"), DW_AT_symbol_name("_rsvd1")
    3354                      .dwattr DW$349, DW_AT_data_member_location[DW_OP_plus_uconst 0xa]
TMS320C2000 COFF Assembler PC v4.1.3 Mon Dec 03 13:50:31 2012

Tools Copyright (c) 1996-2006 Texas Instruments Incorporated
C:\DOCUME~1\ADMINI~1\LOCALS~1\Temp\TI9922                            PAGE   65

    3355                      .dwattr DW$349, DW_AT_accessibility(DW_ACCESS_public)
    3356              DW$350  .dwtag  DW_TAG_member, DW_AT_type(*DW$T$115)
    3357                      .dwattr DW$350, DW_AT_name("COMCONB"), DW_AT_symbol_name("_COMCONB")
    3358                      .dwattr DW$350, DW_AT_data_member_location[DW_OP_plus_uconst 0x11]
    3359                      .dwattr DW$350, DW_AT_accessibility(DW_ACCESS_public)
    3360              DW$351  .dwtag  DW_TAG_member, DW_AT_type(*DW$T$19)
    3361                      .dwattr DW$351, DW_AT_name("rsvd2"), DW_AT_symbol_name("_rsvd2")
    3362                      .dwattr DW$351, DW_AT_data_member_location[DW_OP_plus_uconst 0x12]
    3363                      .dwattr DW$351, DW_AT_accessibility(DW_ACCESS_public)
    3364              DW$352  .dwtag  DW_TAG_member, DW_AT_type(*DW$T$117)
    3365                      .dwattr DW$352, DW_AT_name("ACTRB"), DW_AT_symbol_name("_ACTRB")
    3366                      .dwattr DW$352, DW_AT_data_member_location[DW_OP_plus_uconst 0x13]
    3367                      .dwattr DW$352, DW_AT_accessibility(DW_ACCESS_public)
    3368              DW$353  .dwtag  DW_TAG_member, DW_AT_type(*DW$T$19)
    3369                      .dwattr DW$353, DW_AT_name("rsvd3"), DW_AT_symbol_name("_rsvd3")
    3370                      .dwattr DW$353, DW_AT_data_member_location[DW_OP_plus_uconst 0x14]
    3371                      .dwattr DW$353, DW_AT_accessibility(DW_ACCESS_public)
    3372              DW$354  .dwtag  DW_TAG_member, DW_AT_type(*DW$T$119)
    3373                      .dwattr DW$354, DW_AT_name("DBTCONB"), DW_AT_symbol_name("_DBTCONB")
    3374                      .dwattr DW$354, DW_AT_data_member_location[DW_OP_plus_uconst 0x15]
    3375                      .dwattr DW$354, DW_AT_accessibility(DW_ACCESS_public)
    3376              DW$355  .dwtag  DW_TAG_member, DW_AT_type(*DW$T$19)
    3377                      .dwattr DW$355, DW_AT_name("rsvd4"), DW_AT_symbol_name("_rsvd4")
    3378                      .dwattr DW$355, DW_AT_data_member_location[DW_OP_plus_uconst 0x16]
    3379                      .dwattr DW$355, DW_AT_accessibility(DW_ACCESS_public)
    3380              DW$356  .dwtag  DW_TAG_member, DW_AT_type(*DW$T$19)
    3381                      .dwattr DW$356, DW_AT_name("CMPR4"), DW_AT_symbol_name("_CMPR4")
    3382                      .dwattr DW$356, DW_AT_data_member_location[DW_OP_plus_uconst 0x17]
    3383                      .dwattr DW$356, DW_AT_accessibility(DW_ACCESS_public)
    3384              DW$357  .dwtag  DW_TAG_member, DW_AT_type(*DW$T$19)
    3385                      .dwattr DW$357, DW_AT_name("CMPR5"), DW_AT_symbol_name("_CMPR5")
    3386                      .dwattr DW$357, DW_AT_data_member_location[DW_OP_plus_uconst 0x18]
    3387                      .dwattr DW$357, DW_AT_accessibility(DW_ACCESS_public)
    3388              DW$358  .dwtag  DW_TAG_member, DW_AT_type(*DW$T$19)
    3389                      .dwattr DW$358, DW_AT_name("CMPR6"), DW_AT_symbol_name("_CMPR6")
    3390                      .dwattr DW$358, DW_AT_data_member_location[DW_OP_plus_uconst 0x19]
    3391                      .dwattr DW$358, DW_AT_accessibility(DW_ACCESS_public)
    3392              DW$359  .dwtag  DW_TAG_member, DW_AT_type(*DW$T$54)
    3393                      .dwattr DW$359, DW_AT_name("rsvd5"), DW_AT_symbol_name("_rsvd5")
    3394                      .dwattr DW$359, DW_AT_data_member_location[DW_OP_plus_uconst 0x1a]
    3395                      .dwattr DW$359, DW_AT_accessibility(DW_ACCESS_public)
    3396              DW$360  .dwtag  DW_TAG_member, DW_AT_type(*DW$T$121)
    3397                      .dwattr DW$360, DW_AT_name("CAPCONB"), DW_AT_symbol_name("_CAPCONB")
    3398                      .dwattr DW$360, DW_AT_data_member_location[DW_OP_plus_uconst 0x20]
    3399                      .dwattr DW$360, DW_AT_accessibility(DW_ACCESS_public)
    3400              DW$361  .dwtag  DW_TAG_member, DW_AT_type(*DW$T$19)
    3401                      .dwattr DW$361, DW_AT_name("rsvd6"), DW_AT_symbol_name("_rsvd6")
    3402                      .dwattr DW$361, DW_AT_data_member_location[DW_OP_plus_uconst 0x21]
    3403                      .dwattr DW$361, DW_AT_accessibility(DW_ACCESS_public)
    3404              DW$362  .dwtag  DW_TAG_member, DW_AT_type(*DW$T$123)
    3405                      .dwattr DW$362, DW_AT_name("CAPFIFOB"), DW_AT_symbol_name("_CAPFIFOB")
    3406                      .dwattr DW$362, DW_AT_data_member_location[DW_OP_plus_uconst 0x22]
    3407                      .dwattr DW$362, DW_AT_accessibility(DW_ACCESS_public)
    3408              DW$363  .dwtag  DW_TAG_member, DW_AT_type(*DW$T$19)
    3409                      .dwattr DW$363, DW_AT_name("CAP4FIFO"), DW_AT_symbol_name("_CAP4FIFO")
TMS320C2000 COFF Assembler PC v4.1.3 Mon Dec 03 13:50:31 2012

Tools Copyright (c) 1996-2006 Texas Instruments Incorporated
C:\DOCUME~1\ADMINI~1\LOCALS~1\Temp\TI9922                            PAGE   66

    3410                      .dwattr DW$363, DW_AT_data_member_location[DW_OP_plus_uconst 0x23]
    3411                      .dwattr DW$363, DW_AT_accessibility(DW_ACCESS_public)
    3412              DW$364  .dwtag  DW_TAG_member, DW_AT_type(*DW$T$19)
    3413                      .dwattr DW$364, DW_AT_name("CAP5FIFO"), DW_AT_symbol_name("_CAP5FIFO")
    3414                      .dwattr DW$364, DW_AT_data_member_location[DW_OP_plus_uconst 0x24]
    3415                      .dwattr DW$364, DW_AT_accessibility(DW_ACCESS_public)
    3416              DW$365  .dwtag  DW_TAG_member, DW_AT_type(*DW$T$19)
    3417                      .dwattr DW$365, DW_AT_name("CAP6FIFO"), DW_AT_symbol_name("_CAP6FIFO")
    3418                      .dwattr DW$365, DW_AT_data_member_location[DW_OP_plus_uconst 0x25]
    3419                      .dwattr DW$365, DW_AT_accessibility(DW_ACCESS_public)
    3420              DW$366  .dwtag  DW_TAG_member, DW_AT_type(*DW$T$19)
    3421                      .dwattr DW$366, DW_AT_name("rsvd7"), DW_AT_symbol_name("_rsvd7")
    3422                      .dwattr DW$366, DW_AT_data_member_location[DW_OP_plus_uconst 0x26]
    3423                      .dwattr DW$366, DW_AT_accessibility(DW_ACCESS_public)
    3424              DW$367  .dwtag  DW_TAG_member, DW_AT_type(*DW$T$19)
    3425                      .dwattr DW$367, DW_AT_name("CAP4FBOT"), DW_AT_symbol_name("_CAP4FBOT")
    3426                      .dwattr DW$367, DW_AT_data_member_location[DW_OP_plus_uconst 0x27]
    3427                      .dwattr DW$367, DW_AT_accessibility(DW_ACCESS_public)
    3428              DW$368  .dwtag  DW_TAG_member, DW_AT_type(*DW$T$19)
    3429                      .dwattr DW$368, DW_AT_name("CAP5FBOT"), DW_AT_symbol_name("_CAP5FBOT")
    3430                      .dwattr DW$368, DW_AT_data_member_location[DW_OP_plus_uconst 0x28]
    3431                      .dwattr DW$368, DW_AT_accessibility(DW_ACCESS_public)
    3432              DW$369  .dwtag  DW_TAG_member, DW_AT_type(*DW$T$19)
    3433                      .dwattr DW$369, DW_AT_name("CAP6FBOT"), DW_AT_symbol_name("_CAP6FBOT")
    3434                      .dwattr DW$369, DW_AT_data_member_location[DW_OP_plus_uconst 0x29]
    3435                      .dwattr DW$369, DW_AT_accessibility(DW_ACCESS_public)
    3436              DW$370  .dwtag  DW_TAG_member, DW_AT_type(*DW$T$53)
    3437                      .dwattr DW$370, DW_AT_name("rsvd8"), DW_AT_symbol_name("_rsvd8")
    3438                      .dwattr DW$370, DW_AT_data_member_location[DW_OP_plus_uconst 0x2a]
    3439                      .dwattr DW$370, DW_AT_accessibility(DW_ACCESS_public)
    3440              DW$371  .dwtag  DW_TAG_member, DW_AT_type(*DW$T$125)
    3441                      .dwattr DW$371, DW_AT_name("EVBIMRA"), DW_AT_symbol_name("_EVBIMRA")
    3442                      .dwattr DW$371, DW_AT_data_member_location[DW_OP_plus_uconst 0x2c]
    3443                      .dwattr DW$371, DW_AT_accessibility(DW_ACCESS_public)
    3444              DW$372  .dwtag  DW_TAG_member, DW_AT_type(*DW$T$127)
    3445                      .dwattr DW$372, DW_AT_name("EVBIMRB"), DW_AT_symbol_name("_EVBIMRB")
    3446                      .dwattr DW$372, DW_AT_data_member_location[DW_OP_plus_uconst 0x2d]
    3447                      .dwattr DW$372, DW_AT_accessibility(DW_ACCESS_public)
    3448              DW$373  .dwtag  DW_TAG_member, DW_AT_type(*DW$T$129)
    3449                      .dwattr DW$373, DW_AT_name("EVBIMRC"), DW_AT_symbol_name("_EVBIMRC")
    3450                      .dwattr DW$373, DW_AT_data_member_location[DW_OP_plus_uconst 0x2e]
    3451                      .dwattr DW$373, DW_AT_accessibility(DW_ACCESS_public)
    3452              DW$374  .dwtag  DW_TAG_member, DW_AT_type(*DW$T$131)
    3453                      .dwattr DW$374, DW_AT_name("EVBIFRA"), DW_AT_symbol_name("_EVBIFRA")
    3454                      .dwattr DW$374, DW_AT_data_member_location[DW_OP_plus_uconst 0x2f]
    3455                      .dwattr DW$374, DW_AT_accessibility(DW_ACCESS_public)
    3456              DW$375  .dwtag  DW_TAG_member, DW_AT_type(*DW$T$133)
    3457                      .dwattr DW$375, DW_AT_name("EVBIFRB"), DW_AT_symbol_name("_EVBIFRB")
    3458                      .dwattr DW$375, DW_AT_data_member_location[DW_OP_plus_uconst 0x30]
    3459                      .dwattr DW$375, DW_AT_accessibility(DW_ACCESS_public)
    3460              DW$376  .dwtag  DW_TAG_member, DW_AT_type(*DW$T$135)
    3461                      .dwattr DW$376, DW_AT_name("EVBIFRC"), DW_AT_symbol_name("_EVBIFRC")
    3462                      .dwattr DW$376, DW_AT_data_member_location[DW_OP_plus_uconst 0x31]
    3463                      .dwattr DW$376, DW_AT_accessibility(DW_ACCESS_public)
    3464                      .dwendtag DW$T$137
TMS320C2000 COFF Assembler PC v4.1.3 Mon Dec 03 13:50:31 2012

Tools Copyright (c) 1996-2006 Texas Instruments Incorporated
C:\DOCUME~1\ADMINI~1\LOCALS~1\Temp\TI9922                            PAGE   67

    3465              
    3466              DW$T$19 .dwtag  DW_TAG_typedef, DW_AT_name("Uint16"), DW_AT_type(*DW$T$11)
    3467                      .dwattr DW$T$19, DW_AT_language(DW_LANG_C)
    3468              
    3469              DW$T$52 .dwtag  DW_TAG_array_type, DW_AT_type(*DW$T$19)
    3470                      .dwattr DW$T$52, DW_AT_language(DW_LANG_C)
    3471                      .dwattr DW$T$52, DW_AT_byte_size(0x05)
    3472              DW$377  .dwtag  DW_TAG_subrange_type
    3473                      .dwattr DW$377, DW_AT_upper_bound(0x04)
    3474                      .dwendtag DW$T$52
    3475              
    3476              
    3477              DW$T$53 .dwtag  DW_TAG_array_type, DW_AT_type(*DW$T$19)
    3478                      .dwattr DW$T$53, DW_AT_language(DW_LANG_C)
    3479                      .dwattr DW$T$53, DW_AT_byte_size(0x02)
    3480              DW$378  .dwtag  DW_TAG_subrange_type
    3481                      .dwattr DW$378, DW_AT_upper_bound(0x01)
    3482                      .dwendtag DW$T$53
    3483              
    3484              
    3485              DW$T$54 .dwtag  DW_TAG_array_type, DW_AT_type(*DW$T$19)
    3486                      .dwattr DW$T$54, DW_AT_language(DW_LANG_C)
    3487                      .dwattr DW$T$54, DW_AT_byte_size(0x06)
    3488              DW$379  .dwtag  DW_TAG_subrange_type
    3489                      .dwattr DW$379, DW_AT_upper_bound(0x05)
    3490                      .dwendtag DW$T$54
    3491              
    3492              
    3493              DW$T$104        .dwtag  DW_TAG_array_type, DW_AT_type(*DW$T$19)
    3494                      .dwattr DW$T$104, DW_AT_language(DW_LANG_C)
    3495                      .dwattr DW$T$104, DW_AT_byte_size(0x04)
    3496              DW$380  .dwtag  DW_TAG_subrange_type
    3497                      .dwattr DW$380, DW_AT_upper_bound(0x03)
    3498                      .dwendtag DW$T$104
    3499              
    3500              
    3501              DW$T$136        .dwtag  DW_TAG_array_type, DW_AT_type(*DW$T$19)
    3502                      .dwattr DW$T$136, DW_AT_language(DW_LANG_C)
    3503                      .dwattr DW$T$136, DW_AT_byte_size(0x07)
    3504              DW$381  .dwtag  DW_TAG_subrange_type
    3505                      .dwattr DW$381, DW_AT_upper_bound(0x06)
    3506                      .dwendtag DW$T$136
    3507              
    3508              
    3509              DW$T$21 .dwtag  DW_TAG_union_type
    3510                      .dwattr DW$T$21, DW_AT_name("GPAMUX_REG")
    3511                      .dwattr DW$T$21, DW_AT_byte_size(0x01)
    3512              DW$382  .dwtag  DW_TAG_member, DW_AT_type(*DW$T$19)
    3513                      .dwattr DW$382, DW_AT_name("all"), DW_AT_symbol_name("_all")
    3514                      .dwattr DW$382, DW_AT_data_member_location[DW_OP_plus_uconst 0x0]
    3515                      .dwattr DW$382, DW_AT_accessibility(DW_ACCESS_public)
    3516              DW$383  .dwtag  DW_TAG_member, DW_AT_type(*DW$T$20)
    3517                      .dwattr DW$383, DW_AT_name("bit"), DW_AT_symbol_name("_bit")
    3518                      .dwattr DW$383, DW_AT_data_member_location[DW_OP_plus_uconst 0x0]
    3519                      .dwattr DW$383, DW_AT_accessibility(DW_ACCESS_public)
TMS320C2000 COFF Assembler PC v4.1.3 Mon Dec 03 13:50:31 2012

Tools Copyright (c) 1996-2006 Texas Instruments Incorporated
C:\DOCUME~1\ADMINI~1\LOCALS~1\Temp\TI9922                            PAGE   68

    3520                      .dwendtag DW$T$21
    3521              
    3522              
    3523              DW$T$23 .dwtag  DW_TAG_union_type
    3524                      .dwattr DW$T$23, DW_AT_name("GPADIR_REG")
    3525                      .dwattr DW$T$23, DW_AT_byte_size(0x01)
    3526              DW$384  .dwtag  DW_TAG_member, DW_AT_type(*DW$T$19)
    3527                      .dwattr DW$384, DW_AT_name("all"), DW_AT_symbol_name("_all")
    3528                      .dwattr DW$384, DW_AT_data_member_location[DW_OP_plus_uconst 0x0]
    3529                      .dwattr DW$384, DW_AT_accessibility(DW_ACCESS_public)
    3530              DW$385  .dwtag  DW_TAG_member, DW_AT_type(*DW$T$22)
    3531                      .dwattr DW$385, DW_AT_name("bit"), DW_AT_symbol_name("_bit")
    3532                      .dwattr DW$385, DW_AT_data_member_location[DW_OP_plus_uconst 0x0]
    3533                      .dwattr DW$385, DW_AT_accessibility(DW_ACCESS_public)
    3534                      .dwendtag DW$T$23
    3535              
    3536              
    3537              DW$T$25 .dwtag  DW_TAG_union_type
    3538                      .dwattr DW$T$25, DW_AT_name("GPAQUAL_REG")
    3539                      .dwattr DW$T$25, DW_AT_byte_size(0x01)
    3540              DW$386  .dwtag  DW_TAG_member, DW_AT_type(*DW$T$19)
    3541                      .dwattr DW$386, DW_AT_name("all"), DW_AT_symbol_name("_all")
    3542                      .dwattr DW$386, DW_AT_data_member_location[DW_OP_plus_uconst 0x0]
    3543                      .dwattr DW$386, DW_AT_accessibility(DW_ACCESS_public)
    3544              DW$387  .dwtag  DW_TAG_member, DW_AT_type(*DW$T$24)
    3545                      .dwattr DW$387, DW_AT_name("bit"), DW_AT_symbol_name("_bit")
    3546                      .dwattr DW$387, DW_AT_data_member_location[DW_OP_plus_uconst 0x0]
    3547                      .dwattr DW$387, DW_AT_accessibility(DW_ACCESS_public)
    3548                      .dwendtag DW$T$25
    3549              
    3550              
    3551              DW$T$27 .dwtag  DW_TAG_union_type
    3552                      .dwattr DW$T$27, DW_AT_name("GPBMUX_REG")
    3553                      .dwattr DW$T$27, DW_AT_byte_size(0x01)
    3554              DW$388  .dwtag  DW_TAG_member, DW_AT_type(*DW$T$19)
    3555                      .dwattr DW$388, DW_AT_name("all"), DW_AT_symbol_name("_all")
    3556                      .dwattr DW$388, DW_AT_data_member_location[DW_OP_plus_uconst 0x0]
    3557                      .dwattr DW$388, DW_AT_accessibility(DW_ACCESS_public)
    3558              DW$389  .dwtag  DW_TAG_member, DW_AT_type(*DW$T$26)
    3559                      .dwattr DW$389, DW_AT_name("bit"), DW_AT_symbol_name("_bit")
    3560                      .dwattr DW$389, DW_AT_data_member_location[DW_OP_plus_uconst 0x0]
    3561                      .dwattr DW$389, DW_AT_accessibility(DW_ACCESS_public)
    3562                      .dwendtag DW$T$27
    3563              
    3564              
    3565              DW$T$29 .dwtag  DW_TAG_union_type
    3566                      .dwattr DW$T$29, DW_AT_name("GPBDIR_REG")
    3567                      .dwattr DW$T$29, DW_AT_byte_size(0x01)
    3568              DW$390  .dwtag  DW_TAG_member, DW_AT_type(*DW$T$19)
    3569                      .dwattr DW$390, DW_AT_name("all"), DW_AT_symbol_name("_all")
    3570                      .dwattr DW$390, DW_AT_data_member_location[DW_OP_plus_uconst 0x0]
    3571                      .dwattr DW$390, DW_AT_accessibility(DW_ACCESS_public)
    3572              DW$391  .dwtag  DW_TAG_member, DW_AT_type(*DW$T$28)
    3573                      .dwattr DW$391, DW_AT_name("bit"), DW_AT_symbol_name("_bit")
    3574                      .dwattr DW$391, DW_AT_data_member_location[DW_OP_plus_uconst 0x0]
TMS320C2000 COFF Assembler PC v4.1.3 Mon Dec 03 13:50:31 2012

Tools Copyright (c) 1996-2006 Texas Instruments Incorporated
C:\DOCUME~1\ADMINI~1\LOCALS~1\Temp\TI9922                            PAGE   69

    3575                      .dwattr DW$391, DW_AT_accessibility(DW_ACCESS_public)
    3576                      .dwendtag DW$T$29
    3577              
    3578              
    3579              DW$T$31 .dwtag  DW_TAG_union_type
    3580                      .dwattr DW$T$31, DW_AT_name("GPBQUAL_REG")
    3581                      .dwattr DW$T$31, DW_AT_byte_size(0x01)
    3582              DW$392  .dwtag  DW_TAG_member, DW_AT_type(*DW$T$19)
    3583                      .dwattr DW$392, DW_AT_name("all"), DW_AT_symbol_name("_all")
    3584                      .dwattr DW$392, DW_AT_data_member_location[DW_OP_plus_uconst 0x0]
    3585                      .dwattr DW$392, DW_AT_accessibility(DW_ACCESS_public)
    3586              DW$393  .dwtag  DW_TAG_member, DW_AT_type(*DW$T$30)
    3587                      .dwattr DW$393, DW_AT_name("bit"), DW_AT_symbol_name("_bit")
    3588                      .dwattr DW$393, DW_AT_data_member_location[DW_OP_plus_uconst 0x0]
    3589                      .dwattr DW$393, DW_AT_accessibility(DW_ACCESS_public)
    3590                      .dwendtag DW$T$31
    3591              
    3592              
    3593              DW$T$33 .dwtag  DW_TAG_union_type
    3594                      .dwattr DW$T$33, DW_AT_name("GPDMUX_REG")
    3595                      .dwattr DW$T$33, DW_AT_byte_size(0x01)
    3596              DW$394  .dwtag  DW_TAG_member, DW_AT_type(*DW$T$19)
    3597                      .dwattr DW$394, DW_AT_name("all"), DW_AT_symbol_name("_all")
    3598                      .dwattr DW$394, DW_AT_data_member_location[DW_OP_plus_uconst 0x0]
    3599                      .dwattr DW$394, DW_AT_accessibility(DW_ACCESS_public)
    3600              DW$395  .dwtag  DW_TAG_member, DW_AT_type(*DW$T$32)
    3601                      .dwattr DW$395, DW_AT_name("bit"), DW_AT_symbol_name("_bit")
    3602                      .dwattr DW$395, DW_AT_data_member_location[DW_OP_plus_uconst 0x0]
    3603                      .dwattr DW$395, DW_AT_accessibility(DW_ACCESS_public)
    3604                      .dwendtag DW$T$33
    3605              
    3606              
    3607              DW$T$35 .dwtag  DW_TAG_union_type
    3608                      .dwattr DW$T$35, DW_AT_name("GPDDIR_REG")
    3609                      .dwattr DW$T$35, DW_AT_byte_size(0x01)
    3610              DW$396  .dwtag  DW_TAG_member, DW_AT_type(*DW$T$19)
    3611                      .dwattr DW$396, DW_AT_name("all"), DW_AT_symbol_name("_all")
    3612                      .dwattr DW$396, DW_AT_data_member_location[DW_OP_plus_uconst 0x0]
    3613                      .dwattr DW$396, DW_AT_accessibility(DW_ACCESS_public)
    3614              DW$397  .dwtag  DW_TAG_member, DW_AT_type(*DW$T$34)
    3615                      .dwattr DW$397, DW_AT_name("bit"), DW_AT_symbol_name("_bit")
    3616                      .dwattr DW$397, DW_AT_data_member_location[DW_OP_plus_uconst 0x0]
    3617                      .dwattr DW$397, DW_AT_accessibility(DW_ACCESS_public)
    3618                      .dwendtag DW$T$35
    3619              
    3620              
    3621              DW$T$37 .dwtag  DW_TAG_union_type
    3622                      .dwattr DW$T$37, DW_AT_name("GPDQUAL_REG")
    3623                      .dwattr DW$T$37, DW_AT_byte_size(0x01)
    3624              DW$398  .dwtag  DW_TAG_member, DW_AT_type(*DW$T$19)
    3625                      .dwattr DW$398, DW_AT_name("all"), DW_AT_symbol_name("_all")
    3626                      .dwattr DW$398, DW_AT_data_member_location[DW_OP_plus_uconst 0x0]
    3627                      .dwattr DW$398, DW_AT_accessibility(DW_ACCESS_public)
    3628              DW$399  .dwtag  DW_TAG_member, DW_AT_type(*DW$T$36)
    3629                      .dwattr DW$399, DW_AT_name("bit"), DW_AT_symbol_name("_bit")
TMS320C2000 COFF Assembler PC v4.1.3 Mon Dec 03 13:50:31 2012

Tools Copyright (c) 1996-2006 Texas Instruments Incorporated
C:\DOCUME~1\ADMINI~1\LOCALS~1\Temp\TI9922                            PAGE   70

    3630                      .dwattr DW$399, DW_AT_data_member_location[DW_OP_plus_uconst 0x0]
    3631                      .dwattr DW$399, DW_AT_accessibility(DW_ACCESS_public)
    3632                      .dwendtag DW$T$37
    3633              
    3634              
    3635              DW$T$39 .dwtag  DW_TAG_union_type
    3636                      .dwattr DW$T$39, DW_AT_name("GPEMUX_REG")
    3637                      .dwattr DW$T$39, DW_AT_byte_size(0x01)
    3638              DW$400  .dwtag  DW_TAG_member, DW_AT_type(*DW$T$19)
    3639                      .dwattr DW$400, DW_AT_name("all"), DW_AT_symbol_name("_all")
    3640                      .dwattr DW$400, DW_AT_data_member_location[DW_OP_plus_uconst 0x0]
    3641                      .dwattr DW$400, DW_AT_accessibility(DW_ACCESS_public)
    3642              DW$401  .dwtag  DW_TAG_member, DW_AT_type(*DW$T$38)
    3643                      .dwattr DW$401, DW_AT_name("bit"), DW_AT_symbol_name("_bit")
    3644                      .dwattr DW$401, DW_AT_data_member_location[DW_OP_plus_uconst 0x0]
    3645                      .dwattr DW$401, DW_AT_accessibility(DW_ACCESS_public)
    3646                      .dwendtag DW$T$39
    3647              
    3648              
    3649              DW$T$41 .dwtag  DW_TAG_union_type
    3650                      .dwattr DW$T$41, DW_AT_name("GPEDIR_REG")
    3651                      .dwattr DW$T$41, DW_AT_byte_size(0x01)
    3652              DW$402  .dwtag  DW_TAG_member, DW_AT_type(*DW$T$19)
    3653                      .dwattr DW$402, DW_AT_name("all"), DW_AT_symbol_name("_all")
    3654                      .dwattr DW$402, DW_AT_data_member_location[DW_OP_plus_uconst 0x0]
    3655                      .dwattr DW$402, DW_AT_accessibility(DW_ACCESS_public)
    3656              DW$403  .dwtag  DW_TAG_member, DW_AT_type(*DW$T$40)
    3657                      .dwattr DW$403, DW_AT_name("bit"), DW_AT_symbol_name("_bit")
    3658                      .dwattr DW$403, DW_AT_data_member_location[DW_OP_plus_uconst 0x0]
    3659                      .dwattr DW$403, DW_AT_accessibility(DW_ACCESS_public)
    3660                      .dwendtag DW$T$41
    3661              
    3662              
    3663              DW$T$43 .dwtag  DW_TAG_union_type
    3664                      .dwattr DW$T$43, DW_AT_name("GPEQUAL_REG")
    3665                      .dwattr DW$T$43, DW_AT_byte_size(0x01)
    3666              DW$404  .dwtag  DW_TAG_member, DW_AT_type(*DW$T$19)
    3667                      .dwattr DW$404, DW_AT_name("all"), DW_AT_symbol_name("_all")
    3668                      .dwattr DW$404, DW_AT_data_member_location[DW_OP_plus_uconst 0x0]
    3669                      .dwattr DW$404, DW_AT_accessibility(DW_ACCESS_public)
    3670              DW$405  .dwtag  DW_TAG_member, DW_AT_type(*DW$T$42)
    3671                      .dwattr DW$405, DW_AT_name("bit"), DW_AT_symbol_name("_bit")
    3672                      .dwattr DW$405, DW_AT_data_member_location[DW_OP_plus_uconst 0x0]
    3673                      .dwattr DW$405, DW_AT_accessibility(DW_ACCESS_public)
    3674                      .dwendtag DW$T$43
    3675              
    3676              
    3677              DW$T$45 .dwtag  DW_TAG_union_type
    3678                      .dwattr DW$T$45, DW_AT_name("GPFMUX_REG")
    3679                      .dwattr DW$T$45, DW_AT_byte_size(0x01)
    3680              DW$406  .dwtag  DW_TAG_member, DW_AT_type(*DW$T$19)
    3681                      .dwattr DW$406, DW_AT_name("all"), DW_AT_symbol_name("_all")
    3682                      .dwattr DW$406, DW_AT_data_member_location[DW_OP_plus_uconst 0x0]
    3683                      .dwattr DW$406, DW_AT_accessibility(DW_ACCESS_public)
    3684              DW$407  .dwtag  DW_TAG_member, DW_AT_type(*DW$T$44)
TMS320C2000 COFF Assembler PC v4.1.3 Mon Dec 03 13:50:31 2012

Tools Copyright (c) 1996-2006 Texas Instruments Incorporated
C:\DOCUME~1\ADMINI~1\LOCALS~1\Temp\TI9922                            PAGE   71

    3685                      .dwattr DW$407, DW_AT_name("bit"), DW_AT_symbol_name("_bit")
    3686                      .dwattr DW$407, DW_AT_data_member_location[DW_OP_plus_uconst 0x0]
    3687                      .dwattr DW$407, DW_AT_accessibility(DW_ACCESS_public)
    3688                      .dwendtag DW$T$45
    3689              
    3690              
    3691              DW$T$47 .dwtag  DW_TAG_union_type
    3692                      .dwattr DW$T$47, DW_AT_name("GPFDIR_REG")
    3693                      .dwattr DW$T$47, DW_AT_byte_size(0x01)
    3694              DW$408  .dwtag  DW_TAG_member, DW_AT_type(*DW$T$19)
    3695                      .dwattr DW$408, DW_AT_name("all"), DW_AT_symbol_name("_all")
    3696                      .dwattr DW$408, DW_AT_data_member_location[DW_OP_plus_uconst 0x0]
    3697                      .dwattr DW$408, DW_AT_accessibility(DW_ACCESS_public)
    3698              DW$409  .dwtag  DW_TAG_member, DW_AT_type(*DW$T$46)
    3699                      .dwattr DW$409, DW_AT_name("bit"), DW_AT_symbol_name("_bit")
    3700                      .dwattr DW$409, DW_AT_data_member_location[DW_OP_plus_uconst 0x0]
    3701                      .dwattr DW$409, DW_AT_accessibility(DW_ACCESS_public)
    3702                      .dwendtag DW$T$47
    3703              
    3704              
    3705              DW$T$49 .dwtag  DW_TAG_union_type
    3706                      .dwattr DW$T$49, DW_AT_name("GPGMUX_REG")
    3707                      .dwattr DW$T$49, DW_AT_byte_size(0x01)
    3708              DW$410  .dwtag  DW_TAG_member, DW_AT_type(*DW$T$19)
    3709                      .dwattr DW$410, DW_AT_name("all"), DW_AT_symbol_name("_all")
    3710                      .dwattr DW$410, DW_AT_data_member_location[DW_OP_plus_uconst 0x0]
    3711                      .dwattr DW$410, DW_AT_accessibility(DW_ACCESS_public)
    3712              DW$411  .dwtag  DW_TAG_member, DW_AT_type(*DW$T$48)
    3713                      .dwattr DW$411, DW_AT_name("bit"), DW_AT_symbol_name("_bit")
    3714                      .dwattr DW$411, DW_AT_data_member_location[DW_OP_plus_uconst 0x0]
    3715                      .dwattr DW$411, DW_AT_accessibility(DW_ACCESS_public)
    3716                      .dwendtag DW$T$49
    3717              
    3718              
    3719              DW$T$51 .dwtag  DW_TAG_union_type
    3720                      .dwattr DW$T$51, DW_AT_name("GPGDIR_REG")
    3721                      .dwattr DW$T$51, DW_AT_byte_size(0x01)
    3722              DW$412  .dwtag  DW_TAG_member, DW_AT_type(*DW$T$19)
    3723                      .dwattr DW$412, DW_AT_name("all"), DW_AT_symbol_name("_all")
    3724                      .dwattr DW$412, DW_AT_data_member_location[DW_OP_plus_uconst 0x0]
    3725                      .dwattr DW$412, DW_AT_accessibility(DW_ACCESS_public)
    3726              DW$413  .dwtag  DW_TAG_member, DW_AT_type(*DW$T$50)
    3727                      .dwattr DW$413, DW_AT_name("bit"), DW_AT_symbol_name("_bit")
    3728                      .dwattr DW$413, DW_AT_data_member_location[DW_OP_plus_uconst 0x0]
    3729                      .dwattr DW$413, DW_AT_accessibility(DW_ACCESS_public)
    3730                      .dwendtag DW$T$51
    3731              
    3732              
    3733              DW$T$57 .dwtag  DW_TAG_union_type
    3734                      .dwattr DW$T$57, DW_AT_name("GPADAT_REG")
    3735                      .dwattr DW$T$57, DW_AT_byte_size(0x01)
    3736              DW$414  .dwtag  DW_TAG_member, DW_AT_type(*DW$T$19)
    3737                      .dwattr DW$414, DW_AT_name("all"), DW_AT_symbol_name("_all")
    3738                      .dwattr DW$414, DW_AT_data_member_location[DW_OP_plus_uconst 0x0]
    3739                      .dwattr DW$414, DW_AT_accessibility(DW_ACCESS_public)
TMS320C2000 COFF Assembler PC v4.1.3 Mon Dec 03 13:50:31 2012

Tools Copyright (c) 1996-2006 Texas Instruments Incorporated
C:\DOCUME~1\ADMINI~1\LOCALS~1\Temp\TI9922                            PAGE   72

    3740              DW$415  .dwtag  DW_TAG_member, DW_AT_type(*DW$T$56)
    3741                      .dwattr DW$415, DW_AT_name("bit"), DW_AT_symbol_name("_bit")
    3742                      .dwattr DW$415, DW_AT_data_member_location[DW_OP_plus_uconst 0x0]
    3743                      .dwattr DW$415, DW_AT_accessibility(DW_ACCESS_public)
    3744                      .dwendtag DW$T$57
    3745              
    3746              
    3747              DW$T$59 .dwtag  DW_TAG_union_type
    3748                      .dwattr DW$T$59, DW_AT_name("GPASET_REG")
    3749                      .dwattr DW$T$59, DW_AT_byte_size(0x01)
    3750              DW$416  .dwtag  DW_TAG_member, DW_AT_type(*DW$T$19)
    3751                      .dwattr DW$416, DW_AT_name("all"), DW_AT_symbol_name("_all")
    3752                      .dwattr DW$416, DW_AT_data_member_location[DW_OP_plus_uconst 0x0]
    3753                      .dwattr DW$416, DW_AT_accessibility(DW_ACCESS_public)
    3754              DW$417  .dwtag  DW_TAG_member, DW_AT_type(*DW$T$58)
    3755                      .dwattr DW$417, DW_AT_name("bit"), DW_AT_symbol_name("_bit")
    3756                      .dwattr DW$417, DW_AT_data_member_location[DW_OP_plus_uconst 0x0]
    3757                      .dwattr DW$417, DW_AT_accessibility(DW_ACCESS_public)
    3758                      .dwendtag DW$T$59
    3759              
    3760              
    3761              DW$T$61 .dwtag  DW_TAG_union_type
    3762                      .dwattr DW$T$61, DW_AT_name("GPACLEAR_REG")
    3763                      .dwattr DW$T$61, DW_AT_byte_size(0x01)
    3764              DW$418  .dwtag  DW_TAG_member, DW_AT_type(*DW$T$19)
    3765                      .dwattr DW$418, DW_AT_name("all"), DW_AT_symbol_name("_all")
    3766                      .dwattr DW$418, DW_AT_data_member_location[DW_OP_plus_uconst 0x0]
    3767                      .dwattr DW$418, DW_AT_accessibility(DW_ACCESS_public)
    3768              DW$419  .dwtag  DW_TAG_member, DW_AT_type(*DW$T$60)
    3769                      .dwattr DW$419, DW_AT_name("bit"), DW_AT_symbol_name("_bit")
    3770                      .dwattr DW$419, DW_AT_data_member_location[DW_OP_plus_uconst 0x0]
    3771                      .dwattr DW$419, DW_AT_accessibility(DW_ACCESS_public)
    3772                      .dwendtag DW$T$61
    3773              
    3774              
    3775              DW$T$63 .dwtag  DW_TAG_union_type
    3776                      .dwattr DW$T$63, DW_AT_name("GPATOGGLE_REG")
    3777                      .dwattr DW$T$63, DW_AT_byte_size(0x01)
    3778              DW$420  .dwtag  DW_TAG_member, DW_AT_type(*DW$T$19)
    3779                      .dwattr DW$420, DW_AT_name("all"), DW_AT_symbol_name("_all")
    3780                      .dwattr DW$420, DW_AT_data_member_location[DW_OP_plus_uconst 0x0]
    3781                      .dwattr DW$420, DW_AT_accessibility(DW_ACCESS_public)
    3782              DW$421  .dwtag  DW_TAG_member, DW_AT_type(*DW$T$62)
    3783                      .dwattr DW$421, DW_AT_name("bit"), DW_AT_symbol_name("_bit")
    3784                      .dwattr DW$421, DW_AT_data_member_location[DW_OP_plus_uconst 0x0]
    3785                      .dwattr DW$421, DW_AT_accessibility(DW_ACCESS_public)
    3786                      .dwendtag DW$T$63
    3787              
    3788              
    3789              DW$T$65 .dwtag  DW_TAG_union_type
    3790                      .dwattr DW$T$65, DW_AT_name("GPBDAT_REG")
    3791                      .dwattr DW$T$65, DW_AT_byte_size(0x01)
    3792              DW$422  .dwtag  DW_TAG_member, DW_AT_type(*DW$T$19)
    3793                      .dwattr DW$422, DW_AT_name("all"), DW_AT_symbol_name("_all")
    3794                      .dwattr DW$422, DW_AT_data_member_location[DW_OP_plus_uconst 0x0]
TMS320C2000 COFF Assembler PC v4.1.3 Mon Dec 03 13:50:31 2012

Tools Copyright (c) 1996-2006 Texas Instruments Incorporated
C:\DOCUME~1\ADMINI~1\LOCALS~1\Temp\TI9922                            PAGE   73

    3795                      .dwattr DW$422, DW_AT_accessibility(DW_ACCESS_public)
    3796              DW$423  .dwtag  DW_TAG_member, DW_AT_type(*DW$T$64)
    3797                      .dwattr DW$423, DW_AT_name("bit"), DW_AT_symbol_name("_bit")
    3798                      .dwattr DW$423, DW_AT_data_member_location[DW_OP_plus_uconst 0x0]
    3799                      .dwattr DW$423, DW_AT_accessibility(DW_ACCESS_public)
    3800                      .dwendtag DW$T$65
    3801              
    3802              
    3803              DW$T$67 .dwtag  DW_TAG_union_type
    3804                      .dwattr DW$T$67, DW_AT_name("GPBSET_REG")
    3805                      .dwattr DW$T$67, DW_AT_byte_size(0x01)
    3806              DW$424  .dwtag  DW_TAG_member, DW_AT_type(*DW$T$19)
    3807                      .dwattr DW$424, DW_AT_name("all"), DW_AT_symbol_name("_all")
    3808                      .dwattr DW$424, DW_AT_data_member_location[DW_OP_plus_uconst 0x0]
    3809                      .dwattr DW$424, DW_AT_accessibility(DW_ACCESS_public)
    3810              DW$425  .dwtag  DW_TAG_member, DW_AT_type(*DW$T$66)
    3811                      .dwattr DW$425, DW_AT_name("bit"), DW_AT_symbol_name("_bit")
    3812                      .dwattr DW$425, DW_AT_data_member_location[DW_OP_plus_uconst 0x0]
    3813                      .dwattr DW$425, DW_AT_accessibility(DW_ACCESS_public)
    3814                      .dwendtag DW$T$67
    3815              
    3816              
    3817              DW$T$69 .dwtag  DW_TAG_union_type
    3818                      .dwattr DW$T$69, DW_AT_name("GPBCLEAR_REG")
    3819                      .dwattr DW$T$69, DW_AT_byte_size(0x01)
    3820              DW$426  .dwtag  DW_TAG_member, DW_AT_type(*DW$T$19)
    3821                      .dwattr DW$426, DW_AT_name("all"), DW_AT_symbol_name("_all")
    3822                      .dwattr DW$426, DW_AT_data_member_location[DW_OP_plus_uconst 0x0]
    3823                      .dwattr DW$426, DW_AT_accessibility(DW_ACCESS_public)
    3824              DW$427  .dwtag  DW_TAG_member, DW_AT_type(*DW$T$68)
    3825                      .dwattr DW$427, DW_AT_name("bit"), DW_AT_symbol_name("_bit")
    3826                      .dwattr DW$427, DW_AT_data_member_location[DW_OP_plus_uconst 0x0]
    3827                      .dwattr DW$427, DW_AT_accessibility(DW_ACCESS_public)
    3828                      .dwendtag DW$T$69
    3829              
    3830              
    3831              DW$T$71 .dwtag  DW_TAG_union_type
    3832                      .dwattr DW$T$71, DW_AT_name("GPBTOGGLE_REG")
    3833                      .dwattr DW$T$71, DW_AT_byte_size(0x01)
    3834              DW$428  .dwtag  DW_TAG_member, DW_AT_type(*DW$T$19)
    3835                      .dwattr DW$428, DW_AT_name("all"), DW_AT_symbol_name("_all")
    3836                      .dwattr DW$428, DW_AT_data_member_location[DW_OP_plus_uconst 0x0]
    3837                      .dwattr DW$428, DW_AT_accessibility(DW_ACCESS_public)
    3838              DW$429  .dwtag  DW_TAG_member, DW_AT_type(*DW$T$70)
    3839                      .dwattr DW$429, DW_AT_name("bit"), DW_AT_symbol_name("_bit")
    3840                      .dwattr DW$429, DW_AT_data_member_location[DW_OP_plus_uconst 0x0]
    3841                      .dwattr DW$429, DW_AT_accessibility(DW_ACCESS_public)
    3842                      .dwendtag DW$T$71
    3843              
    3844              
    3845              DW$T$73 .dwtag  DW_TAG_union_type
    3846                      .dwattr DW$T$73, DW_AT_name("GPDDAT_REG")
    3847                      .dwattr DW$T$73, DW_AT_byte_size(0x01)
    3848              DW$430  .dwtag  DW_TAG_member, DW_AT_type(*DW$T$19)
    3849                      .dwattr DW$430, DW_AT_name("all"), DW_AT_symbol_name("_all")
TMS320C2000 COFF Assembler PC v4.1.3 Mon Dec 03 13:50:31 2012

Tools Copyright (c) 1996-2006 Texas Instruments Incorporated
C:\DOCUME~1\ADMINI~1\LOCALS~1\Temp\TI9922                            PAGE   74

    3850                      .dwattr DW$430, DW_AT_data_member_location[DW_OP_plus_uconst 0x0]
    3851                      .dwattr DW$430, DW_AT_accessibility(DW_ACCESS_public)
    3852              DW$431  .dwtag  DW_TAG_member, DW_AT_type(*DW$T$72)
    3853                      .dwattr DW$431, DW_AT_name("bit"), DW_AT_symbol_name("_bit")
    3854                      .dwattr DW$431, DW_AT_data_member_location[DW_OP_plus_uconst 0x0]
    3855                      .dwattr DW$431, DW_AT_accessibility(DW_ACCESS_public)
    3856                      .dwendtag DW$T$73
    3857              
    3858              
    3859              DW$T$75 .dwtag  DW_TAG_union_type
    3860                      .dwattr DW$T$75, DW_AT_name("GPDSET_REG")
    3861                      .dwattr DW$T$75, DW_AT_byte_size(0x01)
    3862              DW$432  .dwtag  DW_TAG_member, DW_AT_type(*DW$T$19)
    3863                      .dwattr DW$432, DW_AT_name("all"), DW_AT_symbol_name("_all")
    3864                      .dwattr DW$432, DW_AT_data_member_location[DW_OP_plus_uconst 0x0]
    3865                      .dwattr DW$432, DW_AT_accessibility(DW_ACCESS_public)
    3866              DW$433  .dwtag  DW_TAG_member, DW_AT_type(*DW$T$74)
    3867                      .dwattr DW$433, DW_AT_name("bit"), DW_AT_symbol_name("_bit")
    3868                      .dwattr DW$433, DW_AT_data_member_location[DW_OP_plus_uconst 0x0]
    3869                      .dwattr DW$433, DW_AT_accessibility(DW_ACCESS_public)
    3870                      .dwendtag DW$T$75
    3871              
    3872              
    3873              DW$T$77 .dwtag  DW_TAG_union_type
    3874                      .dwattr DW$T$77, DW_AT_name("GPDCLEAR_REG")
    3875                      .dwattr DW$T$77, DW_AT_byte_size(0x01)
    3876              DW$434  .dwtag  DW_TAG_member, DW_AT_type(*DW$T$19)
    3877                      .dwattr DW$434, DW_AT_name("all"), DW_AT_symbol_name("_all")
    3878                      .dwattr DW$434, DW_AT_data_member_location[DW_OP_plus_uconst 0x0]
    3879                      .dwattr DW$434, DW_AT_accessibility(DW_ACCESS_public)
    3880              DW$435  .dwtag  DW_TAG_member, DW_AT_type(*DW$T$76)
    3881                      .dwattr DW$435, DW_AT_name("bit"), DW_AT_symbol_name("_bit")
    3882                      .dwattr DW$435, DW_AT_data_member_location[DW_OP_plus_uconst 0x0]
    3883                      .dwattr DW$435, DW_AT_accessibility(DW_ACCESS_public)
    3884                      .dwendtag DW$T$77
    3885              
    3886              
    3887              DW$T$79 .dwtag  DW_TAG_union_type
    3888                      .dwattr DW$T$79, DW_AT_name("GPDTOGGLE_REG")
    3889                      .dwattr DW$T$79, DW_AT_byte_size(0x01)
    3890              DW$436  .dwtag  DW_TAG_member, DW_AT_type(*DW$T$19)
    3891                      .dwattr DW$436, DW_AT_name("all"), DW_AT_symbol_name("_all")
    3892                      .dwattr DW$436, DW_AT_data_member_location[DW_OP_plus_uconst 0x0]
    3893                      .dwattr DW$436, DW_AT_accessibility(DW_ACCESS_public)
    3894              DW$437  .dwtag  DW_TAG_member, DW_AT_type(*DW$T$78)
    3895                      .dwattr DW$437, DW_AT_name("bit"), DW_AT_symbol_name("_bit")
    3896                      .dwattr DW$437, DW_AT_data_member_location[DW_OP_plus_uconst 0x0]
    3897                      .dwattr DW$437, DW_AT_accessibility(DW_ACCESS_public)
    3898                      .dwendtag DW$T$79
    3899              
    3900              
    3901              DW$T$81 .dwtag  DW_TAG_union_type
    3902                      .dwattr DW$T$81, DW_AT_name("GPEDAT_REG")
    3903                      .dwattr DW$T$81, DW_AT_byte_size(0x01)
    3904              DW$438  .dwtag  DW_TAG_member, DW_AT_type(*DW$T$19)
TMS320C2000 COFF Assembler PC v4.1.3 Mon Dec 03 13:50:31 2012

Tools Copyright (c) 1996-2006 Texas Instruments Incorporated
C:\DOCUME~1\ADMINI~1\LOCALS~1\Temp\TI9922                            PAGE   75

    3905                      .dwattr DW$438, DW_AT_name("all"), DW_AT_symbol_name("_all")
    3906                      .dwattr DW$438, DW_AT_data_member_location[DW_OP_plus_uconst 0x0]
    3907                      .dwattr DW$438, DW_AT_accessibility(DW_ACCESS_public)
    3908              DW$439  .dwtag  DW_TAG_member, DW_AT_type(*DW$T$80)
    3909                      .dwattr DW$439, DW_AT_name("bit"), DW_AT_symbol_name("_bit")
    3910                      .dwattr DW$439, DW_AT_data_member_location[DW_OP_plus_uconst 0x0]
    3911                      .dwattr DW$439, DW_AT_accessibility(DW_ACCESS_public)
    3912                      .dwendtag DW$T$81
    3913              
    3914              
    3915              DW$T$83 .dwtag  DW_TAG_union_type
    3916                      .dwattr DW$T$83, DW_AT_name("GPESET_REG")
    3917                      .dwattr DW$T$83, DW_AT_byte_size(0x01)
    3918              DW$440  .dwtag  DW_TAG_member, DW_AT_type(*DW$T$19)
    3919                      .dwattr DW$440, DW_AT_name("all"), DW_AT_symbol_name("_all")
    3920                      .dwattr DW$440, DW_AT_data_member_location[DW_OP_plus_uconst 0x0]
    3921                      .dwattr DW$440, DW_AT_accessibility(DW_ACCESS_public)
    3922              DW$441  .dwtag  DW_TAG_member, DW_AT_type(*DW$T$82)
    3923                      .dwattr DW$441, DW_AT_name("bit"), DW_AT_symbol_name("_bit")
    3924                      .dwattr DW$441, DW_AT_data_member_location[DW_OP_plus_uconst 0x0]
    3925                      .dwattr DW$441, DW_AT_accessibility(DW_ACCESS_public)
    3926                      .dwendtag DW$T$83
    3927              
    3928              
    3929              DW$T$85 .dwtag  DW_TAG_union_type
    3930                      .dwattr DW$T$85, DW_AT_name("GPECLEAR_REG")
    3931                      .dwattr DW$T$85, DW_AT_byte_size(0x01)
    3932              DW$442  .dwtag  DW_TAG_member, DW_AT_type(*DW$T$19)
    3933                      .dwattr DW$442, DW_AT_name("all"), DW_AT_symbol_name("_all")
    3934                      .dwattr DW$442, DW_AT_data_member_location[DW_OP_plus_uconst 0x0]
    3935                      .dwattr DW$442, DW_AT_accessibility(DW_ACCESS_public)
    3936              DW$443  .dwtag  DW_TAG_member, DW_AT_type(*DW$T$84)
    3937                      .dwattr DW$443, DW_AT_name("bit"), DW_AT_symbol_name("_bit")
    3938                      .dwattr DW$443, DW_AT_data_member_location[DW_OP_plus_uconst 0x0]
    3939                      .dwattr DW$443, DW_AT_accessibility(DW_ACCESS_public)
    3940                      .dwendtag DW$T$85
    3941              
    3942              
    3943              DW$T$87 .dwtag  DW_TAG_union_type
    3944                      .dwattr DW$T$87, DW_AT_name("GPETOGGLE_REG")
    3945                      .dwattr DW$T$87, DW_AT_byte_size(0x01)
    3946              DW$444  .dwtag  DW_TAG_member, DW_AT_type(*DW$T$19)
    3947                      .dwattr DW$444, DW_AT_name("all"), DW_AT_symbol_name("_all")
    3948                      .dwattr DW$444, DW_AT_data_member_location[DW_OP_plus_uconst 0x0]
    3949                      .dwattr DW$444, DW_AT_accessibility(DW_ACCESS_public)
    3950              DW$445  .dwtag  DW_TAG_member, DW_AT_type(*DW$T$86)
    3951                      .dwattr DW$445, DW_AT_name("bit"), DW_AT_symbol_name("_bit")
    3952                      .dwattr DW$445, DW_AT_data_member_location[DW_OP_plus_uconst 0x0]
    3953                      .dwattr DW$445, DW_AT_accessibility(DW_ACCESS_public)
    3954                      .dwendtag DW$T$87
    3955              
    3956              
    3957              DW$T$89 .dwtag  DW_TAG_union_type
    3958                      .dwattr DW$T$89, DW_AT_name("GPFDAT_REG")
    3959                      .dwattr DW$T$89, DW_AT_byte_size(0x01)
TMS320C2000 COFF Assembler PC v4.1.3 Mon Dec 03 13:50:31 2012

Tools Copyright (c) 1996-2006 Texas Instruments Incorporated
C:\DOCUME~1\ADMINI~1\LOCALS~1\Temp\TI9922                            PAGE   76

    3960              DW$446  .dwtag  DW_TAG_member, DW_AT_type(*DW$T$19)
    3961                      .dwattr DW$446, DW_AT_name("all"), DW_AT_symbol_name("_all")
    3962                      .dwattr DW$446, DW_AT_data_member_location[DW_OP_plus_uconst 0x0]
    3963                      .dwattr DW$446, DW_AT_accessibility(DW_ACCESS_public)
    3964              DW$447  .dwtag  DW_TAG_member, DW_AT_type(*DW$T$88)
    3965                      .dwattr DW$447, DW_AT_name("bit"), DW_AT_symbol_name("_bit")
    3966                      .dwattr DW$447, DW_AT_data_member_location[DW_OP_plus_uconst 0x0]
    3967                      .dwattr DW$447, DW_AT_accessibility(DW_ACCESS_public)
    3968                      .dwendtag DW$T$89
    3969              
    3970              
    3971              DW$T$91 .dwtag  DW_TAG_union_type
    3972                      .dwattr DW$T$91, DW_AT_name("GPFSET_REG")
    3973                      .dwattr DW$T$91, DW_AT_byte_size(0x01)
    3974              DW$448  .dwtag  DW_TAG_member, DW_AT_type(*DW$T$19)
    3975                      .dwattr DW$448, DW_AT_name("all"), DW_AT_symbol_name("_all")
    3976                      .dwattr DW$448, DW_AT_data_member_location[DW_OP_plus_uconst 0x0]
    3977                      .dwattr DW$448, DW_AT_accessibility(DW_ACCESS_public)
    3978              DW$449  .dwtag  DW_TAG_member, DW_AT_type(*DW$T$90)
    3979                      .dwattr DW$449, DW_AT_name("bit"), DW_AT_symbol_name("_bit")
    3980                      .dwattr DW$449, DW_AT_data_member_location[DW_OP_plus_uconst 0x0]
    3981                      .dwattr DW$449, DW_AT_accessibility(DW_ACCESS_public)
    3982                      .dwendtag DW$T$91
    3983              
    3984              
    3985              DW$T$93 .dwtag  DW_TAG_union_type
    3986                      .dwattr DW$T$93, DW_AT_name("GPFCLEAR_REG")
    3987                      .dwattr DW$T$93, DW_AT_byte_size(0x01)
    3988              DW$450  .dwtag  DW_TAG_member, DW_AT_type(*DW$T$19)
    3989                      .dwattr DW$450, DW_AT_name("all"), DW_AT_symbol_name("_all")
    3990                      .dwattr DW$450, DW_AT_data_member_location[DW_OP_plus_uconst 0x0]
    3991                      .dwattr DW$450, DW_AT_accessibility(DW_ACCESS_public)
    3992              DW$451  .dwtag  DW_TAG_member, DW_AT_type(*DW$T$92)
    3993                      .dwattr DW$451, DW_AT_name("bit"), DW_AT_symbol_name("_bit")
    3994                      .dwattr DW$451, DW_AT_data_member_location[DW_OP_plus_uconst 0x0]
    3995                      .dwattr DW$451, DW_AT_accessibility(DW_ACCESS_public)
    3996                      .dwendtag DW$T$93
    3997              
    3998              
    3999              DW$T$95 .dwtag  DW_TAG_union_type
    4000                      .dwattr DW$T$95, DW_AT_name("GPFTOGGLE_REG")
    4001                      .dwattr DW$T$95, DW_AT_byte_size(0x01)
    4002              DW$452  .dwtag  DW_TAG_member, DW_AT_type(*DW$T$19)
    4003                      .dwattr DW$452, DW_AT_name("all"), DW_AT_symbol_name("_all")
    4004                      .dwattr DW$452, DW_AT_data_member_location[DW_OP_plus_uconst 0x0]
    4005                      .dwattr DW$452, DW_AT_accessibility(DW_ACCESS_public)
    4006              DW$453  .dwtag  DW_TAG_member, DW_AT_type(*DW$T$94)
    4007                      .dwattr DW$453, DW_AT_name("bit"), DW_AT_symbol_name("_bit")
    4008                      .dwattr DW$453, DW_AT_data_member_location[DW_OP_plus_uconst 0x0]
    4009                      .dwattr DW$453, DW_AT_accessibility(DW_ACCESS_public)
    4010                      .dwendtag DW$T$95
    4011              
    4012              
    4013              DW$T$97 .dwtag  DW_TAG_union_type
    4014                      .dwattr DW$T$97, DW_AT_name("GPGDAT_REG")
TMS320C2000 COFF Assembler PC v4.1.3 Mon Dec 03 13:50:31 2012

Tools Copyright (c) 1996-2006 Texas Instruments Incorporated
C:\DOCUME~1\ADMINI~1\LOCALS~1\Temp\TI9922                            PAGE   77

    4015                      .dwattr DW$T$97, DW_AT_byte_size(0x01)
    4016              DW$454  .dwtag  DW_TAG_member, DW_AT_type(*DW$T$19)
    4017                      .dwattr DW$454, DW_AT_name("all"), DW_AT_symbol_name("_all")
    4018                      .dwattr DW$454, DW_AT_data_member_location[DW_OP_plus_uconst 0x0]
    4019                      .dwattr DW$454, DW_AT_accessibility(DW_ACCESS_public)
    4020              DW$455  .dwtag  DW_TAG_member, DW_AT_type(*DW$T$96)
    4021                      .dwattr DW$455, DW_AT_name("bit"), DW_AT_symbol_name("_bit")
    4022                      .dwattr DW$455, DW_AT_data_member_location[DW_OP_plus_uconst 0x0]
    4023                      .dwattr DW$455, DW_AT_accessibility(DW_ACCESS_public)
    4024                      .dwendtag DW$T$97
    4025              
    4026              
    4027              DW$T$99 .dwtag  DW_TAG_union_type
    4028                      .dwattr DW$T$99, DW_AT_name("GPGSET_REG")
    4029                      .dwattr DW$T$99, DW_AT_byte_size(0x01)
    4030              DW$456  .dwtag  DW_TAG_member, DW_AT_type(*DW$T$19)
    4031                      .dwattr DW$456, DW_AT_name("all"), DW_AT_symbol_name("_all")
    4032                      .dwattr DW$456, DW_AT_data_member_location[DW_OP_plus_uconst 0x0]
    4033                      .dwattr DW$456, DW_AT_accessibility(DW_ACCESS_public)
    4034              DW$457  .dwtag  DW_TAG_member, DW_AT_type(*DW$T$98)
    4035                      .dwattr DW$457, DW_AT_name("bit"), DW_AT_symbol_name("_bit")
    4036                      .dwattr DW$457, DW_AT_data_member_location[DW_OP_plus_uconst 0x0]
    4037                      .dwattr DW$457, DW_AT_accessibility(DW_ACCESS_public)
    4038                      .dwendtag DW$T$99
    4039              
    4040              
    4041              DW$T$101        .dwtag  DW_TAG_union_type
    4042                      .dwattr DW$T$101, DW_AT_name("GPGCLEAR_REG")
    4043                      .dwattr DW$T$101, DW_AT_byte_size(0x01)
    4044              DW$458  .dwtag  DW_TAG_member, DW_AT_type(*DW$T$19)
    4045                      .dwattr DW$458, DW_AT_name("all"), DW_AT_symbol_name("_all")
    4046                      .dwattr DW$458, DW_AT_data_member_location[DW_OP_plus_uconst 0x0]
    4047                      .dwattr DW$458, DW_AT_accessibility(DW_ACCESS_public)
    4048              DW$459  .dwtag  DW_TAG_member, DW_AT_type(*DW$T$100)
    4049                      .dwattr DW$459, DW_AT_name("bit"), DW_AT_symbol_name("_bit")
    4050                      .dwattr DW$459, DW_AT_data_member_location[DW_OP_plus_uconst 0x0]
    4051                      .dwattr DW$459, DW_AT_accessibility(DW_ACCESS_public)
    4052                      .dwendtag DW$T$101
    4053              
    4054              
    4055              DW$T$103        .dwtag  DW_TAG_union_type
    4056                      .dwattr DW$T$103, DW_AT_name("GPGTOGGLE_REG")
    4057                      .dwattr DW$T$103, DW_AT_byte_size(0x01)
    4058              DW$460  .dwtag  DW_TAG_member, DW_AT_type(*DW$T$19)
    4059                      .dwattr DW$460, DW_AT_name("all"), DW_AT_symbol_name("_all")
    4060                      .dwattr DW$460, DW_AT_data_member_location[DW_OP_plus_uconst 0x0]
    4061                      .dwattr DW$460, DW_AT_accessibility(DW_ACCESS_public)
    4062              DW$461  .dwtag  DW_TAG_member, DW_AT_type(*DW$T$102)
    4063                      .dwattr DW$461, DW_AT_name("bit"), DW_AT_symbol_name("_bit")
    4064                      .dwattr DW$461, DW_AT_data_member_location[DW_OP_plus_uconst 0x0]
    4065                      .dwattr DW$461, DW_AT_accessibility(DW_ACCESS_public)
    4066                      .dwendtag DW$T$103
    4067              
    4068              
    4069              DW$T$107        .dwtag  DW_TAG_union_type
TMS320C2000 COFF Assembler PC v4.1.3 Mon Dec 03 13:50:31 2012

Tools Copyright (c) 1996-2006 Texas Instruments Incorporated
C:\DOCUME~1\ADMINI~1\LOCALS~1\Temp\TI9922                            PAGE   78

    4070                      .dwattr DW$T$107, DW_AT_name("GPTCONB_REG")
    4071                      .dwattr DW$T$107, DW_AT_byte_size(0x01)
    4072              DW$462  .dwtag  DW_TAG_member, DW_AT_type(*DW$T$19)
    4073                      .dwattr DW$462, DW_AT_name("all"), DW_AT_symbol_name("_all")
    4074                      .dwattr DW$462, DW_AT_data_member_location[DW_OP_plus_uconst 0x0]
    4075                      .dwattr DW$462, DW_AT_accessibility(DW_ACCESS_public)
    4076              DW$463  .dwtag  DW_TAG_member, DW_AT_type(*DW$T$106)
    4077                      .dwattr DW$463, DW_AT_name("bit"), DW_AT_symbol_name("_bit")
    4078                      .dwattr DW$463, DW_AT_data_member_location[DW_OP_plus_uconst 0x0]
    4079                      .dwattr DW$463, DW_AT_accessibility(DW_ACCESS_public)
    4080                      .dwendtag DW$T$107
    4081              
    4082              
    4083              DW$T$109        .dwtag  DW_TAG_union_type
    4084                      .dwattr DW$T$109, DW_AT_name("T3CON_REG")
    4085                      .dwattr DW$T$109, DW_AT_byte_size(0x01)
    4086              DW$464  .dwtag  DW_TAG_member, DW_AT_type(*DW$T$19)
    4087                      .dwattr DW$464, DW_AT_name("all"), DW_AT_symbol_name("_all")
    4088                      .dwattr DW$464, DW_AT_data_member_location[DW_OP_plus_uconst 0x0]
    4089                      .dwattr DW$464, DW_AT_accessibility(DW_ACCESS_public)
    4090              DW$465  .dwtag  DW_TAG_member, DW_AT_type(*DW$T$108)
    4091                      .dwattr DW$465, DW_AT_name("bit"), DW_AT_symbol_name("_bit")
    4092                      .dwattr DW$465, DW_AT_data_member_location[DW_OP_plus_uconst 0x0]
    4093                      .dwattr DW$465, DW_AT_accessibility(DW_ACCESS_public)
    4094                      .dwendtag DW$T$109
    4095              
    4096              
    4097              DW$T$111        .dwtag  DW_TAG_union_type
    4098                      .dwattr DW$T$111, DW_AT_name("T4CON_REG")
    4099                      .dwattr DW$T$111, DW_AT_byte_size(0x01)
    4100              DW$466  .dwtag  DW_TAG_member, DW_AT_type(*DW$T$19)
    4101                      .dwattr DW$466, DW_AT_name("all"), DW_AT_symbol_name("_all")
    4102                      .dwattr DW$466, DW_AT_data_member_location[DW_OP_plus_uconst 0x0]
    4103                      .dwattr DW$466, DW_AT_accessibility(DW_ACCESS_public)
    4104              DW$467  .dwtag  DW_TAG_member, DW_AT_type(*DW$T$110)
    4105                      .dwattr DW$467, DW_AT_name("bit"), DW_AT_symbol_name("_bit")
    4106                      .dwattr DW$467, DW_AT_data_member_location[DW_OP_plus_uconst 0x0]
    4107                      .dwattr DW$467, DW_AT_accessibility(DW_ACCESS_public)
    4108                      .dwendtag DW$T$111
    4109              
    4110              
    4111              DW$T$113        .dwtag  DW_TAG_union_type
    4112                      .dwattr DW$T$113, DW_AT_name("EXTCONB_REG")
    4113                      .dwattr DW$T$113, DW_AT_byte_size(0x01)
    4114              DW$468  .dwtag  DW_TAG_member, DW_AT_type(*DW$T$19)
    4115                      .dwattr DW$468, DW_AT_name("all"), DW_AT_symbol_name("_all")
    4116                      .dwattr DW$468, DW_AT_data_member_location[DW_OP_plus_uconst 0x0]
    4117                      .dwattr DW$468, DW_AT_accessibility(DW_ACCESS_public)
    4118              DW$469  .dwtag  DW_TAG_member, DW_AT_type(*DW$T$112)
    4119                      .dwattr DW$469, DW_AT_name("bit"), DW_AT_symbol_name("_bit")
    4120                      .dwattr DW$469, DW_AT_data_member_location[DW_OP_plus_uconst 0x0]
    4121                      .dwattr DW$469, DW_AT_accessibility(DW_ACCESS_public)
    4122                      .dwendtag DW$T$113
    4123              
    4124              
TMS320C2000 COFF Assembler PC v4.1.3 Mon Dec 03 13:50:31 2012

Tools Copyright (c) 1996-2006 Texas Instruments Incorporated
C:\DOCUME~1\ADMINI~1\LOCALS~1\Temp\TI9922                            PAGE   79

    4125              DW$T$115        .dwtag  DW_TAG_union_type
    4126                      .dwattr DW$T$115, DW_AT_name("COMCONB_REG")
    4127                      .dwattr DW$T$115, DW_AT_byte_size(0x01)
    4128              DW$470  .dwtag  DW_TAG_member, DW_AT_type(*DW$T$19)
    4129                      .dwattr DW$470, DW_AT_name("all"), DW_AT_symbol_name("_all")
    4130                      .dwattr DW$470, DW_AT_data_member_location[DW_OP_plus_uconst 0x0]
    4131                      .dwattr DW$470, DW_AT_accessibility(DW_ACCESS_public)
    4132              DW$471  .dwtag  DW_TAG_member, DW_AT_type(*DW$T$114)
    4133                      .dwattr DW$471, DW_AT_name("bit"), DW_AT_symbol_name("_bit")
    4134                      .dwattr DW$471, DW_AT_data_member_location[DW_OP_plus_uconst 0x0]
    4135                      .dwattr DW$471, DW_AT_accessibility(DW_ACCESS_public)
    4136                      .dwendtag DW$T$115
    4137              
    4138              
    4139              DW$T$117        .dwtag  DW_TAG_union_type
    4140                      .dwattr DW$T$117, DW_AT_name("ACTRB_REG")
    4141                      .dwattr DW$T$117, DW_AT_byte_size(0x01)
    4142              DW$472  .dwtag  DW_TAG_member, DW_AT_type(*DW$T$19)
    4143                      .dwattr DW$472, DW_AT_name("all"), DW_AT_symbol_name("_all")
    4144                      .dwattr DW$472, DW_AT_data_member_location[DW_OP_plus_uconst 0x0]
    4145                      .dwattr DW$472, DW_AT_accessibility(DW_ACCESS_public)
    4146              DW$473  .dwtag  DW_TAG_member, DW_AT_type(*DW$T$116)
    4147                      .dwattr DW$473, DW_AT_name("bit"), DW_AT_symbol_name("_bit")
    4148                      .dwattr DW$473, DW_AT_data_member_location[DW_OP_plus_uconst 0x0]
    4149                      .dwattr DW$473, DW_AT_accessibility(DW_ACCESS_public)
    4150                      .dwendtag DW$T$117
    4151              
    4152              
    4153              DW$T$119        .dwtag  DW_TAG_union_type
    4154                      .dwattr DW$T$119, DW_AT_name("DBTCON_REG")
    4155                      .dwattr DW$T$119, DW_AT_byte_size(0x01)
    4156              DW$474  .dwtag  DW_TAG_member, DW_AT_type(*DW$T$19)
    4157                      .dwattr DW$474, DW_AT_name("all"), DW_AT_symbol_name("_all")
    4158                      .dwattr DW$474, DW_AT_data_member_location[DW_OP_plus_uconst 0x0]
    4159                      .dwattr DW$474, DW_AT_accessibility(DW_ACCESS_public)
    4160              DW$475  .dwtag  DW_TAG_member, DW_AT_type(*DW$T$118)
    4161                      .dwattr DW$475, DW_AT_name("bit"), DW_AT_symbol_name("_bit")
    4162                      .dwattr DW$475, DW_AT_data_member_location[DW_OP_plus_uconst 0x0]
    4163                      .dwattr DW$475, DW_AT_accessibility(DW_ACCESS_public)
    4164                      .dwendtag DW$T$119
    4165              
    4166              
    4167              DW$T$121        .dwtag  DW_TAG_union_type
    4168                      .dwattr DW$T$121, DW_AT_name("CAPCONB_REG")
    4169                      .dwattr DW$T$121, DW_AT_byte_size(0x01)
    4170              DW$476  .dwtag  DW_TAG_member, DW_AT_type(*DW$T$19)
    4171                      .dwattr DW$476, DW_AT_name("all"), DW_AT_symbol_name("_all")
    4172                      .dwattr DW$476, DW_AT_data_member_location[DW_OP_plus_uconst 0x0]
    4173                      .dwattr DW$476, DW_AT_accessibility(DW_ACCESS_public)
    4174              DW$477  .dwtag  DW_TAG_member, DW_AT_type(*DW$T$120)
    4175                      .dwattr DW$477, DW_AT_name("bit"), DW_AT_symbol_name("_bit")
    4176                      .dwattr DW$477, DW_AT_data_member_location[DW_OP_plus_uconst 0x0]
    4177                      .dwattr DW$477, DW_AT_accessibility(DW_ACCESS_public)
    4178                      .dwendtag DW$T$121
    4179              
TMS320C2000 COFF Assembler PC v4.1.3 Mon Dec 03 13:50:31 2012

Tools Copyright (c) 1996-2006 Texas Instruments Incorporated
C:\DOCUME~1\ADMINI~1\LOCALS~1\Temp\TI9922                            PAGE   80

    4180              
    4181              DW$T$123        .dwtag  DW_TAG_union_type
    4182                      .dwattr DW$T$123, DW_AT_name("CAPFIFOB_REG")
    4183                      .dwattr DW$T$123, DW_AT_byte_size(0x01)
    4184              DW$478  .dwtag  DW_TAG_member, DW_AT_type(*DW$T$19)
    4185                      .dwattr DW$478, DW_AT_name("all"), DW_AT_symbol_name("_all")
    4186                      .dwattr DW$478, DW_AT_data_member_location[DW_OP_plus_uconst 0x0]
    4187                      .dwattr DW$478, DW_AT_accessibility(DW_ACCESS_public)
    4188              DW$479  .dwtag  DW_TAG_member, DW_AT_type(*DW$T$122)
    4189                      .dwattr DW$479, DW_AT_name("bit"), DW_AT_symbol_name("_bit")
    4190                      .dwattr DW$479, DW_AT_data_member_location[DW_OP_plus_uconst 0x0]
    4191                      .dwattr DW$479, DW_AT_accessibility(DW_ACCESS_public)
    4192                      .dwendtag DW$T$123
    4193              
    4194              
    4195              DW$T$125        .dwtag  DW_TAG_union_type
    4196                      .dwattr DW$T$125, DW_AT_name("EVBIMRA_REG")
    4197                      .dwattr DW$T$125, DW_AT_byte_size(0x01)
    4198              DW$480  .dwtag  DW_TAG_member, DW_AT_type(*DW$T$19)
    4199                      .dwattr DW$480, DW_AT_name("all"), DW_AT_symbol_name("_all")
    4200                      .dwattr DW$480, DW_AT_data_member_location[DW_OP_plus_uconst 0x0]
    4201                      .dwattr DW$480, DW_AT_accessibility(DW_ACCESS_public)
    4202              DW$481  .dwtag  DW_TAG_member, DW_AT_type(*DW$T$124)
    4203                      .dwattr DW$481, DW_AT_name("bit"), DW_AT_symbol_name("_bit")
    4204                      .dwattr DW$481, DW_AT_data_member_location[DW_OP_plus_uconst 0x0]
    4205                      .dwattr DW$481, DW_AT_accessibility(DW_ACCESS_public)
    4206                      .dwendtag DW$T$125
    4207              
    4208              
    4209              DW$T$127        .dwtag  DW_TAG_union_type
    4210                      .dwattr DW$T$127, DW_AT_name("EVBIMRB_REG")
    4211                      .dwattr DW$T$127, DW_AT_byte_size(0x01)
    4212              DW$482  .dwtag  DW_TAG_member, DW_AT_type(*DW$T$19)
    4213                      .dwattr DW$482, DW_AT_name("all"), DW_AT_symbol_name("_all")
    4214                      .dwattr DW$482, DW_AT_data_member_location[DW_OP_plus_uconst 0x0]
    4215                      .dwattr DW$482, DW_AT_accessibility(DW_ACCESS_public)
    4216              DW$483  .dwtag  DW_TAG_member, DW_AT_type(*DW$T$126)
    4217                      .dwattr DW$483, DW_AT_name("bit"), DW_AT_symbol_name("_bit")
    4218                      .dwattr DW$483, DW_AT_data_member_location[DW_OP_plus_uconst 0x0]
    4219                      .dwattr DW$483, DW_AT_accessibility(DW_ACCESS_public)
    4220                      .dwendtag DW$T$127
    4221              
    4222              
    4223              DW$T$129        .dwtag  DW_TAG_union_type
    4224                      .dwattr DW$T$129, DW_AT_name("EVBIMRC_REG")
    4225                      .dwattr DW$T$129, DW_AT_byte_size(0x01)
    4226              DW$484  .dwtag  DW_TAG_member, DW_AT_type(*DW$T$19)
    4227                      .dwattr DW$484, DW_AT_name("all"), DW_AT_symbol_name("_all")
    4228                      .dwattr DW$484, DW_AT_data_member_location[DW_OP_plus_uconst 0x0]
    4229                      .dwattr DW$484, DW_AT_accessibility(DW_ACCESS_public)
    4230              DW$485  .dwtag  DW_TAG_member, DW_AT_type(*DW$T$128)
    4231                      .dwattr DW$485, DW_AT_name("bit"), DW_AT_symbol_name("_bit")
    4232                      .dwattr DW$485, DW_AT_data_member_location[DW_OP_plus_uconst 0x0]
    4233                      .dwattr DW$485, DW_AT_accessibility(DW_ACCESS_public)
    4234                      .dwendtag DW$T$129
TMS320C2000 COFF Assembler PC v4.1.3 Mon Dec 03 13:50:31 2012

Tools Copyright (c) 1996-2006 Texas Instruments Incorporated
C:\DOCUME~1\ADMINI~1\LOCALS~1\Temp\TI9922                            PAGE   81

    4235              
    4236              
    4237              DW$T$131        .dwtag  DW_TAG_union_type
    4238                      .dwattr DW$T$131, DW_AT_name("EVBIFRA_REG")
    4239                      .dwattr DW$T$131, DW_AT_byte_size(0x01)
    4240              DW$486  .dwtag  DW_TAG_member, DW_AT_type(*DW$T$19)
    4241                      .dwattr DW$486, DW_AT_name("all"), DW_AT_symbol_name("_all")
    4242                      .dwattr DW$486, DW_AT_data_member_location[DW_OP_plus_uconst 0x0]
    4243                      .dwattr DW$486, DW_AT_accessibility(DW_ACCESS_public)
    4244              DW$487  .dwtag  DW_TAG_member, DW_AT_type(*DW$T$130)
    4245                      .dwattr DW$487, DW_AT_name("bit"), DW_AT_symbol_name("_bit")
    4246                      .dwattr DW$487, DW_AT_data_member_location[DW_OP_plus_uconst 0x0]
    4247                      .dwattr DW$487, DW_AT_accessibility(DW_ACCESS_public)
    4248                      .dwendtag DW$T$131
    4249              
    4250              
    4251              DW$T$133        .dwtag  DW_TAG_union_type
    4252                      .dwattr DW$T$133, DW_AT_name("EVBIFRB_REG")
    4253                      .dwattr DW$T$133, DW_AT_byte_size(0x01)
    4254              DW$488  .dwtag  DW_TAG_member, DW_AT_type(*DW$T$19)
    4255                      .dwattr DW$488, DW_AT_name("all"), DW_AT_symbol_name("_all")
    4256                      .dwattr DW$488, DW_AT_data_member_location[DW_OP_plus_uconst 0x0]
    4257                      .dwattr DW$488, DW_AT_accessibility(DW_ACCESS_public)
    4258              DW$489  .dwtag  DW_TAG_member, DW_AT_type(*DW$T$132)
    4259                      .dwattr DW$489, DW_AT_name("bit"), DW_AT_symbol_name("_bit")
    4260                      .dwattr DW$489, DW_AT_data_member_location[DW_OP_plus_uconst 0x0]
    4261                      .dwattr DW$489, DW_AT_accessibility(DW_ACCESS_public)
    4262                      .dwendtag DW$T$133
    4263              
    4264              
    4265              DW$T$135        .dwtag  DW_TAG_union_type
    4266                      .dwattr DW$T$135, DW_AT_name("EVBIFRC_REG")
    4267                      .dwattr DW$T$135, DW_AT_byte_size(0x01)
    4268              DW$490  .dwtag  DW_TAG_member, DW_AT_type(*DW$T$19)
    4269                      .dwattr DW$490, DW_AT_name("all"), DW_AT_symbol_name("_all")
    4270                      .dwattr DW$490, DW_AT_data_member_location[DW_OP_plus_uconst 0x0]
    4271                      .dwattr DW$490, DW_AT_accessibility(DW_ACCESS_public)
    4272              DW$491  .dwtag  DW_TAG_member, DW_AT_type(*DW$T$134)
    4273                      .dwattr DW$491, DW_AT_name("bit"), DW_AT_symbol_name("_bit")
    4274                      .dwattr DW$491, DW_AT_data_member_location[DW_OP_plus_uconst 0x0]
    4275                      .dwattr DW$491, DW_AT_accessibility(DW_ACCESS_public)
    4276                      .dwendtag DW$T$135
    4277              
    4278              
    4279              DW$T$20 .dwtag  DW_TAG_structure_type
    4280                      .dwattr DW$T$20, DW_AT_name("GPAMUX_BITS")
    4281                      .dwattr DW$T$20, DW_AT_byte_size(0x01)
    4282              DW$492  .dwtag  DW_TAG_member, DW_AT_type(*DW$T$19)
    4283                      .dwattr DW$492, DW_AT_name("PWM1_GPIOA0"), DW_AT_symbol_name("_PWM1_GPIOA0")
    4284                      .dwattr DW$492, DW_AT_bit_offset(0x0f), DW_AT_bit_size(0x01)
    4285                      .dwattr DW$492, DW_AT_data_member_location[DW_OP_plus_uconst 0x0]
    4286                      .dwattr DW$492, DW_AT_accessibility(DW_ACCESS_public)
    4287              DW$493  .dwtag  DW_TAG_member, DW_AT_type(*DW$T$19)
    4288                      .dwattr DW$493, DW_AT_name("PWM2_GPIOA1"), DW_AT_symbol_name("_PWM2_GPIOA1")
    4289                      .dwattr DW$493, DW_AT_bit_offset(0x0e), DW_AT_bit_size(0x01)
TMS320C2000 COFF Assembler PC v4.1.3 Mon Dec 03 13:50:31 2012

Tools Copyright (c) 1996-2006 Texas Instruments Incorporated
C:\DOCUME~1\ADMINI~1\LOCALS~1\Temp\TI9922                            PAGE   82

    4290                      .dwattr DW$493, DW_AT_data_member_location[DW_OP_plus_uconst 0x0]
    4291                      .dwattr DW$493, DW_AT_accessibility(DW_ACCESS_public)
    4292              DW$494  .dwtag  DW_TAG_member, DW_AT_type(*DW$T$19)
    4293                      .dwattr DW$494, DW_AT_name("PWM3_GPIOA2"), DW_AT_symbol_name("_PWM3_GPIOA2")
    4294                      .dwattr DW$494, DW_AT_bit_offset(0x0d), DW_AT_bit_size(0x01)
    4295                      .dwattr DW$494, DW_AT_data_member_location[DW_OP_plus_uconst 0x0]
    4296                      .dwattr DW$494, DW_AT_accessibility(DW_ACCESS_public)
    4297              DW$495  .dwtag  DW_TAG_member, DW_AT_type(*DW$T$19)
    4298                      .dwattr DW$495, DW_AT_name("PWM4_GPIOA3"), DW_AT_symbol_name("_PWM4_GPIOA3")
    4299                      .dwattr DW$495, DW_AT_bit_offset(0x0c), DW_AT_bit_size(0x01)
    4300                      .dwattr DW$495, DW_AT_data_member_location[DW_OP_plus_uconst 0x0]
    4301                      .dwattr DW$495, DW_AT_accessibility(DW_ACCESS_public)
    4302              DW$496  .dwtag  DW_TAG_member, DW_AT_type(*DW$T$19)
    4303                      .dwattr DW$496, DW_AT_name("PWM5_GPIOA4"), DW_AT_symbol_name("_PWM5_GPIOA4")
    4304                      .dwattr DW$496, DW_AT_bit_offset(0x0b), DW_AT_bit_size(0x01)
    4305                      .dwattr DW$496, DW_AT_data_member_location[DW_OP_plus_uconst 0x0]
    4306                      .dwattr DW$496, DW_AT_accessibility(DW_ACCESS_public)
    4307              DW$497  .dwtag  DW_TAG_member, DW_AT_type(*DW$T$19)
    4308                      .dwattr DW$497, DW_AT_name("PWM6_GPIOA5"), DW_AT_symbol_name("_PWM6_GPIOA5")
    4309                      .dwattr DW$497, DW_AT_bit_offset(0x0a), DW_AT_bit_size(0x01)
    4310                      .dwattr DW$497, DW_AT_data_member_location[DW_OP_plus_uconst 0x0]
    4311                      .dwattr DW$497, DW_AT_accessibility(DW_ACCESS_public)
    4312              DW$498  .dwtag  DW_TAG_member, DW_AT_type(*DW$T$19)
    4313                      .dwattr DW$498, DW_AT_name("T1PWM_GPIOA6"), DW_AT_symbol_name("_T1PWM_GPIOA6")
    4314                      .dwattr DW$498, DW_AT_bit_offset(0x09), DW_AT_bit_size(0x01)
    4315                      .dwattr DW$498, DW_AT_data_member_location[DW_OP_plus_uconst 0x0]
    4316                      .dwattr DW$498, DW_AT_accessibility(DW_ACCESS_public)
    4317              DW$499  .dwtag  DW_TAG_member, DW_AT_type(*DW$T$19)
    4318                      .dwattr DW$499, DW_AT_name("T2PWM_GPIOA7"), DW_AT_symbol_name("_T2PWM_GPIOA7")
    4319                      .dwattr DW$499, DW_AT_bit_offset(0x08), DW_AT_bit_size(0x01)
    4320                      .dwattr DW$499, DW_AT_data_member_location[DW_OP_plus_uconst 0x0]
    4321                      .dwattr DW$499, DW_AT_accessibility(DW_ACCESS_public)
    4322              DW$500  .dwtag  DW_TAG_member, DW_AT_type(*DW$T$19)
    4323                      .dwattr DW$500, DW_AT_name("CAP1Q1_GPIOA8"), DW_AT_symbol_name("_CAP1Q1_GPIOA8")
    4324                      .dwattr DW$500, DW_AT_bit_offset(0x07), DW_AT_bit_size(0x01)
    4325                      .dwattr DW$500, DW_AT_data_member_location[DW_OP_plus_uconst 0x0]
    4326                      .dwattr DW$500, DW_AT_accessibility(DW_ACCESS_public)
    4327              DW$501  .dwtag  DW_TAG_member, DW_AT_type(*DW$T$19)
    4328                      .dwattr DW$501, DW_AT_name("CAP2Q2_GPIOA9"), DW_AT_symbol_name("_CAP2Q2_GPIOA9")
    4329                      .dwattr DW$501, DW_AT_bit_offset(0x06), DW_AT_bit_size(0x01)
    4330                      .dwattr DW$501, DW_AT_data_member_location[DW_OP_plus_uconst 0x0]
    4331                      .dwattr DW$501, DW_AT_accessibility(DW_ACCESS_public)
    4332              DW$502  .dwtag  DW_TAG_member, DW_AT_type(*DW$T$19)
    4333                      .dwattr DW$502, DW_AT_name("CAP3QI1_GPIOA10"), DW_AT_symbol_name("_CAP3QI1_GPIOA10")
    4334                      .dwattr DW$502, DW_AT_bit_offset(0x05), DW_AT_bit_size(0x01)
    4335                      .dwattr DW$502, DW_AT_data_member_location[DW_OP_plus_uconst 0x0]
    4336                      .dwattr DW$502, DW_AT_accessibility(DW_ACCESS_public)
    4337              DW$503  .dwtag  DW_TAG_member, DW_AT_type(*DW$T$19)
    4338                      .dwattr DW$503, DW_AT_name("TDIRA_GPIOA11"), DW_AT_symbol_name("_TDIRA_GPIOA11")
    4339                      .dwattr DW$503, DW_AT_bit_offset(0x04), DW_AT_bit_size(0x01)
    4340                      .dwattr DW$503, DW_AT_data_member_location[DW_OP_plus_uconst 0x0]
    4341                      .dwattr DW$503, DW_AT_accessibility(DW_ACCESS_public)
    4342              DW$504  .dwtag  DW_TAG_member, DW_AT_type(*DW$T$19)
    4343                      .dwattr DW$504, DW_AT_name("TCLKINA_GPIOA12"), DW_AT_symbol_name("_TCLKINA_GPIOA12")
    4344                      .dwattr DW$504, DW_AT_bit_offset(0x03), DW_AT_bit_size(0x01)
TMS320C2000 COFF Assembler PC v4.1.3 Mon Dec 03 13:50:31 2012

Tools Copyright (c) 1996-2006 Texas Instruments Incorporated
C:\DOCUME~1\ADMINI~1\LOCALS~1\Temp\TI9922                            PAGE   83

    4345                      .dwattr DW$504, DW_AT_data_member_location[DW_OP_plus_uconst 0x0]
    4346                      .dwattr DW$504, DW_AT_accessibility(DW_ACCESS_public)
    4347              DW$505  .dwtag  DW_TAG_member, DW_AT_type(*DW$T$19)
    4348                      .dwattr DW$505, DW_AT_name("C1TRIP_GPIOA13"), DW_AT_symbol_name("_C1TRIP_GPIOA13")
    4349                      .dwattr DW$505, DW_AT_bit_offset(0x02), DW_AT_bit_size(0x01)
    4350                      .dwattr DW$505, DW_AT_data_member_location[DW_OP_plus_uconst 0x0]
    4351                      .dwattr DW$505, DW_AT_accessibility(DW_ACCESS_public)
    4352              DW$506  .dwtag  DW_TAG_member, DW_AT_type(*DW$T$19)
    4353                      .dwattr DW$506, DW_AT_name("C2TRIP_GPIOA14"), DW_AT_symbol_name("_C2TRIP_GPIOA14")
    4354                      .dwattr DW$506, DW_AT_bit_offset(0x01), DW_AT_bit_size(0x01)
    4355                      .dwattr DW$506, DW_AT_data_member_location[DW_OP_plus_uconst 0x0]
    4356                      .dwattr DW$506, DW_AT_accessibility(DW_ACCESS_public)
    4357              DW$507  .dwtag  DW_TAG_member, DW_AT_type(*DW$T$19)
    4358                      .dwattr DW$507, DW_AT_name("C3TRIP_GPIOA15"), DW_AT_symbol_name("_C3TRIP_GPIOA15")
    4359                      .dwattr DW$507, DW_AT_bit_offset(0x00), DW_AT_bit_size(0x01)
    4360                      .dwattr DW$507, DW_AT_data_member_location[DW_OP_plus_uconst 0x0]
    4361                      .dwattr DW$507, DW_AT_accessibility(DW_ACCESS_public)
    4362                      .dwendtag DW$T$20
    4363              
    4364              
    4365              DW$T$22 .dwtag  DW_TAG_structure_type
    4366                      .dwattr DW$T$22, DW_AT_name("GPADIR_BITS")
    4367                      .dwattr DW$T$22, DW_AT_byte_size(0x01)
    4368              DW$508  .dwtag  DW_TAG_member, DW_AT_type(*DW$T$19)
    4369                      .dwattr DW$508, DW_AT_name("GPIOA0"), DW_AT_symbol_name("_GPIOA0")
    4370                      .dwattr DW$508, DW_AT_bit_offset(0x0f), DW_AT_bit_size(0x01)
    4371                      .dwattr DW$508, DW_AT_data_member_location[DW_OP_plus_uconst 0x0]
    4372                      .dwattr DW$508, DW_AT_accessibility(DW_ACCESS_public)
    4373              DW$509  .dwtag  DW_TAG_member, DW_AT_type(*DW$T$19)
    4374                      .dwattr DW$509, DW_AT_name("GPIOA1"), DW_AT_symbol_name("_GPIOA1")
    4375                      .dwattr DW$509, DW_AT_bit_offset(0x0e), DW_AT_bit_size(0x01)
    4376                      .dwattr DW$509, DW_AT_data_member_location[DW_OP_plus_uconst 0x0]
    4377                      .dwattr DW$509, DW_AT_accessibility(DW_ACCESS_public)
    4378              DW$510  .dwtag  DW_TAG_member, DW_AT_type(*DW$T$19)
    4379                      .dwattr DW$510, DW_AT_name("GPIOA2"), DW_AT_symbol_name("_GPIOA2")
    4380                      .dwattr DW$510, DW_AT_bit_offset(0x0d), DW_AT_bit_size(0x01)
    4381                      .dwattr DW$510, DW_AT_data_member_location[DW_OP_plus_uconst 0x0]
    4382                      .dwattr DW$510, DW_AT_accessibility(DW_ACCESS_public)
    4383              DW$511  .dwtag  DW_TAG_member, DW_AT_type(*DW$T$19)
    4384                      .dwattr DW$511, DW_AT_name("GPIOA3"), DW_AT_symbol_name("_GPIOA3")
    4385                      .dwattr DW$511, DW_AT_bit_offset(0x0c), DW_AT_bit_size(0x01)
    4386                      .dwattr DW$511, DW_AT_data_member_location[DW_OP_plus_uconst 0x0]
    4387                      .dwattr DW$511, DW_AT_accessibility(DW_ACCESS_public)
    4388              DW$512  .dwtag  DW_TAG_member, DW_AT_type(*DW$T$19)
    4389                      .dwattr DW$512, DW_AT_name("GPIOA4"), DW_AT_symbol_name("_GPIOA4")
    4390                      .dwattr DW$512, DW_AT_bit_offset(0x0b), DW_AT_bit_size(0x01)
    4391                      .dwattr DW$512, DW_AT_data_member_location[DW_OP_plus_uconst 0x0]
    4392                      .dwattr DW$512, DW_AT_accessibility(DW_ACCESS_public)
    4393              DW$513  .dwtag  DW_TAG_member, DW_AT_type(*DW$T$19)
    4394                      .dwattr DW$513, DW_AT_name("GPIOA5"), DW_AT_symbol_name("_GPIOA5")
    4395                      .dwattr DW$513, DW_AT_bit_offset(0x0a), DW_AT_bit_size(0x01)
    4396                      .dwattr DW$513, DW_AT_data_member_location[DW_OP_plus_uconst 0x0]
    4397                      .dwattr DW$513, DW_AT_accessibility(DW_ACCESS_public)
    4398              DW$514  .dwtag  DW_TAG_member, DW_AT_type(*DW$T$19)
    4399                      .dwattr DW$514, DW_AT_name("GPIOA6"), DW_AT_symbol_name("_GPIOA6")
TMS320C2000 COFF Assembler PC v4.1.3 Mon Dec 03 13:50:31 2012

Tools Copyright (c) 1996-2006 Texas Instruments Incorporated
C:\DOCUME~1\ADMINI~1\LOCALS~1\Temp\TI9922                            PAGE   84

    4400                      .dwattr DW$514, DW_AT_bit_offset(0x09), DW_AT_bit_size(0x01)
    4401                      .dwattr DW$514, DW_AT_data_member_location[DW_OP_plus_uconst 0x0]
    4402                      .dwattr DW$514, DW_AT_accessibility(DW_ACCESS_public)
    4403              DW$515  .dwtag  DW_TAG_member, DW_AT_type(*DW$T$19)
    4404                      .dwattr DW$515, DW_AT_name("GPIOA7"), DW_AT_symbol_name("_GPIOA7")
    4405                      .dwattr DW$515, DW_AT_bit_offset(0x08), DW_AT_bit_size(0x01)
    4406                      .dwattr DW$515, DW_AT_data_member_location[DW_OP_plus_uconst 0x0]
    4407                      .dwattr DW$515, DW_AT_accessibility(DW_ACCESS_public)
    4408              DW$516  .dwtag  DW_TAG_member, DW_AT_type(*DW$T$19)
    4409                      .dwattr DW$516, DW_AT_name("GPIOA8"), DW_AT_symbol_name("_GPIOA8")
    4410                      .dwattr DW$516, DW_AT_bit_offset(0x07), DW_AT_bit_size(0x01)
    4411                      .dwattr DW$516, DW_AT_data_member_location[DW_OP_plus_uconst 0x0]
    4412                      .dwattr DW$516, DW_AT_accessibility(DW_ACCESS_public)
    4413              DW$517  .dwtag  DW_TAG_member, DW_AT_type(*DW$T$19)
    4414                      .dwattr DW$517, DW_AT_name("GPIOA9"), DW_AT_symbol_name("_GPIOA9")
    4415                      .dwattr DW$517, DW_AT_bit_offset(0x06), DW_AT_bit_size(0x01)
    4416                      .dwattr DW$517, DW_AT_data_member_location[DW_OP_plus_uconst 0x0]
    4417                      .dwattr DW$517, DW_AT_accessibility(DW_ACCESS_public)
    4418              DW$518  .dwtag  DW_TAG_member, DW_AT_type(*DW$T$19)
    4419                      .dwattr DW$518, DW_AT_name("GPIOA10"), DW_AT_symbol_name("_GPIOA10")
    4420                      .dwattr DW$518, DW_AT_bit_offset(0x05), DW_AT_bit_size(0x01)
    4421                      .dwattr DW$518, DW_AT_data_member_location[DW_OP_plus_uconst 0x0]
    4422                      .dwattr DW$518, DW_AT_accessibility(DW_ACCESS_public)
    4423              DW$519  .dwtag  DW_TAG_member, DW_AT_type(*DW$T$19)
    4424                      .dwattr DW$519, DW_AT_name("GPIOA11"), DW_AT_symbol_name("_GPIOA11")
    4425                      .dwattr DW$519, DW_AT_bit_offset(0x04), DW_AT_bit_size(0x01)
    4426                      .dwattr DW$519, DW_AT_data_member_location[DW_OP_plus_uconst 0x0]
    4427                      .dwattr DW$519, DW_AT_accessibility(DW_ACCESS_public)
    4428              DW$520  .dwtag  DW_TAG_member, DW_AT_type(*DW$T$19)
    4429                      .dwattr DW$520, DW_AT_name("GPIOA12"), DW_AT_symbol_name("_GPIOA12")
    4430                      .dwattr DW$520, DW_AT_bit_offset(0x03), DW_AT_bit_size(0x01)
    4431                      .dwattr DW$520, DW_AT_data_member_location[DW_OP_plus_uconst 0x0]
    4432                      .dwattr DW$520, DW_AT_accessibility(DW_ACCESS_public)
    4433              DW$521  .dwtag  DW_TAG_member, DW_AT_type(*DW$T$19)
    4434                      .dwattr DW$521, DW_AT_name("GPIOA13"), DW_AT_symbol_name("_GPIOA13")
    4435                      .dwattr DW$521, DW_AT_bit_offset(0x02), DW_AT_bit_size(0x01)
    4436                      .dwattr DW$521, DW_AT_data_member_location[DW_OP_plus_uconst 0x0]
    4437                      .dwattr DW$521, DW_AT_accessibility(DW_ACCESS_public)
    4438              DW$522  .dwtag  DW_TAG_member, DW_AT_type(*DW$T$19)
    4439                      .dwattr DW$522, DW_AT_name("GPIOA14"), DW_AT_symbol_name("_GPIOA14")
    4440                      .dwattr DW$522, DW_AT_bit_offset(0x01), DW_AT_bit_size(0x01)
    4441                      .dwattr DW$522, DW_AT_data_member_location[DW_OP_plus_uconst 0x0]
    4442                      .dwattr DW$522, DW_AT_accessibility(DW_ACCESS_public)
    4443              DW$523  .dwtag  DW_TAG_member, DW_AT_type(*DW$T$19)
    4444                      .dwattr DW$523, DW_AT_name("GPIOA15"), DW_AT_symbol_name("_GPIOA15")
    4445                      .dwattr DW$523, DW_AT_bit_offset(0x00), DW_AT_bit_size(0x01)
    4446                      .dwattr DW$523, DW_AT_data_member_location[DW_OP_plus_uconst 0x0]
    4447                      .dwattr DW$523, DW_AT_accessibility(DW_ACCESS_public)
    4448                      .dwendtag DW$T$22
    4449              
    4450              
    4451              DW$T$24 .dwtag  DW_TAG_structure_type
    4452                      .dwattr DW$T$24, DW_AT_name("GPAQUAL_BITS")
    4453                      .dwattr DW$T$24, DW_AT_byte_size(0x01)
    4454              DW$524  .dwtag  DW_TAG_member, DW_AT_type(*DW$T$19)
TMS320C2000 COFF Assembler PC v4.1.3 Mon Dec 03 13:50:31 2012

Tools Copyright (c) 1996-2006 Texas Instruments Incorporated
C:\DOCUME~1\ADMINI~1\LOCALS~1\Temp\TI9922                            PAGE   85

    4455                      .dwattr DW$524, DW_AT_name("QUALPRD"), DW_AT_symbol_name("_QUALPRD")
    4456                      .dwattr DW$524, DW_AT_bit_offset(0x08), DW_AT_bit_size(0x08)
    4457                      .dwattr DW$524, DW_AT_data_member_location[DW_OP_plus_uconst 0x0]
    4458                      .dwattr DW$524, DW_AT_accessibility(DW_ACCESS_public)
    4459              DW$525  .dwtag  DW_TAG_member, DW_AT_type(*DW$T$19)
    4460                      .dwattr DW$525, DW_AT_name("rsvd1"), DW_AT_symbol_name("_rsvd1")
    4461                      .dwattr DW$525, DW_AT_bit_offset(0x00), DW_AT_bit_size(0x08)
    4462                      .dwattr DW$525, DW_AT_data_member_location[DW_OP_plus_uconst 0x0]
    4463                      .dwattr DW$525, DW_AT_accessibility(DW_ACCESS_public)
    4464                      .dwendtag DW$T$24
    4465              
    4466              
    4467              DW$T$26 .dwtag  DW_TAG_structure_type
    4468                      .dwattr DW$T$26, DW_AT_name("GPBMUX_BITS")
    4469                      .dwattr DW$T$26, DW_AT_byte_size(0x01)
    4470              DW$526  .dwtag  DW_TAG_member, DW_AT_type(*DW$T$19)
    4471                      .dwattr DW$526, DW_AT_name("PWM7_GPIOB0"), DW_AT_symbol_name("_PWM7_GPIOB0")
    4472                      .dwattr DW$526, DW_AT_bit_offset(0x0f), DW_AT_bit_size(0x01)
    4473                      .dwattr DW$526, DW_AT_data_member_location[DW_OP_plus_uconst 0x0]
    4474                      .dwattr DW$526, DW_AT_accessibility(DW_ACCESS_public)
    4475              DW$527  .dwtag  DW_TAG_member, DW_AT_type(*DW$T$19)
    4476                      .dwattr DW$527, DW_AT_name("PWM8_GPIOB1"), DW_AT_symbol_name("_PWM8_GPIOB1")
    4477                      .dwattr DW$527, DW_AT_bit_offset(0x0e), DW_AT_bit_size(0x01)
    4478                      .dwattr DW$527, DW_AT_data_member_location[DW_OP_plus_uconst 0x0]
    4479                      .dwattr DW$527, DW_AT_accessibility(DW_ACCESS_public)
    4480              DW$528  .dwtag  DW_TAG_member, DW_AT_type(*DW$T$19)
    4481                      .dwattr DW$528, DW_AT_name("PWM9_GPIOB2"), DW_AT_symbol_name("_PWM9_GPIOB2")
    4482                      .dwattr DW$528, DW_AT_bit_offset(0x0d), DW_AT_bit_size(0x01)
    4483                      .dwattr DW$528, DW_AT_data_member_location[DW_OP_plus_uconst 0x0]
    4484                      .dwattr DW$528, DW_AT_accessibility(DW_ACCESS_public)
    4485              DW$529  .dwtag  DW_TAG_member, DW_AT_type(*DW$T$19)
    4486                      .dwattr DW$529, DW_AT_name("PWM10_GPIOB3"), DW_AT_symbol_name("_PWM10_GPIOB3")
    4487                      .dwattr DW$529, DW_AT_bit_offset(0x0c), DW_AT_bit_size(0x01)
    4488                      .dwattr DW$529, DW_AT_data_member_location[DW_OP_plus_uconst 0x0]
    4489                      .dwattr DW$529, DW_AT_accessibility(DW_ACCESS_public)
    4490              DW$530  .dwtag  DW_TAG_member, DW_AT_type(*DW$T$19)
    4491                      .dwattr DW$530, DW_AT_name("PWM11_GPIOB4"), DW_AT_symbol_name("_PWM11_GPIOB4")
    4492                      .dwattr DW$530, DW_AT_bit_offset(0x0b), DW_AT_bit_size(0x01)
    4493                      .dwattr DW$530, DW_AT_data_member_location[DW_OP_plus_uconst 0x0]
    4494                      .dwattr DW$530, DW_AT_accessibility(DW_ACCESS_public)
    4495              DW$531  .dwtag  DW_TAG_member, DW_AT_type(*DW$T$19)
    4496                      .dwattr DW$531, DW_AT_name("PWM12_GPIOB5"), DW_AT_symbol_name("_PWM12_GPIOB5")
    4497                      .dwattr DW$531, DW_AT_bit_offset(0x0a), DW_AT_bit_size(0x01)
    4498                      .dwattr DW$531, DW_AT_data_member_location[DW_OP_plus_uconst 0x0]
    4499                      .dwattr DW$531, DW_AT_accessibility(DW_ACCESS_public)
    4500              DW$532  .dwtag  DW_TAG_member, DW_AT_type(*DW$T$19)
    4501                      .dwattr DW$532, DW_AT_name("T3PWM_GPIOB6"), DW_AT_symbol_name("_T3PWM_GPIOB6")
    4502                      .dwattr DW$532, DW_AT_bit_offset(0x09), DW_AT_bit_size(0x01)
    4503                      .dwattr DW$532, DW_AT_data_member_location[DW_OP_plus_uconst 0x0]
    4504                      .dwattr DW$532, DW_AT_accessibility(DW_ACCESS_public)
    4505              DW$533  .dwtag  DW_TAG_member, DW_AT_type(*DW$T$19)
    4506                      .dwattr DW$533, DW_AT_name("T4PWM_GPIOB7"), DW_AT_symbol_name("_T4PWM_GPIOB7")
    4507                      .dwattr DW$533, DW_AT_bit_offset(0x08), DW_AT_bit_size(0x01)
    4508                      .dwattr DW$533, DW_AT_data_member_location[DW_OP_plus_uconst 0x0]
    4509                      .dwattr DW$533, DW_AT_accessibility(DW_ACCESS_public)
TMS320C2000 COFF Assembler PC v4.1.3 Mon Dec 03 13:50:31 2012

Tools Copyright (c) 1996-2006 Texas Instruments Incorporated
C:\DOCUME~1\ADMINI~1\LOCALS~1\Temp\TI9922                            PAGE   86

    4510              DW$534  .dwtag  DW_TAG_member, DW_AT_type(*DW$T$19)
    4511                      .dwattr DW$534, DW_AT_name("CAP4Q1_GPIOB8"), DW_AT_symbol_name("_CAP4Q1_GPIOB8")
    4512                      .dwattr DW$534, DW_AT_bit_offset(0x07), DW_AT_bit_size(0x01)
    4513                      .dwattr DW$534, DW_AT_data_member_location[DW_OP_plus_uconst 0x0]
    4514                      .dwattr DW$534, DW_AT_accessibility(DW_ACCESS_public)
    4515              DW$535  .dwtag  DW_TAG_member, DW_AT_type(*DW$T$19)
    4516                      .dwattr DW$535, DW_AT_name("CAP5Q2_GPIOB9"), DW_AT_symbol_name("_CAP5Q2_GPIOB9")
    4517                      .dwattr DW$535, DW_AT_bit_offset(0x06), DW_AT_bit_size(0x01)
    4518                      .dwattr DW$535, DW_AT_data_member_location[DW_OP_plus_uconst 0x0]
    4519                      .dwattr DW$535, DW_AT_accessibility(DW_ACCESS_public)
    4520              DW$536  .dwtag  DW_TAG_member, DW_AT_type(*DW$T$19)
    4521                      .dwattr DW$536, DW_AT_name("CAP6QI2_GPIOB10"), DW_AT_symbol_name("_CAP6QI2_GPIOB10")
    4522                      .dwattr DW$536, DW_AT_bit_offset(0x05), DW_AT_bit_size(0x01)
    4523                      .dwattr DW$536, DW_AT_data_member_location[DW_OP_plus_uconst 0x0]
    4524                      .dwattr DW$536, DW_AT_accessibility(DW_ACCESS_public)
    4525              DW$537  .dwtag  DW_TAG_member, DW_AT_type(*DW$T$19)
    4526                      .dwattr DW$537, DW_AT_name("TDIRB_GPIOB11"), DW_AT_symbol_name("_TDIRB_GPIOB11")
    4527                      .dwattr DW$537, DW_AT_bit_offset(0x04), DW_AT_bit_size(0x01)
    4528                      .dwattr DW$537, DW_AT_data_member_location[DW_OP_plus_uconst 0x0]
    4529                      .dwattr DW$537, DW_AT_accessibility(DW_ACCESS_public)
    4530              DW$538  .dwtag  DW_TAG_member, DW_AT_type(*DW$T$19)
    4531                      .dwattr DW$538, DW_AT_name("TCLKINB_GPIOB12"), DW_AT_symbol_name("_TCLKINB_GPIOB12")
    4532                      .dwattr DW$538, DW_AT_bit_offset(0x03), DW_AT_bit_size(0x01)
    4533                      .dwattr DW$538, DW_AT_data_member_location[DW_OP_plus_uconst 0x0]
    4534                      .dwattr DW$538, DW_AT_accessibility(DW_ACCESS_public)
    4535              DW$539  .dwtag  DW_TAG_member, DW_AT_type(*DW$T$19)
    4536                      .dwattr DW$539, DW_AT_name("C4TRIP_GPIOB13"), DW_AT_symbol_name("_C4TRIP_GPIOB13")
    4537                      .dwattr DW$539, DW_AT_bit_offset(0x02), DW_AT_bit_size(0x01)
    4538                      .dwattr DW$539, DW_AT_data_member_location[DW_OP_plus_uconst 0x0]
    4539                      .dwattr DW$539, DW_AT_accessibility(DW_ACCESS_public)
    4540              DW$540  .dwtag  DW_TAG_member, DW_AT_type(*DW$T$19)
    4541                      .dwattr DW$540, DW_AT_name("C5TRIP_GPIOB14"), DW_AT_symbol_name("_C5TRIP_GPIOB14")
    4542                      .dwattr DW$540, DW_AT_bit_offset(0x01), DW_AT_bit_size(0x01)
    4543                      .dwattr DW$540, DW_AT_data_member_location[DW_OP_plus_uconst 0x0]
    4544                      .dwattr DW$540, DW_AT_accessibility(DW_ACCESS_public)
    4545              DW$541  .dwtag  DW_TAG_member, DW_AT_type(*DW$T$19)
    4546                      .dwattr DW$541, DW_AT_name("C6TRIP_GPIOB15"), DW_AT_symbol_name("_C6TRIP_GPIOB15")
    4547                      .dwattr DW$541, DW_AT_bit_offset(0x00), DW_AT_bit_size(0x01)
    4548                      .dwattr DW$541, DW_AT_data_member_location[DW_OP_plus_uconst 0x0]
    4549                      .dwattr DW$541, DW_AT_accessibility(DW_ACCESS_public)
    4550                      .dwendtag DW$T$26
    4551              
    4552              
    4553              DW$T$28 .dwtag  DW_TAG_structure_type
    4554                      .dwattr DW$T$28, DW_AT_name("GPBDIR_BITS")
    4555                      .dwattr DW$T$28, DW_AT_byte_size(0x01)
    4556              DW$542  .dwtag  DW_TAG_member, DW_AT_type(*DW$T$19)
    4557                      .dwattr DW$542, DW_AT_name("GPIOB0"), DW_AT_symbol_name("_GPIOB0")
    4558                      .dwattr DW$542, DW_AT_bit_offset(0x0f), DW_AT_bit_size(0x01)
    4559                      .dwattr DW$542, DW_AT_data_member_location[DW_OP_plus_uconst 0x0]
    4560                      .dwattr DW$542, DW_AT_accessibility(DW_ACCESS_public)
    4561              DW$543  .dwtag  DW_TAG_member, DW_AT_type(*DW$T$19)
    4562                      .dwattr DW$543, DW_AT_name("GPIOB1"), DW_AT_symbol_name("_GPIOB1")
    4563                      .dwattr DW$543, DW_AT_bit_offset(0x0e), DW_AT_bit_size(0x01)
    4564                      .dwattr DW$543, DW_AT_data_member_location[DW_OP_plus_uconst 0x0]
TMS320C2000 COFF Assembler PC v4.1.3 Mon Dec 03 13:50:31 2012

Tools Copyright (c) 1996-2006 Texas Instruments Incorporated
C:\DOCUME~1\ADMINI~1\LOCALS~1\Temp\TI9922                            PAGE   87

    4565                      .dwattr DW$543, DW_AT_accessibility(DW_ACCESS_public)
    4566              DW$544  .dwtag  DW_TAG_member, DW_AT_type(*DW$T$19)
    4567                      .dwattr DW$544, DW_AT_name("GPIOB2"), DW_AT_symbol_name("_GPIOB2")
    4568                      .dwattr DW$544, DW_AT_bit_offset(0x0d), DW_AT_bit_size(0x01)
    4569                      .dwattr DW$544, DW_AT_data_member_location[DW_OP_plus_uconst 0x0]
    4570                      .dwattr DW$544, DW_AT_accessibility(DW_ACCESS_public)
    4571              DW$545  .dwtag  DW_TAG_member, DW_AT_type(*DW$T$19)
    4572                      .dwattr DW$545, DW_AT_name("GPIOB3"), DW_AT_symbol_name("_GPIOB3")
    4573                      .dwattr DW$545, DW_AT_bit_offset(0x0c), DW_AT_bit_size(0x01)
    4574                      .dwattr DW$545, DW_AT_data_member_location[DW_OP_plus_uconst 0x0]
    4575                      .dwattr DW$545, DW_AT_accessibility(DW_ACCESS_public)
    4576              DW$546  .dwtag  DW_TAG_member, DW_AT_type(*DW$T$19)
    4577                      .dwattr DW$546, DW_AT_name("GPIOB4"), DW_AT_symbol_name("_GPIOB4")
    4578                      .dwattr DW$546, DW_AT_bit_offset(0x0b), DW_AT_bit_size(0x01)
    4579                      .dwattr DW$546, DW_AT_data_member_location[DW_OP_plus_uconst 0x0]
    4580                      .dwattr DW$546, DW_AT_accessibility(DW_ACCESS_public)
    4581              DW$547  .dwtag  DW_TAG_member, DW_AT_type(*DW$T$19)
    4582                      .dwattr DW$547, DW_AT_name("GPIOB5"), DW_AT_symbol_name("_GPIOB5")
    4583                      .dwattr DW$547, DW_AT_bit_offset(0x0a), DW_AT_bit_size(0x01)
    4584                      .dwattr DW$547, DW_AT_data_member_location[DW_OP_plus_uconst 0x0]
    4585                      .dwattr DW$547, DW_AT_accessibility(DW_ACCESS_public)
    4586              DW$548  .dwtag  DW_TAG_member, DW_AT_type(*DW$T$19)
    4587                      .dwattr DW$548, DW_AT_name("GPIOB6"), DW_AT_symbol_name("_GPIOB6")
    4588                      .dwattr DW$548, DW_AT_bit_offset(0x09), DW_AT_bit_size(0x01)
    4589                      .dwattr DW$548, DW_AT_data_member_location[DW_OP_plus_uconst 0x0]
    4590                      .dwattr DW$548, DW_AT_accessibility(DW_ACCESS_public)
    4591              DW$549  .dwtag  DW_TAG_member, DW_AT_type(*DW$T$19)
    4592                      .dwattr DW$549, DW_AT_name("GPIOB7"), DW_AT_symbol_name("_GPIOB7")
    4593                      .dwattr DW$549, DW_AT_bit_offset(0x08), DW_AT_bit_size(0x01)
    4594                      .dwattr DW$549, DW_AT_data_member_location[DW_OP_plus_uconst 0x0]
    4595                      .dwattr DW$549, DW_AT_accessibility(DW_ACCESS_public)
    4596              DW$550  .dwtag  DW_TAG_member, DW_AT_type(*DW$T$19)
    4597                      .dwattr DW$550, DW_AT_name("GPIOB8"), DW_AT_symbol_name("_GPIOB8")
    4598                      .dwattr DW$550, DW_AT_bit_offset(0x07), DW_AT_bit_size(0x01)
    4599                      .dwattr DW$550, DW_AT_data_member_location[DW_OP_plus_uconst 0x0]
    4600                      .dwattr DW$550, DW_AT_accessibility(DW_ACCESS_public)
    4601              DW$551  .dwtag  DW_TAG_member, DW_AT_type(*DW$T$19)
    4602                      .dwattr DW$551, DW_AT_name("GPIOB9"), DW_AT_symbol_name("_GPIOB9")
    4603                      .dwattr DW$551, DW_AT_bit_offset(0x06), DW_AT_bit_size(0x01)
    4604                      .dwattr DW$551, DW_AT_data_member_location[DW_OP_plus_uconst 0x0]
    4605                      .dwattr DW$551, DW_AT_accessibility(DW_ACCESS_public)
    4606              DW$552  .dwtag  DW_TAG_member, DW_AT_type(*DW$T$19)
    4607                      .dwattr DW$552, DW_AT_name("GPIOB10"), DW_AT_symbol_name("_GPIOB10")
    4608                      .dwattr DW$552, DW_AT_bit_offset(0x05), DW_AT_bit_size(0x01)
    4609                      .dwattr DW$552, DW_AT_data_member_location[DW_OP_plus_uconst 0x0]
    4610                      .dwattr DW$552, DW_AT_accessibility(DW_ACCESS_public)
    4611              DW$553  .dwtag  DW_TAG_member, DW_AT_type(*DW$T$19)
    4612                      .dwattr DW$553, DW_AT_name("GPIOB11"), DW_AT_symbol_name("_GPIOB11")
    4613                      .dwattr DW$553, DW_AT_bit_offset(0x04), DW_AT_bit_size(0x01)
    4614                      .dwattr DW$553, DW_AT_data_member_location[DW_OP_plus_uconst 0x0]
    4615                      .dwattr DW$553, DW_AT_accessibility(DW_ACCESS_public)
    4616              DW$554  .dwtag  DW_TAG_member, DW_AT_type(*DW$T$19)
    4617                      .dwattr DW$554, DW_AT_name("GPIOB12"), DW_AT_symbol_name("_GPIOB12")
    4618                      .dwattr DW$554, DW_AT_bit_offset(0x03), DW_AT_bit_size(0x01)
    4619                      .dwattr DW$554, DW_AT_data_member_location[DW_OP_plus_uconst 0x0]
TMS320C2000 COFF Assembler PC v4.1.3 Mon Dec 03 13:50:31 2012

Tools Copyright (c) 1996-2006 Texas Instruments Incorporated
C:\DOCUME~1\ADMINI~1\LOCALS~1\Temp\TI9922                            PAGE   88

    4620                      .dwattr DW$554, DW_AT_accessibility(DW_ACCESS_public)
    4621              DW$555  .dwtag  DW_TAG_member, DW_AT_type(*DW$T$19)
    4622                      .dwattr DW$555, DW_AT_name("GPIOB13"), DW_AT_symbol_name("_GPIOB13")
    4623                      .dwattr DW$555, DW_AT_bit_offset(0x02), DW_AT_bit_size(0x01)
    4624                      .dwattr DW$555, DW_AT_data_member_location[DW_OP_plus_uconst 0x0]
    4625                      .dwattr DW$555, DW_AT_accessibility(DW_ACCESS_public)
    4626              DW$556  .dwtag  DW_TAG_member, DW_AT_type(*DW$T$19)
    4627                      .dwattr DW$556, DW_AT_name("GPIOB14"), DW_AT_symbol_name("_GPIOB14")
    4628                      .dwattr DW$556, DW_AT_bit_offset(0x01), DW_AT_bit_size(0x01)
    4629                      .dwattr DW$556, DW_AT_data_member_location[DW_OP_plus_uconst 0x0]
    4630                      .dwattr DW$556, DW_AT_accessibility(DW_ACCESS_public)
    4631              DW$557  .dwtag  DW_TAG_member, DW_AT_type(*DW$T$19)
    4632                      .dwattr DW$557, DW_AT_name("GPIOB15"), DW_AT_symbol_name("_GPIOB15")
    4633                      .dwattr DW$557, DW_AT_bit_offset(0x00), DW_AT_bit_size(0x01)
    4634                      .dwattr DW$557, DW_AT_data_member_location[DW_OP_plus_uconst 0x0]
    4635                      .dwattr DW$557, DW_AT_accessibility(DW_ACCESS_public)
    4636                      .dwendtag DW$T$28
    4637              
    4638              
    4639              DW$T$30 .dwtag  DW_TAG_structure_type
    4640                      .dwattr DW$T$30, DW_AT_name("GPBQUAL_BITS")
    4641                      .dwattr DW$T$30, DW_AT_byte_size(0x01)
    4642              DW$558  .dwtag  DW_TAG_member, DW_AT_type(*DW$T$19)
    4643                      .dwattr DW$558, DW_AT_name("QUALPRD"), DW_AT_symbol_name("_QUALPRD")
    4644                      .dwattr DW$558, DW_AT_bit_offset(0x08), DW_AT_bit_size(0x08)
    4645                      .dwattr DW$558, DW_AT_data_member_location[DW_OP_plus_uconst 0x0]
    4646                      .dwattr DW$558, DW_AT_accessibility(DW_ACCESS_public)
    4647              DW$559  .dwtag  DW_TAG_member, DW_AT_type(*DW$T$19)
    4648                      .dwattr DW$559, DW_AT_name("rsvd1"), DW_AT_symbol_name("_rsvd1")
    4649                      .dwattr DW$559, DW_AT_bit_offset(0x00), DW_AT_bit_size(0x08)
    4650                      .dwattr DW$559, DW_AT_data_member_location[DW_OP_plus_uconst 0x0]
    4651                      .dwattr DW$559, DW_AT_accessibility(DW_ACCESS_public)
    4652                      .dwendtag DW$T$30
    4653              
    4654              
    4655              DW$T$32 .dwtag  DW_TAG_structure_type
    4656                      .dwattr DW$T$32, DW_AT_name("GPDMUX_BITS")
    4657                      .dwattr DW$T$32, DW_AT_byte_size(0x01)
    4658              DW$560  .dwtag  DW_TAG_member, DW_AT_type(*DW$T$19)
    4659                      .dwattr DW$560, DW_AT_name("T1CTRIP_PDPA_GPIOD0"), DW_AT_symbol_name("_T1CTRIP_PDPA_GPIOD0")
    4660                      .dwattr DW$560, DW_AT_bit_offset(0x0f), DW_AT_bit_size(0x01)
    4661                      .dwattr DW$560, DW_AT_data_member_location[DW_OP_plus_uconst 0x0]
    4662                      .dwattr DW$560, DW_AT_accessibility(DW_ACCESS_public)
    4663              DW$561  .dwtag  DW_TAG_member, DW_AT_type(*DW$T$19)
    4664                      .dwattr DW$561, DW_AT_name("T2CTRIP_SOCA_GPIOD1"), DW_AT_symbol_name("_T2CTRIP_SOCA_GPIOD1")
    4665                      .dwattr DW$561, DW_AT_bit_offset(0x0e), DW_AT_bit_size(0x01)
    4666                      .dwattr DW$561, DW_AT_data_member_location[DW_OP_plus_uconst 0x0]
    4667                      .dwattr DW$561, DW_AT_accessibility(DW_ACCESS_public)
    4668              DW$562  .dwtag  DW_TAG_member, DW_AT_type(*DW$T$19)
    4669                      .dwattr DW$562, DW_AT_name("rsvd1"), DW_AT_symbol_name("_rsvd1")
    4670                      .dwattr DW$562, DW_AT_bit_offset(0x0b), DW_AT_bit_size(0x03)
    4671                      .dwattr DW$562, DW_AT_data_member_location[DW_OP_plus_uconst 0x0]
    4672                      .dwattr DW$562, DW_AT_accessibility(DW_ACCESS_public)
    4673              DW$563  .dwtag  DW_TAG_member, DW_AT_type(*DW$T$19)
    4674                      .dwattr DW$563, DW_AT_name("T3CTRIP_PDPB_GPIOD5"), DW_AT_symbol_name("_T3CTRIP_PDPB_GPIOD5")
TMS320C2000 COFF Assembler PC v4.1.3 Mon Dec 03 13:50:31 2012

Tools Copyright (c) 1996-2006 Texas Instruments Incorporated
C:\DOCUME~1\ADMINI~1\LOCALS~1\Temp\TI9922                            PAGE   89

    4675                      .dwattr DW$563, DW_AT_bit_offset(0x0a), DW_AT_bit_size(0x01)
    4676                      .dwattr DW$563, DW_AT_data_member_location[DW_OP_plus_uconst 0x0]
    4677                      .dwattr DW$563, DW_AT_accessibility(DW_ACCESS_public)
    4678              DW$564  .dwtag  DW_TAG_member, DW_AT_type(*DW$T$19)
    4679                      .dwattr DW$564, DW_AT_name("T4CTRIP_SOCB_GPIOD6"), DW_AT_symbol_name("_T4CTRIP_SOCB_GPIOD6")
    4680                      .dwattr DW$564, DW_AT_bit_offset(0x09), DW_AT_bit_size(0x01)
    4681                      .dwattr DW$564, DW_AT_data_member_location[DW_OP_plus_uconst 0x0]
    4682                      .dwattr DW$564, DW_AT_accessibility(DW_ACCESS_public)
    4683              DW$565  .dwtag  DW_TAG_member, DW_AT_type(*DW$T$19)
    4684                      .dwattr DW$565, DW_AT_name("rsvd2"), DW_AT_symbol_name("_rsvd2")
    4685                      .dwattr DW$565, DW_AT_bit_offset(0x00), DW_AT_bit_size(0x09)
    4686                      .dwattr DW$565, DW_AT_data_member_location[DW_OP_plus_uconst 0x0]
    4687                      .dwattr DW$565, DW_AT_accessibility(DW_ACCESS_public)
    4688                      .dwendtag DW$T$32
    4689              
    4690              
    4691              DW$T$34 .dwtag  DW_TAG_structure_type
    4692                      .dwattr DW$T$34, DW_AT_name("GPDDIR_BITS")
    4693                      .dwattr DW$T$34, DW_AT_byte_size(0x01)
    4694              DW$566  .dwtag  DW_TAG_member, DW_AT_type(*DW$T$19)
    4695                      .dwattr DW$566, DW_AT_name("GPIOD0"), DW_AT_symbol_name("_GPIOD0")
    4696                      .dwattr DW$566, DW_AT_bit_offset(0x0f), DW_AT_bit_size(0x01)
    4697                      .dwattr DW$566, DW_AT_data_member_location[DW_OP_plus_uconst 0x0]
    4698                      .dwattr DW$566, DW_AT_accessibility(DW_ACCESS_public)
    4699              DW$567  .dwtag  DW_TAG_member, DW_AT_type(*DW$T$19)
    4700                      .dwattr DW$567, DW_AT_name("GPIOD1"), DW_AT_symbol_name("_GPIOD1")
    4701                      .dwattr DW$567, DW_AT_bit_offset(0x0e), DW_AT_bit_size(0x01)
    4702                      .dwattr DW$567, DW_AT_data_member_location[DW_OP_plus_uconst 0x0]
    4703                      .dwattr DW$567, DW_AT_accessibility(DW_ACCESS_public)
    4704              DW$568  .dwtag  DW_TAG_member, DW_AT_type(*DW$T$19)
    4705                      .dwattr DW$568, DW_AT_name("rsvd1"), DW_AT_symbol_name("_rsvd1")
    4706                      .dwattr DW$568, DW_AT_bit_offset(0x0b), DW_AT_bit_size(0x03)
    4707                      .dwattr DW$568, DW_AT_data_member_location[DW_OP_plus_uconst 0x0]
    4708                      .dwattr DW$568, DW_AT_accessibility(DW_ACCESS_public)
    4709              DW$569  .dwtag  DW_TAG_member, DW_AT_type(*DW$T$19)
    4710                      .dwattr DW$569, DW_AT_name("GPIOD5"), DW_AT_symbol_name("_GPIOD5")
    4711                      .dwattr DW$569, DW_AT_bit_offset(0x0a), DW_AT_bit_size(0x01)
    4712                      .dwattr DW$569, DW_AT_data_member_location[DW_OP_plus_uconst 0x0]
    4713                      .dwattr DW$569, DW_AT_accessibility(DW_ACCESS_public)
    4714              DW$570  .dwtag  DW_TAG_member, DW_AT_type(*DW$T$19)
    4715                      .dwattr DW$570, DW_AT_name("GPIOD6"), DW_AT_symbol_name("_GPIOD6")
    4716                      .dwattr DW$570, DW_AT_bit_offset(0x09), DW_AT_bit_size(0x01)
    4717                      .dwattr DW$570, DW_AT_data_member_location[DW_OP_plus_uconst 0x0]
    4718                      .dwattr DW$570, DW_AT_accessibility(DW_ACCESS_public)
    4719              DW$571  .dwtag  DW_TAG_member, DW_AT_type(*DW$T$19)
    4720                      .dwattr DW$571, DW_AT_name("rsvd2"), DW_AT_symbol_name("_rsvd2")
    4721                      .dwattr DW$571, DW_AT_bit_offset(0x00), DW_AT_bit_size(0x09)
    4722                      .dwattr DW$571, DW_AT_data_member_location[DW_OP_plus_uconst 0x0]
    4723                      .dwattr DW$571, DW_AT_accessibility(DW_ACCESS_public)
    4724                      .dwendtag DW$T$34
    4725              
    4726              
    4727              DW$T$36 .dwtag  DW_TAG_structure_type
    4728                      .dwattr DW$T$36, DW_AT_name("GPDQUAL_BITS")
    4729                      .dwattr DW$T$36, DW_AT_byte_size(0x01)
TMS320C2000 COFF Assembler PC v4.1.3 Mon Dec 03 13:50:31 2012

Tools Copyright (c) 1996-2006 Texas Instruments Incorporated
C:\DOCUME~1\ADMINI~1\LOCALS~1\Temp\TI9922                            PAGE   90

    4730              DW$572  .dwtag  DW_TAG_member, DW_AT_type(*DW$T$19)
    4731                      .dwattr DW$572, DW_AT_name("QUALPRD"), DW_AT_symbol_name("_QUALPRD")
    4732                      .dwattr DW$572, DW_AT_bit_offset(0x08), DW_AT_bit_size(0x08)
    4733                      .dwattr DW$572, DW_AT_data_member_location[DW_OP_plus_uconst 0x0]
    4734                      .dwattr DW$572, DW_AT_accessibility(DW_ACCESS_public)
    4735              DW$573  .dwtag  DW_TAG_member, DW_AT_type(*DW$T$19)
    4736                      .dwattr DW$573, DW_AT_name("rsvd1"), DW_AT_symbol_name("_rsvd1")
    4737                      .dwattr DW$573, DW_AT_bit_offset(0x00), DW_AT_bit_size(0x08)
    4738                      .dwattr DW$573, DW_AT_data_member_location[DW_OP_plus_uconst 0x0]
    4739                      .dwattr DW$573, DW_AT_accessibility(DW_ACCESS_public)
    4740                      .dwendtag DW$T$36
    4741              
    4742              
    4743              DW$T$38 .dwtag  DW_TAG_structure_type
    4744                      .dwattr DW$T$38, DW_AT_name("GPEMUX_BITS")
    4745                      .dwattr DW$T$38, DW_AT_byte_size(0x01)
    4746              DW$574  .dwtag  DW_TAG_member, DW_AT_type(*DW$T$19)
    4747                      .dwattr DW$574, DW_AT_name("XINT1_XBIO_GPIOE0"), DW_AT_symbol_name("_XINT1_XBIO_GPIOE0")
    4748                      .dwattr DW$574, DW_AT_bit_offset(0x0f), DW_AT_bit_size(0x01)
    4749                      .dwattr DW$574, DW_AT_data_member_location[DW_OP_plus_uconst 0x0]
    4750                      .dwattr DW$574, DW_AT_accessibility(DW_ACCESS_public)
    4751              DW$575  .dwtag  DW_TAG_member, DW_AT_type(*DW$T$19)
    4752                      .dwattr DW$575, DW_AT_name("XINT2_ADCSOC_GPIOE1"), DW_AT_symbol_name("_XINT2_ADCSOC_GPIOE1")
    4753                      .dwattr DW$575, DW_AT_bit_offset(0x0e), DW_AT_bit_size(0x01)
    4754                      .dwattr DW$575, DW_AT_data_member_location[DW_OP_plus_uconst 0x0]
    4755                      .dwattr DW$575, DW_AT_accessibility(DW_ACCESS_public)
    4756              DW$576  .dwtag  DW_TAG_member, DW_AT_type(*DW$T$19)
    4757                      .dwattr DW$576, DW_AT_name("XNMI_XINT13_GPIOE2"), DW_AT_symbol_name("_XNMI_XINT13_GPIOE2")
    4758                      .dwattr DW$576, DW_AT_bit_offset(0x0d), DW_AT_bit_size(0x01)
    4759                      .dwattr DW$576, DW_AT_data_member_location[DW_OP_plus_uconst 0x0]
    4760                      .dwattr DW$576, DW_AT_accessibility(DW_ACCESS_public)
    4761              DW$577  .dwtag  DW_TAG_member, DW_AT_type(*DW$T$19)
    4762                      .dwattr DW$577, DW_AT_name("rsvd1"), DW_AT_symbol_name("_rsvd1")
    4763                      .dwattr DW$577, DW_AT_bit_offset(0x01), DW_AT_bit_size(0x0c)
    4764                      .dwattr DW$577, DW_AT_data_member_location[DW_OP_plus_uconst 0x0]
    4765                      .dwattr DW$577, DW_AT_accessibility(DW_ACCESS_public)
    4766                      .dwendtag DW$T$38
    4767              
    4768              
    4769              DW$T$40 .dwtag  DW_TAG_structure_type
    4770                      .dwattr DW$T$40, DW_AT_name("GPEDIR_BITS")
    4771                      .dwattr DW$T$40, DW_AT_byte_size(0x01)
    4772              DW$578  .dwtag  DW_TAG_member, DW_AT_type(*DW$T$19)
    4773                      .dwattr DW$578, DW_AT_name("GPIOE0"), DW_AT_symbol_name("_GPIOE0")
    4774                      .dwattr DW$578, DW_AT_bit_offset(0x0f), DW_AT_bit_size(0x01)
    4775                      .dwattr DW$578, DW_AT_data_member_location[DW_OP_plus_uconst 0x0]
    4776                      .dwattr DW$578, DW_AT_accessibility(DW_ACCESS_public)
    4777              DW$579  .dwtag  DW_TAG_member, DW_AT_type(*DW$T$19)
    4778                      .dwattr DW$579, DW_AT_name("GPIOE1"), DW_AT_symbol_name("_GPIOE1")
    4779                      .dwattr DW$579, DW_AT_bit_offset(0x0e), DW_AT_bit_size(0x01)
    4780                      .dwattr DW$579, DW_AT_data_member_location[DW_OP_plus_uconst 0x0]
    4781                      .dwattr DW$579, DW_AT_accessibility(DW_ACCESS_public)
    4782              DW$580  .dwtag  DW_TAG_member, DW_AT_type(*DW$T$19)
    4783                      .dwattr DW$580, DW_AT_name("GPIOE2"), DW_AT_symbol_name("_GPIOE2")
    4784                      .dwattr DW$580, DW_AT_bit_offset(0x0d), DW_AT_bit_size(0x01)
TMS320C2000 COFF Assembler PC v4.1.3 Mon Dec 03 13:50:31 2012

Tools Copyright (c) 1996-2006 Texas Instruments Incorporated
C:\DOCUME~1\ADMINI~1\LOCALS~1\Temp\TI9922                            PAGE   91

    4785                      .dwattr DW$580, DW_AT_data_member_location[DW_OP_plus_uconst 0x0]
    4786                      .dwattr DW$580, DW_AT_accessibility(DW_ACCESS_public)
    4787              DW$581  .dwtag  DW_TAG_member, DW_AT_type(*DW$T$19)
    4788                      .dwattr DW$581, DW_AT_name("rsvd1"), DW_AT_symbol_name("_rsvd1")
    4789                      .dwattr DW$581, DW_AT_bit_offset(0x01), DW_AT_bit_size(0x0c)
    4790                      .dwattr DW$581, DW_AT_data_member_location[DW_OP_plus_uconst 0x0]
    4791                      .dwattr DW$581, DW_AT_accessibility(DW_ACCESS_public)
    4792                      .dwendtag DW$T$40
    4793              
    4794              
    4795              DW$T$42 .dwtag  DW_TAG_structure_type
    4796                      .dwattr DW$T$42, DW_AT_name("GPEQUAL_BITS")
    4797                      .dwattr DW$T$42, DW_AT_byte_size(0x01)
    4798              DW$582  .dwtag  DW_TAG_member, DW_AT_type(*DW$T$19)
    4799                      .dwattr DW$582, DW_AT_name("QUALPRD"), DW_AT_symbol_name("_QUALPRD")
    4800                      .dwattr DW$582, DW_AT_bit_offset(0x08), DW_AT_bit_size(0x08)
    4801                      .dwattr DW$582, DW_AT_data_member_location[DW_OP_plus_uconst 0x0]
    4802                      .dwattr DW$582, DW_AT_accessibility(DW_ACCESS_public)
    4803              DW$583  .dwtag  DW_TAG_member, DW_AT_type(*DW$T$19)
    4804                      .dwattr DW$583, DW_AT_name("rsvd1"), DW_AT_symbol_name("_rsvd1")
    4805                      .dwattr DW$583, DW_AT_bit_offset(0x00), DW_AT_bit_size(0x08)
    4806                      .dwattr DW$583, DW_AT_data_member_location[DW_OP_plus_uconst 0x0]
    4807                      .dwattr DW$583, DW_AT_accessibility(DW_ACCESS_public)
    4808                      .dwendtag DW$T$42
    4809              
    4810              
    4811              DW$T$44 .dwtag  DW_TAG_structure_type
    4812                      .dwattr DW$T$44, DW_AT_name("GPFMUX_BITS")
    4813                      .dwattr DW$T$44, DW_AT_byte_size(0x01)
    4814              DW$584  .dwtag  DW_TAG_member, DW_AT_type(*DW$T$19)
    4815                      .dwattr DW$584, DW_AT_name("SPISIMOA_GPIOF0"), DW_AT_symbol_name("_SPISIMOA_GPIOF0")
    4816                      .dwattr DW$584, DW_AT_bit_offset(0x0f), DW_AT_bit_size(0x01)
    4817                      .dwattr DW$584, DW_AT_data_member_location[DW_OP_plus_uconst 0x0]
    4818                      .dwattr DW$584, DW_AT_accessibility(DW_ACCESS_public)
    4819              DW$585  .dwtag  DW_TAG_member, DW_AT_type(*DW$T$19)
    4820                      .dwattr DW$585, DW_AT_name("SPISOMIA_GPIOF1"), DW_AT_symbol_name("_SPISOMIA_GPIOF1")
    4821                      .dwattr DW$585, DW_AT_bit_offset(0x0e), DW_AT_bit_size(0x01)
    4822                      .dwattr DW$585, DW_AT_data_member_location[DW_OP_plus_uconst 0x0]
    4823                      .dwattr DW$585, DW_AT_accessibility(DW_ACCESS_public)
    4824              DW$586  .dwtag  DW_TAG_member, DW_AT_type(*DW$T$19)
    4825                      .dwattr DW$586, DW_AT_name("SPICLKA_GPIOF2"), DW_AT_symbol_name("_SPICLKA_GPIOF2")
    4826                      .dwattr DW$586, DW_AT_bit_offset(0x0d), DW_AT_bit_size(0x01)
    4827                      .dwattr DW$586, DW_AT_data_member_location[DW_OP_plus_uconst 0x0]
    4828                      .dwattr DW$586, DW_AT_accessibility(DW_ACCESS_public)
    4829              DW$587  .dwtag  DW_TAG_member, DW_AT_type(*DW$T$19)
    4830                      .dwattr DW$587, DW_AT_name("SPISTEA_GPIOF3"), DW_AT_symbol_name("_SPISTEA_GPIOF3")
    4831                      .dwattr DW$587, DW_AT_bit_offset(0x0c), DW_AT_bit_size(0x01)
    4832                      .dwattr DW$587, DW_AT_data_member_location[DW_OP_plus_uconst 0x0]
    4833                      .dwattr DW$587, DW_AT_accessibility(DW_ACCESS_public)
    4834              DW$588  .dwtag  DW_TAG_member, DW_AT_type(*DW$T$19)
    4835                      .dwattr DW$588, DW_AT_name("SCITXDA_GPIOF4"), DW_AT_symbol_name("_SCITXDA_GPIOF4")
    4836                      .dwattr DW$588, DW_AT_bit_offset(0x0b), DW_AT_bit_size(0x01)
    4837                      .dwattr DW$588, DW_AT_data_member_location[DW_OP_plus_uconst 0x0]
    4838                      .dwattr DW$588, DW_AT_accessibility(DW_ACCESS_public)
    4839              DW$589  .dwtag  DW_TAG_member, DW_AT_type(*DW$T$19)
TMS320C2000 COFF Assembler PC v4.1.3 Mon Dec 03 13:50:31 2012

Tools Copyright (c) 1996-2006 Texas Instruments Incorporated
C:\DOCUME~1\ADMINI~1\LOCALS~1\Temp\TI9922                            PAGE   92

    4840                      .dwattr DW$589, DW_AT_name("SCIRXDA_GPIOF5"), DW_AT_symbol_name("_SCIRXDA_GPIOF5")
    4841                      .dwattr DW$589, DW_AT_bit_offset(0x0a), DW_AT_bit_size(0x01)
    4842                      .dwattr DW$589, DW_AT_data_member_location[DW_OP_plus_uconst 0x0]
    4843                      .dwattr DW$589, DW_AT_accessibility(DW_ACCESS_public)
    4844              DW$590  .dwtag  DW_TAG_member, DW_AT_type(*DW$T$19)
    4845                      .dwattr DW$590, DW_AT_name("CANTXA_GPIOF6"), DW_AT_symbol_name("_CANTXA_GPIOF6")
    4846                      .dwattr DW$590, DW_AT_bit_offset(0x09), DW_AT_bit_size(0x01)
    4847                      .dwattr DW$590, DW_AT_data_member_location[DW_OP_plus_uconst 0x0]
    4848                      .dwattr DW$590, DW_AT_accessibility(DW_ACCESS_public)
    4849              DW$591  .dwtag  DW_TAG_member, DW_AT_type(*DW$T$19)
    4850                      .dwattr DW$591, DW_AT_name("CANRXA_GPIOF7"), DW_AT_symbol_name("_CANRXA_GPIOF7")
    4851                      .dwattr DW$591, DW_AT_bit_offset(0x08), DW_AT_bit_size(0x01)
    4852                      .dwattr DW$591, DW_AT_data_member_location[DW_OP_plus_uconst 0x0]
    4853                      .dwattr DW$591, DW_AT_accessibility(DW_ACCESS_public)
    4854              DW$592  .dwtag  DW_TAG_member, DW_AT_type(*DW$T$19)
    4855                      .dwattr DW$592, DW_AT_name("MCLKXA_GPIOF8"), DW_AT_symbol_name("_MCLKXA_GPIOF8")
    4856                      .dwattr DW$592, DW_AT_bit_offset(0x07), DW_AT_bit_size(0x01)
    4857                      .dwattr DW$592, DW_AT_data_member_location[DW_OP_plus_uconst 0x0]
    4858                      .dwattr DW$592, DW_AT_accessibility(DW_ACCESS_public)
    4859              DW$593  .dwtag  DW_TAG_member, DW_AT_type(*DW$T$19)
    4860                      .dwattr DW$593, DW_AT_name("MCLKRA_GPIOF9"), DW_AT_symbol_name("_MCLKRA_GPIOF9")
    4861                      .dwattr DW$593, DW_AT_bit_offset(0x06), DW_AT_bit_size(0x01)
    4862                      .dwattr DW$593, DW_AT_data_member_location[DW_OP_plus_uconst 0x0]
    4863                      .dwattr DW$593, DW_AT_accessibility(DW_ACCESS_public)
    4864              DW$594  .dwtag  DW_TAG_member, DW_AT_type(*DW$T$19)
    4865                      .dwattr DW$594, DW_AT_name("MFSXA_GPIOF10"), DW_AT_symbol_name("_MFSXA_GPIOF10")
    4866                      .dwattr DW$594, DW_AT_bit_offset(0x05), DW_AT_bit_size(0x01)
    4867                      .dwattr DW$594, DW_AT_data_member_location[DW_OP_plus_uconst 0x0]
    4868                      .dwattr DW$594, DW_AT_accessibility(DW_ACCESS_public)
    4869              DW$595  .dwtag  DW_TAG_member, DW_AT_type(*DW$T$19)
    4870                      .dwattr DW$595, DW_AT_name("MFSRA_GPIOF11"), DW_AT_symbol_name("_MFSRA_GPIOF11")
    4871                      .dwattr DW$595, DW_AT_bit_offset(0x04), DW_AT_bit_size(0x01)
    4872                      .dwattr DW$595, DW_AT_data_member_location[DW_OP_plus_uconst 0x0]
    4873                      .dwattr DW$595, DW_AT_accessibility(DW_ACCESS_public)
    4874              DW$596  .dwtag  DW_TAG_member, DW_AT_type(*DW$T$19)
    4875                      .dwattr DW$596, DW_AT_name("MDXA_GPIOF12"), DW_AT_symbol_name("_MDXA_GPIOF12")
    4876                      .dwattr DW$596, DW_AT_bit_offset(0x03), DW_AT_bit_size(0x01)
    4877                      .dwattr DW$596, DW_AT_data_member_location[DW_OP_plus_uconst 0x0]
    4878                      .dwattr DW$596, DW_AT_accessibility(DW_ACCESS_public)
    4879              DW$597  .dwtag  DW_TAG_member, DW_AT_type(*DW$T$19)
    4880                      .dwattr DW$597, DW_AT_name("MDRA_GPIOF13"), DW_AT_symbol_name("_MDRA_GPIOF13")
    4881                      .dwattr DW$597, DW_AT_bit_offset(0x02), DW_AT_bit_size(0x01)
    4882                      .dwattr DW$597, DW_AT_data_member_location[DW_OP_plus_uconst 0x0]
    4883                      .dwattr DW$597, DW_AT_accessibility(DW_ACCESS_public)
    4884              DW$598  .dwtag  DW_TAG_member, DW_AT_type(*DW$T$19)
    4885                      .dwattr DW$598, DW_AT_name("XF_GPIOF14"), DW_AT_symbol_name("_XF_GPIOF14")
    4886                      .dwattr DW$598, DW_AT_bit_offset(0x01), DW_AT_bit_size(0x01)
    4887                      .dwattr DW$598, DW_AT_data_member_location[DW_OP_plus_uconst 0x0]
    4888                      .dwattr DW$598, DW_AT_accessibility(DW_ACCESS_public)
    4889              DW$599  .dwtag  DW_TAG_member, DW_AT_type(*DW$T$19)
    4890                      .dwattr DW$599, DW_AT_name("spare_GPIOF15"), DW_AT_symbol_name("_spare_GPIOF15")
    4891                      .dwattr DW$599, DW_AT_bit_offset(0x00), DW_AT_bit_size(0x01)
    4892                      .dwattr DW$599, DW_AT_data_member_location[DW_OP_plus_uconst 0x0]
    4893                      .dwattr DW$599, DW_AT_accessibility(DW_ACCESS_public)
    4894                      .dwendtag DW$T$44
TMS320C2000 COFF Assembler PC v4.1.3 Mon Dec 03 13:50:31 2012

Tools Copyright (c) 1996-2006 Texas Instruments Incorporated
C:\DOCUME~1\ADMINI~1\LOCALS~1\Temp\TI9922                            PAGE   93

    4895              
    4896              
    4897              DW$T$46 .dwtag  DW_TAG_structure_type
    4898                      .dwattr DW$T$46, DW_AT_name("GPFDIR_BITS")
    4899                      .dwattr DW$T$46, DW_AT_byte_size(0x01)
    4900              DW$600  .dwtag  DW_TAG_member, DW_AT_type(*DW$T$19)
    4901                      .dwattr DW$600, DW_AT_name("GPIOF0"), DW_AT_symbol_name("_GPIOF0")
    4902                      .dwattr DW$600, DW_AT_bit_offset(0x0f), DW_AT_bit_size(0x01)
    4903                      .dwattr DW$600, DW_AT_data_member_location[DW_OP_plus_uconst 0x0]
    4904                      .dwattr DW$600, DW_AT_accessibility(DW_ACCESS_public)
    4905              DW$601  .dwtag  DW_TAG_member, DW_AT_type(*DW$T$19)
    4906                      .dwattr DW$601, DW_AT_name("GPIOF1"), DW_AT_symbol_name("_GPIOF1")
    4907                      .dwattr DW$601, DW_AT_bit_offset(0x0e), DW_AT_bit_size(0x01)
    4908                      .dwattr DW$601, DW_AT_data_member_location[DW_OP_plus_uconst 0x0]
    4909                      .dwattr DW$601, DW_AT_accessibility(DW_ACCESS_public)
    4910              DW$602  .dwtag  DW_TAG_member, DW_AT_type(*DW$T$19)
    4911                      .dwattr DW$602, DW_AT_name("GPIOF2"), DW_AT_symbol_name("_GPIOF2")
    4912                      .dwattr DW$602, DW_AT_bit_offset(0x0d), DW_AT_bit_size(0x01)
    4913                      .dwattr DW$602, DW_AT_data_member_location[DW_OP_plus_uconst 0x0]
    4914                      .dwattr DW$602, DW_AT_accessibility(DW_ACCESS_public)
    4915              DW$603  .dwtag  DW_TAG_member, DW_AT_type(*DW$T$19)
    4916                      .dwattr DW$603, DW_AT_name("GPIOF3"), DW_AT_symbol_name("_GPIOF3")
    4917                      .dwattr DW$603, DW_AT_bit_offset(0x0c), DW_AT_bit_size(0x01)
    4918                      .dwattr DW$603, DW_AT_data_member_location[DW_OP_plus_uconst 0x0]
    4919                      .dwattr DW$603, DW_AT_accessibility(DW_ACCESS_public)
    4920              DW$604  .dwtag  DW_TAG_member, DW_AT_type(*DW$T$19)
    4921                      .dwattr DW$604, DW_AT_name("GPIOF4"), DW_AT_symbol_name("_GPIOF4")
    4922                      .dwattr DW$604, DW_AT_bit_offset(0x0b), DW_AT_bit_size(0x01)
    4923                      .dwattr DW$604, DW_AT_data_member_location[DW_OP_plus_uconst 0x0]
    4924                      .dwattr DW$604, DW_AT_accessibility(DW_ACCESS_public)
    4925              DW$605  .dwtag  DW_TAG_member, DW_AT_type(*DW$T$19)
    4926                      .dwattr DW$605, DW_AT_name("GPIOF5"), DW_AT_symbol_name("_GPIOF5")
    4927                      .dwattr DW$605, DW_AT_bit_offset(0x0a), DW_AT_bit_size(0x01)
    4928                      .dwattr DW$605, DW_AT_data_member_location[DW_OP_plus_uconst 0x0]
    4929                      .dwattr DW$605, DW_AT_accessibility(DW_ACCESS_public)
    4930              DW$606  .dwtag  DW_TAG_member, DW_AT_type(*DW$T$19)
    4931                      .dwattr DW$606, DW_AT_name("GPIOF6"), DW_AT_symbol_name("_GPIOF6")
    4932                      .dwattr DW$606, DW_AT_bit_offset(0x09), DW_AT_bit_size(0x01)
    4933                      .dwattr DW$606, DW_AT_data_member_location[DW_OP_plus_uconst 0x0]
    4934                      .dwattr DW$606, DW_AT_accessibility(DW_ACCESS_public)
    4935              DW$607  .dwtag  DW_TAG_member, DW_AT_type(*DW$T$19)
    4936                      .dwattr DW$607, DW_AT_name("GPIOF7"), DW_AT_symbol_name("_GPIOF7")
    4937                      .dwattr DW$607, DW_AT_bit_offset(0x08), DW_AT_bit_size(0x01)
    4938                      .dwattr DW$607, DW_AT_data_member_location[DW_OP_plus_uconst 0x0]
    4939                      .dwattr DW$607, DW_AT_accessibility(DW_ACCESS_public)
    4940              DW$608  .dwtag  DW_TAG_member, DW_AT_type(*DW$T$19)
    4941                      .dwattr DW$608, DW_AT_name("GPIOF8"), DW_AT_symbol_name("_GPIOF8")
    4942                      .dwattr DW$608, DW_AT_bit_offset(0x07), DW_AT_bit_size(0x01)
    4943                      .dwattr DW$608, DW_AT_data_member_location[DW_OP_plus_uconst 0x0]
    4944                      .dwattr DW$608, DW_AT_accessibility(DW_ACCESS_public)
    4945              DW$609  .dwtag  DW_TAG_member, DW_AT_type(*DW$T$19)
    4946                      .dwattr DW$609, DW_AT_name("GPIOF9"), DW_AT_symbol_name("_GPIOF9")
    4947                      .dwattr DW$609, DW_AT_bit_offset(0x06), DW_AT_bit_size(0x01)
    4948                      .dwattr DW$609, DW_AT_data_member_location[DW_OP_plus_uconst 0x0]
    4949                      .dwattr DW$609, DW_AT_accessibility(DW_ACCESS_public)
TMS320C2000 COFF Assembler PC v4.1.3 Mon Dec 03 13:50:31 2012

Tools Copyright (c) 1996-2006 Texas Instruments Incorporated
C:\DOCUME~1\ADMINI~1\LOCALS~1\Temp\TI9922                            PAGE   94

    4950              DW$610  .dwtag  DW_TAG_member, DW_AT_type(*DW$T$19)
    4951                      .dwattr DW$610, DW_AT_name("GPIOF10"), DW_AT_symbol_name("_GPIOF10")
    4952                      .dwattr DW$610, DW_AT_bit_offset(0x05), DW_AT_bit_size(0x01)
    4953                      .dwattr DW$610, DW_AT_data_member_location[DW_OP_plus_uconst 0x0]
    4954                      .dwattr DW$610, DW_AT_accessibility(DW_ACCESS_public)
    4955              DW$611  .dwtag  DW_TAG_member, DW_AT_type(*DW$T$19)
    4956                      .dwattr DW$611, DW_AT_name("GPIOF11"), DW_AT_symbol_name("_GPIOF11")
    4957                      .dwattr DW$611, DW_AT_bit_offset(0x04), DW_AT_bit_size(0x01)
    4958                      .dwattr DW$611, DW_AT_data_member_location[DW_OP_plus_uconst 0x0]
    4959                      .dwattr DW$611, DW_AT_accessibility(DW_ACCESS_public)
    4960              DW$612  .dwtag  DW_TAG_member, DW_AT_type(*DW$T$19)
    4961                      .dwattr DW$612, DW_AT_name("GPIOF12"), DW_AT_symbol_name("_GPIOF12")
    4962                      .dwattr DW$612, DW_AT_bit_offset(0x03), DW_AT_bit_size(0x01)
    4963                      .dwattr DW$612, DW_AT_data_member_location[DW_OP_plus_uconst 0x0]
    4964                      .dwattr DW$612, DW_AT_accessibility(DW_ACCESS_public)
    4965              DW$613  .dwtag  DW_TAG_member, DW_AT_type(*DW$T$19)
    4966                      .dwattr DW$613, DW_AT_name("GPIOF13"), DW_AT_symbol_name("_GPIOF13")
    4967                      .dwattr DW$613, DW_AT_bit_offset(0x02), DW_AT_bit_size(0x01)
    4968                      .dwattr DW$613, DW_AT_data_member_location[DW_OP_plus_uconst 0x0]
    4969                      .dwattr DW$613, DW_AT_accessibility(DW_ACCESS_public)
    4970              DW$614  .dwtag  DW_TAG_member, DW_AT_type(*DW$T$19)
    4971                      .dwattr DW$614, DW_AT_name("GPIOF14"), DW_AT_symbol_name("_GPIOF14")
    4972                      .dwattr DW$614, DW_AT_bit_offset(0x01), DW_AT_bit_size(0x01)
    4973                      .dwattr DW$614, DW_AT_data_member_location[DW_OP_plus_uconst 0x0]
    4974                      .dwattr DW$614, DW_AT_accessibility(DW_ACCESS_public)
    4975              DW$615  .dwtag  DW_TAG_member, DW_AT_type(*DW$T$19)
    4976                      .dwattr DW$615, DW_AT_name("GPIOF15"), DW_AT_symbol_name("_GPIOF15")
    4977                      .dwattr DW$615, DW_AT_bit_offset(0x00), DW_AT_bit_size(0x01)
    4978                      .dwattr DW$615, DW_AT_data_member_location[DW_OP_plus_uconst 0x0]
    4979                      .dwattr DW$615, DW_AT_accessibility(DW_ACCESS_public)
    4980                      .dwendtag DW$T$46
    4981              
    4982              
    4983              DW$T$48 .dwtag  DW_TAG_structure_type
    4984                      .dwattr DW$T$48, DW_AT_name("GPGMUX_BITS")
    4985                      .dwattr DW$T$48, DW_AT_byte_size(0x01)
    4986              DW$616  .dwtag  DW_TAG_member, DW_AT_type(*DW$T$19)
    4987                      .dwattr DW$616, DW_AT_name("rsvd1"), DW_AT_symbol_name("_rsvd1")
    4988                      .dwattr DW$616, DW_AT_bit_offset(0x0c), DW_AT_bit_size(0x04)
    4989                      .dwattr DW$616, DW_AT_data_member_location[DW_OP_plus_uconst 0x0]
    4990                      .dwattr DW$616, DW_AT_accessibility(DW_ACCESS_public)
    4991              DW$617  .dwtag  DW_TAG_member, DW_AT_type(*DW$T$19)
    4992                      .dwattr DW$617, DW_AT_name("SCITXDB_GPIOG4"), DW_AT_symbol_name("_SCITXDB_GPIOG4")
    4993                      .dwattr DW$617, DW_AT_bit_offset(0x0b), DW_AT_bit_size(0x01)
    4994                      .dwattr DW$617, DW_AT_data_member_location[DW_OP_plus_uconst 0x0]
    4995                      .dwattr DW$617, DW_AT_accessibility(DW_ACCESS_public)
    4996              DW$618  .dwtag  DW_TAG_member, DW_AT_type(*DW$T$19)
    4997                      .dwattr DW$618, DW_AT_name("SCIRXDB_GPIOG5"), DW_AT_symbol_name("_SCIRXDB_GPIOG5")
    4998                      .dwattr DW$618, DW_AT_bit_offset(0x0a), DW_AT_bit_size(0x01)
    4999                      .dwattr DW$618, DW_AT_data_member_location[DW_OP_plus_uconst 0x0]
    5000                      .dwattr DW$618, DW_AT_accessibility(DW_ACCESS_public)
    5001              DW$619  .dwtag  DW_TAG_member, DW_AT_type(*DW$T$19)
    5002                      .dwattr DW$619, DW_AT_name("rsvd2"), DW_AT_symbol_name("_rsvd2")
    5003                      .dwattr DW$619, DW_AT_bit_offset(0x00), DW_AT_bit_size(0x0a)
    5004                      .dwattr DW$619, DW_AT_data_member_location[DW_OP_plus_uconst 0x0]
TMS320C2000 COFF Assembler PC v4.1.3 Mon Dec 03 13:50:31 2012

Tools Copyright (c) 1996-2006 Texas Instruments Incorporated
C:\DOCUME~1\ADMINI~1\LOCALS~1\Temp\TI9922                            PAGE   95

    5005                      .dwattr DW$619, DW_AT_accessibility(DW_ACCESS_public)
    5006                      .dwendtag DW$T$48
    5007              
    5008              
    5009              DW$T$50 .dwtag  DW_TAG_structure_type
    5010                      .dwattr DW$T$50, DW_AT_name("GPGDIR_BITS")
    5011                      .dwattr DW$T$50, DW_AT_byte_size(0x01)
    5012              DW$620  .dwtag  DW_TAG_member, DW_AT_type(*DW$T$19)
    5013                      .dwattr DW$620, DW_AT_name("rsvd1"), DW_AT_symbol_name("_rsvd1")
    5014                      .dwattr DW$620, DW_AT_bit_offset(0x0c), DW_AT_bit_size(0x04)
    5015                      .dwattr DW$620, DW_AT_data_member_location[DW_OP_plus_uconst 0x0]
    5016                      .dwattr DW$620, DW_AT_accessibility(DW_ACCESS_public)
    5017              DW$621  .dwtag  DW_TAG_member, DW_AT_type(*DW$T$19)
    5018                      .dwattr DW$621, DW_AT_name("GPIOG4"), DW_AT_symbol_name("_GPIOG4")
    5019                      .dwattr DW$621, DW_AT_bit_offset(0x0b), DW_AT_bit_size(0x01)
    5020                      .dwattr DW$621, DW_AT_data_member_location[DW_OP_plus_uconst 0x0]
    5021                      .dwattr DW$621, DW_AT_accessibility(DW_ACCESS_public)
    5022              DW$622  .dwtag  DW_TAG_member, DW_AT_type(*DW$T$19)
    5023                      .dwattr DW$622, DW_AT_name("GPIOG5"), DW_AT_symbol_name("_GPIOG5")
    5024                      .dwattr DW$622, DW_AT_bit_offset(0x0a), DW_AT_bit_size(0x01)
    5025                      .dwattr DW$622, DW_AT_data_member_location[DW_OP_plus_uconst 0x0]
    5026                      .dwattr DW$622, DW_AT_accessibility(DW_ACCESS_public)
    5027              DW$623  .dwtag  DW_TAG_member, DW_AT_type(*DW$T$19)
    5028                      .dwattr DW$623, DW_AT_name("rsvd2"), DW_AT_symbol_name("_rsvd2")
    5029                      .dwattr DW$623, DW_AT_bit_offset(0x00), DW_AT_bit_size(0x0a)
    5030                      .dwattr DW$623, DW_AT_data_member_location[DW_OP_plus_uconst 0x0]
    5031                      .dwattr DW$623, DW_AT_accessibility(DW_ACCESS_public)
    5032                      .dwendtag DW$T$50
    5033              
    5034              
    5035              DW$T$56 .dwtag  DW_TAG_structure_type
    5036                      .dwattr DW$T$56, DW_AT_name("GPADAT_BITS")
    5037                      .dwattr DW$T$56, DW_AT_byte_size(0x01)
    5038              DW$624  .dwtag  DW_TAG_member, DW_AT_type(*DW$T$19)
    5039                      .dwattr DW$624, DW_AT_name("GPIOA0"), DW_AT_symbol_name("_GPIOA0")
    5040                      .dwattr DW$624, DW_AT_bit_offset(0x0f), DW_AT_bit_size(0x01)
    5041                      .dwattr DW$624, DW_AT_data_member_location[DW_OP_plus_uconst 0x0]
    5042                      .dwattr DW$624, DW_AT_accessibility(DW_ACCESS_public)
    5043              DW$625  .dwtag  DW_TAG_member, DW_AT_type(*DW$T$19)
    5044                      .dwattr DW$625, DW_AT_name("GPIOA1"), DW_AT_symbol_name("_GPIOA1")
    5045                      .dwattr DW$625, DW_AT_bit_offset(0x0e), DW_AT_bit_size(0x01)
    5046                      .dwattr DW$625, DW_AT_data_member_location[DW_OP_plus_uconst 0x0]
    5047                      .dwattr DW$625, DW_AT_accessibility(DW_ACCESS_public)
    5048              DW$626  .dwtag  DW_TAG_member, DW_AT_type(*DW$T$19)
    5049                      .dwattr DW$626, DW_AT_name("GPIOA2"), DW_AT_symbol_name("_GPIOA2")
    5050                      .dwattr DW$626, DW_AT_bit_offset(0x0d), DW_AT_bit_size(0x01)
    5051                      .dwattr DW$626, DW_AT_data_member_location[DW_OP_plus_uconst 0x0]
    5052                      .dwattr DW$626, DW_AT_accessibility(DW_ACCESS_public)
    5053              DW$627  .dwtag  DW_TAG_member, DW_AT_type(*DW$T$19)
    5054                      .dwattr DW$627, DW_AT_name("GPIOA3"), DW_AT_symbol_name("_GPIOA3")
    5055                      .dwattr DW$627, DW_AT_bit_offset(0x0c), DW_AT_bit_size(0x01)
    5056                      .dwattr DW$627, DW_AT_data_member_location[DW_OP_plus_uconst 0x0]
    5057                      .dwattr DW$627, DW_AT_accessibility(DW_ACCESS_public)
    5058              DW$628  .dwtag  DW_TAG_member, DW_AT_type(*DW$T$19)
    5059                      .dwattr DW$628, DW_AT_name("GPIOA4"), DW_AT_symbol_name("_GPIOA4")
TMS320C2000 COFF Assembler PC v4.1.3 Mon Dec 03 13:50:31 2012

Tools Copyright (c) 1996-2006 Texas Instruments Incorporated
C:\DOCUME~1\ADMINI~1\LOCALS~1\Temp\TI9922                            PAGE   96

    5060                      .dwattr DW$628, DW_AT_bit_offset(0x0b), DW_AT_bit_size(0x01)
    5061                      .dwattr DW$628, DW_AT_data_member_location[DW_OP_plus_uconst 0x0]
    5062                      .dwattr DW$628, DW_AT_accessibility(DW_ACCESS_public)
    5063              DW$629  .dwtag  DW_TAG_member, DW_AT_type(*DW$T$19)
    5064                      .dwattr DW$629, DW_AT_name("GPIOA5"), DW_AT_symbol_name("_GPIOA5")
    5065                      .dwattr DW$629, DW_AT_bit_offset(0x0a), DW_AT_bit_size(0x01)
    5066                      .dwattr DW$629, DW_AT_data_member_location[DW_OP_plus_uconst 0x0]
    5067                      .dwattr DW$629, DW_AT_accessibility(DW_ACCESS_public)
    5068              DW$630  .dwtag  DW_TAG_member, DW_AT_type(*DW$T$19)
    5069                      .dwattr DW$630, DW_AT_name("GPIOA6"), DW_AT_symbol_name("_GPIOA6")
    5070                      .dwattr DW$630, DW_AT_bit_offset(0x09), DW_AT_bit_size(0x01)
    5071                      .dwattr DW$630, DW_AT_data_member_location[DW_OP_plus_uconst 0x0]
    5072                      .dwattr DW$630, DW_AT_accessibility(DW_ACCESS_public)
    5073              DW$631  .dwtag  DW_TAG_member, DW_AT_type(*DW$T$19)
    5074                      .dwattr DW$631, DW_AT_name("GPIOA7"), DW_AT_symbol_name("_GPIOA7")
    5075                      .dwattr DW$631, DW_AT_bit_offset(0x08), DW_AT_bit_size(0x01)
    5076                      .dwattr DW$631, DW_AT_data_member_location[DW_OP_plus_uconst 0x0]
    5077                      .dwattr DW$631, DW_AT_accessibility(DW_ACCESS_public)
    5078              DW$632  .dwtag  DW_TAG_member, DW_AT_type(*DW$T$19)
    5079                      .dwattr DW$632, DW_AT_name("GPIOA8"), DW_AT_symbol_name("_GPIOA8")
    5080                      .dwattr DW$632, DW_AT_bit_offset(0x07), DW_AT_bit_size(0x01)
    5081                      .dwattr DW$632, DW_AT_data_member_location[DW_OP_plus_uconst 0x0]
    5082                      .dwattr DW$632, DW_AT_accessibility(DW_ACCESS_public)
    5083              DW$633  .dwtag  DW_TAG_member, DW_AT_type(*DW$T$19)
    5084                      .dwattr DW$633, DW_AT_name("GPIOA9"), DW_AT_symbol_name("_GPIOA9")
    5085                      .dwattr DW$633, DW_AT_bit_offset(0x06), DW_AT_bit_size(0x01)
    5086                      .dwattr DW$633, DW_AT_data_member_location[DW_OP_plus_uconst 0x0]
    5087                      .dwattr DW$633, DW_AT_accessibility(DW_ACCESS_public)
    5088              DW$634  .dwtag  DW_TAG_member, DW_AT_type(*DW$T$19)
    5089                      .dwattr DW$634, DW_AT_name("GPIOA10"), DW_AT_symbol_name("_GPIOA10")
    5090                      .dwattr DW$634, DW_AT_bit_offset(0x05), DW_AT_bit_size(0x01)
    5091                      .dwattr DW$634, DW_AT_data_member_location[DW_OP_plus_uconst 0x0]
    5092                      .dwattr DW$634, DW_AT_accessibility(DW_ACCESS_public)
    5093              DW$635  .dwtag  DW_TAG_member, DW_AT_type(*DW$T$19)
    5094                      .dwattr DW$635, DW_AT_name("GPIOA11"), DW_AT_symbol_name("_GPIOA11")
    5095                      .dwattr DW$635, DW_AT_bit_offset(0x04), DW_AT_bit_size(0x01)
    5096                      .dwattr DW$635, DW_AT_data_member_location[DW_OP_plus_uconst 0x0]
    5097                      .dwattr DW$635, DW_AT_accessibility(DW_ACCESS_public)
    5098              DW$636  .dwtag  DW_TAG_member, DW_AT_type(*DW$T$19)
    5099                      .dwattr DW$636, DW_AT_name("GPIOA12"), DW_AT_symbol_name("_GPIOA12")
    5100                      .dwattr DW$636, DW_AT_bit_offset(0x03), DW_AT_bit_size(0x01)
    5101                      .dwattr DW$636, DW_AT_data_member_location[DW_OP_plus_uconst 0x0]
    5102                      .dwattr DW$636, DW_AT_accessibility(DW_ACCESS_public)
    5103              DW$637  .dwtag  DW_TAG_member, DW_AT_type(*DW$T$19)
    5104                      .dwattr DW$637, DW_AT_name("GPIOA13"), DW_AT_symbol_name("_GPIOA13")
    5105                      .dwattr DW$637, DW_AT_bit_offset(0x02), DW_AT_bit_size(0x01)
    5106                      .dwattr DW$637, DW_AT_data_member_location[DW_OP_plus_uconst 0x0]
    5107                      .dwattr DW$637, DW_AT_accessibility(DW_ACCESS_public)
    5108              DW$638  .dwtag  DW_TAG_member, DW_AT_type(*DW$T$19)
    5109                      .dwattr DW$638, DW_AT_name("GPIOA14"), DW_AT_symbol_name("_GPIOA14")
    5110                      .dwattr DW$638, DW_AT_bit_offset(0x01), DW_AT_bit_size(0x01)
    5111                      .dwattr DW$638, DW_AT_data_member_location[DW_OP_plus_uconst 0x0]
    5112                      .dwattr DW$638, DW_AT_accessibility(DW_ACCESS_public)
    5113              DW$639  .dwtag  DW_TAG_member, DW_AT_type(*DW$T$19)
    5114                      .dwattr DW$639, DW_AT_name("GPIOA15"), DW_AT_symbol_name("_GPIOA15")
TMS320C2000 COFF Assembler PC v4.1.3 Mon Dec 03 13:50:31 2012

Tools Copyright (c) 1996-2006 Texas Instruments Incorporated
C:\DOCUME~1\ADMINI~1\LOCALS~1\Temp\TI9922                            PAGE   97

    5115                      .dwattr DW$639, DW_AT_bit_offset(0x00), DW_AT_bit_size(0x01)
    5116                      .dwattr DW$639, DW_AT_data_member_location[DW_OP_plus_uconst 0x0]
    5117                      .dwattr DW$639, DW_AT_accessibility(DW_ACCESS_public)
    5118                      .dwendtag DW$T$56
    5119              
    5120              
    5121              DW$T$58 .dwtag  DW_TAG_structure_type
    5122                      .dwattr DW$T$58, DW_AT_name("GPASET_BITS")
    5123                      .dwattr DW$T$58, DW_AT_byte_size(0x01)
    5124              DW$640  .dwtag  DW_TAG_member, DW_AT_type(*DW$T$19)
    5125                      .dwattr DW$640, DW_AT_name("GPIOA0"), DW_AT_symbol_name("_GPIOA0")
    5126                      .dwattr DW$640, DW_AT_bit_offset(0x0f), DW_AT_bit_size(0x01)
    5127                      .dwattr DW$640, DW_AT_data_member_location[DW_OP_plus_uconst 0x0]
    5128                      .dwattr DW$640, DW_AT_accessibility(DW_ACCESS_public)
    5129              DW$641  .dwtag  DW_TAG_member, DW_AT_type(*DW$T$19)
    5130                      .dwattr DW$641, DW_AT_name("GPIOA1"), DW_AT_symbol_name("_GPIOA1")
    5131                      .dwattr DW$641, DW_AT_bit_offset(0x0e), DW_AT_bit_size(0x01)
    5132                      .dwattr DW$641, DW_AT_data_member_location[DW_OP_plus_uconst 0x0]
    5133                      .dwattr DW$641, DW_AT_accessibility(DW_ACCESS_public)
    5134              DW$642  .dwtag  DW_TAG_member, DW_AT_type(*DW$T$19)
    5135                      .dwattr DW$642, DW_AT_name("GPIOA2"), DW_AT_symbol_name("_GPIOA2")
    5136                      .dwattr DW$642, DW_AT_bit_offset(0x0d), DW_AT_bit_size(0x01)
    5137                      .dwattr DW$642, DW_AT_data_member_location[DW_OP_plus_uconst 0x0]
    5138                      .dwattr DW$642, DW_AT_accessibility(DW_ACCESS_public)
    5139              DW$643  .dwtag  DW_TAG_member, DW_AT_type(*DW$T$19)
    5140                      .dwattr DW$643, DW_AT_name("GPIOA3"), DW_AT_symbol_name("_GPIOA3")
    5141                      .dwattr DW$643, DW_AT_bit_offset(0x0c), DW_AT_bit_size(0x01)
    5142                      .dwattr DW$643, DW_AT_data_member_location[DW_OP_plus_uconst 0x0]
    5143                      .dwattr DW$643, DW_AT_accessibility(DW_ACCESS_public)
    5144              DW$644  .dwtag  DW_TAG_member, DW_AT_type(*DW$T$19)
    5145                      .dwattr DW$644, DW_AT_name("GPIOA4"), DW_AT_symbol_name("_GPIOA4")
    5146                      .dwattr DW$644, DW_AT_bit_offset(0x0b), DW_AT_bit_size(0x01)
    5147                      .dwattr DW$644, DW_AT_data_member_location[DW_OP_plus_uconst 0x0]
    5148                      .dwattr DW$644, DW_AT_accessibility(DW_ACCESS_public)
    5149              DW$645  .dwtag  DW_TAG_member, DW_AT_type(*DW$T$19)
    5150                      .dwattr DW$645, DW_AT_name("GPIOA5"), DW_AT_symbol_name("_GPIOA5")
    5151                      .dwattr DW$645, DW_AT_bit_offset(0x0a), DW_AT_bit_size(0x01)
    5152                      .dwattr DW$645, DW_AT_data_member_location[DW_OP_plus_uconst 0x0]
    5153                      .dwattr DW$645, DW_AT_accessibility(DW_ACCESS_public)
    5154              DW$646  .dwtag  DW_TAG_member, DW_AT_type(*DW$T$19)
    5155                      .dwattr DW$646, DW_AT_name("GPIOA6"), DW_AT_symbol_name("_GPIOA6")
    5156                      .dwattr DW$646, DW_AT_bit_offset(0x09), DW_AT_bit_size(0x01)
    5157                      .dwattr DW$646, DW_AT_data_member_location[DW_OP_plus_uconst 0x0]
    5158                      .dwattr DW$646, DW_AT_accessibility(DW_ACCESS_public)
    5159              DW$647  .dwtag  DW_TAG_member, DW_AT_type(*DW$T$19)
    5160                      .dwattr DW$647, DW_AT_name("GPIOA7"), DW_AT_symbol_name("_GPIOA7")
    5161                      .dwattr DW$647, DW_AT_bit_offset(0x08), DW_AT_bit_size(0x01)
    5162                      .dwattr DW$647, DW_AT_data_member_location[DW_OP_plus_uconst 0x0]
    5163                      .dwattr DW$647, DW_AT_accessibility(DW_ACCESS_public)
    5164              DW$648  .dwtag  DW_TAG_member, DW_AT_type(*DW$T$19)
    5165                      .dwattr DW$648, DW_AT_name("GPIOA8"), DW_AT_symbol_name("_GPIOA8")
    5166                      .dwattr DW$648, DW_AT_bit_offset(0x07), DW_AT_bit_size(0x01)
    5167                      .dwattr DW$648, DW_AT_data_member_location[DW_OP_plus_uconst 0x0]
    5168                      .dwattr DW$648, DW_AT_accessibility(DW_ACCESS_public)
    5169              DW$649  .dwtag  DW_TAG_member, DW_AT_type(*DW$T$19)
TMS320C2000 COFF Assembler PC v4.1.3 Mon Dec 03 13:50:31 2012

Tools Copyright (c) 1996-2006 Texas Instruments Incorporated
C:\DOCUME~1\ADMINI~1\LOCALS~1\Temp\TI9922                            PAGE   98

    5170                      .dwattr DW$649, DW_AT_name("GPIOA9"), DW_AT_symbol_name("_GPIOA9")
    5171                      .dwattr DW$649, DW_AT_bit_offset(0x06), DW_AT_bit_size(0x01)
    5172                      .dwattr DW$649, DW_AT_data_member_location[DW_OP_plus_uconst 0x0]
    5173                      .dwattr DW$649, DW_AT_accessibility(DW_ACCESS_public)
    5174              DW$650  .dwtag  DW_TAG_member, DW_AT_type(*DW$T$19)
    5175                      .dwattr DW$650, DW_AT_name("GPIOA10"), DW_AT_symbol_name("_GPIOA10")
    5176                      .dwattr DW$650, DW_AT_bit_offset(0x05), DW_AT_bit_size(0x01)
    5177                      .dwattr DW$650, DW_AT_data_member_location[DW_OP_plus_uconst 0x0]
    5178                      .dwattr DW$650, DW_AT_accessibility(DW_ACCESS_public)
    5179              DW$651  .dwtag  DW_TAG_member, DW_AT_type(*DW$T$19)
    5180                      .dwattr DW$651, DW_AT_name("GPIOA11"), DW_AT_symbol_name("_GPIOA11")
    5181                      .dwattr DW$651, DW_AT_bit_offset(0x04), DW_AT_bit_size(0x01)
    5182                      .dwattr DW$651, DW_AT_data_member_location[DW_OP_plus_uconst 0x0]
    5183                      .dwattr DW$651, DW_AT_accessibility(DW_ACCESS_public)
    5184              DW$652  .dwtag  DW_TAG_member, DW_AT_type(*DW$T$19)
    5185                      .dwattr DW$652, DW_AT_name("GPIOA12"), DW_AT_symbol_name("_GPIOA12")
    5186                      .dwattr DW$652, DW_AT_bit_offset(0x03), DW_AT_bit_size(0x01)
    5187                      .dwattr DW$652, DW_AT_data_member_location[DW_OP_plus_uconst 0x0]
    5188                      .dwattr DW$652, DW_AT_accessibility(DW_ACCESS_public)
    5189              DW$653  .dwtag  DW_TAG_member, DW_AT_type(*DW$T$19)
    5190                      .dwattr DW$653, DW_AT_name("GPIOA13"), DW_AT_symbol_name("_GPIOA13")
    5191                      .dwattr DW$653, DW_AT_bit_offset(0x02), DW_AT_bit_size(0x01)
    5192                      .dwattr DW$653, DW_AT_data_member_location[DW_OP_plus_uconst 0x0]
    5193                      .dwattr DW$653, DW_AT_accessibility(DW_ACCESS_public)
    5194              DW$654  .dwtag  DW_TAG_member, DW_AT_type(*DW$T$19)
    5195                      .dwattr DW$654, DW_AT_name("GPIOA14"), DW_AT_symbol_name("_GPIOA14")
    5196                      .dwattr DW$654, DW_AT_bit_offset(0x01), DW_AT_bit_size(0x01)
    5197                      .dwattr DW$654, DW_AT_data_member_location[DW_OP_plus_uconst 0x0]
    5198                      .dwattr DW$654, DW_AT_accessibility(DW_ACCESS_public)
    5199              DW$655  .dwtag  DW_TAG_member, DW_AT_type(*DW$T$19)
    5200                      .dwattr DW$655, DW_AT_name("GPIOA15"), DW_AT_symbol_name("_GPIOA15")
    5201                      .dwattr DW$655, DW_AT_bit_offset(0x00), DW_AT_bit_size(0x01)
    5202                      .dwattr DW$655, DW_AT_data_member_location[DW_OP_plus_uconst 0x0]
    5203                      .dwattr DW$655, DW_AT_accessibility(DW_ACCESS_public)
    5204                      .dwendtag DW$T$58
    5205              
    5206              
    5207              DW$T$60 .dwtag  DW_TAG_structure_type
    5208                      .dwattr DW$T$60, DW_AT_name("GPACLEAR_BITS")
    5209                      .dwattr DW$T$60, DW_AT_byte_size(0x01)
    5210              DW$656  .dwtag  DW_TAG_member, DW_AT_type(*DW$T$19)
    5211                      .dwattr DW$656, DW_AT_name("GPIOA0"), DW_AT_symbol_name("_GPIOA0")
    5212                      .dwattr DW$656, DW_AT_bit_offset(0x0f), DW_AT_bit_size(0x01)
    5213                      .dwattr DW$656, DW_AT_data_member_location[DW_OP_plus_uconst 0x0]
    5214                      .dwattr DW$656, DW_AT_accessibility(DW_ACCESS_public)
    5215              DW$657  .dwtag  DW_TAG_member, DW_AT_type(*DW$T$19)
    5216                      .dwattr DW$657, DW_AT_name("GPIOA1"), DW_AT_symbol_name("_GPIOA1")
    5217                      .dwattr DW$657, DW_AT_bit_offset(0x0e), DW_AT_bit_size(0x01)
    5218                      .dwattr DW$657, DW_AT_data_member_location[DW_OP_plus_uconst 0x0]
    5219                      .dwattr DW$657, DW_AT_accessibility(DW_ACCESS_public)
    5220              DW$658  .dwtag  DW_TAG_member, DW_AT_type(*DW$T$19)
    5221                      .dwattr DW$658, DW_AT_name("GPIOA2"), DW_AT_symbol_name("_GPIOA2")
    5222                      .dwattr DW$658, DW_AT_bit_offset(0x0d), DW_AT_bit_size(0x01)
    5223                      .dwattr DW$658, DW_AT_data_member_location[DW_OP_plus_uconst 0x0]
    5224                      .dwattr DW$658, DW_AT_accessibility(DW_ACCESS_public)
TMS320C2000 COFF Assembler PC v4.1.3 Mon Dec 03 13:50:31 2012

Tools Copyright (c) 1996-2006 Texas Instruments Incorporated
C:\DOCUME~1\ADMINI~1\LOCALS~1\Temp\TI9922                            PAGE   99

    5225              DW$659  .dwtag  DW_TAG_member, DW_AT_type(*DW$T$19)
    5226                      .dwattr DW$659, DW_AT_name("GPIOA3"), DW_AT_symbol_name("_GPIOA3")
    5227                      .dwattr DW$659, DW_AT_bit_offset(0x0c), DW_AT_bit_size(0x01)
    5228                      .dwattr DW$659, DW_AT_data_member_location[DW_OP_plus_uconst 0x0]
    5229                      .dwattr DW$659, DW_AT_accessibility(DW_ACCESS_public)
    5230              DW$660  .dwtag  DW_TAG_member, DW_AT_type(*DW$T$19)
    5231                      .dwattr DW$660, DW_AT_name("GPIOA4"), DW_AT_symbol_name("_GPIOA4")
    5232                      .dwattr DW$660, DW_AT_bit_offset(0x0b), DW_AT_bit_size(0x01)
    5233                      .dwattr DW$660, DW_AT_data_member_location[DW_OP_plus_uconst 0x0]
    5234                      .dwattr DW$660, DW_AT_accessibility(DW_ACCESS_public)
    5235              DW$661  .dwtag  DW_TAG_member, DW_AT_type(*DW$T$19)
    5236                      .dwattr DW$661, DW_AT_name("GPIOA5"), DW_AT_symbol_name("_GPIOA5")
    5237                      .dwattr DW$661, DW_AT_bit_offset(0x0a), DW_AT_bit_size(0x01)
    5238                      .dwattr DW$661, DW_AT_data_member_location[DW_OP_plus_uconst 0x0]
    5239                      .dwattr DW$661, DW_AT_accessibility(DW_ACCESS_public)
    5240              DW$662  .dwtag  DW_TAG_member, DW_AT_type(*DW$T$19)
    5241                      .dwattr DW$662, DW_AT_name("GPIOA6"), DW_AT_symbol_name("_GPIOA6")
    5242                      .dwattr DW$662, DW_AT_bit_offset(0x09), DW_AT_bit_size(0x01)
    5243                      .dwattr DW$662, DW_AT_data_member_location[DW_OP_plus_uconst 0x0]
    5244                      .dwattr DW$662, DW_AT_accessibility(DW_ACCESS_public)
    5245              DW$663  .dwtag  DW_TAG_member, DW_AT_type(*DW$T$19)
    5246                      .dwattr DW$663, DW_AT_name("GPIOA7"), DW_AT_symbol_name("_GPIOA7")
    5247                      .dwattr DW$663, DW_AT_bit_offset(0x08), DW_AT_bit_size(0x01)
    5248                      .dwattr DW$663, DW_AT_data_member_location[DW_OP_plus_uconst 0x0]
    5249                      .dwattr DW$663, DW_AT_accessibility(DW_ACCESS_public)
    5250              DW$664  .dwtag  DW_TAG_member, DW_AT_type(*DW$T$19)
    5251                      .dwattr DW$664, DW_AT_name("GPIOA8"), DW_AT_symbol_name("_GPIOA8")
    5252                      .dwattr DW$664, DW_AT_bit_offset(0x07), DW_AT_bit_size(0x01)
    5253                      .dwattr DW$664, DW_AT_data_member_location[DW_OP_plus_uconst 0x0]
    5254                      .dwattr DW$664, DW_AT_accessibility(DW_ACCESS_public)
    5255              DW$665  .dwtag  DW_TAG_member, DW_AT_type(*DW$T$19)
    5256                      .dwattr DW$665, DW_AT_name("GPIOA9"), DW_AT_symbol_name("_GPIOA9")
    5257                      .dwattr DW$665, DW_AT_bit_offset(0x06), DW_AT_bit_size(0x01)
    5258                      .dwattr DW$665, DW_AT_data_member_location[DW_OP_plus_uconst 0x0]
    5259                      .dwattr DW$665, DW_AT_accessibility(DW_ACCESS_public)
    5260              DW$666  .dwtag  DW_TAG_member, DW_AT_type(*DW$T$19)
    5261                      .dwattr DW$666, DW_AT_name("GPIOA10"), DW_AT_symbol_name("_GPIOA10")
    5262                      .dwattr DW$666, DW_AT_bit_offset(0x05), DW_AT_bit_size(0x01)
    5263                      .dwattr DW$666, DW_AT_data_member_location[DW_OP_plus_uconst 0x0]
    5264                      .dwattr DW$666, DW_AT_accessibility(DW_ACCESS_public)
    5265              DW$667  .dwtag  DW_TAG_member, DW_AT_type(*DW$T$19)
    5266                      .dwattr DW$667, DW_AT_name("GPIOA11"), DW_AT_symbol_name("_GPIOA11")
    5267                      .dwattr DW$667, DW_AT_bit_offset(0x04), DW_AT_bit_size(0x01)
    5268                      .dwattr DW$667, DW_AT_data_member_location[DW_OP_plus_uconst 0x0]
    5269                      .dwattr DW$667, DW_AT_accessibility(DW_ACCESS_public)
    5270              DW$668  .dwtag  DW_TAG_member, DW_AT_type(*DW$T$19)
    5271                      .dwattr DW$668, DW_AT_name("GPIOA12"), DW_AT_symbol_name("_GPIOA12")
    5272                      .dwattr DW$668, DW_AT_bit_offset(0x03), DW_AT_bit_size(0x01)
    5273                      .dwattr DW$668, DW_AT_data_member_location[DW_OP_plus_uconst 0x0]
    5274                      .dwattr DW$668, DW_AT_accessibility(DW_ACCESS_public)
    5275              DW$669  .dwtag  DW_TAG_member, DW_AT_type(*DW$T$19)
    5276                      .dwattr DW$669, DW_AT_name("GPIOA13"), DW_AT_symbol_name("_GPIOA13")
    5277                      .dwattr DW$669, DW_AT_bit_offset(0x02), DW_AT_bit_size(0x01)
    5278                      .dwattr DW$669, DW_AT_data_member_location[DW_OP_plus_uconst 0x0]
    5279                      .dwattr DW$669, DW_AT_accessibility(DW_ACCESS_public)
TMS320C2000 COFF Assembler PC v4.1.3 Mon Dec 03 13:50:31 2012

Tools Copyright (c) 1996-2006 Texas Instruments Incorporated
C:\DOCUME~1\ADMINI~1\LOCALS~1\Temp\TI9922                            PAGE  100

    5280              DW$670  .dwtag  DW_TAG_member, DW_AT_type(*DW$T$19)
    5281                      .dwattr DW$670, DW_AT_name("GPIOA14"), DW_AT_symbol_name("_GPIOA14")
    5282                      .dwattr DW$670, DW_AT_bit_offset(0x01), DW_AT_bit_size(0x01)
    5283                      .dwattr DW$670, DW_AT_data_member_location[DW_OP_plus_uconst 0x0]
    5284                      .dwattr DW$670, DW_AT_accessibility(DW_ACCESS_public)
    5285              DW$671  .dwtag  DW_TAG_member, DW_AT_type(*DW$T$19)
    5286                      .dwattr DW$671, DW_AT_name("GPIOA15"), DW_AT_symbol_name("_GPIOA15")
    5287                      .dwattr DW$671, DW_AT_bit_offset(0x00), DW_AT_bit_size(0x01)
    5288                      .dwattr DW$671, DW_AT_data_member_location[DW_OP_plus_uconst 0x0]
    5289                      .dwattr DW$671, DW_AT_accessibility(DW_ACCESS_public)
    5290                      .dwendtag DW$T$60
    5291              
    5292              
    5293              DW$T$62 .dwtag  DW_TAG_structure_type
    5294                      .dwattr DW$T$62, DW_AT_name("GPATOGGLE_BITS")
    5295                      .dwattr DW$T$62, DW_AT_byte_size(0x01)
    5296              DW$672  .dwtag  DW_TAG_member, DW_AT_type(*DW$T$19)
    5297                      .dwattr DW$672, DW_AT_name("GPIOA0"), DW_AT_symbol_name("_GPIOA0")
    5298                      .dwattr DW$672, DW_AT_bit_offset(0x0f), DW_AT_bit_size(0x01)
    5299                      .dwattr DW$672, DW_AT_data_member_location[DW_OP_plus_uconst 0x0]
    5300                      .dwattr DW$672, DW_AT_accessibility(DW_ACCESS_public)
    5301              DW$673  .dwtag  DW_TAG_member, DW_AT_type(*DW$T$19)
    5302                      .dwattr DW$673, DW_AT_name("GPIOA1"), DW_AT_symbol_name("_GPIOA1")
    5303                      .dwattr DW$673, DW_AT_bit_offset(0x0e), DW_AT_bit_size(0x01)
    5304                      .dwattr DW$673, DW_AT_data_member_location[DW_OP_plus_uconst 0x0]
    5305                      .dwattr DW$673, DW_AT_accessibility(DW_ACCESS_public)
    5306              DW$674  .dwtag  DW_TAG_member, DW_AT_type(*DW$T$19)
    5307                      .dwattr DW$674, DW_AT_name("GPIOA2"), DW_AT_symbol_name("_GPIOA2")
    5308                      .dwattr DW$674, DW_AT_bit_offset(0x0d), DW_AT_bit_size(0x01)
    5309                      .dwattr DW$674, DW_AT_data_member_location[DW_OP_plus_uconst 0x0]
    5310                      .dwattr DW$674, DW_AT_accessibility(DW_ACCESS_public)
    5311              DW$675  .dwtag  DW_TAG_member, DW_AT_type(*DW$T$19)
    5312                      .dwattr DW$675, DW_AT_name("GPIOA3"), DW_AT_symbol_name("_GPIOA3")
    5313                      .dwattr DW$675, DW_AT_bit_offset(0x0c), DW_AT_bit_size(0x01)
    5314                      .dwattr DW$675, DW_AT_data_member_location[DW_OP_plus_uconst 0x0]
    5315                      .dwattr DW$675, DW_AT_accessibility(DW_ACCESS_public)
    5316              DW$676  .dwtag  DW_TAG_member, DW_AT_type(*DW$T$19)
    5317                      .dwattr DW$676, DW_AT_name("GPIOA4"), DW_AT_symbol_name("_GPIOA4")
    5318                      .dwattr DW$676, DW_AT_bit_offset(0x0b), DW_AT_bit_size(0x01)
    5319                      .dwattr DW$676, DW_AT_data_member_location[DW_OP_plus_uconst 0x0]
    5320                      .dwattr DW$676, DW_AT_accessibility(DW_ACCESS_public)
    5321              DW$677  .dwtag  DW_TAG_member, DW_AT_type(*DW$T$19)
    5322                      .dwattr DW$677, DW_AT_name("GPIOA5"), DW_AT_symbol_name("_GPIOA5")
    5323                      .dwattr DW$677, DW_AT_bit_offset(0x0a), DW_AT_bit_size(0x01)
    5324                      .dwattr DW$677, DW_AT_data_member_location[DW_OP_plus_uconst 0x0]
    5325                      .dwattr DW$677, DW_AT_accessibility(DW_ACCESS_public)
    5326              DW$678  .dwtag  DW_TAG_member, DW_AT_type(*DW$T$19)
    5327                      .dwattr DW$678, DW_AT_name("GPIOA6"), DW_AT_symbol_name("_GPIOA6")
    5328                      .dwattr DW$678, DW_AT_bit_offset(0x09), DW_AT_bit_size(0x01)
    5329                      .dwattr DW$678, DW_AT_data_member_location[DW_OP_plus_uconst 0x0]
    5330                      .dwattr DW$678, DW_AT_accessibility(DW_ACCESS_public)
    5331              DW$679  .dwtag  DW_TAG_member, DW_AT_type(*DW$T$19)
    5332                      .dwattr DW$679, DW_AT_name("GPIOA7"), DW_AT_symbol_name("_GPIOA7")
    5333                      .dwattr DW$679, DW_AT_bit_offset(0x08), DW_AT_bit_size(0x01)
    5334                      .dwattr DW$679, DW_AT_data_member_location[DW_OP_plus_uconst 0x0]
TMS320C2000 COFF Assembler PC v4.1.3 Mon Dec 03 13:50:31 2012

Tools Copyright (c) 1996-2006 Texas Instruments Incorporated
C:\DOCUME~1\ADMINI~1\LOCALS~1\Temp\TI9922                            PAGE  101

    5335                      .dwattr DW$679, DW_AT_accessibility(DW_ACCESS_public)
    5336              DW$680  .dwtag  DW_TAG_member, DW_AT_type(*DW$T$19)
    5337                      .dwattr DW$680, DW_AT_name("GPIOA8"), DW_AT_symbol_name("_GPIOA8")
    5338                      .dwattr DW$680, DW_AT_bit_offset(0x07), DW_AT_bit_size(0x01)
    5339                      .dwattr DW$680, DW_AT_data_member_location[DW_OP_plus_uconst 0x0]
    5340                      .dwattr DW$680, DW_AT_accessibility(DW_ACCESS_public)
    5341              DW$681  .dwtag  DW_TAG_member, DW_AT_type(*DW$T$19)
    5342                      .dwattr DW$681, DW_AT_name("GPIOA9"), DW_AT_symbol_name("_GPIOA9")
    5343                      .dwattr DW$681, DW_AT_bit_offset(0x06), DW_AT_bit_size(0x01)
    5344                      .dwattr DW$681, DW_AT_data_member_location[DW_OP_plus_uconst 0x0]
    5345                      .dwattr DW$681, DW_AT_accessibility(DW_ACCESS_public)
    5346              DW$682  .dwtag  DW_TAG_member, DW_AT_type(*DW$T$19)
    5347                      .dwattr DW$682, DW_AT_name("GPIOA10"), DW_AT_symbol_name("_GPIOA10")
    5348                      .dwattr DW$682, DW_AT_bit_offset(0x05), DW_AT_bit_size(0x01)
    5349                      .dwattr DW$682, DW_AT_data_member_location[DW_OP_plus_uconst 0x0]
    5350                      .dwattr DW$682, DW_AT_accessibility(DW_ACCESS_public)
    5351              DW$683  .dwtag  DW_TAG_member, DW_AT_type(*DW$T$19)
    5352                      .dwattr DW$683, DW_AT_name("GPIOA11"), DW_AT_symbol_name("_GPIOA11")
    5353                      .dwattr DW$683, DW_AT_bit_offset(0x04), DW_AT_bit_size(0x01)
    5354                      .dwattr DW$683, DW_AT_data_member_location[DW_OP_plus_uconst 0x0]
    5355                      .dwattr DW$683, DW_AT_accessibility(DW_ACCESS_public)
    5356              DW$684  .dwtag  DW_TAG_member, DW_AT_type(*DW$T$19)
    5357                      .dwattr DW$684, DW_AT_name("GPIOA12"), DW_AT_symbol_name("_GPIOA12")
    5358                      .dwattr DW$684, DW_AT_bit_offset(0x03), DW_AT_bit_size(0x01)
    5359                      .dwattr DW$684, DW_AT_data_member_location[DW_OP_plus_uconst 0x0]
    5360                      .dwattr DW$684, DW_AT_accessibility(DW_ACCESS_public)
    5361              DW$685  .dwtag  DW_TAG_member, DW_AT_type(*DW$T$19)
    5362                      .dwattr DW$685, DW_AT_name("GPIOA13"), DW_AT_symbol_name("_GPIOA13")
    5363                      .dwattr DW$685, DW_AT_bit_offset(0x02), DW_AT_bit_size(0x01)
    5364                      .dwattr DW$685, DW_AT_data_member_location[DW_OP_plus_uconst 0x0]
    5365                      .dwattr DW$685, DW_AT_accessibility(DW_ACCESS_public)
    5366              DW$686  .dwtag  DW_TAG_member, DW_AT_type(*DW$T$19)
    5367                      .dwattr DW$686, DW_AT_name("GPIOA14"), DW_AT_symbol_name("_GPIOA14")
    5368                      .dwattr DW$686, DW_AT_bit_offset(0x01), DW_AT_bit_size(0x01)
    5369                      .dwattr DW$686, DW_AT_data_member_location[DW_OP_plus_uconst 0x0]
    5370                      .dwattr DW$686, DW_AT_accessibility(DW_ACCESS_public)
    5371              DW$687  .dwtag  DW_TAG_member, DW_AT_type(*DW$T$19)
    5372                      .dwattr DW$687, DW_AT_name("GPIOA15"), DW_AT_symbol_name("_GPIOA15")
    5373                      .dwattr DW$687, DW_AT_bit_offset(0x00), DW_AT_bit_size(0x01)
    5374                      .dwattr DW$687, DW_AT_data_member_location[DW_OP_plus_uconst 0x0]
    5375                      .dwattr DW$687, DW_AT_accessibility(DW_ACCESS_public)
    5376                      .dwendtag DW$T$62
    5377              
    5378              
    5379              DW$T$64 .dwtag  DW_TAG_structure_type
    5380                      .dwattr DW$T$64, DW_AT_name("GPBDAT_BITS")
    5381                      .dwattr DW$T$64, DW_AT_byte_size(0x01)
    5382              DW$688  .dwtag  DW_TAG_member, DW_AT_type(*DW$T$19)
    5383                      .dwattr DW$688, DW_AT_name("GPIOB0"), DW_AT_symbol_name("_GPIOB0")
    5384                      .dwattr DW$688, DW_AT_bit_offset(0x0f), DW_AT_bit_size(0x01)
    5385                      .dwattr DW$688, DW_AT_data_member_location[DW_OP_plus_uconst 0x0]
    5386                      .dwattr DW$688, DW_AT_accessibility(DW_ACCESS_public)
    5387              DW$689  .dwtag  DW_TAG_member, DW_AT_type(*DW$T$19)
    5388                      .dwattr DW$689, DW_AT_name("GPIOB1"), DW_AT_symbol_name("_GPIOB1")
    5389                      .dwattr DW$689, DW_AT_bit_offset(0x0e), DW_AT_bit_size(0x01)
TMS320C2000 COFF Assembler PC v4.1.3 Mon Dec 03 13:50:31 2012

Tools Copyright (c) 1996-2006 Texas Instruments Incorporated
C:\DOCUME~1\ADMINI~1\LOCALS~1\Temp\TI9922                            PAGE  102

    5390                      .dwattr DW$689, DW_AT_data_member_location[DW_OP_plus_uconst 0x0]
    5391                      .dwattr DW$689, DW_AT_accessibility(DW_ACCESS_public)
    5392              DW$690  .dwtag  DW_TAG_member, DW_AT_type(*DW$T$19)
    5393                      .dwattr DW$690, DW_AT_name("GPIOB2"), DW_AT_symbol_name("_GPIOB2")
    5394                      .dwattr DW$690, DW_AT_bit_offset(0x0d), DW_AT_bit_size(0x01)
    5395                      .dwattr DW$690, DW_AT_data_member_location[DW_OP_plus_uconst 0x0]
    5396                      .dwattr DW$690, DW_AT_accessibility(DW_ACCESS_public)
    5397              DW$691  .dwtag  DW_TAG_member, DW_AT_type(*DW$T$19)
    5398                      .dwattr DW$691, DW_AT_name("GPIOB3"), DW_AT_symbol_name("_GPIOB3")
    5399                      .dwattr DW$691, DW_AT_bit_offset(0x0c), DW_AT_bit_size(0x01)
    5400                      .dwattr DW$691, DW_AT_data_member_location[DW_OP_plus_uconst 0x0]
    5401                      .dwattr DW$691, DW_AT_accessibility(DW_ACCESS_public)
    5402              DW$692  .dwtag  DW_TAG_member, DW_AT_type(*DW$T$19)
    5403                      .dwattr DW$692, DW_AT_name("GPIOB4"), DW_AT_symbol_name("_GPIOB4")
    5404                      .dwattr DW$692, DW_AT_bit_offset(0x0b), DW_AT_bit_size(0x01)
    5405                      .dwattr DW$692, DW_AT_data_member_location[DW_OP_plus_uconst 0x0]
    5406                      .dwattr DW$692, DW_AT_accessibility(DW_ACCESS_public)
    5407              DW$693  .dwtag  DW_TAG_member, DW_AT_type(*DW$T$19)
    5408                      .dwattr DW$693, DW_AT_name("GPIOB5"), DW_AT_symbol_name("_GPIOB5")
    5409                      .dwattr DW$693, DW_AT_bit_offset(0x0a), DW_AT_bit_size(0x01)
    5410                      .dwattr DW$693, DW_AT_data_member_location[DW_OP_plus_uconst 0x0]
    5411                      .dwattr DW$693, DW_AT_accessibility(DW_ACCESS_public)
    5412              DW$694  .dwtag  DW_TAG_member, DW_AT_type(*DW$T$19)
    5413                      .dwattr DW$694, DW_AT_name("GPIOB6"), DW_AT_symbol_name("_GPIOB6")
    5414                      .dwattr DW$694, DW_AT_bit_offset(0x09), DW_AT_bit_size(0x01)
    5415                      .dwattr DW$694, DW_AT_data_member_location[DW_OP_plus_uconst 0x0]
    5416                      .dwattr DW$694, DW_AT_accessibility(DW_ACCESS_public)
    5417              DW$695  .dwtag  DW_TAG_member, DW_AT_type(*DW$T$19)
    5418                      .dwattr DW$695, DW_AT_name("GPIOB7"), DW_AT_symbol_name("_GPIOB7")
    5419                      .dwattr DW$695, DW_AT_bit_offset(0x08), DW_AT_bit_size(0x01)
    5420                      .dwattr DW$695, DW_AT_data_member_location[DW_OP_plus_uconst 0x0]
    5421                      .dwattr DW$695, DW_AT_accessibility(DW_ACCESS_public)
    5422              DW$696  .dwtag  DW_TAG_member, DW_AT_type(*DW$T$19)
    5423                      .dwattr DW$696, DW_AT_name("GPIOB8"), DW_AT_symbol_name("_GPIOB8")
    5424                      .dwattr DW$696, DW_AT_bit_offset(0x07), DW_AT_bit_size(0x01)
    5425                      .dwattr DW$696, DW_AT_data_member_location[DW_OP_plus_uconst 0x0]
    5426                      .dwattr DW$696, DW_AT_accessibility(DW_ACCESS_public)
    5427              DW$697  .dwtag  DW_TAG_member, DW_AT_type(*DW$T$19)
    5428                      .dwattr DW$697, DW_AT_name("GPIOB9"), DW_AT_symbol_name("_GPIOB9")
    5429                      .dwattr DW$697, DW_AT_bit_offset(0x06), DW_AT_bit_size(0x01)
    5430                      .dwattr DW$697, DW_AT_data_member_location[DW_OP_plus_uconst 0x0]
    5431                      .dwattr DW$697, DW_AT_accessibility(DW_ACCESS_public)
    5432              DW$698  .dwtag  DW_TAG_member, DW_AT_type(*DW$T$19)
    5433                      .dwattr DW$698, DW_AT_name("GPIOB10"), DW_AT_symbol_name("_GPIOB10")
    5434                      .dwattr DW$698, DW_AT_bit_offset(0x05), DW_AT_bit_size(0x01)
    5435                      .dwattr DW$698, DW_AT_data_member_location[DW_OP_plus_uconst 0x0]
    5436                      .dwattr DW$698, DW_AT_accessibility(DW_ACCESS_public)
    5437              DW$699  .dwtag  DW_TAG_member, DW_AT_type(*DW$T$19)
    5438                      .dwattr DW$699, DW_AT_name("GPIOB11"), DW_AT_symbol_name("_GPIOB11")
    5439                      .dwattr DW$699, DW_AT_bit_offset(0x04), DW_AT_bit_size(0x01)
    5440                      .dwattr DW$699, DW_AT_data_member_location[DW_OP_plus_uconst 0x0]
    5441                      .dwattr DW$699, DW_AT_accessibility(DW_ACCESS_public)
    5442              DW$700  .dwtag  DW_TAG_member, DW_AT_type(*DW$T$19)
    5443                      .dwattr DW$700, DW_AT_name("GPIOB12"), DW_AT_symbol_name("_GPIOB12")
    5444                      .dwattr DW$700, DW_AT_bit_offset(0x03), DW_AT_bit_size(0x01)
TMS320C2000 COFF Assembler PC v4.1.3 Mon Dec 03 13:50:31 2012

Tools Copyright (c) 1996-2006 Texas Instruments Incorporated
C:\DOCUME~1\ADMINI~1\LOCALS~1\Temp\TI9922                            PAGE  103

    5445                      .dwattr DW$700, DW_AT_data_member_location[DW_OP_plus_uconst 0x0]
    5446                      .dwattr DW$700, DW_AT_accessibility(DW_ACCESS_public)
    5447              DW$701  .dwtag  DW_TAG_member, DW_AT_type(*DW$T$19)
    5448                      .dwattr DW$701, DW_AT_name("GPIOB13"), DW_AT_symbol_name("_GPIOB13")
    5449                      .dwattr DW$701, DW_AT_bit_offset(0x02), DW_AT_bit_size(0x01)
    5450                      .dwattr DW$701, DW_AT_data_member_location[DW_OP_plus_uconst 0x0]
    5451                      .dwattr DW$701, DW_AT_accessibility(DW_ACCESS_public)
    5452              DW$702  .dwtag  DW_TAG_member, DW_AT_type(*DW$T$19)
    5453                      .dwattr DW$702, DW_AT_name("GPIOB14"), DW_AT_symbol_name("_GPIOB14")
    5454                      .dwattr DW$702, DW_AT_bit_offset(0x01), DW_AT_bit_size(0x01)
    5455                      .dwattr DW$702, DW_AT_data_member_location[DW_OP_plus_uconst 0x0]
    5456                      .dwattr DW$702, DW_AT_accessibility(DW_ACCESS_public)
    5457              DW$703  .dwtag  DW_TAG_member, DW_AT_type(*DW$T$19)
    5458                      .dwattr DW$703, DW_AT_name("GPIOB15"), DW_AT_symbol_name("_GPIOB15")
    5459                      .dwattr DW$703, DW_AT_bit_offset(0x00), DW_AT_bit_size(0x01)
    5460                      .dwattr DW$703, DW_AT_data_member_location[DW_OP_plus_uconst 0x0]
    5461                      .dwattr DW$703, DW_AT_accessibility(DW_ACCESS_public)
    5462                      .dwendtag DW$T$64
    5463              
    5464              
    5465              DW$T$66 .dwtag  DW_TAG_structure_type
    5466                      .dwattr DW$T$66, DW_AT_name("GPBSET_BITS")
    5467                      .dwattr DW$T$66, DW_AT_byte_size(0x01)
    5468              DW$704  .dwtag  DW_TAG_member, DW_AT_type(*DW$T$19)
    5469                      .dwattr DW$704, DW_AT_name("GPIOB0"), DW_AT_symbol_name("_GPIOB0")
    5470                      .dwattr DW$704, DW_AT_bit_offset(0x0f), DW_AT_bit_size(0x01)
    5471                      .dwattr DW$704, DW_AT_data_member_location[DW_OP_plus_uconst 0x0]
    5472                      .dwattr DW$704, DW_AT_accessibility(DW_ACCESS_public)
    5473              DW$705  .dwtag  DW_TAG_member, DW_AT_type(*DW$T$19)
    5474                      .dwattr DW$705, DW_AT_name("GPIOB1"), DW_AT_symbol_name("_GPIOB1")
    5475                      .dwattr DW$705, DW_AT_bit_offset(0x0e), DW_AT_bit_size(0x01)
    5476                      .dwattr DW$705, DW_AT_data_member_location[DW_OP_plus_uconst 0x0]
    5477                      .dwattr DW$705, DW_AT_accessibility(DW_ACCESS_public)
    5478              DW$706  .dwtag  DW_TAG_member, DW_AT_type(*DW$T$19)
    5479                      .dwattr DW$706, DW_AT_name("GPIOB2"), DW_AT_symbol_name("_GPIOB2")
    5480                      .dwattr DW$706, DW_AT_bit_offset(0x0d), DW_AT_bit_size(0x01)
    5481                      .dwattr DW$706, DW_AT_data_member_location[DW_OP_plus_uconst 0x0]
    5482                      .dwattr DW$706, DW_AT_accessibility(DW_ACCESS_public)
    5483              DW$707  .dwtag  DW_TAG_member, DW_AT_type(*DW$T$19)
    5484                      .dwattr DW$707, DW_AT_name("GPIOB3"), DW_AT_symbol_name("_GPIOB3")
    5485                      .dwattr DW$707, DW_AT_bit_offset(0x0c), DW_AT_bit_size(0x01)
    5486                      .dwattr DW$707, DW_AT_data_member_location[DW_OP_plus_uconst 0x0]
    5487                      .dwattr DW$707, DW_AT_accessibility(DW_ACCESS_public)
    5488              DW$708  .dwtag  DW_TAG_member, DW_AT_type(*DW$T$19)
    5489                      .dwattr DW$708, DW_AT_name("GPIOB4"), DW_AT_symbol_name("_GPIOB4")
    5490                      .dwattr DW$708, DW_AT_bit_offset(0x0b), DW_AT_bit_size(0x01)
    5491                      .dwattr DW$708, DW_AT_data_member_location[DW_OP_plus_uconst 0x0]
    5492                      .dwattr DW$708, DW_AT_accessibility(DW_ACCESS_public)
    5493              DW$709  .dwtag  DW_TAG_member, DW_AT_type(*DW$T$19)
    5494                      .dwattr DW$709, DW_AT_name("GPIOB5"), DW_AT_symbol_name("_GPIOB5")
    5495                      .dwattr DW$709, DW_AT_bit_offset(0x0a), DW_AT_bit_size(0x01)
    5496                      .dwattr DW$709, DW_AT_data_member_location[DW_OP_plus_uconst 0x0]
    5497                      .dwattr DW$709, DW_AT_accessibility(DW_ACCESS_public)
    5498              DW$710  .dwtag  DW_TAG_member, DW_AT_type(*DW$T$19)
    5499                      .dwattr DW$710, DW_AT_name("GPIOB6"), DW_AT_symbol_name("_GPIOB6")
TMS320C2000 COFF Assembler PC v4.1.3 Mon Dec 03 13:50:31 2012

Tools Copyright (c) 1996-2006 Texas Instruments Incorporated
C:\DOCUME~1\ADMINI~1\LOCALS~1\Temp\TI9922                            PAGE  104

    5500                      .dwattr DW$710, DW_AT_bit_offset(0x09), DW_AT_bit_size(0x01)
    5501                      .dwattr DW$710, DW_AT_data_member_location[DW_OP_plus_uconst 0x0]
    5502                      .dwattr DW$710, DW_AT_accessibility(DW_ACCESS_public)
    5503              DW$711  .dwtag  DW_TAG_member, DW_AT_type(*DW$T$19)
    5504                      .dwattr DW$711, DW_AT_name("GPIOB7"), DW_AT_symbol_name("_GPIOB7")
    5505                      .dwattr DW$711, DW_AT_bit_offset(0x08), DW_AT_bit_size(0x01)
    5506                      .dwattr DW$711, DW_AT_data_member_location[DW_OP_plus_uconst 0x0]
    5507                      .dwattr DW$711, DW_AT_accessibility(DW_ACCESS_public)
    5508              DW$712  .dwtag  DW_TAG_member, DW_AT_type(*DW$T$19)
    5509                      .dwattr DW$712, DW_AT_name("GPIOB8"), DW_AT_symbol_name("_GPIOB8")
    5510                      .dwattr DW$712, DW_AT_bit_offset(0x07), DW_AT_bit_size(0x01)
    5511                      .dwattr DW$712, DW_AT_data_member_location[DW_OP_plus_uconst 0x0]
    5512                      .dwattr DW$712, DW_AT_accessibility(DW_ACCESS_public)
    5513              DW$713  .dwtag  DW_TAG_member, DW_AT_type(*DW$T$19)
    5514                      .dwattr DW$713, DW_AT_name("GPIOB9"), DW_AT_symbol_name("_GPIOB9")
    5515                      .dwattr DW$713, DW_AT_bit_offset(0x06), DW_AT_bit_size(0x01)
    5516                      .dwattr DW$713, DW_AT_data_member_location[DW_OP_plus_uconst 0x0]
    5517                      .dwattr DW$713, DW_AT_accessibility(DW_ACCESS_public)
    5518              DW$714  .dwtag  DW_TAG_member, DW_AT_type(*DW$T$19)
    5519                      .dwattr DW$714, DW_AT_name("GPIOB10"), DW_AT_symbol_name("_GPIOB10")
    5520                      .dwattr DW$714, DW_AT_bit_offset(0x05), DW_AT_bit_size(0x01)
    5521                      .dwattr DW$714, DW_AT_data_member_location[DW_OP_plus_uconst 0x0]
    5522                      .dwattr DW$714, DW_AT_accessibility(DW_ACCESS_public)
    5523              DW$715  .dwtag  DW_TAG_member, DW_AT_type(*DW$T$19)
    5524                      .dwattr DW$715, DW_AT_name("GPIOB11"), DW_AT_symbol_name("_GPIOB11")
    5525                      .dwattr DW$715, DW_AT_bit_offset(0x04), DW_AT_bit_size(0x01)
    5526                      .dwattr DW$715, DW_AT_data_member_location[DW_OP_plus_uconst 0x0]
    5527                      .dwattr DW$715, DW_AT_accessibility(DW_ACCESS_public)
    5528              DW$716  .dwtag  DW_TAG_member, DW_AT_type(*DW$T$19)
    5529                      .dwattr DW$716, DW_AT_name("GPIOB12"), DW_AT_symbol_name("_GPIOB12")
    5530                      .dwattr DW$716, DW_AT_bit_offset(0x03), DW_AT_bit_size(0x01)
    5531                      .dwattr DW$716, DW_AT_data_member_location[DW_OP_plus_uconst 0x0]
    5532                      .dwattr DW$716, DW_AT_accessibility(DW_ACCESS_public)
    5533              DW$717  .dwtag  DW_TAG_member, DW_AT_type(*DW$T$19)
    5534                      .dwattr DW$717, DW_AT_name("GPIOB13"), DW_AT_symbol_name("_GPIOB13")
    5535                      .dwattr DW$717, DW_AT_bit_offset(0x02), DW_AT_bit_size(0x01)
    5536                      .dwattr DW$717, DW_AT_data_member_location[DW_OP_plus_uconst 0x0]
    5537                      .dwattr DW$717, DW_AT_accessibility(DW_ACCESS_public)
    5538              DW$718  .dwtag  DW_TAG_member, DW_AT_type(*DW$T$19)
    5539                      .dwattr DW$718, DW_AT_name("GPIOB14"), DW_AT_symbol_name("_GPIOB14")
    5540                      .dwattr DW$718, DW_AT_bit_offset(0x01), DW_AT_bit_size(0x01)
    5541                      .dwattr DW$718, DW_AT_data_member_location[DW_OP_plus_uconst 0x0]
    5542                      .dwattr DW$718, DW_AT_accessibility(DW_ACCESS_public)
    5543              DW$719  .dwtag  DW_TAG_member, DW_AT_type(*DW$T$19)
    5544                      .dwattr DW$719, DW_AT_name("GPIOB15"), DW_AT_symbol_name("_GPIOB15")
    5545                      .dwattr DW$719, DW_AT_bit_offset(0x00), DW_AT_bit_size(0x01)
    5546                      .dwattr DW$719, DW_AT_data_member_location[DW_OP_plus_uconst 0x0]
    5547                      .dwattr DW$719, DW_AT_accessibility(DW_ACCESS_public)
    5548                      .dwendtag DW$T$66
    5549              
    5550              
    5551              DW$T$68 .dwtag  DW_TAG_structure_type
    5552                      .dwattr DW$T$68, DW_AT_name("GPBCLEAR_BITS")
    5553                      .dwattr DW$T$68, DW_AT_byte_size(0x01)
    5554              DW$720  .dwtag  DW_TAG_member, DW_AT_type(*DW$T$19)
TMS320C2000 COFF Assembler PC v4.1.3 Mon Dec 03 13:50:31 2012

Tools Copyright (c) 1996-2006 Texas Instruments Incorporated
C:\DOCUME~1\ADMINI~1\LOCALS~1\Temp\TI9922                            PAGE  105

    5555                      .dwattr DW$720, DW_AT_name("GPIOB0"), DW_AT_symbol_name("_GPIOB0")
    5556                      .dwattr DW$720, DW_AT_bit_offset(0x0f), DW_AT_bit_size(0x01)
    5557                      .dwattr DW$720, DW_AT_data_member_location[DW_OP_plus_uconst 0x0]
    5558                      .dwattr DW$720, DW_AT_accessibility(DW_ACCESS_public)
    5559              DW$721  .dwtag  DW_TAG_member, DW_AT_type(*DW$T$19)
    5560                      .dwattr DW$721, DW_AT_name("GPIOB1"), DW_AT_symbol_name("_GPIOB1")
    5561                      .dwattr DW$721, DW_AT_bit_offset(0x0e), DW_AT_bit_size(0x01)
    5562                      .dwattr DW$721, DW_AT_data_member_location[DW_OP_plus_uconst 0x0]
    5563                      .dwattr DW$721, DW_AT_accessibility(DW_ACCESS_public)
    5564              DW$722  .dwtag  DW_TAG_member, DW_AT_type(*DW$T$19)
    5565                      .dwattr DW$722, DW_AT_name("GPIOB2"), DW_AT_symbol_name("_GPIOB2")
    5566                      .dwattr DW$722, DW_AT_bit_offset(0x0d), DW_AT_bit_size(0x01)
    5567                      .dwattr DW$722, DW_AT_data_member_location[DW_OP_plus_uconst 0x0]
    5568                      .dwattr DW$722, DW_AT_accessibility(DW_ACCESS_public)
    5569              DW$723  .dwtag  DW_TAG_member, DW_AT_type(*DW$T$19)
    5570                      .dwattr DW$723, DW_AT_name("GPIOB3"), DW_AT_symbol_name("_GPIOB3")
    5571                      .dwattr DW$723, DW_AT_bit_offset(0x0c), DW_AT_bit_size(0x01)
    5572                      .dwattr DW$723, DW_AT_data_member_location[DW_OP_plus_uconst 0x0]
    5573                      .dwattr DW$723, DW_AT_accessibility(DW_ACCESS_public)
    5574              DW$724  .dwtag  DW_TAG_member, DW_AT_type(*DW$T$19)
    5575                      .dwattr DW$724, DW_AT_name("GPIOB4"), DW_AT_symbol_name("_GPIOB4")
    5576                      .dwattr DW$724, DW_AT_bit_offset(0x0b), DW_AT_bit_size(0x01)
    5577                      .dwattr DW$724, DW_AT_data_member_location[DW_OP_plus_uconst 0x0]
    5578                      .dwattr DW$724, DW_AT_accessibility(DW_ACCESS_public)
    5579              DW$725  .dwtag  DW_TAG_member, DW_AT_type(*DW$T$19)
    5580                      .dwattr DW$725, DW_AT_name("GPIOB5"), DW_AT_symbol_name("_GPIOB5")
    5581                      .dwattr DW$725, DW_AT_bit_offset(0x0a), DW_AT_bit_size(0x01)
    5582                      .dwattr DW$725, DW_AT_data_member_location[DW_OP_plus_uconst 0x0]
    5583                      .dwattr DW$725, DW_AT_accessibility(DW_ACCESS_public)
    5584              DW$726  .dwtag  DW_TAG_member, DW_AT_type(*DW$T$19)
    5585                      .dwattr DW$726, DW_AT_name("GPIOB6"), DW_AT_symbol_name("_GPIOB6")
    5586                      .dwattr DW$726, DW_AT_bit_offset(0x09), DW_AT_bit_size(0x01)
    5587                      .dwattr DW$726, DW_AT_data_member_location[DW_OP_plus_uconst 0x0]
    5588                      .dwattr DW$726, DW_AT_accessibility(DW_ACCESS_public)
    5589              DW$727  .dwtag  DW_TAG_member, DW_AT_type(*DW$T$19)
    5590                      .dwattr DW$727, DW_AT_name("GPIOB7"), DW_AT_symbol_name("_GPIOB7")
    5591                      .dwattr DW$727, DW_AT_bit_offset(0x08), DW_AT_bit_size(0x01)
    5592                      .dwattr DW$727, DW_AT_data_member_location[DW_OP_plus_uconst 0x0]
    5593                      .dwattr DW$727, DW_AT_accessibility(DW_ACCESS_public)
    5594              DW$728  .dwtag  DW_TAG_member, DW_AT_type(*DW$T$19)
    5595                      .dwattr DW$728, DW_AT_name("GPIOB8"), DW_AT_symbol_name("_GPIOB8")
    5596                      .dwattr DW$728, DW_AT_bit_offset(0x07), DW_AT_bit_size(0x01)
    5597                      .dwattr DW$728, DW_AT_data_member_location[DW_OP_plus_uconst 0x0]
    5598                      .dwattr DW$728, DW_AT_accessibility(DW_ACCESS_public)
    5599              DW$729  .dwtag  DW_TAG_member, DW_AT_type(*DW$T$19)
    5600                      .dwattr DW$729, DW_AT_name("GPIOB9"), DW_AT_symbol_name("_GPIOB9")
    5601                      .dwattr DW$729, DW_AT_bit_offset(0x06), DW_AT_bit_size(0x01)
    5602                      .dwattr DW$729, DW_AT_data_member_location[DW_OP_plus_uconst 0x0]
    5603                      .dwattr DW$729, DW_AT_accessibility(DW_ACCESS_public)
    5604              DW$730  .dwtag  DW_TAG_member, DW_AT_type(*DW$T$19)
    5605                      .dwattr DW$730, DW_AT_name("GPIOB10"), DW_AT_symbol_name("_GPIOB10")
    5606                      .dwattr DW$730, DW_AT_bit_offset(0x05), DW_AT_bit_size(0x01)
    5607                      .dwattr DW$730, DW_AT_data_member_location[DW_OP_plus_uconst 0x0]
    5608                      .dwattr DW$730, DW_AT_accessibility(DW_ACCESS_public)
    5609              DW$731  .dwtag  DW_TAG_member, DW_AT_type(*DW$T$19)
TMS320C2000 COFF Assembler PC v4.1.3 Mon Dec 03 13:50:31 2012

Tools Copyright (c) 1996-2006 Texas Instruments Incorporated
C:\DOCUME~1\ADMINI~1\LOCALS~1\Temp\TI9922                            PAGE  106

    5610                      .dwattr DW$731, DW_AT_name("GPIOB11"), DW_AT_symbol_name("_GPIOB11")
    5611                      .dwattr DW$731, DW_AT_bit_offset(0x04), DW_AT_bit_size(0x01)
    5612                      .dwattr DW$731, DW_AT_data_member_location[DW_OP_plus_uconst 0x0]
    5613                      .dwattr DW$731, DW_AT_accessibility(DW_ACCESS_public)
    5614              DW$732  .dwtag  DW_TAG_member, DW_AT_type(*DW$T$19)
    5615                      .dwattr DW$732, DW_AT_name("GPIOB12"), DW_AT_symbol_name("_GPIOB12")
    5616                      .dwattr DW$732, DW_AT_bit_offset(0x03), DW_AT_bit_size(0x01)
    5617                      .dwattr DW$732, DW_AT_data_member_location[DW_OP_plus_uconst 0x0]
    5618                      .dwattr DW$732, DW_AT_accessibility(DW_ACCESS_public)
    5619              DW$733  .dwtag  DW_TAG_member, DW_AT_type(*DW$T$19)
    5620                      .dwattr DW$733, DW_AT_name("GPIOB13"), DW_AT_symbol_name("_GPIOB13")
    5621                      .dwattr DW$733, DW_AT_bit_offset(0x02), DW_AT_bit_size(0x01)
    5622                      .dwattr DW$733, DW_AT_data_member_location[DW_OP_plus_uconst 0x0]
    5623                      .dwattr DW$733, DW_AT_accessibility(DW_ACCESS_public)
    5624              DW$734  .dwtag  DW_TAG_member, DW_AT_type(*DW$T$19)
    5625                      .dwattr DW$734, DW_AT_name("GPIOB14"), DW_AT_symbol_name("_GPIOB14")
    5626                      .dwattr DW$734, DW_AT_bit_offset(0x01), DW_AT_bit_size(0x01)
    5627                      .dwattr DW$734, DW_AT_data_member_location[DW_OP_plus_uconst 0x0]
    5628                      .dwattr DW$734, DW_AT_accessibility(DW_ACCESS_public)
    5629              DW$735  .dwtag  DW_TAG_member, DW_AT_type(*DW$T$19)
    5630                      .dwattr DW$735, DW_AT_name("GPIOB15"), DW_AT_symbol_name("_GPIOB15")
    5631                      .dwattr DW$735, DW_AT_bit_offset(0x00), DW_AT_bit_size(0x01)
    5632                      .dwattr DW$735, DW_AT_data_member_location[DW_OP_plus_uconst 0x0]
    5633                      .dwattr DW$735, DW_AT_accessibility(DW_ACCESS_public)
    5634                      .dwendtag DW$T$68
    5635              
    5636              
    5637              DW$T$70 .dwtag  DW_TAG_structure_type
    5638                      .dwattr DW$T$70, DW_AT_name("GPBTOGGLE_BITS")
    5639                      .dwattr DW$T$70, DW_AT_byte_size(0x01)
    5640              DW$736  .dwtag  DW_TAG_member, DW_AT_type(*DW$T$19)
    5641                      .dwattr DW$736, DW_AT_name("GPIOB0"), DW_AT_symbol_name("_GPIOB0")
    5642                      .dwattr DW$736, DW_AT_bit_offset(0x0f), DW_AT_bit_size(0x01)
    5643                      .dwattr DW$736, DW_AT_data_member_location[DW_OP_plus_uconst 0x0]
    5644                      .dwattr DW$736, DW_AT_accessibility(DW_ACCESS_public)
    5645              DW$737  .dwtag  DW_TAG_member, DW_AT_type(*DW$T$19)
    5646                      .dwattr DW$737, DW_AT_name("GPIOB1"), DW_AT_symbol_name("_GPIOB1")
    5647                      .dwattr DW$737, DW_AT_bit_offset(0x0e), DW_AT_bit_size(0x01)
    5648                      .dwattr DW$737, DW_AT_data_member_location[DW_OP_plus_uconst 0x0]
    5649                      .dwattr DW$737, DW_AT_accessibility(DW_ACCESS_public)
    5650              DW$738  .dwtag  DW_TAG_member, DW_AT_type(*DW$T$19)
    5651                      .dwattr DW$738, DW_AT_name("GPIOB2"), DW_AT_symbol_name("_GPIOB2")
    5652                      .dwattr DW$738, DW_AT_bit_offset(0x0d), DW_AT_bit_size(0x01)
    5653                      .dwattr DW$738, DW_AT_data_member_location[DW_OP_plus_uconst 0x0]
    5654                      .dwattr DW$738, DW_AT_accessibility(DW_ACCESS_public)
    5655              DW$739  .dwtag  DW_TAG_member, DW_AT_type(*DW$T$19)
    5656                      .dwattr DW$739, DW_AT_name("GPIOB3"), DW_AT_symbol_name("_GPIOB3")
    5657                      .dwattr DW$739, DW_AT_bit_offset(0x0c), DW_AT_bit_size(0x01)
    5658                      .dwattr DW$739, DW_AT_data_member_location[DW_OP_plus_uconst 0x0]
    5659                      .dwattr DW$739, DW_AT_accessibility(DW_ACCESS_public)
    5660              DW$740  .dwtag  DW_TAG_member, DW_AT_type(*DW$T$19)
    5661                      .dwattr DW$740, DW_AT_name("GPIOB4"), DW_AT_symbol_name("_GPIOB4")
    5662                      .dwattr DW$740, DW_AT_bit_offset(0x0b), DW_AT_bit_size(0x01)
    5663                      .dwattr DW$740, DW_AT_data_member_location[DW_OP_plus_uconst 0x0]
    5664                      .dwattr DW$740, DW_AT_accessibility(DW_ACCESS_public)
TMS320C2000 COFF Assembler PC v4.1.3 Mon Dec 03 13:50:31 2012

Tools Copyright (c) 1996-2006 Texas Instruments Incorporated
C:\DOCUME~1\ADMINI~1\LOCALS~1\Temp\TI9922                            PAGE  107

    5665              DW$741  .dwtag  DW_TAG_member, DW_AT_type(*DW$T$19)
    5666                      .dwattr DW$741, DW_AT_name("GPIOB5"), DW_AT_symbol_name("_GPIOB5")
    5667                      .dwattr DW$741, DW_AT_bit_offset(0x0a), DW_AT_bit_size(0x01)
    5668                      .dwattr DW$741, DW_AT_data_member_location[DW_OP_plus_uconst 0x0]
    5669                      .dwattr DW$741, DW_AT_accessibility(DW_ACCESS_public)
    5670              DW$742  .dwtag  DW_TAG_member, DW_AT_type(*DW$T$19)
    5671                      .dwattr DW$742, DW_AT_name("GPIOB6"), DW_AT_symbol_name("_GPIOB6")
    5672                      .dwattr DW$742, DW_AT_bit_offset(0x09), DW_AT_bit_size(0x01)
    5673                      .dwattr DW$742, DW_AT_data_member_location[DW_OP_plus_uconst 0x0]
    5674                      .dwattr DW$742, DW_AT_accessibility(DW_ACCESS_public)
    5675              DW$743  .dwtag  DW_TAG_member, DW_AT_type(*DW$T$19)
    5676                      .dwattr DW$743, DW_AT_name("GPIOB7"), DW_AT_symbol_name("_GPIOB7")
    5677                      .dwattr DW$743, DW_AT_bit_offset(0x08), DW_AT_bit_size(0x01)
    5678                      .dwattr DW$743, DW_AT_data_member_location[DW_OP_plus_uconst 0x0]
    5679                      .dwattr DW$743, DW_AT_accessibility(DW_ACCESS_public)
    5680              DW$744  .dwtag  DW_TAG_member, DW_AT_type(*DW$T$19)
    5681                      .dwattr DW$744, DW_AT_name("GPIOB8"), DW_AT_symbol_name("_GPIOB8")
    5682                      .dwattr DW$744, DW_AT_bit_offset(0x07), DW_AT_bit_size(0x01)
    5683                      .dwattr DW$744, DW_AT_data_member_location[DW_OP_plus_uconst 0x0]
    5684                      .dwattr DW$744, DW_AT_accessibility(DW_ACCESS_public)
    5685              DW$745  .dwtag  DW_TAG_member, DW_AT_type(*DW$T$19)
    5686                      .dwattr DW$745, DW_AT_name("GPIOB9"), DW_AT_symbol_name("_GPIOB9")
    5687                      .dwattr DW$745, DW_AT_bit_offset(0x06), DW_AT_bit_size(0x01)
    5688                      .dwattr DW$745, DW_AT_data_member_location[DW_OP_plus_uconst 0x0]
    5689                      .dwattr DW$745, DW_AT_accessibility(DW_ACCESS_public)
    5690              DW$746  .dwtag  DW_TAG_member, DW_AT_type(*DW$T$19)
    5691                      .dwattr DW$746, DW_AT_name("GPIOB10"), DW_AT_symbol_name("_GPIOB10")
    5692                      .dwattr DW$746, DW_AT_bit_offset(0x05), DW_AT_bit_size(0x01)
    5693                      .dwattr DW$746, DW_AT_data_member_location[DW_OP_plus_uconst 0x0]
    5694                      .dwattr DW$746, DW_AT_accessibility(DW_ACCESS_public)
    5695              DW$747  .dwtag  DW_TAG_member, DW_AT_type(*DW$T$19)
    5696                      .dwattr DW$747, DW_AT_name("GPIOB11"), DW_AT_symbol_name("_GPIOB11")
    5697                      .dwattr DW$747, DW_AT_bit_offset(0x04), DW_AT_bit_size(0x01)
    5698                      .dwattr DW$747, DW_AT_data_member_location[DW_OP_plus_uconst 0x0]
    5699                      .dwattr DW$747, DW_AT_accessibility(DW_ACCESS_public)
    5700              DW$748  .dwtag  DW_TAG_member, DW_AT_type(*DW$T$19)
    5701                      .dwattr DW$748, DW_AT_name("GPIOB12"), DW_AT_symbol_name("_GPIOB12")
    5702                      .dwattr DW$748, DW_AT_bit_offset(0x03), DW_AT_bit_size(0x01)
    5703                      .dwattr DW$748, DW_AT_data_member_location[DW_OP_plus_uconst 0x0]
    5704                      .dwattr DW$748, DW_AT_accessibility(DW_ACCESS_public)
    5705              DW$749  .dwtag  DW_TAG_member, DW_AT_type(*DW$T$19)
    5706                      .dwattr DW$749, DW_AT_name("GPIOB13"), DW_AT_symbol_name("_GPIOB13")
    5707                      .dwattr DW$749, DW_AT_bit_offset(0x02), DW_AT_bit_size(0x01)
    5708                      .dwattr DW$749, DW_AT_data_member_location[DW_OP_plus_uconst 0x0]
    5709                      .dwattr DW$749, DW_AT_accessibility(DW_ACCESS_public)
    5710              DW$750  .dwtag  DW_TAG_member, DW_AT_type(*DW$T$19)
    5711                      .dwattr DW$750, DW_AT_name("GPIOB14"), DW_AT_symbol_name("_GPIOB14")
    5712                      .dwattr DW$750, DW_AT_bit_offset(0x01), DW_AT_bit_size(0x01)
    5713                      .dwattr DW$750, DW_AT_data_member_location[DW_OP_plus_uconst 0x0]
    5714                      .dwattr DW$750, DW_AT_accessibility(DW_ACCESS_public)
    5715              DW$751  .dwtag  DW_TAG_member, DW_AT_type(*DW$T$19)
    5716                      .dwattr DW$751, DW_AT_name("GPIOB15"), DW_AT_symbol_name("_GPIOB15")
    5717                      .dwattr DW$751, DW_AT_bit_offset(0x00), DW_AT_bit_size(0x01)
    5718                      .dwattr DW$751, DW_AT_data_member_location[DW_OP_plus_uconst 0x0]
    5719                      .dwattr DW$751, DW_AT_accessibility(DW_ACCESS_public)
TMS320C2000 COFF Assembler PC v4.1.3 Mon Dec 03 13:50:31 2012

Tools Copyright (c) 1996-2006 Texas Instruments Incorporated
C:\DOCUME~1\ADMINI~1\LOCALS~1\Temp\TI9922                            PAGE  108

    5720                      .dwendtag DW$T$70
    5721              
    5722              
    5723              DW$T$72 .dwtag  DW_TAG_structure_type
    5724                      .dwattr DW$T$72, DW_AT_name("GPDDAT_BITS")
    5725                      .dwattr DW$T$72, DW_AT_byte_size(0x01)
    5726              DW$752  .dwtag  DW_TAG_member, DW_AT_type(*DW$T$19)
    5727                      .dwattr DW$752, DW_AT_name("GPIOD0"), DW_AT_symbol_name("_GPIOD0")
    5728                      .dwattr DW$752, DW_AT_bit_offset(0x0f), DW_AT_bit_size(0x01)
    5729                      .dwattr DW$752, DW_AT_data_member_location[DW_OP_plus_uconst 0x0]
    5730                      .dwattr DW$752, DW_AT_accessibility(DW_ACCESS_public)
    5731              DW$753  .dwtag  DW_TAG_member, DW_AT_type(*DW$T$19)
    5732                      .dwattr DW$753, DW_AT_name("GPIOD1"), DW_AT_symbol_name("_GPIOD1")
    5733                      .dwattr DW$753, DW_AT_bit_offset(0x0e), DW_AT_bit_size(0x01)
    5734                      .dwattr DW$753, DW_AT_data_member_location[DW_OP_plus_uconst 0x0]
    5735                      .dwattr DW$753, DW_AT_accessibility(DW_ACCESS_public)
    5736              DW$754  .dwtag  DW_TAG_member, DW_AT_type(*DW$T$19)
    5737                      .dwattr DW$754, DW_AT_name("rsvd1"), DW_AT_symbol_name("_rsvd1")
    5738                      .dwattr DW$754, DW_AT_bit_offset(0x0b), DW_AT_bit_size(0x03)
    5739                      .dwattr DW$754, DW_AT_data_member_location[DW_OP_plus_uconst 0x0]
    5740                      .dwattr DW$754, DW_AT_accessibility(DW_ACCESS_public)
    5741              DW$755  .dwtag  DW_TAG_member, DW_AT_type(*DW$T$19)
    5742                      .dwattr DW$755, DW_AT_name("GPIOD5"), DW_AT_symbol_name("_GPIOD5")
    5743                      .dwattr DW$755, DW_AT_bit_offset(0x0a), DW_AT_bit_size(0x01)
    5744                      .dwattr DW$755, DW_AT_data_member_location[DW_OP_plus_uconst 0x0]
    5745                      .dwattr DW$755, DW_AT_accessibility(DW_ACCESS_public)
    5746              DW$756  .dwtag  DW_TAG_member, DW_AT_type(*DW$T$19)
    5747                      .dwattr DW$756, DW_AT_name("GPIOD6"), DW_AT_symbol_name("_GPIOD6")
    5748                      .dwattr DW$756, DW_AT_bit_offset(0x09), DW_AT_bit_size(0x01)
    5749                      .dwattr DW$756, DW_AT_data_member_location[DW_OP_plus_uconst 0x0]
    5750                      .dwattr DW$756, DW_AT_accessibility(DW_ACCESS_public)
    5751              DW$757  .dwtag  DW_TAG_member, DW_AT_type(*DW$T$19)
    5752                      .dwattr DW$757, DW_AT_name("rsvd2"), DW_AT_symbol_name("_rsvd2")
    5753                      .dwattr DW$757, DW_AT_bit_offset(0x00), DW_AT_bit_size(0x09)
    5754                      .dwattr DW$757, DW_AT_data_member_location[DW_OP_plus_uconst 0x0]
    5755                      .dwattr DW$757, DW_AT_accessibility(DW_ACCESS_public)
    5756                      .dwendtag DW$T$72
    5757              
    5758              
    5759              DW$T$74 .dwtag  DW_TAG_structure_type
    5760                      .dwattr DW$T$74, DW_AT_name("GPDSET_BITS")
    5761                      .dwattr DW$T$74, DW_AT_byte_size(0x01)
    5762              DW$758  .dwtag  DW_TAG_member, DW_AT_type(*DW$T$19)
    5763                      .dwattr DW$758, DW_AT_name("GPIOD0"), DW_AT_symbol_name("_GPIOD0")
    5764                      .dwattr DW$758, DW_AT_bit_offset(0x0f), DW_AT_bit_size(0x01)
    5765                      .dwattr DW$758, DW_AT_data_member_location[DW_OP_plus_uconst 0x0]
    5766                      .dwattr DW$758, DW_AT_accessibility(DW_ACCESS_public)
    5767              DW$759  .dwtag  DW_TAG_member, DW_AT_type(*DW$T$19)
    5768                      .dwattr DW$759, DW_AT_name("GPIOD1"), DW_AT_symbol_name("_GPIOD1")
    5769                      .dwattr DW$759, DW_AT_bit_offset(0x0e), DW_AT_bit_size(0x01)
    5770                      .dwattr DW$759, DW_AT_data_member_location[DW_OP_plus_uconst 0x0]
    5771                      .dwattr DW$759, DW_AT_accessibility(DW_ACCESS_public)
    5772              DW$760  .dwtag  DW_TAG_member, DW_AT_type(*DW$T$19)
    5773                      .dwattr DW$760, DW_AT_name("rsvd1"), DW_AT_symbol_name("_rsvd1")
    5774                      .dwattr DW$760, DW_AT_bit_offset(0x0b), DW_AT_bit_size(0x03)
TMS320C2000 COFF Assembler PC v4.1.3 Mon Dec 03 13:50:31 2012

Tools Copyright (c) 1996-2006 Texas Instruments Incorporated
C:\DOCUME~1\ADMINI~1\LOCALS~1\Temp\TI9922                            PAGE  109

    5775                      .dwattr DW$760, DW_AT_data_member_location[DW_OP_plus_uconst 0x0]
    5776                      .dwattr DW$760, DW_AT_accessibility(DW_ACCESS_public)
    5777              DW$761  .dwtag  DW_TAG_member, DW_AT_type(*DW$T$19)
    5778                      .dwattr DW$761, DW_AT_name("GPIOD5"), DW_AT_symbol_name("_GPIOD5")
    5779                      .dwattr DW$761, DW_AT_bit_offset(0x0a), DW_AT_bit_size(0x01)
    5780                      .dwattr DW$761, DW_AT_data_member_location[DW_OP_plus_uconst 0x0]
    5781                      .dwattr DW$761, DW_AT_accessibility(DW_ACCESS_public)
    5782              DW$762  .dwtag  DW_TAG_member, DW_AT_type(*DW$T$19)
    5783                      .dwattr DW$762, DW_AT_name("GPIOD6"), DW_AT_symbol_name("_GPIOD6")
    5784                      .dwattr DW$762, DW_AT_bit_offset(0x09), DW_AT_bit_size(0x01)
    5785                      .dwattr DW$762, DW_AT_data_member_location[DW_OP_plus_uconst 0x0]
    5786                      .dwattr DW$762, DW_AT_accessibility(DW_ACCESS_public)
    5787              DW$763  .dwtag  DW_TAG_member, DW_AT_type(*DW$T$19)
    5788                      .dwattr DW$763, DW_AT_name("rsvd2"), DW_AT_symbol_name("_rsvd2")
    5789                      .dwattr DW$763, DW_AT_bit_offset(0x00), DW_AT_bit_size(0x09)
    5790                      .dwattr DW$763, DW_AT_data_member_location[DW_OP_plus_uconst 0x0]
    5791                      .dwattr DW$763, DW_AT_accessibility(DW_ACCESS_public)
    5792                      .dwendtag DW$T$74
    5793              
    5794              
    5795              DW$T$76 .dwtag  DW_TAG_structure_type
    5796                      .dwattr DW$T$76, DW_AT_name("GPDCLEAR_BITS")
    5797                      .dwattr DW$T$76, DW_AT_byte_size(0x01)
    5798              DW$764  .dwtag  DW_TAG_member, DW_AT_type(*DW$T$19)
    5799                      .dwattr DW$764, DW_AT_name("GPIOD0"), DW_AT_symbol_name("_GPIOD0")
    5800                      .dwattr DW$764, DW_AT_bit_offset(0x0f), DW_AT_bit_size(0x01)
    5801                      .dwattr DW$764, DW_AT_data_member_location[DW_OP_plus_uconst 0x0]
    5802                      .dwattr DW$764, DW_AT_accessibility(DW_ACCESS_public)
    5803              DW$765  .dwtag  DW_TAG_member, DW_AT_type(*DW$T$19)
    5804                      .dwattr DW$765, DW_AT_name("GPIOD1"), DW_AT_symbol_name("_GPIOD1")
    5805                      .dwattr DW$765, DW_AT_bit_offset(0x0e), DW_AT_bit_size(0x01)
    5806                      .dwattr DW$765, DW_AT_data_member_location[DW_OP_plus_uconst 0x0]
    5807                      .dwattr DW$765, DW_AT_accessibility(DW_ACCESS_public)
    5808              DW$766  .dwtag  DW_TAG_member, DW_AT_type(*DW$T$19)
    5809                      .dwattr DW$766, DW_AT_name("rsvd1"), DW_AT_symbol_name("_rsvd1")
    5810                      .dwattr DW$766, DW_AT_bit_offset(0x0b), DW_AT_bit_size(0x03)
    5811                      .dwattr DW$766, DW_AT_data_member_location[DW_OP_plus_uconst 0x0]
    5812                      .dwattr DW$766, DW_AT_accessibility(DW_ACCESS_public)
    5813              DW$767  .dwtag  DW_TAG_member, DW_AT_type(*DW$T$19)
    5814                      .dwattr DW$767, DW_AT_name("GPIOD5"), DW_AT_symbol_name("_GPIOD5")
    5815                      .dwattr DW$767, DW_AT_bit_offset(0x0a), DW_AT_bit_size(0x01)
    5816                      .dwattr DW$767, DW_AT_data_member_location[DW_OP_plus_uconst 0x0]
    5817                      .dwattr DW$767, DW_AT_accessibility(DW_ACCESS_public)
    5818              DW$768  .dwtag  DW_TAG_member, DW_AT_type(*DW$T$19)
    5819                      .dwattr DW$768, DW_AT_name("GPIOD6"), DW_AT_symbol_name("_GPIOD6")
    5820                      .dwattr DW$768, DW_AT_bit_offset(0x09), DW_AT_bit_size(0x01)
    5821                      .dwattr DW$768, DW_AT_data_member_location[DW_OP_plus_uconst 0x0]
    5822                      .dwattr DW$768, DW_AT_accessibility(DW_ACCESS_public)
    5823              DW$769  .dwtag  DW_TAG_member, DW_AT_type(*DW$T$19)
    5824                      .dwattr DW$769, DW_AT_name("rsvd2"), DW_AT_symbol_name("_rsvd2")
    5825                      .dwattr DW$769, DW_AT_bit_offset(0x00), DW_AT_bit_size(0x09)
    5826                      .dwattr DW$769, DW_AT_data_member_location[DW_OP_plus_uconst 0x0]
    5827                      .dwattr DW$769, DW_AT_accessibility(DW_ACCESS_public)
    5828                      .dwendtag DW$T$76
    5829              
TMS320C2000 COFF Assembler PC v4.1.3 Mon Dec 03 13:50:31 2012

Tools Copyright (c) 1996-2006 Texas Instruments Incorporated
C:\DOCUME~1\ADMINI~1\LOCALS~1\Temp\TI9922                            PAGE  110

    5830              
    5831              DW$T$78 .dwtag  DW_TAG_structure_type
    5832                      .dwattr DW$T$78, DW_AT_name("GPDTOGGLE_BITS")
    5833                      .dwattr DW$T$78, DW_AT_byte_size(0x01)
    5834              DW$770  .dwtag  DW_TAG_member, DW_AT_type(*DW$T$19)
    5835                      .dwattr DW$770, DW_AT_name("GPIOD0"), DW_AT_symbol_name("_GPIOD0")
    5836                      .dwattr DW$770, DW_AT_bit_offset(0x0f), DW_AT_bit_size(0x01)
    5837                      .dwattr DW$770, DW_AT_data_member_location[DW_OP_plus_uconst 0x0]
    5838                      .dwattr DW$770, DW_AT_accessibility(DW_ACCESS_public)
    5839              DW$771  .dwtag  DW_TAG_member, DW_AT_type(*DW$T$19)
    5840                      .dwattr DW$771, DW_AT_name("GPIOD1"), DW_AT_symbol_name("_GPIOD1")
    5841                      .dwattr DW$771, DW_AT_bit_offset(0x0e), DW_AT_bit_size(0x01)
    5842                      .dwattr DW$771, DW_AT_data_member_location[DW_OP_plus_uconst 0x0]
    5843                      .dwattr DW$771, DW_AT_accessibility(DW_ACCESS_public)
    5844              DW$772  .dwtag  DW_TAG_member, DW_AT_type(*DW$T$19)
    5845                      .dwattr DW$772, DW_AT_name("rsvd1"), DW_AT_symbol_name("_rsvd1")
    5846                      .dwattr DW$772, DW_AT_bit_offset(0x0b), DW_AT_bit_size(0x03)
    5847                      .dwattr DW$772, DW_AT_data_member_location[DW_OP_plus_uconst 0x0]
    5848                      .dwattr DW$772, DW_AT_accessibility(DW_ACCESS_public)
    5849              DW$773  .dwtag  DW_TAG_member, DW_AT_type(*DW$T$19)
    5850                      .dwattr DW$773, DW_AT_name("GPIOD5"), DW_AT_symbol_name("_GPIOD5")
    5851                      .dwattr DW$773, DW_AT_bit_offset(0x0a), DW_AT_bit_size(0x01)
    5852                      .dwattr DW$773, DW_AT_data_member_location[DW_OP_plus_uconst 0x0]
    5853                      .dwattr DW$773, DW_AT_accessibility(DW_ACCESS_public)
    5854              DW$774  .dwtag  DW_TAG_member, DW_AT_type(*DW$T$19)
    5855                      .dwattr DW$774, DW_AT_name("GPIOD6"), DW_AT_symbol_name("_GPIOD6")
    5856                      .dwattr DW$774, DW_AT_bit_offset(0x09), DW_AT_bit_size(0x01)
    5857                      .dwattr DW$774, DW_AT_data_member_location[DW_OP_plus_uconst 0x0]
    5858                      .dwattr DW$774, DW_AT_accessibility(DW_ACCESS_public)
    5859              DW$775  .dwtag  DW_TAG_member, DW_AT_type(*DW$T$19)
    5860                      .dwattr DW$775, DW_AT_name("rsvd2"), DW_AT_symbol_name("_rsvd2")
    5861                      .dwattr DW$775, DW_AT_bit_offset(0x00), DW_AT_bit_size(0x09)
    5862                      .dwattr DW$775, DW_AT_data_member_location[DW_OP_plus_uconst 0x0]
    5863                      .dwattr DW$775, DW_AT_accessibility(DW_ACCESS_public)
    5864                      .dwendtag DW$T$78
    5865              
    5866              
    5867              DW$T$80 .dwtag  DW_TAG_structure_type
    5868                      .dwattr DW$T$80, DW_AT_name("GPEDAT_BITS")
    5869                      .dwattr DW$T$80, DW_AT_byte_size(0x01)
    5870              DW$776  .dwtag  DW_TAG_member, DW_AT_type(*DW$T$19)
    5871                      .dwattr DW$776, DW_AT_name("GPIOE0"), DW_AT_symbol_name("_GPIOE0")
    5872                      .dwattr DW$776, DW_AT_bit_offset(0x0f), DW_AT_bit_size(0x01)
    5873                      .dwattr DW$776, DW_AT_data_member_location[DW_OP_plus_uconst 0x0]
    5874                      .dwattr DW$776, DW_AT_accessibility(DW_ACCESS_public)
    5875              DW$777  .dwtag  DW_TAG_member, DW_AT_type(*DW$T$19)
    5876                      .dwattr DW$777, DW_AT_name("GPIOE1"), DW_AT_symbol_name("_GPIOE1")
    5877                      .dwattr DW$777, DW_AT_bit_offset(0x0e), DW_AT_bit_size(0x01)
    5878                      .dwattr DW$777, DW_AT_data_member_location[DW_OP_plus_uconst 0x0]
    5879                      .dwattr DW$777, DW_AT_accessibility(DW_ACCESS_public)
    5880              DW$778  .dwtag  DW_TAG_member, DW_AT_type(*DW$T$19)
    5881                      .dwattr DW$778, DW_AT_name("GPIOE2"), DW_AT_symbol_name("_GPIOE2")
    5882                      .dwattr DW$778, DW_AT_bit_offset(0x0d), DW_AT_bit_size(0x01)
    5883                      .dwattr DW$778, DW_AT_data_member_location[DW_OP_plus_uconst 0x0]
    5884                      .dwattr DW$778, DW_AT_accessibility(DW_ACCESS_public)
TMS320C2000 COFF Assembler PC v4.1.3 Mon Dec 03 13:50:31 2012

Tools Copyright (c) 1996-2006 Texas Instruments Incorporated
C:\DOCUME~1\ADMINI~1\LOCALS~1\Temp\TI9922                            PAGE  111

    5885              DW$779  .dwtag  DW_TAG_member, DW_AT_type(*DW$T$19)
    5886                      .dwattr DW$779, DW_AT_name("rsvd1"), DW_AT_symbol_name("_rsvd1")
    5887                      .dwattr DW$779, DW_AT_bit_offset(0x01), DW_AT_bit_size(0x0c)
    5888                      .dwattr DW$779, DW_AT_data_member_location[DW_OP_plus_uconst 0x0]
    5889                      .dwattr DW$779, DW_AT_accessibility(DW_ACCESS_public)
    5890                      .dwendtag DW$T$80
    5891              
    5892              
    5893              DW$T$82 .dwtag  DW_TAG_structure_type
    5894                      .dwattr DW$T$82, DW_AT_name("GPESET_BITS")
    5895                      .dwattr DW$T$82, DW_AT_byte_size(0x01)
    5896              DW$780  .dwtag  DW_TAG_member, DW_AT_type(*DW$T$19)
    5897                      .dwattr DW$780, DW_AT_name("GPIOE0"), DW_AT_symbol_name("_GPIOE0")
    5898                      .dwattr DW$780, DW_AT_bit_offset(0x0f), DW_AT_bit_size(0x01)
    5899                      .dwattr DW$780, DW_AT_data_member_location[DW_OP_plus_uconst 0x0]
    5900                      .dwattr DW$780, DW_AT_accessibility(DW_ACCESS_public)
    5901              DW$781  .dwtag  DW_TAG_member, DW_AT_type(*DW$T$19)
    5902                      .dwattr DW$781, DW_AT_name("GPIOE1"), DW_AT_symbol_name("_GPIOE1")
    5903                      .dwattr DW$781, DW_AT_bit_offset(0x0e), DW_AT_bit_size(0x01)
    5904                      .dwattr DW$781, DW_AT_data_member_location[DW_OP_plus_uconst 0x0]
    5905                      .dwattr DW$781, DW_AT_accessibility(DW_ACCESS_public)
    5906              DW$782  .dwtag  DW_TAG_member, DW_AT_type(*DW$T$19)
    5907                      .dwattr DW$782, DW_AT_name("GPIOE2"), DW_AT_symbol_name("_GPIOE2")
    5908                      .dwattr DW$782, DW_AT_bit_offset(0x0d), DW_AT_bit_size(0x01)
    5909                      .dwattr DW$782, DW_AT_data_member_location[DW_OP_plus_uconst 0x0]
    5910                      .dwattr DW$782, DW_AT_accessibility(DW_ACCESS_public)
    5911              DW$783  .dwtag  DW_TAG_member, DW_AT_type(*DW$T$19)
    5912                      .dwattr DW$783, DW_AT_name("rsvd1"), DW_AT_symbol_name("_rsvd1")
    5913                      .dwattr DW$783, DW_AT_bit_offset(0x01), DW_AT_bit_size(0x0c)
    5914                      .dwattr DW$783, DW_AT_data_member_location[DW_OP_plus_uconst 0x0]
    5915                      .dwattr DW$783, DW_AT_accessibility(DW_ACCESS_public)
    5916                      .dwendtag DW$T$82
    5917              
    5918              
    5919              DW$T$84 .dwtag  DW_TAG_structure_type
    5920                      .dwattr DW$T$84, DW_AT_name("GPECLEAR_BITS")
    5921                      .dwattr DW$T$84, DW_AT_byte_size(0x01)
    5922              DW$784  .dwtag  DW_TAG_member, DW_AT_type(*DW$T$19)
    5923                      .dwattr DW$784, DW_AT_name("GPIOE0"), DW_AT_symbol_name("_GPIOE0")
    5924                      .dwattr DW$784, DW_AT_bit_offset(0x0f), DW_AT_bit_size(0x01)
    5925                      .dwattr DW$784, DW_AT_data_member_location[DW_OP_plus_uconst 0x0]
    5926                      .dwattr DW$784, DW_AT_accessibility(DW_ACCESS_public)
    5927              DW$785  .dwtag  DW_TAG_member, DW_AT_type(*DW$T$19)
    5928                      .dwattr DW$785, DW_AT_name("GPIOE1"), DW_AT_symbol_name("_GPIOE1")
    5929                      .dwattr DW$785, DW_AT_bit_offset(0x0e), DW_AT_bit_size(0x01)
    5930                      .dwattr DW$785, DW_AT_data_member_location[DW_OP_plus_uconst 0x0]
    5931                      .dwattr DW$785, DW_AT_accessibility(DW_ACCESS_public)
    5932              DW$786  .dwtag  DW_TAG_member, DW_AT_type(*DW$T$19)
    5933                      .dwattr DW$786, DW_AT_name("GPIOE2"), DW_AT_symbol_name("_GPIOE2")
    5934                      .dwattr DW$786, DW_AT_bit_offset(0x0d), DW_AT_bit_size(0x01)
    5935                      .dwattr DW$786, DW_AT_data_member_location[DW_OP_plus_uconst 0x0]
    5936                      .dwattr DW$786, DW_AT_accessibility(DW_ACCESS_public)
    5937              DW$787  .dwtag  DW_TAG_member, DW_AT_type(*DW$T$19)
    5938                      .dwattr DW$787, DW_AT_name("rsvd1"), DW_AT_symbol_name("_rsvd1")
    5939                      .dwattr DW$787, DW_AT_bit_offset(0x01), DW_AT_bit_size(0x0c)
TMS320C2000 COFF Assembler PC v4.1.3 Mon Dec 03 13:50:31 2012

Tools Copyright (c) 1996-2006 Texas Instruments Incorporated
C:\DOCUME~1\ADMINI~1\LOCALS~1\Temp\TI9922                            PAGE  112

    5940                      .dwattr DW$787, DW_AT_data_member_location[DW_OP_plus_uconst 0x0]
    5941                      .dwattr DW$787, DW_AT_accessibility(DW_ACCESS_public)
    5942                      .dwendtag DW$T$84
    5943              
    5944              
    5945              DW$T$86 .dwtag  DW_TAG_structure_type
    5946                      .dwattr DW$T$86, DW_AT_name("GPETOGGLE_BITS")
    5947                      .dwattr DW$T$86, DW_AT_byte_size(0x01)
    5948              DW$788  .dwtag  DW_TAG_member, DW_AT_type(*DW$T$19)
    5949                      .dwattr DW$788, DW_AT_name("GPIOE0"), DW_AT_symbol_name("_GPIOE0")
    5950                      .dwattr DW$788, DW_AT_bit_offset(0x0f), DW_AT_bit_size(0x01)
    5951                      .dwattr DW$788, DW_AT_data_member_location[DW_OP_plus_uconst 0x0]
    5952                      .dwattr DW$788, DW_AT_accessibility(DW_ACCESS_public)
    5953              DW$789  .dwtag  DW_TAG_member, DW_AT_type(*DW$T$19)
    5954                      .dwattr DW$789, DW_AT_name("GPIOE1"), DW_AT_symbol_name("_GPIOE1")
    5955                      .dwattr DW$789, DW_AT_bit_offset(0x0e), DW_AT_bit_size(0x01)
    5956                      .dwattr DW$789, DW_AT_data_member_location[DW_OP_plus_uconst 0x0]
    5957                      .dwattr DW$789, DW_AT_accessibility(DW_ACCESS_public)
    5958              DW$790  .dwtag  DW_TAG_member, DW_AT_type(*DW$T$19)
    5959                      .dwattr DW$790, DW_AT_name("GPIOE2"), DW_AT_symbol_name("_GPIOE2")
    5960                      .dwattr DW$790, DW_AT_bit_offset(0x0d), DW_AT_bit_size(0x01)
    5961                      .dwattr DW$790, DW_AT_data_member_location[DW_OP_plus_uconst 0x0]
    5962                      .dwattr DW$790, DW_AT_accessibility(DW_ACCESS_public)
    5963              DW$791  .dwtag  DW_TAG_member, DW_AT_type(*DW$T$19)
    5964                      .dwattr DW$791, DW_AT_name("rsvd1"), DW_AT_symbol_name("_rsvd1")
    5965                      .dwattr DW$791, DW_AT_bit_offset(0x01), DW_AT_bit_size(0x0c)
    5966                      .dwattr DW$791, DW_AT_data_member_location[DW_OP_plus_uconst 0x0]
    5967                      .dwattr DW$791, DW_AT_accessibility(DW_ACCESS_public)
    5968                      .dwendtag DW$T$86
    5969              
    5970              
    5971              DW$T$88 .dwtag  DW_TAG_structure_type
    5972                      .dwattr DW$T$88, DW_AT_name("GPFDAT_BITS")
    5973                      .dwattr DW$T$88, DW_AT_byte_size(0x01)
    5974              DW$792  .dwtag  DW_TAG_member, DW_AT_type(*DW$T$19)
    5975                      .dwattr DW$792, DW_AT_name("GPIOF0"), DW_AT_symbol_name("_GPIOF0")
    5976                      .dwattr DW$792, DW_AT_bit_offset(0x0f), DW_AT_bit_size(0x01)
    5977                      .dwattr DW$792, DW_AT_data_member_location[DW_OP_plus_uconst 0x0]
    5978                      .dwattr DW$792, DW_AT_accessibility(DW_ACCESS_public)
    5979              DW$793  .dwtag  DW_TAG_member, DW_AT_type(*DW$T$19)
    5980                      .dwattr DW$793, DW_AT_name("GPIOF1"), DW_AT_symbol_name("_GPIOF1")
    5981                      .dwattr DW$793, DW_AT_bit_offset(0x0e), DW_AT_bit_size(0x01)
    5982                      .dwattr DW$793, DW_AT_data_member_location[DW_OP_plus_uconst 0x0]
    5983                      .dwattr DW$793, DW_AT_accessibility(DW_ACCESS_public)
    5984              DW$794  .dwtag  DW_TAG_member, DW_AT_type(*DW$T$19)
    5985                      .dwattr DW$794, DW_AT_name("GPIOF2"), DW_AT_symbol_name("_GPIOF2")
    5986                      .dwattr DW$794, DW_AT_bit_offset(0x0d), DW_AT_bit_size(0x01)
    5987                      .dwattr DW$794, DW_AT_data_member_location[DW_OP_plus_uconst 0x0]
    5988                      .dwattr DW$794, DW_AT_accessibility(DW_ACCESS_public)
    5989              DW$795  .dwtag  DW_TAG_member, DW_AT_type(*DW$T$19)
    5990                      .dwattr DW$795, DW_AT_name("GPIOF3"), DW_AT_symbol_name("_GPIOF3")
    5991                      .dwattr DW$795, DW_AT_bit_offset(0x0c), DW_AT_bit_size(0x01)
    5992                      .dwattr DW$795, DW_AT_data_member_location[DW_OP_plus_uconst 0x0]
    5993                      .dwattr DW$795, DW_AT_accessibility(DW_ACCESS_public)
    5994              DW$796  .dwtag  DW_TAG_member, DW_AT_type(*DW$T$19)
TMS320C2000 COFF Assembler PC v4.1.3 Mon Dec 03 13:50:31 2012

Tools Copyright (c) 1996-2006 Texas Instruments Incorporated
C:\DOCUME~1\ADMINI~1\LOCALS~1\Temp\TI9922                            PAGE  113

    5995                      .dwattr DW$796, DW_AT_name("GPIOF4"), DW_AT_symbol_name("_GPIOF4")
    5996                      .dwattr DW$796, DW_AT_bit_offset(0x0b), DW_AT_bit_size(0x01)
    5997                      .dwattr DW$796, DW_AT_data_member_location[DW_OP_plus_uconst 0x0]
    5998                      .dwattr DW$796, DW_AT_accessibility(DW_ACCESS_public)
    5999              DW$797  .dwtag  DW_TAG_member, DW_AT_type(*DW$T$19)
    6000                      .dwattr DW$797, DW_AT_name("GPIOF5"), DW_AT_symbol_name("_GPIOF5")
    6001                      .dwattr DW$797, DW_AT_bit_offset(0x0a), DW_AT_bit_size(0x01)
    6002                      .dwattr DW$797, DW_AT_data_member_location[DW_OP_plus_uconst 0x0]
    6003                      .dwattr DW$797, DW_AT_accessibility(DW_ACCESS_public)
    6004              DW$798  .dwtag  DW_TAG_member, DW_AT_type(*DW$T$19)
    6005                      .dwattr DW$798, DW_AT_name("GPIOF6"), DW_AT_symbol_name("_GPIOF6")
    6006                      .dwattr DW$798, DW_AT_bit_offset(0x09), DW_AT_bit_size(0x01)
    6007                      .dwattr DW$798, DW_AT_data_member_location[DW_OP_plus_uconst 0x0]
    6008                      .dwattr DW$798, DW_AT_accessibility(DW_ACCESS_public)
    6009              DW$799  .dwtag  DW_TAG_member, DW_AT_type(*DW$T$19)
    6010                      .dwattr DW$799, DW_AT_name("GPIOF7"), DW_AT_symbol_name("_GPIOF7")
    6011                      .dwattr DW$799, DW_AT_bit_offset(0x08), DW_AT_bit_size(0x01)
    6012                      .dwattr DW$799, DW_AT_data_member_location[DW_OP_plus_uconst 0x0]
    6013                      .dwattr DW$799, DW_AT_accessibility(DW_ACCESS_public)
    6014              DW$800  .dwtag  DW_TAG_member, DW_AT_type(*DW$T$19)
    6015                      .dwattr DW$800, DW_AT_name("GPIOF8"), DW_AT_symbol_name("_GPIOF8")
    6016                      .dwattr DW$800, DW_AT_bit_offset(0x07), DW_AT_bit_size(0x01)
    6017                      .dwattr DW$800, DW_AT_data_member_location[DW_OP_plus_uconst 0x0]
    6018                      .dwattr DW$800, DW_AT_accessibility(DW_ACCESS_public)
    6019              DW$801  .dwtag  DW_TAG_member, DW_AT_type(*DW$T$19)
    6020                      .dwattr DW$801, DW_AT_name("GPIOF9"), DW_AT_symbol_name("_GPIOF9")
    6021                      .dwattr DW$801, DW_AT_bit_offset(0x06), DW_AT_bit_size(0x01)
    6022                      .dwattr DW$801, DW_AT_data_member_location[DW_OP_plus_uconst 0x0]
    6023                      .dwattr DW$801, DW_AT_accessibility(DW_ACCESS_public)
    6024              DW$802  .dwtag  DW_TAG_member, DW_AT_type(*DW$T$19)
    6025                      .dwattr DW$802, DW_AT_name("GPIOF10"), DW_AT_symbol_name("_GPIOF10")
    6026                      .dwattr DW$802, DW_AT_bit_offset(0x05), DW_AT_bit_size(0x01)
    6027                      .dwattr DW$802, DW_AT_data_member_location[DW_OP_plus_uconst 0x0]
    6028                      .dwattr DW$802, DW_AT_accessibility(DW_ACCESS_public)
    6029              DW$803  .dwtag  DW_TAG_member, DW_AT_type(*DW$T$19)
    6030                      .dwattr DW$803, DW_AT_name("GPIOF11"), DW_AT_symbol_name("_GPIOF11")
    6031                      .dwattr DW$803, DW_AT_bit_offset(0x04), DW_AT_bit_size(0x01)
    6032                      .dwattr DW$803, DW_AT_data_member_location[DW_OP_plus_uconst 0x0]
    6033                      .dwattr DW$803, DW_AT_accessibility(DW_ACCESS_public)
    6034              DW$804  .dwtag  DW_TAG_member, DW_AT_type(*DW$T$19)
    6035                      .dwattr DW$804, DW_AT_name("GPIOF12"), DW_AT_symbol_name("_GPIOF12")
    6036                      .dwattr DW$804, DW_AT_bit_offset(0x03), DW_AT_bit_size(0x01)
    6037                      .dwattr DW$804, DW_AT_data_member_location[DW_OP_plus_uconst 0x0]
    6038                      .dwattr DW$804, DW_AT_accessibility(DW_ACCESS_public)
    6039              DW$805  .dwtag  DW_TAG_member, DW_AT_type(*DW$T$19)
    6040                      .dwattr DW$805, DW_AT_name("GPIOF13"), DW_AT_symbol_name("_GPIOF13")
    6041                      .dwattr DW$805, DW_AT_bit_offset(0x02), DW_AT_bit_size(0x01)
    6042                      .dwattr DW$805, DW_AT_data_member_location[DW_OP_plus_uconst 0x0]
    6043                      .dwattr DW$805, DW_AT_accessibility(DW_ACCESS_public)
    6044              DW$806  .dwtag  DW_TAG_member, DW_AT_type(*DW$T$19)
    6045                      .dwattr DW$806, DW_AT_name("GPIOF14"), DW_AT_symbol_name("_GPIOF14")
    6046                      .dwattr DW$806, DW_AT_bit_offset(0x01), DW_AT_bit_size(0x01)
    6047                      .dwattr DW$806, DW_AT_data_member_location[DW_OP_plus_uconst 0x0]
    6048                      .dwattr DW$806, DW_AT_accessibility(DW_ACCESS_public)
    6049              DW$807  .dwtag  DW_TAG_member, DW_AT_type(*DW$T$19)
TMS320C2000 COFF Assembler PC v4.1.3 Mon Dec 03 13:50:31 2012

Tools Copyright (c) 1996-2006 Texas Instruments Incorporated
C:\DOCUME~1\ADMINI~1\LOCALS~1\Temp\TI9922                            PAGE  114

    6050                      .dwattr DW$807, DW_AT_name("GPIOF15"), DW_AT_symbol_name("_GPIOF15")
    6051                      .dwattr DW$807, DW_AT_bit_offset(0x00), DW_AT_bit_size(0x01)
    6052                      .dwattr DW$807, DW_AT_data_member_location[DW_OP_plus_uconst 0x0]
    6053                      .dwattr DW$807, DW_AT_accessibility(DW_ACCESS_public)
    6054                      .dwendtag DW$T$88
    6055              
    6056              
    6057              DW$T$90 .dwtag  DW_TAG_structure_type
    6058                      .dwattr DW$T$90, DW_AT_name("GPFSET_BITS")
    6059                      .dwattr DW$T$90, DW_AT_byte_size(0x01)
    6060              DW$808  .dwtag  DW_TAG_member, DW_AT_type(*DW$T$19)
    6061                      .dwattr DW$808, DW_AT_name("GPIOF0"), DW_AT_symbol_name("_GPIOF0")
    6062                      .dwattr DW$808, DW_AT_bit_offset(0x0f), DW_AT_bit_size(0x01)
    6063                      .dwattr DW$808, DW_AT_data_member_location[DW_OP_plus_uconst 0x0]
    6064                      .dwattr DW$808, DW_AT_accessibility(DW_ACCESS_public)
    6065              DW$809  .dwtag  DW_TAG_member, DW_AT_type(*DW$T$19)
    6066                      .dwattr DW$809, DW_AT_name("GPIOF1"), DW_AT_symbol_name("_GPIOF1")
    6067                      .dwattr DW$809, DW_AT_bit_offset(0x0e), DW_AT_bit_size(0x01)
    6068                      .dwattr DW$809, DW_AT_data_member_location[DW_OP_plus_uconst 0x0]
    6069                      .dwattr DW$809, DW_AT_accessibility(DW_ACCESS_public)
    6070              DW$810  .dwtag  DW_TAG_member, DW_AT_type(*DW$T$19)
    6071                      .dwattr DW$810, DW_AT_name("GPIOF2"), DW_AT_symbol_name("_GPIOF2")
    6072                      .dwattr DW$810, DW_AT_bit_offset(0x0d), DW_AT_bit_size(0x01)
    6073                      .dwattr DW$810, DW_AT_data_member_location[DW_OP_plus_uconst 0x0]
    6074                      .dwattr DW$810, DW_AT_accessibility(DW_ACCESS_public)
    6075              DW$811  .dwtag  DW_TAG_member, DW_AT_type(*DW$T$19)
    6076                      .dwattr DW$811, DW_AT_name("GPIOF3"), DW_AT_symbol_name("_GPIOF3")
    6077                      .dwattr DW$811, DW_AT_bit_offset(0x0c), DW_AT_bit_size(0x01)
    6078                      .dwattr DW$811, DW_AT_data_member_location[DW_OP_plus_uconst 0x0]
    6079                      .dwattr DW$811, DW_AT_accessibility(DW_ACCESS_public)
    6080              DW$812  .dwtag  DW_TAG_member, DW_AT_type(*DW$T$19)
    6081                      .dwattr DW$812, DW_AT_name("GPIOF4"), DW_AT_symbol_name("_GPIOF4")
    6082                      .dwattr DW$812, DW_AT_bit_offset(0x0b), DW_AT_bit_size(0x01)
    6083                      .dwattr DW$812, DW_AT_data_member_location[DW_OP_plus_uconst 0x0]
    6084                      .dwattr DW$812, DW_AT_accessibility(DW_ACCESS_public)
    6085              DW$813  .dwtag  DW_TAG_member, DW_AT_type(*DW$T$19)
    6086                      .dwattr DW$813, DW_AT_name("GPIOF5"), DW_AT_symbol_name("_GPIOF5")
    6087                      .dwattr DW$813, DW_AT_bit_offset(0x0a), DW_AT_bit_size(0x01)
    6088                      .dwattr DW$813, DW_AT_data_member_location[DW_OP_plus_uconst 0x0]
    6089                      .dwattr DW$813, DW_AT_accessibility(DW_ACCESS_public)
    6090              DW$814  .dwtag  DW_TAG_member, DW_AT_type(*DW$T$19)
    6091                      .dwattr DW$814, DW_AT_name("GPIOF6"), DW_AT_symbol_name("_GPIOF6")
    6092                      .dwattr DW$814, DW_AT_bit_offset(0x09), DW_AT_bit_size(0x01)
    6093                      .dwattr DW$814, DW_AT_data_member_location[DW_OP_plus_uconst 0x0]
    6094                      .dwattr DW$814, DW_AT_accessibility(DW_ACCESS_public)
    6095              DW$815  .dwtag  DW_TAG_member, DW_AT_type(*DW$T$19)
    6096                      .dwattr DW$815, DW_AT_name("GPIOF7"), DW_AT_symbol_name("_GPIOF7")
    6097                      .dwattr DW$815, DW_AT_bit_offset(0x08), DW_AT_bit_size(0x01)
    6098                      .dwattr DW$815, DW_AT_data_member_location[DW_OP_plus_uconst 0x0]
    6099                      .dwattr DW$815, DW_AT_accessibility(DW_ACCESS_public)
    6100              DW$816  .dwtag  DW_TAG_member, DW_AT_type(*DW$T$19)
    6101                      .dwattr DW$816, DW_AT_name("GPIOF8"), DW_AT_symbol_name("_GPIOF8")
    6102                      .dwattr DW$816, DW_AT_bit_offset(0x07), DW_AT_bit_size(0x01)
    6103                      .dwattr DW$816, DW_AT_data_member_location[DW_OP_plus_uconst 0x0]
    6104                      .dwattr DW$816, DW_AT_accessibility(DW_ACCESS_public)
TMS320C2000 COFF Assembler PC v4.1.3 Mon Dec 03 13:50:31 2012

Tools Copyright (c) 1996-2006 Texas Instruments Incorporated
C:\DOCUME~1\ADMINI~1\LOCALS~1\Temp\TI9922                            PAGE  115

    6105              DW$817  .dwtag  DW_TAG_member, DW_AT_type(*DW$T$19)
    6106                      .dwattr DW$817, DW_AT_name("GPIOF9"), DW_AT_symbol_name("_GPIOF9")
    6107                      .dwattr DW$817, DW_AT_bit_offset(0x06), DW_AT_bit_size(0x01)
    6108                      .dwattr DW$817, DW_AT_data_member_location[DW_OP_plus_uconst 0x0]
    6109                      .dwattr DW$817, DW_AT_accessibility(DW_ACCESS_public)
    6110              DW$818  .dwtag  DW_TAG_member, DW_AT_type(*DW$T$19)
    6111                      .dwattr DW$818, DW_AT_name("GPIOF10"), DW_AT_symbol_name("_GPIOF10")
    6112                      .dwattr DW$818, DW_AT_bit_offset(0x05), DW_AT_bit_size(0x01)
    6113                      .dwattr DW$818, DW_AT_data_member_location[DW_OP_plus_uconst 0x0]
    6114                      .dwattr DW$818, DW_AT_accessibility(DW_ACCESS_public)
    6115              DW$819  .dwtag  DW_TAG_member, DW_AT_type(*DW$T$19)
    6116                      .dwattr DW$819, DW_AT_name("GPIOF11"), DW_AT_symbol_name("_GPIOF11")
    6117                      .dwattr DW$819, DW_AT_bit_offset(0x04), DW_AT_bit_size(0x01)
    6118                      .dwattr DW$819, DW_AT_data_member_location[DW_OP_plus_uconst 0x0]
    6119                      .dwattr DW$819, DW_AT_accessibility(DW_ACCESS_public)
    6120              DW$820  .dwtag  DW_TAG_member, DW_AT_type(*DW$T$19)
    6121                      .dwattr DW$820, DW_AT_name("GPIOF12"), DW_AT_symbol_name("_GPIOF12")
    6122                      .dwattr DW$820, DW_AT_bit_offset(0x03), DW_AT_bit_size(0x01)
    6123                      .dwattr DW$820, DW_AT_data_member_location[DW_OP_plus_uconst 0x0]
    6124                      .dwattr DW$820, DW_AT_accessibility(DW_ACCESS_public)
    6125              DW$821  .dwtag  DW_TAG_member, DW_AT_type(*DW$T$19)
    6126                      .dwattr DW$821, DW_AT_name("GPIOF13"), DW_AT_symbol_name("_GPIOF13")
    6127                      .dwattr DW$821, DW_AT_bit_offset(0x02), DW_AT_bit_size(0x01)
    6128                      .dwattr DW$821, DW_AT_data_member_location[DW_OP_plus_uconst 0x0]
    6129                      .dwattr DW$821, DW_AT_accessibility(DW_ACCESS_public)
    6130              DW$822  .dwtag  DW_TAG_member, DW_AT_type(*DW$T$19)
    6131                      .dwattr DW$822, DW_AT_name("GPIOF14"), DW_AT_symbol_name("_GPIOF14")
    6132                      .dwattr DW$822, DW_AT_bit_offset(0x01), DW_AT_bit_size(0x01)
    6133                      .dwattr DW$822, DW_AT_data_member_location[DW_OP_plus_uconst 0x0]
    6134                      .dwattr DW$822, DW_AT_accessibility(DW_ACCESS_public)
    6135              DW$823  .dwtag  DW_TAG_member, DW_AT_type(*DW$T$19)
    6136                      .dwattr DW$823, DW_AT_name("GPIOF15"), DW_AT_symbol_name("_GPIOF15")
    6137                      .dwattr DW$823, DW_AT_bit_offset(0x00), DW_AT_bit_size(0x01)
    6138                      .dwattr DW$823, DW_AT_data_member_location[DW_OP_plus_uconst 0x0]
    6139                      .dwattr DW$823, DW_AT_accessibility(DW_ACCESS_public)
    6140                      .dwendtag DW$T$90
    6141              
    6142              
    6143              DW$T$92 .dwtag  DW_TAG_structure_type
    6144                      .dwattr DW$T$92, DW_AT_name("GPFCLEAR_BITS")
    6145                      .dwattr DW$T$92, DW_AT_byte_size(0x01)
    6146              DW$824  .dwtag  DW_TAG_member, DW_AT_type(*DW$T$19)
    6147                      .dwattr DW$824, DW_AT_name("GPIOF0"), DW_AT_symbol_name("_GPIOF0")
    6148                      .dwattr DW$824, DW_AT_bit_offset(0x0f), DW_AT_bit_size(0x01)
    6149                      .dwattr DW$824, DW_AT_data_member_location[DW_OP_plus_uconst 0x0]
    6150                      .dwattr DW$824, DW_AT_accessibility(DW_ACCESS_public)
    6151              DW$825  .dwtag  DW_TAG_member, DW_AT_type(*DW$T$19)
    6152                      .dwattr DW$825, DW_AT_name("GPIOF1"), DW_AT_symbol_name("_GPIOF1")
    6153                      .dwattr DW$825, DW_AT_bit_offset(0x0e), DW_AT_bit_size(0x01)
    6154                      .dwattr DW$825, DW_AT_data_member_location[DW_OP_plus_uconst 0x0]
    6155                      .dwattr DW$825, DW_AT_accessibility(DW_ACCESS_public)
    6156              DW$826  .dwtag  DW_TAG_member, DW_AT_type(*DW$T$19)
    6157                      .dwattr DW$826, DW_AT_name("GPIOF2"), DW_AT_symbol_name("_GPIOF2")
    6158                      .dwattr DW$826, DW_AT_bit_offset(0x0d), DW_AT_bit_size(0x01)
    6159                      .dwattr DW$826, DW_AT_data_member_location[DW_OP_plus_uconst 0x0]
TMS320C2000 COFF Assembler PC v4.1.3 Mon Dec 03 13:50:31 2012

Tools Copyright (c) 1996-2006 Texas Instruments Incorporated
C:\DOCUME~1\ADMINI~1\LOCALS~1\Temp\TI9922                            PAGE  116

    6160                      .dwattr DW$826, DW_AT_accessibility(DW_ACCESS_public)
    6161              DW$827  .dwtag  DW_TAG_member, DW_AT_type(*DW$T$19)
    6162                      .dwattr DW$827, DW_AT_name("GPIOF3"), DW_AT_symbol_name("_GPIOF3")
    6163                      .dwattr DW$827, DW_AT_bit_offset(0x0c), DW_AT_bit_size(0x01)
    6164                      .dwattr DW$827, DW_AT_data_member_location[DW_OP_plus_uconst 0x0]
    6165                      .dwattr DW$827, DW_AT_accessibility(DW_ACCESS_public)
    6166              DW$828  .dwtag  DW_TAG_member, DW_AT_type(*DW$T$19)
    6167                      .dwattr DW$828, DW_AT_name("GPIOF4"), DW_AT_symbol_name("_GPIOF4")
    6168                      .dwattr DW$828, DW_AT_bit_offset(0x0b), DW_AT_bit_size(0x01)
    6169                      .dwattr DW$828, DW_AT_data_member_location[DW_OP_plus_uconst 0x0]
    6170                      .dwattr DW$828, DW_AT_accessibility(DW_ACCESS_public)
    6171              DW$829  .dwtag  DW_TAG_member, DW_AT_type(*DW$T$19)
    6172                      .dwattr DW$829, DW_AT_name("GPIOF5"), DW_AT_symbol_name("_GPIOF5")
    6173                      .dwattr DW$829, DW_AT_bit_offset(0x0a), DW_AT_bit_size(0x01)
    6174                      .dwattr DW$829, DW_AT_data_member_location[DW_OP_plus_uconst 0x0]
    6175                      .dwattr DW$829, DW_AT_accessibility(DW_ACCESS_public)
    6176              DW$830  .dwtag  DW_TAG_member, DW_AT_type(*DW$T$19)
    6177                      .dwattr DW$830, DW_AT_name("GPIOF6"), DW_AT_symbol_name("_GPIOF6")
    6178                      .dwattr DW$830, DW_AT_bit_offset(0x09), DW_AT_bit_size(0x01)
    6179                      .dwattr DW$830, DW_AT_data_member_location[DW_OP_plus_uconst 0x0]
    6180                      .dwattr DW$830, DW_AT_accessibility(DW_ACCESS_public)
    6181              DW$831  .dwtag  DW_TAG_member, DW_AT_type(*DW$T$19)
    6182                      .dwattr DW$831, DW_AT_name("GPIOF7"), DW_AT_symbol_name("_GPIOF7")
    6183                      .dwattr DW$831, DW_AT_bit_offset(0x08), DW_AT_bit_size(0x01)
    6184                      .dwattr DW$831, DW_AT_data_member_location[DW_OP_plus_uconst 0x0]
    6185                      .dwattr DW$831, DW_AT_accessibility(DW_ACCESS_public)
    6186              DW$832  .dwtag  DW_TAG_member, DW_AT_type(*DW$T$19)
    6187                      .dwattr DW$832, DW_AT_name("GPIOF8"), DW_AT_symbol_name("_GPIOF8")
    6188                      .dwattr DW$832, DW_AT_bit_offset(0x07), DW_AT_bit_size(0x01)
    6189                      .dwattr DW$832, DW_AT_data_member_location[DW_OP_plus_uconst 0x0]
    6190                      .dwattr DW$832, DW_AT_accessibility(DW_ACCESS_public)
    6191              DW$833  .dwtag  DW_TAG_member, DW_AT_type(*DW$T$19)
    6192                      .dwattr DW$833, DW_AT_name("GPIOF9"), DW_AT_symbol_name("_GPIOF9")
    6193                      .dwattr DW$833, DW_AT_bit_offset(0x06), DW_AT_bit_size(0x01)
    6194                      .dwattr DW$833, DW_AT_data_member_location[DW_OP_plus_uconst 0x0]
    6195                      .dwattr DW$833, DW_AT_accessibility(DW_ACCESS_public)
    6196              DW$834  .dwtag  DW_TAG_member, DW_AT_type(*DW$T$19)
    6197                      .dwattr DW$834, DW_AT_name("GPIOF10"), DW_AT_symbol_name("_GPIOF10")
    6198                      .dwattr DW$834, DW_AT_bit_offset(0x05), DW_AT_bit_size(0x01)
    6199                      .dwattr DW$834, DW_AT_data_member_location[DW_OP_plus_uconst 0x0]
    6200                      .dwattr DW$834, DW_AT_accessibility(DW_ACCESS_public)
    6201              DW$835  .dwtag  DW_TAG_member, DW_AT_type(*DW$T$19)
    6202                      .dwattr DW$835, DW_AT_name("GPIOF11"), DW_AT_symbol_name("_GPIOF11")
    6203                      .dwattr DW$835, DW_AT_bit_offset(0x04), DW_AT_bit_size(0x01)
    6204                      .dwattr DW$835, DW_AT_data_member_location[DW_OP_plus_uconst 0x0]
    6205                      .dwattr DW$835, DW_AT_accessibility(DW_ACCESS_public)
    6206              DW$836  .dwtag  DW_TAG_member, DW_AT_type(*DW$T$19)
    6207                      .dwattr DW$836, DW_AT_name("GPIOF12"), DW_AT_symbol_name("_GPIOF12")
    6208                      .dwattr DW$836, DW_AT_bit_offset(0x03), DW_AT_bit_size(0x01)
    6209                      .dwattr DW$836, DW_AT_data_member_location[DW_OP_plus_uconst 0x0]
    6210                      .dwattr DW$836, DW_AT_accessibility(DW_ACCESS_public)
    6211              DW$837  .dwtag  DW_TAG_member, DW_AT_type(*DW$T$19)
    6212                      .dwattr DW$837, DW_AT_name("GPIOF13"), DW_AT_symbol_name("_GPIOF13")
    6213                      .dwattr DW$837, DW_AT_bit_offset(0x02), DW_AT_bit_size(0x01)
    6214                      .dwattr DW$837, DW_AT_data_member_location[DW_OP_plus_uconst 0x0]
TMS320C2000 COFF Assembler PC v4.1.3 Mon Dec 03 13:50:31 2012

Tools Copyright (c) 1996-2006 Texas Instruments Incorporated
C:\DOCUME~1\ADMINI~1\LOCALS~1\Temp\TI9922                            PAGE  117

    6215                      .dwattr DW$837, DW_AT_accessibility(DW_ACCESS_public)
    6216              DW$838  .dwtag  DW_TAG_member, DW_AT_type(*DW$T$19)
    6217                      .dwattr DW$838, DW_AT_name("GPIOF14"), DW_AT_symbol_name("_GPIOF14")
    6218                      .dwattr DW$838, DW_AT_bit_offset(0x01), DW_AT_bit_size(0x01)
    6219                      .dwattr DW$838, DW_AT_data_member_location[DW_OP_plus_uconst 0x0]
    6220                      .dwattr DW$838, DW_AT_accessibility(DW_ACCESS_public)
    6221              DW$839  .dwtag  DW_TAG_member, DW_AT_type(*DW$T$19)
    6222                      .dwattr DW$839, DW_AT_name("GPIOF15"), DW_AT_symbol_name("_GPIOF15")
    6223                      .dwattr DW$839, DW_AT_bit_offset(0x00), DW_AT_bit_size(0x01)
    6224                      .dwattr DW$839, DW_AT_data_member_location[DW_OP_plus_uconst 0x0]
    6225                      .dwattr DW$839, DW_AT_accessibility(DW_ACCESS_public)
    6226                      .dwendtag DW$T$92
    6227              
    6228              
    6229              DW$T$94 .dwtag  DW_TAG_structure_type
    6230                      .dwattr DW$T$94, DW_AT_name("GPFTOGGLE_BITS")
    6231                      .dwattr DW$T$94, DW_AT_byte_size(0x01)
    6232              DW$840  .dwtag  DW_TAG_member, DW_AT_type(*DW$T$19)
    6233                      .dwattr DW$840, DW_AT_name("GPIOF0"), DW_AT_symbol_name("_GPIOF0")
    6234                      .dwattr DW$840, DW_AT_bit_offset(0x0f), DW_AT_bit_size(0x01)
    6235                      .dwattr DW$840, DW_AT_data_member_location[DW_OP_plus_uconst 0x0]
    6236                      .dwattr DW$840, DW_AT_accessibility(DW_ACCESS_public)
    6237              DW$841  .dwtag  DW_TAG_member, DW_AT_type(*DW$T$19)
    6238                      .dwattr DW$841, DW_AT_name("GPIOF1"), DW_AT_symbol_name("_GPIOF1")
    6239                      .dwattr DW$841, DW_AT_bit_offset(0x0e), DW_AT_bit_size(0x01)
    6240                      .dwattr DW$841, DW_AT_data_member_location[DW_OP_plus_uconst 0x0]
    6241                      .dwattr DW$841, DW_AT_accessibility(DW_ACCESS_public)
    6242              DW$842  .dwtag  DW_TAG_member, DW_AT_type(*DW$T$19)
    6243                      .dwattr DW$842, DW_AT_name("GPIOF2"), DW_AT_symbol_name("_GPIOF2")
    6244                      .dwattr DW$842, DW_AT_bit_offset(0x0d), DW_AT_bit_size(0x01)
    6245                      .dwattr DW$842, DW_AT_data_member_location[DW_OP_plus_uconst 0x0]
    6246                      .dwattr DW$842, DW_AT_accessibility(DW_ACCESS_public)
    6247              DW$843  .dwtag  DW_TAG_member, DW_AT_type(*DW$T$19)
    6248                      .dwattr DW$843, DW_AT_name("GPIOF3"), DW_AT_symbol_name("_GPIOF3")
    6249                      .dwattr DW$843, DW_AT_bit_offset(0x0c), DW_AT_bit_size(0x01)
    6250                      .dwattr DW$843, DW_AT_data_member_location[DW_OP_plus_uconst 0x0]
    6251                      .dwattr DW$843, DW_AT_accessibility(DW_ACCESS_public)
    6252              DW$844  .dwtag  DW_TAG_member, DW_AT_type(*DW$T$19)
    6253                      .dwattr DW$844, DW_AT_name("GPIOF4"), DW_AT_symbol_name("_GPIOF4")
    6254                      .dwattr DW$844, DW_AT_bit_offset(0x0b), DW_AT_bit_size(0x01)
    6255                      .dwattr DW$844, DW_AT_data_member_location[DW_OP_plus_uconst 0x0]
    6256                      .dwattr DW$844, DW_AT_accessibility(DW_ACCESS_public)
    6257              DW$845  .dwtag  DW_TAG_member, DW_AT_type(*DW$T$19)
    6258                      .dwattr DW$845, DW_AT_name("GPIOF5"), DW_AT_symbol_name("_GPIOF5")
    6259                      .dwattr DW$845, DW_AT_bit_offset(0x0a), DW_AT_bit_size(0x01)
    6260                      .dwattr DW$845, DW_AT_data_member_location[DW_OP_plus_uconst 0x0]
    6261                      .dwattr DW$845, DW_AT_accessibility(DW_ACCESS_public)
    6262              DW$846  .dwtag  DW_TAG_member, DW_AT_type(*DW$T$19)
    6263                      .dwattr DW$846, DW_AT_name("GPIOF6"), DW_AT_symbol_name("_GPIOF6")
    6264                      .dwattr DW$846, DW_AT_bit_offset(0x09), DW_AT_bit_size(0x01)
    6265                      .dwattr DW$846, DW_AT_data_member_location[DW_OP_plus_uconst 0x0]
    6266                      .dwattr DW$846, DW_AT_accessibility(DW_ACCESS_public)
    6267              DW$847  .dwtag  DW_TAG_member, DW_AT_type(*DW$T$19)
    6268                      .dwattr DW$847, DW_AT_name("GPIOF7"), DW_AT_symbol_name("_GPIOF7")
    6269                      .dwattr DW$847, DW_AT_bit_offset(0x08), DW_AT_bit_size(0x01)
TMS320C2000 COFF Assembler PC v4.1.3 Mon Dec 03 13:50:31 2012

Tools Copyright (c) 1996-2006 Texas Instruments Incorporated
C:\DOCUME~1\ADMINI~1\LOCALS~1\Temp\TI9922                            PAGE  118

    6270                      .dwattr DW$847, DW_AT_data_member_location[DW_OP_plus_uconst 0x0]
    6271                      .dwattr DW$847, DW_AT_accessibility(DW_ACCESS_public)
    6272              DW$848  .dwtag  DW_TAG_member, DW_AT_type(*DW$T$19)
    6273                      .dwattr DW$848, DW_AT_name("GPIOF8"), DW_AT_symbol_name("_GPIOF8")
    6274                      .dwattr DW$848, DW_AT_bit_offset(0x07), DW_AT_bit_size(0x01)
    6275                      .dwattr DW$848, DW_AT_data_member_location[DW_OP_plus_uconst 0x0]
    6276                      .dwattr DW$848, DW_AT_accessibility(DW_ACCESS_public)
    6277              DW$849  .dwtag  DW_TAG_member, DW_AT_type(*DW$T$19)
    6278                      .dwattr DW$849, DW_AT_name("GPIOF9"), DW_AT_symbol_name("_GPIOF9")
    6279                      .dwattr DW$849, DW_AT_bit_offset(0x06), DW_AT_bit_size(0x01)
    6280                      .dwattr DW$849, DW_AT_data_member_location[DW_OP_plus_uconst 0x0]
    6281                      .dwattr DW$849, DW_AT_accessibility(DW_ACCESS_public)
    6282              DW$850  .dwtag  DW_TAG_member, DW_AT_type(*DW$T$19)
    6283                      .dwattr DW$850, DW_AT_name("GPIOF10"), DW_AT_symbol_name("_GPIOF10")
    6284                      .dwattr DW$850, DW_AT_bit_offset(0x05), DW_AT_bit_size(0x01)
    6285                      .dwattr DW$850, DW_AT_data_member_location[DW_OP_plus_uconst 0x0]
    6286                      .dwattr DW$850, DW_AT_accessibility(DW_ACCESS_public)
    6287              DW$851  .dwtag  DW_TAG_member, DW_AT_type(*DW$T$19)
    6288                      .dwattr DW$851, DW_AT_name("GPIOF11"), DW_AT_symbol_name("_GPIOF11")
    6289                      .dwattr DW$851, DW_AT_bit_offset(0x04), DW_AT_bit_size(0x01)
    6290                      .dwattr DW$851, DW_AT_data_member_location[DW_OP_plus_uconst 0x0]
    6291                      .dwattr DW$851, DW_AT_accessibility(DW_ACCESS_public)
    6292              DW$852  .dwtag  DW_TAG_member, DW_AT_type(*DW$T$19)
    6293                      .dwattr DW$852, DW_AT_name("GPIOF12"), DW_AT_symbol_name("_GPIOF12")
    6294                      .dwattr DW$852, DW_AT_bit_offset(0x03), DW_AT_bit_size(0x01)
    6295                      .dwattr DW$852, DW_AT_data_member_location[DW_OP_plus_uconst 0x0]
    6296                      .dwattr DW$852, DW_AT_accessibility(DW_ACCESS_public)
    6297              DW$853  .dwtag  DW_TAG_member, DW_AT_type(*DW$T$19)
    6298                      .dwattr DW$853, DW_AT_name("GPIOF13"), DW_AT_symbol_name("_GPIOF13")
    6299                      .dwattr DW$853, DW_AT_bit_offset(0x02), DW_AT_bit_size(0x01)
    6300                      .dwattr DW$853, DW_AT_data_member_location[DW_OP_plus_uconst 0x0]
    6301                      .dwattr DW$853, DW_AT_accessibility(DW_ACCESS_public)
    6302              DW$854  .dwtag  DW_TAG_member, DW_AT_type(*DW$T$19)
    6303                      .dwattr DW$854, DW_AT_name("GPIOF14"), DW_AT_symbol_name("_GPIOF14")
    6304                      .dwattr DW$854, DW_AT_bit_offset(0x01), DW_AT_bit_size(0x01)
    6305                      .dwattr DW$854, DW_AT_data_member_location[DW_OP_plus_uconst 0x0]
    6306                      .dwattr DW$854, DW_AT_accessibility(DW_ACCESS_public)
    6307              DW$855  .dwtag  DW_TAG_member, DW_AT_type(*DW$T$19)
    6308                      .dwattr DW$855, DW_AT_name("GPIOF15"), DW_AT_symbol_name("_GPIOF15")
    6309                      .dwattr DW$855, DW_AT_bit_offset(0x00), DW_AT_bit_size(0x01)
    6310                      .dwattr DW$855, DW_AT_data_member_location[DW_OP_plus_uconst 0x0]
    6311                      .dwattr DW$855, DW_AT_accessibility(DW_ACCESS_public)
    6312                      .dwendtag DW$T$94
    6313              
    6314              
    6315              DW$T$96 .dwtag  DW_TAG_structure_type
    6316                      .dwattr DW$T$96, DW_AT_name("GPGDAT_BITS")
    6317                      .dwattr DW$T$96, DW_AT_byte_size(0x01)
    6318              DW$856  .dwtag  DW_TAG_member, DW_AT_type(*DW$T$19)
    6319                      .dwattr DW$856, DW_AT_name("rsvd1"), DW_AT_symbol_name("_rsvd1")
    6320                      .dwattr DW$856, DW_AT_bit_offset(0x0c), DW_AT_bit_size(0x04)
    6321                      .dwattr DW$856, DW_AT_data_member_location[DW_OP_plus_uconst 0x0]
    6322                      .dwattr DW$856, DW_AT_accessibility(DW_ACCESS_public)
    6323              DW$857  .dwtag  DW_TAG_member, DW_AT_type(*DW$T$19)
    6324                      .dwattr DW$857, DW_AT_name("GPIOG4"), DW_AT_symbol_name("_GPIOG4")
TMS320C2000 COFF Assembler PC v4.1.3 Mon Dec 03 13:50:31 2012

Tools Copyright (c) 1996-2006 Texas Instruments Incorporated
C:\DOCUME~1\ADMINI~1\LOCALS~1\Temp\TI9922                            PAGE  119

    6325                      .dwattr DW$857, DW_AT_bit_offset(0x0b), DW_AT_bit_size(0x01)
    6326                      .dwattr DW$857, DW_AT_data_member_location[DW_OP_plus_uconst 0x0]
    6327                      .dwattr DW$857, DW_AT_accessibility(DW_ACCESS_public)
    6328              DW$858  .dwtag  DW_TAG_member, DW_AT_type(*DW$T$19)
    6329                      .dwattr DW$858, DW_AT_name("GPIOG5"), DW_AT_symbol_name("_GPIOG5")
    6330                      .dwattr DW$858, DW_AT_bit_offset(0x0a), DW_AT_bit_size(0x01)
    6331                      .dwattr DW$858, DW_AT_data_member_location[DW_OP_plus_uconst 0x0]
    6332                      .dwattr DW$858, DW_AT_accessibility(DW_ACCESS_public)
    6333              DW$859  .dwtag  DW_TAG_member, DW_AT_type(*DW$T$19)
    6334                      .dwattr DW$859, DW_AT_name("rsvd2"), DW_AT_symbol_name("_rsvd2")
    6335                      .dwattr DW$859, DW_AT_bit_offset(0x00), DW_AT_bit_size(0x0a)
    6336                      .dwattr DW$859, DW_AT_data_member_location[DW_OP_plus_uconst 0x0]
    6337                      .dwattr DW$859, DW_AT_accessibility(DW_ACCESS_public)
    6338                      .dwendtag DW$T$96
    6339              
    6340              
    6341              DW$T$98 .dwtag  DW_TAG_structure_type
    6342                      .dwattr DW$T$98, DW_AT_name("GPGSET_BITS")
    6343                      .dwattr DW$T$98, DW_AT_byte_size(0x01)
    6344              DW$860  .dwtag  DW_TAG_member, DW_AT_type(*DW$T$19)
    6345                      .dwattr DW$860, DW_AT_name("rsvd1"), DW_AT_symbol_name("_rsvd1")
    6346                      .dwattr DW$860, DW_AT_bit_offset(0x0c), DW_AT_bit_size(0x04)
    6347                      .dwattr DW$860, DW_AT_data_member_location[DW_OP_plus_uconst 0x0]
    6348                      .dwattr DW$860, DW_AT_accessibility(DW_ACCESS_public)
    6349              DW$861  .dwtag  DW_TAG_member, DW_AT_type(*DW$T$19)
    6350                      .dwattr DW$861, DW_AT_name("GPIOG4"), DW_AT_symbol_name("_GPIOG4")
    6351                      .dwattr DW$861, DW_AT_bit_offset(0x0b), DW_AT_bit_size(0x01)
    6352                      .dwattr DW$861, DW_AT_data_member_location[DW_OP_plus_uconst 0x0]
    6353                      .dwattr DW$861, DW_AT_accessibility(DW_ACCESS_public)
    6354              DW$862  .dwtag  DW_TAG_member, DW_AT_type(*DW$T$19)
    6355                      .dwattr DW$862, DW_AT_name("GPIOG5"), DW_AT_symbol_name("_GPIOG5")
    6356                      .dwattr DW$862, DW_AT_bit_offset(0x0a), DW_AT_bit_size(0x01)
    6357                      .dwattr DW$862, DW_AT_data_member_location[DW_OP_plus_uconst 0x0]
    6358                      .dwattr DW$862, DW_AT_accessibility(DW_ACCESS_public)
    6359              DW$863  .dwtag  DW_TAG_member, DW_AT_type(*DW$T$19)
    6360                      .dwattr DW$863, DW_AT_name("rsvd2"), DW_AT_symbol_name("_rsvd2")
    6361                      .dwattr DW$863, DW_AT_bit_offset(0x00), DW_AT_bit_size(0x0a)
    6362                      .dwattr DW$863, DW_AT_data_member_location[DW_OP_plus_uconst 0x0]
    6363                      .dwattr DW$863, DW_AT_accessibility(DW_ACCESS_public)
    6364                      .dwendtag DW$T$98
    6365              
    6366              
    6367              DW$T$100        .dwtag  DW_TAG_structure_type
    6368                      .dwattr DW$T$100, DW_AT_name("GPGCLEAR_BITS")
    6369                      .dwattr DW$T$100, DW_AT_byte_size(0x01)
    6370              DW$864  .dwtag  DW_TAG_member, DW_AT_type(*DW$T$19)
    6371                      .dwattr DW$864, DW_AT_name("rsvd1"), DW_AT_symbol_name("_rsvd1")
    6372                      .dwattr DW$864, DW_AT_bit_offset(0x0c), DW_AT_bit_size(0x04)
    6373                      .dwattr DW$864, DW_AT_data_member_location[DW_OP_plus_uconst 0x0]
    6374                      .dwattr DW$864, DW_AT_accessibility(DW_ACCESS_public)
    6375              DW$865  .dwtag  DW_TAG_member, DW_AT_type(*DW$T$19)
    6376                      .dwattr DW$865, DW_AT_name("GPIOG4"), DW_AT_symbol_name("_GPIOG4")
    6377                      .dwattr DW$865, DW_AT_bit_offset(0x0b), DW_AT_bit_size(0x01)
    6378                      .dwattr DW$865, DW_AT_data_member_location[DW_OP_plus_uconst 0x0]
    6379                      .dwattr DW$865, DW_AT_accessibility(DW_ACCESS_public)
TMS320C2000 COFF Assembler PC v4.1.3 Mon Dec 03 13:50:31 2012

Tools Copyright (c) 1996-2006 Texas Instruments Incorporated
C:\DOCUME~1\ADMINI~1\LOCALS~1\Temp\TI9922                            PAGE  120

    6380              DW$866  .dwtag  DW_TAG_member, DW_AT_type(*DW$T$19)
    6381                      .dwattr DW$866, DW_AT_name("GPIOG5"), DW_AT_symbol_name("_GPIOG5")
    6382                      .dwattr DW$866, DW_AT_bit_offset(0x0a), DW_AT_bit_size(0x01)
    6383                      .dwattr DW$866, DW_AT_data_member_location[DW_OP_plus_uconst 0x0]
    6384                      .dwattr DW$866, DW_AT_accessibility(DW_ACCESS_public)
    6385              DW$867  .dwtag  DW_TAG_member, DW_AT_type(*DW$T$19)
    6386                      .dwattr DW$867, DW_AT_name("rsvd2"), DW_AT_symbol_name("_rsvd2")
    6387                      .dwattr DW$867, DW_AT_bit_offset(0x00), DW_AT_bit_size(0x0a)
    6388                      .dwattr DW$867, DW_AT_data_member_location[DW_OP_plus_uconst 0x0]
    6389                      .dwattr DW$867, DW_AT_accessibility(DW_ACCESS_public)
    6390                      .dwendtag DW$T$100
    6391              
    6392              
    6393              DW$T$102        .dwtag  DW_TAG_structure_type
    6394                      .dwattr DW$T$102, DW_AT_name("GPGTOGGLE_BITS")
    6395                      .dwattr DW$T$102, DW_AT_byte_size(0x01)
    6396              DW$868  .dwtag  DW_TAG_member, DW_AT_type(*DW$T$19)
    6397                      .dwattr DW$868, DW_AT_name("rsvd1"), DW_AT_symbol_name("_rsvd1")
    6398                      .dwattr DW$868, DW_AT_bit_offset(0x0c), DW_AT_bit_size(0x04)
    6399                      .dwattr DW$868, DW_AT_data_member_location[DW_OP_plus_uconst 0x0]
    6400                      .dwattr DW$868, DW_AT_accessibility(DW_ACCESS_public)
    6401              DW$869  .dwtag  DW_TAG_member, DW_AT_type(*DW$T$19)
    6402                      .dwattr DW$869, DW_AT_name("GPIOG4"), DW_AT_symbol_name("_GPIOG4")
    6403                      .dwattr DW$869, DW_AT_bit_offset(0x0b), DW_AT_bit_size(0x01)
    6404                      .dwattr DW$869, DW_AT_data_member_location[DW_OP_plus_uconst 0x0]
    6405                      .dwattr DW$869, DW_AT_accessibility(DW_ACCESS_public)
    6406              DW$870  .dwtag  DW_TAG_member, DW_AT_type(*DW$T$19)
    6407                      .dwattr DW$870, DW_AT_name("GPIOG5"), DW_AT_symbol_name("_GPIOG5")
    6408                      .dwattr DW$870, DW_AT_bit_offset(0x0a), DW_AT_bit_size(0x01)
    6409                      .dwattr DW$870, DW_AT_data_member_location[DW_OP_plus_uconst 0x0]
    6410                      .dwattr DW$870, DW_AT_accessibility(DW_ACCESS_public)
    6411              DW$871  .dwtag  DW_TAG_member, DW_AT_type(*DW$T$19)
    6412                      .dwattr DW$871, DW_AT_name("rsvd2"), DW_AT_symbol_name("_rsvd2")
    6413                      .dwattr DW$871, DW_AT_bit_offset(0x00), DW_AT_bit_size(0x0a)
    6414                      .dwattr DW$871, DW_AT_data_member_location[DW_OP_plus_uconst 0x0]
    6415                      .dwattr DW$871, DW_AT_accessibility(DW_ACCESS_public)
    6416                      .dwendtag DW$T$102
    6417              
    6418              
    6419              DW$T$106        .dwtag  DW_TAG_structure_type
    6420                      .dwattr DW$T$106, DW_AT_name("GPTCONB_BITS")
    6421                      .dwattr DW$T$106, DW_AT_byte_size(0x01)
    6422              DW$872  .dwtag  DW_TAG_member, DW_AT_type(*DW$T$19)
    6423                      .dwattr DW$872, DW_AT_name("T3PIN"), DW_AT_symbol_name("_T3PIN")
    6424                      .dwattr DW$872, DW_AT_bit_offset(0x0e), DW_AT_bit_size(0x02)
    6425                      .dwattr DW$872, DW_AT_data_member_location[DW_OP_plus_uconst 0x0]
    6426                      .dwattr DW$872, DW_AT_accessibility(DW_ACCESS_public)
    6427              DW$873  .dwtag  DW_TAG_member, DW_AT_type(*DW$T$19)
    6428                      .dwattr DW$873, DW_AT_name("T4PIN"), DW_AT_symbol_name("_T4PIN")
    6429                      .dwattr DW$873, DW_AT_bit_offset(0x0c), DW_AT_bit_size(0x02)
    6430                      .dwattr DW$873, DW_AT_data_member_location[DW_OP_plus_uconst 0x0]
    6431                      .dwattr DW$873, DW_AT_accessibility(DW_ACCESS_public)
    6432              DW$874  .dwtag  DW_TAG_member, DW_AT_type(*DW$T$19)
    6433                      .dwattr DW$874, DW_AT_name("T3CMPOE"), DW_AT_symbol_name("_T3CMPOE")
    6434                      .dwattr DW$874, DW_AT_bit_offset(0x0b), DW_AT_bit_size(0x01)
TMS320C2000 COFF Assembler PC v4.1.3 Mon Dec 03 13:50:31 2012

Tools Copyright (c) 1996-2006 Texas Instruments Incorporated
C:\DOCUME~1\ADMINI~1\LOCALS~1\Temp\TI9922                            PAGE  121

    6435                      .dwattr DW$874, DW_AT_data_member_location[DW_OP_plus_uconst 0x0]
    6436                      .dwattr DW$874, DW_AT_accessibility(DW_ACCESS_public)
    6437              DW$875  .dwtag  DW_TAG_member, DW_AT_type(*DW$T$19)
    6438                      .dwattr DW$875, DW_AT_name("T4CMPOE"), DW_AT_symbol_name("_T4CMPOE")
    6439                      .dwattr DW$875, DW_AT_bit_offset(0x0a), DW_AT_bit_size(0x01)
    6440                      .dwattr DW$875, DW_AT_data_member_location[DW_OP_plus_uconst 0x0]
    6441                      .dwattr DW$875, DW_AT_accessibility(DW_ACCESS_public)
    6442              DW$876  .dwtag  DW_TAG_member, DW_AT_type(*DW$T$19)
    6443                      .dwattr DW$876, DW_AT_name("TCMPOE"), DW_AT_symbol_name("_TCMPOE")
    6444                      .dwattr DW$876, DW_AT_bit_offset(0x09), DW_AT_bit_size(0x01)
    6445                      .dwattr DW$876, DW_AT_data_member_location[DW_OP_plus_uconst 0x0]
    6446                      .dwattr DW$876, DW_AT_accessibility(DW_ACCESS_public)
    6447              DW$877  .dwtag  DW_TAG_member, DW_AT_type(*DW$T$19)
    6448                      .dwattr DW$877, DW_AT_name("T3TOADC"), DW_AT_symbol_name("_T3TOADC")
    6449                      .dwattr DW$877, DW_AT_bit_offset(0x07), DW_AT_bit_size(0x02)
    6450                      .dwattr DW$877, DW_AT_data_member_location[DW_OP_plus_uconst 0x0]
    6451                      .dwattr DW$877, DW_AT_accessibility(DW_ACCESS_public)
    6452              DW$878  .dwtag  DW_TAG_member, DW_AT_type(*DW$T$19)
    6453                      .dwattr DW$878, DW_AT_name("T4TOADC"), DW_AT_symbol_name("_T4TOADC")
    6454                      .dwattr DW$878, DW_AT_bit_offset(0x05), DW_AT_bit_size(0x02)
    6455                      .dwattr DW$878, DW_AT_data_member_location[DW_OP_plus_uconst 0x0]
    6456                      .dwattr DW$878, DW_AT_accessibility(DW_ACCESS_public)
    6457              DW$879  .dwtag  DW_TAG_member, DW_AT_type(*DW$T$19)
    6458                      .dwattr DW$879, DW_AT_name("T3CTRIPE"), DW_AT_symbol_name("_T3CTRIPE")
    6459                      .dwattr DW$879, DW_AT_bit_offset(0x04), DW_AT_bit_size(0x01)
    6460                      .dwattr DW$879, DW_AT_data_member_location[DW_OP_plus_uconst 0x0]
    6461                      .dwattr DW$879, DW_AT_accessibility(DW_ACCESS_public)
    6462              DW$880  .dwtag  DW_TAG_member, DW_AT_type(*DW$T$19)
    6463                      .dwattr DW$880, DW_AT_name("T4CTRIPE"), DW_AT_symbol_name("_T4CTRIPE")
    6464                      .dwattr DW$880, DW_AT_bit_offset(0x03), DW_AT_bit_size(0x01)
    6465                      .dwattr DW$880, DW_AT_data_member_location[DW_OP_plus_uconst 0x0]
    6466                      .dwattr DW$880, DW_AT_accessibility(DW_ACCESS_public)
    6467              DW$881  .dwtag  DW_TAG_member, DW_AT_type(*DW$T$19)
    6468                      .dwattr DW$881, DW_AT_name("T3STAT"), DW_AT_symbol_name("_T3STAT")
    6469                      .dwattr DW$881, DW_AT_bit_offset(0x02), DW_AT_bit_size(0x01)
    6470                      .dwattr DW$881, DW_AT_data_member_location[DW_OP_plus_uconst 0x0]
    6471                      .dwattr DW$881, DW_AT_accessibility(DW_ACCESS_public)
    6472              DW$882  .dwtag  DW_TAG_member, DW_AT_type(*DW$T$19)
    6473                      .dwattr DW$882, DW_AT_name("T4STAT"), DW_AT_symbol_name("_T4STAT")
    6474                      .dwattr DW$882, DW_AT_bit_offset(0x01), DW_AT_bit_size(0x01)
    6475                      .dwattr DW$882, DW_AT_data_member_location[DW_OP_plus_uconst 0x0]
    6476                      .dwattr DW$882, DW_AT_accessibility(DW_ACCESS_public)
    6477              DW$883  .dwtag  DW_TAG_member, DW_AT_type(*DW$T$19)
    6478                      .dwattr DW$883, DW_AT_name("rsvd2"), DW_AT_symbol_name("_rsvd2")
    6479                      .dwattr DW$883, DW_AT_bit_offset(0x00), DW_AT_bit_size(0x01)
    6480                      .dwattr DW$883, DW_AT_data_member_location[DW_OP_plus_uconst 0x0]
    6481                      .dwattr DW$883, DW_AT_accessibility(DW_ACCESS_public)
    6482                      .dwendtag DW$T$106
    6483              
    6484              
    6485              DW$T$108        .dwtag  DW_TAG_structure_type
    6486                      .dwattr DW$T$108, DW_AT_name("T3CON_BITS")
    6487                      .dwattr DW$T$108, DW_AT_byte_size(0x01)
    6488              DW$884  .dwtag  DW_TAG_member, DW_AT_type(*DW$T$19)
    6489                      .dwattr DW$884, DW_AT_name("rsvd1"), DW_AT_symbol_name("_rsvd1")
TMS320C2000 COFF Assembler PC v4.1.3 Mon Dec 03 13:50:31 2012

Tools Copyright (c) 1996-2006 Texas Instruments Incorporated
C:\DOCUME~1\ADMINI~1\LOCALS~1\Temp\TI9922                            PAGE  122

    6490                      .dwattr DW$884, DW_AT_bit_offset(0x0f), DW_AT_bit_size(0x01)
    6491                      .dwattr DW$884, DW_AT_data_member_location[DW_OP_plus_uconst 0x0]
    6492                      .dwattr DW$884, DW_AT_accessibility(DW_ACCESS_public)
    6493              DW$885  .dwtag  DW_TAG_member, DW_AT_type(*DW$T$19)
    6494                      .dwattr DW$885, DW_AT_name("TECMPR"), DW_AT_symbol_name("_TECMPR")
    6495                      .dwattr DW$885, DW_AT_bit_offset(0x0e), DW_AT_bit_size(0x01)
    6496                      .dwattr DW$885, DW_AT_data_member_location[DW_OP_plus_uconst 0x0]
    6497                      .dwattr DW$885, DW_AT_accessibility(DW_ACCESS_public)
    6498              DW$886  .dwtag  DW_TAG_member, DW_AT_type(*DW$T$19)
    6499                      .dwattr DW$886, DW_AT_name("TCLD10"), DW_AT_symbol_name("_TCLD10")
    6500                      .dwattr DW$886, DW_AT_bit_offset(0x0c), DW_AT_bit_size(0x02)
    6501                      .dwattr DW$886, DW_AT_data_member_location[DW_OP_plus_uconst 0x0]
    6502                      .dwattr DW$886, DW_AT_accessibility(DW_ACCESS_public)
    6503              DW$887  .dwtag  DW_TAG_member, DW_AT_type(*DW$T$19)
    6504                      .dwattr DW$887, DW_AT_name("TCLKS10"), DW_AT_symbol_name("_TCLKS10")
    6505                      .dwattr DW$887, DW_AT_bit_offset(0x0a), DW_AT_bit_size(0x02)
    6506                      .dwattr DW$887, DW_AT_data_member_location[DW_OP_plus_uconst 0x0]
    6507                      .dwattr DW$887, DW_AT_accessibility(DW_ACCESS_public)
    6508              DW$888  .dwtag  DW_TAG_member, DW_AT_type(*DW$T$19)
    6509                      .dwattr DW$888, DW_AT_name("TENABLE"), DW_AT_symbol_name("_TENABLE")
    6510                      .dwattr DW$888, DW_AT_bit_offset(0x09), DW_AT_bit_size(0x01)
    6511                      .dwattr DW$888, DW_AT_data_member_location[DW_OP_plus_uconst 0x0]
    6512                      .dwattr DW$888, DW_AT_accessibility(DW_ACCESS_public)
    6513              DW$889  .dwtag  DW_TAG_member, DW_AT_type(*DW$T$19)
    6514                      .dwattr DW$889, DW_AT_name("rsvd2"), DW_AT_symbol_name("_rsvd2")
    6515                      .dwattr DW$889, DW_AT_bit_offset(0x08), DW_AT_bit_size(0x01)
    6516                      .dwattr DW$889, DW_AT_data_member_location[DW_OP_plus_uconst 0x0]
    6517                      .dwattr DW$889, DW_AT_accessibility(DW_ACCESS_public)
    6518              DW$890  .dwtag  DW_TAG_member, DW_AT_type(*DW$T$19)
    6519                      .dwattr DW$890, DW_AT_name("TPS"), DW_AT_symbol_name("_TPS")
    6520                      .dwattr DW$890, DW_AT_bit_offset(0x05), DW_AT_bit_size(0x03)
    6521                      .dwattr DW$890, DW_AT_data_member_location[DW_OP_plus_uconst 0x0]
    6522                      .dwattr DW$890, DW_AT_accessibility(DW_ACCESS_public)
    6523              DW$891  .dwtag  DW_TAG_member, DW_AT_type(*DW$T$19)
    6524                      .dwattr DW$891, DW_AT_name("TMODE"), DW_AT_symbol_name("_TMODE")
    6525                      .dwattr DW$891, DW_AT_bit_offset(0x03), DW_AT_bit_size(0x02)
    6526                      .dwattr DW$891, DW_AT_data_member_location[DW_OP_plus_uconst 0x0]
    6527                      .dwattr DW$891, DW_AT_accessibility(DW_ACCESS_public)
    6528              DW$892  .dwtag  DW_TAG_member, DW_AT_type(*DW$T$19)
    6529                      .dwattr DW$892, DW_AT_name("rsvd"), DW_AT_symbol_name("_rsvd")
    6530                      .dwattr DW$892, DW_AT_bit_offset(0x02), DW_AT_bit_size(0x01)
    6531                      .dwattr DW$892, DW_AT_data_member_location[DW_OP_plus_uconst 0x0]
    6532                      .dwattr DW$892, DW_AT_accessibility(DW_ACCESS_public)
    6533              DW$893  .dwtag  DW_TAG_member, DW_AT_type(*DW$T$19)
    6534                      .dwattr DW$893, DW_AT_name("FREE"), DW_AT_symbol_name("_FREE")
    6535                      .dwattr DW$893, DW_AT_bit_offset(0x01), DW_AT_bit_size(0x01)
    6536                      .dwattr DW$893, DW_AT_data_member_location[DW_OP_plus_uconst 0x0]
    6537                      .dwattr DW$893, DW_AT_accessibility(DW_ACCESS_public)
    6538              DW$894  .dwtag  DW_TAG_member, DW_AT_type(*DW$T$19)
    6539                      .dwattr DW$894, DW_AT_name("SOFT"), DW_AT_symbol_name("_SOFT")
    6540                      .dwattr DW$894, DW_AT_bit_offset(0x00), DW_AT_bit_size(0x01)
    6541                      .dwattr DW$894, DW_AT_data_member_location[DW_OP_plus_uconst 0x0]
    6542                      .dwattr DW$894, DW_AT_accessibility(DW_ACCESS_public)
    6543                      .dwendtag DW$T$108
    6544              
TMS320C2000 COFF Assembler PC v4.1.3 Mon Dec 03 13:50:31 2012

Tools Copyright (c) 1996-2006 Texas Instruments Incorporated
C:\DOCUME~1\ADMINI~1\LOCALS~1\Temp\TI9922                            PAGE  123

    6545              
    6546              DW$T$110        .dwtag  DW_TAG_structure_type
    6547                      .dwattr DW$T$110, DW_AT_name("T4CON_BITS")
    6548                      .dwattr DW$T$110, DW_AT_byte_size(0x01)
    6549              DW$895  .dwtag  DW_TAG_member, DW_AT_type(*DW$T$19)
    6550                      .dwattr DW$895, DW_AT_name("SET3PR"), DW_AT_symbol_name("_SET3PR")
    6551                      .dwattr DW$895, DW_AT_bit_offset(0x0f), DW_AT_bit_size(0x01)
    6552                      .dwattr DW$895, DW_AT_data_member_location[DW_OP_plus_uconst 0x0]
    6553                      .dwattr DW$895, DW_AT_accessibility(DW_ACCESS_public)
    6554              DW$896  .dwtag  DW_TAG_member, DW_AT_type(*DW$T$19)
    6555                      .dwattr DW$896, DW_AT_name("TECMPR"), DW_AT_symbol_name("_TECMPR")
    6556                      .dwattr DW$896, DW_AT_bit_offset(0x0e), DW_AT_bit_size(0x01)
    6557                      .dwattr DW$896, DW_AT_data_member_location[DW_OP_plus_uconst 0x0]
    6558                      .dwattr DW$896, DW_AT_accessibility(DW_ACCESS_public)
    6559              DW$897  .dwtag  DW_TAG_member, DW_AT_type(*DW$T$19)
    6560                      .dwattr DW$897, DW_AT_name("TCLD10"), DW_AT_symbol_name("_TCLD10")
    6561                      .dwattr DW$897, DW_AT_bit_offset(0x0c), DW_AT_bit_size(0x02)
    6562                      .dwattr DW$897, DW_AT_data_member_location[DW_OP_plus_uconst 0x0]
    6563                      .dwattr DW$897, DW_AT_accessibility(DW_ACCESS_public)
    6564              DW$898  .dwtag  DW_TAG_member, DW_AT_type(*DW$T$19)
    6565                      .dwattr DW$898, DW_AT_name("TCLKS10"), DW_AT_symbol_name("_TCLKS10")
    6566                      .dwattr DW$898, DW_AT_bit_offset(0x0a), DW_AT_bit_size(0x02)
    6567                      .dwattr DW$898, DW_AT_data_member_location[DW_OP_plus_uconst 0x0]
    6568                      .dwattr DW$898, DW_AT_accessibility(DW_ACCESS_public)
    6569              DW$899  .dwtag  DW_TAG_member, DW_AT_type(*DW$T$19)
    6570                      .dwattr DW$899, DW_AT_name("TENABLE"), DW_AT_symbol_name("_TENABLE")
    6571                      .dwattr DW$899, DW_AT_bit_offset(0x09), DW_AT_bit_size(0x01)
    6572                      .dwattr DW$899, DW_AT_data_member_location[DW_OP_plus_uconst 0x0]
    6573                      .dwattr DW$899, DW_AT_accessibility(DW_ACCESS_public)
    6574              DW$900  .dwtag  DW_TAG_member, DW_AT_type(*DW$T$19)
    6575                      .dwattr DW$900, DW_AT_name("T4SWT3"), DW_AT_symbol_name("_T4SWT3")
    6576                      .dwattr DW$900, DW_AT_bit_offset(0x08), DW_AT_bit_size(0x01)
    6577                      .dwattr DW$900, DW_AT_data_member_location[DW_OP_plus_uconst 0x0]
    6578                      .dwattr DW$900, DW_AT_accessibility(DW_ACCESS_public)
    6579              DW$901  .dwtag  DW_TAG_member, DW_AT_type(*DW$T$19)
    6580                      .dwattr DW$901, DW_AT_name("TPS"), DW_AT_symbol_name("_TPS")
    6581                      .dwattr DW$901, DW_AT_bit_offset(0x05), DW_AT_bit_size(0x03)
    6582                      .dwattr DW$901, DW_AT_data_member_location[DW_OP_plus_uconst 0x0]
    6583                      .dwattr DW$901, DW_AT_accessibility(DW_ACCESS_public)
    6584              DW$902  .dwtag  DW_TAG_member, DW_AT_type(*DW$T$19)
    6585                      .dwattr DW$902, DW_AT_name("TMODE"), DW_AT_symbol_name("_TMODE")
    6586                      .dwattr DW$902, DW_AT_bit_offset(0x03), DW_AT_bit_size(0x02)
    6587                      .dwattr DW$902, DW_AT_data_member_location[DW_OP_plus_uconst 0x0]
    6588                      .dwattr DW$902, DW_AT_accessibility(DW_ACCESS_public)
    6589              DW$903  .dwtag  DW_TAG_member, DW_AT_type(*DW$T$19)
    6590                      .dwattr DW$903, DW_AT_name("rsvd"), DW_AT_symbol_name("_rsvd")
    6591                      .dwattr DW$903, DW_AT_bit_offset(0x02), DW_AT_bit_size(0x01)
    6592                      .dwattr DW$903, DW_AT_data_member_location[DW_OP_plus_uconst 0x0]
    6593                      .dwattr DW$903, DW_AT_accessibility(DW_ACCESS_public)
    6594              DW$904  .dwtag  DW_TAG_member, DW_AT_type(*DW$T$19)
    6595                      .dwattr DW$904, DW_AT_name("FREE"), DW_AT_symbol_name("_FREE")
    6596                      .dwattr DW$904, DW_AT_bit_offset(0x01), DW_AT_bit_size(0x01)
    6597                      .dwattr DW$904, DW_AT_data_member_location[DW_OP_plus_uconst 0x0]
    6598                      .dwattr DW$904, DW_AT_accessibility(DW_ACCESS_public)
    6599              DW$905  .dwtag  DW_TAG_member, DW_AT_type(*DW$T$19)
TMS320C2000 COFF Assembler PC v4.1.3 Mon Dec 03 13:50:31 2012

Tools Copyright (c) 1996-2006 Texas Instruments Incorporated
C:\DOCUME~1\ADMINI~1\LOCALS~1\Temp\TI9922                            PAGE  124

    6600                      .dwattr DW$905, DW_AT_name("SOFT"), DW_AT_symbol_name("_SOFT")
    6601                      .dwattr DW$905, DW_AT_bit_offset(0x00), DW_AT_bit_size(0x01)
    6602                      .dwattr DW$905, DW_AT_data_member_location[DW_OP_plus_uconst 0x0]
    6603                      .dwattr DW$905, DW_AT_accessibility(DW_ACCESS_public)
    6604                      .dwendtag DW$T$110
    6605              
    6606              
    6607              DW$T$112        .dwtag  DW_TAG_structure_type
    6608                      .dwattr DW$T$112, DW_AT_name("EXTCONA_BITS")
    6609                      .dwattr DW$T$112, DW_AT_byte_size(0x01)
    6610              DW$906  .dwtag  DW_TAG_member, DW_AT_type(*DW$T$19)
    6611                      .dwattr DW$906, DW_AT_name("INDCOE"), DW_AT_symbol_name("_INDCOE")
    6612                      .dwattr DW$906, DW_AT_bit_offset(0x0f), DW_AT_bit_size(0x01)
    6613                      .dwattr DW$906, DW_AT_data_member_location[DW_OP_plus_uconst 0x0]
    6614                      .dwattr DW$906, DW_AT_accessibility(DW_ACCESS_public)
    6615              DW$907  .dwtag  DW_TAG_member, DW_AT_type(*DW$T$19)
    6616                      .dwattr DW$907, DW_AT_name("QEPIQUAL"), DW_AT_symbol_name("_QEPIQUAL")
    6617                      .dwattr DW$907, DW_AT_bit_offset(0x0e), DW_AT_bit_size(0x01)
    6618                      .dwattr DW$907, DW_AT_data_member_location[DW_OP_plus_uconst 0x0]
    6619                      .dwattr DW$907, DW_AT_accessibility(DW_ACCESS_public)
    6620              DW$908  .dwtag  DW_TAG_member, DW_AT_type(*DW$T$19)
    6621                      .dwattr DW$908, DW_AT_name("QEPIE"), DW_AT_symbol_name("_QEPIE")
    6622                      .dwattr DW$908, DW_AT_bit_offset(0x0d), DW_AT_bit_size(0x01)
    6623                      .dwattr DW$908, DW_AT_data_member_location[DW_OP_plus_uconst 0x0]
    6624                      .dwattr DW$908, DW_AT_accessibility(DW_ACCESS_public)
    6625              DW$909  .dwtag  DW_TAG_member, DW_AT_type(*DW$T$19)
    6626                      .dwattr DW$909, DW_AT_name("EVSOCE"), DW_AT_symbol_name("_EVSOCE")
    6627                      .dwattr DW$909, DW_AT_bit_offset(0x0c), DW_AT_bit_size(0x01)
    6628                      .dwattr DW$909, DW_AT_data_member_location[DW_OP_plus_uconst 0x0]
    6629                      .dwattr DW$909, DW_AT_accessibility(DW_ACCESS_public)
    6630              DW$910  .dwtag  DW_TAG_member, DW_AT_type(*DW$T$19)
    6631                      .dwattr DW$910, DW_AT_name("rsvd"), DW_AT_symbol_name("_rsvd")
    6632                      .dwattr DW$910, DW_AT_bit_offset(0x00), DW_AT_bit_size(0x0c)
    6633                      .dwattr DW$910, DW_AT_data_member_location[DW_OP_plus_uconst 0x0]
    6634                      .dwattr DW$910, DW_AT_accessibility(DW_ACCESS_public)
    6635                      .dwendtag DW$T$112
    6636              
    6637              
    6638              DW$T$114        .dwtag  DW_TAG_structure_type
    6639                      .dwattr DW$T$114, DW_AT_name("COMCONB_BITS")
    6640                      .dwattr DW$T$114, DW_AT_byte_size(0x01)
    6641              DW$911  .dwtag  DW_TAG_member, DW_AT_type(*DW$T$19)
    6642                      .dwattr DW$911, DW_AT_name("C4TRIPE"), DW_AT_symbol_name("_C4TRIPE")
    6643                      .dwattr DW$911, DW_AT_bit_offset(0x0f), DW_AT_bit_size(0x01)
    6644                      .dwattr DW$911, DW_AT_data_member_location[DW_OP_plus_uconst 0x0]
    6645                      .dwattr DW$911, DW_AT_accessibility(DW_ACCESS_public)
    6646              DW$912  .dwtag  DW_TAG_member, DW_AT_type(*DW$T$19)
    6647                      .dwattr DW$912, DW_AT_name("C5TRIPE"), DW_AT_symbol_name("_C5TRIPE")
    6648                      .dwattr DW$912, DW_AT_bit_offset(0x0e), DW_AT_bit_size(0x01)
    6649                      .dwattr DW$912, DW_AT_data_member_location[DW_OP_plus_uconst 0x0]
    6650                      .dwattr DW$912, DW_AT_accessibility(DW_ACCESS_public)
    6651              DW$913  .dwtag  DW_TAG_member, DW_AT_type(*DW$T$19)
    6652                      .dwattr DW$913, DW_AT_name("C6TRIPE"), DW_AT_symbol_name("_C6TRIPE")
    6653                      .dwattr DW$913, DW_AT_bit_offset(0x0d), DW_AT_bit_size(0x01)
    6654                      .dwattr DW$913, DW_AT_data_member_location[DW_OP_plus_uconst 0x0]
TMS320C2000 COFF Assembler PC v4.1.3 Mon Dec 03 13:50:31 2012

Tools Copyright (c) 1996-2006 Texas Instruments Incorporated
C:\DOCUME~1\ADMINI~1\LOCALS~1\Temp\TI9922                            PAGE  125

    6655                      .dwattr DW$913, DW_AT_accessibility(DW_ACCESS_public)
    6656              DW$914  .dwtag  DW_TAG_member, DW_AT_type(*DW$T$19)
    6657                      .dwattr DW$914, DW_AT_name("rsvd"), DW_AT_symbol_name("_rsvd")
    6658                      .dwattr DW$914, DW_AT_bit_offset(0x0b), DW_AT_bit_size(0x02)
    6659                      .dwattr DW$914, DW_AT_data_member_location[DW_OP_plus_uconst 0x0]
    6660                      .dwattr DW$914, DW_AT_accessibility(DW_ACCESS_public)
    6661              DW$915  .dwtag  DW_TAG_member, DW_AT_type(*DW$T$19)
    6662                      .dwattr DW$915, DW_AT_name("FCMP4OE"), DW_AT_symbol_name("_FCMP4OE")
    6663                      .dwattr DW$915, DW_AT_bit_offset(0x0a), DW_AT_bit_size(0x01)
    6664                      .dwattr DW$915, DW_AT_data_member_location[DW_OP_plus_uconst 0x0]
    6665                      .dwattr DW$915, DW_AT_accessibility(DW_ACCESS_public)
    6666              DW$916  .dwtag  DW_TAG_member, DW_AT_type(*DW$T$19)
    6667                      .dwattr DW$916, DW_AT_name("FCMP5OE"), DW_AT_symbol_name("_FCMP5OE")
    6668                      .dwattr DW$916, DW_AT_bit_offset(0x09), DW_AT_bit_size(0x01)
    6669                      .dwattr DW$916, DW_AT_data_member_location[DW_OP_plus_uconst 0x0]
    6670                      .dwattr DW$916, DW_AT_accessibility(DW_ACCESS_public)
    6671              DW$917  .dwtag  DW_TAG_member, DW_AT_type(*DW$T$19)
    6672                      .dwattr DW$917, DW_AT_name("FCMP6OE"), DW_AT_symbol_name("_FCMP6OE")
    6673                      .dwattr DW$917, DW_AT_bit_offset(0x08), DW_AT_bit_size(0x01)
    6674                      .dwattr DW$917, DW_AT_data_member_location[DW_OP_plus_uconst 0x0]
    6675                      .dwattr DW$917, DW_AT_accessibility(DW_ACCESS_public)
    6676              DW$918  .dwtag  DW_TAG_member, DW_AT_type(*DW$T$19)
    6677                      .dwattr DW$918, DW_AT_name("PDPINTBSTATUS"), DW_AT_symbol_name("_PDPINTBSTATUS")
    6678                      .dwattr DW$918, DW_AT_bit_offset(0x07), DW_AT_bit_size(0x01)
    6679                      .dwattr DW$918, DW_AT_data_member_location[DW_OP_plus_uconst 0x0]
    6680                      .dwattr DW$918, DW_AT_accessibility(DW_ACCESS_public)
    6681              DW$919  .dwtag  DW_TAG_member, DW_AT_type(*DW$T$19)
    6682                      .dwattr DW$919, DW_AT_name("FCOMPOE"), DW_AT_symbol_name("_FCOMPOE")
    6683                      .dwattr DW$919, DW_AT_bit_offset(0x06), DW_AT_bit_size(0x01)
    6684                      .dwattr DW$919, DW_AT_data_member_location[DW_OP_plus_uconst 0x0]
    6685                      .dwattr DW$919, DW_AT_accessibility(DW_ACCESS_public)
    6686              DW$920  .dwtag  DW_TAG_member, DW_AT_type(*DW$T$19)
    6687                      .dwattr DW$920, DW_AT_name("ACTRLD"), DW_AT_symbol_name("_ACTRLD")
    6688                      .dwattr DW$920, DW_AT_bit_offset(0x04), DW_AT_bit_size(0x02)
    6689                      .dwattr DW$920, DW_AT_data_member_location[DW_OP_plus_uconst 0x0]
    6690                      .dwattr DW$920, DW_AT_accessibility(DW_ACCESS_public)
    6691              DW$921  .dwtag  DW_TAG_member, DW_AT_type(*DW$T$19)
    6692                      .dwattr DW$921, DW_AT_name("SVENABLE"), DW_AT_symbol_name("_SVENABLE")
    6693                      .dwattr DW$921, DW_AT_bit_offset(0x03), DW_AT_bit_size(0x01)
    6694                      .dwattr DW$921, DW_AT_data_member_location[DW_OP_plus_uconst 0x0]
    6695                      .dwattr DW$921, DW_AT_accessibility(DW_ACCESS_public)
    6696              DW$922  .dwtag  DW_TAG_member, DW_AT_type(*DW$T$19)
    6697                      .dwattr DW$922, DW_AT_name("CLD"), DW_AT_symbol_name("_CLD")
    6698                      .dwattr DW$922, DW_AT_bit_offset(0x01), DW_AT_bit_size(0x02)
    6699                      .dwattr DW$922, DW_AT_data_member_location[DW_OP_plus_uconst 0x0]
    6700                      .dwattr DW$922, DW_AT_accessibility(DW_ACCESS_public)
    6701              DW$923  .dwtag  DW_TAG_member, DW_AT_type(*DW$T$19)
    6702                      .dwattr DW$923, DW_AT_name("CENABLE"), DW_AT_symbol_name("_CENABLE")
    6703                      .dwattr DW$923, DW_AT_bit_offset(0x00), DW_AT_bit_size(0x01)
    6704                      .dwattr DW$923, DW_AT_data_member_location[DW_OP_plus_uconst 0x0]
    6705                      .dwattr DW$923, DW_AT_accessibility(DW_ACCESS_public)
    6706                      .dwendtag DW$T$114
    6707              
    6708              
    6709              DW$T$116        .dwtag  DW_TAG_structure_type
TMS320C2000 COFF Assembler PC v4.1.3 Mon Dec 03 13:50:31 2012

Tools Copyright (c) 1996-2006 Texas Instruments Incorporated
C:\DOCUME~1\ADMINI~1\LOCALS~1\Temp\TI9922                            PAGE  126

    6710                      .dwattr DW$T$116, DW_AT_name("ACTRB_BITS")
    6711                      .dwattr DW$T$116, DW_AT_byte_size(0x01)
    6712              DW$924  .dwtag  DW_TAG_member, DW_AT_type(*DW$T$19)
    6713                      .dwattr DW$924, DW_AT_name("CMP7ACT"), DW_AT_symbol_name("_CMP7ACT")
    6714                      .dwattr DW$924, DW_AT_bit_offset(0x0e), DW_AT_bit_size(0x02)
    6715                      .dwattr DW$924, DW_AT_data_member_location[DW_OP_plus_uconst 0x0]
    6716                      .dwattr DW$924, DW_AT_accessibility(DW_ACCESS_public)
    6717              DW$925  .dwtag  DW_TAG_member, DW_AT_type(*DW$T$19)
    6718                      .dwattr DW$925, DW_AT_name("CMP8ACT"), DW_AT_symbol_name("_CMP8ACT")
    6719                      .dwattr DW$925, DW_AT_bit_offset(0x0c), DW_AT_bit_size(0x02)
    6720                      .dwattr DW$925, DW_AT_data_member_location[DW_OP_plus_uconst 0x0]
    6721                      .dwattr DW$925, DW_AT_accessibility(DW_ACCESS_public)
    6722              DW$926  .dwtag  DW_TAG_member, DW_AT_type(*DW$T$19)
    6723                      .dwattr DW$926, DW_AT_name("CMP9ACT"), DW_AT_symbol_name("_CMP9ACT")
    6724                      .dwattr DW$926, DW_AT_bit_offset(0x0a), DW_AT_bit_size(0x02)
    6725                      .dwattr DW$926, DW_AT_data_member_location[DW_OP_plus_uconst 0x0]
    6726                      .dwattr DW$926, DW_AT_accessibility(DW_ACCESS_public)
    6727              DW$927  .dwtag  DW_TAG_member, DW_AT_type(*DW$T$19)
    6728                      .dwattr DW$927, DW_AT_name("CMP10ACT"), DW_AT_symbol_name("_CMP10ACT")
    6729                      .dwattr DW$927, DW_AT_bit_offset(0x08), DW_AT_bit_size(0x02)
    6730                      .dwattr DW$927, DW_AT_data_member_location[DW_OP_plus_uconst 0x0]
    6731                      .dwattr DW$927, DW_AT_accessibility(DW_ACCESS_public)
    6732              DW$928  .dwtag  DW_TAG_member, DW_AT_type(*DW$T$19)
    6733                      .dwattr DW$928, DW_AT_name("CMP11ACT"), DW_AT_symbol_name("_CMP11ACT")
    6734                      .dwattr DW$928, DW_AT_bit_offset(0x06), DW_AT_bit_size(0x02)
    6735                      .dwattr DW$928, DW_AT_data_member_location[DW_OP_plus_uconst 0x0]
    6736                      .dwattr DW$928, DW_AT_accessibility(DW_ACCESS_public)
    6737              DW$929  .dwtag  DW_TAG_member, DW_AT_type(*DW$T$19)
    6738                      .dwattr DW$929, DW_AT_name("CMP12ACT"), DW_AT_symbol_name("_CMP12ACT")
    6739                      .dwattr DW$929, DW_AT_bit_offset(0x04), DW_AT_bit_size(0x02)
    6740                      .dwattr DW$929, DW_AT_data_member_location[DW_OP_plus_uconst 0x0]
    6741                      .dwattr DW$929, DW_AT_accessibility(DW_ACCESS_public)
    6742              DW$930  .dwtag  DW_TAG_member, DW_AT_type(*DW$T$19)
    6743                      .dwattr DW$930, DW_AT_name("D"), DW_AT_symbol_name("_D")
    6744                      .dwattr DW$930, DW_AT_bit_offset(0x01), DW_AT_bit_size(0x03)
    6745                      .dwattr DW$930, DW_AT_data_member_location[DW_OP_plus_uconst 0x0]
    6746                      .dwattr DW$930, DW_AT_accessibility(DW_ACCESS_public)
    6747              DW$931  .dwtag  DW_TAG_member, DW_AT_type(*DW$T$19)
    6748                      .dwattr DW$931, DW_AT_name("SVRDIR"), DW_AT_symbol_name("_SVRDIR")
    6749                      .dwattr DW$931, DW_AT_bit_offset(0x00), DW_AT_bit_size(0x01)
    6750                      .dwattr DW$931, DW_AT_data_member_location[DW_OP_plus_uconst 0x0]
    6751                      .dwattr DW$931, DW_AT_accessibility(DW_ACCESS_public)
    6752                      .dwendtag DW$T$116
    6753              
    6754              
    6755              DW$T$118        .dwtag  DW_TAG_structure_type
    6756                      .dwattr DW$T$118, DW_AT_name("DBTCON_BITS")
    6757                      .dwattr DW$T$118, DW_AT_byte_size(0x01)
    6758              DW$932  .dwtag  DW_TAG_member, DW_AT_type(*DW$T$19)
    6759                      .dwattr DW$932, DW_AT_name("rsvd1"), DW_AT_symbol_name("_rsvd1")
    6760                      .dwattr DW$932, DW_AT_bit_offset(0x0e), DW_AT_bit_size(0x02)
    6761                      .dwattr DW$932, DW_AT_data_member_location[DW_OP_plus_uconst 0x0]
    6762                      .dwattr DW$932, DW_AT_accessibility(DW_ACCESS_public)
    6763              DW$933  .dwtag  DW_TAG_member, DW_AT_type(*DW$T$19)
    6764                      .dwattr DW$933, DW_AT_name("DBTPS"), DW_AT_symbol_name("_DBTPS")
TMS320C2000 COFF Assembler PC v4.1.3 Mon Dec 03 13:50:31 2012

Tools Copyright (c) 1996-2006 Texas Instruments Incorporated
C:\DOCUME~1\ADMINI~1\LOCALS~1\Temp\TI9922                            PAGE  127

    6765                      .dwattr DW$933, DW_AT_bit_offset(0x0b), DW_AT_bit_size(0x03)
    6766                      .dwattr DW$933, DW_AT_data_member_location[DW_OP_plus_uconst 0x0]
    6767                      .dwattr DW$933, DW_AT_accessibility(DW_ACCESS_public)
    6768              DW$934  .dwtag  DW_TAG_member, DW_AT_type(*DW$T$19)
    6769                      .dwattr DW$934, DW_AT_name("EDBT1"), DW_AT_symbol_name("_EDBT1")
    6770                      .dwattr DW$934, DW_AT_bit_offset(0x0a), DW_AT_bit_size(0x01)
    6771                      .dwattr DW$934, DW_AT_data_member_location[DW_OP_plus_uconst 0x0]
    6772                      .dwattr DW$934, DW_AT_accessibility(DW_ACCESS_public)
    6773              DW$935  .dwtag  DW_TAG_member, DW_AT_type(*DW$T$19)
    6774                      .dwattr DW$935, DW_AT_name("EDBT2"), DW_AT_symbol_name("_EDBT2")
    6775                      .dwattr DW$935, DW_AT_bit_offset(0x09), DW_AT_bit_size(0x01)
    6776                      .dwattr DW$935, DW_AT_data_member_location[DW_OP_plus_uconst 0x0]
    6777                      .dwattr DW$935, DW_AT_accessibility(DW_ACCESS_public)
    6778              DW$936  .dwtag  DW_TAG_member, DW_AT_type(*DW$T$19)
    6779                      .dwattr DW$936, DW_AT_name("EDBT3"), DW_AT_symbol_name("_EDBT3")
    6780                      .dwattr DW$936, DW_AT_bit_offset(0x08), DW_AT_bit_size(0x01)
    6781                      .dwattr DW$936, DW_AT_data_member_location[DW_OP_plus_uconst 0x0]
    6782                      .dwattr DW$936, DW_AT_accessibility(DW_ACCESS_public)
    6783              DW$937  .dwtag  DW_TAG_member, DW_AT_type(*DW$T$19)
    6784                      .dwattr DW$937, DW_AT_name("DBT"), DW_AT_symbol_name("_DBT")
    6785                      .dwattr DW$937, DW_AT_bit_offset(0x04), DW_AT_bit_size(0x04)
    6786                      .dwattr DW$937, DW_AT_data_member_location[DW_OP_plus_uconst 0x0]
    6787                      .dwattr DW$937, DW_AT_accessibility(DW_ACCESS_public)
    6788              DW$938  .dwtag  DW_TAG_member, DW_AT_type(*DW$T$19)
    6789                      .dwattr DW$938, DW_AT_name("rsvd2"), DW_AT_symbol_name("_rsvd2")
    6790                      .dwattr DW$938, DW_AT_bit_offset(0x00), DW_AT_bit_size(0x04)
    6791                      .dwattr DW$938, DW_AT_data_member_location[DW_OP_plus_uconst 0x0]
    6792                      .dwattr DW$938, DW_AT_accessibility(DW_ACCESS_public)
    6793                      .dwendtag DW$T$118
    6794              
    6795              
    6796              DW$T$120        .dwtag  DW_TAG_structure_type
    6797                      .dwattr DW$T$120, DW_AT_name("CAPCONB_BITS")
    6798                      .dwattr DW$T$120, DW_AT_byte_size(0x01)
    6799              DW$939  .dwtag  DW_TAG_member, DW_AT_type(*DW$T$19)
    6800                      .dwattr DW$939, DW_AT_name("rsvd1"), DW_AT_symbol_name("_rsvd1")
    6801                      .dwattr DW$939, DW_AT_bit_offset(0x0e), DW_AT_bit_size(0x02)
    6802                      .dwattr DW$939, DW_AT_data_member_location[DW_OP_plus_uconst 0x0]
    6803                      .dwattr DW$939, DW_AT_accessibility(DW_ACCESS_public)
    6804              DW$940  .dwtag  DW_TAG_member, DW_AT_type(*DW$T$19)
    6805                      .dwattr DW$940, DW_AT_name("CAP6EDGE"), DW_AT_symbol_name("_CAP6EDGE")
    6806                      .dwattr DW$940, DW_AT_bit_offset(0x0c), DW_AT_bit_size(0x02)
    6807                      .dwattr DW$940, DW_AT_data_member_location[DW_OP_plus_uconst 0x0]
    6808                      .dwattr DW$940, DW_AT_accessibility(DW_ACCESS_public)
    6809              DW$941  .dwtag  DW_TAG_member, DW_AT_type(*DW$T$19)
    6810                      .dwattr DW$941, DW_AT_name("CAP5EDGE"), DW_AT_symbol_name("_CAP5EDGE")
    6811                      .dwattr DW$941, DW_AT_bit_offset(0x0a), DW_AT_bit_size(0x02)
    6812                      .dwattr DW$941, DW_AT_data_member_location[DW_OP_plus_uconst 0x0]
    6813                      .dwattr DW$941, DW_AT_accessibility(DW_ACCESS_public)
    6814              DW$942  .dwtag  DW_TAG_member, DW_AT_type(*DW$T$19)
    6815                      .dwattr DW$942, DW_AT_name("CAP4EDGE"), DW_AT_symbol_name("_CAP4EDGE")
    6816                      .dwattr DW$942, DW_AT_bit_offset(0x08), DW_AT_bit_size(0x02)
    6817                      .dwattr DW$942, DW_AT_data_member_location[DW_OP_plus_uconst 0x0]
    6818                      .dwattr DW$942, DW_AT_accessibility(DW_ACCESS_public)
    6819              DW$943  .dwtag  DW_TAG_member, DW_AT_type(*DW$T$19)
TMS320C2000 COFF Assembler PC v4.1.3 Mon Dec 03 13:50:31 2012

Tools Copyright (c) 1996-2006 Texas Instruments Incorporated
C:\DOCUME~1\ADMINI~1\LOCALS~1\Temp\TI9922                            PAGE  128

    6820                      .dwattr DW$943, DW_AT_name("CAP6TOADC"), DW_AT_symbol_name("_CAP6TOADC")
    6821                      .dwattr DW$943, DW_AT_bit_offset(0x07), DW_AT_bit_size(0x01)
    6822                      .dwattr DW$943, DW_AT_data_member_location[DW_OP_plus_uconst 0x0]
    6823                      .dwattr DW$943, DW_AT_accessibility(DW_ACCESS_public)
    6824              DW$944  .dwtag  DW_TAG_member, DW_AT_type(*DW$T$19)
    6825                      .dwattr DW$944, DW_AT_name("CAP45TSEL"), DW_AT_symbol_name("_CAP45TSEL")
    6826                      .dwattr DW$944, DW_AT_bit_offset(0x06), DW_AT_bit_size(0x01)
    6827                      .dwattr DW$944, DW_AT_data_member_location[DW_OP_plus_uconst 0x0]
    6828                      .dwattr DW$944, DW_AT_accessibility(DW_ACCESS_public)
    6829              DW$945  .dwtag  DW_TAG_member, DW_AT_type(*DW$T$19)
    6830                      .dwattr DW$945, DW_AT_name("CAP6TSEL"), DW_AT_symbol_name("_CAP6TSEL")
    6831                      .dwattr DW$945, DW_AT_bit_offset(0x05), DW_AT_bit_size(0x01)
    6832                      .dwattr DW$945, DW_AT_data_member_location[DW_OP_plus_uconst 0x0]
    6833                      .dwattr DW$945, DW_AT_accessibility(DW_ACCESS_public)
    6834              DW$946  .dwtag  DW_TAG_member, DW_AT_type(*DW$T$19)
    6835                      .dwattr DW$946, DW_AT_name("rsvd2"), DW_AT_symbol_name("_rsvd2")
    6836                      .dwattr DW$946, DW_AT_bit_offset(0x04), DW_AT_bit_size(0x01)
    6837                      .dwattr DW$946, DW_AT_data_member_location[DW_OP_plus_uconst 0x0]
    6838                      .dwattr DW$946, DW_AT_accessibility(DW_ACCESS_public)
    6839              DW$947  .dwtag  DW_TAG_member, DW_AT_type(*DW$T$19)
    6840                      .dwattr DW$947, DW_AT_name("CAP6EN"), DW_AT_symbol_name("_CAP6EN")
    6841                      .dwattr DW$947, DW_AT_bit_offset(0x03), DW_AT_bit_size(0x01)
    6842                      .dwattr DW$947, DW_AT_data_member_location[DW_OP_plus_uconst 0x0]
    6843                      .dwattr DW$947, DW_AT_accessibility(DW_ACCESS_public)
    6844              DW$948  .dwtag  DW_TAG_member, DW_AT_type(*DW$T$19)
    6845                      .dwattr DW$948, DW_AT_name("CAP45EN"), DW_AT_symbol_name("_CAP45EN")
    6846                      .dwattr DW$948, DW_AT_bit_offset(0x01), DW_AT_bit_size(0x02)
    6847                      .dwattr DW$948, DW_AT_data_member_location[DW_OP_plus_uconst 0x0]
    6848                      .dwattr DW$948, DW_AT_accessibility(DW_ACCESS_public)
    6849              DW$949  .dwtag  DW_TAG_member, DW_AT_type(*DW$T$19)
    6850                      .dwattr DW$949, DW_AT_name("CAPRES"), DW_AT_symbol_name("_CAPRES")
    6851                      .dwattr DW$949, DW_AT_bit_offset(0x00), DW_AT_bit_size(0x01)
    6852                      .dwattr DW$949, DW_AT_data_member_location[DW_OP_plus_uconst 0x0]
    6853                      .dwattr DW$949, DW_AT_accessibility(DW_ACCESS_public)
    6854                      .dwendtag DW$T$120
    6855              
    6856              
    6857              DW$T$122        .dwtag  DW_TAG_structure_type
    6858                      .dwattr DW$T$122, DW_AT_name("CAPFIFOB_BITS")
    6859                      .dwattr DW$T$122, DW_AT_byte_size(0x01)
    6860              DW$950  .dwtag  DW_TAG_member, DW_AT_type(*DW$T$19)
    6861                      .dwattr DW$950, DW_AT_name("rsvd1"), DW_AT_symbol_name("_rsvd1")
    6862                      .dwattr DW$950, DW_AT_bit_offset(0x08), DW_AT_bit_size(0x08)
    6863                      .dwattr DW$950, DW_AT_data_member_location[DW_OP_plus_uconst 0x0]
    6864                      .dwattr DW$950, DW_AT_accessibility(DW_ACCESS_public)
    6865              DW$951  .dwtag  DW_TAG_member, DW_AT_type(*DW$T$19)
    6866                      .dwattr DW$951, DW_AT_name("CAP4FIFO"), DW_AT_symbol_name("_CAP4FIFO")
    6867                      .dwattr DW$951, DW_AT_bit_offset(0x06), DW_AT_bit_size(0x02)
    6868                      .dwattr DW$951, DW_AT_data_member_location[DW_OP_plus_uconst 0x0]
    6869                      .dwattr DW$951, DW_AT_accessibility(DW_ACCESS_public)
    6870              DW$952  .dwtag  DW_TAG_member, DW_AT_type(*DW$T$19)
    6871                      .dwattr DW$952, DW_AT_name("CAP5FIFO"), DW_AT_symbol_name("_CAP5FIFO")
    6872                      .dwattr DW$952, DW_AT_bit_offset(0x04), DW_AT_bit_size(0x02)
    6873                      .dwattr DW$952, DW_AT_data_member_location[DW_OP_plus_uconst 0x0]
    6874                      .dwattr DW$952, DW_AT_accessibility(DW_ACCESS_public)
TMS320C2000 COFF Assembler PC v4.1.3 Mon Dec 03 13:50:31 2012

Tools Copyright (c) 1996-2006 Texas Instruments Incorporated
C:\DOCUME~1\ADMINI~1\LOCALS~1\Temp\TI9922                            PAGE  129

    6875              DW$953  .dwtag  DW_TAG_member, DW_AT_type(*DW$T$19)
    6876                      .dwattr DW$953, DW_AT_name("CAP6FIFO"), DW_AT_symbol_name("_CAP6FIFO")
    6877                      .dwattr DW$953, DW_AT_bit_offset(0x02), DW_AT_bit_size(0x02)
    6878                      .dwattr DW$953, DW_AT_data_member_location[DW_OP_plus_uconst 0x0]
    6879                      .dwattr DW$953, DW_AT_accessibility(DW_ACCESS_public)
    6880              DW$954  .dwtag  DW_TAG_member, DW_AT_type(*DW$T$19)
    6881                      .dwattr DW$954, DW_AT_name("rsvd2"), DW_AT_symbol_name("_rsvd2")
    6882                      .dwattr DW$954, DW_AT_bit_offset(0x00), DW_AT_bit_size(0x02)
    6883                      .dwattr DW$954, DW_AT_data_member_location[DW_OP_plus_uconst 0x0]
    6884                      .dwattr DW$954, DW_AT_accessibility(DW_ACCESS_public)
    6885                      .dwendtag DW$T$122
    6886              
    6887              
    6888              DW$T$124        .dwtag  DW_TAG_structure_type
    6889                      .dwattr DW$T$124, DW_AT_name("EVBIMRA_BITS")
    6890                      .dwattr DW$T$124, DW_AT_byte_size(0x01)
    6891              DW$955  .dwtag  DW_TAG_member, DW_AT_type(*DW$T$19)
    6892                      .dwattr DW$955, DW_AT_name("PDPINTB"), DW_AT_symbol_name("_PDPINTB")
    6893                      .dwattr DW$955, DW_AT_bit_offset(0x0f), DW_AT_bit_size(0x01)
    6894                      .dwattr DW$955, DW_AT_data_member_location[DW_OP_plus_uconst 0x0]
    6895                      .dwattr DW$955, DW_AT_accessibility(DW_ACCESS_public)
    6896              DW$956  .dwtag  DW_TAG_member, DW_AT_type(*DW$T$19)
    6897                      .dwattr DW$956, DW_AT_name("CMP4INT"), DW_AT_symbol_name("_CMP4INT")
    6898                      .dwattr DW$956, DW_AT_bit_offset(0x0e), DW_AT_bit_size(0x01)
    6899                      .dwattr DW$956, DW_AT_data_member_location[DW_OP_plus_uconst 0x0]
    6900                      .dwattr DW$956, DW_AT_accessibility(DW_ACCESS_public)
    6901              DW$957  .dwtag  DW_TAG_member, DW_AT_type(*DW$T$19)
    6902                      .dwattr DW$957, DW_AT_name("CMP5INT"), DW_AT_symbol_name("_CMP5INT")
    6903                      .dwattr DW$957, DW_AT_bit_offset(0x0d), DW_AT_bit_size(0x01)
    6904                      .dwattr DW$957, DW_AT_data_member_location[DW_OP_plus_uconst 0x0]
    6905                      .dwattr DW$957, DW_AT_accessibility(DW_ACCESS_public)
    6906              DW$958  .dwtag  DW_TAG_member, DW_AT_type(*DW$T$19)
    6907                      .dwattr DW$958, DW_AT_name("CMP6INT"), DW_AT_symbol_name("_CMP6INT")
    6908                      .dwattr DW$958, DW_AT_bit_offset(0x0c), DW_AT_bit_size(0x01)
    6909                      .dwattr DW$958, DW_AT_data_member_location[DW_OP_plus_uconst 0x0]
    6910                      .dwattr DW$958, DW_AT_accessibility(DW_ACCESS_public)
    6911              DW$959  .dwtag  DW_TAG_member, DW_AT_type(*DW$T$19)
    6912                      .dwattr DW$959, DW_AT_name("rsvd1"), DW_AT_symbol_name("_rsvd1")
    6913                      .dwattr DW$959, DW_AT_bit_offset(0x09), DW_AT_bit_size(0x03)
    6914                      .dwattr DW$959, DW_AT_data_member_location[DW_OP_plus_uconst 0x0]
    6915                      .dwattr DW$959, DW_AT_accessibility(DW_ACCESS_public)
    6916              DW$960  .dwtag  DW_TAG_member, DW_AT_type(*DW$T$19)
    6917                      .dwattr DW$960, DW_AT_name("T3PINT"), DW_AT_symbol_name("_T3PINT")
    6918                      .dwattr DW$960, DW_AT_bit_offset(0x08), DW_AT_bit_size(0x01)
    6919                      .dwattr DW$960, DW_AT_data_member_location[DW_OP_plus_uconst 0x0]
    6920                      .dwattr DW$960, DW_AT_accessibility(DW_ACCESS_public)
    6921              DW$961  .dwtag  DW_TAG_member, DW_AT_type(*DW$T$19)
    6922                      .dwattr DW$961, DW_AT_name("T3CINT"), DW_AT_symbol_name("_T3CINT")
    6923                      .dwattr DW$961, DW_AT_bit_offset(0x07), DW_AT_bit_size(0x01)
    6924                      .dwattr DW$961, DW_AT_data_member_location[DW_OP_plus_uconst 0x0]
    6925                      .dwattr DW$961, DW_AT_accessibility(DW_ACCESS_public)
    6926              DW$962  .dwtag  DW_TAG_member, DW_AT_type(*DW$T$19)
    6927                      .dwattr DW$962, DW_AT_name("T3UFINT"), DW_AT_symbol_name("_T3UFINT")
    6928                      .dwattr DW$962, DW_AT_bit_offset(0x06), DW_AT_bit_size(0x01)
    6929                      .dwattr DW$962, DW_AT_data_member_location[DW_OP_plus_uconst 0x0]
TMS320C2000 COFF Assembler PC v4.1.3 Mon Dec 03 13:50:31 2012

Tools Copyright (c) 1996-2006 Texas Instruments Incorporated
C:\DOCUME~1\ADMINI~1\LOCALS~1\Temp\TI9922                            PAGE  130

    6930                      .dwattr DW$962, DW_AT_accessibility(DW_ACCESS_public)
    6931              DW$963  .dwtag  DW_TAG_member, DW_AT_type(*DW$T$19)
    6932                      .dwattr DW$963, DW_AT_name("T3OFINT"), DW_AT_symbol_name("_T3OFINT")
    6933                      .dwattr DW$963, DW_AT_bit_offset(0x05), DW_AT_bit_size(0x01)
    6934                      .dwattr DW$963, DW_AT_data_member_location[DW_OP_plus_uconst 0x0]
    6935                      .dwattr DW$963, DW_AT_accessibility(DW_ACCESS_public)
    6936              DW$964  .dwtag  DW_TAG_member, DW_AT_type(*DW$T$19)
    6937                      .dwattr DW$964, DW_AT_name("rsvd2"), DW_AT_symbol_name("_rsvd2")
    6938                      .dwattr DW$964, DW_AT_bit_offset(0x00), DW_AT_bit_size(0x05)
    6939                      .dwattr DW$964, DW_AT_data_member_location[DW_OP_plus_uconst 0x0]
    6940                      .dwattr DW$964, DW_AT_accessibility(DW_ACCESS_public)
    6941                      .dwendtag DW$T$124
    6942              
    6943              
    6944              DW$T$126        .dwtag  DW_TAG_structure_type
    6945                      .dwattr DW$T$126, DW_AT_name("EVBIMRB_BITS")
    6946                      .dwattr DW$T$126, DW_AT_byte_size(0x01)
    6947              DW$965  .dwtag  DW_TAG_member, DW_AT_type(*DW$T$19)
    6948                      .dwattr DW$965, DW_AT_name("T4PINT"), DW_AT_symbol_name("_T4PINT")
    6949                      .dwattr DW$965, DW_AT_bit_offset(0x0f), DW_AT_bit_size(0x01)
    6950                      .dwattr DW$965, DW_AT_data_member_location[DW_OP_plus_uconst 0x0]
    6951                      .dwattr DW$965, DW_AT_accessibility(DW_ACCESS_public)
    6952              DW$966  .dwtag  DW_TAG_member, DW_AT_type(*DW$T$19)
    6953                      .dwattr DW$966, DW_AT_name("T4CINT"), DW_AT_symbol_name("_T4CINT")
    6954                      .dwattr DW$966, DW_AT_bit_offset(0x0e), DW_AT_bit_size(0x01)
    6955                      .dwattr DW$966, DW_AT_data_member_location[DW_OP_plus_uconst 0x0]
    6956                      .dwattr DW$966, DW_AT_accessibility(DW_ACCESS_public)
    6957              DW$967  .dwtag  DW_TAG_member, DW_AT_type(*DW$T$19)
    6958                      .dwattr DW$967, DW_AT_name("T4UFINT"), DW_AT_symbol_name("_T4UFINT")
    6959                      .dwattr DW$967, DW_AT_bit_offset(0x0d), DW_AT_bit_size(0x01)
    6960                      .dwattr DW$967, DW_AT_data_member_location[DW_OP_plus_uconst 0x0]
    6961                      .dwattr DW$967, DW_AT_accessibility(DW_ACCESS_public)
    6962              DW$968  .dwtag  DW_TAG_member, DW_AT_type(*DW$T$19)
    6963                      .dwattr DW$968, DW_AT_name("T4OFINT"), DW_AT_symbol_name("_T4OFINT")
    6964                      .dwattr DW$968, DW_AT_bit_offset(0x0c), DW_AT_bit_size(0x01)
    6965                      .dwattr DW$968, DW_AT_data_member_location[DW_OP_plus_uconst 0x0]
    6966                      .dwattr DW$968, DW_AT_accessibility(DW_ACCESS_public)
    6967              DW$969  .dwtag  DW_TAG_member, DW_AT_type(*DW$T$19)
    6968                      .dwattr DW$969, DW_AT_name("rsvd1"), DW_AT_symbol_name("_rsvd1")
    6969                      .dwattr DW$969, DW_AT_bit_offset(0x00), DW_AT_bit_size(0x0c)
    6970                      .dwattr DW$969, DW_AT_data_member_location[DW_OP_plus_uconst 0x0]
    6971                      .dwattr DW$969, DW_AT_accessibility(DW_ACCESS_public)
    6972                      .dwendtag DW$T$126
    6973              
    6974              
    6975              DW$T$128        .dwtag  DW_TAG_structure_type
    6976                      .dwattr DW$T$128, DW_AT_name("EVBIMRC_BITS")
    6977                      .dwattr DW$T$128, DW_AT_byte_size(0x01)
    6978              DW$970  .dwtag  DW_TAG_member, DW_AT_type(*DW$T$19)
    6979                      .dwattr DW$970, DW_AT_name("CAP4INT"), DW_AT_symbol_name("_CAP4INT")
    6980                      .dwattr DW$970, DW_AT_bit_offset(0x0f), DW_AT_bit_size(0x01)
    6981                      .dwattr DW$970, DW_AT_data_member_location[DW_OP_plus_uconst 0x0]
    6982                      .dwattr DW$970, DW_AT_accessibility(DW_ACCESS_public)
    6983              DW$971  .dwtag  DW_TAG_member, DW_AT_type(*DW$T$19)
    6984                      .dwattr DW$971, DW_AT_name("CAP5INT"), DW_AT_symbol_name("_CAP5INT")
TMS320C2000 COFF Assembler PC v4.1.3 Mon Dec 03 13:50:31 2012

Tools Copyright (c) 1996-2006 Texas Instruments Incorporated
C:\DOCUME~1\ADMINI~1\LOCALS~1\Temp\TI9922                            PAGE  131

    6985                      .dwattr DW$971, DW_AT_bit_offset(0x0e), DW_AT_bit_size(0x01)
    6986                      .dwattr DW$971, DW_AT_data_member_location[DW_OP_plus_uconst 0x0]
    6987                      .dwattr DW$971, DW_AT_accessibility(DW_ACCESS_public)
    6988              DW$972  .dwtag  DW_TAG_member, DW_AT_type(*DW$T$19)
    6989                      .dwattr DW$972, DW_AT_name("CAP6INT"), DW_AT_symbol_name("_CAP6INT")
    6990                      .dwattr DW$972, DW_AT_bit_offset(0x0d), DW_AT_bit_size(0x01)
    6991                      .dwattr DW$972, DW_AT_data_member_location[DW_OP_plus_uconst 0x0]
    6992                      .dwattr DW$972, DW_AT_accessibility(DW_ACCESS_public)
    6993              DW$973  .dwtag  DW_TAG_member, DW_AT_type(*DW$T$19)
    6994                      .dwattr DW$973, DW_AT_name("rsvd1"), DW_AT_symbol_name("_rsvd1")
    6995                      .dwattr DW$973, DW_AT_bit_offset(0x00), DW_AT_bit_size(0x0d)
    6996                      .dwattr DW$973, DW_AT_data_member_location[DW_OP_plus_uconst 0x0]
    6997                      .dwattr DW$973, DW_AT_accessibility(DW_ACCESS_public)
    6998                      .dwendtag DW$T$128
    6999              
    7000              
    7001              DW$T$130        .dwtag  DW_TAG_structure_type
    7002                      .dwattr DW$T$130, DW_AT_name("EVBIFRA_BITS")
    7003                      .dwattr DW$T$130, DW_AT_byte_size(0x01)
    7004              DW$974  .dwtag  DW_TAG_member, DW_AT_type(*DW$T$19)
    7005                      .dwattr DW$974, DW_AT_name("PDPINTB"), DW_AT_symbol_name("_PDPINTB")
    7006                      .dwattr DW$974, DW_AT_bit_offset(0x0f), DW_AT_bit_size(0x01)
    7007                      .dwattr DW$974, DW_AT_data_member_location[DW_OP_plus_uconst 0x0]
    7008                      .dwattr DW$974, DW_AT_accessibility(DW_ACCESS_public)
    7009              DW$975  .dwtag  DW_TAG_member, DW_AT_type(*DW$T$19)
    7010                      .dwattr DW$975, DW_AT_name("CMP4INT"), DW_AT_symbol_name("_CMP4INT")
    7011                      .dwattr DW$975, DW_AT_bit_offset(0x0e), DW_AT_bit_size(0x01)
    7012                      .dwattr DW$975, DW_AT_data_member_location[DW_OP_plus_uconst 0x0]
    7013                      .dwattr DW$975, DW_AT_accessibility(DW_ACCESS_public)
    7014              DW$976  .dwtag  DW_TAG_member, DW_AT_type(*DW$T$19)
    7015                      .dwattr DW$976, DW_AT_name("CMP5INT"), DW_AT_symbol_name("_CMP5INT")
    7016                      .dwattr DW$976, DW_AT_bit_offset(0x0d), DW_AT_bit_size(0x01)
    7017                      .dwattr DW$976, DW_AT_data_member_location[DW_OP_plus_uconst 0x0]
    7018                      .dwattr DW$976, DW_AT_accessibility(DW_ACCESS_public)
    7019              DW$977  .dwtag  DW_TAG_member, DW_AT_type(*DW$T$19)
    7020                      .dwattr DW$977, DW_AT_name("CMP6INT"), DW_AT_symbol_name("_CMP6INT")
    7021                      .dwattr DW$977, DW_AT_bit_offset(0x0c), DW_AT_bit_size(0x01)
    7022                      .dwattr DW$977, DW_AT_data_member_location[DW_OP_plus_uconst 0x0]
    7023                      .dwattr DW$977, DW_AT_accessibility(DW_ACCESS_public)
    7024              DW$978  .dwtag  DW_TAG_member, DW_AT_type(*DW$T$19)
    7025                      .dwattr DW$978, DW_AT_name("rsvd1"), DW_AT_symbol_name("_rsvd1")
    7026                      .dwattr DW$978, DW_AT_bit_offset(0x09), DW_AT_bit_size(0x03)
    7027                      .dwattr DW$978, DW_AT_data_member_location[DW_OP_plus_uconst 0x0]
    7028                      .dwattr DW$978, DW_AT_accessibility(DW_ACCESS_public)
    7029              DW$979  .dwtag  DW_TAG_member, DW_AT_type(*DW$T$19)
    7030                      .dwattr DW$979, DW_AT_name("T3PINT"), DW_AT_symbol_name("_T3PINT")
    7031                      .dwattr DW$979, DW_AT_bit_offset(0x08), DW_AT_bit_size(0x01)
    7032                      .dwattr DW$979, DW_AT_data_member_location[DW_OP_plus_uconst 0x0]
    7033                      .dwattr DW$979, DW_AT_accessibility(DW_ACCESS_public)
    7034              DW$980  .dwtag  DW_TAG_member, DW_AT_type(*DW$T$19)
    7035                      .dwattr DW$980, DW_AT_name("T3CINT"), DW_AT_symbol_name("_T3CINT")
    7036                      .dwattr DW$980, DW_AT_bit_offset(0x07), DW_AT_bit_size(0x01)
    7037                      .dwattr DW$980, DW_AT_data_member_location[DW_OP_plus_uconst 0x0]
    7038                      .dwattr DW$980, DW_AT_accessibility(DW_ACCESS_public)
    7039              DW$981  .dwtag  DW_TAG_member, DW_AT_type(*DW$T$19)
TMS320C2000 COFF Assembler PC v4.1.3 Mon Dec 03 13:50:31 2012

Tools Copyright (c) 1996-2006 Texas Instruments Incorporated
C:\DOCUME~1\ADMINI~1\LOCALS~1\Temp\TI9922                            PAGE  132

    7040                      .dwattr DW$981, DW_AT_name("T3UFINT"), DW_AT_symbol_name("_T3UFINT")
    7041                      .dwattr DW$981, DW_AT_bit_offset(0x06), DW_AT_bit_size(0x01)
    7042                      .dwattr DW$981, DW_AT_data_member_location[DW_OP_plus_uconst 0x0]
    7043                      .dwattr DW$981, DW_AT_accessibility(DW_ACCESS_public)
    7044              DW$982  .dwtag  DW_TAG_member, DW_AT_type(*DW$T$19)
    7045                      .dwattr DW$982, DW_AT_name("T3OFINT"), DW_AT_symbol_name("_T3OFINT")
    7046                      .dwattr DW$982, DW_AT_bit_offset(0x05), DW_AT_bit_size(0x01)
    7047                      .dwattr DW$982, DW_AT_data_member_location[DW_OP_plus_uconst 0x0]
    7048                      .dwattr DW$982, DW_AT_accessibility(DW_ACCESS_public)
    7049              DW$983  .dwtag  DW_TAG_member, DW_AT_type(*DW$T$19)
    7050                      .dwattr DW$983, DW_AT_name("rsvd2"), DW_AT_symbol_name("_rsvd2")
    7051                      .dwattr DW$983, DW_AT_bit_offset(0x00), DW_AT_bit_size(0x05)
    7052                      .dwattr DW$983, DW_AT_data_member_location[DW_OP_plus_uconst 0x0]
    7053                      .dwattr DW$983, DW_AT_accessibility(DW_ACCESS_public)
    7054                      .dwendtag DW$T$130
    7055              
    7056              
    7057              DW$T$132        .dwtag  DW_TAG_structure_type
    7058                      .dwattr DW$T$132, DW_AT_name("EVBIFRB_BITS")
    7059                      .dwattr DW$T$132, DW_AT_byte_size(0x01)
    7060              DW$984  .dwtag  DW_TAG_member, DW_AT_type(*DW$T$19)
    7061                      .dwattr DW$984, DW_AT_name("T4PINT"), DW_AT_symbol_name("_T4PINT")
    7062                      .dwattr DW$984, DW_AT_bit_offset(0x0f), DW_AT_bit_size(0x01)
    7063                      .dwattr DW$984, DW_AT_data_member_location[DW_OP_plus_uconst 0x0]
    7064                      .dwattr DW$984, DW_AT_accessibility(DW_ACCESS_public)
    7065              DW$985  .dwtag  DW_TAG_member, DW_AT_type(*DW$T$19)
    7066                      .dwattr DW$985, DW_AT_name("T4CINT"), DW_AT_symbol_name("_T4CINT")
    7067                      .dwattr DW$985, DW_AT_bit_offset(0x0e), DW_AT_bit_size(0x01)
    7068                      .dwattr DW$985, DW_AT_data_member_location[DW_OP_plus_uconst 0x0]
    7069                      .dwattr DW$985, DW_AT_accessibility(DW_ACCESS_public)
    7070              DW$986  .dwtag  DW_TAG_member, DW_AT_type(*DW$T$19)
    7071                      .dwattr DW$986, DW_AT_name("T4UFINT"), DW_AT_symbol_name("_T4UFINT")
    7072                      .dwattr DW$986, DW_AT_bit_offset(0x0d), DW_AT_bit_size(0x01)
    7073                      .dwattr DW$986, DW_AT_data_member_location[DW_OP_plus_uconst 0x0]
    7074                      .dwattr DW$986, DW_AT_accessibility(DW_ACCESS_public)
    7075              DW$987  .dwtag  DW_TAG_member, DW_AT_type(*DW$T$19)
    7076                      .dwattr DW$987, DW_AT_name("T4OFINT"), DW_AT_symbol_name("_T4OFINT")
    7077                      .dwattr DW$987, DW_AT_bit_offset(0x0c), DW_AT_bit_size(0x01)
    7078                      .dwattr DW$987, DW_AT_data_member_location[DW_OP_plus_uconst 0x0]
    7079                      .dwattr DW$987, DW_AT_accessibility(DW_ACCESS_public)
    7080              DW$988  .dwtag  DW_TAG_member, DW_AT_type(*DW$T$19)
    7081                      .dwattr DW$988, DW_AT_name("rsvd1"), DW_AT_symbol_name("_rsvd1")
    7082                      .dwattr DW$988, DW_AT_bit_offset(0x00), DW_AT_bit_size(0x0c)
    7083                      .dwattr DW$988, DW_AT_data_member_location[DW_OP_plus_uconst 0x0]
    7084                      .dwattr DW$988, DW_AT_accessibility(DW_ACCESS_public)
    7085                      .dwendtag DW$T$132
    7086              
    7087              
    7088              DW$T$134        .dwtag  DW_TAG_structure_type
    7089                      .dwattr DW$T$134, DW_AT_name("EVBIFRC_BITS")
    7090                      .dwattr DW$T$134, DW_AT_byte_size(0x01)
    7091              DW$989  .dwtag  DW_TAG_member, DW_AT_type(*DW$T$19)
    7092                      .dwattr DW$989, DW_AT_name("CAP4INT"), DW_AT_symbol_name("_CAP4INT")
    7093                      .dwattr DW$989, DW_AT_bit_offset(0x0f), DW_AT_bit_size(0x01)
    7094                      .dwattr DW$989, DW_AT_data_member_location[DW_OP_plus_uconst 0x0]
TMS320C2000 COFF Assembler PC v4.1.3 Mon Dec 03 13:50:31 2012

Tools Copyright (c) 1996-2006 Texas Instruments Incorporated
C:\DOCUME~1\ADMINI~1\LOCALS~1\Temp\TI9922                            PAGE  133

    7095                      .dwattr DW$989, DW_AT_accessibility(DW_ACCESS_public)
    7096              DW$990  .dwtag  DW_TAG_member, DW_AT_type(*DW$T$19)
    7097                      .dwattr DW$990, DW_AT_name("CAP5INT"), DW_AT_symbol_name("_CAP5INT")
    7098                      .dwattr DW$990, DW_AT_bit_offset(0x0e), DW_AT_bit_size(0x01)
    7099                      .dwattr DW$990, DW_AT_data_member_location[DW_OP_plus_uconst 0x0]
    7100                      .dwattr DW$990, DW_AT_accessibility(DW_ACCESS_public)
    7101              DW$991  .dwtag  DW_TAG_member, DW_AT_type(*DW$T$19)
    7102                      .dwattr DW$991, DW_AT_name("CAP6INT"), DW_AT_symbol_name("_CAP6INT")
    7103                      .dwattr DW$991, DW_AT_bit_offset(0x0d), DW_AT_bit_size(0x01)
    7104                      .dwattr DW$991, DW_AT_data_member_location[DW_OP_plus_uconst 0x0]
    7105                      .dwattr DW$991, DW_AT_accessibility(DW_ACCESS_public)
    7106              DW$992  .dwtag  DW_TAG_member, DW_AT_type(*DW$T$19)
    7107                      .dwattr DW$992, DW_AT_name("rsvd1"), DW_AT_symbol_name("_rsvd1")
    7108                      .dwattr DW$992, DW_AT_bit_offset(0x00), DW_AT_bit_size(0x0d)
    7109                      .dwattr DW$992, DW_AT_data_member_location[DW_OP_plus_uconst 0x0]
    7110                      .dwattr DW$992, DW_AT_accessibility(DW_ACCESS_public)
    7111                      .dwendtag DW$T$134
    7112              
    7113              
    7114                      .dwattr DW$57, DW_AT_external(0x01)
    7115                      .dwattr DW$86, DW_AT_external(0x01)
    7116                      .dwattr DW$189, DW_AT_external(0x01)
    7117                      .dwattr DW$236, DW_AT_external(0x01)
    7118                      .dwattr DW$25, DW_AT_external(0x01)
    7119                      .dwattr DW$201, DW_AT_external(0x01)
    7120                      .dwattr DW$226, DW_AT_external(0x01)
    7121                      .dwattr DW$40, DW_AT_external(0x01)
    7122                      .dwattr DW$200, DW_AT_external(0x01)
    7123                      .dwattr DW$137, DW_AT_external(0x01)
    7124                      .dwattr DW$117, DW_AT_external(0x01)
    7125                      .dwattr DW$15, DW_AT_type(*DW$T$6)
    7126                      .dwattr DW$32, DW_AT_external(0x01)
    7127                      .dwattr DW$161, DW_AT_external(0x01)
    7128                      .dwattr DW$127, DW_AT_external(0x01)
    7129                      .dwattr DW$CU, DW_AT_language(DW_LANG_C)
    7130              
    7131              ;***************************************************************
    7132              ;* DWARF CIE ENTRIES                                           *
    7133              ;***************************************************************
    7134              
    7135              DW$CIE  .dwcie 1, 40
    7136                      .dwcfa  0x0c, 20, 0
    7137                      .dwcfa  0x07, 0
    7138                      .dwcfa  0x07, 1
    7139                      .dwcfa  0x07, 2
    7140                      .dwcfa  0x07, 3
    7141                      .dwcfa  0x07, 4
    7142                      .dwcfa  0x07, 5
    7143                      .dwcfa  0x08, 6
    7144                      .dwcfa  0x08, 7
    7145                      .dwcfa  0x08, 8
    7146                      .dwcfa  0x08, 9
    7147                      .dwcfa  0x08, 10
    7148                      .dwcfa  0x08, 11
    7149                      .dwcfa  0x07, 12
TMS320C2000 COFF Assembler PC v4.1.3 Mon Dec 03 13:50:31 2012

Tools Copyright (c) 1996-2006 Texas Instruments Incorporated
C:\DOCUME~1\ADMINI~1\LOCALS~1\Temp\TI9922                            PAGE  134

    7150                      .dwcfa  0x07, 13
    7151                      .dwcfa  0x07, 14
    7152                      .dwcfa  0x07, 15
    7153                      .dwcfa  0x07, 16
    7154                      .dwcfa  0x07, 17
    7155                      .dwcfa  0x07, 18
    7156                      .dwcfa  0x07, 19
    7157                      .dwcfa  0x07, 20
    7158                      .dwcfa  0x07, 21
    7159                      .dwcfa  0x07, 22
    7160                      .dwcfa  0x07, 23
    7161                      .dwcfa  0x07, 24
    7162                      .dwcfa  0x07, 25
    7163                      .dwcfa  0x07, 26
    7164                      .dwcfa  0x08, 27
    7165                      .dwcfa  0x07, 28
    7166                      .dwcfa  0x07, 29
    7167                      .dwcfa  0x07, 30
    7168                      .dwcfa  0x07, 31
    7169                      .dwcfa  0x07, 32
    7170                      .dwcfa  0x07, 33
    7171                      .dwcfa  0x07, 34
    7172                      .dwcfa  0x07, 35
    7173                      .dwcfa  0x07, 36
    7174                      .dwcfa  0x07, 37
    7175                      .dwcfa  0x07, 38
    7176                      .dwcfa  0x07, 39
    7177                      .dwcfa  0x07, 40
    7178              
    7179              ;***************************************************************
    7180              ;* DWARF REGISTER MAP                                          *
    7181              ;***************************************************************
    7182              
    7183              DW$993  .dwtag  DW_TAG_assign_register, DW_AT_name("AL")
    7184                      .dwattr DW$993, DW_AT_location[DW_OP_reg0]
    7185              DW$994  .dwtag  DW_TAG_assign_register, DW_AT_name("AH")
    7186                      .dwattr DW$994, DW_AT_location[DW_OP_reg1]
    7187              DW$995  .dwtag  DW_TAG_assign_register, DW_AT_name("PL")
    7188                      .dwattr DW$995, DW_AT_location[DW_OP_reg2]
    7189              DW$996  .dwtag  DW_TAG_assign_register, DW_AT_name("PH")
    7190                      .dwattr DW$996, DW_AT_location[DW_OP_reg3]
    7191              DW$997  .dwtag  DW_TAG_assign_register, DW_AT_name("AR0")
    7192                      .dwattr DW$997, DW_AT_location[DW_OP_reg4]
    7193              DW$998  .dwtag  DW_TAG_assign_register, DW_AT_name("XAR0")
    7194                      .dwattr DW$998, DW_AT_location[DW_OP_reg5]
    7195              DW$999  .dwtag  DW_TAG_assign_register, DW_AT_name("AR1")
    7196                      .dwattr DW$999, DW_AT_location[DW_OP_reg6]
    7197              DW$1000 .dwtag  DW_TAG_assign_register, DW_AT_name("XAR1")
    7198                      .dwattr DW$1000, DW_AT_location[DW_OP_reg7]
    7199              DW$1001 .dwtag  DW_TAG_assign_register, DW_AT_name("AR2")
    7200                      .dwattr DW$1001, DW_AT_location[DW_OP_reg8]
    7201              DW$1002 .dwtag  DW_TAG_assign_register, DW_AT_name("XAR2")
    7202                      .dwattr DW$1002, DW_AT_location[DW_OP_reg9]
    7203              DW$1003 .dwtag  DW_TAG_assign_register, DW_AT_name("AR3")
    7204                      .dwattr DW$1003, DW_AT_location[DW_OP_reg10]
TMS320C2000 COFF Assembler PC v4.1.3 Mon Dec 03 13:50:31 2012

Tools Copyright (c) 1996-2006 Texas Instruments Incorporated
C:\DOCUME~1\ADMINI~1\LOCALS~1\Temp\TI9922                            PAGE  135

    7205              DW$1004 .dwtag  DW_TAG_assign_register, DW_AT_name("XAR3")
    7206                      .dwattr DW$1004, DW_AT_location[DW_OP_reg11]
    7207              DW$1005 .dwtag  DW_TAG_assign_register, DW_AT_name("AR4")
    7208                      .dwattr DW$1005, DW_AT_location[DW_OP_reg12]
    7209              DW$1006 .dwtag  DW_TAG_assign_register, DW_AT_name("XAR4")
    7210                      .dwattr DW$1006, DW_AT_location[DW_OP_reg13]
    7211              DW$1007 .dwtag  DW_TAG_assign_register, DW_AT_name("AR5")
    7212                      .dwattr DW$1007, DW_AT_location[DW_OP_reg14]
    7213              DW$1008 .dwtag  DW_TAG_assign_register, DW_AT_name("XAR5")
    7214                      .dwattr DW$1008, DW_AT_location[DW_OP_reg15]
    7215              DW$1009 .dwtag  DW_TAG_assign_register, DW_AT_name("AR6")
    7216                      .dwattr DW$1009, DW_AT_location[DW_OP_reg16]
    7217              DW$1010 .dwtag  DW_TAG_assign_register, DW_AT_name("XAR6")
    7218                      .dwattr DW$1010, DW_AT_location[DW_OP_reg17]
    7219              DW$1011 .dwtag  DW_TAG_assign_register, DW_AT_name("AR7")
    7220                      .dwattr DW$1011, DW_AT_location[DW_OP_reg18]
    7221              DW$1012 .dwtag  DW_TAG_assign_register, DW_AT_name("XAR7")
    7222                      .dwattr DW$1012, DW_AT_location[DW_OP_reg19]
    7223              DW$1013 .dwtag  DW_TAG_assign_register, DW_AT_name("SP")
    7224                      .dwattr DW$1013, DW_AT_location[DW_OP_reg20]
    7225              DW$1014 .dwtag  DW_TAG_assign_register, DW_AT_name("XT")
    7226                      .dwattr DW$1014, DW_AT_location[DW_OP_reg21]
    7227              DW$1015 .dwtag  DW_TAG_assign_register, DW_AT_name("T")
    7228                      .dwattr DW$1015, DW_AT_location[DW_OP_reg22]
    7229              DW$1016 .dwtag  DW_TAG_assign_register, DW_AT_name("ST0")
    7230                      .dwattr DW$1016, DW_AT_location[DW_OP_reg23]
    7231              DW$1017 .dwtag  DW_TAG_assign_register, DW_AT_name("ST1")
    7232                      .dwattr DW$1017, DW_AT_location[DW_OP_reg24]
    7233              DW$1018 .dwtag  DW_TAG_assign_register, DW_AT_name("PC")
    7234                      .dwattr DW$1018, DW_AT_location[DW_OP_reg25]
    7235              DW$1019 .dwtag  DW_TAG_assign_register, DW_AT_name("RPC")
    7236                      .dwattr DW$1019, DW_AT_location[DW_OP_reg26]
    7237              DW$1020 .dwtag  DW_TAG_assign_register, DW_AT_name("FP")
    7238                      .dwattr DW$1020, DW_AT_location[DW_OP_reg27]
    7239              DW$1021 .dwtag  DW_TAG_assign_register, DW_AT_name("DP")
    7240                      .dwattr DW$1021, DW_AT_location[DW_OP_reg28]
    7241              DW$1022 .dwtag  DW_TAG_assign_register, DW_AT_name("SXM")
    7242                      .dwattr DW$1022, DW_AT_location[DW_OP_reg29]
    7243              DW$1023 .dwtag  DW_TAG_assign_register, DW_AT_name("PM")
    7244                      .dwattr DW$1023, DW_AT_location[DW_OP_reg30]
    7245              DW$1024 .dwtag  DW_TAG_assign_register, DW_AT_name("OVM")
    7246                      .dwattr DW$1024, DW_AT_location[DW_OP_reg31]
    7247              DW$1025 .dwtag  DW_TAG_assign_register, DW_AT_name("PAGE0")
    7248                      .dwattr DW$1025, DW_AT_location[DW_OP_regx 0x20]
    7249              DW$1026 .dwtag  DW_TAG_assign_register, DW_AT_name("AMODE")
    7250                      .dwattr DW$1026, DW_AT_location[DW_OP_regx 0x21]
    7251              DW$1027 .dwtag  DW_TAG_assign_register, DW_AT_name("IFR")
    7252                      .dwattr DW$1027, DW_AT_location[DW_OP_regx 0x22]
    7253              DW$1028 .dwtag  DW_TAG_assign_register, DW_AT_name("IER")
    7254                      .dwattr DW$1028, DW_AT_location[DW_OP_regx 0x23]
    7255              DW$1029 .dwtag  DW_TAG_assign_register, DW_AT_name("IER")
    7256                      .dwattr DW$1029, DW_AT_location[DW_OP_regx 0x24]
    7257              DW$1030 .dwtag  DW_TAG_assign_register, DW_AT_name("PSEUDO")
    7258                      .dwattr DW$1030, DW_AT_location[DW_OP_regx 0x25]
    7259              DW$1031 .dwtag  DW_TAG_assign_register, DW_AT_name("PSEUDOH")
TMS320C2000 COFF Assembler PC v4.1.3 Mon Dec 03 13:50:31 2012

Tools Copyright (c) 1996-2006 Texas Instruments Incorporated
C:\DOCUME~1\ADMINI~1\LOCALS~1\Temp\TI9922                            PAGE  136

    7260                      .dwattr DW$1031, DW_AT_location[DW_OP_regx 0x26]
    7261              DW$1032 .dwtag  DW_TAG_assign_register, DW_AT_name("VOL")
    7262                      .dwattr DW$1032, DW_AT_location[DW_OP_regx 0x27]
    7263              DW$1033 .dwtag  DW_TAG_assign_register, DW_AT_name("CIE_RETA")
    7264                      .dwattr DW$1033, DW_AT_location[DW_OP_regx 0x28]
    7265                      .dwendtag DW$CU
    7266              

No Assembly Errors, No Assembly Warnings
