TMS320C2000 COFF Assembler PC v4.1.3 Thu Nov 29 16:03:34 2012

Tools Copyright (c) 1996-2006 Texas Instruments Incorporated
C:\DOCUME~1\ADMINI~1\LOCALS~1\Temp\TI9882                            PAGE    1

       1              ;***************************************************************
       2              ;* TMS320C2000 C/C++ Codegen                         PC v4.1.3 *
       3              ;* Date/Time created: Thu Nov 29 16:03:32 2012                 *
       4              ;***************************************************************
       5                      .compiler_opts --mem_model:code=flat --mem_model:data=large --silicon_version=28 
       6        0002  FP      .set    XAR2
       7              
       8              DW$CU   .dwtag  DW_TAG_compile_unit
       9                      .dwattr DW$CU, DW_AT_name("Gui_widget.c")
      10                      .dwattr DW$CU, DW_AT_producer("TMS320C2000 C/C++ Codegen PC v4.1.3 Copyright (c) 1996-2006 Texas Inst
      11                      .dwattr DW$CU, DW_AT_stmt_list(0x00)
      12                      .dwattr DW$CU, DW_AT_TI_VERSION(0x01)
      13              ;**************************************************************
      14              ;* CINIT RECORDS                                              *
      15              ;**************************************************************
      16 00000000               .sect   ".cinit"
      17                      .align  1
      18 00000000 FFFF          .field          -1,16
      19 00000001 0000-         .field          _edit_csr_task_pro+0,32
         00000002 0000 
      20 00000003 00BE          .field          190,16                  ; _edit_csr_task_pro @ 0
      21              
      22 00000004               .sect   ".cinit"
      23                      .align  1
      24 00000004 FFFF          .field          -1,16
      25 00000005 0001-         .field          _edit_is_start+0,32
         00000006 0000 
      26 00000007 0000          .field          0,16                    ; _edit_is_start @ 0
      27              
      28 00000008               .sect   ".cinit"
      29                      .align  1
      30 00000008 FFFF          .field          -1,16
      31 00000009 0002-         .field          _m_edit_member_Fgcor+0,32
         0000000a 0000 
      32 0000000b 00FF          .field          255,16                  ; _m_edit_member_Fgcor @ 0
      33              
      34 0000000c               .sect   ".cinit"
      35                      .align  1
      36 0000000c FFFF          .field          -1,16
      37 0000000d 0003-         .field          _m_GUI_drop_list_SW_Bgcor+0,32
         0000000e 0000 
      38 0000000f 000E          .field          14,16                   ; _m_GUI_drop_list_SW_Bgcor @ 0
      39              
      40 00000010               .sect   ".cinit"
      41                      .align  1
      42 00000010 FFFF          .field          -1,16
      43 00000011 0004-         .field          _m_select_drop_member+0,32
         00000012 0000 
      44 00000013 0000          .field          0,16                    ; _m_select_drop_member @ 0
      45              
      46 00000014               .sect   ".cinit"
      47                      .align  1
      48 00000014 FFFF          .field          -1,16
      49 00000015 0005-         .field          _m_eidt_end_flag+0,32
         00000016 0000 
TMS320C2000 COFF Assembler PC v4.1.3 Thu Nov 29 16:03:34 2012

Tools Copyright (c) 1996-2006 Texas Instruments Incorporated
C:\DOCUME~1\ADMINI~1\LOCALS~1\Temp\TI9882                            PAGE    2

      50 00000017 0000          .field          0,16                    ; _m_eidt_end_flag @ 0
      51              
      52 00000018               .sect   ".cinit"
      53                      .align  1
      54 00000018 FFFF          .field          -1,16
      55 00000019 0006-         .field          _m_progress_max_pos+0,32
         0000001a 0000 
      56 0000001b 0000          .field          0,16                    ; _m_progress_max_pos @ 0
      57              
      58 0000001c               .sect   ".cinit"
      59                      .align  1
      60 0000001c FFFF          .field          -1,16
      61 0000001d 0007-         .field          _m_progress_cur_pos+0,32
         0000001e 0000 
      62 0000001f 0000          .field          0,16                    ; _m_progress_cur_pos @ 0
      63              
      64 00000020               .sect   ".cinit"
      65                      .align  1
      66 00000020 FFFF          .field          -1,16
      67 00000021 0008-         .field          _m_progress_setp_size+0,32
         00000022 0000 
      68 00000023 0000          .field          0,16                    ; _m_progress_setp_size @ 0
      69              
      70 00000024               .sect   ".cinit"
      71                      .align  1
      72 00000024 FFFF          .field          -1,16
      73 00000025 0009-         .field          _m_edit_member_Bgcor+0,32
         00000026 0000 
      74 00000027 0001          .field          1,16                    ; _m_edit_member_Bgcor @ 0
      75              
      76 00000028               .sect   ".cinit"
      77                      .align  1
      78 00000028 FFFF          .field          -1,16
      79 00000029 000A-         .field          _m_GUI_drop_list_SW_Fgcor+0,32
         0000002a 0000 
      80 0000002b 0000          .field          0,16                    ; _m_GUI_drop_list_SW_Fgcor @ 0
      81              
      82 0000002c               .sect   ".cinit"
      83                      .align  1
      84 0000002c FFFF          .field          -1,16
      85 0000002d 000B-         .field          _m_progress_dischange+0,32
         0000002e 0000 
      86 0000002f 0000          .field          0,16                    ; _m_progress_dischange @ 0
      87              
      88 00000030               .sect   ".cinit"
      89                      .align  1
      90 00000030 FFFF          .field          -1,16
      91 00000031 000C-         .field          _m_occupy_flag+0,32
         00000032 0000 
      92 00000033 0000          .field          0,16                    ; _m_occupy_flag @ 0
      93              
      94 00000034               .sect   ".cinit"
      95                      .align  1
      96 00000034 FFFF          .field          -1,16
      97 00000035 000D-         .field          _m_GUI_button_Bgcor+0,32
TMS320C2000 COFF Assembler PC v4.1.3 Thu Nov 29 16:03:34 2012

Tools Copyright (c) 1996-2006 Texas Instruments Incorporated
C:\DOCUME~1\ADMINI~1\LOCALS~1\Temp\TI9882                            PAGE    3

         00000036 0000 
      98 00000037 000A          .field          10,16                   ; _m_GUI_button_Bgcor @ 0
      99              
     100 00000038               .sect   ".cinit"
     101                      .align  1
     102 00000038 FFFF          .field          -1,16
     103 00000039 000E-         .field          _m_GUI_3D_window_txt_cor+0,32
         0000003a 0000 
     104 0000003b 00FF          .field          255,16                  ; _m_GUI_3D_window_txt_cor @ 0
     105              
     106 0000003c               .sect   ".cinit"
     107                      .align  1
     108 0000003c FFFF          .field          -1,16
     109 0000003d 0010-         .field          _m_GUI_3D_window_Bg_cor+0,32
         0000003e 0000 
     110 0000003f 0001          .field          1,16                    ; _m_GUI_3D_window_Bg_cor @ 0
     111              
     112 00000040               .sect   ".cinit"
     113                      .align  1
     114 00000040 FFFF          .field          -1,16
     115 00000041 0011-         .field          _m_GUI_button_Fgcor+0,32
         00000042 0000 
     116 00000043 00FF          .field          255,16                  ; _m_GUI_button_Fgcor @ 0
     117              
     118 00000044               .sect   ".cinit"
     119                      .align  1
     120 00000044 FFFF          .field          -1,16
     121 00000045 0012-         .field          _m_GUI_3D_window_Fg_cor+0,32
         00000046 0000 
     122 00000047 00FF          .field          255,16                  ; _m_GUI_3D_window_Fg_cor @ 0
     123              
     124 00000048               .sect   ".cinit"
     125                      .align  1
     126 00000048 FFFE          .field          -2,16
     127 00000049 0014-         .field          _m_edit_lock+0,32
         0000004a 0000 
     128 0000004b 0000          .field          0,32                    ; _m_edit_lock @ 0
         0000004c 0000 
     129              
     130 0000004d               .sect   ".cinit"
     131                      .align  1
     132 0000004d FFFE          .field          -2,16
     133 0000004e 0016-         .field          _m_drop_list_cnt+0,32
         0000004f 0000 
     134 00000050 0000          .field          0,32                    ; _m_drop_list_cnt @ 0
         00000051 0000 
     135              
     136 00000052               .sect   ".cinit"
     137                      .align  1
     138 00000052 FFFE          .field          -2,16
     139 00000053 0018-         .field          _m_msgbox_lock+0,32
         00000054 0000 
     140 00000055 0000          .field          0,32                    ; _m_msgbox_lock @ 0
         00000056 0000 
     141              
TMS320C2000 COFF Assembler PC v4.1.3 Thu Nov 29 16:03:34 2012

Tools Copyright (c) 1996-2006 Texas Instruments Incorporated
C:\DOCUME~1\ADMINI~1\LOCALS~1\Temp\TI9882                            PAGE    4

     142 00000057               .sect   ".cinit"
     143                      .align  1
     144 00000057 FFFF          .field          -IR_1,16
     145 00000058 0040-         .field          _dialogBox_ctl+0,32
         00000059 0000 
     146 0000005a 0000          .field          0,16                    ; _dialogBox_ctl[0]._occupy_flag @ 0
     147        0001  IR_1:   .set    1
     148              
     149              
     150              DW$1    .dwtag  DW_TAG_subprogram, DW_AT_name("lcd_driver_fill_rectangle"), DW_AT_symbol_name("_lcd_driver_fi
     151                      .dwattr DW$1, DW_AT_declaration(0x01)
     152                      .dwattr DW$1, DW_AT_external(0x01)
     153              DW$2    .dwtag  DW_TAG_formal_parameter, DW_AT_type(*DW$T$11)
     154              DW$3    .dwtag  DW_TAG_formal_parameter, DW_AT_type(*DW$T$11)
     155              DW$4    .dwtag  DW_TAG_formal_parameter, DW_AT_type(*DW$T$11)
     156              DW$5    .dwtag  DW_TAG_formal_parameter, DW_AT_type(*DW$T$11)
     157              DW$6    .dwtag  DW_TAG_formal_parameter, DW_AT_type(*DW$T$6)
     158                      .dwendtag DW$1
     159              
     160              
     161              DW$7    .dwtag  DW_TAG_subprogram, DW_AT_name("GUI_edit_start_hook"), DW_AT_symbol_name("_GUI_edit_start_hook
     162                      .dwattr DW$7, DW_AT_declaration(0x01)
     163                      .dwattr DW$7, DW_AT_external(0x01)
     164              
     165              DW$8    .dwtag  DW_TAG_subprogram, DW_AT_name("GUI_free"), DW_AT_symbol_name("_GUI_free")
     166                      .dwattr DW$8, DW_AT_declaration(0x01)
     167                      .dwattr DW$8, DW_AT_external(0x01)
     168              DW$9    .dwtag  DW_TAG_formal_parameter, DW_AT_type(*DW$T$3)
     169                      .dwendtag DW$8
     170              
     171              
     172              DW$10   .dwtag  DW_TAG_subprogram, DW_AT_name("GUI_edit_end_hook"), DW_AT_symbol_name("_GUI_edit_end_hook")
     173                      .dwattr DW$10, DW_AT_declaration(0x01)
     174                      .dwattr DW$10, DW_AT_external(0x01)
     175              
     176              DW$11   .dwtag  DW_TAG_subprogram, DW_AT_name("GUI_cursor_reload"), DW_AT_symbol_name("_GUI_cursor_reload")
     177                      .dwattr DW$11, DW_AT_declaration(0x01)
     178                      .dwattr DW$11, DW_AT_external(0x01)
     179              DW$12   .dwtag  DW_TAG_formal_parameter, DW_AT_type(*DW$T$102)
     180                      .dwendtag DW$11
     181              
     182              
     183              DW$13   .dwtag  DW_TAG_subprogram, DW_AT_name("GUI_write_block"), DW_AT_symbol_name("_GUI_write_block")
     184                      .dwattr DW$13, DW_AT_declaration(0x01)
     185                      .dwattr DW$13, DW_AT_external(0x01)
     186              DW$14   .dwtag  DW_TAG_formal_parameter, DW_AT_type(*DW$T$10)
     187              DW$15   .dwtag  DW_TAG_formal_parameter, DW_AT_type(*DW$T$10)
     188              DW$16   .dwtag  DW_TAG_formal_parameter, DW_AT_type(*DW$T$10)
     189              DW$17   .dwtag  DW_TAG_formal_parameter, DW_AT_type(*DW$T$10)
     190              DW$18   .dwtag  DW_TAG_formal_parameter, DW_AT_type(*DW$T$3)
     191              DW$19   .dwtag  DW_TAG_formal_parameter, DW_AT_type(*DW$T$19)
     192                      .dwendtag DW$13
     193              
     194              
     195              DW$20   .dwtag  DW_TAG_subprogram, DW_AT_name("GUI_widget_sink_3D_paint"), DW_AT_symbol_name("_GUI_widget_sin
TMS320C2000 COFF Assembler PC v4.1.3 Thu Nov 29 16:03:34 2012

Tools Copyright (c) 1996-2006 Texas Instruments Incorporated
C:\DOCUME~1\ADMINI~1\LOCALS~1\Temp\TI9882                            PAGE    5

     196                      .dwattr DW$20, DW_AT_declaration(0x01)
     197                      .dwattr DW$20, DW_AT_external(0x01)
     198              DW$21   .dwtag  DW_TAG_formal_parameter, DW_AT_type(*DW$T$11)
     199              DW$22   .dwtag  DW_TAG_formal_parameter, DW_AT_type(*DW$T$11)
     200              DW$23   .dwtag  DW_TAG_formal_parameter, DW_AT_type(*DW$T$27)
     201              DW$24   .dwtag  DW_TAG_formal_parameter, DW_AT_type(*DW$T$27)
     202                      .dwendtag DW$20
     203              
     204              
     205              DW$25   .dwtag  DW_TAG_subprogram, DW_AT_name("os_unlock"), DW_AT_symbol_name("_os_unlock")
     206                      .dwattr DW$25, DW_AT_declaration(0x01)
     207                      .dwattr DW$25, DW_AT_external(0x01)
     208              DW$26   .dwtag  DW_TAG_formal_parameter, DW_AT_type(*DW$T$94)
     209                      .dwendtag DW$25
     210              
     211              
     212              DW$27   .dwtag  DW_TAG_subprogram, DW_AT_name("GUI_read_block"), DW_AT_symbol_name("_GUI_read_block")
     213                      .dwattr DW$27, DW_AT_declaration(0x01)
     214                      .dwattr DW$27, DW_AT_external(0x01)
     215              DW$28   .dwtag  DW_TAG_formal_parameter, DW_AT_type(*DW$T$10)
     216              DW$29   .dwtag  DW_TAG_formal_parameter, DW_AT_type(*DW$T$10)
     217              DW$30   .dwtag  DW_TAG_formal_parameter, DW_AT_type(*DW$T$10)
     218              DW$31   .dwtag  DW_TAG_formal_parameter, DW_AT_type(*DW$T$10)
     219              DW$32   .dwtag  DW_TAG_formal_parameter, DW_AT_type(*DW$T$3)
     220                      .dwendtag DW$27
     221              
     222              
     223              DW$33   .dwtag  DW_TAG_subprogram, DW_AT_name("GUI_window_draw_dot"), DW_AT_symbol_name("_GUI_window_draw_dot
     224                      .dwattr DW$33, DW_AT_declaration(0x01)
     225                      .dwattr DW$33, DW_AT_external(0x01)
     226              DW$34   .dwtag  DW_TAG_formal_parameter, DW_AT_type(*DW$T$11)
     227              DW$35   .dwtag  DW_TAG_formal_parameter, DW_AT_type(*DW$T$11)
     228              DW$36   .dwtag  DW_TAG_formal_parameter, DW_AT_type(*DW$T$11)
     229                      .dwendtag DW$33
     230              
     231              
     232              DW$37   .dwtag  DW_TAG_subprogram, DW_AT_name("global_memset"), DW_AT_symbol_name("_global_memset")
     233                      .dwattr DW$37, DW_AT_declaration(0x01)
     234                      .dwattr DW$37, DW_AT_external(0x01)
     235              DW$38   .dwtag  DW_TAG_formal_parameter, DW_AT_type(*DW$T$3)
     236              DW$39   .dwtag  DW_TAG_formal_parameter, DW_AT_type(*DW$T$6)
     237              DW$40   .dwtag  DW_TAG_formal_parameter, DW_AT_type(*DW$T$27)
     238                      .dwendtag DW$37
     239              
     240              
     241              DW$41   .dwtag  DW_TAG_subprogram, DW_AT_name("GUI_widget_3D_paint"), DW_AT_symbol_name("_GUI_widget_3D_paint
     242                      .dwattr DW$41, DW_AT_declaration(0x01)
     243                      .dwattr DW$41, DW_AT_external(0x01)
     244              DW$42   .dwtag  DW_TAG_formal_parameter, DW_AT_type(*DW$T$11)
     245              DW$43   .dwtag  DW_TAG_formal_parameter, DW_AT_type(*DW$T$11)
     246              DW$44   .dwtag  DW_TAG_formal_parameter, DW_AT_type(*DW$T$27)
     247              DW$45   .dwtag  DW_TAG_formal_parameter, DW_AT_type(*DW$T$27)
     248                      .dwendtag DW$41
     249              
     250              
TMS320C2000 COFF Assembler PC v4.1.3 Thu Nov 29 16:03:34 2012

Tools Copyright (c) 1996-2006 Texas Instruments Incorporated
C:\DOCUME~1\ADMINI~1\LOCALS~1\Temp\TI9882                            PAGE    6

     251              DW$46   .dwtag  DW_TAG_subprogram, DW_AT_name("GUI_fill_Rect_At"), DW_AT_symbol_name("_GUI_fill_Rect_At")
     252                      .dwattr DW$46, DW_AT_declaration(0x01)
     253                      .dwattr DW$46, DW_AT_external(0x01)
     254              DW$47   .dwtag  DW_TAG_formal_parameter, DW_AT_type(*DW$T$11)
     255              DW$48   .dwtag  DW_TAG_formal_parameter, DW_AT_type(*DW$T$11)
     256              DW$49   .dwtag  DW_TAG_formal_parameter, DW_AT_type(*DW$T$11)
     257              DW$50   .dwtag  DW_TAG_formal_parameter, DW_AT_type(*DW$T$11)
     258                      .dwendtag DW$46
     259              
     260              
     261              DW$51   .dwtag  DW_TAG_subprogram, DW_AT_name("os_lock"), DW_AT_symbol_name("_os_lock")
     262                      .dwattr DW$51, DW_AT_declaration(0x01)
     263                      .dwattr DW$51, DW_AT_external(0x01)
     264              DW$52   .dwtag  DW_TAG_formal_parameter, DW_AT_type(*DW$T$94)
     265                      .dwendtag DW$51
     266              
     267              
     268              DW$53   .dwtag  DW_TAG_subprogram, DW_AT_name("OSTimeDly"), DW_AT_symbol_name("_OSTimeDly")
     269                      .dwattr DW$53, DW_AT_declaration(0x01)
     270                      .dwattr DW$53, DW_AT_external(0x01)
     271              DW$54   .dwtag  DW_TAG_formal_parameter, DW_AT_type(*DW$T$40)
     272                      .dwendtag DW$53
     273              
     274              
     275              DW$55   .dwtag  DW_TAG_subprogram, DW_AT_name("GUI_draw_Rect"), DW_AT_symbol_name("_GUI_draw_Rect")
     276                      .dwattr DW$55, DW_AT_declaration(0x01)
     277                      .dwattr DW$55, DW_AT_external(0x01)
     278              DW$56   .dwtag  DW_TAG_formal_parameter, DW_AT_type(*DW$T$11)
     279              DW$57   .dwtag  DW_TAG_formal_parameter, DW_AT_type(*DW$T$11)
     280              DW$58   .dwtag  DW_TAG_formal_parameter, DW_AT_type(*DW$T$27)
     281              DW$59   .dwtag  DW_TAG_formal_parameter, DW_AT_type(*DW$T$27)
     282                      .dwendtag DW$55
     283              
     284              
     285              DW$60   .dwtag  DW_TAG_subprogram, DW_AT_name("GUI_set_Fgcolor"), DW_AT_symbol_name("_GUI_set_Fgcolor")
     286                      .dwattr DW$60, DW_AT_declaration(0x01)
     287                      .dwattr DW$60, DW_AT_external(0x01)
     288              DW$61   .dwtag  DW_TAG_formal_parameter, DW_AT_type(*DW$T$11)
     289                      .dwendtag DW$60
     290              
     291              
     292              DW$62   .dwtag  DW_TAG_subprogram, DW_AT_name("GUI_draw_line"), DW_AT_symbol_name("_GUI_draw_line")
     293                      .dwattr DW$62, DW_AT_declaration(0x01)
     294                      .dwattr DW$62, DW_AT_external(0x01)
     295              DW$63   .dwtag  DW_TAG_formal_parameter, DW_AT_type(*DW$T$11)
     296              DW$64   .dwtag  DW_TAG_formal_parameter, DW_AT_type(*DW$T$11)
     297              DW$65   .dwtag  DW_TAG_formal_parameter, DW_AT_type(*DW$T$11)
     298              DW$66   .dwtag  DW_TAG_formal_parameter, DW_AT_type(*DW$T$11)
     299                      .dwendtag DW$62
     300              
     301              
     302              DW$67   .dwtag  DW_TAG_subprogram, DW_AT_name("GUI_print_string"), DW_AT_symbol_name("_GUI_print_string")
     303                      .dwattr DW$67, DW_AT_declaration(0x01)
     304                      .dwattr DW$67, DW_AT_external(0x01)
     305              DW$68   .dwtag  DW_TAG_formal_parameter, DW_AT_type(*DW$T$11)
TMS320C2000 COFF Assembler PC v4.1.3 Thu Nov 29 16:03:34 2012

Tools Copyright (c) 1996-2006 Texas Instruments Incorporated
C:\DOCUME~1\ADMINI~1\LOCALS~1\Temp\TI9882                            PAGE    7

     306              DW$69   .dwtag  DW_TAG_formal_parameter, DW_AT_type(*DW$T$11)
     307              DW$70   .dwtag  DW_TAG_formal_parameter, DW_AT_type(*DW$T$11)
     308              DW$71   .dwtag  DW_TAG_formal_parameter, DW_AT_type(*DW$T$11)
     309              DW$72   .dwtag  DW_TAG_formal_parameter, DW_AT_type(*DW$T$52)
     310                      .dwendtag DW$67
     311              
     312              
     313              DW$73   .dwtag  DW_TAG_subprogram, DW_AT_name("GUI_fill_Rect"), DW_AT_symbol_name("_GUI_fill_Rect")
     314                      .dwattr DW$73, DW_AT_declaration(0x01)
     315                      .dwattr DW$73, DW_AT_external(0x01)
     316              DW$74   .dwtag  DW_TAG_formal_parameter, DW_AT_type(*DW$T$11)
     317              DW$75   .dwtag  DW_TAG_formal_parameter, DW_AT_type(*DW$T$11)
     318              DW$76   .dwtag  DW_TAG_formal_parameter, DW_AT_type(*DW$T$27)
     319              DW$77   .dwtag  DW_TAG_formal_parameter, DW_AT_type(*DW$T$27)
     320                      .dwendtag DW$73
     321              
     322              
     323              DW$78   .dwtag  DW_TAG_subprogram, DW_AT_name("GUI_print_string_ext"), DW_AT_symbol_name("_GUI_print_string_e
     324                      .dwattr DW$78, DW_AT_declaration(0x01)
     325                      .dwattr DW$78, DW_AT_external(0x01)
     326              DW$79   .dwtag  DW_TAG_formal_parameter, DW_AT_type(*DW$T$11)
     327              DW$80   .dwtag  DW_TAG_formal_parameter, DW_AT_type(*DW$T$11)
     328              DW$81   .dwtag  DW_TAG_formal_parameter, DW_AT_type(*DW$T$11)
     329              DW$82   .dwtag  DW_TAG_formal_parameter, DW_AT_type(*DW$T$11)
     330              DW$83   .dwtag  DW_TAG_formal_parameter, DW_AT_type(*DW$T$11)
     331              DW$84   .dwtag  DW_TAG_formal_parameter, DW_AT_type(*DW$T$11)
     332              DW$85   .dwtag  DW_TAG_formal_parameter, DW_AT_type(*DW$T$3)
     333                      .dwendtag DW$78
     334              
     335              
     336              DW$86   .dwtag  DW_TAG_subprogram, DW_AT_name("GUI_SetFront"), DW_AT_symbol_name("_GUI_SetFront")
     337                      .dwattr DW$86, DW_AT_declaration(0x01)
     338                      .dwattr DW$86, DW_AT_external(0x01)
     339              DW$87   .dwtag  DW_TAG_formal_parameter, DW_AT_type(*DW$T$30)
     340                      .dwendtag DW$86
     341              
     342              
     343              DW$88   .dwtag  DW_TAG_subprogram, DW_AT_name("GUI_set_Bgcolor"), DW_AT_symbol_name("_GUI_set_Bgcolor")
     344                      .dwattr DW$88, DW_AT_declaration(0x01)
     345                      .dwattr DW$88, DW_AT_external(0x01)
     346              DW$89   .dwtag  DW_TAG_formal_parameter, DW_AT_type(*DW$T$11)
     347                      .dwendtag DW$88
     348              
     349              
     350              DW$90   .dwtag  DW_TAG_subprogram, DW_AT_name("GUI_clean_window"), DW_AT_symbol_name("_GUI_clean_window")
     351                      .dwattr DW$90, DW_AT_declaration(0x01)
     352                      .dwattr DW$90, DW_AT_external(0x01)
     353              
     354              DW$91   .dwtag  DW_TAG_subprogram, DW_AT_name("GUI_string_display_At"), DW_AT_symbol_name("_GUI_string_displa
     355                      .dwattr DW$91, DW_AT_declaration(0x01)
     356                      .dwattr DW$91, DW_AT_external(0x01)
     357              DW$92   .dwtag  DW_TAG_formal_parameter, DW_AT_type(*DW$T$11)
     358              DW$93   .dwtag  DW_TAG_formal_parameter, DW_AT_type(*DW$T$11)
     359              DW$94   .dwtag  DW_TAG_formal_parameter, DW_AT_type(*DW$T$52)
     360                      .dwendtag DW$91
TMS320C2000 COFF Assembler PC v4.1.3 Thu Nov 29 16:03:34 2012

Tools Copyright (c) 1996-2006 Texas Instruments Incorporated
C:\DOCUME~1\ADMINI~1\LOCALS~1\Temp\TI9882                            PAGE    8

     361              
     362              
     363              DW$95   .dwtag  DW_TAG_subprogram, DW_AT_name("app_free"), DW_AT_symbol_name("_app_free")
     364                      .dwattr DW$95, DW_AT_declaration(0x01)
     365                      .dwattr DW$95, DW_AT_external(0x01)
     366              DW$96   .dwtag  DW_TAG_formal_parameter, DW_AT_type(*DW$T$3)
     367                      .dwendtag DW$95
     368              
     369              
     370              DW$97   .dwtag  DW_TAG_subprogram, DW_AT_name("GUI_fill_window_area"), DW_AT_symbol_name("_GUI_fill_window_ar
     371                      .dwattr DW$97, DW_AT_declaration(0x01)
     372                      .dwattr DW$97, DW_AT_external(0x01)
     373              DW$98   .dwtag  DW_TAG_formal_parameter, DW_AT_type(*DW$T$11)
     374              DW$99   .dwtag  DW_TAG_formal_parameter, DW_AT_type(*DW$T$11)
     375              DW$100  .dwtag  DW_TAG_formal_parameter, DW_AT_type(*DW$T$11)
     376              DW$101  .dwtag  DW_TAG_formal_parameter, DW_AT_type(*DW$T$11)
     377                      .dwendtag DW$97
     378              
     379              
     380              DW$102  .dwtag  DW_TAG_subprogram, DW_AT_name("GUI_window_draw_Rect"), DW_AT_symbol_name("_GUI_window_draw_Re
     381                      .dwattr DW$102, DW_AT_declaration(0x01)
     382                      .dwattr DW$102, DW_AT_external(0x01)
     383              DW$103  .dwtag  DW_TAG_formal_parameter, DW_AT_type(*DW$T$11)
     384              DW$104  .dwtag  DW_TAG_formal_parameter, DW_AT_type(*DW$T$11)
     385              DW$105  .dwtag  DW_TAG_formal_parameter, DW_AT_type(*DW$T$27)
     386              DW$106  .dwtag  DW_TAG_formal_parameter, DW_AT_type(*DW$T$27)
     387                      .dwendtag DW$102
     388              
     389              
     390              DW$107  .dwtag  DW_TAG_subprogram, DW_AT_name("GUI_cursor_shift"), DW_AT_symbol_name("_GUI_cursor_shift")
     391                      .dwattr DW$107, DW_AT_declaration(0x01)
     392                      .dwattr DW$107, DW_AT_external(0x01)
     393              DW$108  .dwtag  DW_TAG_formal_parameter, DW_AT_type(*DW$T$102)
     394              DW$109  .dwtag  DW_TAG_formal_parameter, DW_AT_type(*DW$T$10)
     395              DW$110  .dwtag  DW_TAG_formal_parameter, DW_AT_type(*DW$T$10)
     396                      .dwendtag DW$107
     397              
     398              
     399              DW$111  .dwtag  DW_TAG_subprogram, DW_AT_name("GUI_x_shift"), DW_AT_symbol_name("_GUI_x_shift")
     400                      .dwattr DW$111, DW_AT_declaration(0x01)
     401                      .dwattr DW$111, DW_AT_external(0x01)
     402              DW$112  .dwtag  DW_TAG_formal_parameter, DW_AT_type(*DW$T$10)
     403                      .dwendtag DW$111
     404              
     405              
     406              DW$113  .dwtag  DW_TAG_subprogram, DW_AT_name("GUI_string_display"), DW_AT_symbol_name("_GUI_string_display")
     407                      .dwattr DW$113, DW_AT_declaration(0x01)
     408                      .dwattr DW$113, DW_AT_external(0x01)
     409              DW$114  .dwtag  DW_TAG_formal_parameter, DW_AT_type(*DW$T$52)
     410                      .dwendtag DW$113
     411              
     412              
     413              DW$115  .dwtag  DW_TAG_subprogram, DW_AT_name("GUI_xy_set"), DW_AT_symbol_name("_GUI_xy_set")
     414                      .dwattr DW$115, DW_AT_declaration(0x01)
     415                      .dwattr DW$115, DW_AT_external(0x01)
TMS320C2000 COFF Assembler PC v4.1.3 Thu Nov 29 16:03:34 2012

Tools Copyright (c) 1996-2006 Texas Instruments Incorporated
C:\DOCUME~1\ADMINI~1\LOCALS~1\Temp\TI9882                            PAGE    9

     416              DW$116  .dwtag  DW_TAG_formal_parameter, DW_AT_type(*DW$T$11)
     417              DW$117  .dwtag  DW_TAG_formal_parameter, DW_AT_type(*DW$T$11)
     418                      .dwendtag DW$115
     419              
     420              
     421              DW$118  .dwtag  DW_TAG_subprogram, DW_AT_name("GUI_window_hwin_req"), DW_AT_symbol_name("_GUI_window_hwin_req
     422                      .dwattr DW$118, DW_AT_declaration(0x01)
     423                      .dwattr DW$118, DW_AT_external(0x01)
     424              DW$119  .dwtag  DW_TAG_formal_parameter, DW_AT_type(*DW$T$54)
     425                      .dwendtag DW$118
     426              
     427              
     428              DW$120  .dwtag  DW_TAG_subprogram, DW_AT_name("GUI_window_hwin_release"), DW_AT_symbol_name("_GUI_window_hwin
     429                      .dwattr DW$120, DW_AT_declaration(0x01)
     430                      .dwattr DW$120, DW_AT_external(0x01)
     431              DW$121  .dwtag  DW_TAG_formal_parameter, DW_AT_type(*DW$T$54)
     432                      .dwendtag DW$120
     433              
     434              
     435              DW$122  .dwtag  DW_TAG_subprogram, DW_AT_name("GUI_window_destory"), DW_AT_symbol_name("_GUI_window_destory")
     436                      .dwattr DW$122, DW_AT_declaration(0x01)
     437                      .dwattr DW$122, DW_AT_external(0x01)
     438              DW$123  .dwtag  DW_TAG_formal_parameter, DW_AT_type(*DW$T$54)
     439                      .dwendtag DW$122
     440              
     441              
     442              DW$124  .dwtag  DW_TAG_subprogram, DW_AT_name("GUI_fillcircle"), DW_AT_symbol_name("_GUI_fillcircle")
     443                      .dwattr DW$124, DW_AT_declaration(0x01)
     444                      .dwattr DW$124, DW_AT_external(0x01)
     445              DW$125  .dwtag  DW_TAG_formal_parameter, DW_AT_type(*DW$T$11)
     446              DW$126  .dwtag  DW_TAG_formal_parameter, DW_AT_type(*DW$T$11)
     447              DW$127  .dwtag  DW_TAG_formal_parameter, DW_AT_type(*DW$T$11)
     448              DW$128  .dwtag  DW_TAG_formal_parameter, DW_AT_type(*DW$T$11)
     449                      .dwendtag DW$124
     450              
     451              
     452              DW$129  .dwtag  DW_TAG_subprogram, DW_AT_name("GUI_drawcircle"), DW_AT_symbol_name("_GUI_drawcircle")
     453                      .dwattr DW$129, DW_AT_declaration(0x01)
     454                      .dwattr DW$129, DW_AT_external(0x01)
     455              DW$130  .dwtag  DW_TAG_formal_parameter, DW_AT_type(*DW$T$11)
     456              DW$131  .dwtag  DW_TAG_formal_parameter, DW_AT_type(*DW$T$11)
     457              DW$132  .dwtag  DW_TAG_formal_parameter, DW_AT_type(*DW$T$11)
     458              DW$133  .dwtag  DW_TAG_formal_parameter, DW_AT_type(*DW$T$11)
     459                      .dwendtag DW$129
     460              
     461              
     462              DW$134  .dwtag  DW_TAG_subprogram, DW_AT_name("app_global_key_dummy_press"), DW_AT_symbol_name("_app_global_k
     463                      .dwattr DW$134, DW_AT_declaration(0x01)
     464                      .dwattr DW$134, DW_AT_external(0x01)
     465              DW$135  .dwtag  DW_TAG_formal_parameter, DW_AT_type(*DW$T$6)
     466                      .dwendtag DW$134
     467              
     468              
     469              DW$136  .dwtag  DW_TAG_subprogram, DW_AT_name("GUI_cursor_stop"), DW_AT_symbol_name("_GUI_cursor_stop")
     470                      .dwattr DW$136, DW_AT_declaration(0x01)
TMS320C2000 COFF Assembler PC v4.1.3 Thu Nov 29 16:03:34 2012

Tools Copyright (c) 1996-2006 Texas Instruments Incorporated
C:\DOCUME~1\ADMINI~1\LOCALS~1\Temp\TI9882                            PAGE   10

     471                      .dwattr DW$136, DW_AT_external(0x01)
     472              DW$137  .dwtag  DW_TAG_formal_parameter, DW_AT_type(*DW$T$102)
     473                      .dwendtag DW$136
     474              
     475              
     476              DW$138  .dwtag  DW_TAG_subprogram, DW_AT_name("GUI_window_line_display"), DW_AT_symbol_name("_GUI_window_line
     477                      .dwattr DW$138, DW_AT_declaration(0x01)
     478                      .dwattr DW$138, DW_AT_external(0x01)
     479              DW$139  .dwtag  DW_TAG_formal_parameter, DW_AT_type(*DW$T$11)
     480              DW$140  .dwtag  DW_TAG_formal_parameter, DW_AT_type(*DW$T$11)
     481              DW$141  .dwtag  DW_TAG_formal_parameter, DW_AT_type(*DW$T$11)
     482              DW$142  .dwtag  DW_TAG_formal_parameter, DW_AT_type(*DW$T$11)
     483                      .dwendtag DW$138
     484              
     485                      .global _edit_csr_task_pro
     486 00000000       _edit_csr_task_pro:     .usect  ".ebss",1,1,0
     487              DW$143  .dwtag  DW_TAG_variable, DW_AT_name("edit_csr_task_pro"), DW_AT_symbol_name("_edit_csr_task_pro")
     488                      .dwattr DW$143, DW_AT_location[DW_OP_addr _edit_csr_task_pro]
     489                      .dwattr DW$143, DW_AT_type(*DW$T$6)
     490                      .dwattr DW$143, DW_AT_external(0x01)
     491                      .global _edit_is_start
     492 00000001       _edit_is_start: .usect  ".ebss",1,1,0
     493              DW$144  .dwtag  DW_TAG_variable, DW_AT_name("edit_is_start"), DW_AT_symbol_name("_edit_is_start")
     494                      .dwattr DW$144, DW_AT_location[DW_OP_addr _edit_is_start]
     495                      .dwattr DW$144, DW_AT_type(*DW$T$6)
     496                      .dwattr DW$144, DW_AT_external(0x01)
     497 00000002       _m_edit_member_Fgcor:   .usect  ".ebss",1,1,0
     498              DW$145  .dwtag  DW_TAG_variable, DW_AT_name("m_edit_member_Fgcor"), DW_AT_symbol_name("_m_edit_member_Fgcor")
     499                      .dwattr DW$145, DW_AT_type(*DW$T$11)
     500                      .dwattr DW$145, DW_AT_location[DW_OP_addr _m_edit_member_Fgcor]
     501 00000003       _m_GUI_drop_list_SW_Bgcor:      .usect  ".ebss",1,1,0
     502              DW$146  .dwtag  DW_TAG_variable, DW_AT_name("m_GUI_drop_list_SW_Bgcor"), DW_AT_symbol_name("_m_GUI_drop_list_
     503                      .dwattr DW$146, DW_AT_type(*DW$T$11)
     504                      .dwattr DW$146, DW_AT_location[DW_OP_addr _m_GUI_drop_list_SW_Bgcor]
     505                      .global _m_select_drop_member
     506 00000004       _m_select_drop_member:  .usect  ".ebss",1,1,0
     507              DW$147  .dwtag  DW_TAG_variable, DW_AT_name("m_select_drop_member"), DW_AT_symbol_name("_m_select_drop_member
     508                      .dwattr DW$147, DW_AT_location[DW_OP_addr _m_select_drop_member]
     509                      .dwattr DW$147, DW_AT_type(*DW$T$27)
     510                      .dwattr DW$147, DW_AT_external(0x01)
     511                      .global _m_eidt_end_flag
     512 00000005       _m_eidt_end_flag:       .usect  ".ebss",1,1,0
     513              DW$148  .dwtag  DW_TAG_variable, DW_AT_name("m_eidt_end_flag"), DW_AT_symbol_name("_m_eidt_end_flag")
     514                      .dwattr DW$148, DW_AT_location[DW_OP_addr _m_eidt_end_flag]
     515                      .dwattr DW$148, DW_AT_type(*DW$T$6)
     516                      .dwattr DW$148, DW_AT_external(0x01)
     517                      .global _m_progress_max_pos
     518 00000006       _m_progress_max_pos:    .usect  ".ebss",1,1,0
     519              DW$149  .dwtag  DW_TAG_variable, DW_AT_name("m_progress_max_pos"), DW_AT_symbol_name("_m_progress_max_pos")
     520                      .dwattr DW$149, DW_AT_location[DW_OP_addr _m_progress_max_pos]
     521                      .dwattr DW$149, DW_AT_type(*DW$T$11)
     522                      .dwattr DW$149, DW_AT_external(0x01)
     523                      .global _m_progress_cur_pos
     524 00000007       _m_progress_cur_pos:    .usect  ".ebss",1,1,0
     525              DW$150  .dwtag  DW_TAG_variable, DW_AT_name("m_progress_cur_pos"), DW_AT_symbol_name("_m_progress_cur_pos")
TMS320C2000 COFF Assembler PC v4.1.3 Thu Nov 29 16:03:34 2012

Tools Copyright (c) 1996-2006 Texas Instruments Incorporated
C:\DOCUME~1\ADMINI~1\LOCALS~1\Temp\TI9882                            PAGE   11

     526                      .dwattr DW$150, DW_AT_location[DW_OP_addr _m_progress_cur_pos]
     527                      .dwattr DW$150, DW_AT_type(*DW$T$11)
     528                      .dwattr DW$150, DW_AT_external(0x01)
     529                      .global _m_progress_setp_size
     530 00000008       _m_progress_setp_size:  .usect  ".ebss",1,1,0
     531              DW$151  .dwtag  DW_TAG_variable, DW_AT_name("m_progress_setp_size"), DW_AT_symbol_name("_m_progress_setp_size
     532                      .dwattr DW$151, DW_AT_location[DW_OP_addr _m_progress_setp_size]
     533                      .dwattr DW$151, DW_AT_type(*DW$T$11)
     534                      .dwattr DW$151, DW_AT_external(0x01)
     535 00000009       _m_edit_member_Bgcor:   .usect  ".ebss",1,1,0
     536              DW$152  .dwtag  DW_TAG_variable, DW_AT_name("m_edit_member_Bgcor"), DW_AT_symbol_name("_m_edit_member_Bgcor")
     537                      .dwattr DW$152, DW_AT_type(*DW$T$11)
     538                      .dwattr DW$152, DW_AT_location[DW_OP_addr _m_edit_member_Bgcor]
     539 0000000a       _m_GUI_drop_list_SW_Fgcor:      .usect  ".ebss",1,1,0
     540              DW$153  .dwtag  DW_TAG_variable, DW_AT_name("m_GUI_drop_list_SW_Fgcor"), DW_AT_symbol_name("_m_GUI_drop_list_
     541                      .dwattr DW$153, DW_AT_type(*DW$T$11)
     542                      .dwattr DW$153, DW_AT_location[DW_OP_addr _m_GUI_drop_list_SW_Fgcor]
     543                      .global _m_progress_dischange
     544 0000000b       _m_progress_dischange:  .usect  ".ebss",1,1,0
     545              DW$154  .dwtag  DW_TAG_variable, DW_AT_name("m_progress_dischange"), DW_AT_symbol_name("_m_progress_dischange
     546                      .dwattr DW$154, DW_AT_location[DW_OP_addr _m_progress_dischange]
     547                      .dwattr DW$154, DW_AT_type(*DW$T$6)
     548                      .dwattr DW$154, DW_AT_external(0x01)
     549 0000000c       _m_occupy_flag: .usect  ".ebss",1,1,0
     550              DW$155  .dwtag  DW_TAG_variable, DW_AT_name("m_occupy_flag"), DW_AT_symbol_name("_m_occupy_flag")
     551                      .dwattr DW$155, DW_AT_type(*DW$T$27)
     552                      .dwattr DW$155, DW_AT_location[DW_OP_addr _m_occupy_flag]
     553              DW$156  .dwtag  DW_TAG_variable, DW_AT_name("m_GUI_CHhigh"), DW_AT_symbol_name("_m_GUI_CHhigh")
     554                      .dwattr DW$156, DW_AT_type(*DW$T$11)
     555                      .dwattr DW$156, DW_AT_declaration(0x01)
     556                      .dwattr DW$156, DW_AT_external(0x01)
     557              DW$157  .dwtag  DW_TAG_variable, DW_AT_name("m_GUI_CHwide"), DW_AT_symbol_name("_m_GUI_CHwide")
     558                      .dwattr DW$157, DW_AT_type(*DW$T$11)
     559                      .dwattr DW$157, DW_AT_declaration(0x01)
     560                      .dwattr DW$157, DW_AT_external(0x01)
     561              DW$158  .dwtag  DW_TAG_variable, DW_AT_name("m_Bcolor"), DW_AT_symbol_name("_m_Bcolor")
     562                      .dwattr DW$158, DW_AT_type(*DW$T$27)
     563                      .dwattr DW$158, DW_AT_declaration(0x01)
     564                      .dwattr DW$158, DW_AT_external(0x01)
     565              DW$159  .dwtag  DW_TAG_variable, DW_AT_name("m_Fcolor"), DW_AT_symbol_name("_m_Fcolor")
     566                      .dwattr DW$159, DW_AT_type(*DW$T$27)
     567                      .dwattr DW$159, DW_AT_declaration(0x01)
     568                      .dwattr DW$159, DW_AT_external(0x01)
     569 0000000d       _m_GUI_button_Bgcor:    .usect  ".ebss",1,1,0
     570              DW$160  .dwtag  DW_TAG_variable, DW_AT_name("m_GUI_button_Bgcor"), DW_AT_symbol_name("_m_GUI_button_Bgcor")
     571                      .dwattr DW$160, DW_AT_type(*DW$T$11)
     572                      .dwattr DW$160, DW_AT_location[DW_OP_addr _m_GUI_button_Bgcor]
     573 0000000e       _m_GUI_3D_window_txt_cor:       .usect  ".ebss",1,1,0
     574              DW$161  .dwtag  DW_TAG_variable, DW_AT_name("m_GUI_3D_window_txt_cor"), DW_AT_symbol_name("_m_GUI_3D_window_t
     575                      .dwattr DW$161, DW_AT_type(*DW$T$11)
     576                      .dwattr DW$161, DW_AT_location[DW_OP_addr _m_GUI_3D_window_txt_cor]
     577 0000000f       _dialogBox_offset:      .usect  ".ebss",1,1,0
     578              DW$162  .dwtag  DW_TAG_variable, DW_AT_name("dialogBox_offset"), DW_AT_symbol_name("_dialogBox_offset")
     579                      .dwattr DW$162, DW_AT_type(*DW$T$27)
     580                      .dwattr DW$162, DW_AT_location[DW_OP_addr _dialogBox_offset]
TMS320C2000 COFF Assembler PC v4.1.3 Thu Nov 29 16:03:34 2012

Tools Copyright (c) 1996-2006 Texas Instruments Incorporated
C:\DOCUME~1\ADMINI~1\LOCALS~1\Temp\TI9882                            PAGE   12

     581 00000010       _m_GUI_3D_window_Bg_cor:        .usect  ".ebss",1,1,0
     582              DW$163  .dwtag  DW_TAG_variable, DW_AT_name("m_GUI_3D_window_Bg_cor"), DW_AT_symbol_name("_m_GUI_3D_window_Bg
     583                      .dwattr DW$163, DW_AT_type(*DW$T$11)
     584                      .dwattr DW$163, DW_AT_location[DW_OP_addr _m_GUI_3D_window_Bg_cor]
     585 00000011       _m_GUI_button_Fgcor:    .usect  ".ebss",1,1,0
     586              DW$164  .dwtag  DW_TAG_variable, DW_AT_name("m_GUI_button_Fgcor"), DW_AT_symbol_name("_m_GUI_button_Fgcor")
     587                      .dwattr DW$164, DW_AT_type(*DW$T$11)
     588                      .dwattr DW$164, DW_AT_location[DW_OP_addr _m_GUI_button_Fgcor]
     589              
     590              DW$165  .dwtag  DW_TAG_subprogram, DW_AT_name("os_sem_creat"), DW_AT_symbol_name("_os_sem_creat")
     591                      .dwattr DW$165, DW_AT_type(*DW$T$6)
     592                      .dwattr DW$165, DW_AT_declaration(0x01)
     593                      .dwattr DW$165, DW_AT_external(0x01)
     594              DW$166  .dwtag  DW_TAG_formal_parameter, DW_AT_type(*DW$T$160)
     595              DW$167  .dwtag  DW_TAG_formal_parameter, DW_AT_type(*DW$T$11)
     596                      .dwendtag DW$165
     597              
     598              
     599              DW$168  .dwtag  DW_TAG_subprogram, DW_AT_name("os_lock_creat"), DW_AT_symbol_name("_os_lock_creat")
     600                      .dwattr DW$168, DW_AT_type(*DW$T$6)
     601                      .dwattr DW$168, DW_AT_declaration(0x01)
     602                      .dwattr DW$168, DW_AT_external(0x01)
     603              DW$169  .dwtag  DW_TAG_formal_parameter, DW_AT_type(*DW$T$155)
     604                      .dwendtag DW$168
     605              
     606              
     607              DW$170  .dwtag  DW_TAG_subprogram, DW_AT_name("os_task_assign_stk_build"), DW_AT_symbol_name("_os_task_assign
     608                      .dwattr DW$170, DW_AT_type(*DW$T$6)
     609                      .dwattr DW$170, DW_AT_declaration(0x01)
     610                      .dwattr DW$170, DW_AT_external(0x01)
     611              DW$171  .dwtag  DW_TAG_formal_parameter, DW_AT_type(*DW$T$44)
     612              DW$172  .dwtag  DW_TAG_formal_parameter, DW_AT_type(*DW$T$27)
     613                      .dwendtag DW$170
     614              
     615              
     616              DW$173  .dwtag  DW_TAG_subprogram, DW_AT_name("os_sem_pend"), DW_AT_symbol_name("_os_sem_pend")
     617                      .dwattr DW$173, DW_AT_type(*DW$T$6)
     618                      .dwattr DW$173, DW_AT_declaration(0x01)
     619                      .dwattr DW$173, DW_AT_external(0x01)
     620              DW$174  .dwtag  DW_TAG_formal_parameter, DW_AT_type(*DW$T$159)
     621              DW$175  .dwtag  DW_TAG_formal_parameter, DW_AT_type(*DW$T$11)
     622                      .dwendtag DW$173
     623              
     624              
     625              DW$176  .dwtag  DW_TAG_subprogram, DW_AT_name("OSTaskDelReq"), DW_AT_symbol_name("_OSTaskDelReq")
     626                      .dwattr DW$176, DW_AT_type(*DW$T$39)
     627                      .dwattr DW$176, DW_AT_declaration(0x01)
     628                      .dwattr DW$176, DW_AT_external(0x01)
     629              DW$177  .dwtag  DW_TAG_formal_parameter, DW_AT_type(*DW$T$39)
     630                      .dwendtag DW$176
     631              
     632              
     633              DW$178  .dwtag  DW_TAG_subprogram, DW_AT_name("global_ftoa"), DW_AT_symbol_name("_global_ftoa")
     634                      .dwattr DW$178, DW_AT_type(*DW$T$27)
     635                      .dwattr DW$178, DW_AT_declaration(0x01)
TMS320C2000 COFF Assembler PC v4.1.3 Thu Nov 29 16:03:34 2012

Tools Copyright (c) 1996-2006 Texas Instruments Incorporated
C:\DOCUME~1\ADMINI~1\LOCALS~1\Temp\TI9882                            PAGE   13

     636                      .dwattr DW$178, DW_AT_external(0x01)
     637              DW$179  .dwtag  DW_TAG_formal_parameter, DW_AT_type(*DW$T$16)
     638              DW$180  .dwtag  DW_TAG_formal_parameter, DW_AT_type(*DW$T$52)
     639              DW$181  .dwtag  DW_TAG_formal_parameter, DW_AT_type(*DW$T$27)
     640                      .dwendtag DW$178
     641              
     642              
     643              DW$182  .dwtag  DW_TAG_subprogram, DW_AT_name("global_ltoa"), DW_AT_symbol_name("_global_ltoa")
     644                      .dwattr DW$182, DW_AT_type(*DW$T$27)
     645                      .dwattr DW$182, DW_AT_declaration(0x01)
     646                      .dwattr DW$182, DW_AT_external(0x01)
     647              DW$183  .dwtag  DW_TAG_formal_parameter, DW_AT_type(*DW$T$12)
     648              DW$184  .dwtag  DW_TAG_formal_parameter, DW_AT_type(*DW$T$52)
     649                      .dwendtag DW$182
     650              
     651              
     652              DW$185  .dwtag  DW_TAG_subprogram, DW_AT_name("GUI_cursor_state_obtain"), DW_AT_symbol_name("_GUI_cursor_stat
     653                      .dwattr DW$185, DW_AT_type(*DW$T$37)
     654                      .dwattr DW$185, DW_AT_declaration(0x01)
     655                      .dwattr DW$185, DW_AT_external(0x01)
     656              DW$186  .dwtag  DW_TAG_formal_parameter, DW_AT_type(*DW$T$102)
     657                      .dwendtag DW$185
     658              
     659              
     660              DW$187  .dwtag  DW_TAG_subprogram, DW_AT_name("GUI_drop_msg_obtain_hook"), DW_AT_symbol_name("_GUI_drop_msg_o
     661                      .dwattr DW$187, DW_AT_type(*DW$T$37)
     662                      .dwattr DW$187, DW_AT_declaration(0x01)
     663                      .dwattr DW$187, DW_AT_external(0x01)
     664              DW$188  .dwtag  DW_TAG_formal_parameter, DW_AT_type(*DW$T$134)
     665                      .dwendtag DW$187
     666              
     667              
     668              DW$189  .dwtag  DW_TAG_subprogram, DW_AT_name("os_task_name_set"), DW_AT_symbol_name("_os_task_name_set")
     669                      .dwattr DW$189, DW_AT_type(*DW$T$6)
     670                      .dwattr DW$189, DW_AT_declaration(0x01)
     671                      .dwattr DW$189, DW_AT_external(0x01)
     672              DW$190  .dwtag  DW_TAG_formal_parameter, DW_AT_type(*DW$T$6)
     673              DW$191  .dwtag  DW_TAG_formal_parameter, DW_AT_type(*DW$T$52)
     674                      .dwendtag DW$189
     675              
     676              
     677              DW$192  .dwtag  DW_TAG_subprogram, DW_AT_name("global_strlen"), DW_AT_symbol_name("_global_strlen")
     678                      .dwattr DW$192, DW_AT_type(*DW$T$27)
     679                      .dwattr DW$192, DW_AT_declaration(0x01)
     680                      .dwattr DW$192, DW_AT_external(0x01)
     681              DW$193  .dwtag  DW_TAG_formal_parameter, DW_AT_type(*DW$T$52)
     682                      .dwendtag DW$192
     683              
     684              
     685              DW$194  .dwtag  DW_TAG_subprogram, DW_AT_name("os_task_delete"), DW_AT_symbol_name("_os_task_delete")
     686                      .dwattr DW$194, DW_AT_type(*DW$T$6)
     687                      .dwattr DW$194, DW_AT_declaration(0x01)
     688                      .dwattr DW$194, DW_AT_external(0x01)
     689              DW$195  .dwtag  DW_TAG_formal_parameter, DW_AT_type(*DW$T$6)
     690                      .dwendtag DW$194
TMS320C2000 COFF Assembler PC v4.1.3 Thu Nov 29 16:03:34 2012

Tools Copyright (c) 1996-2006 Texas Instruments Incorporated
C:\DOCUME~1\ADMINI~1\LOCALS~1\Temp\TI9882                            PAGE   14

     691              
     692              
     693              DW$196  .dwtag  DW_TAG_subprogram, DW_AT_name("global_strcat"), DW_AT_symbol_name("_global_strcat")
     694                      .dwattr DW$196, DW_AT_type(*DW$T$10)
     695                      .dwattr DW$196, DW_AT_declaration(0x01)
     696                      .dwattr DW$196, DW_AT_external(0x01)
     697              
     698              DW$197  .dwtag  DW_TAG_subprogram, DW_AT_name("OSSemPost"), DW_AT_symbol_name("_OSSemPost")
     699                      .dwattr DW$197, DW_AT_type(*DW$T$39)
     700                      .dwattr DW$197, DW_AT_declaration(0x01)
     701                      .dwattr DW$197, DW_AT_external(0x01)
     702              DW$198  .dwtag  DW_TAG_formal_parameter, DW_AT_type(*DW$T$150)
     703                      .dwendtag DW$197
     704              
     705 00000012       _m_GUI_3D_window_Fg_cor:        .usect  ".ebss",1,1,0
     706              DW$199  .dwtag  DW_TAG_variable, DW_AT_name("m_GUI_3D_window_Fg_cor"), DW_AT_symbol_name("_m_GUI_3D_window_Fg
     707                      .dwattr DW$199, DW_AT_type(*DW$T$11)
     708                      .dwattr DW$199, DW_AT_location[DW_OP_addr _m_GUI_3D_window_Fg_cor]
     709                      .global _m_edit_lock
     710 00000014       _m_edit_lock:   .usect  ".ebss",2,1,1
     711              DW$200  .dwtag  DW_TAG_variable, DW_AT_name("m_edit_lock"), DW_AT_symbol_name("_m_edit_lock")
     712                      .dwattr DW$200, DW_AT_location[DW_OP_addr _m_edit_lock]
     713                      .dwattr DW$200, DW_AT_type(*DW$T$94)
     714                      .dwattr DW$200, DW_AT_external(0x01)
     715              
     716              DW$201  .dwtag  DW_TAG_subprogram, DW_AT_name("GUI_malloc"), DW_AT_symbol_name("_GUI_malloc")
     717                      .dwattr DW$201, DW_AT_type(*DW$T$3)
     718                      .dwattr DW$201, DW_AT_declaration(0x01)
     719                      .dwattr DW$201, DW_AT_external(0x01)
     720              DW$202  .dwtag  DW_TAG_formal_parameter, DW_AT_type(*DW$T$13)
     721                      .dwendtag DW$201
     722              
     723              
     724              DW$203  .dwtag  DW_TAG_subprogram, DW_AT_name("global_strcpy"), DW_AT_symbol_name("_global_strcpy")
     725                      .dwattr DW$203, DW_AT_type(*DW$T$52)
     726                      .dwattr DW$203, DW_AT_declaration(0x01)
     727                      .dwattr DW$203, DW_AT_external(0x01)
     728              DW$204  .dwtag  DW_TAG_formal_parameter, DW_AT_type(*DW$T$52)
     729              DW$205  .dwtag  DW_TAG_formal_parameter, DW_AT_type(*DW$T$52)
     730                      .dwendtag DW$203
     731              
     732              
     733              DW$206  .dwtag  DW_TAG_subprogram, DW_AT_name("global_string_locate_first"), DW_AT_symbol_name("_global_strin
     734                      .dwattr DW$206, DW_AT_type(*DW$T$52)
     735                      .dwattr DW$206, DW_AT_declaration(0x01)
     736                      .dwattr DW$206, DW_AT_external(0x01)
     737              DW$207  .dwtag  DW_TAG_formal_parameter, DW_AT_type(*DW$T$52)
     738              DW$208  .dwtag  DW_TAG_formal_parameter, DW_AT_type(*DW$T$52)
     739                      .dwendtag DW$206
     740              
     741                      .global _m_drop_list_cnt
     742 00000016       _m_drop_list_cnt:       .usect  ".ebss",2,1,1
     743              DW$209  .dwtag  DW_TAG_variable, DW_AT_name("m_drop_list_cnt"), DW_AT_symbol_name("_m_drop_list_cnt")
     744                      .dwattr DW$209, DW_AT_location[DW_OP_addr _m_drop_list_cnt]
     745                      .dwattr DW$209, DW_AT_type(*DW$T$13)
TMS320C2000 COFF Assembler PC v4.1.3 Thu Nov 29 16:03:34 2012

Tools Copyright (c) 1996-2006 Texas Instruments Incorporated
C:\DOCUME~1\ADMINI~1\LOCALS~1\Temp\TI9882                            PAGE   15

     746                      .dwattr DW$209, DW_AT_external(0x01)
     747              
     748              DW$210  .dwtag  DW_TAG_subprogram, DW_AT_name("GUI_cursor_start"), DW_AT_symbol_name("_GUI_cursor_start")
     749                      .dwattr DW$210, DW_AT_type(*DW$T$102)
     750                      .dwattr DW$210, DW_AT_declaration(0x01)
     751                      .dwattr DW$210, DW_AT_external(0x01)
     752              DW$211  .dwtag  DW_TAG_formal_parameter, DW_AT_type(*DW$T$10)
     753              DW$212  .dwtag  DW_TAG_formal_parameter, DW_AT_type(*DW$T$10)
     754              DW$213  .dwtag  DW_TAG_formal_parameter, DW_AT_type(*DW$T$10)
     755              DW$214  .dwtag  DW_TAG_formal_parameter, DW_AT_type(*DW$T$10)
     756                      .dwendtag DW$210
     757              
     758 00000018       _m_msgbox_lock: .usect  ".ebss",2,1,1
     759              DW$215  .dwtag  DW_TAG_variable, DW_AT_name("m_msgbox_lock"), DW_AT_symbol_name("_m_msgbox_lock")
     760                      .dwattr DW$215, DW_AT_type(*DW$T$159)
     761                      .dwattr DW$215, DW_AT_location[DW_OP_addr _m_msgbox_lock]
     762              
     763              DW$216  .dwtag  DW_TAG_subprogram, DW_AT_name("app_malloc"), DW_AT_symbol_name("_app_malloc")
     764                      .dwattr DW$216, DW_AT_type(*DW$T$3)
     765                      .dwattr DW$216, DW_AT_declaration(0x01)
     766                      .dwattr DW$216, DW_AT_external(0x01)
     767              DW$217  .dwtag  DW_TAG_formal_parameter, DW_AT_type(*DW$T$13)
     768                      .dwendtag DW$216
     769              
     770                      .global _m_edit_csr
     771 0000001a       _m_edit_csr:    .usect  ".ebss",2,1,1
     772              DW$218  .dwtag  DW_TAG_variable, DW_AT_name("m_edit_csr"), DW_AT_symbol_name("_m_edit_csr")
     773                      .dwattr DW$218, DW_AT_location[DW_OP_addr _m_edit_csr]
     774                      .dwattr DW$218, DW_AT_type(*DW$T$102)
     775                      .dwattr DW$218, DW_AT_external(0x01)
     776                      .global _start_edit_win
     777 0000001c       _start_edit_win:        .usect  ".ebss",2,1,1
     778              DW$219  .dwtag  DW_TAG_variable, DW_AT_name("start_edit_win"), DW_AT_symbol_name("_start_edit_win")
     779                      .dwattr DW$219, DW_AT_location[DW_OP_addr _start_edit_win]
     780                      .dwattr DW$219, DW_AT_type(*DW$T$54)
     781                      .dwattr DW$219, DW_AT_external(0x01)
     782              
     783              DW$220  .dwtag  DW_TAG_subprogram, DW_AT_name("GUI_strcpy"), DW_AT_symbol_name("_GUI_strcpy")
     784                      .dwattr DW$220, DW_AT_type(*DW$T$52)
     785                      .dwattr DW$220, DW_AT_declaration(0x01)
     786                      .dwattr DW$220, DW_AT_external(0x01)
     787              DW$221  .dwtag  DW_TAG_formal_parameter, DW_AT_type(*DW$T$52)
     788              DW$222  .dwtag  DW_TAG_formal_parameter, DW_AT_type(*DW$T$52)
     789                      .dwendtag DW$220
     790              
     791              
     792              DW$223  .dwtag  DW_TAG_subprogram, DW_AT_name("OSTimeGet"), DW_AT_symbol_name("_OSTimeGet")
     793                      .dwattr DW$223, DW_AT_type(*DW$T$187)
     794                      .dwattr DW$223, DW_AT_declaration(0x01)
     795                      .dwattr DW$223, DW_AT_external(0x01)
     796              
     797              DW$224  .dwtag  DW_TAG_subprogram, DW_AT_name("GUI_GetFront"), DW_AT_symbol_name("_GUI_GetFront")
     798                      .dwattr DW$224, DW_AT_type(*DW$T$30)
     799                      .dwattr DW$224, DW_AT_declaration(0x01)
     800                      .dwattr DW$224, DW_AT_external(0x01)
TMS320C2000 COFF Assembler PC v4.1.3 Thu Nov 29 16:03:34 2012

Tools Copyright (c) 1996-2006 Texas Instruments Incorporated
C:\DOCUME~1\ADMINI~1\LOCALS~1\Temp\TI9882                            PAGE   16

     801              DW$225  .dwtag  DW_TAG_variable, DW_AT_name("m_hwin_list_head"), DW_AT_symbol_name("_m_hwin_list_head")
     802                      .dwattr DW$225, DW_AT_type(*DW$T$54)
     803                      .dwattr DW$225, DW_AT_declaration(0x01)
     804                      .dwattr DW$225, DW_AT_external(0x01)
     805 0000001e       _m_GUI_CUR_button:      .usect  ".ebss",2,1,1
     806              DW$226  .dwtag  DW_TAG_variable, DW_AT_name("m_GUI_CUR_button"), DW_AT_symbol_name("_m_GUI_CUR_button")
     807                      .dwattr DW$226, DW_AT_type(*DW$T$54)
     808                      .dwattr DW$226, DW_AT_location[DW_OP_addr _m_GUI_CUR_button]
     809              DW$227  .dwtag  DW_TAG_variable, DW_AT_name("m_hwin_list_end"), DW_AT_symbol_name("_m_hwin_list_end")
     810                      .dwattr DW$227, DW_AT_type(*DW$T$54)
     811                      .dwattr DW$227, DW_AT_declaration(0x01)
     812                      .dwattr DW$227, DW_AT_external(0x01)
     813              
     814              DW$228  .dwtag  DW_TAG_subprogram, DW_AT_name("GUI_window_child_creat"), DW_AT_symbol_name("_GUI_window_child
     815                      .dwattr DW$228, DW_AT_type(*DW$T$54)
     816                      .dwattr DW$228, DW_AT_declaration(0x01)
     817                      .dwattr DW$228, DW_AT_external(0x01)
     818              DW$229  .dwtag  DW_TAG_formal_parameter, DW_AT_type(*DW$T$11)
     819              DW$230  .dwtag  DW_TAG_formal_parameter, DW_AT_type(*DW$T$11)
     820              DW$231  .dwtag  DW_TAG_formal_parameter, DW_AT_type(*DW$T$27)
     821              DW$232  .dwtag  DW_TAG_formal_parameter, DW_AT_type(*DW$T$27)
     822              DW$233  .dwtag  DW_TAG_formal_parameter, DW_AT_type(*DW$T$27)
     823              DW$234  .dwtag  DW_TAG_formal_parameter, DW_AT_type(*DW$T$54)
     824                      .dwendtag DW$228
     825              
     826              DW$235  .dwtag  DW_TAG_variable, DW_AT_name("m_cur_hwin"), DW_AT_symbol_name("_m_cur_hwin")
     827                      .dwattr DW$235, DW_AT_type(*DW$T$54)
     828                      .dwattr DW$235, DW_AT_declaration(0x01)
     829                      .dwattr DW$235, DW_AT_external(0x01)
     830              
     831              DW$236  .dwtag  DW_TAG_subprogram, DW_AT_name("strlen"), DW_AT_symbol_name("_strlen")
     832                      .dwattr DW$236, DW_AT_type(*DW$T$190)
     833                      .dwattr DW$236, DW_AT_declaration(0x01)
     834                      .dwattr DW$236, DW_AT_external(0x01)
     835              DW$237  .dwtag  DW_TAG_formal_parameter, DW_AT_type(*DW$T$21)
     836                      .dwendtag DW$236
     837              
     838              
     839              DW$238  .dwtag  DW_TAG_subprogram, DW_AT_name("GUI_window_creat"), DW_AT_symbol_name("_GUI_window_creat")
     840                      .dwattr DW$238, DW_AT_type(*DW$T$54)
     841                      .dwattr DW$238, DW_AT_declaration(0x01)
     842                      .dwattr DW$238, DW_AT_external(0x01)
     843              DW$239  .dwtag  DW_TAG_formal_parameter, DW_AT_type(*DW$T$11)
     844              DW$240  .dwtag  DW_TAG_formal_parameter, DW_AT_type(*DW$T$11)
     845              DW$241  .dwtag  DW_TAG_formal_parameter, DW_AT_type(*DW$T$27)
     846              DW$242  .dwtag  DW_TAG_formal_parameter, DW_AT_type(*DW$T$27)
     847              DW$243  .dwtag  DW_TAG_formal_parameter, DW_AT_type(*DW$T$27)
     848                      .dwendtag DW$238
     849              
     850 00000000               .sect   ".econst"
     851                      .align  1
     852 00000000       _$T2$3:
     853 00000000 0000          .field          0,16                    ; _$T2$3[0] @ 0
     854 00000001               .space  144
     855              
TMS320C2000 COFF Assembler PC v4.1.3 Thu Nov 29 16:03:34 2012

Tools Copyright (c) 1996-2006 Texas Instruments Incorporated
C:\DOCUME~1\ADMINI~1\LOCALS~1\Temp\TI9882                            PAGE   17

     856              DW$244  .dwtag  DW_TAG_variable, DW_AT_name("$T2$3"), DW_AT_symbol_name("_$T2$3")
     857                      .dwattr DW$244, DW_AT_type(*DW$T$194)
     858                      .dwattr DW$244, DW_AT_location[DW_OP_addr _$T2$3]
     859              DW$245  .dwtag  DW_TAG_variable, DW_AT_name("GUI_F8X16_EXTASCII"), DW_AT_symbol_name("_GUI_F8X16_EXTASCII")
     860                      .dwattr DW$245, DW_AT_type(*DW$T$29)
     861                      .dwattr DW$245, DW_AT_declaration(0x01)
     862                      .dwattr DW$245, DW_AT_external(0x01)
     863 0000000a               .sect   ".econst"
     864                      .align  1
     865 0000000a       _$T1$2:
     866 0000000a 0000          .field          0,16                    ; _$T1$2[0] @ 0
     867 0000000b               .space  304
     868              
     869              DW$246  .dwtag  DW_TAG_variable, DW_AT_name("$T1$2"), DW_AT_symbol_name("_$T1$2")
     870                      .dwattr DW$246, DW_AT_type(*DW$T$193)
     871                      .dwattr DW$246, DW_AT_location[DW_OP_addr _$T1$2]
     872 0000001e               .sect   ".econst"
     873                      .align  1
     874 0000001e       _$T0$1:
     875 0000001e 0000          .field          0,16                    ; _$T0$1[0] @ 0
     876 0000001f               .space  304
     877              
     878              DW$247  .dwtag  DW_TAG_variable, DW_AT_name("$T0$1"), DW_AT_symbol_name("_$T0$1")
     879                      .dwattr DW$247, DW_AT_type(*DW$T$193)
     880                      .dwattr DW$247, DW_AT_location[DW_OP_addr _$T0$1]
     881 00000040       _dialogBox_ctl: .usect  ".ebss",120,1,1
     882              DW$248  .dwtag  DW_TAG_variable, DW_AT_name("dialogBox_ctl"), DW_AT_symbol_name("_dialogBox_ctl")
     883                      .dwattr DW$248, DW_AT_type(*DW$T$228)
     884                      .dwattr DW$248, DW_AT_location[DW_OP_addr _dialogBox_ctl]
     885              ;       C:\CCStudio_v3.3\C2000\cgtools\bin\ac2000.exe -@C:\DOCUME~1\ADMINI~1\LOCALS~1\Temp\TI9884 
     886 00000000               .sect   ".text"
     887                      .global _Gui_3D_window_set_color
     888              
     889              DW$249  .dwtag  DW_TAG_subprogram, DW_AT_name("Gui_3D_window_set_color"), DW_AT_symbol_name("_Gui_3D_window_s
     890                      .dwattr DW$249, DW_AT_low_pc(_Gui_3D_window_set_color)
     891                      .dwattr DW$249, DW_AT_high_pc(0x00)
     892                      .dwattr DW$249, DW_AT_begin_file("WIDGET\GUI_widget_3D_window.c")
     893                      .dwattr DW$249, DW_AT_begin_line(0x0a)
     894                      .dwattr DW$249, DW_AT_begin_column(0x07)
     895                      .dwpsn  "WIDGET\GUI_widget_3D_window.c",11,1
     896              
     897                      .dwfde DW$CIE
     898              
     899              ;***************************************************************
     900              ;* FNAME: _Gui_3D_window_set_color      FR SIZE:   4           *
     901              ;*                                                             *
     902              ;* FUNCTION ENVIRONMENT                                        *
     903              ;*                                                             *
     904              ;* FUNCTION PROPERTIES                                         *
     905              ;*                            0 Parameter,  3 Auto,  0 SOE     *
     906              ;***************************************************************
     907              
     908              _Gui_3D_window_set_color:
     909                      .dwcfa  0x1d, -2
     910                      .dwcfa  0x1c, 26, 0
TMS320C2000 COFF Assembler PC v4.1.3 Thu Nov 29 16:03:34 2012

Tools Copyright (c) 1996-2006 Texas Instruments Incorporated
C:\DOCUME~1\ADMINI~1\LOCALS~1\Temp\TI9882                            PAGE   18

     911                      .dwcfa  0x09, 40, 26
     912 00000000 FE04          ADDB      SP,#4
     913                      .dwcfa  0x1d, -6
     914              ;* AL    assigned to _Fgcor
     915              DW$250  .dwtag  DW_TAG_formal_parameter, DW_AT_name("Fgcor"), DW_AT_symbol_name("_Fgcor")
     916                      .dwattr DW$250, DW_AT_type(*DW$T$11)
     917                      .dwattr DW$250, DW_AT_location[DW_OP_reg0]
     918              ;* AH    assigned to _Bgcor
     919              DW$251  .dwtag  DW_TAG_formal_parameter, DW_AT_name("Bgcor"), DW_AT_symbol_name("_Bgcor")
     920                      .dwattr DW$251, DW_AT_type(*DW$T$11)
     921                      .dwattr DW$251, DW_AT_location[DW_OP_reg1]
     922              ;* AR4   assigned to _txtcor
     923              DW$252  .dwtag  DW_TAG_formal_parameter, DW_AT_name("txtcor"), DW_AT_symbol_name("_txtcor")
     924                      .dwattr DW$252, DW_AT_type(*DW$T$11)
     925                      .dwattr DW$252, DW_AT_location[DW_OP_reg12]
     926              DW$253  .dwtag  DW_TAG_variable, DW_AT_name("Fgcor"), DW_AT_symbol_name("_Fgcor")
     927                      .dwattr DW$253, DW_AT_type(*DW$T$11)
     928                      .dwattr DW$253, DW_AT_location[DW_OP_breg20 -1]
     929              DW$254  .dwtag  DW_TAG_variable, DW_AT_name("Bgcor"), DW_AT_symbol_name("_Bgcor")
     930                      .dwattr DW$254, DW_AT_type(*DW$T$11)
     931                      .dwattr DW$254, DW_AT_location[DW_OP_breg20 -2]
     932              DW$255  .dwtag  DW_TAG_variable, DW_AT_name("txtcor"), DW_AT_symbol_name("_txtcor")
     933                      .dwattr DW$255, DW_AT_type(*DW$T$11)
     934                      .dwattr DW$255, DW_AT_location[DW_OP_breg20 -3]
     935 00000001 7C43          MOV       *-SP[3],AR4           ; |11| 
     936 00000002 9742          MOV       *-SP[2],AH            ; |11| 
     937 00000003 9641          MOV       *-SP[1],AL            ; |11| 
     938                      .dwpsn  "WIDGET\GUI_widget_3D_window.c",12,4
     939 00000004 761F-         MOVW      DP,#_m_GUI_3D_window_Bg_cor
         00000005 0000 
     940 00000006 9242          MOV       AL,*-SP[2]            ; |12| 
     941 00000007 9610-         MOV       @_m_GUI_3D_window_Bg_cor,AL ; |12| 
     942                      .dwpsn  "WIDGET\GUI_widget_3D_window.c",13,4
     943 00000008 9241          MOV       AL,*-SP[1]            ; |13| 
     944 00000009 9612-         MOV       @_m_GUI_3D_window_Fg_cor,AL ; |13| 
     945                      .dwpsn  "WIDGET\GUI_widget_3D_window.c",14,4
     946 0000000a 9243          MOV       AL,*-SP[3]            ; |14| 
     947 0000000b 960E-         MOV       @_m_GUI_3D_window_txt_cor,AL ; |14| 
     948                      .dwpsn  "WIDGET\GUI_widget_3D_window.c",15,4
     949                      .dwpsn  "WIDGET\GUI_widget_3D_window.c",16,1
     950 0000000c FE84          SUBB      SP,#4
     951                      .dwcfa  0x1d, -2
     952 0000000d 0006          LRETR
     953                      ; return occurs
     954                      .dwattr DW$249, DW_AT_end_file("WIDGET\GUI_widget_3D_window.c")
     955                      .dwattr DW$249, DW_AT_end_line(0x10)
     956                      .dwattr DW$249, DW_AT_end_column(0x01)
     957                      .dwendentry
     958                      .dwendtag DW$249
     959              
     960 0000000e               .sect   ".text"
     961                      .global _Gui_3D_window_creat
     962              
     963              DW$256  .dwtag  DW_TAG_subprogram, DW_AT_name("Gui_3D_window_creat"), DW_AT_symbol_name("_Gui_3D_window_creat
     964                      .dwattr DW$256, DW_AT_low_pc(_Gui_3D_window_creat)
TMS320C2000 COFF Assembler PC v4.1.3 Thu Nov 29 16:03:34 2012

Tools Copyright (c) 1996-2006 Texas Instruments Incorporated
C:\DOCUME~1\ADMINI~1\LOCALS~1\Temp\TI9882                            PAGE   19

     965                      .dwattr DW$256, DW_AT_high_pc(0x00)
     966                      .dwattr DW$256, DW_AT_begin_file("WIDGET\GUI_widget_3D_window.c")
     967                      .dwattr DW$256, DW_AT_begin_line(0x11)
     968                      .dwattr DW$256, DW_AT_begin_column(0x09)
     969                      .dwpsn  "WIDGET\GUI_widget_3D_window.c",24,1
     970              
     971                      .dwfde DW$CIE
     972              
     973              ;***************************************************************
     974              ;* FNAME: _Gui_3D_window_creat          FR SIZE:  10           *
     975              ;*                                                             *
     976              ;* FUNCTION ENVIRONMENT                                        *
     977              ;*                                                             *
     978              ;* FUNCTION PROPERTIES                                         *
     979              ;*                            2 Parameter,  8 Auto,  0 SOE     *
     980              ;***************************************************************
     981              
     982              _Gui_3D_window_creat:
     983                      .dwcfa  0x1d, -2
     984                      .dwcfa  0x1c, 26, 0
     985                      .dwcfa  0x09, 40, 26
     986 0000000e FE0A          ADDB      SP,#10
     987                      .dwcfa  0x1d, -12
     988              ;* AL    assigned to _xcoord
     989              DW$257  .dwtag  DW_TAG_formal_parameter, DW_AT_name("xcoord"), DW_AT_symbol_name("_xcoord")
     990                      .dwattr DW$257, DW_AT_type(*DW$T$11)
     991                      .dwattr DW$257, DW_AT_location[DW_OP_reg0]
     992              ;* AH    assigned to _ycoord
     993              DW$258  .dwtag  DW_TAG_formal_parameter, DW_AT_name("ycoord"), DW_AT_symbol_name("_ycoord")
     994                      .dwattr DW$258, DW_AT_type(*DW$T$11)
     995                      .dwattr DW$258, DW_AT_location[DW_OP_reg1]
     996              DW$259  .dwtag  DW_TAG_formal_parameter, DW_AT_name("wide"), DW_AT_symbol_name("_wide")
     997                      .dwattr DW$259, DW_AT_type(*DW$T$27)
     998                      .dwattr DW$259, DW_AT_location[DW_OP_breg20 -13]
     999              DW$260  .dwtag  DW_TAG_formal_parameter, DW_AT_name("high"), DW_AT_symbol_name("_high")
    1000                      .dwattr DW$260, DW_AT_type(*DW$T$27)
    1001                      .dwattr DW$260, DW_AT_location[DW_OP_breg20 -14]
    1002              ;* AR4   assigned to _title
    1003              DW$261  .dwtag  DW_TAG_formal_parameter, DW_AT_name("title"), DW_AT_symbol_name("_title")
    1004                      .dwattr DW$261, DW_AT_type(*DW$T$52)
    1005                      .dwattr DW$261, DW_AT_location[DW_OP_reg12]
    1006              DW$262  .dwtag  DW_TAG_formal_parameter, DW_AT_name("flags"), DW_AT_symbol_name("_flags")
    1007                      .dwattr DW$262, DW_AT_type(*DW$T$27)
    1008                      .dwattr DW$262, DW_AT_location[DW_OP_breg20 -15]
    1009              ;* AR5   assigned to _fatherhp
    1010              DW$263  .dwtag  DW_TAG_formal_parameter, DW_AT_name("fatherhp"), DW_AT_symbol_name("_fatherhp")
    1011                      .dwattr DW$263, DW_AT_type(*DW$T$54)
    1012                      .dwattr DW$263, DW_AT_location[DW_OP_reg14]
    1013              DW$264  .dwtag  DW_TAG_variable, DW_AT_name("xcoord"), DW_AT_symbol_name("_xcoord")
    1014                      .dwattr DW$264, DW_AT_type(*DW$T$11)
    1015                      .dwattr DW$264, DW_AT_location[DW_OP_breg20 -3]
    1016              DW$265  .dwtag  DW_TAG_variable, DW_AT_name("ycoord"), DW_AT_symbol_name("_ycoord")
    1017                      .dwattr DW$265, DW_AT_type(*DW$T$11)
    1018                      .dwattr DW$265, DW_AT_location[DW_OP_breg20 -4]
    1019              DW$266  .dwtag  DW_TAG_variable, DW_AT_name("title"), DW_AT_symbol_name("_title")
TMS320C2000 COFF Assembler PC v4.1.3 Thu Nov 29 16:03:34 2012

Tools Copyright (c) 1996-2006 Texas Instruments Incorporated
C:\DOCUME~1\ADMINI~1\LOCALS~1\Temp\TI9882                            PAGE   20

    1020                      .dwattr DW$266, DW_AT_type(*DW$T$52)
    1021                      .dwattr DW$266, DW_AT_location[DW_OP_breg20 -6]
    1022              DW$267  .dwtag  DW_TAG_variable, DW_AT_name("fatherhp"), DW_AT_symbol_name("_fatherhp")
    1023                      .dwattr DW$267, DW_AT_type(*DW$T$54)
    1024                      .dwattr DW$267, DW_AT_location[DW_OP_breg20 -8]
    1025              DW$268  .dwtag  DW_TAG_variable, DW_AT_name("hp"), DW_AT_symbol_name("_hp")
    1026                      .dwattr DW$268, DW_AT_type(*DW$T$54)
    1027                      .dwattr DW$268, DW_AT_location[DW_OP_breg20 -10]
    1028 0000000f A048          MOVL      *-SP[8],XAR5          ; |24| 
    1029 00000010 A846          MOVL      *-SP[6],XAR4          ; |24| 
    1030 00000011 9744          MOV       *-SP[4],AH            ; |24| 
    1031 00000012 9643          MOV       *-SP[3],AL            ; |24| 
    1032                      .dwpsn  "WIDGET\GUI_widget_3D_window.c",27,2
    1033 00000013 0648          MOVL      ACC,*-SP[8]           ; |27| 
    1034 00000014 EC0D          BF        L1,EQ                 ; |27| 
    1035                      ; branchcc occurs ; |27| 
    1036                      .dwpsn  "WIDGET\GUI_widget_3D_window.c",29,3
    1037 00000015 924E          MOV       AL,*-SP[14]           ; |29| 
    1038 00000016 9641          MOV       *-SP[1],AL            ; |29| 
    1039 00000017 924F          MOV       AL,*-SP[15]           ; |29| 
    1040 00000018 9642          MOV       *-SP[2],AL            ; |29| 
    1041 00000019 5D4D          MOVZ      AR5,*-SP[13]          ; |29| 
    1042 0000001a 8A48          MOVL      XAR4,*-SP[8]          ; |29| 
    1043 0000001b 9243          MOV       AL,*-SP[3]            ; |29| 
    1044 0000001c 9344          MOV       AH,*-SP[4]            ; |29| 
    1045 0000001d 7640!         LCR       #_GUI_window_child_creat ; |29| 
         0000001e 0000 
    1046                      ; call occurs [#_GUI_window_child_creat] ; |29| 
    1047 0000001f A84A          MOVL      *-SP[10],XAR4         ; |29| 
    1048                      .dwpsn  "WIDGET\GUI_widget_3D_window.c",36,2
    1049 00000020 6F0A          B         L2,UNC                ; |36| 
    1050                      ; branch occurs ; |36| 
    1051              L1:    
    1052                      .dwpsn  "WIDGET\GUI_widget_3D_window.c",39,3
    1053 00000021 924F          MOV       AL,*-SP[15]           ; |39| 
    1054 00000022 9641          MOV       *-SP[1],AL            ; |39| 
    1055 00000023 5C4D          MOVZ      AR4,*-SP[13]          ; |39| 
    1056 00000024 5D4E          MOVZ      AR5,*-SP[14]          ; |39| 
    1057 00000025 9243          MOV       AL,*-SP[3]            ; |39| 
    1058 00000026 9344          MOV       AH,*-SP[4]            ; |39| 
    1059 00000027 7640!         LCR       #_GUI_window_creat    ; |39| 
         00000028 0000 
    1060                      ; call occurs [#_GUI_window_creat] ; |39| 
    1061 00000029 A84A          MOVL      *-SP[10],XAR4         ; |39| 
    1062              L2:    
    1063                      .dwpsn  "WIDGET\GUI_widget_3D_window.c",41,2
    1064 0000002a 8A4A          MOVL      XAR4,*-SP[10]         ; |41| 
    1065 0000002b D008          MOVB      XAR0,#8               ; |41| 
    1066 0000002c 2894          MOV       *+XAR4[AR0],#8        ; |41| 
         0000002d 0008 
    1067                      .dwpsn  "WIDGET\GUI_widget_3D_window.c",42,2
    1068 0000002e 8A4A          MOVL      XAR4,*-SP[10]         ; |42| 
    1069 0000002f 7640!         LCR       #_GUI_window_hwin_req ; |42| 
         00000030 0000 
    1070                      ; call occurs [#_GUI_window_hwin_req] ; |42| 
TMS320C2000 COFF Assembler PC v4.1.3 Thu Nov 29 16:03:34 2012

Tools Copyright (c) 1996-2006 Texas Instruments Incorporated
C:\DOCUME~1\ADMINI~1\LOCALS~1\Temp\TI9882                            PAGE   21

    1071                      .dwpsn  "WIDGET\GUI_widget_3D_window.c",43,2
    1072 00000031 761F-         MOVW      DP,#_m_GUI_3D_window_Bg_cor
         00000032 0000 
    1073 00000033 9210-         MOV       AL,@_m_GUI_3D_window_Bg_cor ; |43| 
    1074 00000034 7640!         LCR       #_GUI_set_Bgcolor     ; |43| 
         00000035 0000 
    1075                      ; call occurs [#_GUI_set_Bgcolor] ; |43| 
    1076                      .dwpsn  "WIDGET\GUI_widget_3D_window.c",44,2
    1077 00000036 761F-         MOVW      DP,#_m_GUI_3D_window_Fg_cor
         00000037 0000 
    1078 00000038 9212-         MOV       AL,@_m_GUI_3D_window_Fg_cor ; |44| 
    1079 00000039 7640!         LCR       #_GUI_set_Fgcolor     ; |44| 
         0000003a 0000 
    1080                      ; call occurs [#_GUI_set_Fgcolor] ; |44| 
    1081                      .dwpsn  "WIDGET\GUI_widget_3D_window.c",45,2
    1082 0000003b 8A4A          MOVL      XAR4,*-SP[10]         ; |45| 
    1083 0000003c 92CC          MOV       AL,*+XAR4[1]          ; |45| 
    1084 0000003d 8A4A          MOVL      XAR4,*-SP[10]         ; |45| 
    1085 0000003e 93D4          MOV       AH,*+XAR4[2]          ; |45| 
    1086 0000003f 8A4A          MOVL      XAR4,*-SP[10]         ; |45| 
    1087 00000040 9C01          ADDB      AL,#1                 ; |45| 
    1088 00000041 88A9          MOVZ      AR6,AL                ; |45| 
    1089 00000042 9D01          ADDB      AH,#1                 ; |45| 
    1090 00000043 92DC          MOV       AL,*+XAR4[3]          ; |45| 
    1091 00000044 9CFE          ADDB      AL,#-2
    1092 00000045 5CA9          MOVZ      AR4,AL                ; |45| 
    1093 00000046 D512          MOVB      XAR5,#18              ; |45| 
    1094 00000047 92A6          MOV       AL,AR6                ; |45| 
    1095 00000048 7640!         LCR       #_GUI_fill_Rect       ; |45| 
         00000049 0000 
    1096                      ; call occurs [#_GUI_fill_Rect] ; |45| 
    1097                      .dwpsn  "WIDGET\GUI_widget_3D_window.c",48,2
    1098 0000004a 8A4A          MOVL      XAR4,*-SP[10]         ; |48| 
    1099 0000004b 92CC          MOV       AL,*+XAR4[1]          ; |48| 
    1100 0000004c 8A4A          MOVL      XAR4,*-SP[10]         ; |48| 
    1101 0000004d 93D4          MOV       AH,*+XAR4[2]          ; |48| 
    1102 0000004e 834A          MOVL      XAR5,*-SP[10]         ; |48| 
    1103 0000004f 9C01          ADDB      AL,#1                 ; |48| 
    1104 00000050 8A4A          MOVL      XAR4,*-SP[10]         ; |48| 
    1105 00000051 88A9          MOVZ      AR6,AL                ; |48| 
    1106 00000052 92DD          MOV       AL,*+XAR5[3]          ; |48| 
    1107 00000053 834A          MOVL      XAR5,*-SP[10]         ; |48| 
    1108 00000054 94CC          ADD       AL,*+XAR4[1]          ; |48| 
    1109 00000055 5CA9          MOVZ      AR4,AL                ; |48| 
    1110 00000056 9D13          ADDB      AH,#19                ; |48| 
    1111 00000057 92D5          MOV       AL,*+XAR5[2]          ; |48| 
    1112 00000058 9C13          ADDB      AL,#19                ; |48| 
    1113 00000059 5DA9          MOVZ      AR5,AL                ; |48| 
    1114 0000005a 92A6          MOV       AL,AR6                ; |48| 
    1115 0000005b 7640!         LCR       #_GUI_draw_line       ; |48| 
         0000005c 0000 
    1116                      ; call occurs [#_GUI_draw_line] ; |48| 
    1117                      .dwpsn  "WIDGET\GUI_widget_3D_window.c",50,2
    1118 0000005d 8A4A          MOVL      XAR4,*-SP[10]         ; |50| 
    1119 0000005e 92CC          MOV       AL,*+XAR4[1]          ; |50| 
TMS320C2000 COFF Assembler PC v4.1.3 Thu Nov 29 16:03:34 2012

Tools Copyright (c) 1996-2006 Texas Instruments Incorporated
C:\DOCUME~1\ADMINI~1\LOCALS~1\Temp\TI9882                            PAGE   22

    1120 0000005f 8A4A          MOVL      XAR4,*-SP[10]         ; |50| 
    1121 00000060 93D4          MOV       AH,*+XAR4[2]          ; |50| 
    1122 00000061 834A          MOVL      XAR5,*-SP[10]         ; |50| 
    1123 00000062 9C01          ADDB      AL,#1                 ; |50| 
    1124 00000063 8A4A          MOVL      XAR4,*-SP[10]         ; |50| 
    1125 00000064 88A9          MOVZ      AR6,AL                ; |50| 
    1126 00000065 92DD          MOV       AL,*+XAR5[3]          ; |50| 
    1127 00000066 834A          MOVL      XAR5,*-SP[10]         ; |50| 
    1128 00000067 94CC          ADD       AL,*+XAR4[1]          ; |50| 
    1129 00000068 5CA9          MOVZ      AR4,AL                ; |50| 
    1130 00000069 5DD5          MOVZ      AR5,*+XAR5[2]         ; |50| 
    1131 0000006a 92A6          MOV       AL,AR6                ; |50| 
    1132 0000006b 7640!         LCR       #_GUI_draw_line       ; |50| 
         0000006c 0000 
    1133                      ; call occurs [#_GUI_draw_line] ; |50| 
    1134                      .dwpsn  "WIDGET\GUI_widget_3D_window.c",51,2
    1135 0000006d 8A4A          MOVL      XAR4,*-SP[10]         ; |51| 
    1136 0000006e 92CC          MOV       AL,*+XAR4[1]          ; |51| 
    1137 0000006f 8A4A          MOVL      XAR4,*-SP[10]         ; |51| 
    1138 00000070 93D4          MOV       AH,*+XAR4[2]          ; |51| 
    1139 00000071 8A4A          MOVL      XAR4,*-SP[10]         ; |51| 
    1140 00000072 9C01          ADDB      AL,#1                 ; |51| 
    1141 00000073 88A9          MOVZ      AR6,AL                ; |51| 
    1142 00000074 834A          MOVL      XAR5,*-SP[10]         ; |51| 
    1143 00000075 92CC          MOV       AL,*+XAR4[1]          ; |51| 
    1144 00000076 9C01          ADDB      AL,#1                 ; |51| 
    1145 00000077 5CA9          MOVZ      AR4,AL                ; |51| 
    1146 00000078 92D5          MOV       AL,*+XAR5[2]          ; |51| 
    1147 00000079 9C14          ADDB      AL,#20                ; |51| 
    1148 0000007a 5DA9          MOVZ      AR5,AL                ; |51| 
    1149 0000007b 92A6          MOV       AL,AR6                ; |51| 
    1150 0000007c 7640!         LCR       #_GUI_draw_line       ; |51| 
         0000007d 0000 
    1151                      ; call occurs [#_GUI_draw_line] ; |51| 
    1152                      .dwpsn  "WIDGET\GUI_widget_3D_window.c",52,2
    1153 0000007e 761F-         MOVW      DP,#_m_GUI_3D_window_txt_cor
         0000007f 0000 
    1154 00000080 920E-         MOV       AL,@_m_GUI_3D_window_txt_cor ; |52| 
    1155 00000081 7640!         LCR       #_GUI_set_Fgcolor     ; |52| 
         00000082 0000 
    1156                      ; call occurs [#_GUI_set_Fgcolor] ; |52| 
    1157                      .dwpsn  "WIDGET\GUI_widget_3D_window.c",53,2
    1158 00000083 8A46          MOVL      XAR4,*-SP[6]          ; |53| 
    1159 00000084 7640!         LCR       #_global_strlen       ; |53| 
         00000085 0000 
    1160                      ; call occurs [#_global_strlen] ; |53| 
    1161 00000086 761F!         MOVW      DP,#_m_cur_hwin
         00000087 0000 
    1162 00000088 8A00!         MOVL      XAR4,@_m_cur_hwin     ; |53| 
    1163 00000089 5603          MOV       ACC,AL << #3          ; |53| 
         0000008a 03A9 
    1164 0000008b 93DC          MOV       AH,*+XAR4[3]          ; |53| 
    1165 0000008c 9FA9          SUB       AH,AL                 ; |53| 
    1166 0000008d FFD0          LSR       AH,1                  ; |53| 
    1167 0000008e 8A46          MOVL      XAR4,*-SP[6]          ; |53| 
TMS320C2000 COFF Assembler PC v4.1.3 Thu Nov 29 16:03:34 2012

Tools Copyright (c) 1996-2006 Texas Instruments Incorporated
C:\DOCUME~1\ADMINI~1\LOCALS~1\Temp\TI9882                            PAGE   23

    1168 0000008f 92A8          MOV       AL,AH                 ; |53| 
    1169 00000090 9B00          MOVB      AH,#0
    1170 00000091 7640!         LCR       #_GUI_string_display_At ; |53| 
         00000092 0000 
    1171                      ; call occurs [#_GUI_string_display_At] ; |53| 
    1172                      .dwpsn  "WIDGET\GUI_widget_3D_window.c",68,2
    1173 00000093 8A4A          MOVL      XAR4,*-SP[10]         ; |68| 
    1174 00000094 7640!         LCR       #_GUI_window_hwin_release ; |68| 
         00000095 0000 
    1175                      ; call occurs [#_GUI_window_hwin_release] ; |68| 
    1176                      .dwpsn  "WIDGET\GUI_widget_3D_window.c",69,2
    1177 00000096 8A4A          MOVL      XAR4,*-SP[10]         ; |69| 
    1178 00000097 92D4          MOV       AL,*+XAR4[2]          ; |69| 
    1179 00000098 8A4A          MOVL      XAR4,*-SP[10]         ; |69| 
    1180 00000099 9C16          ADDB      AL,#22                ; |69| 
    1181 0000009a 96D4          MOV       *+XAR4[2],AL          ; |69| 
    1182                      .dwpsn  "WIDGET\GUI_widget_3D_window.c",70,2
    1183 0000009b 8A4A          MOVL      XAR4,*-SP[10]         ; |70| 
    1184 0000009c 92E4          MOV       AL,*+XAR4[4]          ; |70| 
    1185 0000009d 08A9          ADD       AL,#65514             ; |70| 
         0000009e FFEA 
    1186 0000009f 8A4A          MOVL      XAR4,*-SP[10]         ; |70| 
    1187 000000a0 96E4          MOV       *+XAR4[4],AL          ; |70| 
    1188                      .dwpsn  "WIDGET\GUI_widget_3D_window.c",71,2
    1189 000000a1 8A4A          MOVL      XAR4,*-SP[10]         ; |71| 
    1190                      .dwpsn  "WIDGET\GUI_widget_3D_window.c",72,1
    1191 000000a2 FE8A          SUBB      SP,#10                ; |71| 
    1192                      .dwcfa  0x1d, -2
    1193 000000a3 0006          LRETR
    1194                      ; return occurs
    1195                      .dwattr DW$256, DW_AT_end_file("WIDGET\GUI_widget_3D_window.c")
    1196                      .dwattr DW$256, DW_AT_end_line(0x48)
    1197                      .dwattr DW$256, DW_AT_end_column(0x01)
    1198                      .dwendentry
    1199                      .dwendtag DW$256
    1200              
    1201 000000a4               .sect   ".text"
    1202                      .global _GUI_3D_window_title_mod
    1203              
    1204              DW$269  .dwtag  DW_TAG_subprogram, DW_AT_name("GUI_3D_window_title_mod"), DW_AT_symbol_name("_GUI_3D_window_t
    1205                      .dwattr DW$269, DW_AT_low_pc(_GUI_3D_window_title_mod)
    1206                      .dwattr DW$269, DW_AT_high_pc(0x00)
    1207                      .dwattr DW$269, DW_AT_begin_file("WIDGET\GUI_widget_3D_window.c")
    1208                      .dwattr DW$269, DW_AT_begin_line(0x4a)
    1209                      .dwattr DW$269, DW_AT_begin_column(0x06)
    1210                      .dwpsn  "WIDGET\GUI_widget_3D_window.c",75,1
    1211              
    1212                      .dwfde DW$CIE
    1213              
    1214              ;***************************************************************
    1215              ;* FNAME: _GUI_3D_window_title_mod      FR SIZE:   8           *
    1216              ;*                                                             *
    1217              ;* FUNCTION ENVIRONMENT                                        *
    1218              ;*                                                             *
    1219              ;* FUNCTION PROPERTIES                                         *
TMS320C2000 COFF Assembler PC v4.1.3 Thu Nov 29 16:03:34 2012

Tools Copyright (c) 1996-2006 Texas Instruments Incorporated
C:\DOCUME~1\ADMINI~1\LOCALS~1\Temp\TI9882                            PAGE   24

    1220              ;*                            1 Parameter,  6 Auto,  0 SOE     *
    1221              ;***************************************************************
    1222              
    1223              _GUI_3D_window_title_mod:
    1224                      .dwcfa  0x1d, -2
    1225                      .dwcfa  0x1c, 26, 0
    1226                      .dwcfa  0x09, 40, 26
    1227 000000a4 FE08          ADDB      SP,#8
    1228                      .dwcfa  0x1d, -10
    1229              ;* AR4   assigned to _hp
    1230              DW$270  .dwtag  DW_TAG_formal_parameter, DW_AT_name("hp"), DW_AT_symbol_name("_hp")
    1231                      .dwattr DW$270, DW_AT_type(*DW$T$54)
    1232                      .dwattr DW$270, DW_AT_location[DW_OP_reg12]
    1233              ;* AR5   assigned to _title
    1234              DW$271  .dwtag  DW_TAG_formal_parameter, DW_AT_name("title"), DW_AT_symbol_name("_title")
    1235                      .dwattr DW$271, DW_AT_type(*DW$T$52)
    1236                      .dwattr DW$271, DW_AT_location[DW_OP_reg14]
    1237              DW$272  .dwtag  DW_TAG_variable, DW_AT_name("hp"), DW_AT_symbol_name("_hp")
    1238                      .dwattr DW$272, DW_AT_type(*DW$T$54)
    1239                      .dwattr DW$272, DW_AT_location[DW_OP_breg20 -4]
    1240              DW$273  .dwtag  DW_TAG_variable, DW_AT_name("title"), DW_AT_symbol_name("_title")
    1241                      .dwattr DW$273, DW_AT_type(*DW$T$52)
    1242                      .dwattr DW$273, DW_AT_location[DW_OP_breg20 -6]
    1243              DW$274  .dwtag  DW_TAG_variable, DW_AT_name("y"), DW_AT_symbol_name("_y")
    1244                      .dwattr DW$274, DW_AT_type(*DW$T$11)
    1245                      .dwattr DW$274, DW_AT_location[DW_OP_breg20 -7]
    1246 000000a5 A046          MOVL      *-SP[6],XAR5          ; |75| 
    1247 000000a6 A844          MOVL      *-SP[4],XAR4          ; |75| 
    1248                      .dwpsn  "WIDGET\GUI_widget_3D_window.c",77,2
    1249 000000a7 8A44          MOVL      XAR4,*-SP[4]          ; |77| 
    1250 000000a8 7640!         LCR       #_GUI_window_hwin_req ; |77| 
         000000a9 0000 
    1251                      ; call occurs [#_GUI_window_hwin_req] ; |77| 
    1252                      .dwpsn  "WIDGET\GUI_widget_3D_window.c",78,2
    1253 000000aa 8A44          MOVL      XAR4,*-SP[4]          ; |78| 
    1254 000000ab 92D4          MOV       AL,*+XAR4[2]          ; |78| 
    1255 000000ac 08A9          ADD       AL,#65515             ; |78| 
         000000ad FFEB 
    1256 000000ae 9647          MOV       *-SP[7],AL            ; |78| 
    1257                      .dwpsn  "WIDGET\GUI_widget_3D_window.c",79,2
    1258 000000af 761F-         MOVW      DP,#_m_GUI_3D_window_Bg_cor
         000000b0 0000 
    1259 000000b1 9210-         MOV       AL,@_m_GUI_3D_window_Bg_cor ; |79| 
    1260 000000b2 7640!         LCR       #_GUI_set_Bgcolor     ; |79| 
         000000b3 0000 
    1261                      ; call occurs [#_GUI_set_Bgcolor] ; |79| 
    1262                      .dwpsn  "WIDGET\GUI_widget_3D_window.c",80,2
    1263 000000b4 761F-         MOVW      DP,#_m_GUI_3D_window_txt_cor
         000000b5 0000 
    1264 000000b6 920E-         MOV       AL,@_m_GUI_3D_window_txt_cor ; |80| 
    1265 000000b7 7640!         LCR       #_GUI_set_Fgcolor     ; |80| 
         000000b8 0000 
    1266                      ; call occurs [#_GUI_set_Fgcolor] ; |80| 
    1267                      .dwpsn  "WIDGET\GUI_widget_3D_window.c",81,2
    1268 000000b9 8A44          MOVL      XAR4,*-SP[4]          ; |81| 
TMS320C2000 COFF Assembler PC v4.1.3 Thu Nov 29 16:03:34 2012

Tools Copyright (c) 1996-2006 Texas Instruments Incorporated
C:\DOCUME~1\ADMINI~1\LOCALS~1\Temp\TI9882                            PAGE   25

    1269 000000ba 92CC          MOV       AL,*+XAR4[1]          ; |81| 
    1270 000000bb 8A44          MOVL      XAR4,*-SP[4]          ; |81| 
    1271 000000bc 9C02          ADDB      AL,#2                 ; |81| 
    1272 000000bd 93DC          MOV       AH,*+XAR4[3]          ; |81| 
    1273 000000be 9DEE          ADDB      AH,#-18
    1274 000000bf 5CA8          MOVZ      AR4,AH                ; |81| 
    1275 000000c0 9347          MOV       AH,*-SP[7]            ; |81| 
    1276 000000c1 D512          MOVB      XAR5,#18              ; |81| 
    1277 000000c2 7640!         LCR       #_GUI_fill_Rect       ; |81| 
         000000c3 0000 
    1278                      ; call occurs [#_GUI_fill_Rect] ; |81| 
    1279                      .dwpsn  "WIDGET\GUI_widget_3D_window.c",83,2
    1280 000000c4 8A46          MOVL      XAR4,*-SP[6]          ; |83| 
    1281 000000c5 7640!         LCR       #_global_strlen       ; |83| 
         000000c6 0000 
    1282                      ; call occurs [#_global_strlen] ; |83| 
    1283 000000c7 8A44          MOVL      XAR4,*-SP[4]          ; |83| 
    1284 000000c8 5603          MOV       ACC,AL << #3          ; |83| 
         000000c9 03A9 
    1285 000000ca 93DC          MOV       AH,*+XAR4[3]          ; |83| 
    1286 000000cb 8A44          MOVL      XAR4,*-SP[4]          ; |83| 
    1287 000000cc 9FA9          SUB       AH,AL                 ; |83| 
    1288 000000cd FFD0          LSR       AH,1                  ; |83| 
    1289 000000ce 95CC          ADD       AH,*+XAR4[1]          ; |83| 
    1290 000000cf 8A44          MOVL      XAR4,*-SP[4]          ; |83| 
    1291 000000d0 92D4          MOV       AL,*+XAR4[2]          ; |83| 
    1292 000000d1 9C14          ADDB      AL,#20                ; |83| 
    1293 000000d2 9641          MOV       *-SP[1],AL            ; |83| 
    1294 000000d3 8344          MOVL      XAR5,*-SP[4]          ; |83| 
    1295 000000d4 8A44          MOVL      XAR4,*-SP[4]          ; |83| 
    1296 000000d5 92DD          MOV       AL,*+XAR5[3]          ; |83| 
    1297 000000d6 94CC          ADD       AL,*+XAR4[1]          ; |83| 
    1298 000000d7 9CFF          ADDB      AL,#-1
    1299 000000d8 5DA9          MOVZ      AR5,AL                ; |83| 
    1300 000000d9 8A46          MOVL      XAR4,*-SP[6]          ; |83| 
    1301 000000da 92A8          MOV       AL,AH                 ; |83| 
    1302 000000db 9347          MOV       AH,*-SP[7]            ; |83| 
    1303 000000dc 7640!         LCR       #_GUI_print_string    ; |83| 
         000000dd 0000 
    1304                      ; call occurs [#_GUI_print_string] ; |83| 
    1305                      .dwpsn  "WIDGET\GUI_widget_3D_window.c",85,2
    1306 000000de 8A44          MOVL      XAR4,*-SP[4]          ; |85| 
    1307 000000df 7640!         LCR       #_GUI_window_hwin_release ; |85| 
         000000e0 0000 
    1308                      ; call occurs [#_GUI_window_hwin_release] ; |85| 
    1309                      .dwpsn  "WIDGET\GUI_widget_3D_window.c",86,2
    1310                      .dwpsn  "WIDGET\GUI_widget_3D_window.c",87,1
    1311 000000e1 FE88          SUBB      SP,#8
    1312                      .dwcfa  0x1d, -2
    1313 000000e2 0006          LRETR
    1314                      ; return occurs
    1315                      .dwattr DW$269, DW_AT_end_file("WIDGET\GUI_widget_3D_window.c")
    1316                      .dwattr DW$269, DW_AT_end_line(0x57)
    1317                      .dwattr DW$269, DW_AT_end_column(0x01)
    1318                      .dwendentry
TMS320C2000 COFF Assembler PC v4.1.3 Thu Nov 29 16:03:34 2012

Tools Copyright (c) 1996-2006 Texas Instruments Incorporated
C:\DOCUME~1\ADMINI~1\LOCALS~1\Temp\TI9882                            PAGE   26

    1319                      .dwendtag DW$269
    1320              
    1321 000000e3               .sect   ".text"
    1322                      .global _GUI_3D_window_init
    1323              
    1324              DW$275  .dwtag  DW_TAG_subprogram, DW_AT_name("GUI_3D_window_init"), DW_AT_symbol_name("_GUI_3D_window_init")
    1325                      .dwattr DW$275, DW_AT_low_pc(_GUI_3D_window_init)
    1326                      .dwattr DW$275, DW_AT_high_pc(0x00)
    1327                      .dwattr DW$275, DW_AT_begin_file("WIDGET\GUI_widget_3D_window.c")
    1328                      .dwattr DW$275, DW_AT_begin_line(0x83)
    1329                      .dwattr DW$275, DW_AT_begin_column(0x06)
    1330                      .dwpsn  "WIDGET\GUI_widget_3D_window.c",132,1
    1331              
    1332                      .dwfde DW$CIE
    1333              
    1334              ;***************************************************************
    1335              ;* FNAME: _GUI_3D_window_init           FR SIZE:   0           *
    1336              ;*                                                             *
    1337              ;* FUNCTION ENVIRONMENT                                        *
    1338              ;*                                                             *
    1339              ;* FUNCTION PROPERTIES                                         *
    1340              ;*                            0 Parameter,  0 Auto,  0 SOE     *
    1341              ;***************************************************************
    1342              
    1343              _GUI_3D_window_init:
    1344                      .dwcfa  0x1d, -2
    1345                      .dwcfa  0x1c, 26, 0
    1346                      .dwcfa  0x09, 40, 26
    1347                      .dwpsn  "WIDGET\GUI_widget_3D_window.c",133,2
    1348 000000e3 761F-         MOVW      DP,#_m_GUI_3D_window_Bg_cor
         000000e4 0000 
    1349 000000e5 2810-         MOV       @_m_GUI_3D_window_Bg_cor,#1 ; |133| 
         000000e6 0001 
    1350                      .dwpsn  "WIDGET\GUI_widget_3D_window.c",134,2
    1351 000000e7 9AFF          MOVB      AL,#255               ; |134| 
    1352 000000e8 9612-         MOV       @_m_GUI_3D_window_Fg_cor,AL ; |134| 
    1353                      .dwpsn  "WIDGET\GUI_widget_3D_window.c",135,2
    1354 000000e9 960E-         MOV       @_m_GUI_3D_window_txt_cor,AL ; |135| 
    1355                      .dwpsn  "WIDGET\GUI_widget_3D_window.c",136,2
    1356                      .dwpsn  "WIDGET\GUI_widget_3D_window.c",137,1
    1357 000000ea 0006          LRETR
    1358                      ; return occurs
    1359                      .dwattr DW$275, DW_AT_end_file("WIDGET\GUI_widget_3D_window.c")
    1360                      .dwattr DW$275, DW_AT_end_line(0x89)
    1361                      .dwattr DW$275, DW_AT_end_column(0x01)
    1362                      .dwendentry
    1363                      .dwendtag DW$275
    1364              
    1365 000000eb               .sect   ".text"
    1366              
    1367              DW$276  .dwtag  DW_TAG_subprogram, DW_AT_name("GUI_button_data_obtain"), DW_AT_symbol_name("_GUI_button_data_
    1368                      .dwattr DW$276, DW_AT_low_pc(_GUI_button_data_obtain)
    1369                      .dwattr DW$276, DW_AT_high_pc(0x00)
    1370                      .dwattr DW$276, DW_AT_begin_file("WIDGET\GUI_widget_button.c")
    1371                      .dwattr DW$276, DW_AT_begin_line(0x16)
TMS320C2000 COFF Assembler PC v4.1.3 Thu Nov 29 16:03:34 2012

Tools Copyright (c) 1996-2006 Texas Instruments Incorporated
C:\DOCUME~1\ADMINI~1\LOCALS~1\Temp\TI9882                            PAGE   27

    1372                      .dwattr DW$276, DW_AT_begin_column(0x18)
    1373                      .dwpsn  "WIDGET\GUI_widget_button.c",23,1
    1374              
    1375                      .dwfde DW$CIE
    1376              
    1377              ;***************************************************************
    1378              ;* FNAME: _GUI_button_data_obtain       FR SIZE:   2           *
    1379              ;*                                                             *
    1380              ;* FUNCTION ENVIRONMENT                                        *
    1381              ;*                                                             *
    1382              ;* FUNCTION PROPERTIES                                         *
    1383              ;*                            0 Parameter,  2 Auto,  0 SOE     *
    1384              ;***************************************************************
    1385              
    1386              _GUI_button_data_obtain:
    1387                      .dwcfa  0x1d, -2
    1388                      .dwcfa  0x1c, 26, 0
    1389                      .dwcfa  0x09, 40, 26
    1390 000000eb FE02          ADDB      SP,#2
    1391                      .dwcfa  0x1d, -4
    1392              ;* AR4   assigned to _hp
    1393              DW$277  .dwtag  DW_TAG_formal_parameter, DW_AT_name("hp"), DW_AT_symbol_name("_hp")
    1394                      .dwattr DW$277, DW_AT_type(*DW$T$54)
    1395                      .dwattr DW$277, DW_AT_location[DW_OP_reg12]
    1396              DW$278  .dwtag  DW_TAG_variable, DW_AT_name("hp"), DW_AT_symbol_name("_hp")
    1397                      .dwattr DW$278, DW_AT_type(*DW$T$54)
    1398                      .dwattr DW$278, DW_AT_location[DW_OP_breg20 -2]
    1399 000000ec A842          MOVL      *-SP[2],XAR4          ; |23| 
    1400                      .dwpsn  "WIDGET\GUI_widget_button.c",24,4
    1401 000000ed 8A42          MOVL      XAR4,*-SP[2]          ; |24| 
    1402 000000ee D020          MOVB      XAR0,#32              ; |24| 
    1403 000000ef 8A94          MOVL      XAR4,*+XAR4[AR0]      ; |24| 
    1404                      .dwpsn  "WIDGET\GUI_widget_button.c",25,1
    1405 000000f0 FE82          SUBB      SP,#2                 ; |24| 
    1406                      .dwcfa  0x1d, -2
    1407 000000f1 0006          LRETR
    1408                      ; return occurs
    1409                      .dwattr DW$276, DW_AT_end_file("WIDGET\GUI_widget_button.c")
    1410                      .dwattr DW$276, DW_AT_end_line(0x19)
    1411                      .dwattr DW$276, DW_AT_end_column(0x01)
    1412                      .dwendentry
    1413                      .dwendtag DW$276
    1414              
    1415 000000f2               .sect   ".text"
    1416                      .global _Gui_button_creat
    1417              
    1418              DW$279  .dwtag  DW_TAG_subprogram, DW_AT_name("Gui_button_creat"), DW_AT_symbol_name("_Gui_button_creat")
    1419                      .dwattr DW$279, DW_AT_low_pc(_Gui_button_creat)
    1420                      .dwattr DW$279, DW_AT_high_pc(0x00)
    1421                      .dwattr DW$279, DW_AT_begin_file("WIDGET\GUI_widget_button.c")
    1422                      .dwattr DW$279, DW_AT_begin_line(0x27)
    1423                      .dwattr DW$279, DW_AT_begin_column(0x09)
    1424                      .dwpsn  "WIDGET\GUI_widget_button.c",47,1
    1425              
    1426                      .dwfde DW$CIE
TMS320C2000 COFF Assembler PC v4.1.3 Thu Nov 29 16:03:34 2012

Tools Copyright (c) 1996-2006 Texas Instruments Incorporated
C:\DOCUME~1\ADMINI~1\LOCALS~1\Temp\TI9882                            PAGE   28

    1427              
    1428              ;***************************************************************
    1429              ;* FNAME: _Gui_button_creat             FR SIZE:  12           *
    1430              ;*                                                             *
    1431              ;* FUNCTION ENVIRONMENT                                        *
    1432              ;*                                                             *
    1433              ;* FUNCTION PROPERTIES                                         *
    1434              ;*                            2 Parameter, 10 Auto,  0 SOE     *
    1435              ;***************************************************************
    1436              
    1437              _Gui_button_creat:
    1438                      .dwcfa  0x1d, -2
    1439                      .dwcfa  0x1c, 26, 0
    1440                      .dwcfa  0x09, 40, 26
    1441 000000f2 FE0C          ADDB      SP,#12
    1442                      .dwcfa  0x1d, -14
    1443              ;* AL    assigned to _xcoord
    1444              DW$280  .dwtag  DW_TAG_formal_parameter, DW_AT_name("xcoord"), DW_AT_symbol_name("_xcoord")
    1445                      .dwattr DW$280, DW_AT_type(*DW$T$11)
    1446                      .dwattr DW$280, DW_AT_location[DW_OP_reg0]
    1447              ;* AH    assigned to _ycoord
    1448              DW$281  .dwtag  DW_TAG_formal_parameter, DW_AT_name("ycoord"), DW_AT_symbol_name("_ycoord")
    1449                      .dwattr DW$281, DW_AT_type(*DW$T$11)
    1450                      .dwattr DW$281, DW_AT_location[DW_OP_reg1]
    1451              ;* AR5   assigned to _wide
    1452              DW$282  .dwtag  DW_TAG_formal_parameter, DW_AT_name("wide"), DW_AT_symbol_name("_wide")
    1453                      .dwattr DW$282, DW_AT_type(*DW$T$27)
    1454                      .dwattr DW$282, DW_AT_location[DW_OP_reg14]
    1455              DW$283  .dwtag  DW_TAG_formal_parameter, DW_AT_name("high"), DW_AT_symbol_name("_high")
    1456                      .dwattr DW$283, DW_AT_type(*DW$T$27)
    1457                      .dwattr DW$283, DW_AT_location[DW_OP_breg20 -15]
    1458              DW$284  .dwtag  DW_TAG_formal_parameter, DW_AT_name("flags"), DW_AT_symbol_name("_flags")
    1459                      .dwattr DW$284, DW_AT_type(*DW$T$27)
    1460                      .dwattr DW$284, DW_AT_location[DW_OP_breg20 -16]
    1461              ;* AR4   assigned to _fatherhp
    1462              DW$285  .dwtag  DW_TAG_formal_parameter, DW_AT_name("fatherhp"), DW_AT_symbol_name("_fatherhp")
    1463                      .dwattr DW$285, DW_AT_type(*DW$T$54)
    1464                      .dwattr DW$285, DW_AT_location[DW_OP_reg12]
    1465              DW$286  .dwtag  DW_TAG_variable, DW_AT_name("xcoord"), DW_AT_symbol_name("_xcoord")
    1466                      .dwattr DW$286, DW_AT_type(*DW$T$11)
    1467                      .dwattr DW$286, DW_AT_location[DW_OP_breg20 -3]
    1468              DW$287  .dwtag  DW_TAG_variable, DW_AT_name("ycoord"), DW_AT_symbol_name("_ycoord")
    1469                      .dwattr DW$287, DW_AT_type(*DW$T$11)
    1470                      .dwattr DW$287, DW_AT_location[DW_OP_breg20 -4]
    1471              DW$288  .dwtag  DW_TAG_variable, DW_AT_name("wide"), DW_AT_symbol_name("_wide")
    1472                      .dwattr DW$288, DW_AT_type(*DW$T$27)
    1473                      .dwattr DW$288, DW_AT_location[DW_OP_breg20 -5]
    1474              DW$289  .dwtag  DW_TAG_variable, DW_AT_name("fatherhp"), DW_AT_symbol_name("_fatherhp")
    1475                      .dwattr DW$289, DW_AT_type(*DW$T$54)
    1476                      .dwattr DW$289, DW_AT_location[DW_OP_breg20 -8]
    1477              DW$290  .dwtag  DW_TAG_variable, DW_AT_name("hp"), DW_AT_symbol_name("_hp")
    1478                      .dwattr DW$290, DW_AT_type(*DW$T$54)
    1479                      .dwattr DW$290, DW_AT_location[DW_OP_breg20 -10]
    1480              DW$291  .dwtag  DW_TAG_variable, DW_AT_name("pbutton"), DW_AT_symbol_name("_pbutton")
    1481                      .dwattr DW$291, DW_AT_type(*DW$T$223)
TMS320C2000 COFF Assembler PC v4.1.3 Thu Nov 29 16:03:34 2012

Tools Copyright (c) 1996-2006 Texas Instruments Incorporated
C:\DOCUME~1\ADMINI~1\LOCALS~1\Temp\TI9882                            PAGE   29

    1482                      .dwattr DW$291, DW_AT_location[DW_OP_breg20 -12]
    1483 000000f3 A848          MOVL      *-SP[8],XAR4          ; |47| 
    1484 000000f4 7D45          MOV       *-SP[5],AR5           ; |47| 
    1485 000000f5 9744          MOV       *-SP[4],AH            ; |47| 
    1486 000000f6 9643          MOV       *-SP[3],AL            ; |47| 
    1487                      .dwpsn  "WIDGET\GUI_widget_button.c",50,2
    1488 000000f7 924F          MOV       AL,*-SP[15]           ; |50| 
    1489 000000f8 9641          MOV       *-SP[1],AL            ; |50| 
    1490 000000f9 2B42          MOV       *-SP[2],#0            ; |50| 
    1491 000000fa 5D45          MOVZ      AR5,*-SP[5]           ; |50| 
    1492 000000fb 8A48          MOVL      XAR4,*-SP[8]          ; |50| 
    1493 000000fc 9243          MOV       AL,*-SP[3]            ; |50| 
    1494 000000fd 9344          MOV       AH,*-SP[4]            ; |50| 
    1495 000000fe 7640!         LCR       #_GUI_window_child_creat ; |50| 
         000000ff 0000 
    1496                      ; call occurs [#_GUI_window_child_creat] ; |50| 
    1497 00000100 A84A          MOVL      *-SP[10],XAR4         ; |50| 
    1498                      .dwpsn  "WIDGET\GUI_widget_button.c",57,2
    1499 00000101 8A4A          MOVL      XAR4,*-SP[10]         ; |57| 
    1500 00000102 D008          MOVB      XAR0,#8               ; |57| 
    1501 00000103 2894          MOV       *+XAR4[AR0],#6        ; |57| 
         00000104 0006 
    1502                      .dwpsn  "WIDGET\GUI_widget_button.c",58,2
    1503 00000105 8A4A          MOVL      XAR4,*-SP[10]         ; |58| 
    1504 00000106 9250          MOV       AL,*-SP[16]           ; |58| 
    1505 00000107 96FC          MOV       *+XAR4[7],AL          ; |58| 
    1506                      .dwpsn  "WIDGET\GUI_widget_button.c",59,2
    1507 00000108 021E          MOVB      ACC,#30
    1508 00000109 7640!         LCR       #_GUI_malloc          ; |59| 
         0000010a 0000 
    1509                      ; call occurs [#_GUI_malloc] ; |59| 
    1510 0000010b 834A          MOVL      XAR5,*-SP[10]         ; |59| 
    1511 0000010c D020          MOVB      XAR0,#32              ; |59| 
    1512 0000010d A895          MOVL      *+XAR5[AR0],XAR4      ; |59| 
    1513                      .dwpsn  "WIDGET\GUI_widget_button.c",60,2
    1514 0000010e 8A4A          MOVL      XAR4,*-SP[10]         ; |60| 
    1515 0000010f 7640'         LCR       #_GUI_button_data_obtain ; |60| 
         00000110 00EB 
    1516                      ; call occurs [#_GUI_button_data_obtain] ; |60| 
    1517 00000111 A84C          MOVL      *-SP[12],XAR4         ; |60| 
    1518                      .dwpsn  "WIDGET\GUI_widget_button.c",61,2
    1519 00000112 8A4C          MOVL      XAR4,*-SP[12]         ; |61| 
    1520 00000113 D01C          MOVB      XAR0,#28              ; |61| 
    1521 00000114 0200          MOVB      ACC,#0
    1522 00000115 1E94          MOVL      *+XAR4[AR0],ACC       ; |61| 
    1523                      .dwpsn  "WIDGET\GUI_widget_button.c",62,2
    1524 00000116 8A4C          MOVL      XAR4,*-SP[12]         ; |62| 
    1525 00000117 761F-         MOVW      DP,#_m_GUI_button_Bgcor
         00000118 0000 
    1526 00000119 D019          MOVB      XAR0,#25              ; |62| 
    1527 0000011a 920D-         MOV       AL,@_m_GUI_button_Bgcor ; |62| 
    1528 0000011b 9694          MOV       *+XAR4[AR0],AL        ; |62| 
    1529                      .dwpsn  "WIDGET\GUI_widget_button.c",63,2
    1530 0000011c 8A4C          MOVL      XAR4,*-SP[12]         ; |63| 
    1531 0000011d 9211-         MOV       AL,@_m_GUI_button_Fgcor ; |63| 
TMS320C2000 COFF Assembler PC v4.1.3 Thu Nov 29 16:03:34 2012

Tools Copyright (c) 1996-2006 Texas Instruments Incorporated
C:\DOCUME~1\ADMINI~1\LOCALS~1\Temp\TI9882                            PAGE   30

    1532 0000011e D01A          MOVB      XAR0,#26              ; |63| 
    1533 0000011f 9694          MOV       *+XAR4[AR0],AL        ; |63| 
    1534                      .dwpsn  "WIDGET\GUI_widget_button.c",64,2
    1535 00000120 4850          TBIT      *-SP[16],#8           ; |64| 
    1536 00000121 EF28          BF        L3,NTC                ; |64| 
    1537                      ; branchcc occurs ; |64| 
    1538                      .dwpsn  "WIDGET\GUI_widget_button.c",66,3
    1539 00000122 8A4A          MOVL      XAR4,*-SP[10]         ; |66| 
    1540 00000123 7640!         LCR       #_GUI_window_hwin_req ; |66| 
         00000124 0000 
    1541                      ; call occurs [#_GUI_window_hwin_req] ; |66| 
    1542                      .dwpsn  "WIDGET\GUI_widget_button.c",67,3
    1543 00000125 761F-         MOVW      DP,#_m_GUI_button_Bgcor
         00000126 0000 
    1544 00000127 920D-         MOV       AL,@_m_GUI_button_Bgcor ; |67| 
    1545 00000128 7640!         LCR       #_GUI_set_Bgcolor     ; |67| 
         00000129 0000 
    1546                      ; call occurs [#_GUI_set_Bgcolor] ; |67| 
    1547                      .dwpsn  "WIDGET\GUI_widget_button.c",68,3
    1548 0000012a 8A4A          MOVL      XAR4,*-SP[10]         ; |68| 
    1549 0000012b 88CC          MOVZ      AR6,*+XAR4[1]         ; |68| 
    1550 0000012c 8A4A          MOVL      XAR4,*-SP[10]         ; |68| 
    1551 0000012d 93D4          MOV       AH,*+XAR4[2]          ; |68| 
    1552 0000012e 8A4A          MOVL      XAR4,*-SP[10]         ; |68| 
    1553 0000012f 834A          MOVL      XAR5,*-SP[10]         ; |68| 
    1554 00000130 92DC          MOV       AL,*+XAR4[3]          ; |68| 
    1555 00000131 9C01          ADDB      AL,#1                 ; |68| 
    1556 00000132 5CA9          MOVZ      AR4,AL                ; |68| 
    1557 00000133 5DE5          MOVZ      AR5,*+XAR5[4]         ; |68| 
    1558 00000134 92A6          MOV       AL,AR6                ; |68| 
    1559 00000135 7640!         LCR       #_GUI_fill_Rect       ; |68| 
         00000136 0000 
    1560                      ; call occurs [#_GUI_fill_Rect] ; |68| 
    1561                      .dwpsn  "WIDGET\GUI_widget_button.c",70,3
    1562 00000137 761F-         MOVW      DP,#_m_GUI_button_Fgcor
         00000138 0000 
    1563 00000139 9211-         MOV       AL,@_m_GUI_button_Fgcor ; |70| 
    1564 0000013a 7640!         LCR       #_GUI_set_Fgcolor     ; |70| 
         0000013b 0000 
    1565                      ; call occurs [#_GUI_set_Fgcolor] ; |70| 
    1566                      .dwpsn  "WIDGET\GUI_widget_button.c",71,3
    1567 0000013c 8A4A          MOVL      XAR4,*-SP[10]         ; |71| 
    1568 0000013d 92CC          MOV       AL,*+XAR4[1]          ; |71| 
    1569 0000013e 8A4A          MOVL      XAR4,*-SP[10]         ; |71| 
    1570 0000013f 834A          MOVL      XAR5,*-SP[10]         ; |71| 
    1571 00000140 93D4          MOV       AH,*+XAR4[2]          ; |71| 
    1572 00000141 8A4A          MOVL      XAR4,*-SP[10]         ; |71| 
    1573 00000142 5DE5          MOVZ      AR5,*+XAR5[4]         ; |71| 
    1574 00000143 5CDC          MOVZ      AR4,*+XAR4[3]         ; |71| 
    1575 00000144 7640!         LCR       #_GUI_widget_3D_paint ; |71| 
         00000145 0000 
    1576                      ; call occurs [#_GUI_widget_3D_paint] ; |71| 
    1577                      .dwpsn  "WIDGET\GUI_widget_button.c",73,3
    1578 00000146 8A4A          MOVL      XAR4,*-SP[10]         ; |73| 
    1579 00000147 7640!         LCR       #_GUI_window_hwin_release ; |73| 
TMS320C2000 COFF Assembler PC v4.1.3 Thu Nov 29 16:03:34 2012

Tools Copyright (c) 1996-2006 Texas Instruments Incorporated
C:\DOCUME~1\ADMINI~1\LOCALS~1\Temp\TI9882                            PAGE   31

         00000148 0000 
    1580                      ; call occurs [#_GUI_window_hwin_release] ; |73| 
    1581              L3:    
    1582                      .dwpsn  "WIDGET\GUI_widget_button.c",75,2
    1583 00000149 8A4A          MOVL      XAR4,*-SP[10]         ; |75| 
    1584                      .dwpsn  "WIDGET\GUI_widget_button.c",76,1
    1585 0000014a FE8C          SUBB      SP,#12                ; |75| 
    1586                      .dwcfa  0x1d, -2
    1587 0000014b 0006          LRETR
    1588                      ; return occurs
    1589                      .dwattr DW$279, DW_AT_end_file("WIDGET\GUI_widget_button.c")
    1590                      .dwattr DW$279, DW_AT_end_line(0x4c)
    1591                      .dwattr DW$279, DW_AT_end_column(0x01)
    1592                      .dwendentry
    1593                      .dwendtag DW$279
    1594              
    1595 0000014c               .sect   ".text"
    1596              
    1597              DW$292  .dwtag  DW_TAG_subprogram, DW_AT_name("GUI_button_select_state_display"), DW_AT_symbol_name("_GUI_but
    1598                      .dwattr DW$292, DW_AT_low_pc(_GUI_button_select_state_display)
    1599                      .dwattr DW$292, DW_AT_high_pc(0x00)
    1600                      .dwattr DW$292, DW_AT_begin_file("WIDGET\GUI_widget_button.c")
    1601                      .dwattr DW$292, DW_AT_begin_line(0x53)
    1602                      .dwattr DW$292, DW_AT_begin_column(0x0d)
    1603                      .dwpsn  "WIDGET\GUI_widget_button.c",84,1
    1604              
    1605                      .dwfde DW$CIE
    1606              
    1607              ;***************************************************************
    1608              ;* FNAME: _GUI_button_select_state_display FR SIZE:   6           *
    1609              ;*                                                             *
    1610              ;* FUNCTION ENVIRONMENT                                        *
    1611              ;*                                                             *
    1612              ;* FUNCTION PROPERTIES                                         *
    1613              ;*                            0 Parameter,  6 Auto,  0 SOE     *
    1614              ;***************************************************************
    1615              
    1616              _GUI_button_select_state_display:
    1617                      .dwcfa  0x1d, -2
    1618                      .dwcfa  0x1c, 26, 0
    1619                      .dwcfa  0x09, 40, 26
    1620 0000014c FE06          ADDB      SP,#6
    1621                      .dwcfa  0x1d, -8
    1622              ;* AR4   assigned to _hp
    1623              DW$293  .dwtag  DW_TAG_formal_parameter, DW_AT_name("hp"), DW_AT_symbol_name("_hp")
    1624                      .dwattr DW$293, DW_AT_type(*DW$T$54)
    1625                      .dwattr DW$293, DW_AT_location[DW_OP_reg12]
    1626              ;* AL    assigned to _corlor
    1627              DW$294  .dwtag  DW_TAG_formal_parameter, DW_AT_name("corlor"), DW_AT_symbol_name("_corlor")
    1628                      .dwattr DW$294, DW_AT_type(*DW$T$11)
    1629                      .dwattr DW$294, DW_AT_location[DW_OP_reg0]
    1630              DW$295  .dwtag  DW_TAG_variable, DW_AT_name("hp"), DW_AT_symbol_name("_hp")
    1631                      .dwattr DW$295, DW_AT_type(*DW$T$54)
    1632                      .dwattr DW$295, DW_AT_location[DW_OP_breg20 -2]
    1633              DW$296  .dwtag  DW_TAG_variable, DW_AT_name("corlor"), DW_AT_symbol_name("_corlor")
TMS320C2000 COFF Assembler PC v4.1.3 Thu Nov 29 16:03:34 2012

Tools Copyright (c) 1996-2006 Texas Instruments Incorporated
C:\DOCUME~1\ADMINI~1\LOCALS~1\Temp\TI9882                            PAGE   32

    1634                      .dwattr DW$296, DW_AT_type(*DW$T$11)
    1635                      .dwattr DW$296, DW_AT_location[DW_OP_breg20 -3]
    1636              DW$297  .dwtag  DW_TAG_variable, DW_AT_name("x"), DW_AT_symbol_name("_x")
    1637                      .dwattr DW$297, DW_AT_type(*DW$T$10)
    1638                      .dwattr DW$297, DW_AT_location[DW_OP_breg20 -4]
    1639              DW$298  .dwtag  DW_TAG_variable, DW_AT_name("y"), DW_AT_symbol_name("_y")
    1640                      .dwattr DW$298, DW_AT_type(*DW$T$10)
    1641                      .dwattr DW$298, DW_AT_location[DW_OP_breg20 -5]
    1642              DW$299  .dwtag  DW_TAG_variable, DW_AT_name("n"), DW_AT_symbol_name("_n")
    1643                      .dwattr DW$299, DW_AT_type(*DW$T$10)
    1644                      .dwattr DW$299, DW_AT_location[DW_OP_breg20 -6]
    1645 0000014d 9643          MOV       *-SP[3],AL            ; |84| 
    1646 0000014e A842          MOVL      *-SP[2],XAR4          ; |84| 
    1647                      .dwpsn  "WIDGET\GUI_widget_button.c",86,2
    1648 0000014f 0642          MOVL      ACC,*-SP[2]           ; |86| 
    1649 00000150 EC63          BF        L16,EQ                ; |86| 
    1650                      ; branchcc occurs ; |86| 
    1651                      .dwpsn  "WIDGET\GUI_widget_button.c",86,9
    1652                      .dwpsn  "WIDGET\GUI_widget_button.c",87,5
    1653 00000151 8A42          MOVL      XAR4,*-SP[2]          ; |87| 
    1654 00000152 7640!         LCR       #_GUI_window_hwin_req ; |87| 
         00000153 0000 
    1655                      ; call occurs [#_GUI_window_hwin_req] ; |87| 
    1656                      .dwpsn  "WIDGET\GUI_widget_button.c",88,2
    1657 00000154 2B46          MOV       *-SP[6],#0            ; |88| 
    1658                      .dwpsn  "WIDGET\GUI_widget_button.c",89,9
    1659 00000155 2844          MOV       *-SP[4],#2            ; |89| 
         00000156 0002 
    1660 00000157 6F0E          B         L6,UNC                ; |89| 
    1661                      ; branch occurs ; |89| 
    1662              L4:    
    1663              DW$L$_GUI_button_select_state_display$3$B:
    1664                      .dwpsn  "WIDGET\GUI_widget_button.c",91,9
    1665 00000158 9246          MOV       AL,*-SP[6]            ; |91| 
    1666 00000159 9B02          MOVB      AH,#2                 ; |91| 
    1667 0000015a 00C0!         FFC       XAR7,#I$$MOD          ; |91| 
         0000015b 0000 
    1668                      ; call occurs [#I$$MOD] ; |91| 
    1669 0000015c 5200          CMPB      AL,#0                 ; |91| 
    1670 0000015d ED06          BF        L5,NEQ                ; |91| 
    1671                      ; branchcc occurs ; |91| 
    1672              DW$L$_GUI_button_select_state_display$3$E:
    1673              DW$L$_GUI_button_select_state_display$4$B:
    1674                      .dwpsn  "WIDGET\GUI_widget_button.c",91,19
    1675 0000015e 5C43          MOVZ      AR4,*-SP[3]           ; |91| 
    1676 0000015f 9244          MOV       AL,*-SP[4]            ; |91| 
    1677 00000160 9B02          MOVB      AH,#2                 ; |91| 
    1678 00000161 7640!         LCR       #_GUI_window_draw_dot ; |91| 
         00000162 0000 
    1679                      ; call occurs [#_GUI_window_draw_dot] ; |91| 
    1680              DW$L$_GUI_button_select_state_display$4$E:
    1681              L5:    
    1682              DW$L$_GUI_button_select_state_display$5$B:
    1683                      .dwpsn  "WIDGET\GUI_widget_button.c",92,3
    1684 00000163 0A46          INC       *-SP[6]               ; |92| 
TMS320C2000 COFF Assembler PC v4.1.3 Thu Nov 29 16:03:34 2012

Tools Copyright (c) 1996-2006 Texas Instruments Incorporated
C:\DOCUME~1\ADMINI~1\LOCALS~1\Temp\TI9882                            PAGE   33

    1685                      .dwpsn  "WIDGET\GUI_widget_button.c",89,32
    1686 00000164 0A44          INC       *-SP[4]               ; |89| 
    1687              DW$L$_GUI_button_select_state_display$5$E:
    1688              L6:    
    1689              DW$L$_GUI_button_select_state_display$6$B:
    1690                      .dwpsn  "WIDGET\GUI_widget_button.c",89,13
    1691 00000165 8A42          MOVL      XAR4,*-SP[2]          ; |89| 
    1692 00000166 92DC          MOV       AL,*+XAR4[3]          ; |89| 
    1693 00000167 9CFC          ADDB      AL,#-4
    1694 00000168 5444          CMP       AL,*-SP[4]            ; |89| 
    1695 00000169 66EF          B         L4,HI                 ; |89| 
    1696                      ; branchcc occurs ; |89| 
    1697              DW$L$_GUI_button_select_state_display$6$E:
    1698                      .dwpsn  "WIDGET\GUI_widget_button.c",94,2
    1699 0000016a 2B46          MOV       *-SP[6],#0            ; |94| 
    1700                      .dwpsn  "WIDGET\GUI_widget_button.c",95,9
    1701 0000016b 2844          MOV       *-SP[4],#2            ; |95| 
         0000016c 0002 
    1702 0000016d 6F10          B         L9,UNC                ; |95| 
    1703                      ; branch occurs ; |95| 
    1704              L7:    
    1705              DW$L$_GUI_button_select_state_display$8$B:
    1706                      .dwpsn  "WIDGET\GUI_widget_button.c",97,9
    1707 0000016e 9246          MOV       AL,*-SP[6]            ; |97| 
    1708 0000016f 9B02          MOVB      AH,#2                 ; |97| 
    1709 00000170 00C0!         FFC       XAR7,#I$$MOD          ; |97| 
         00000171 0000 
    1710                      ; call occurs [#I$$MOD] ; |97| 
    1711 00000172 5200          CMPB      AL,#0                 ; |97| 
    1712 00000173 ED08          BF        L8,NEQ                ; |97| 
    1713                      ; branchcc occurs ; |97| 
    1714              DW$L$_GUI_button_select_state_display$8$E:
    1715              DW$L$_GUI_button_select_state_display$9$B:
    1716                      .dwpsn  "WIDGET\GUI_widget_button.c",97,19
    1717 00000174 8A42          MOVL      XAR4,*-SP[2]          ; |97| 
    1718 00000175 9244          MOV       AL,*-SP[4]            ; |97| 
    1719 00000176 93E4          MOV       AH,*+XAR4[4]          ; |97| 
    1720 00000177 5C43          MOVZ      AR4,*-SP[3]           ; |97| 
    1721 00000178 9DFC          ADDB      AH,#-4
    1722 00000179 7640!         LCR       #_GUI_window_draw_dot ; |97| 
         0000017a 0000 
    1723                      ; call occurs [#_GUI_window_draw_dot] ; |97| 
    1724              DW$L$_GUI_button_select_state_display$9$E:
    1725              L8:    
    1726              DW$L$_GUI_button_select_state_display$10$B:
    1727                      .dwpsn  "WIDGET\GUI_widget_button.c",98,3
    1728 0000017b 0A46          INC       *-SP[6]               ; |98| 
    1729                      .dwpsn  "WIDGET\GUI_widget_button.c",95,32
    1730 0000017c 0A44          INC       *-SP[4]               ; |95| 
    1731              DW$L$_GUI_button_select_state_display$10$E:
    1732              L9:    
    1733              DW$L$_GUI_button_select_state_display$11$B:
    1734                      .dwpsn  "WIDGET\GUI_widget_button.c",95,13
    1735 0000017d 8A42          MOVL      XAR4,*-SP[2]          ; |95| 
    1736 0000017e 92DC          MOV       AL,*+XAR4[3]          ; |95| 
TMS320C2000 COFF Assembler PC v4.1.3 Thu Nov 29 16:03:34 2012

Tools Copyright (c) 1996-2006 Texas Instruments Incorporated
C:\DOCUME~1\ADMINI~1\LOCALS~1\Temp\TI9882                            PAGE   34

    1737 0000017f 9CFC          ADDB      AL,#-4
    1738 00000180 5444          CMP       AL,*-SP[4]            ; |95| 
    1739 00000181 66ED          B         L7,HI                 ; |95| 
    1740                      ; branchcc occurs ; |95| 
    1741              DW$L$_GUI_button_select_state_display$11$E:
    1742                      .dwpsn  "WIDGET\GUI_widget_button.c",100,2
    1743 00000182 2B46          MOV       *-SP[6],#0            ; |100| 
    1744                      .dwpsn  "WIDGET\GUI_widget_button.c",101,6
    1745 00000183 2845          MOV       *-SP[5],#2            ; |101| 
         00000184 0002 
    1746 00000185 6F0E          B         L12,UNC               ; |101| 
    1747                      ; branch occurs ; |101| 
    1748              L10:    
    1749              DW$L$_GUI_button_select_state_display$13$B:
    1750                      .dwpsn  "WIDGET\GUI_widget_button.c",103,4
    1751 00000186 9246          MOV       AL,*-SP[6]            ; |103| 
    1752 00000187 9B02          MOVB      AH,#2                 ; |103| 
    1753 00000188 00C0!         FFC       XAR7,#I$$MOD          ; |103| 
         00000189 0000 
    1754                      ; call occurs [#I$$MOD] ; |103| 
    1755 0000018a 5200          CMPB      AL,#0                 ; |103| 
    1756 0000018b ED06          BF        L11,NEQ               ; |103| 
    1757                      ; branchcc occurs ; |103| 
    1758              DW$L$_GUI_button_select_state_display$13$E:
    1759              DW$L$_GUI_button_select_state_display$14$B:
    1760                      .dwpsn  "WIDGET\GUI_widget_button.c",103,14
    1761 0000018c 5C43          MOVZ      AR4,*-SP[3]           ; |103| 
    1762 0000018d 9345          MOV       AH,*-SP[5]            ; |103| 
    1763 0000018e 9A02          MOVB      AL,#2                 ; |103| 
    1764 0000018f 7640!         LCR       #_GUI_window_draw_dot ; |103| 
         00000190 0000 
    1765                      ; call occurs [#_GUI_window_draw_dot] ; |103| 
    1766              DW$L$_GUI_button_select_state_display$14$E:
    1767              L11:    
    1768              DW$L$_GUI_button_select_state_display$15$B:
    1769                      .dwpsn  "WIDGET\GUI_widget_button.c",104,3
    1770 00000191 0A46          INC       *-SP[6]               ; |104| 
    1771                      .dwpsn  "WIDGET\GUI_widget_button.c",101,29
    1772 00000192 0A45          INC       *-SP[5]               ; |101| 
    1773              DW$L$_GUI_button_select_state_display$15$E:
    1774              L12:    
    1775              DW$L$_GUI_button_select_state_display$16$B:
    1776                      .dwpsn  "WIDGET\GUI_widget_button.c",101,10
    1777 00000193 8A42          MOVL      XAR4,*-SP[2]          ; |101| 
    1778 00000194 92E4          MOV       AL,*+XAR4[4]          ; |101| 
    1779 00000195 9CFC          ADDB      AL,#-4
    1780 00000196 5445          CMP       AL,*-SP[5]            ; |101| 
    1781 00000197 66EF          B         L10,HI                ; |101| 
    1782                      ; branchcc occurs ; |101| 
    1783              DW$L$_GUI_button_select_state_display$16$E:
    1784                      .dwpsn  "WIDGET\GUI_widget_button.c",106,2
    1785 00000198 2B46          MOV       *-SP[6],#0            ; |106| 
    1786                      .dwpsn  "WIDGET\GUI_widget_button.c",107,6
    1787 00000199 2845          MOV       *-SP[5],#2            ; |107| 
         0000019a 0002 
TMS320C2000 COFF Assembler PC v4.1.3 Thu Nov 29 16:03:34 2012

Tools Copyright (c) 1996-2006 Texas Instruments Incorporated
C:\DOCUME~1\ADMINI~1\LOCALS~1\Temp\TI9882                            PAGE   35

    1788 0000019b 6F10          B         L15,UNC               ; |107| 
    1789                      ; branch occurs ; |107| 
    1790              L13:    
    1791              DW$L$_GUI_button_select_state_display$18$B:
    1792                      .dwpsn  "WIDGET\GUI_widget_button.c",109,4
    1793 0000019c 9246          MOV       AL,*-SP[6]            ; |109| 
    1794 0000019d 9B02          MOVB      AH,#2                 ; |109| 
    1795 0000019e 00C0!         FFC       XAR7,#I$$MOD          ; |109| 
         0000019f 0000 
    1796                      ; call occurs [#I$$MOD] ; |109| 
    1797 000001a0 5200          CMPB      AL,#0                 ; |109| 
    1798 000001a1 ED08          BF        L14,NEQ               ; |109| 
    1799                      ; branchcc occurs ; |109| 
    1800              DW$L$_GUI_button_select_state_display$18$E:
    1801              DW$L$_GUI_button_select_state_display$19$B:
    1802                      .dwpsn  "WIDGET\GUI_widget_button.c",109,14
    1803 000001a2 8A42          MOVL      XAR4,*-SP[2]          ; |109| 
    1804 000001a3 92DC          MOV       AL,*+XAR4[3]          ; |109| 
    1805 000001a4 5C43          MOVZ      AR4,*-SP[3]           ; |109| 
    1806 000001a5 9CFC          ADDB      AL,#-4
    1807 000001a6 9345          MOV       AH,*-SP[5]            ; |109| 
    1808 000001a7 7640!         LCR       #_GUI_window_draw_dot ; |109| 
         000001a8 0000 
    1809                      ; call occurs [#_GUI_window_draw_dot] ; |109| 
    1810              DW$L$_GUI_button_select_state_display$19$E:
    1811              L14:    
    1812              DW$L$_GUI_button_select_state_display$20$B:
    1813                      .dwpsn  "WIDGET\GUI_widget_button.c",110,3
    1814 000001a9 0A46          INC       *-SP[6]               ; |110| 
    1815                      .dwpsn  "WIDGET\GUI_widget_button.c",107,29
    1816 000001aa 0A45          INC       *-SP[5]               ; |107| 
    1817              DW$L$_GUI_button_select_state_display$20$E:
    1818              L15:    
    1819              DW$L$_GUI_button_select_state_display$21$B:
    1820                      .dwpsn  "WIDGET\GUI_widget_button.c",107,10
    1821 000001ab 8A42          MOVL      XAR4,*-SP[2]          ; |107| 
    1822 000001ac 92E4          MOV       AL,*+XAR4[4]          ; |107| 
    1823 000001ad 9CFC          ADDB      AL,#-4
    1824 000001ae 5445          CMP       AL,*-SP[5]            ; |107| 
    1825 000001af 66ED          B         L13,HI                ; |107| 
    1826                      ; branchcc occurs ; |107| 
    1827              DW$L$_GUI_button_select_state_display$21$E:
    1828                      .dwpsn  "WIDGET\GUI_widget_button.c",112,2
    1829 000001b0 8A42          MOVL      XAR4,*-SP[2]          ; |112| 
    1830 000001b1 7640!         LCR       #_GUI_window_hwin_release ; |112| 
         000001b2 0000 
    1831                      ; call occurs [#_GUI_window_hwin_release] ; |112| 
    1832                      .dwpsn  "WIDGET\GUI_widget_button.c",113,5
    1833              L16:    
    1834                      .dwpsn  "WIDGET\GUI_widget_button.c",114,1
    1835 000001b3 FE86          SUBB      SP,#6
    1836                      .dwcfa  0x1d, -2
    1837 000001b4 0006          LRETR
    1838                      ; return occurs
    1839              
TMS320C2000 COFF Assembler PC v4.1.3 Thu Nov 29 16:03:34 2012

Tools Copyright (c) 1996-2006 Texas Instruments Incorporated
C:\DOCUME~1\ADMINI~1\LOCALS~1\Temp\TI9882                            PAGE   36

    1840              DW$300  .dwtag  DW_TAG_loop
    1841                      .dwattr DW$300, DW_AT_name("C:\DOCUME~1\ADMINI~1\LOCALS~1\Temp\TI9882:L15:1:1354176212")
    1842                      .dwattr DW$300, DW_AT_begin_file("WIDGET\GUI_widget_button.c")
    1843                      .dwattr DW$300, DW_AT_begin_line(0x6b)
    1844                      .dwattr DW$300, DW_AT_end_line(0x6e)
    1845              DW$301  .dwtag  DW_TAG_loop_range
    1846                      .dwattr DW$301, DW_AT_low_pc(DW$L$_GUI_button_select_state_display$21$B)
    1847                      .dwattr DW$301, DW_AT_high_pc(DW$L$_GUI_button_select_state_display$21$E)
    1848              DW$302  .dwtag  DW_TAG_loop_range
    1849                      .dwattr DW$302, DW_AT_low_pc(DW$L$_GUI_button_select_state_display$18$B)
    1850                      .dwattr DW$302, DW_AT_high_pc(DW$L$_GUI_button_select_state_display$18$E)
    1851              DW$303  .dwtag  DW_TAG_loop_range
    1852                      .dwattr DW$303, DW_AT_low_pc(DW$L$_GUI_button_select_state_display$19$B)
    1853                      .dwattr DW$303, DW_AT_high_pc(DW$L$_GUI_button_select_state_display$19$E)
    1854              DW$304  .dwtag  DW_TAG_loop_range
    1855                      .dwattr DW$304, DW_AT_low_pc(DW$L$_GUI_button_select_state_display$20$B)
    1856                      .dwattr DW$304, DW_AT_high_pc(DW$L$_GUI_button_select_state_display$20$E)
    1857                      .dwendtag DW$300
    1858              
    1859              
    1860              DW$305  .dwtag  DW_TAG_loop
    1861                      .dwattr DW$305, DW_AT_name("C:\DOCUME~1\ADMINI~1\LOCALS~1\Temp\TI9882:L12:1:1354176212")
    1862                      .dwattr DW$305, DW_AT_begin_file("WIDGET\GUI_widget_button.c")
    1863                      .dwattr DW$305, DW_AT_begin_line(0x65)
    1864                      .dwattr DW$305, DW_AT_end_line(0x68)
    1865              DW$306  .dwtag  DW_TAG_loop_range
    1866                      .dwattr DW$306, DW_AT_low_pc(DW$L$_GUI_button_select_state_display$16$B)
    1867                      .dwattr DW$306, DW_AT_high_pc(DW$L$_GUI_button_select_state_display$16$E)
    1868              DW$307  .dwtag  DW_TAG_loop_range
    1869                      .dwattr DW$307, DW_AT_low_pc(DW$L$_GUI_button_select_state_display$13$B)
    1870                      .dwattr DW$307, DW_AT_high_pc(DW$L$_GUI_button_select_state_display$13$E)
    1871              DW$308  .dwtag  DW_TAG_loop_range
    1872                      .dwattr DW$308, DW_AT_low_pc(DW$L$_GUI_button_select_state_display$14$B)
    1873                      .dwattr DW$308, DW_AT_high_pc(DW$L$_GUI_button_select_state_display$14$E)
    1874              DW$309  .dwtag  DW_TAG_loop_range
    1875                      .dwattr DW$309, DW_AT_low_pc(DW$L$_GUI_button_select_state_display$15$B)
    1876                      .dwattr DW$309, DW_AT_high_pc(DW$L$_GUI_button_select_state_display$15$E)
    1877                      .dwendtag DW$305
    1878              
    1879              
    1880              DW$310  .dwtag  DW_TAG_loop
    1881                      .dwattr DW$310, DW_AT_name("C:\DOCUME~1\ADMINI~1\LOCALS~1\Temp\TI9882:L9:1:1354176212")
    1882                      .dwattr DW$310, DW_AT_begin_file("WIDGET\GUI_widget_button.c")
    1883                      .dwattr DW$310, DW_AT_begin_line(0x5f)
    1884                      .dwattr DW$310, DW_AT_end_line(0x62)
    1885              DW$311  .dwtag  DW_TAG_loop_range
    1886                      .dwattr DW$311, DW_AT_low_pc(DW$L$_GUI_button_select_state_display$11$B)
    1887                      .dwattr DW$311, DW_AT_high_pc(DW$L$_GUI_button_select_state_display$11$E)
    1888              DW$312  .dwtag  DW_TAG_loop_range
    1889                      .dwattr DW$312, DW_AT_low_pc(DW$L$_GUI_button_select_state_display$8$B)
    1890                      .dwattr DW$312, DW_AT_high_pc(DW$L$_GUI_button_select_state_display$8$E)
    1891              DW$313  .dwtag  DW_TAG_loop_range
    1892                      .dwattr DW$313, DW_AT_low_pc(DW$L$_GUI_button_select_state_display$9$B)
    1893                      .dwattr DW$313, DW_AT_high_pc(DW$L$_GUI_button_select_state_display$9$E)
    1894              DW$314  .dwtag  DW_TAG_loop_range
TMS320C2000 COFF Assembler PC v4.1.3 Thu Nov 29 16:03:34 2012

Tools Copyright (c) 1996-2006 Texas Instruments Incorporated
C:\DOCUME~1\ADMINI~1\LOCALS~1\Temp\TI9882                            PAGE   37

    1895                      .dwattr DW$314, DW_AT_low_pc(DW$L$_GUI_button_select_state_display$10$B)
    1896                      .dwattr DW$314, DW_AT_high_pc(DW$L$_GUI_button_select_state_display$10$E)
    1897                      .dwendtag DW$310
    1898              
    1899              
    1900              DW$315  .dwtag  DW_TAG_loop
    1901                      .dwattr DW$315, DW_AT_name("C:\DOCUME~1\ADMINI~1\LOCALS~1\Temp\TI9882:L6:1:1354176212")
    1902                      .dwattr DW$315, DW_AT_begin_file("WIDGET\GUI_widget_button.c")
    1903                      .dwattr DW$315, DW_AT_begin_line(0x59)
    1904                      .dwattr DW$315, DW_AT_end_line(0x5c)
    1905              DW$316  .dwtag  DW_TAG_loop_range
    1906                      .dwattr DW$316, DW_AT_low_pc(DW$L$_GUI_button_select_state_display$6$B)
    1907                      .dwattr DW$316, DW_AT_high_pc(DW$L$_GUI_button_select_state_display$6$E)
    1908              DW$317  .dwtag  DW_TAG_loop_range
    1909                      .dwattr DW$317, DW_AT_low_pc(DW$L$_GUI_button_select_state_display$3$B)
    1910                      .dwattr DW$317, DW_AT_high_pc(DW$L$_GUI_button_select_state_display$3$E)
    1911              DW$318  .dwtag  DW_TAG_loop_range
    1912                      .dwattr DW$318, DW_AT_low_pc(DW$L$_GUI_button_select_state_display$4$B)
    1913                      .dwattr DW$318, DW_AT_high_pc(DW$L$_GUI_button_select_state_display$4$E)
    1914              DW$319  .dwtag  DW_TAG_loop_range
    1915                      .dwattr DW$319, DW_AT_low_pc(DW$L$_GUI_button_select_state_display$5$B)
    1916                      .dwattr DW$319, DW_AT_high_pc(DW$L$_GUI_button_select_state_display$5$E)
    1917                      .dwendtag DW$315
    1918              
    1919                      .dwattr DW$292, DW_AT_end_file("WIDGET\GUI_widget_button.c")
    1920                      .dwattr DW$292, DW_AT_end_line(0x72)
    1921                      .dwattr DW$292, DW_AT_end_column(0x01)
    1922                      .dwendentry
    1923                      .dwendtag DW$292
    1924              
    1925 000001b5               .sect   ".text"
    1926              
    1927              DW$320  .dwtag  DW_TAG_subprogram, DW_AT_name("GUI_button_select_cancle"), DW_AT_symbol_name("_GUI_button_sel
    1928                      .dwattr DW$320, DW_AT_low_pc(_GUI_button_select_cancle)
    1929                      .dwattr DW$320, DW_AT_high_pc(0x00)
    1930                      .dwattr DW$320, DW_AT_begin_file("WIDGET\GUI_widget_button.c")
    1931                      .dwattr DW$320, DW_AT_begin_line(0x79)
    1932                      .dwattr DW$320, DW_AT_begin_column(0x0d)
    1933                      .dwpsn  "WIDGET\GUI_widget_button.c",122,1
    1934              
    1935                      .dwfde DW$CIE
    1936              
    1937              ;***************************************************************
    1938              ;* FNAME: _GUI_button_select_cancle     FR SIZE:   4           *
    1939              ;*                                                             *
    1940              ;* FUNCTION ENVIRONMENT                                        *
    1941              ;*                                                             *
    1942              ;* FUNCTION PROPERTIES                                         *
    1943              ;*                            0 Parameter,  4 Auto,  0 SOE     *
    1944              ;***************************************************************
    1945              
    1946              _GUI_button_select_cancle:
    1947                      .dwcfa  0x1d, -2
    1948                      .dwcfa  0x1c, 26, 0
    1949                      .dwcfa  0x09, 40, 26
TMS320C2000 COFF Assembler PC v4.1.3 Thu Nov 29 16:03:34 2012

Tools Copyright (c) 1996-2006 Texas Instruments Incorporated
C:\DOCUME~1\ADMINI~1\LOCALS~1\Temp\TI9882                            PAGE   38

    1950 000001b5 FE04          ADDB      SP,#4
    1951                      .dwcfa  0x1d, -6
    1952              ;* AR4   assigned to _hp
    1953              DW$321  .dwtag  DW_TAG_formal_parameter, DW_AT_name("hp"), DW_AT_symbol_name("_hp")
    1954                      .dwattr DW$321, DW_AT_type(*DW$T$54)
    1955                      .dwattr DW$321, DW_AT_location[DW_OP_reg12]
    1956              DW$322  .dwtag  DW_TAG_variable, DW_AT_name("hp"), DW_AT_symbol_name("_hp")
    1957                      .dwattr DW$322, DW_AT_type(*DW$T$54)
    1958                      .dwattr DW$322, DW_AT_location[DW_OP_breg20 -2]
    1959              DW$323  .dwtag  DW_TAG_variable, DW_AT_name("pbutton"), DW_AT_symbol_name("_pbutton")
    1960                      .dwattr DW$323, DW_AT_type(*DW$T$223)
    1961                      .dwattr DW$323, DW_AT_location[DW_OP_breg20 -4]
    1962 000001b6 A842          MOVL      *-SP[2],XAR4          ; |122| 
    1963                      .dwpsn  "WIDGET\GUI_widget_button.c",124,2
    1964 000001b7 0642          MOVL      ACC,*-SP[2]           ; |124| 
    1965 000001b8 EC0E          BF        L17,EQ                ; |124| 
    1966                      ; branchcc occurs ; |124| 
    1967                      .dwpsn  "WIDGET\GUI_widget_button.c",124,9
    1968                      .dwpsn  "WIDGET\GUI_widget_button.c",125,2
    1969 000001b9 8A42          MOVL      XAR4,*-SP[2]          ; |125| 
    1970 000001ba 7640'         LCR       #_GUI_button_data_obtain ; |125| 
         000001bb 00EB 
    1971                      ; call occurs [#_GUI_button_data_obtain] ; |125| 
    1972 000001bc A844          MOVL      *-SP[4],XAR4          ; |125| 
    1973                      .dwpsn  "WIDGET\GUI_widget_button.c",126,5
    1974 000001bd 8A44          MOVL      XAR4,*-SP[4]          ; |126| 
    1975 000001be D018          MOVB      XAR0,#24              ; |126| 
    1976 000001bf 2B94          MOV       *+XAR4[AR0],#0        ; |126| 
    1977                      .dwpsn  "WIDGET\GUI_widget_button.c",127,2
    1978 000001c0 8A44          MOVL      XAR4,*-SP[4]          ; |127| 
    1979 000001c1 D019          MOVB      XAR0,#25              ; |127| 
    1980 000001c2 9294          MOV       AL,*+XAR4[AR0]        ; |127| 
    1981 000001c3 8A42          MOVL      XAR4,*-SP[2]          ; |127| 
    1982 000001c4 7640'         LCR       #_GUI_button_select_state_display ; |127| 
         000001c5 014C 
    1983                      ; call occurs [#_GUI_button_select_state_display] ; |127| 
    1984                      .dwpsn  "WIDGET\GUI_widget_button.c",128,5
    1985              L17:    
    1986                      .dwpsn  "WIDGET\GUI_widget_button.c",129,1
    1987 000001c6 FE84          SUBB      SP,#4
    1988                      .dwcfa  0x1d, -2
    1989 000001c7 0006          LRETR
    1990                      ; return occurs
    1991                      .dwattr DW$320, DW_AT_end_file("WIDGET\GUI_widget_button.c")
    1992                      .dwattr DW$320, DW_AT_end_line(0x81)
    1993                      .dwattr DW$320, DW_AT_end_column(0x01)
    1994                      .dwendentry
    1995                      .dwendtag DW$320
    1996              
    1997 000001c8               .sect   ".text"
    1998              
    1999              DW$324  .dwtag  DW_TAG_subprogram, DW_AT_name("GUI_button_select"), DW_AT_symbol_name("_GUI_button_select")
    2000                      .dwattr DW$324, DW_AT_low_pc(_GUI_button_select)
    2001                      .dwattr DW$324, DW_AT_high_pc(0x00)
    2002                      .dwattr DW$324, DW_AT_begin_file("WIDGET\GUI_widget_button.c")
TMS320C2000 COFF Assembler PC v4.1.3 Thu Nov 29 16:03:34 2012

Tools Copyright (c) 1996-2006 Texas Instruments Incorporated
C:\DOCUME~1\ADMINI~1\LOCALS~1\Temp\TI9882                            PAGE   39

    2003                      .dwattr DW$324, DW_AT_begin_line(0x88)
    2004                      .dwattr DW$324, DW_AT_begin_column(0x0d)
    2005                      .dwpsn  "WIDGET\GUI_widget_button.c",137,1
    2006              
    2007                      .dwfde DW$CIE
    2008              
    2009              ;***************************************************************
    2010              ;* FNAME: _GUI_button_select            FR SIZE:   4           *
    2011              ;*                                                             *
    2012              ;* FUNCTION ENVIRONMENT                                        *
    2013              ;*                                                             *
    2014              ;* FUNCTION PROPERTIES                                         *
    2015              ;*                            0 Parameter,  4 Auto,  0 SOE     *
    2016              ;***************************************************************
    2017              
    2018              _GUI_button_select:
    2019                      .dwcfa  0x1d, -2
    2020                      .dwcfa  0x1c, 26, 0
    2021                      .dwcfa  0x09, 40, 26
    2022 000001c8 FE04          ADDB      SP,#4
    2023                      .dwcfa  0x1d, -6
    2024              ;* AR4   assigned to _hp
    2025              DW$325  .dwtag  DW_TAG_formal_parameter, DW_AT_name("hp"), DW_AT_symbol_name("_hp")
    2026                      .dwattr DW$325, DW_AT_type(*DW$T$54)
    2027                      .dwattr DW$325, DW_AT_location[DW_OP_reg12]
    2028              DW$326  .dwtag  DW_TAG_variable, DW_AT_name("hp"), DW_AT_symbol_name("_hp")
    2029                      .dwattr DW$326, DW_AT_type(*DW$T$54)
    2030                      .dwattr DW$326, DW_AT_location[DW_OP_breg20 -2]
    2031              DW$327  .dwtag  DW_TAG_variable, DW_AT_name("pbutton"), DW_AT_symbol_name("_pbutton")
    2032                      .dwattr DW$327, DW_AT_type(*DW$T$223)
    2033                      .dwattr DW$327, DW_AT_location[DW_OP_breg20 -4]
    2034 000001c9 A842          MOVL      *-SP[2],XAR4          ; |137| 
    2035                      .dwpsn  "WIDGET\GUI_widget_button.c",139,2
    2036 000001ca 0642          MOVL      ACC,*-SP[2]           ; |139| 
    2037 000001cb EC19          BF        L18,EQ                ; |139| 
    2038                      ; branchcc occurs ; |139| 
    2039                      .dwpsn  "WIDGET\GUI_widget_button.c",139,9
    2040                      .dwpsn  "WIDGET\GUI_widget_button.c",140,2
    2041 000001cc 8A42          MOVL      XAR4,*-SP[2]          ; |140| 
    2042 000001cd CCFC          AND       AL,*+XAR4[7],#0x0100  ; |140| 
         000001ce 0100 
    2043 000001cf 1BA9          CMP       AL,#256               ; |140| 
         000001d0 0100 
    2044 000001d1 ED13          BF        L18,NEQ               ; |140| 
    2045                      ; branchcc occurs ; |140| 
    2046                      .dwpsn  "WIDGET\GUI_widget_button.c",141,3
    2047                      .dwpsn  "WIDGET\GUI_widget_button.c",142,2
    2048 000001d2 8A42          MOVL      XAR4,*-SP[2]          ; |142| 
    2049 000001d3 7640'         LCR       #_GUI_button_data_obtain ; |142| 
         000001d4 00EB 
    2050                      ; call occurs [#_GUI_button_data_obtain] ; |142| 
    2051 000001d5 A844          MOVL      *-SP[4],XAR4          ; |142| 
    2052                      .dwpsn  "WIDGET\GUI_widget_button.c",143,5
    2053 000001d6 8A44          MOVL      XAR4,*-SP[4]          ; |143| 
    2054 000001d7 D018          MOVB      XAR0,#24              ; |143| 
TMS320C2000 COFF Assembler PC v4.1.3 Thu Nov 29 16:03:34 2012

Tools Copyright (c) 1996-2006 Texas Instruments Incorporated
C:\DOCUME~1\ADMINI~1\LOCALS~1\Temp\TI9882                            PAGE   40

    2055 000001d8 2894          MOV       *+XAR4[AR0],#1        ; |143| 
         000001d9 0001 
    2056                      .dwpsn  "WIDGET\GUI_widget_button.c",144,2
    2057 000001da 761F-         MOVW      DP,#_m_GUI_CUR_button
         000001db 0000 
    2058 000001dc 0642          MOVL      ACC,*-SP[2]           ; |144| 
    2059 000001dd 1E1E-         MOVL      @_m_GUI_CUR_button,ACC ; |144| 
    2060                      .dwpsn  "WIDGET\GUI_widget_button.c",145,2
    2061 000001de 8A44          MOVL      XAR4,*-SP[4]          ; |145| 
    2062 000001df D01A          MOVB      XAR0,#26              ; |145| 
    2063 000001e0 9294          MOV       AL,*+XAR4[AR0]        ; |145| 
    2064 000001e1 8A42          MOVL      XAR4,*-SP[2]          ; |145| 
    2065 000001e2 7640'         LCR       #_GUI_button_select_state_display ; |145| 
         000001e3 014C 
    2066                      ; call occurs [#_GUI_button_select_state_display] ; |145| 
    2067                      .dwpsn  "WIDGET\GUI_widget_button.c",146,5
    2068              L18:    
    2069                      .dwpsn  "WIDGET\GUI_widget_button.c",147,1
    2070 000001e4 FE84          SUBB      SP,#4
    2071                      .dwcfa  0x1d, -2
    2072 000001e5 0006          LRETR
    2073                      ; return occurs
    2074                      .dwattr DW$324, DW_AT_end_file("WIDGET\GUI_widget_button.c")
    2075                      .dwattr DW$324, DW_AT_end_line(0x93)
    2076                      .dwattr DW$324, DW_AT_end_column(0x01)
    2077                      .dwendentry
    2078                      .dwendtag DW$324
    2079              
    2080 000001e6               .sect   ".text"
    2081                      .global _GUI_button_assign
    2082              
    2083              DW$328  .dwtag  DW_TAG_subprogram, DW_AT_name("GUI_button_assign"), DW_AT_symbol_name("_GUI_button_assign")
    2084                      .dwattr DW$328, DW_AT_low_pc(_GUI_button_assign)
    2085                      .dwattr DW$328, DW_AT_high_pc(0x00)
    2086                      .dwattr DW$328, DW_AT_begin_file("WIDGET\GUI_widget_button.c")
    2087                      .dwattr DW$328, DW_AT_begin_line(0x95)
    2088                      .dwattr DW$328, DW_AT_begin_column(0x06)
    2089                      .dwpsn  "WIDGET\GUI_widget_button.c",150,1
    2090              
    2091                      .dwfde DW$CIE
    2092              
    2093              ;***************************************************************
    2094              ;* FNAME: _GUI_button_assign            FR SIZE:   2           *
    2095              ;*                                                             *
    2096              ;* FUNCTION ENVIRONMENT                                        *
    2097              ;*                                                             *
    2098              ;* FUNCTION PROPERTIES                                         *
    2099              ;*                            0 Parameter,  2 Auto,  0 SOE     *
    2100              ;***************************************************************
    2101              
    2102              _GUI_button_assign:
    2103                      .dwcfa  0x1d, -2
    2104                      .dwcfa  0x1c, 26, 0
    2105                      .dwcfa  0x09, 40, 26
    2106 000001e6 FE02          ADDB      SP,#2
TMS320C2000 COFF Assembler PC v4.1.3 Thu Nov 29 16:03:34 2012

Tools Copyright (c) 1996-2006 Texas Instruments Incorporated
C:\DOCUME~1\ADMINI~1\LOCALS~1\Temp\TI9882                            PAGE   41

    2107                      .dwcfa  0x1d, -4
    2108              ;* AR4   assigned to _hp
    2109              DW$329  .dwtag  DW_TAG_formal_parameter, DW_AT_name("hp"), DW_AT_symbol_name("_hp")
    2110                      .dwattr DW$329, DW_AT_type(*DW$T$54)
    2111                      .dwattr DW$329, DW_AT_location[DW_OP_reg12]
    2112              DW$330  .dwtag  DW_TAG_variable, DW_AT_name("hp"), DW_AT_symbol_name("_hp")
    2113                      .dwattr DW$330, DW_AT_type(*DW$T$54)
    2114                      .dwattr DW$330, DW_AT_location[DW_OP_breg20 -2]
    2115 000001e7 A842          MOVL      *-SP[2],XAR4          ; |150| 
    2116                      .dwpsn  "WIDGET\GUI_widget_button.c",151,4
    2117 000001e8 761F-         MOVW      DP,#_m_GUI_CUR_button
         000001e9 0000 
    2118 000001ea 8A1E-         MOVL      XAR4,@_m_GUI_CUR_button ; |151| 
    2119 000001eb 7640'         LCR       #_GUI_button_select_cancle ; |151| 
         000001ec 01B5 
    2120                      ; call occurs [#_GUI_button_select_cancle] ; |151| 
    2121                      .dwpsn  "WIDGET\GUI_widget_button.c",152,4
    2122 000001ed 8A42          MOVL      XAR4,*-SP[2]          ; |152| 
    2123 000001ee 7640'         LCR       #_GUI_button_select   ; |152| 
         000001ef 01C8 
    2124                      ; call occurs [#_GUI_button_select] ; |152| 
    2125                      .dwpsn  "WIDGET\GUI_widget_button.c",153,4
    2126 000001f0 0642          MOVL      ACC,*-SP[2]           ; |153| 
    2127 000001f1 761F-         MOVW      DP,#_m_GUI_CUR_button
         000001f2 0000 
    2128 000001f3 1E1E-         MOVL      @_m_GUI_CUR_button,ACC ; |153| 
    2129                      .dwpsn  "WIDGET\GUI_widget_button.c",154,4
    2130                      .dwpsn  "WIDGET\GUI_widget_button.c",155,1
    2131 000001f4 FE82          SUBB      SP,#2
    2132                      .dwcfa  0x1d, -2
    2133 000001f5 0006          LRETR
    2134                      ; return occurs
    2135                      .dwattr DW$328, DW_AT_end_file("WIDGET\GUI_widget_button.c")
    2136                      .dwattr DW$328, DW_AT_end_line(0x9b)
    2137                      .dwattr DW$328, DW_AT_end_column(0x01)
    2138                      .dwendentry
    2139                      .dwendtag DW$328
    2140              
    2141 000001f6               .sect   ".text"
    2142                      .global _GUI_button_assign_first
    2143              
    2144              DW$331  .dwtag  DW_TAG_subprogram, DW_AT_name("GUI_button_assign_first"), DW_AT_symbol_name("_GUI_button_assi
    2145                      .dwattr DW$331, DW_AT_low_pc(_GUI_button_assign_first)
    2146                      .dwattr DW$331, DW_AT_high_pc(0x00)
    2147                      .dwattr DW$331, DW_AT_begin_file("WIDGET\GUI_widget_button.c")
    2148                      .dwattr DW$331, DW_AT_begin_line(0x9d)
    2149                      .dwattr DW$331, DW_AT_begin_column(0x06)
    2150                      .dwpsn  "WIDGET\GUI_widget_button.c",158,1
    2151              
    2152                      .dwfde DW$CIE
    2153              
    2154              ;***************************************************************
    2155              ;* FNAME: _GUI_button_assign_first      FR SIZE:   2           *
    2156              ;*                                                             *
    2157              ;* FUNCTION ENVIRONMENT                                        *
TMS320C2000 COFF Assembler PC v4.1.3 Thu Nov 29 16:03:34 2012

Tools Copyright (c) 1996-2006 Texas Instruments Incorporated
C:\DOCUME~1\ADMINI~1\LOCALS~1\Temp\TI9882                            PAGE   42

    2158              ;*                                                             *
    2159              ;* FUNCTION PROPERTIES                                         *
    2160              ;*                            0 Parameter,  2 Auto,  0 SOE     *
    2161              ;***************************************************************
    2162              
    2163              _GUI_button_assign_first:
    2164                      .dwcfa  0x1d, -2
    2165                      .dwcfa  0x1c, 26, 0
    2166                      .dwcfa  0x09, 40, 26
    2167 000001f6 FE02          ADDB      SP,#2
    2168                      .dwcfa  0x1d, -4
    2169              DW$332  .dwtag  DW_TAG_variable, DW_AT_name("ptemp"), DW_AT_symbol_name("_ptemp")
    2170                      .dwattr DW$332, DW_AT_type(*DW$T$54)
    2171                      .dwattr DW$332, DW_AT_location[DW_OP_breg20 -2]
    2172                      .dwpsn  "WIDGET\GUI_widget_button.c",160,2
    2173 000001f7 761F!         MOVW      DP,#_m_hwin_list_head
         000001f8 0000 
    2174 000001f9 0600!         MOVL      ACC,@_m_hwin_list_head ; |160| 
    2175 000001fa 1E42          MOVL      *-SP[2],ACC           ; |160| 
    2176                      .dwpsn  "WIDGET\GUI_widget_button.c",161,2
    2177 000001fb 0642          MOVL      ACC,*-SP[2]           ; |161| 
    2178 000001fc EC16          BF        L22,EQ                ; |161| 
    2179                      ; branchcc occurs ; |161| 
    2180              L19:    
    2181              DW$L$_GUI_button_assign_first$2$B:
    2182                      .dwpsn  "WIDGET\GUI_widget_button.c",162,3
    2183 000001fd 8A42          MOVL      XAR4,*-SP[2]          ; |162| 
    2184 000001fe D008          MOVB      XAR0,#8               ; |162| 
    2185 000001ff 9294          MOV       AL,*+XAR4[AR0]        ; |162| 
    2186 00000200 5206          CMPB      AL,#6                 ; |162| 
    2187 00000201 ED0B          BF        L20,NEQ               ; |162| 
    2188                      ; branchcc occurs ; |162| 
    2189              DW$L$_GUI_button_assign_first$2$E:
    2190              DW$L$_GUI_button_assign_first$3$B:
    2191                      .dwpsn  "WIDGET\GUI_widget_button.c",164,4
    2192 00000202 8A42          MOVL      XAR4,*-SP[2]          ; |164| 
    2193 00000203 CCFC          AND       AL,*+XAR4[7],#0x0100  ; |164| 
         00000204 0100 
    2194 00000205 1BA9          CMP       AL,#256               ; |164| 
         00000206 0100 
    2195 00000207 ED09          BF        L21,NEQ               ; |164| 
    2196                      ; branchcc occurs ; |164| 
    2197              DW$L$_GUI_button_assign_first$3$E:
    2198                      .dwpsn  "WIDGET\GUI_widget_button.c",165,5
    2199                      .dwpsn  "WIDGET\GUI_widget_button.c",166,4
    2200 00000208 8A42          MOVL      XAR4,*-SP[2]          ; |166| 
    2201 00000209 7640'         LCR       #_GUI_button_assign   ; |166| 
         0000020a 01E6 
    2202                      ; call occurs [#_GUI_button_assign] ; |166| 
    2203                      .dwpsn  "WIDGET\GUI_widget_button.c",167,4
    2204 0000020b 6F07          B         L22,UNC               ; |167| 
    2205                      ; branch occurs ; |167| 
    2206              L20:    
    2207              DW$L$_GUI_button_assign_first$5$B:
    2208                      .dwpsn  "WIDGET\GUI_widget_button.c",168,3
TMS320C2000 COFF Assembler PC v4.1.3 Thu Nov 29 16:03:34 2012

Tools Copyright (c) 1996-2006 Texas Instruments Incorporated
C:\DOCUME~1\ADMINI~1\LOCALS~1\Temp\TI9882                            PAGE   43

    2209 0000020c 8A42          MOVL      XAR4,*-SP[2]          ; |168| 
    2210 0000020d D00C          MOVB      XAR0,#12              ; |168| 
    2211 0000020e 0694          MOVL      ACC,*+XAR4[AR0]       ; |168| 
    2212 0000020f 1E42          MOVL      *-SP[2],ACC           ; |168| 
    2213              DW$L$_GUI_button_assign_first$5$E:
    2214              L21:    
    2215              DW$L$_GUI_button_assign_first$6$B:
    2216                      .dwpsn  "WIDGET\GUI_widget_button.c",168,28
    2217 00000210 0642          MOVL      ACC,*-SP[2]           ; |168| 
    2218 00000211 EDEC          BF        L19,NEQ               ; |168| 
    2219                      ; branchcc occurs ; |168| 
    2220              DW$L$_GUI_button_assign_first$6$E:
    2221                      .dwpsn  "WIDGET\GUI_widget_button.c",169,2
    2222              L22:    
    2223                      .dwpsn  "WIDGET\GUI_widget_button.c",170,1
    2224 00000212 FE82          SUBB      SP,#2
    2225                      .dwcfa  0x1d, -2
    2226 00000213 0006          LRETR
    2227                      ; return occurs
    2228              
    2229              DW$333  .dwtag  DW_TAG_loop
    2230                      .dwattr DW$333, DW_AT_name("C:\DOCUME~1\ADMINI~1\LOCALS~1\Temp\TI9882:L19:1:1354176212")
    2231                      .dwattr DW$333, DW_AT_begin_file("WIDGET\GUI_widget_button.c")
    2232                      .dwattr DW$333, DW_AT_begin_line(0xa1)
    2233                      .dwattr DW$333, DW_AT_end_line(0xa8)
    2234              DW$334  .dwtag  DW_TAG_loop_range
    2235                      .dwattr DW$334, DW_AT_low_pc(DW$L$_GUI_button_assign_first$2$B)
    2236                      .dwattr DW$334, DW_AT_high_pc(DW$L$_GUI_button_assign_first$2$E)
    2237              DW$335  .dwtag  DW_TAG_loop_range
    2238                      .dwattr DW$335, DW_AT_low_pc(DW$L$_GUI_button_assign_first$3$B)
    2239                      .dwattr DW$335, DW_AT_high_pc(DW$L$_GUI_button_assign_first$3$E)
    2240              DW$336  .dwtag  DW_TAG_loop_range
    2241                      .dwattr DW$336, DW_AT_low_pc(DW$L$_GUI_button_assign_first$5$B)
    2242                      .dwattr DW$336, DW_AT_high_pc(DW$L$_GUI_button_assign_first$5$E)
    2243              DW$337  .dwtag  DW_TAG_loop_range
    2244                      .dwattr DW$337, DW_AT_low_pc(DW$L$_GUI_button_assign_first$6$B)
    2245                      .dwattr DW$337, DW_AT_high_pc(DW$L$_GUI_button_assign_first$6$E)
    2246                      .dwendtag DW$333
    2247              
    2248                      .dwattr DW$331, DW_AT_end_file("WIDGET\GUI_widget_button.c")
    2249                      .dwattr DW$331, DW_AT_end_line(0xaa)
    2250                      .dwattr DW$331, DW_AT_end_column(0x01)
    2251                      .dwendentry
    2252                      .dwendtag DW$331
    2253              
    2254 00000214               .sect   ".text"
    2255                      .global _GUI_button_assign_end
    2256              
    2257              DW$338  .dwtag  DW_TAG_subprogram, DW_AT_name("GUI_button_assign_end"), DW_AT_symbol_name("_GUI_button_assign
    2258                      .dwattr DW$338, DW_AT_low_pc(_GUI_button_assign_end)
    2259                      .dwattr DW$338, DW_AT_high_pc(0x00)
    2260                      .dwattr DW$338, DW_AT_begin_file("WIDGET\GUI_widget_button.c")
    2261                      .dwattr DW$338, DW_AT_begin_line(0xac)
    2262                      .dwattr DW$338, DW_AT_begin_column(0x06)
    2263                      .dwpsn  "WIDGET\GUI_widget_button.c",173,1
TMS320C2000 COFF Assembler PC v4.1.3 Thu Nov 29 16:03:34 2012

Tools Copyright (c) 1996-2006 Texas Instruments Incorporated
C:\DOCUME~1\ADMINI~1\LOCALS~1\Temp\TI9882                            PAGE   44

    2264              
    2265                      .dwfde DW$CIE
    2266              
    2267              ;***************************************************************
    2268              ;* FNAME: _GUI_button_assign_end        FR SIZE:   2           *
    2269              ;*                                                             *
    2270              ;* FUNCTION ENVIRONMENT                                        *
    2271              ;*                                                             *
    2272              ;* FUNCTION PROPERTIES                                         *
    2273              ;*                            0 Parameter,  2 Auto,  0 SOE     *
    2274              ;***************************************************************
    2275              
    2276              _GUI_button_assign_end:
    2277                      .dwcfa  0x1d, -2
    2278                      .dwcfa  0x1c, 26, 0
    2279                      .dwcfa  0x09, 40, 26
    2280 00000214 FE02          ADDB      SP,#2
    2281                      .dwcfa  0x1d, -4
    2282              DW$339  .dwtag  DW_TAG_variable, DW_AT_name("ptemp"), DW_AT_symbol_name("_ptemp")
    2283                      .dwattr DW$339, DW_AT_type(*DW$T$54)
    2284                      .dwattr DW$339, DW_AT_location[DW_OP_breg20 -2]
    2285                      .dwpsn  "WIDGET\GUI_widget_button.c",175,2
    2286 00000215 761F!         MOVW      DP,#_m_hwin_list_end
         00000216 0000 
    2287 00000217 0600!         MOVL      ACC,@_m_hwin_list_end ; |175| 
    2288 00000218 1E42          MOVL      *-SP[2],ACC           ; |175| 
    2289                      .dwpsn  "WIDGET\GUI_widget_button.c",176,2
    2290 00000219 0642          MOVL      ACC,*-SP[2]           ; |176| 
    2291 0000021a EC16          BF        L26,EQ                ; |176| 
    2292                      ; branchcc occurs ; |176| 
    2293              L23:    
    2294              DW$L$_GUI_button_assign_end$2$B:
    2295                      .dwpsn  "WIDGET\GUI_widget_button.c",177,2
    2296 0000021b 8A42          MOVL      XAR4,*-SP[2]          ; |177| 
    2297 0000021c D008          MOVB      XAR0,#8               ; |177| 
    2298 0000021d 9294          MOV       AL,*+XAR4[AR0]        ; |177| 
    2299 0000021e 5206          CMPB      AL,#6                 ; |177| 
    2300 0000021f ED0B          BF        L24,NEQ               ; |177| 
    2301                      ; branchcc occurs ; |177| 
    2302              DW$L$_GUI_button_assign_end$2$E:
    2303              DW$L$_GUI_button_assign_end$3$B:
    2304                      .dwpsn  "WIDGET\GUI_widget_button.c",178,3
    2305 00000220 8A42          MOVL      XAR4,*-SP[2]          ; |178| 
    2306 00000221 CCFC          AND       AL,*+XAR4[7],#0x0100  ; |178| 
         00000222 0100 
    2307 00000223 1BA9          CMP       AL,#256               ; |178| 
         00000224 0100 
    2308 00000225 ED09          BF        L25,NEQ               ; |178| 
    2309                      ; branchcc occurs ; |178| 
    2310              DW$L$_GUI_button_assign_end$3$E:
    2311                      .dwpsn  "WIDGET\GUI_widget_button.c",179,4
    2312                      .dwpsn  "WIDGET\GUI_widget_button.c",180,3
    2313 00000226 8A42          MOVL      XAR4,*-SP[2]          ; |180| 
    2314 00000227 7640'         LCR       #_GUI_button_assign   ; |180| 
         00000228 01E6 
TMS320C2000 COFF Assembler PC v4.1.3 Thu Nov 29 16:03:34 2012

Tools Copyright (c) 1996-2006 Texas Instruments Incorporated
C:\DOCUME~1\ADMINI~1\LOCALS~1\Temp\TI9882                            PAGE   45

    2315                      ; call occurs [#_GUI_button_assign] ; |180| 
    2316                      .dwpsn  "WIDGET\GUI_widget_button.c",181,3
    2317 00000229 6F07          B         L26,UNC               ; |181| 
    2318                      ; branch occurs ; |181| 
    2319              L24:    
    2320              DW$L$_GUI_button_assign_end$5$B:
    2321                      .dwpsn  "WIDGET\GUI_widget_button.c",183,3
    2322 0000022a 8A42          MOVL      XAR4,*-SP[2]          ; |183| 
    2323 0000022b D00E          MOVB      XAR0,#14              ; |183| 
    2324 0000022c 0694          MOVL      ACC,*+XAR4[AR0]       ; |183| 
    2325 0000022d 1E42          MOVL      *-SP[2],ACC           ; |183| 
    2326              DW$L$_GUI_button_assign_end$5$E:
    2327              L25:    
    2328              DW$L$_GUI_button_assign_end$6$B:
    2329                      .dwpsn  "WIDGET\GUI_widget_button.c",184,2
    2330 0000022e 0642          MOVL      ACC,*-SP[2]           ; |184| 
    2331 0000022f EDEC          BF        L23,NEQ               ; |184| 
    2332                      ; branchcc occurs ; |184| 
    2333              DW$L$_GUI_button_assign_end$6$E:
    2334                      .dwpsn  "WIDGET\GUI_widget_button.c",185,2
    2335              L26:    
    2336                      .dwpsn  "WIDGET\GUI_widget_button.c",186,1
    2337 00000230 FE82          SUBB      SP,#2
    2338                      .dwcfa  0x1d, -2
    2339 00000231 0006          LRETR
    2340                      ; return occurs
    2341              
    2342              DW$340  .dwtag  DW_TAG_loop
    2343                      .dwattr DW$340, DW_AT_name("C:\DOCUME~1\ADMINI~1\LOCALS~1\Temp\TI9882:L23:1:1354176212")
    2344                      .dwattr DW$340, DW_AT_begin_file("WIDGET\GUI_widget_button.c")
    2345                      .dwattr DW$340, DW_AT_begin_line(0xb0)
    2346                      .dwattr DW$340, DW_AT_end_line(0xb8)
    2347              DW$341  .dwtag  DW_TAG_loop_range
    2348                      .dwattr DW$341, DW_AT_low_pc(DW$L$_GUI_button_assign_end$2$B)
    2349                      .dwattr DW$341, DW_AT_high_pc(DW$L$_GUI_button_assign_end$2$E)
    2350              DW$342  .dwtag  DW_TAG_loop_range
    2351                      .dwattr DW$342, DW_AT_low_pc(DW$L$_GUI_button_assign_end$3$B)
    2352                      .dwattr DW$342, DW_AT_high_pc(DW$L$_GUI_button_assign_end$3$E)
    2353              DW$343  .dwtag  DW_TAG_loop_range
    2354                      .dwattr DW$343, DW_AT_low_pc(DW$L$_GUI_button_assign_end$5$B)
    2355                      .dwattr DW$343, DW_AT_high_pc(DW$L$_GUI_button_assign_end$5$E)
    2356              DW$344  .dwtag  DW_TAG_loop_range
    2357                      .dwattr DW$344, DW_AT_low_pc(DW$L$_GUI_button_assign_end$6$B)
    2358                      .dwattr DW$344, DW_AT_high_pc(DW$L$_GUI_button_assign_end$6$E)
    2359                      .dwendtag DW$340
    2360              
    2361                      .dwattr DW$338, DW_AT_end_file("WIDGET\GUI_widget_button.c")
    2362                      .dwattr DW$338, DW_AT_end_line(0xba)
    2363                      .dwattr DW$338, DW_AT_end_column(0x01)
    2364                      .dwendentry
    2365                      .dwendtag DW$338
    2366              
    2367 00000232               .sect   ".text"
    2368                      .global _GUI_button_select_next
    2369              
TMS320C2000 COFF Assembler PC v4.1.3 Thu Nov 29 16:03:34 2012

Tools Copyright (c) 1996-2006 Texas Instruments Incorporated
C:\DOCUME~1\ADMINI~1\LOCALS~1\Temp\TI9882                            PAGE   46

    2370              DW$345  .dwtag  DW_TAG_subprogram, DW_AT_name("GUI_button_select_next"), DW_AT_symbol_name("_GUI_button_selec
    2371                      .dwattr DW$345, DW_AT_low_pc(_GUI_button_select_next)
    2372                      .dwattr DW$345, DW_AT_high_pc(0x00)
    2373                      .dwattr DW$345, DW_AT_begin_file("WIDGET\GUI_widget_button.c")
    2374                      .dwattr DW$345, DW_AT_begin_line(0xbc)
    2375                      .dwattr DW$345, DW_AT_begin_column(0x06)
    2376                      .dwpsn  "WIDGET\GUI_widget_button.c",189,1
    2377              
    2378                      .dwfde DW$CIE
    2379              
    2380              ;***************************************************************
    2381              ;* FNAME: _GUI_button_select_next       FR SIZE:   2           *
    2382              ;*                                                             *
    2383              ;* FUNCTION ENVIRONMENT                                        *
    2384              ;*                                                             *
    2385              ;* FUNCTION PROPERTIES                                         *
    2386              ;*                            0 Parameter,  2 Auto,  0 SOE     *
    2387              ;***************************************************************
    2388              
    2389              _GUI_button_select_next:
    2390                      .dwcfa  0x1d, -2
    2391                      .dwcfa  0x1c, 26, 0
    2392                      .dwcfa  0x09, 40, 26
    2393 00000232 FE02          ADDB      SP,#2
    2394                      .dwcfa  0x1d, -4
    2395              DW$346  .dwtag  DW_TAG_variable, DW_AT_name("ptemp"), DW_AT_symbol_name("_ptemp")
    2396                      .dwattr DW$346, DW_AT_type(*DW$T$54)
    2397                      .dwattr DW$346, DW_AT_location[DW_OP_breg20 -2]
    2398                      .dwpsn  "WIDGET\GUI_widget_button.c",191,2
    2399 00000233 761F!         MOVW      DP,#_m_hwin_list_head
         00000234 0000 
    2400 00000235 0600!         MOVL      ACC,@_m_hwin_list_head ; |191| 
    2401 00000236 1E42          MOVL      *-SP[2],ACC           ; |191| 
    2402                      .dwpsn  "WIDGET\GUI_widget_button.c",193,2
    2403 00000237 0642          MOVL      ACC,*-SP[2]           ; |193| 
    2404 00000238 EC0D          BF        L28,EQ                ; |193| 
    2405                      ; branchcc occurs ; |193| 
    2406              L27:    
    2407              DW$L$_GUI_button_select_next$2$B:
    2408                      .dwpsn  "WIDGET\GUI_widget_button.c",195,6
    2409 00000239 761F-         MOVW      DP,#_m_GUI_CUR_button
         0000023a 0000 
    2410 0000023b C41E-         MOVL      XAR6,@_m_GUI_CUR_button ; |195| 
    2411 0000023c 0642          MOVL      ACC,*-SP[2]           ; |195| 
    2412 0000023d 0FA6          CMPL      ACC,XAR6              ; |195| 
    2413 0000023e EC07          BF        L28,EQ                ; |195| 
    2414                      ; branchcc occurs ; |195| 
    2415              DW$L$_GUI_button_select_next$2$E:
    2416              DW$L$_GUI_button_select_next$3$B:
    2417                      .dwpsn  "WIDGET\GUI_widget_button.c",197,4
    2418                      .dwpsn  "WIDGET\GUI_widget_button.c",199,3
    2419 0000023f 8A42          MOVL      XAR4,*-SP[2]          ; |199| 
    2420 00000240 D00C          MOVB      XAR0,#12              ; |199| 
    2421 00000241 0694          MOVL      ACC,*+XAR4[AR0]       ; |199| 
    2422 00000242 1E42          MOVL      *-SP[2],ACC           ; |199| 
TMS320C2000 COFF Assembler PC v4.1.3 Thu Nov 29 16:03:34 2012

Tools Copyright (c) 1996-2006 Texas Instruments Incorporated
C:\DOCUME~1\ADMINI~1\LOCALS~1\Temp\TI9882                            PAGE   47

    2423                      .dwpsn  "WIDGET\GUI_widget_button.c",200,2
    2424 00000243 0642          MOVL      ACC,*-SP[2]           ; |200| 
    2425 00000244 EDF5          BF        L27,NEQ               ; |200| 
    2426                      ; branchcc occurs ; |200| 
    2427              DW$L$_GUI_button_select_next$3$E:
    2428              L28:    
    2429                      .dwpsn  "WIDGET\GUI_widget_button.c",201,2
    2430 00000245 0642          MOVL      ACC,*-SP[2]           ; |201| 
    2431 00000246 EC1C          BF        L32,EQ                ; |201| 
    2432                      ; branchcc occurs ; |201| 
    2433              L29:    
    2434              DW$L$_GUI_button_select_next$5$B:
    2435                      .dwpsn  "WIDGET\GUI_widget_button.c",203,3
    2436 00000247 8A42          MOVL      XAR4,*-SP[2]          ; |203| 
    2437 00000248 D008          MOVB      XAR0,#8               ; |203| 
    2438 00000249 9294          MOV       AL,*+XAR4[AR0]        ; |203| 
    2439 0000024a 5206          CMPB      AL,#6                 ; |203| 
    2440 0000024b ED11          BF        L30,NEQ               ; |203| 
    2441                      ; branchcc occurs ; |203| 
    2442              DW$L$_GUI_button_select_next$5$E:
    2443              DW$L$_GUI_button_select_next$6$B:
    2444                      .dwpsn  "WIDGET\GUI_widget_button.c",205,4
    2445 0000024c 8A42          MOVL      XAR4,*-SP[2]          ; |205| 
    2446 0000024d CCFC          AND       AL,*+XAR4[7],#0x0100  ; |205| 
         0000024e 0100 
    2447 0000024f 1BA9          CMP       AL,#256               ; |205| 
         00000250 0100 
    2448 00000251 ED0F          BF        L31,NEQ               ; |205| 
    2449                      ; branchcc occurs ; |205| 
    2450              DW$L$_GUI_button_select_next$6$E:
    2451              DW$L$_GUI_button_select_next$7$B:
    2452                      .dwpsn  "WIDGET\GUI_widget_button.c",206,5
    2453                      .dwpsn  "WIDGET\GUI_widget_button.c",207,7
    2454 00000252 761F-         MOVW      DP,#_m_GUI_CUR_button
         00000253 0000 
    2455 00000254 C41E-         MOVL      XAR6,@_m_GUI_CUR_button ; |207| 
    2456 00000255 0642          MOVL      ACC,*-SP[2]           ; |207| 
    2457 00000256 0FA6          CMPL      ACC,XAR6              ; |207| 
    2458 00000257 EC05          BF        L30,EQ                ; |207| 
    2459                      ; branchcc occurs ; |207| 
    2460              DW$L$_GUI_button_select_next$7$E:
    2461                      .dwpsn  "WIDGET\GUI_widget_button.c",209,5
    2462 00000258 8A42          MOVL      XAR4,*-SP[2]          ; |209| 
    2463 00000259 7640'         LCR       #_GUI_button_assign   ; |209| 
         0000025a 01E6 
    2464                      ; call occurs [#_GUI_button_assign] ; |209| 
    2465                      .dwpsn  "WIDGET\GUI_widget_button.c",210,5
    2466 0000025b 6F07          B         L32,UNC               ; |210| 
    2467                      ; branch occurs ; |210| 
    2468              L30:    
    2469              DW$L$_GUI_button_select_next$9$B:
    2470                      .dwpsn  "WIDGET\GUI_widget_button.c",213,3
    2471 0000025c 8A42          MOVL      XAR4,*-SP[2]          ; |213| 
    2472 0000025d D00C          MOVB      XAR0,#12              ; |213| 
    2473 0000025e 0694          MOVL      ACC,*+XAR4[AR0]       ; |213| 
TMS320C2000 COFF Assembler PC v4.1.3 Thu Nov 29 16:03:34 2012

Tools Copyright (c) 1996-2006 Texas Instruments Incorporated
C:\DOCUME~1\ADMINI~1\LOCALS~1\Temp\TI9882                            PAGE   48

    2474 0000025f 1E42          MOVL      *-SP[2],ACC           ; |213| 
    2475              DW$L$_GUI_button_select_next$9$E:
    2476              L31:    
    2477              DW$L$_GUI_button_select_next$10$B:
    2478                      .dwpsn  "WIDGET\GUI_widget_button.c",214,2
    2479 00000260 0642          MOVL      ACC,*-SP[2]           ; |214| 
    2480 00000261 EDE6          BF        L29,NEQ               ; |214| 
    2481                      ; branchcc occurs ; |214| 
    2482              DW$L$_GUI_button_select_next$10$E:
    2483              L32:    
    2484                      .dwpsn  "WIDGET\GUI_widget_button.c",215,2
    2485 00000262 0642          MOVL      ACC,*-SP[2]           ; |215| 
    2486 00000263 ED03          BF        L33,NEQ               ; |215| 
    2487                      ; branchcc occurs ; |215| 
    2488                      .dwpsn  "WIDGET\GUI_widget_button.c",215,12
    2489 00000264 7640'         LCR       #_GUI_button_assign_first ; |215| 
         00000265 01F6 
    2490                      ; call occurs [#_GUI_button_assign_first] ; |215| 
    2491                      .dwpsn  "WIDGET\GUI_widget_button.c",216,2
    2492              L33:    
    2493                      .dwpsn  "WIDGET\GUI_widget_button.c",217,1
    2494 00000266 FE82          SUBB      SP,#2
    2495                      .dwcfa  0x1d, -2
    2496 00000267 0006          LRETR
    2497                      ; return occurs
    2498              
    2499              DW$347  .dwtag  DW_TAG_loop
    2500                      .dwattr DW$347, DW_AT_name("C:\DOCUME~1\ADMINI~1\LOCALS~1\Temp\TI9882:L29:1:1354176212")
    2501                      .dwattr DW$347, DW_AT_begin_file("WIDGET\GUI_widget_button.c")
    2502                      .dwattr DW$347, DW_AT_begin_line(0xc9)
    2503                      .dwattr DW$347, DW_AT_end_line(0xd6)
    2504              DW$348  .dwtag  DW_TAG_loop_range
    2505                      .dwattr DW$348, DW_AT_low_pc(DW$L$_GUI_button_select_next$5$B)
    2506                      .dwattr DW$348, DW_AT_high_pc(DW$L$_GUI_button_select_next$5$E)
    2507              DW$349  .dwtag  DW_TAG_loop_range
    2508                      .dwattr DW$349, DW_AT_low_pc(DW$L$_GUI_button_select_next$7$B)
    2509                      .dwattr DW$349, DW_AT_high_pc(DW$L$_GUI_button_select_next$7$E)
    2510              DW$350  .dwtag  DW_TAG_loop_range
    2511                      .dwattr DW$350, DW_AT_low_pc(DW$L$_GUI_button_select_next$6$B)
    2512                      .dwattr DW$350, DW_AT_high_pc(DW$L$_GUI_button_select_next$6$E)
    2513              DW$351  .dwtag  DW_TAG_loop_range
    2514                      .dwattr DW$351, DW_AT_low_pc(DW$L$_GUI_button_select_next$9$B)
    2515                      .dwattr DW$351, DW_AT_high_pc(DW$L$_GUI_button_select_next$9$E)
    2516              DW$352  .dwtag  DW_TAG_loop_range
    2517                      .dwattr DW$352, DW_AT_low_pc(DW$L$_GUI_button_select_next$10$B)
    2518                      .dwattr DW$352, DW_AT_high_pc(DW$L$_GUI_button_select_next$10$E)
    2519                      .dwendtag DW$347
    2520              
    2521              
    2522              DW$353  .dwtag  DW_TAG_loop
    2523                      .dwattr DW$353, DW_AT_name("C:\DOCUME~1\ADMINI~1\LOCALS~1\Temp\TI9882:L27:1:1354176212")
    2524                      .dwattr DW$353, DW_AT_begin_file("WIDGET\GUI_widget_button.c")
    2525                      .dwattr DW$353, DW_AT_begin_line(0xc1)
    2526                      .dwattr DW$353, DW_AT_end_line(0xc8)
    2527              DW$354  .dwtag  DW_TAG_loop_range
TMS320C2000 COFF Assembler PC v4.1.3 Thu Nov 29 16:03:34 2012

Tools Copyright (c) 1996-2006 Texas Instruments Incorporated
C:\DOCUME~1\ADMINI~1\LOCALS~1\Temp\TI9882                            PAGE   49

    2528                      .dwattr DW$354, DW_AT_low_pc(DW$L$_GUI_button_select_next$2$B)
    2529                      .dwattr DW$354, DW_AT_high_pc(DW$L$_GUI_button_select_next$2$E)
    2530              DW$355  .dwtag  DW_TAG_loop_range
    2531                      .dwattr DW$355, DW_AT_low_pc(DW$L$_GUI_button_select_next$3$B)
    2532                      .dwattr DW$355, DW_AT_high_pc(DW$L$_GUI_button_select_next$3$E)
    2533                      .dwendtag DW$353
    2534              
    2535                      .dwattr DW$345, DW_AT_end_file("WIDGET\GUI_widget_button.c")
    2536                      .dwattr DW$345, DW_AT_end_line(0xd9)
    2537                      .dwattr DW$345, DW_AT_end_column(0x01)
    2538                      .dwendentry
    2539                      .dwendtag DW$345
    2540              
    2541 00000268               .sect   ".text"
    2542                      .global _GUI_button_select_last
    2543              
    2544              DW$356  .dwtag  DW_TAG_subprogram, DW_AT_name("GUI_button_select_last"), DW_AT_symbol_name("_GUI_button_selec
    2545                      .dwattr DW$356, DW_AT_low_pc(_GUI_button_select_last)
    2546                      .dwattr DW$356, DW_AT_high_pc(0x00)
    2547                      .dwattr DW$356, DW_AT_begin_file("WIDGET\GUI_widget_button.c")
    2548                      .dwattr DW$356, DW_AT_begin_line(0xdb)
    2549                      .dwattr DW$356, DW_AT_begin_column(0x06)
    2550                      .dwpsn  "WIDGET\GUI_widget_button.c",220,1
    2551              
    2552                      .dwfde DW$CIE
    2553              
    2554              ;***************************************************************
    2555              ;* FNAME: _GUI_button_select_last       FR SIZE:   2           *
    2556              ;*                                                             *
    2557              ;* FUNCTION ENVIRONMENT                                        *
    2558              ;*                                                             *
    2559              ;* FUNCTION PROPERTIES                                         *
    2560              ;*                            0 Parameter,  2 Auto,  0 SOE     *
    2561              ;***************************************************************
    2562              
    2563              _GUI_button_select_last:
    2564                      .dwcfa  0x1d, -2
    2565                      .dwcfa  0x1c, 26, 0
    2566                      .dwcfa  0x09, 40, 26
    2567 00000268 FE02          ADDB      SP,#2
    2568                      .dwcfa  0x1d, -4
    2569              DW$357  .dwtag  DW_TAG_variable, DW_AT_name("ptemp"), DW_AT_symbol_name("_ptemp")
    2570                      .dwattr DW$357, DW_AT_type(*DW$T$54)
    2571                      .dwattr DW$357, DW_AT_location[DW_OP_breg20 -2]
    2572                      .dwpsn  "WIDGET\GUI_widget_button.c",222,2
    2573 00000269 761F!         MOVW      DP,#_m_hwin_list_head
         0000026a 0000 
    2574 0000026b 0600!         MOVL      ACC,@_m_hwin_list_head ; |222| 
    2575 0000026c 1E42          MOVL      *-SP[2],ACC           ; |222| 
    2576                      .dwpsn  "WIDGET\GUI_widget_button.c",223,2
    2577 0000026d 0642          MOVL      ACC,*-SP[2]           ; |223| 
    2578 0000026e EC0D          BF        L35,EQ                ; |223| 
    2579                      ; branchcc occurs ; |223| 
    2580              L34:    
    2581              DW$L$_GUI_button_select_last$2$B:
TMS320C2000 COFF Assembler PC v4.1.3 Thu Nov 29 16:03:34 2012

Tools Copyright (c) 1996-2006 Texas Instruments Incorporated
C:\DOCUME~1\ADMINI~1\LOCALS~1\Temp\TI9882                            PAGE   50

    2582                      .dwpsn  "WIDGET\GUI_widget_button.c",224,6
    2583 0000026f 761F-         MOVW      DP,#_m_GUI_CUR_button
         00000270 0000 
    2584 00000271 C41E-         MOVL      XAR6,@_m_GUI_CUR_button ; |224| 
    2585 00000272 0642          MOVL      ACC,*-SP[2]           ; |224| 
    2586 00000273 0FA6          CMPL      ACC,XAR6              ; |224| 
    2587 00000274 EC07          BF        L35,EQ                ; |224| 
    2588                      ; branchcc occurs ; |224| 
    2589              DW$L$_GUI_button_select_last$2$E:
    2590              DW$L$_GUI_button_select_last$3$B:
    2591                      .dwpsn  "WIDGET\GUI_widget_button.c",224,34
    2592                      .dwpsn  "WIDGET\GUI_widget_button.c",225,3
    2593 00000275 8A42          MOVL      XAR4,*-SP[2]          ; |225| 
    2594 00000276 D00C          MOVB      XAR0,#12              ; |225| 
    2595 00000277 0694          MOVL      ACC,*+XAR4[AR0]       ; |225| 
    2596 00000278 1E42          MOVL      *-SP[2],ACC           ; |225| 
    2597                      .dwpsn  "WIDGET\GUI_widget_button.c",226,2
    2598 00000279 0642          MOVL      ACC,*-SP[2]           ; |226| 
    2599 0000027a EDF5          BF        L34,NEQ               ; |226| 
    2600                      ; branchcc occurs ; |226| 
    2601              DW$L$_GUI_button_select_last$3$E:
    2602              L35:    
    2603                      .dwpsn  "WIDGET\GUI_widget_button.c",227,2
    2604 0000027b 0642          MOVL      ACC,*-SP[2]           ; |227| 
    2605 0000027c EC1C          BF        L39,EQ                ; |227| 
    2606                      ; branchcc occurs ; |227| 
    2607              L36:    
    2608              DW$L$_GUI_button_select_last$5$B:
    2609                      .dwpsn  "WIDGET\GUI_widget_button.c",228,3
    2610 0000027d 8A42          MOVL      XAR4,*-SP[2]          ; |228| 
    2611 0000027e D008          MOVB      XAR0,#8               ; |228| 
    2612 0000027f 9294          MOV       AL,*+XAR4[AR0]        ; |228| 
    2613 00000280 5206          CMPB      AL,#6                 ; |228| 
    2614 00000281 ED11          BF        L37,NEQ               ; |228| 
    2615                      ; branchcc occurs ; |228| 
    2616              DW$L$_GUI_button_select_last$5$E:
    2617              DW$L$_GUI_button_select_last$6$B:
    2618                      .dwpsn  "WIDGET\GUI_widget_button.c",229,4
    2619 00000282 8A42          MOVL      XAR4,*-SP[2]          ; |229| 
    2620 00000283 CCFC          AND       AL,*+XAR4[7],#0x0100  ; |229| 
         00000284 0100 
    2621 00000285 1BA9          CMP       AL,#256               ; |229| 
         00000286 0100 
    2622 00000287 ED0F          BF        L38,NEQ               ; |229| 
    2623                      ; branchcc occurs ; |229| 
    2624              DW$L$_GUI_button_select_last$6$E:
    2625              DW$L$_GUI_button_select_last$7$B:
    2626                      .dwpsn  "WIDGET\GUI_widget_button.c",230,5
    2627                      .dwpsn  "WIDGET\GUI_widget_button.c",231,7
    2628 00000288 761F-         MOVW      DP,#_m_GUI_CUR_button
         00000289 0000 
    2629 0000028a C41E-         MOVL      XAR6,@_m_GUI_CUR_button ; |231| 
    2630 0000028b 0642          MOVL      ACC,*-SP[2]           ; |231| 
    2631 0000028c 0FA6          CMPL      ACC,XAR6              ; |231| 
    2632 0000028d EC05          BF        L37,EQ                ; |231| 
TMS320C2000 COFF Assembler PC v4.1.3 Thu Nov 29 16:03:34 2012

Tools Copyright (c) 1996-2006 Texas Instruments Incorporated
C:\DOCUME~1\ADMINI~1\LOCALS~1\Temp\TI9882                            PAGE   51

    2633                      ; branchcc occurs ; |231| 
    2634              DW$L$_GUI_button_select_last$7$E:
    2635                      .dwpsn  "WIDGET\GUI_widget_button.c",232,5
    2636 0000028e 8A42          MOVL      XAR4,*-SP[2]          ; |232| 
    2637 0000028f 7640'         LCR       #_GUI_button_assign   ; |232| 
         00000290 01E6 
    2638                      ; call occurs [#_GUI_button_assign] ; |232| 
    2639                      .dwpsn  "WIDGET\GUI_widget_button.c",233,5
    2640 00000291 6F07          B         L39,UNC               ; |233| 
    2641                      ; branch occurs ; |233| 
    2642              L37:    
    2643              DW$L$_GUI_button_select_last$9$B:
    2644                      .dwpsn  "WIDGET\GUI_widget_button.c",236,3
    2645 00000292 8A42          MOVL      XAR4,*-SP[2]          ; |236| 
    2646 00000293 D00E          MOVB      XAR0,#14              ; |236| 
    2647 00000294 0694          MOVL      ACC,*+XAR4[AR0]       ; |236| 
    2648 00000295 1E42          MOVL      *-SP[2],ACC           ; |236| 
    2649              DW$L$_GUI_button_select_last$9$E:
    2650              L38:    
    2651              DW$L$_GUI_button_select_last$10$B:
    2652                      .dwpsn  "WIDGET\GUI_widget_button.c",237,2
    2653 00000296 0642          MOVL      ACC,*-SP[2]           ; |237| 
    2654 00000297 EDE6          BF        L36,NEQ               ; |237| 
    2655                      ; branchcc occurs ; |237| 
    2656              DW$L$_GUI_button_select_last$10$E:
    2657              L39:    
    2658                      .dwpsn  "WIDGET\GUI_widget_button.c",238,2
    2659 00000298 0642          MOVL      ACC,*-SP[2]           ; |238| 
    2660 00000299 ED03          BF        L40,NEQ               ; |238| 
    2661                      ; branchcc occurs ; |238| 
    2662                      .dwpsn  "WIDGET\GUI_widget_button.c",238,12
    2663 0000029a 7640'         LCR       #_GUI_button_assign_end ; |238| 
         0000029b 0214 
    2664                      ; call occurs [#_GUI_button_assign_end] ; |238| 
    2665                      .dwpsn  "WIDGET\GUI_widget_button.c",239,2
    2666              L40:    
    2667                      .dwpsn  "WIDGET\GUI_widget_button.c",240,1
    2668 0000029c FE82          SUBB      SP,#2
    2669                      .dwcfa  0x1d, -2
    2670 0000029d 0006          LRETR
    2671                      ; return occurs
    2672              
    2673              DW$358  .dwtag  DW_TAG_loop
    2674                      .dwattr DW$358, DW_AT_name("C:\DOCUME~1\ADMINI~1\LOCALS~1\Temp\TI9882:L36:1:1354176212")
    2675                      .dwattr DW$358, DW_AT_begin_file("WIDGET\GUI_widget_button.c")
    2676                      .dwattr DW$358, DW_AT_begin_line(0xe3)
    2677                      .dwattr DW$358, DW_AT_end_line(0xed)
    2678              DW$359  .dwtag  DW_TAG_loop_range
    2679                      .dwattr DW$359, DW_AT_low_pc(DW$L$_GUI_button_select_last$5$B)
    2680                      .dwattr DW$359, DW_AT_high_pc(DW$L$_GUI_button_select_last$5$E)
    2681              DW$360  .dwtag  DW_TAG_loop_range
    2682                      .dwattr DW$360, DW_AT_low_pc(DW$L$_GUI_button_select_last$7$B)
    2683                      .dwattr DW$360, DW_AT_high_pc(DW$L$_GUI_button_select_last$7$E)
    2684              DW$361  .dwtag  DW_TAG_loop_range
    2685                      .dwattr DW$361, DW_AT_low_pc(DW$L$_GUI_button_select_last$6$B)
TMS320C2000 COFF Assembler PC v4.1.3 Thu Nov 29 16:03:34 2012

Tools Copyright (c) 1996-2006 Texas Instruments Incorporated
C:\DOCUME~1\ADMINI~1\LOCALS~1\Temp\TI9882                            PAGE   52

    2686                      .dwattr DW$361, DW_AT_high_pc(DW$L$_GUI_button_select_last$6$E)
    2687              DW$362  .dwtag  DW_TAG_loop_range
    2688                      .dwattr DW$362, DW_AT_low_pc(DW$L$_GUI_button_select_last$9$B)
    2689                      .dwattr DW$362, DW_AT_high_pc(DW$L$_GUI_button_select_last$9$E)
    2690              DW$363  .dwtag  DW_TAG_loop_range
    2691                      .dwattr DW$363, DW_AT_low_pc(DW$L$_GUI_button_select_last$10$B)
    2692                      .dwattr DW$363, DW_AT_high_pc(DW$L$_GUI_button_select_last$10$E)
    2693                      .dwendtag DW$358
    2694              
    2695              
    2696              DW$364  .dwtag  DW_TAG_loop
    2697                      .dwattr DW$364, DW_AT_name("C:\DOCUME~1\ADMINI~1\LOCALS~1\Temp\TI9882:L34:1:1354176212")
    2698                      .dwattr DW$364, DW_AT_begin_file("WIDGET\GUI_widget_button.c")
    2699                      .dwattr DW$364, DW_AT_begin_line(0xdf)
    2700                      .dwattr DW$364, DW_AT_end_line(0xe2)
    2701              DW$365  .dwtag  DW_TAG_loop_range
    2702                      .dwattr DW$365, DW_AT_low_pc(DW$L$_GUI_button_select_last$2$B)
    2703                      .dwattr DW$365, DW_AT_high_pc(DW$L$_GUI_button_select_last$2$E)
    2704              DW$366  .dwtag  DW_TAG_loop_range
    2705                      .dwattr DW$366, DW_AT_low_pc(DW$L$_GUI_button_select_last$3$B)
    2706                      .dwattr DW$366, DW_AT_high_pc(DW$L$_GUI_button_select_last$3$E)
    2707                      .dwendtag DW$364
    2708              
    2709                      .dwattr DW$356, DW_AT_end_file("WIDGET\GUI_widget_button.c")
    2710                      .dwattr DW$356, DW_AT_end_line(0xf0)
    2711                      .dwattr DW$356, DW_AT_end_column(0x01)
    2712                      .dwendentry
    2713                      .dwendtag DW$356
    2714              
    2715 0000029e               .sect   ".text"
    2716                      .global _GUI_button_press_CUR
    2717              
    2718              DW$367  .dwtag  DW_TAG_subprogram, DW_AT_name("GUI_button_press_CUR"), DW_AT_symbol_name("_GUI_button_press_C
    2719                      .dwattr DW$367, DW_AT_low_pc(_GUI_button_press_CUR)
    2720                      .dwattr DW$367, DW_AT_high_pc(0x00)
    2721                      .dwattr DW$367, DW_AT_begin_file("WIDGET\GUI_widget_button.c")
    2722                      .dwattr DW$367, DW_AT_begin_line(0xf2)
    2723                      .dwattr DW$367, DW_AT_begin_column(0x06)
    2724                      .dwpsn  "WIDGET\GUI_widget_button.c",243,1
    2725              
    2726                      .dwfde DW$CIE
    2727              
    2728              ;***************************************************************
    2729              ;* FNAME: _GUI_button_press_CUR         FR SIZE:  10           *
    2730              ;*                                                             *
    2731              ;* FUNCTION ENVIRONMENT                                        *
    2732              ;*                                                             *
    2733              ;* FUNCTION PROPERTIES                                         *
    2734              ;*                            3 Parameter,  7 Auto,  0 SOE     *
    2735              ;***************************************************************
    2736              
    2737              _GUI_button_press_CUR:
    2738                      .dwcfa  0x1d, -2
    2739                      .dwcfa  0x1c, 26, 0
    2740                      .dwcfa  0x09, 40, 26
TMS320C2000 COFF Assembler PC v4.1.3 Thu Nov 29 16:03:34 2012

Tools Copyright (c) 1996-2006 Texas Instruments Incorporated
C:\DOCUME~1\ADMINI~1\LOCALS~1\Temp\TI9882                            PAGE   53

    2741 0000029e FE0A          ADDB      SP,#10
    2742                      .dwcfa  0x1d, -12
    2743              DW$368  .dwtag  DW_TAG_variable, DW_AT_name("flag"), DW_AT_symbol_name("_flag")
    2744                      .dwattr DW$368, DW_AT_type(*DW$T$11)
    2745                      .dwattr DW$368, DW_AT_location[DW_OP_breg20 -4]
    2746              DW$369  .dwtag  DW_TAG_variable, DW_AT_name("x"), DW_AT_symbol_name("_x")
    2747                      .dwattr DW$369, DW_AT_type(*DW$T$10)
    2748                      .dwattr DW$369, DW_AT_location[DW_OP_breg20 -5]
    2749              DW$370  .dwtag  DW_TAG_variable, DW_AT_name("y"), DW_AT_symbol_name("_y")
    2750                      .dwattr DW$370, DW_AT_type(*DW$T$10)
    2751                      .dwattr DW$370, DW_AT_location[DW_OP_breg20 -6]
    2752              DW$371  .dwtag  DW_TAG_variable, DW_AT_name("hp"), DW_AT_symbol_name("_hp")
    2753                      .dwattr DW$371, DW_AT_type(*DW$T$54)
    2754                      .dwattr DW$371, DW_AT_location[DW_OP_breg20 -8]
    2755              DW$372  .dwtag  DW_TAG_variable, DW_AT_name("pbutton"), DW_AT_symbol_name("_pbutton")
    2756                      .dwattr DW$372, DW_AT_type(*DW$T$223)
    2757                      .dwattr DW$372, DW_AT_location[DW_OP_breg20 -10]
    2758                      .dwpsn  "WIDGET\GUI_widget_button.c",244,11
    2759 0000029f 761F-         MOVW      DP,#_m_GUI_CUR_button
         000002a0 0000 
    2760 000002a1 8A1E-         MOVL      XAR4,@_m_GUI_CUR_button ; |244| 
    2761 000002a2 92FC          MOV       AL,*+XAR4[7]          ; |244| 
    2762 000002a3 9644          MOV       *-SP[4],AL            ; |244| 
    2763                      .dwpsn  "WIDGET\GUI_widget_button.c",246,6
    2764 000002a4 8A1E-         MOVL      XAR4,@_m_GUI_CUR_button ; |246| 
    2765 000002a5 92E4          MOV       AL,*+XAR4[4]          ; |246| 
    2766 000002a6 9646          MOV       *-SP[6],AL            ; |246| 
    2767                      .dwpsn  "WIDGET\GUI_widget_button.c",247,13
    2768 000002a7 061E-         MOVL      ACC,@_m_GUI_CUR_button ; |247| 
    2769 000002a8 1E48          MOVL      *-SP[8],ACC           ; |247| 
    2770                      .dwpsn  "WIDGET\GUI_widget_button.c",249,2
    2771 000002a9 8A48          MOVL      XAR4,*-SP[8]          ; |249| 
    2772 000002aa 7640'         LCR       #_GUI_button_data_obtain ; |249| 
         000002ab 00EB 
    2773                      ; call occurs [#_GUI_button_data_obtain] ; |249| 
    2774 000002ac A84A          MOVL      *-SP[10],XAR4         ; |249| 
    2775                      .dwpsn  "WIDGET\GUI_widget_button.c",250,2
    2776 000002ad 8A4A          MOVL      XAR4,*-SP[10]         ; |250| 
    2777 000002ae 7640!         LCR       #_global_strlen       ; |250| 
         000002af 0000 
    2778                      ; call occurs [#_global_strlen] ; |250| 
    2779 000002b0 8A48          MOVL      XAR4,*-SP[8]          ; |250| 
    2780 000002b1 5603          MOV       ACC,AL << #3          ; |250| 
         000002b2 03A9 
    2781 000002b3 93DC          MOV       AH,*+XAR4[3]          ; |250| 
    2782 000002b4 9FA9          SUB       AH,AL                 ; |250| 
    2783 000002b5 FFD0          LSR       AH,1                  ; |250| 
    2784 000002b6 9745          MOV       *-SP[5],AH            ; |250| 
    2785                      .dwpsn  "WIDGET\GUI_widget_button.c",251,2
    2786 000002b7 9246          MOV       AL,*-SP[6]            ; |251| 
    2787 000002b8 5210          CMPB      AL,#16                ; |251| 
    2788 000002b9 6507          B         L41,LEQ               ; |251| 
    2789                      ; branchcc occurs ; |251| 
    2790 000002ba 8A48          MOVL      XAR4,*-SP[8]          ; |251| 
    2791 000002bb 92E4          MOV       AL,*+XAR4[4]          ; |251| 
TMS320C2000 COFF Assembler PC v4.1.3 Thu Nov 29 16:03:34 2012

Tools Copyright (c) 1996-2006 Texas Instruments Incorporated
C:\DOCUME~1\ADMINI~1\LOCALS~1\Temp\TI9882                            PAGE   54

    2792 000002bc 9CF0          ADDB      AL,#-16
    2793 000002bd FFC0          LSR       AL,1                  ; |251| 
    2794 000002be 9646          MOV       *-SP[6],AL            ; |251| 
    2795 000002bf 6F02          B         L42,UNC               ; |251| 
    2796                      ; branch occurs ; |251| 
    2797 000002c0       L41:    
    2798 000002c0 2B46          MOV       *-SP[6],#0            ; |251| 
    2799              L42:    
    2800                      .dwpsn  "WIDGET\GUI_widget_button.c",252,2
    2801 000002c1 2841          MOV       *-SP[1],#1            ; |252| 
         000002c2 0001 
    2802 000002c3 8A48          MOVL      XAR4,*-SP[8]          ; |252| 
    2803 000002c4 88CC          MOVZ      AR6,*+XAR4[1]         ; |252| 
    2804 000002c5 8A48          MOVL      XAR4,*-SP[8]          ; |252| 
    2805 000002c6 93D4          MOV       AH,*+XAR4[2]          ; |252| 
    2806 000002c7 8A48          MOVL      XAR4,*-SP[8]          ; |252| 
    2807 000002c8 8348          MOVL      XAR5,*-SP[8]          ; |252| 
    2808 000002c9 92DC          MOV       AL,*+XAR4[3]          ; |252| 
    2809 000002ca 5DE5          MOVZ      AR5,*+XAR5[4]         ; |252| 
    2810 000002cb 9C01          ADDB      AL,#1                 ; |252| 
    2811 000002cc 5CA9          MOVZ      AR4,AL                ; |252| 
    2812 000002cd 92A6          MOV       AL,AR6                ; |252| 
    2813 000002ce 7640!         LCR       #_lcd_driver_fill_rectangle ; |252| 
         000002cf 0000 
    2814                      ; call occurs [#_lcd_driver_fill_rectangle] ; |252| 
    2815                      .dwpsn  "WIDGET\GUI_widget_button.c",254,2
    2816 000002d0 8348          MOVL      XAR5,*-SP[8]          ; |254| 
    2817 000002d1 8A48          MOVL      XAR4,*-SP[8]          ; |254| 
    2818 000002d2 92E5          MOV       AL,*+XAR5[4]          ; |254| 
    2819 000002d3 94D4          ADD       AL,*+XAR4[2]          ; |254| 
    2820 000002d4 9641          MOV       *-SP[1],AL            ; |254| 
    2821 000002d5 2842          MOV       *-SP[2],#1            ; |254| 
         000002d6 0001 
    2822 000002d7 2843          MOV       *-SP[3],#255          ; |254| 
         000002d8 00FF 
    2823 000002d9 8A48          MOVL      XAR4,*-SP[8]          ; |254| 
    2824 000002da 9245          MOV       AL,*-SP[5]            ; |254| 
    2825 000002db 94CC          ADD       AL,*+XAR4[1]          ; |254| 
    2826 000002dc 8A48          MOVL      XAR4,*-SP[8]          ; |254| 
    2827 000002dd 9346          MOV       AH,*-SP[6]            ; |254| 
    2828 000002de 8348          MOVL      XAR5,*-SP[8]          ; |254| 
    2829 000002df 95D4          ADD       AH,*+XAR4[2]          ; |254| 
    2830 000002e0 8A48          MOVL      XAR4,*-SP[8]          ; |254| 
    2831 000002e1 88A9          MOVZ      AR6,AL                ; |254| 
    2832 000002e2 92DD          MOV       AL,*+XAR5[3]          ; |254| 
    2833 000002e3 94CC          ADD       AL,*+XAR4[1]          ; |254| 
    2834 000002e4 5DA9          MOVZ      AR5,AL                ; |254| 
    2835 000002e5 8A4A          MOVL      XAR4,*-SP[10]         ; |254| 
    2836 000002e6 92A6          MOV       AL,AR6                ; |254| 
    2837 000002e7 7640!         LCR       #_GUI_print_string_ext ; |254| 
         000002e8 0000 
    2838                      ; call occurs [#_GUI_print_string_ext] ; |254| 
    2839                      .dwpsn  "WIDGET\GUI_widget_button.c",257,5
    2840 000002e9 9A03          MOVB      AL,#3                 ; |257| 
    2841 000002ea 7640!         LCR       #_OSTimeDly           ; |257| 
TMS320C2000 COFF Assembler PC v4.1.3 Thu Nov 29 16:03:34 2012

Tools Copyright (c) 1996-2006 Texas Instruments Incorporated
C:\DOCUME~1\ADMINI~1\LOCALS~1\Temp\TI9882                            PAGE   55

         000002eb 0000 
    2842                      ; call occurs [#_OSTimeDly] ; |257| 
    2843                      .dwpsn  "WIDGET\GUI_widget_button.c",258,2
    2844 000002ec 8A4A          MOVL      XAR4,*-SP[10]         ; |258| 
    2845 000002ed D019          MOVB      XAR0,#25              ; |258| 
    2846 000002ee 9294          MOV       AL,*+XAR4[AR0]        ; |258| 
    2847 000002ef 9641          MOV       *-SP[1],AL            ; |258| 
    2848 000002f0 8A48          MOVL      XAR4,*-SP[8]          ; |258| 
    2849 000002f1 88CC          MOVZ      AR6,*+XAR4[1]         ; |258| 
    2850 000002f2 8A48          MOVL      XAR4,*-SP[8]          ; |258| 
    2851 000002f3 93D4          MOV       AH,*+XAR4[2]          ; |258| 
    2852 000002f4 8A48          MOVL      XAR4,*-SP[8]          ; |258| 
    2853 000002f5 8348          MOVL      XAR5,*-SP[8]          ; |258| 
    2854 000002f6 92DC          MOV       AL,*+XAR4[3]          ; |258| 
    2855 000002f7 9C01          ADDB      AL,#1                 ; |258| 
    2856 000002f8 5CA9          MOVZ      AR4,AL                ; |258| 
    2857 000002f9 5DE5          MOVZ      AR5,*+XAR5[4]         ; |258| 
    2858 000002fa 92A6          MOV       AL,AR6                ; |258| 
    2859 000002fb 7640!         LCR       #_lcd_driver_fill_rectangle ; |258| 
         000002fc 0000 
    2860                      ; call occurs [#_lcd_driver_fill_rectangle] ; |258| 
    2861                      .dwpsn  "WIDGET\GUI_widget_button.c",260,2
    2862 000002fd 8A48          MOVL      XAR4,*-SP[8]          ; |260| 
    2863 000002fe 92CC          MOV       AL,*+XAR4[1]          ; |260| 
    2864 000002ff 8A48          MOVL      XAR4,*-SP[8]          ; |260| 
    2865 00000300 8348          MOVL      XAR5,*-SP[8]          ; |260| 
    2866 00000301 93D4          MOV       AH,*+XAR4[2]          ; |260| 
    2867 00000302 8A48          MOVL      XAR4,*-SP[8]          ; |260| 
    2868 00000303 5DE5          MOVZ      AR5,*+XAR5[4]         ; |260| 
    2869 00000304 5CDC          MOVZ      AR4,*+XAR4[3]         ; |260| 
    2870 00000305 7640!         LCR       #_GUI_widget_3D_paint ; |260| 
         00000306 0000 
    2871                      ; call occurs [#_GUI_widget_3D_paint] ; |260| 
    2872                      .dwpsn  "WIDGET\GUI_widget_button.c",262,2
    2873 00000307 8348          MOVL      XAR5,*-SP[8]          ; |262| 
    2874 00000308 8A48          MOVL      XAR4,*-SP[8]          ; |262| 
    2875 00000309 92E5          MOV       AL,*+XAR5[4]          ; |262| 
    2876 0000030a 94D4          ADD       AL,*+XAR4[2]          ; |262| 
    2877 0000030b 9641          MOV       *-SP[1],AL            ; |262| 
    2878 0000030c 8A4A          MOVL      XAR4,*-SP[10]         ; |262| 
    2879 0000030d D019          MOVB      XAR0,#25              ; |262| 
    2880 0000030e 9294          MOV       AL,*+XAR4[AR0]        ; |262| 
    2881 0000030f 9642          MOV       *-SP[2],AL            ; |262| 
    2882 00000310 8A4A          MOVL      XAR4,*-SP[10]         ; |262| 
    2883 00000311 D01A          MOVB      XAR0,#26              ; |262| 
    2884 00000312 9294          MOV       AL,*+XAR4[AR0]        ; |262| 
    2885 00000313 9643          MOV       *-SP[3],AL            ; |262| 
    2886 00000314 8A48          MOVL      XAR4,*-SP[8]          ; |262| 
    2887 00000315 9245          MOV       AL,*-SP[5]            ; |262| 
    2888 00000316 94CC          ADD       AL,*+XAR4[1]          ; |262| 
    2889 00000317 8A48          MOVL      XAR4,*-SP[8]          ; |262| 
    2890 00000318 9346          MOV       AH,*-SP[6]            ; |262| 
    2891 00000319 8348          MOVL      XAR5,*-SP[8]          ; |262| 
    2892 0000031a 95D4          ADD       AH,*+XAR4[2]          ; |262| 
    2893 0000031b 8A48          MOVL      XAR4,*-SP[8]          ; |262| 
TMS320C2000 COFF Assembler PC v4.1.3 Thu Nov 29 16:03:34 2012

Tools Copyright (c) 1996-2006 Texas Instruments Incorporated
C:\DOCUME~1\ADMINI~1\LOCALS~1\Temp\TI9882                            PAGE   56

    2894 0000031c 88A9          MOVZ      AR6,AL                ; |262| 
    2895 0000031d 92DD          MOV       AL,*+XAR5[3]          ; |262| 
    2896 0000031e 94CC          ADD       AL,*+XAR4[1]          ; |262| 
    2897 0000031f 5DA9          MOVZ      AR5,AL                ; |262| 
    2898 00000320 8A4A          MOVL      XAR4,*-SP[10]         ; |262| 
    2899 00000321 92A6          MOV       AL,AR6                ; |262| 
    2900 00000322 7640!         LCR       #_GUI_print_string_ext ; |262| 
         00000323 0000 
    2901                      ; call occurs [#_GUI_print_string_ext] ; |262| 
    2902                      .dwpsn  "WIDGET\GUI_widget_button.c",266,2
    2903 00000324 8A48          MOVL      XAR4,*-SP[8]          ; |266| 
    2904 00000325 7640'         LCR       #_GUI_button_select   ; |266| 
         00000326 01C8 
    2905                      ; call occurs [#_GUI_button_select] ; |266| 
    2906                      .dwpsn  "WIDGET\GUI_widget_button.c",267,2
    2907 00000327 8A48          MOVL      XAR4,*-SP[8]          ; |267| 
    2908 00000328 CCFC          AND       AL,*+XAR4[7],#0x00ff  ; |267| 
         00000329 00FF 
    2909 0000032a 7640!         LCR       #_app_global_key_dummy_press ; |267| 
         0000032b 0000 
    2910                      ; call occurs [#_app_global_key_dummy_press] ; |267| 
    2911                      .dwpsn  "WIDGET\GUI_widget_button.c",268,2
    2912 0000032c 8A4A          MOVL      XAR4,*-SP[10]         ; |268| 
    2913 0000032d D01C          MOVB      XAR0,#28              ; |268| 
    2914 0000032e 0694          MOVL      ACC,*+XAR4[AR0]       ; |268| 
    2915 0000032f EC05          BF        L43,EQ                ; |268| 
    2916                      ; branchcc occurs ; |268| 
    2917                      .dwpsn  "WIDGET\GUI_widget_button.c",270,3
    2918 00000330 8A4A          MOVL      XAR4,*-SP[10]         ; |270| 
    2919 00000331 C594          MOVL      XAR7,*+XAR4[AR0]      ; |270| 
    2920 00000332 D400          MOVB      XAR4,#0
    2921 00000333 3E67          LCR       *XAR7                 ; |270| 
    2922                      ; call occurs [XAR7] ; |270| 
    2923                      .dwpsn  "WIDGET\GUI_widget_button.c",272,2
    2924              L43:    
    2925                      .dwpsn  "WIDGET\GUI_widget_button.c",273,1
    2926 00000334 FE8A          SUBB      SP,#10
    2927                      .dwcfa  0x1d, -2
    2928 00000335 0006          LRETR
    2929                      ; return occurs
    2930                      .dwattr DW$367, DW_AT_end_file("WIDGET\GUI_widget_button.c")
    2931                      .dwattr DW$367, DW_AT_end_line(0x111)
    2932                      .dwattr DW$367, DW_AT_end_column(0x01)
    2933                      .dwendentry
    2934                      .dwendtag DW$367
    2935              
    2936 00000336               .sect   ".text"
    2937                      .global _GUI_button_bmp_display
    2938              
    2939              DW$373  .dwtag  DW_TAG_subprogram, DW_AT_name("GUI_button_bmp_display"), DW_AT_symbol_name("_GUI_button_bmp_d
    2940                      .dwattr DW$373, DW_AT_low_pc(_GUI_button_bmp_display)
    2941                      .dwattr DW$373, DW_AT_high_pc(0x00)
    2942                      .dwattr DW$373, DW_AT_begin_file("WIDGET\GUI_widget_button.c")
    2943                      .dwattr DW$373, DW_AT_begin_line(0x115)
    2944                      .dwattr DW$373, DW_AT_begin_column(0x06)
TMS320C2000 COFF Assembler PC v4.1.3 Thu Nov 29 16:03:34 2012

Tools Copyright (c) 1996-2006 Texas Instruments Incorporated
C:\DOCUME~1\ADMINI~1\LOCALS~1\Temp\TI9882                            PAGE   57

    2945                      .dwpsn  "WIDGET\GUI_widget_button.c",278,1
    2946              
    2947                      .dwfde DW$CIE
    2948              
    2949              ;***************************************************************
    2950              ;* FNAME: _GUI_button_bmp_display       FR SIZE:   6           *
    2951              ;*                                                             *
    2952              ;* FUNCTION ENVIRONMENT                                        *
    2953              ;*                                                             *
    2954              ;* FUNCTION PROPERTIES                                         *
    2955              ;*                            0 Parameter,  5 Auto,  0 SOE     *
    2956              ;***************************************************************
    2957              
    2958              _GUI_button_bmp_display:
    2959                      .dwcfa  0x1d, -2
    2960                      .dwcfa  0x1c, 26, 0
    2961                      .dwcfa  0x09, 40, 26
    2962 00000336 FE06          ADDB      SP,#6
    2963                      .dwcfa  0x1d, -8
    2964              ;* AL    assigned to _x
    2965              DW$374  .dwtag  DW_TAG_formal_parameter, DW_AT_name("x"), DW_AT_symbol_name("_x")
    2966                      .dwattr DW$374, DW_AT_type(*DW$T$11)
    2967                      .dwattr DW$374, DW_AT_location[DW_OP_reg0]
    2968              ;* AH    assigned to _y
    2969              DW$375  .dwtag  DW_TAG_formal_parameter, DW_AT_name("y"), DW_AT_symbol_name("_y")
    2970                      .dwattr DW$375, DW_AT_type(*DW$T$11)
    2971                      .dwattr DW$375, DW_AT_location[DW_OP_reg1]
    2972              ;* AR4   assigned to _lib
    2973              DW$376  .dwtag  DW_TAG_formal_parameter, DW_AT_name("lib"), DW_AT_symbol_name("_lib")
    2974                      .dwattr DW$376, DW_AT_type(*DW$T$52)
    2975                      .dwattr DW$376, DW_AT_location[DW_OP_reg12]
    2976              ;* AR5   assigned to _sel
    2977              DW$377  .dwtag  DW_TAG_formal_parameter, DW_AT_name("sel"), DW_AT_symbol_name("_sel")
    2978                      .dwattr DW$377, DW_AT_type(*DW$T$6)
    2979                      .dwattr DW$377, DW_AT_location[DW_OP_reg14]
    2980              DW$378  .dwtag  DW_TAG_variable, DW_AT_name("x"), DW_AT_symbol_name("_x")
    2981                      .dwattr DW$378, DW_AT_type(*DW$T$11)
    2982                      .dwattr DW$378, DW_AT_location[DW_OP_breg20 -1]
    2983              DW$379  .dwtag  DW_TAG_variable, DW_AT_name("y"), DW_AT_symbol_name("_y")
    2984                      .dwattr DW$379, DW_AT_type(*DW$T$11)
    2985                      .dwattr DW$379, DW_AT_location[DW_OP_breg20 -2]
    2986              DW$380  .dwtag  DW_TAG_variable, DW_AT_name("lib"), DW_AT_symbol_name("_lib")
    2987                      .dwattr DW$380, DW_AT_type(*DW$T$52)
    2988                      .dwattr DW$380, DW_AT_location[DW_OP_breg20 -4]
    2989              DW$381  .dwtag  DW_TAG_variable, DW_AT_name("sel"), DW_AT_symbol_name("_sel")
    2990                      .dwattr DW$381, DW_AT_type(*DW$T$6)
    2991                      .dwattr DW$381, DW_AT_location[DW_OP_breg20 -5]
    2992 00000337 7D45          MOV       *-SP[5],AR5           ; |278| 
    2993 00000338 A844          MOVL      *-SP[4],XAR4          ; |278| 
    2994 00000339 9742          MOV       *-SP[2],AH            ; |278| 
    2995 0000033a 9641          MOV       *-SP[1],AL            ; |278| 
    2996                      .dwpsn  "WIDGET\GUI_widget_button.c",279,1
    2997 0000033b FE86          SUBB      SP,#6
    2998                      .dwcfa  0x1d, -2
    2999 0000033c 0006          LRETR
TMS320C2000 COFF Assembler PC v4.1.3 Thu Nov 29 16:03:34 2012

Tools Copyright (c) 1996-2006 Texas Instruments Incorporated
C:\DOCUME~1\ADMINI~1\LOCALS~1\Temp\TI9882                            PAGE   58

    3000                      ; return occurs
    3001                      .dwattr DW$373, DW_AT_end_file("WIDGET\GUI_widget_button.c")
    3002                      .dwattr DW$373, DW_AT_end_line(0x117)
    3003                      .dwattr DW$373, DW_AT_end_column(0x01)
    3004                      .dwendentry
    3005                      .dwendtag DW$373
    3006              
    3007 0000033d               .sect   ".text"
    3008                      .global _Gui_button_set_color
    3009              
    3010              DW$382  .dwtag  DW_TAG_subprogram, DW_AT_name("Gui_button_set_color"), DW_AT_symbol_name("_Gui_button_set_col
    3011                      .dwattr DW$382, DW_AT_low_pc(_Gui_button_set_color)
    3012                      .dwattr DW$382, DW_AT_high_pc(0x00)
    3013                      .dwattr DW$382, DW_AT_begin_file("WIDGET\GUI_widget_button.c")
    3014                      .dwattr DW$382, DW_AT_begin_line(0x11e)
    3015                      .dwattr DW$382, DW_AT_begin_column(0x06)
    3016                      .dwpsn  "WIDGET\GUI_widget_button.c",287,1
    3017              
    3018                      .dwfde DW$CIE
    3019              
    3020              ;***************************************************************
    3021              ;* FNAME: _Gui_button_set_color         FR SIZE:   2           *
    3022              ;*                                                             *
    3023              ;* FUNCTION ENVIRONMENT                                        *
    3024              ;*                                                             *
    3025              ;* FUNCTION PROPERTIES                                         *
    3026              ;*                            0 Parameter,  2 Auto,  0 SOE     *
    3027              ;***************************************************************
    3028              
    3029              _Gui_button_set_color:
    3030                      .dwcfa  0x1d, -2
    3031                      .dwcfa  0x1c, 26, 0
    3032                      .dwcfa  0x09, 40, 26
    3033 0000033d FE02          ADDB      SP,#2
    3034                      .dwcfa  0x1d, -4
    3035              ;* AL    assigned to _Fgcor
    3036              DW$383  .dwtag  DW_TAG_formal_parameter, DW_AT_name("Fgcor"), DW_AT_symbol_name("_Fgcor")
    3037                      .dwattr DW$383, DW_AT_type(*DW$T$11)
    3038                      .dwattr DW$383, DW_AT_location[DW_OP_reg0]
    3039              ;* AH    assigned to _Bgcor
    3040              DW$384  .dwtag  DW_TAG_formal_parameter, DW_AT_name("Bgcor"), DW_AT_symbol_name("_Bgcor")
    3041                      .dwattr DW$384, DW_AT_type(*DW$T$11)
    3042                      .dwattr DW$384, DW_AT_location[DW_OP_reg1]
    3043              DW$385  .dwtag  DW_TAG_variable, DW_AT_name("Fgcor"), DW_AT_symbol_name("_Fgcor")
    3044                      .dwattr DW$385, DW_AT_type(*DW$T$11)
    3045                      .dwattr DW$385, DW_AT_location[DW_OP_breg20 -1]
    3046              DW$386  .dwtag  DW_TAG_variable, DW_AT_name("Bgcor"), DW_AT_symbol_name("_Bgcor")
    3047                      .dwattr DW$386, DW_AT_type(*DW$T$11)
    3048                      .dwattr DW$386, DW_AT_location[DW_OP_breg20 -2]
    3049 0000033e 9742          MOV       *-SP[2],AH            ; |287| 
    3050 0000033f 9641          MOV       *-SP[1],AL            ; |287| 
    3051                      .dwpsn  "WIDGET\GUI_widget_button.c",288,6
    3052 00000340 761F-         MOVW      DP,#_m_GUI_button_Bgcor
         00000341 0000 
    3053 00000342 9242          MOV       AL,*-SP[2]            ; |288| 
TMS320C2000 COFF Assembler PC v4.1.3 Thu Nov 29 16:03:34 2012

Tools Copyright (c) 1996-2006 Texas Instruments Incorporated
C:\DOCUME~1\ADMINI~1\LOCALS~1\Temp\TI9882                            PAGE   59

    3054 00000343 960D-         MOV       @_m_GUI_button_Bgcor,AL ; |288| 
    3055                      .dwpsn  "WIDGET\GUI_widget_button.c",289,3
    3056 00000344 9241          MOV       AL,*-SP[1]            ; |289| 
    3057 00000345 9611-         MOV       @_m_GUI_button_Fgcor,AL ; |289| 
    3058                      .dwpsn  "WIDGET\GUI_widget_button.c",290,3
    3059                      .dwpsn  "WIDGET\GUI_widget_button.c",291,1
    3060 00000346 FE82          SUBB      SP,#2
    3061                      .dwcfa  0x1d, -2
    3062 00000347 0006          LRETR
    3063                      ; return occurs
    3064                      .dwattr DW$382, DW_AT_end_file("WIDGET\GUI_widget_button.c")
    3065                      .dwattr DW$382, DW_AT_end_line(0x123)
    3066                      .dwattr DW$382, DW_AT_end_column(0x01)
    3067                      .dwendentry
    3068                      .dwendtag DW$382
    3069              
    3070 00000348               .sect   ".text"
    3071                      .global _Gui_button_insert_icon
    3072              
    3073              DW$387  .dwtag  DW_TAG_subprogram, DW_AT_name("Gui_button_insert_icon"), DW_AT_symbol_name("_Gui_button_inser
    3074                      .dwattr DW$387, DW_AT_low_pc(_Gui_button_insert_icon)
    3075                      .dwattr DW$387, DW_AT_high_pc(0x00)
    3076                      .dwattr DW$387, DW_AT_begin_file("WIDGET\GUI_widget_button.c")
    3077                      .dwattr DW$387, DW_AT_begin_line(0x12c)
    3078                      .dwattr DW$387, DW_AT_begin_column(0x06)
    3079                      .dwpsn  "WIDGET\GUI_widget_button.c",301,1
    3080              
    3081                      .dwfde DW$CIE
    3082              
    3083              ;***************************************************************
    3084              ;* FNAME: _Gui_button_insert_icon       FR SIZE:  10           *
    3085              ;*                                                             *
    3086              ;* FUNCTION ENVIRONMENT                                        *
    3087              ;*                                                             *
    3088              ;* FUNCTION PROPERTIES                                         *
    3089              ;*                            0 Parameter, 10 Auto,  0 SOE     *
    3090              ;***************************************************************
    3091              
    3092              _Gui_button_insert_icon:
    3093                      .dwcfa  0x1d, -2
    3094                      .dwcfa  0x1c, 26, 0
    3095                      .dwcfa  0x09, 40, 26
    3096 00000348 FE0A          ADDB      SP,#10
    3097                      .dwcfa  0x1d, -12
    3098              ;* AR4   assigned to _hp
    3099              DW$388  .dwtag  DW_TAG_formal_parameter, DW_AT_name("hp"), DW_AT_symbol_name("_hp")
    3100                      .dwattr DW$388, DW_AT_type(*DW$T$54)
    3101                      .dwattr DW$388, DW_AT_location[DW_OP_reg12]
    3102              ;* AR5   assigned to _picon
    3103              DW$389  .dwtag  DW_TAG_formal_parameter, DW_AT_name("picon"), DW_AT_symbol_name("_picon")
    3104                      .dwattr DW$389, DW_AT_type(*DW$T$21)
    3105                      .dwattr DW$389, DW_AT_location[DW_OP_reg14]
    3106              ;* AL    assigned to _Fgcor
    3107              DW$390  .dwtag  DW_TAG_formal_parameter, DW_AT_name("Fgcor"), DW_AT_symbol_name("_Fgcor")
    3108                      .dwattr DW$390, DW_AT_type(*DW$T$11)
TMS320C2000 COFF Assembler PC v4.1.3 Thu Nov 29 16:03:34 2012

Tools Copyright (c) 1996-2006 Texas Instruments Incorporated
C:\DOCUME~1\ADMINI~1\LOCALS~1\Temp\TI9882                            PAGE   60

    3109                      .dwattr DW$390, DW_AT_location[DW_OP_reg0]
    3110              ;* AH    assigned to _Bgcor
    3111              DW$391  .dwtag  DW_TAG_formal_parameter, DW_AT_name("Bgcor"), DW_AT_symbol_name("_Bgcor")
    3112                      .dwattr DW$391, DW_AT_type(*DW$T$11)
    3113                      .dwattr DW$391, DW_AT_location[DW_OP_reg1]
    3114              DW$392  .dwtag  DW_TAG_variable, DW_AT_name("hp"), DW_AT_symbol_name("_hp")
    3115                      .dwattr DW$392, DW_AT_type(*DW$T$54)
    3116                      .dwattr DW$392, DW_AT_location[DW_OP_breg20 -2]
    3117              DW$393  .dwtag  DW_TAG_variable, DW_AT_name("picon"), DW_AT_symbol_name("_picon")
    3118                      .dwattr DW$393, DW_AT_type(*DW$T$21)
    3119                      .dwattr DW$393, DW_AT_location[DW_OP_breg20 -4]
    3120              DW$394  .dwtag  DW_TAG_variable, DW_AT_name("Fgcor"), DW_AT_symbol_name("_Fgcor")
    3121                      .dwattr DW$394, DW_AT_type(*DW$T$11)
    3122                      .dwattr DW$394, DW_AT_location[DW_OP_breg20 -5]
    3123              DW$395  .dwtag  DW_TAG_variable, DW_AT_name("Bgcor"), DW_AT_symbol_name("_Bgcor")
    3124                      .dwattr DW$395, DW_AT_type(*DW$T$11)
    3125                      .dwattr DW$395, DW_AT_location[DW_OP_breg20 -6]
    3126              DW$396  .dwtag  DW_TAG_variable, DW_AT_name("flag"), DW_AT_symbol_name("_flag")
    3127                      .dwattr DW$396, DW_AT_type(*DW$T$11)
    3128                      .dwattr DW$396, DW_AT_location[DW_OP_breg20 -7]
    3129              DW$397  .dwtag  DW_TAG_variable, DW_AT_name("pbutton"), DW_AT_symbol_name("_pbutton")
    3130                      .dwattr DW$397, DW_AT_type(*DW$T$223)
    3131                      .dwattr DW$397, DW_AT_location[DW_OP_breg20 -10]
    3132 00000349 9746          MOV       *-SP[6],AH            ; |301| 
    3133 0000034a 9645          MOV       *-SP[5],AL            ; |301| 
    3134 0000034b A044          MOVL      *-SP[4],XAR5          ; |301| 
    3135 0000034c A842          MOVL      *-SP[2],XAR4          ; |301| 
    3136                      .dwpsn  "WIDGET\GUI_widget_button.c",302,11
    3137 0000034d 8A42          MOVL      XAR4,*-SP[2]          ; |302| 
    3138 0000034e 92FC          MOV       AL,*+XAR4[7]          ; |302| 
    3139 0000034f 9647          MOV       *-SP[7],AL            ; |302| 
    3140                      .dwpsn  "WIDGET\GUI_widget_button.c",304,2
    3141 00000350 8A42          MOVL      XAR4,*-SP[2]          ; |304| 
    3142 00000351 7640'         LCR       #_GUI_button_data_obtain ; |304| 
         00000352 00EB 
    3143                      ; call occurs [#_GUI_button_data_obtain] ; |304| 
    3144 00000353 A84A          MOVL      *-SP[10],XAR4         ; |304| 
    3145                      .dwpsn  "WIDGET\GUI_widget_button.c",306,2
    3146 00000354 CC47          AND       AL,*-SP[7],#0x2000    ; |306| 
         00000355 2000 
    3147 00000356 1BA9          CMP       AL,#8192              ; |306| 
         00000357 2000 
    3148 00000358 ED21          BF        L44,NEQ               ; |306| 
    3149                      ; branchcc occurs ; |306| 
    3150                      .dwpsn  "WIDGET\GUI_widget_button.c",306,38
    3151                      .dwpsn  "WIDGET\GUI_widget_button.c",307,2
    3152 00000359 8A42          MOVL      XAR4,*-SP[2]          ; |307| 
    3153 0000035a 7640!         LCR       #_GUI_window_hwin_req ; |307| 
         0000035b 0000 
    3154                      ; call occurs [#_GUI_window_hwin_req] ; |307| 
    3155                      .dwpsn  "WIDGET\GUI_widget_button.c",309,2
    3156 0000035c 9246          MOV       AL,*-SP[6]            ; |309| 
    3157 0000035d 7640!         LCR       #_GUI_set_Bgcolor     ; |309| 
         0000035e 0000 
    3158                      ; call occurs [#_GUI_set_Bgcolor] ; |309| 
TMS320C2000 COFF Assembler PC v4.1.3 Thu Nov 29 16:03:34 2012

Tools Copyright (c) 1996-2006 Texas Instruments Incorporated
C:\DOCUME~1\ADMINI~1\LOCALS~1\Temp\TI9882                            PAGE   61

    3159                      .dwpsn  "WIDGET\GUI_widget_button.c",310,2
    3160 0000035f 9245          MOV       AL,*-SP[5]            ; |310| 
    3161 00000360 7640!         LCR       #_GUI_set_Fgcolor     ; |310| 
         00000361 0000 
    3162                      ; call occurs [#_GUI_set_Fgcolor] ; |310| 
    3163                      .dwpsn  "WIDGET\GUI_widget_button.c",311,2
    3164 00000362 8A4A          MOVL      XAR4,*-SP[10]         ; |311| 
    3165 00000363 D01A          MOVB      XAR0,#26              ; |311| 
    3166 00000364 9245          MOV       AL,*-SP[5]            ; |311| 
    3167 00000365 9694          MOV       *+XAR4[AR0],AL        ; |311| 
    3168                      .dwpsn  "WIDGET\GUI_widget_button.c",312,2
    3169 00000366 8A4A          MOVL      XAR4,*-SP[10]         ; |312| 
    3170 00000367 D019          MOVB      XAR0,#25              ; |312| 
    3171 00000368 9246          MOV       AL,*-SP[6]            ; |312| 
    3172 00000369 9694          MOV       *+XAR4[AR0],AL        ; |312| 
    3173                      .dwpsn  "WIDGET\GUI_widget_button.c",313,5
    3174 0000036a 8A4A          MOVL      XAR4,*-SP[10]         ; |313| 
    3175 0000036b D016          MOVB      XAR0,#22              ; |313| 
    3176 0000036c 0644          MOVL      ACC,*-SP[4]           ; |313| 
    3177 0000036d 1E94          MOVL      *+XAR4[AR0],ACC       ; |313| 
    3178                      .dwpsn  "WIDGET\GUI_widget_button.c",314,2
    3179 0000036e 8A42          MOVL      XAR4,*-SP[2]          ; |314| 
    3180 0000036f 92CC          MOV       AL,*+XAR4[1]          ; |314| 
    3181 00000370 8A42          MOVL      XAR4,*-SP[2]          ; |314| 
    3182 00000371 93D4          MOV       AH,*+XAR4[2]          ; |314| 
    3183 00000372 8A4A          MOVL      XAR4,*-SP[10]         ; |314| 
    3184 00000373 D501          MOVB      XAR5,#1               ; |314| 
    3185 00000374 7640'         LCR       #_GUI_button_bmp_display ; |314| 
         00000375 0336 
    3186                      ; call occurs [#_GUI_button_bmp_display] ; |314| 
    3187                      .dwpsn  "WIDGET\GUI_widget_button.c",315,2
    3188 00000376 8A42          MOVL      XAR4,*-SP[2]          ; |315| 
    3189 00000377 7640!         LCR       #_GUI_window_hwin_release ; |315| 
         00000378 0000 
    3190                      ; call occurs [#_GUI_window_hwin_release] ; |315| 
    3191                      .dwpsn  "WIDGET\GUI_widget_button.c",316,4
    3192              L44:    
    3193                      .dwpsn  "WIDGET\GUI_widget_button.c",317,1
    3194 00000379 FE8A          SUBB      SP,#10
    3195                      .dwcfa  0x1d, -2
    3196 0000037a 0006          LRETR
    3197                      ; return occurs
    3198                      .dwattr DW$387, DW_AT_end_file("WIDGET\GUI_widget_button.c")
    3199                      .dwattr DW$387, DW_AT_end_line(0x13d)
    3200                      .dwattr DW$387, DW_AT_end_column(0x01)
    3201                      .dwendentry
    3202                      .dwendtag DW$387
    3203              
    3204 0000037b               .sect   ".text"
    3205                      .global _Gui_button_dye
    3206              
    3207              DW$398  .dwtag  DW_TAG_subprogram, DW_AT_name("Gui_button_dye"), DW_AT_symbol_name("_Gui_button_dye")
    3208                      .dwattr DW$398, DW_AT_low_pc(_Gui_button_dye)
    3209                      .dwattr DW$398, DW_AT_high_pc(0x00)
    3210                      .dwattr DW$398, DW_AT_begin_file("WIDGET\GUI_widget_button.c")
TMS320C2000 COFF Assembler PC v4.1.3 Thu Nov 29 16:03:34 2012

Tools Copyright (c) 1996-2006 Texas Instruments Incorporated
C:\DOCUME~1\ADMINI~1\LOCALS~1\Temp\TI9882                            PAGE   62

    3211                      .dwattr DW$398, DW_AT_begin_line(0x146)
    3212                      .dwattr DW$398, DW_AT_begin_column(0x06)
    3213                      .dwpsn  "WIDGET\GUI_widget_button.c",327,1
    3214              
    3215                      .dwfde DW$CIE
    3216              
    3217              ;***************************************************************
    3218              ;* FNAME: _Gui_button_dye               FR SIZE:   6           *
    3219              ;*                                                             *
    3220              ;* FUNCTION ENVIRONMENT                                        *
    3221              ;*                                                             *
    3222              ;* FUNCTION PROPERTIES                                         *
    3223              ;*                            0 Parameter,  6 Auto,  0 SOE     *
    3224              ;***************************************************************
    3225              
    3226              _Gui_button_dye:
    3227                      .dwcfa  0x1d, -2
    3228                      .dwcfa  0x1c, 26, 0
    3229                      .dwcfa  0x09, 40, 26
    3230 0000037b FE06          ADDB      SP,#6
    3231                      .dwcfa  0x1d, -8
    3232              ;* AR4   assigned to _hp
    3233              DW$399  .dwtag  DW_TAG_formal_parameter, DW_AT_name("hp"), DW_AT_symbol_name("_hp")
    3234                      .dwattr DW$399, DW_AT_type(*DW$T$54)
    3235                      .dwattr DW$399, DW_AT_location[DW_OP_reg12]
    3236              ;* AL    assigned to _bcolor
    3237              DW$400  .dwtag  DW_TAG_formal_parameter, DW_AT_name("bcolor"), DW_AT_symbol_name("_bcolor")
    3238                      .dwattr DW$400, DW_AT_type(*DW$T$11)
    3239                      .dwattr DW$400, DW_AT_location[DW_OP_reg0]
    3240              ;* AH    assigned to _fcolor
    3241              DW$401  .dwtag  DW_TAG_formal_parameter, DW_AT_name("fcolor"), DW_AT_symbol_name("_fcolor")
    3242                      .dwattr DW$401, DW_AT_type(*DW$T$11)
    3243                      .dwattr DW$401, DW_AT_location[DW_OP_reg1]
    3244              DW$402  .dwtag  DW_TAG_variable, DW_AT_name("hp"), DW_AT_symbol_name("_hp")
    3245                      .dwattr DW$402, DW_AT_type(*DW$T$54)
    3246                      .dwattr DW$402, DW_AT_location[DW_OP_breg20 -2]
    3247              DW$403  .dwtag  DW_TAG_variable, DW_AT_name("bcolor"), DW_AT_symbol_name("_bcolor")
    3248                      .dwattr DW$403, DW_AT_type(*DW$T$11)
    3249                      .dwattr DW$403, DW_AT_location[DW_OP_breg20 -3]
    3250              DW$404  .dwtag  DW_TAG_variable, DW_AT_name("fcolor"), DW_AT_symbol_name("_fcolor")
    3251                      .dwattr DW$404, DW_AT_type(*DW$T$11)
    3252                      .dwattr DW$404, DW_AT_location[DW_OP_breg20 -4]
    3253              DW$405  .dwtag  DW_TAG_variable, DW_AT_name("pbutton"), DW_AT_symbol_name("_pbutton")
    3254                      .dwattr DW$405, DW_AT_type(*DW$T$223)
    3255                      .dwattr DW$405, DW_AT_location[DW_OP_breg20 -6]
    3256 0000037c 9744          MOV       *-SP[4],AH            ; |327| 
    3257 0000037d 9643          MOV       *-SP[3],AL            ; |327| 
    3258 0000037e A842          MOVL      *-SP[2],XAR4          ; |327| 
    3259                      .dwpsn  "WIDGET\GUI_widget_button.c",329,2
    3260 0000037f 8A42          MOVL      XAR4,*-SP[2]          ; |329| 
    3261 00000380 7640'         LCR       #_GUI_button_data_obtain ; |329| 
         00000381 00EB 
    3262                      ; call occurs [#_GUI_button_data_obtain] ; |329| 
    3263 00000382 A846          MOVL      *-SP[6],XAR4          ; |329| 
    3264                      .dwpsn  "WIDGET\GUI_widget_button.c",330,2
TMS320C2000 COFF Assembler PC v4.1.3 Thu Nov 29 16:03:34 2012

Tools Copyright (c) 1996-2006 Texas Instruments Incorporated
C:\DOCUME~1\ADMINI~1\LOCALS~1\Temp\TI9882                            PAGE   63

    3265 00000383 8A42          MOVL      XAR4,*-SP[2]          ; |330| 
    3266 00000384 D008          MOVB      XAR0,#8               ; |330| 
    3267 00000385 9294          MOV       AL,*+XAR4[AR0]        ; |330| 
    3268 00000386 5206          CMPB      AL,#6                 ; |330| 
    3269 00000387 ED2A          BF        L45,NEQ               ; |330| 
    3270                      ; branchcc occurs ; |330| 
    3271                      .dwpsn  "WIDGET\GUI_widget_button.c",331,3
    3272                      .dwpsn  "WIDGET\GUI_widget_button.c",332,2
    3273 00000388 8A42          MOVL      XAR4,*-SP[2]          ; |332| 
    3274 00000389 CCFC          AND       AL,*+XAR4[7],#0x0100  ; |332| 
         0000038a 0100 
    3275 0000038b 1BA9          CMP       AL,#256               ; |332| 
         0000038c 0100 
    3276 0000038d ED24          BF        L45,NEQ               ; |332| 
    3277                      ; branchcc occurs ; |332| 
    3278                      .dwpsn  "WIDGET\GUI_widget_button.c",333,3
    3279                      .dwpsn  "WIDGET\GUI_widget_button.c",334,2
    3280 0000038e 8A42          MOVL      XAR4,*-SP[2]          ; |334| 
    3281 0000038f 7640!         LCR       #_GUI_window_hwin_req ; |334| 
         00000390 0000 
    3282                      ; call occurs [#_GUI_window_hwin_req] ; |334| 
    3283                      .dwpsn  "WIDGET\GUI_widget_button.c",335,2
    3284 00000391 8A46          MOVL      XAR4,*-SP[6]          ; |335| 
    3285 00000392 D019          MOVB      XAR0,#25              ; |335| 
    3286 00000393 9243          MOV       AL,*-SP[3]            ; |335| 
    3287 00000394 9694          MOV       *+XAR4[AR0],AL        ; |335| 
    3288                      .dwpsn  "WIDGET\GUI_widget_button.c",336,2
    3289 00000395 8A46          MOVL      XAR4,*-SP[6]          ; |336| 
    3290 00000396 D01A          MOVB      XAR0,#26              ; |336| 
    3291 00000397 9244          MOV       AL,*-SP[4]            ; |336| 
    3292 00000398 9694          MOV       *+XAR4[AR0],AL        ; |336| 
    3293                      .dwpsn  "WIDGET\GUI_widget_button.c",337,2
    3294 00000399 9243          MOV       AL,*-SP[3]            ; |337| 
    3295 0000039a 7640!         LCR       #_GUI_set_Bgcolor     ; |337| 
         0000039b 0000 
    3296                      ; call occurs [#_GUI_set_Bgcolor] ; |337| 
    3297                      .dwpsn  "WIDGET\GUI_widget_button.c",338,2
    3298 0000039c 8A42          MOVL      XAR4,*-SP[2]          ; |338| 
    3299 0000039d 92CC          MOV       AL,*+XAR4[1]          ; |338| 
    3300 0000039e 8A42          MOVL      XAR4,*-SP[2]          ; |338| 
    3301 0000039f 93D4          MOV       AH,*+XAR4[2]          ; |338| 
    3302 000003a0 8A42          MOVL      XAR4,*-SP[2]          ; |338| 
    3303 000003a1 9C02          ADDB      AL,#2                 ; |338| 
    3304 000003a2 88A9          MOVZ      AR6,AL                ; |338| 
    3305 000003a3 92DC          MOV       AL,*+XAR4[3]          ; |338| 
    3306 000003a4 8342          MOVL      XAR5,*-SP[2]          ; |338| 
    3307 000003a5 9CFD          ADDB      AL,#-3
    3308 000003a6 5CA9          MOVZ      AR4,AL                ; |338| 
    3309 000003a7 9D01          ADDB      AH,#1                 ; |338| 
    3310 000003a8 92E5          MOV       AL,*+XAR5[4]          ; |338| 
    3311 000003a9 9CFE          ADDB      AL,#-2
    3312 000003aa 5DA9          MOVZ      AR5,AL                ; |338| 
    3313 000003ab 92A6          MOV       AL,AR6                ; |338| 
    3314 000003ac 7640!         LCR       #_GUI_fill_Rect       ; |338| 
         000003ad 0000 
TMS320C2000 COFF Assembler PC v4.1.3 Thu Nov 29 16:03:34 2012

Tools Copyright (c) 1996-2006 Texas Instruments Incorporated
C:\DOCUME~1\ADMINI~1\LOCALS~1\Temp\TI9882                            PAGE   64

    3315                      ; call occurs [#_GUI_fill_Rect] ; |338| 
    3316                      .dwpsn  "WIDGET\GUI_widget_button.c",340,2
    3317 000003ae 8A42          MOVL      XAR4,*-SP[2]          ; |340| 
    3318 000003af 7640!         LCR       #_GUI_window_hwin_release ; |340| 
         000003b0 0000 
    3319                      ; call occurs [#_GUI_window_hwin_release] ; |340| 
    3320                      .dwpsn  "WIDGET\GUI_widget_button.c",341,2
    3321              L45:    
    3322                      .dwpsn  "WIDGET\GUI_widget_button.c",342,1
    3323 000003b1 FE86          SUBB      SP,#6
    3324                      .dwcfa  0x1d, -2
    3325 000003b2 0006          LRETR
    3326                      ; return occurs
    3327                      .dwattr DW$398, DW_AT_end_file("WIDGET\GUI_widget_button.c")
    3328                      .dwattr DW$398, DW_AT_end_line(0x156)
    3329                      .dwattr DW$398, DW_AT_end_column(0x01)
    3330                      .dwendentry
    3331                      .dwendtag DW$398
    3332              
    3333 000003b3               .sect   ".text"
    3334                      .global _GUI_button_callback_mount
    3335              
    3336              DW$406  .dwtag  DW_TAG_subprogram, DW_AT_name("GUI_button_callback_mount"), DW_AT_symbol_name("_GUI_button_ca
    3337                      .dwattr DW$406, DW_AT_low_pc(_GUI_button_callback_mount)
    3338                      .dwattr DW$406, DW_AT_high_pc(0x00)
    3339                      .dwattr DW$406, DW_AT_begin_file("WIDGET\GUI_widget_button.c")
    3340                      .dwattr DW$406, DW_AT_begin_line(0x15f)
    3341                      .dwattr DW$406, DW_AT_begin_column(0x06)
    3342                      .dwpsn  "WIDGET\GUI_widget_button.c",352,1
    3343              
    3344                      .dwfde DW$CIE
    3345              
    3346              ;***************************************************************
    3347              ;* FNAME: _GUI_button_callback_mount    FR SIZE:   6           *
    3348              ;*                                                             *
    3349              ;* FUNCTION ENVIRONMENT                                        *
    3350              ;*                                                             *
    3351              ;* FUNCTION PROPERTIES                                         *
    3352              ;*                            0 Parameter,  6 Auto,  0 SOE     *
    3353              ;***************************************************************
    3354              
    3355              _GUI_button_callback_mount:
    3356                      .dwcfa  0x1d, -2
    3357                      .dwcfa  0x1c, 26, 0
    3358                      .dwcfa  0x09, 40, 26
    3359 000003b3 FE06          ADDB      SP,#6
    3360                      .dwcfa  0x1d, -8
    3361              ;* AR4   assigned to _hp
    3362              DW$407  .dwtag  DW_TAG_formal_parameter, DW_AT_name("hp"), DW_AT_symbol_name("_hp")
    3363                      .dwattr DW$407, DW_AT_type(*DW$T$54)
    3364                      .dwattr DW$407, DW_AT_location[DW_OP_reg12]
    3365              ;* AR5   assigned to _callback
    3366              DW$408  .dwtag  DW_TAG_formal_parameter, DW_AT_name("callback"), DW_AT_symbol_name("_callback")
    3367                      .dwattr DW$408, DW_AT_type(*DW$T$44)
    3368                      .dwattr DW$408, DW_AT_location[DW_OP_reg14]
TMS320C2000 COFF Assembler PC v4.1.3 Thu Nov 29 16:03:34 2012

Tools Copyright (c) 1996-2006 Texas Instruments Incorporated
C:\DOCUME~1\ADMINI~1\LOCALS~1\Temp\TI9882                            PAGE   65

    3369              DW$409  .dwtag  DW_TAG_variable, DW_AT_name("hp"), DW_AT_symbol_name("_hp")
    3370                      .dwattr DW$409, DW_AT_type(*DW$T$54)
    3371                      .dwattr DW$409, DW_AT_location[DW_OP_breg20 -2]
    3372              DW$410  .dwtag  DW_TAG_variable, DW_AT_name("callback"), DW_AT_symbol_name("_callback")
    3373                      .dwattr DW$410, DW_AT_type(*DW$T$44)
    3374                      .dwattr DW$410, DW_AT_location[DW_OP_breg20 -4]
    3375              DW$411  .dwtag  DW_TAG_variable, DW_AT_name("pbutton"), DW_AT_symbol_name("_pbutton")
    3376                      .dwattr DW$411, DW_AT_type(*DW$T$223)
    3377                      .dwattr DW$411, DW_AT_location[DW_OP_breg20 -6]
    3378 000003b4 A044          MOVL      *-SP[4],XAR5          ; |352| 
    3379 000003b5 A842          MOVL      *-SP[2],XAR4          ; |352| 
    3380                      .dwpsn  "WIDGET\GUI_widget_button.c",354,2
    3381 000003b6 8A42          MOVL      XAR4,*-SP[2]          ; |354| 
    3382 000003b7 7640'         LCR       #_GUI_button_data_obtain ; |354| 
         000003b8 00EB 
    3383                      ; call occurs [#_GUI_button_data_obtain] ; |354| 
    3384 000003b9 A846          MOVL      *-SP[6],XAR4          ; |354| 
    3385                      .dwpsn  "WIDGET\GUI_widget_button.c",355,2
    3386 000003ba 0644          MOVL      ACC,*-SP[4]           ; |355| 
    3387 000003bb 8A46          MOVL      XAR4,*-SP[6]          ; |355| 
    3388 000003bc D01C          MOVB      XAR0,#28              ; |355| 
    3389 000003bd 1E94          MOVL      *+XAR4[AR0],ACC       ; |355| 
    3390                      .dwpsn  "WIDGET\GUI_widget_button.c",356,2
    3391                      .dwpsn  "WIDGET\GUI_widget_button.c",357,1
    3392 000003be FE86          SUBB      SP,#6
    3393                      .dwcfa  0x1d, -2
    3394 000003bf 0006          LRETR
    3395                      ; return occurs
    3396                      .dwattr DW$406, DW_AT_end_file("WIDGET\GUI_widget_button.c")
    3397                      .dwattr DW$406, DW_AT_end_line(0x165)
    3398                      .dwattr DW$406, DW_AT_end_column(0x01)
    3399                      .dwendentry
    3400                      .dwendtag DW$406
    3401              
    3402 000003c0               .sect   ".text"
    3403                      .global _GUI_button_title_display
    3404              
    3405              DW$412  .dwtag  DW_TAG_subprogram, DW_AT_name("GUI_button_title_display"), DW_AT_symbol_name("_GUI_button_tit
    3406                      .dwattr DW$412, DW_AT_low_pc(_GUI_button_title_display)
    3407                      .dwattr DW$412, DW_AT_high_pc(0x00)
    3408                      .dwattr DW$412, DW_AT_begin_file("WIDGET\GUI_widget_button.c")
    3409                      .dwattr DW$412, DW_AT_begin_line(0x166)
    3410                      .dwattr DW$412, DW_AT_begin_column(0x07)
    3411                      .dwpsn  "WIDGET\GUI_widget_button.c",359,1
    3412              
    3413                      .dwfde DW$CIE
    3414              
    3415              ;***************************************************************
    3416              ;* FNAME: _GUI_button_title_display     FR SIZE:  10           *
    3417              ;*                                                             *
    3418              ;* FUNCTION ENVIRONMENT                                        *
    3419              ;*                                                             *
    3420              ;* FUNCTION PROPERTIES                                         *
    3421              ;*                            1 Parameter,  9 Auto,  0 SOE     *
    3422              ;***************************************************************
TMS320C2000 COFF Assembler PC v4.1.3 Thu Nov 29 16:03:34 2012

Tools Copyright (c) 1996-2006 Texas Instruments Incorporated
C:\DOCUME~1\ADMINI~1\LOCALS~1\Temp\TI9882                            PAGE   66

    3423              
    3424              _GUI_button_title_display:
    3425                      .dwcfa  0x1d, -2
    3426                      .dwcfa  0x1c, 26, 0
    3427                      .dwcfa  0x09, 40, 26
    3428 000003c0 FE0A          ADDB      SP,#10
    3429                      .dwcfa  0x1d, -12
    3430              ;* AR4   assigned to _hp
    3431              DW$413  .dwtag  DW_TAG_formal_parameter, DW_AT_name("hp"), DW_AT_symbol_name("_hp")
    3432                      .dwattr DW$413, DW_AT_type(*DW$T$54)
    3433                      .dwattr DW$413, DW_AT_location[DW_OP_reg12]
    3434              ;* AR5   assigned to _title
    3435              DW$414  .dwtag  DW_TAG_formal_parameter, DW_AT_name("title"), DW_AT_symbol_name("_title")
    3436                      .dwattr DW$414, DW_AT_type(*DW$T$52)
    3437                      .dwattr DW$414, DW_AT_location[DW_OP_reg14]
    3438              DW$415  .dwtag  DW_TAG_variable, DW_AT_name("hp"), DW_AT_symbol_name("_hp")
    3439                      .dwattr DW$415, DW_AT_type(*DW$T$54)
    3440                      .dwattr DW$415, DW_AT_location[DW_OP_breg20 -4]
    3441              DW$416  .dwtag  DW_TAG_variable, DW_AT_name("title"), DW_AT_symbol_name("_title")
    3442                      .dwattr DW$416, DW_AT_type(*DW$T$52)
    3443                      .dwattr DW$416, DW_AT_location[DW_OP_breg20 -6]
    3444              DW$417  .dwtag  DW_TAG_variable, DW_AT_name("x"), DW_AT_symbol_name("_x")
    3445                      .dwattr DW$417, DW_AT_type(*DW$T$10)
    3446                      .dwattr DW$417, DW_AT_location[DW_OP_breg20 -7]
    3447              DW$418  .dwtag  DW_TAG_variable, DW_AT_name("y"), DW_AT_symbol_name("_y")
    3448                      .dwattr DW$418, DW_AT_type(*DW$T$10)
    3449                      .dwattr DW$418, DW_AT_location[DW_OP_breg20 -8]
    3450              DW$419  .dwtag  DW_TAG_variable, DW_AT_name("pbutton"), DW_AT_symbol_name("_pbutton")
    3451                      .dwattr DW$419, DW_AT_type(*DW$T$223)
    3452                      .dwattr DW$419, DW_AT_location[DW_OP_breg20 -10]
    3453 000003c1 A046          MOVL      *-SP[6],XAR5          ; |359| 
    3454 000003c2 A844          MOVL      *-SP[4],XAR4          ; |359| 
    3455                      .dwpsn  "WIDGET\GUI_widget_button.c",360,6
    3456 000003c3 8A46          MOVL      XAR4,*-SP[6]          ; |360| 
    3457 000003c4 7640!         LCR       #_global_strlen       ; |360| 
         000003c5 0000 
    3458                      ; call occurs [#_global_strlen] ; |360| 
    3459 000003c6 8A44          MOVL      XAR4,*-SP[4]          ; |360| 
    3460 000003c7 5603          MOV       ACC,AL << #3          ; |360| 
         000003c8 03A9 
    3461 000003c9 93DC          MOV       AH,*+XAR4[3]          ; |360| 
    3462 000003ca 9FA9          SUB       AH,AL                 ; |360| 
    3463 000003cb FFD0          LSR       AH,1                  ; |360| 
    3464 000003cc 9747          MOV       *-SP[7],AH            ; |360| 
    3465                      .dwpsn  "WIDGET\GUI_widget_button.c",361,6
    3466 000003cd 8A44          MOVL      XAR4,*-SP[4]          ; |361| 
    3467 000003ce 92E4          MOV       AL,*+XAR4[4]          ; |361| 
    3468 000003cf 9648          MOV       *-SP[8],AL            ; |361| 
    3469                      .dwpsn  "WIDGET\GUI_widget_button.c",363,2
    3470 000003d0 8A44          MOVL      XAR4,*-SP[4]          ; |363| 
    3471 000003d1 7640'         LCR       #_GUI_button_data_obtain ; |363| 
         000003d2 00EB 
    3472                      ; call occurs [#_GUI_button_data_obtain] ; |363| 
    3473 000003d3 A84A          MOVL      *-SP[10],XAR4         ; |363| 
    3474                      .dwpsn  "WIDGET\GUI_widget_button.c",364,2
TMS320C2000 COFF Assembler PC v4.1.3 Thu Nov 29 16:03:34 2012

Tools Copyright (c) 1996-2006 Texas Instruments Incorporated
C:\DOCUME~1\ADMINI~1\LOCALS~1\Temp\TI9882                            PAGE   67

    3475 000003d4 9248          MOV       AL,*-SP[8]            ; |364| 
    3476 000003d5 5210          CMPB      AL,#16                ; |364| 
    3477 000003d6 6507          B         L46,LEQ               ; |364| 
    3478                      ; branchcc occurs ; |364| 
    3479 000003d7 8A44          MOVL      XAR4,*-SP[4]          ; |364| 
    3480 000003d8 92E4          MOV       AL,*+XAR4[4]          ; |364| 
    3481 000003d9 9CF0          ADDB      AL,#-16
    3482 000003da FFC0          LSR       AL,1                  ; |364| 
    3483 000003db 9648          MOV       *-SP[8],AL            ; |364| 
    3484 000003dc 6F02          B         L47,UNC               ; |364| 
    3485                      ; branch occurs ; |364| 
    3486 000003dd       L46:    
    3487 000003dd 2B48          MOV       *-SP[8],#0            ; |364| 
    3488              L47:    
    3489                      .dwpsn  "WIDGET\GUI_widget_button.c",365,2
    3490 000003de 9247          MOV       AL,*-SP[7]            ; |365| 
    3491 000003df 6403          B         L48,LT                ; |365| 
    3492                      ; branchcc occurs ; |365| 
    3493 000003e0 9248          MOV       AL,*-SP[8]            ; |365| 
    3494 000003e1 6303          B         L49,GEQ               ; |365| 
    3495                      ; branchcc occurs ; |365| 
    3496              L48:    
    3497                      .dwpsn  "WIDGET\GUI_widget_button.c",365,24
    3498 000003e2 9A00          MOVB      AL,#0
    3499 000003e3 6F4F          B         L54,UNC               ; |365| 
    3500                      ; branch occurs ; |365| 
    3501              L49:    
    3502                      .dwpsn  "WIDGET\GUI_widget_button.c",366,2
    3503 000003e4 8A44          MOVL      XAR4,*-SP[4]          ; |366| 
    3504 000003e5 D008          MOVB      XAR0,#8               ; |366| 
    3505 000003e6 9294          MOV       AL,*+XAR4[AR0]        ; |366| 
    3506 000003e7 5206          CMPB      AL,#6                 ; |366| 
    3507 000003e8 EC03          BF        L50,EQ                ; |366| 
    3508                      ; branchcc occurs ; |366| 
    3509                      .dwpsn  "WIDGET\GUI_widget_button.c",367,3
    3510 000003e9 9A00          MOVB      AL,#0
    3511 000003ea 6F48          B         L54,UNC               ; |367| 
    3512                      ; branch occurs ; |367| 
    3513              L50:    
    3514                      .dwpsn  "WIDGET\GUI_widget_button.c",368,2
    3515 000003eb 8A44          MOVL      XAR4,*-SP[4]          ; |368| 
    3516 000003ec CCFC          AND       AL,*+XAR4[7],#0x0100  ; |368| 
         000003ed 0100 
    3517 000003ee 1BA9          CMP       AL,#256               ; |368| 
         000003ef 0100 
    3518 000003f0 EC03          BF        L51,EQ                ; |368| 
    3519                      ; branchcc occurs ; |368| 
    3520                      .dwpsn  "WIDGET\GUI_widget_button.c",369,3
    3521 000003f1 9A00          MOVB      AL,#0
    3522 000003f2 6F40          B         L54,UNC               ; |369| 
    3523                      ; branch occurs ; |369| 
    3524              L51:    
    3525                      .dwpsn  "WIDGET\GUI_widget_button.c",370,2
    3526 000003f3 8A46          MOVL      XAR4,*-SP[6]          ; |370| 
    3527 000003f4 7640!         LCR       #_global_strlen       ; |370| 
TMS320C2000 COFF Assembler PC v4.1.3 Thu Nov 29 16:03:34 2012

Tools Copyright (c) 1996-2006 Texas Instruments Incorporated
C:\DOCUME~1\ADMINI~1\LOCALS~1\Temp\TI9882                            PAGE   68

         000003f5 0000 
    3528                      ; call occurs [#_global_strlen] ; |370| 
    3529 000003f6 8A44          MOVL      XAR4,*-SP[4]          ; |370| 
    3530 000003f7 5603          MOV       ACC,AL << #3          ; |370| 
         000003f8 03A9 
    3531 000003f9 93DC          MOV       AH,*+XAR4[3]          ; |370| 
    3532 000003fa 9DFE          ADDB      AH,#-2
    3533 000003fb 54A8          CMP       AL,AH                 ; |370| 
    3534 000003fc 6903          B         L52,LOS               ; |370| 
    3535                      ; branchcc occurs ; |370| 
    3536                      .dwpsn  "WIDGET\GUI_widget_button.c",371,3
    3537 000003fd 9A00          MOVB      AL,#0
    3538 000003fe 6F34          B         L54,UNC               ; |371| 
    3539                      ; branch occurs ; |371| 
    3540              L52:    
    3541                      .dwpsn  "WIDGET\GUI_widget_button.c",372,2
    3542 000003ff 8A44          MOVL      XAR4,*-SP[4]          ; |372| 
    3543 00000400 7640!         LCR       #_GUI_window_hwin_req ; |372| 
         00000401 0000 
    3544                      ; call occurs [#_GUI_window_hwin_req] ; |372| 
    3545                      .dwpsn  "WIDGET\GUI_widget_button.c",373,2
    3546 00000402 8A4A          MOVL      XAR4,*-SP[10]         ; |373| 
    3547 00000403 D019          MOVB      XAR0,#25              ; |373| 
    3548 00000404 9294          MOV       AL,*+XAR4[AR0]        ; |373| 
    3549 00000405 7640!         LCR       #_GUI_set_Bgcolor     ; |373| 
         00000406 0000 
    3550                      ; call occurs [#_GUI_set_Bgcolor] ; |373| 
    3551                      .dwpsn  "WIDGET\GUI_widget_button.c",374,2
    3552 00000407 8A4A          MOVL      XAR4,*-SP[10]         ; |374| 
    3553 00000408 D01A          MOVB      XAR0,#26              ; |374| 
    3554 00000409 9294          MOV       AL,*+XAR4[AR0]        ; |374| 
    3555 0000040a 7640!         LCR       #_GUI_set_Fgcolor     ; |374| 
         0000040b 0000 
    3556                      ; call occurs [#_GUI_set_Fgcolor] ; |374| 
    3557                      .dwpsn  "WIDGET\GUI_widget_button.c",375,2
    3558 0000040c 8344          MOVL      XAR5,*-SP[4]          ; |375| 
    3559 0000040d 8A44          MOVL      XAR4,*-SP[4]          ; |375| 
    3560 0000040e 92E5          MOV       AL,*+XAR5[4]          ; |375| 
    3561 0000040f 94D4          ADD       AL,*+XAR4[2]          ; |375| 
    3562 00000410 9641          MOV       *-SP[1],AL            ; |375| 
    3563 00000411 8A44          MOVL      XAR4,*-SP[4]          ; |375| 
    3564 00000412 9247          MOV       AL,*-SP[7]            ; |375| 
    3565 00000413 94CC          ADD       AL,*+XAR4[1]          ; |375| 
    3566 00000414 8A44          MOVL      XAR4,*-SP[4]          ; |375| 
    3567 00000415 9348          MOV       AH,*-SP[8]            ; |375| 
    3568 00000416 8344          MOVL      XAR5,*-SP[4]          ; |375| 
    3569 00000417 95D4          ADD       AH,*+XAR4[2]          ; |375| 
    3570 00000418 8A44          MOVL      XAR4,*-SP[4]          ; |375| 
    3571 00000419 88A9          MOVZ      AR6,AL                ; |375| 
    3572 0000041a 92DD          MOV       AL,*+XAR5[3]          ; |375| 
    3573 0000041b 94CC          ADD       AL,*+XAR4[1]          ; |375| 
    3574 0000041c 5DA9          MOVZ      AR5,AL                ; |375| 
    3575 0000041d 8A46          MOVL      XAR4,*-SP[6]          ; |375| 
    3576 0000041e 92A6          MOV       AL,AR6                ; |375| 
    3577 0000041f 7640!         LCR       #_GUI_print_string    ; |375| 
TMS320C2000 COFF Assembler PC v4.1.3 Thu Nov 29 16:03:34 2012

Tools Copyright (c) 1996-2006 Texas Instruments Incorporated
C:\DOCUME~1\ADMINI~1\LOCALS~1\Temp\TI9882                            PAGE   69

         00000420 0000 
    3578                      ; call occurs [#_GUI_print_string] ; |375| 
    3579                      .dwpsn  "WIDGET\GUI_widget_button.c",380,2
    3580 00000421 8A4A          MOVL      XAR4,*-SP[10]         ; |380| 
    3581 00000422 8346          MOVL      XAR5,*-SP[6]          ; |380| 
    3582 00000423 7640!         LCR       #_GUI_strcpy          ; |380| 
         00000424 0000 
    3583                      ; call occurs [#_GUI_strcpy] ; |380| 
    3584                      .dwpsn  "WIDGET\GUI_widget_button.c",381,2
    3585 00000425 8A44          MOVL      XAR4,*-SP[4]          ; |381| 
    3586 00000426 7640!         LCR       #_GUI_window_hwin_release ; |381| 
         00000427 0000 
    3587                      ; call occurs [#_GUI_window_hwin_release] ; |381| 
    3588                      .dwpsn  "WIDGET\GUI_widget_button.c",382,5
    3589 00000428 C444          MOVL      XAR6,*-SP[4]          ; |382| 
    3590 00000429 761F-         MOVW      DP,#_m_GUI_CUR_button
         0000042a 0000 
    3591 0000042b 061E-         MOVL      ACC,@_m_GUI_CUR_button ; |382| 
    3592 0000042c 0FA6          CMPL      ACC,XAR6              ; |382| 
    3593 0000042d ED04          BF        L53,NEQ               ; |382| 
    3594                      ; branchcc occurs ; |382| 
    3595                      .dwpsn  "WIDGET\GUI_widget_button.c",383,2
    3596 0000042e 8A44          MOVL      XAR4,*-SP[4]          ; |383| 
    3597 0000042f 7640'         LCR       #_GUI_button_select   ; |383| 
         00000430 01C8 
    3598                      ; call occurs [#_GUI_button_select] ; |383| 
    3599              L53:    
    3600                      .dwpsn  "WIDGET\GUI_widget_button.c",385,2
    3601 00000431 9A01          MOVB      AL,#1                 ; |385| 
    3602              L54:    
    3603                      .dwpsn  "WIDGET\GUI_widget_button.c",386,1
    3604 00000432 FE8A          SUBB      SP,#10                ; |385| 
    3605                      .dwcfa  0x1d, -2
    3606 00000433 0006          LRETR
    3607                      ; return occurs
    3608                      .dwattr DW$412, DW_AT_end_file("WIDGET\GUI_widget_button.c")
    3609                      .dwattr DW$412, DW_AT_end_line(0x182)
    3610                      .dwattr DW$412, DW_AT_end_column(0x01)
    3611                      .dwendentry
    3612                      .dwendtag DW$412
    3613              
    3614 00000434               .sect   ".text"
    3615                      .global _GUI_button_id_mod
    3616              
    3617              DW$420  .dwtag  DW_TAG_subprogram, DW_AT_name("GUI_button_id_mod"), DW_AT_symbol_name("_GUI_button_id_mod")
    3618                      .dwattr DW$420, DW_AT_low_pc(_GUI_button_id_mod)
    3619                      .dwattr DW$420, DW_AT_high_pc(0x00)
    3620                      .dwattr DW$420, DW_AT_begin_file("WIDGET\GUI_widget_button.c")
    3621                      .dwattr DW$420, DW_AT_begin_line(0x183)
    3622                      .dwattr DW$420, DW_AT_begin_column(0x07)
    3623                      .dwpsn  "WIDGET\GUI_widget_button.c",388,1
    3624              
    3625                      .dwfde DW$CIE
    3626              
    3627              ;***************************************************************
TMS320C2000 COFF Assembler PC v4.1.3 Thu Nov 29 16:03:34 2012

Tools Copyright (c) 1996-2006 Texas Instruments Incorporated
C:\DOCUME~1\ADMINI~1\LOCALS~1\Temp\TI9882                            PAGE   70

    3628              ;* FNAME: _GUI_button_id_mod            FR SIZE:   4           *
    3629              ;*                                                             *
    3630              ;* FUNCTION ENVIRONMENT                                        *
    3631              ;*                                                             *
    3632              ;* FUNCTION PROPERTIES                                         *
    3633              ;*                            0 Parameter,  3 Auto,  0 SOE     *
    3634              ;***************************************************************
    3635              
    3636              _GUI_button_id_mod:
    3637                      .dwcfa  0x1d, -2
    3638                      .dwcfa  0x1c, 26, 0
    3639                      .dwcfa  0x09, 40, 26
    3640 00000434 FE04          ADDB      SP,#4
    3641                      .dwcfa  0x1d, -6
    3642              ;* AR4   assigned to _hp
    3643              DW$421  .dwtag  DW_TAG_formal_parameter, DW_AT_name("hp"), DW_AT_symbol_name("_hp")
    3644                      .dwattr DW$421, DW_AT_type(*DW$T$54)
    3645                      .dwattr DW$421, DW_AT_location[DW_OP_reg12]
    3646              ;* AL    assigned to _id
    3647              DW$422  .dwtag  DW_TAG_formal_parameter, DW_AT_name("id"), DW_AT_symbol_name("_id")
    3648                      .dwattr DW$422, DW_AT_type(*DW$T$27)
    3649                      .dwattr DW$422, DW_AT_location[DW_OP_reg0]
    3650              DW$423  .dwtag  DW_TAG_variable, DW_AT_name("hp"), DW_AT_symbol_name("_hp")
    3651                      .dwattr DW$423, DW_AT_type(*DW$T$54)
    3652                      .dwattr DW$423, DW_AT_location[DW_OP_breg20 -2]
    3653              DW$424  .dwtag  DW_TAG_variable, DW_AT_name("id"), DW_AT_symbol_name("_id")
    3654                      .dwattr DW$424, DW_AT_type(*DW$T$27)
    3655                      .dwattr DW$424, DW_AT_location[DW_OP_breg20 -3]
    3656 00000435 9643          MOV       *-SP[3],AL            ; |388| 
    3657 00000436 A842          MOVL      *-SP[2],XAR4          ; |388| 
    3658                      .dwpsn  "WIDGET\GUI_widget_button.c",389,2
    3659 00000437 8A42          MOVL      XAR4,*-SP[2]          ; |389| 
    3660 00000438 D008          MOVB      XAR0,#8               ; |389| 
    3661 00000439 9294          MOV       AL,*+XAR4[AR0]        ; |389| 
    3662 0000043a 5206          CMPB      AL,#6                 ; |389| 
    3663 0000043b ED0E          BF        L55,NEQ               ; |389| 
    3664                      ; branchcc occurs ; |389| 
    3665 0000043c 9243          MOV       AL,*-SP[3]            ; |389| 
    3666 0000043d 52FF          CMPB      AL,#255               ; |389| 
    3667 0000043e 670B          B         L55,HIS               ; |389| 
    3668                      ; branchcc occurs ; |389| 
    3669                      .dwpsn  "WIDGET\GUI_widget_button.c",392,3
    3670 0000043f 8A42          MOVL      XAR4,*-SP[2]          ; |392| 
    3671 00000440 CCFC          AND       AL,*+XAR4[7],#0xff00  ; |392| 
         00000441 FF00 
    3672 00000442 8A42          MOVL      XAR4,*-SP[2]          ; |392| 
    3673 00000443 96FC          MOV       *+XAR4[7],AL          ; |392| 
    3674                      .dwpsn  "WIDGET\GUI_widget_button.c",393,3
    3675 00000444 8A42          MOVL      XAR4,*-SP[2]          ; |393| 
    3676 00000445 9243          MOV       AL,*-SP[3]            ; |393| 
    3677 00000446 98FC          OR        *+XAR4[7],AL          ; |393| 
    3678                      .dwpsn  "WIDGET\GUI_widget_button.c",394,3
    3679 00000447 9A01          MOVB      AL,#1                 ; |394| 
    3680 00000448 6F02          B         L56,UNC               ; |394| 
    3681                      ; branch occurs ; |394| 
TMS320C2000 COFF Assembler PC v4.1.3 Thu Nov 29 16:03:34 2012

Tools Copyright (c) 1996-2006 Texas Instruments Incorporated
C:\DOCUME~1\ADMINI~1\LOCALS~1\Temp\TI9882                            PAGE   71

    3682              L55:    
    3683                      .dwpsn  "WIDGET\GUI_widget_button.c",396,2
    3684 00000449 9A00          MOVB      AL,#0
    3685              L56:    
    3686                      .dwpsn  "WIDGET\GUI_widget_button.c",397,1
    3687 0000044a FE84          SUBB      SP,#4                 ; |396| 
    3688                      .dwcfa  0x1d, -2
    3689 0000044b 0006          LRETR
    3690                      ; return occurs
    3691                      .dwattr DW$420, DW_AT_end_file("WIDGET\GUI_widget_button.c")
    3692                      .dwattr DW$420, DW_AT_end_line(0x18d)
    3693                      .dwattr DW$420, DW_AT_end_column(0x01)
    3694                      .dwendentry
    3695                      .dwendtag DW$420
    3696              
    3697 0000044c               .sect   ".text"
    3698                      .global _GUI_button_init
    3699              
    3700              DW$425  .dwtag  DW_TAG_subprogram, DW_AT_name("GUI_button_init"), DW_AT_symbol_name("_GUI_button_init")
    3701                      .dwattr DW$425, DW_AT_low_pc(_GUI_button_init)
    3702                      .dwattr DW$425, DW_AT_high_pc(0x00)
    3703                      .dwattr DW$425, DW_AT_begin_file("WIDGET\GUI_widget_button.c")
    3704                      .dwattr DW$425, DW_AT_begin_line(0x212)
    3705                      .dwattr DW$425, DW_AT_begin_column(0x06)
    3706                      .dwpsn  "WIDGET\GUI_widget_button.c",531,1
    3707              
    3708                      .dwfde DW$CIE
    3709              
    3710              ;***************************************************************
    3711              ;* FNAME: _GUI_button_init              FR SIZE:   0           *
    3712              ;*                                                             *
    3713              ;* FUNCTION ENVIRONMENT                                        *
    3714              ;*                                                             *
    3715              ;* FUNCTION PROPERTIES                                         *
    3716              ;*                            0 Parameter,  0 Auto,  0 SOE     *
    3717              ;***************************************************************
    3718              
    3719              _GUI_button_init:
    3720                      .dwcfa  0x1d, -2
    3721                      .dwcfa  0x1c, 26, 0
    3722                      .dwcfa  0x09, 40, 26
    3723                      .dwpsn  "WIDGET\GUI_widget_button.c",532,2
    3724 0000044c 761F-         MOVW      DP,#_m_GUI_button_Bgcor
         0000044d 0000 
    3725 0000044e 280D-         MOV       @_m_GUI_button_Bgcor,#10 ; |532| 
         0000044f 000A 
    3726                      .dwpsn  "WIDGET\GUI_widget_button.c",533,2
    3727 00000450 2811-         MOV       @_m_GUI_button_Fgcor,#255 ; |533| 
         00000451 00FF 
    3728                      .dwpsn  "WIDGET\GUI_widget_button.c",534,2
    3729 00000452 0200          MOVB      ACC,#0
    3730 00000453 1E1E-         MOVL      @_m_GUI_CUR_button,ACC ; |534| 
    3731                      .dwpsn  "WIDGET\GUI_widget_button.c",535,2
    3732                      .dwpsn  "WIDGET\GUI_widget_button.c",536,1
    3733 00000454 0006          LRETR
TMS320C2000 COFF Assembler PC v4.1.3 Thu Nov 29 16:03:34 2012

Tools Copyright (c) 1996-2006 Texas Instruments Incorporated
C:\DOCUME~1\ADMINI~1\LOCALS~1\Temp\TI9882                            PAGE   72

    3734                      ; return occurs
    3735                      .dwattr DW$425, DW_AT_end_file("WIDGET\GUI_widget_button.c")
    3736                      .dwattr DW$425, DW_AT_end_line(0x218)
    3737                      .dwattr DW$425, DW_AT_end_column(0x01)
    3738                      .dwendentry
    3739                      .dwendtag DW$425
    3740              
    3741 00000455               .sect   ".text"
    3742                      .global _GUI_checkBox_create
    3743              
    3744              DW$426  .dwtag  DW_TAG_subprogram, DW_AT_name("GUI_checkBox_create"), DW_AT_symbol_name("_GUI_checkBox_create
    3745                      .dwattr DW$426, DW_AT_low_pc(_GUI_checkBox_create)
    3746                      .dwattr DW$426, DW_AT_high_pc(0x00)
    3747                      .dwattr DW$426, DW_AT_begin_file("WIDGET\GUI_widget_checkbox.c")
    3748                      .dwattr DW$426, DW_AT_begin_line(0x0b)
    3749                      .dwattr DW$426, DW_AT_begin_column(0x08)
    3750                      .dwpsn  "WIDGET\GUI_widget_checkbox.c",19,1
    3751              
    3752                      .dwfde DW$CIE
    3753              
    3754              ;***************************************************************
    3755              ;* FNAME: _GUI_checkBox_create          FR SIZE:  12           *
    3756              ;*                                                             *
    3757              ;* FUNCTION ENVIRONMENT                                        *
    3758              ;*                                                             *
    3759              ;* FUNCTION PROPERTIES                                         *
    3760              ;*                            2 Parameter,  9 Auto,  0 SOE     *
    3761              ;***************************************************************
    3762              
    3763              _GUI_checkBox_create:
    3764                      .dwcfa  0x1d, -2
    3765                      .dwcfa  0x1c, 26, 0
    3766                      .dwcfa  0x09, 40, 26
    3767 00000455 FE0C          ADDB      SP,#12
    3768                      .dwcfa  0x1d, -14
    3769              ;* AR4   assigned to _title
    3770              DW$427  .dwtag  DW_TAG_formal_parameter, DW_AT_name("title"), DW_AT_symbol_name("_title")
    3771                      .dwattr DW$427, DW_AT_type(*DW$T$21)
    3772                      .dwattr DW$427, DW_AT_location[DW_OP_reg12]
    3773              ;* AL    assigned to _title_cor
    3774              DW$428  .dwtag  DW_TAG_formal_parameter, DW_AT_name("title_cor"), DW_AT_symbol_name("_title_cor")
    3775                      .dwattr DW$428, DW_AT_type(*DW$T$11)
    3776                      .dwattr DW$428, DW_AT_location[DW_OP_reg0]
    3777              ;* AH    assigned to _xcoord
    3778              DW$429  .dwtag  DW_TAG_formal_parameter, DW_AT_name("xcoord"), DW_AT_symbol_name("_xcoord")
    3779                      .dwattr DW$429, DW_AT_type(*DW$T$11)
    3780                      .dwattr DW$429, DW_AT_location[DW_OP_reg1]
    3781              DW$430  .dwtag  DW_TAG_formal_parameter, DW_AT_name("ycoord"), DW_AT_symbol_name("_ycoord")
    3782                      .dwattr DW$430, DW_AT_type(*DW$T$11)
    3783                      .dwattr DW$430, DW_AT_location[DW_OP_breg20 -15]
    3784              DW$431  .dwtag  DW_TAG_formal_parameter, DW_AT_name("flag"), DW_AT_symbol_name("_flag")
    3785                      .dwattr DW$431, DW_AT_type(*DW$T$11)
    3786                      .dwattr DW$431, DW_AT_location[DW_OP_breg20 -16]
    3787              ;* AR5   assigned to _fatherhp
    3788              DW$432  .dwtag  DW_TAG_formal_parameter, DW_AT_name("fatherhp"), DW_AT_symbol_name("_fatherhp")
TMS320C2000 COFF Assembler PC v4.1.3 Thu Nov 29 16:03:34 2012

Tools Copyright (c) 1996-2006 Texas Instruments Incorporated
C:\DOCUME~1\ADMINI~1\LOCALS~1\Temp\TI9882                            PAGE   73

    3789                      .dwattr DW$432, DW_AT_type(*DW$T$54)
    3790                      .dwattr DW$432, DW_AT_location[DW_OP_reg14]
    3791              DW$433  .dwtag  DW_TAG_variable, DW_AT_name("title"), DW_AT_symbol_name("_title")
    3792                      .dwattr DW$433, DW_AT_type(*DW$T$21)
    3793                      .dwattr DW$433, DW_AT_location[DW_OP_breg20 -4]
    3794              DW$434  .dwtag  DW_TAG_variable, DW_AT_name("title_cor"), DW_AT_symbol_name("_title_cor")
    3795                      .dwattr DW$434, DW_AT_type(*DW$T$11)
    3796                      .dwattr DW$434, DW_AT_location[DW_OP_breg20 -5]
    3797              DW$435  .dwtag  DW_TAG_variable, DW_AT_name("xcoord"), DW_AT_symbol_name("_xcoord")
    3798                      .dwattr DW$435, DW_AT_type(*DW$T$11)
    3799                      .dwattr DW$435, DW_AT_location[DW_OP_breg20 -6]
    3800              DW$436  .dwtag  DW_TAG_variable, DW_AT_name("fatherhp"), DW_AT_symbol_name("_fatherhp")
    3801                      .dwattr DW$436, DW_AT_type(*DW$T$54)
    3802                      .dwattr DW$436, DW_AT_location[DW_OP_breg20 -8]
    3803              DW$437  .dwtag  DW_TAG_variable, DW_AT_name("hp"), DW_AT_symbol_name("_hp")
    3804                      .dwattr DW$437, DW_AT_type(*DW$T$54)
    3805                      .dwattr DW$437, DW_AT_location[DW_OP_breg20 -10]
    3806              DW$438  .dwtag  DW_TAG_variable, DW_AT_name("len"), DW_AT_symbol_name("_len")
    3807                      .dwattr DW$438, DW_AT_type(*DW$T$11)
    3808                      .dwattr DW$438, DW_AT_location[DW_OP_breg20 -11]
    3809 00000456 A048          MOVL      *-SP[8],XAR5          ; |19| 
    3810 00000457 9746          MOV       *-SP[6],AH            ; |19| 
    3811 00000458 9645          MOV       *-SP[5],AL            ; |19| 
    3812 00000459 A844          MOVL      *-SP[4],XAR4          ; |19| 
    3813                      .dwpsn  "WIDGET\GUI_widget_checkbox.c",22,2
    3814 0000045a 8A44          MOVL      XAR4,*-SP[4]          ; |22| 
    3815 0000045b 7640!         LCR       #_global_strlen       ; |22| 
         0000045c 0000 
    3816                      ; call occurs [#_global_strlen] ; |22| 
    3817 0000045d 5603          MOV       ACC,AL << #3          ; |22| 
         0000045e 03A9 
    3818 0000045f 964B          MOV       *-SP[11],AL           ; |22| 
    3819                      .dwpsn  "WIDGET\GUI_widget_checkbox.c",23,2
    3820 00000460 8A48          MOVL      XAR4,*-SP[8]          ; |23| 
    3821 00000461 7640!         LCR       #_GUI_window_hwin_req ; |23| 
         00000462 0000 
    3822                      ; call occurs [#_GUI_window_hwin_req] ; |23| 
    3823                      .dwpsn  "WIDGET\GUI_widget_checkbox.c",24,2
    3824 00000463 2841          MOV       *-SP[1],#22           ; |24| 
         00000464 0016 
    3825 00000465 2B42          MOV       *-SP[2],#0            ; |24| 
    3826 00000466 924B          MOV       AL,*-SP[11]           ; |24| 
    3827 00000467 9C1E          ADDB      AL,#30                ; |24| 
    3828 00000468 5DA9          MOVZ      AR5,AL                ; |24| 
    3829 00000469 8A48          MOVL      XAR4,*-SP[8]          ; |24| 
    3830 0000046a 9246          MOV       AL,*-SP[6]            ; |24| 
    3831 0000046b 934F          MOV       AH,*-SP[15]           ; |24| 
    3832 0000046c 7640!         LCR       #_GUI_window_child_creat ; |24| 
         0000046d 0000 
    3833                      ; call occurs [#_GUI_window_child_creat] ; |24| 
    3834 0000046e A84A          MOVL      *-SP[10],XAR4         ; |24| 
    3835                      .dwpsn  "WIDGET\GUI_widget_checkbox.c",31,5
    3836 0000046f 8A4A          MOVL      XAR4,*-SP[10]         ; |31| 
    3837 00000470 7640!         LCR       #_GUI_window_hwin_req ; |31| 
         00000471 0000 
TMS320C2000 COFF Assembler PC v4.1.3 Thu Nov 29 16:03:34 2012

Tools Copyright (c) 1996-2006 Texas Instruments Incorporated
C:\DOCUME~1\ADMINI~1\LOCALS~1\Temp\TI9882                            PAGE   74

    3838                      ; call occurs [#_GUI_window_hwin_req] ; |31| 
    3839                      .dwpsn  "WIDGET\GUI_widget_checkbox.c",32,2
    3840 00000472 8A4A          MOVL      XAR4,*-SP[10]         ; |32| 
    3841 00000473 D01D          MOVB      XAR0,#29              ; |32| 
    3842 00000474 924B          MOV       AL,*-SP[11]           ; |32| 
    3843 00000475 9694          MOV       *+XAR4[AR0],AL        ; |32| 
    3844                      .dwpsn  "WIDGET\GUI_widget_checkbox.c",33,2
    3845 00000476 8A4A          MOVL      XAR4,*-SP[10]         ; |33| 
    3846 00000477 D008          MOVB      XAR0,#8               ; |33| 
    3847 00000478 2894          MOV       *+XAR4[AR0],#11       ; |33| 
         00000479 000B 
    3848                      .dwpsn  "WIDGET\GUI_widget_checkbox.c",34,2
    3849 0000047a 8A4A          MOVL      XAR4,*-SP[10]         ; |34| 
    3850 0000047b D01C          MOVB      XAR0,#28              ; |34| 
    3851 0000047c 2B94          MOV       *+XAR4[AR0],#0        ; |34| 
    3852                      .dwpsn  "WIDGET\GUI_widget_checkbox.c",35,2
    3853 0000047d 8A4A          MOVL      XAR4,*-SP[10]         ; |35| 
    3854 0000047e 9250          MOV       AL,*-SP[16]           ; |35| 
    3855 0000047f 96FC          MOV       *+XAR4[7],AL          ; |35| 
    3856                      .dwpsn  "WIDGET\GUI_widget_checkbox.c",36,5
    3857 00000480 9245          MOV       AL,*-SP[5]            ; |36| 
    3858 00000481 7640!         LCR       #_GUI_set_Fgcolor     ; |36| 
         00000482 0000 
    3859                      ; call occurs [#_GUI_set_Fgcolor] ; |36| 
    3860                      .dwpsn  "WIDGET\GUI_widget_checkbox.c",37,5
    3861 00000483 8A44          MOVL      XAR4,*-SP[4]          ; |37| 
    3862 00000484 9A00          MOVB      AL,#0
    3863 00000485 9B01          MOVB      AH,#1                 ; |37| 
    3864 00000486 7640!         LCR       #_GUI_string_display_At ; |37| 
         00000487 0000 
    3865                      ; call occurs [#_GUI_string_display_At] ; |37| 
    3866                      .dwpsn  "WIDGET\GUI_widget_checkbox.c",38,5
    3867 00000488 9AFF          MOVB      AL,#255               ; |38| 
    3868 00000489 7640!         LCR       #_GUI_set_Bgcolor     ; |38| 
         0000048a 0000 
    3869                      ; call occurs [#_GUI_set_Bgcolor] ; |38| 
    3870                      .dwpsn  "WIDGET\GUI_widget_checkbox.c",39,2
    3871 0000048b 8A4A          MOVL      XAR4,*-SP[10]         ; |39| 
    3872 0000048c 924B          MOV       AL,*-SP[11]           ; |39| 
    3873 0000048d 94CC          ADD       AL,*+XAR4[1]          ; |39| 
    3874 0000048e 8A4A          MOVL      XAR4,*-SP[10]         ; |39| 
    3875 0000048f 9C05          ADDB      AL,#5                 ; |39| 
    3876 00000490 93D4          MOV       AH,*+XAR4[2]          ; |39| 
    3877 00000491 D510          MOVB      XAR5,#16              ; |39| 
    3878 00000492 9D02          ADDB      AH,#2                 ; |39| 
    3879 00000493 D412          MOVB      XAR4,#18              ; |39| 
    3880 00000494 7640!         LCR       #_GUI_fill_Rect       ; |39| 
         00000495 0000 
    3881                      ; call occurs [#_GUI_fill_Rect] ; |39| 
    3882                      .dwpsn  "WIDGET\GUI_widget_checkbox.c",40,5
    3883 00000496 8A4A          MOVL      XAR4,*-SP[10]         ; |40| 
    3884 00000497 924B          MOV       AL,*-SP[11]           ; |40| 
    3885 00000498 94CC          ADD       AL,*+XAR4[1]          ; |40| 
    3886 00000499 8A4A          MOVL      XAR4,*-SP[10]         ; |40| 
    3887 0000049a 9C05          ADDB      AL,#5                 ; |40| 
TMS320C2000 COFF Assembler PC v4.1.3 Thu Nov 29 16:03:34 2012

Tools Copyright (c) 1996-2006 Texas Instruments Incorporated
C:\DOCUME~1\ADMINI~1\LOCALS~1\Temp\TI9882                            PAGE   75

    3888 0000049b 93D4          MOV       AH,*+XAR4[2]          ; |40| 
    3889 0000049c D510          MOVB      XAR5,#16              ; |40| 
    3890 0000049d 9D02          ADDB      AH,#2                 ; |40| 
    3891 0000049e D412          MOVB      XAR4,#18              ; |40| 
    3892 0000049f 7640!         LCR       #_GUI_widget_sink_3D_paint ; |40| 
         000004a0 0000 
    3893                      ; call occurs [#_GUI_widget_sink_3D_paint] ; |40| 
    3894                      .dwpsn  "WIDGET\GUI_widget_checkbox.c",41,5
    3895 000004a1 8A4A          MOVL      XAR4,*-SP[10]         ; |41| 
    3896 000004a2 7640!         LCR       #_GUI_window_hwin_release ; |41| 
         000004a3 0000 
    3897                      ; call occurs [#_GUI_window_hwin_release] ; |41| 
    3898                      .dwpsn  "WIDGET\GUI_widget_checkbox.c",42,2
    3899 000004a4 8A48          MOVL      XAR4,*-SP[8]          ; |42| 
    3900 000004a5 7640!         LCR       #_GUI_window_hwin_release ; |42| 
         000004a6 0000 
    3901                      ; call occurs [#_GUI_window_hwin_release] ; |42| 
    3902                      .dwpsn  "WIDGET\GUI_widget_checkbox.c",43,5
    3903 000004a7 8A4A          MOVL      XAR4,*-SP[10]         ; |43| 
    3904                      .dwpsn  "WIDGET\GUI_widget_checkbox.c",44,1
    3905 000004a8 FE8C          SUBB      SP,#12                ; |43| 
    3906                      .dwcfa  0x1d, -2
    3907 000004a9 0006          LRETR
    3908                      ; return occurs
    3909                      .dwattr DW$426, DW_AT_end_file("WIDGET\GUI_widget_checkbox.c")
    3910                      .dwattr DW$426, DW_AT_end_line(0x2c)
    3911                      .dwattr DW$426, DW_AT_end_column(0x01)
    3912                      .dwendentry
    3913                      .dwendtag DW$426
    3914              
    3915 000004aa               .sect   ".text"
    3916                      .global _GUI_checkbox_state_obtain
    3917              
    3918              DW$439  .dwtag  DW_TAG_subprogram, DW_AT_name("GUI_checkbox_state_obtain"), DW_AT_symbol_name("_GUI_checkbox_
    3919                      .dwattr DW$439, DW_AT_low_pc(_GUI_checkbox_state_obtain)
    3920                      .dwattr DW$439, DW_AT_high_pc(0x00)
    3921                      .dwattr DW$439, DW_AT_begin_file("WIDGET\GUI_widget_checkbox.c")
    3922                      .dwattr DW$439, DW_AT_begin_line(0x33)
    3923                      .dwattr DW$439, DW_AT_begin_column(0x07)
    3924                      .dwpsn  "WIDGET\GUI_widget_checkbox.c",52,1
    3925              
    3926                      .dwfde DW$CIE
    3927              
    3928              ;***************************************************************
    3929              ;* FNAME: _GUI_checkbox_state_obtain    FR SIZE:   2           *
    3930              ;*                                                             *
    3931              ;* FUNCTION ENVIRONMENT                                        *
    3932              ;*                                                             *
    3933              ;* FUNCTION PROPERTIES                                         *
    3934              ;*                            0 Parameter,  2 Auto,  0 SOE     *
    3935              ;***************************************************************
    3936              
    3937              _GUI_checkbox_state_obtain:
    3938                      .dwcfa  0x1d, -2
    3939                      .dwcfa  0x1c, 26, 0
TMS320C2000 COFF Assembler PC v4.1.3 Thu Nov 29 16:03:34 2012

Tools Copyright (c) 1996-2006 Texas Instruments Incorporated
C:\DOCUME~1\ADMINI~1\LOCALS~1\Temp\TI9882                            PAGE   76

    3940                      .dwcfa  0x09, 40, 26
    3941 000004aa FE02          ADDB      SP,#2
    3942                      .dwcfa  0x1d, -4
    3943              ;* AR4   assigned to _hp
    3944              DW$440  .dwtag  DW_TAG_formal_parameter, DW_AT_name("hp"), DW_AT_symbol_name("_hp")
    3945                      .dwattr DW$440, DW_AT_type(*DW$T$54)
    3946                      .dwattr DW$440, DW_AT_location[DW_OP_reg12]
    3947              DW$441  .dwtag  DW_TAG_variable, DW_AT_name("hp"), DW_AT_symbol_name("_hp")
    3948                      .dwattr DW$441, DW_AT_type(*DW$T$54)
    3949                      .dwattr DW$441, DW_AT_location[DW_OP_breg20 -2]
    3950 000004ab A842          MOVL      *-SP[2],XAR4          ; |52| 
    3951                      .dwpsn  "WIDGET\GUI_widget_checkbox.c",53,4
    3952 000004ac 8A42          MOVL      XAR4,*-SP[2]          ; |53| 
    3953 000004ad D01C          MOVB      XAR0,#28              ; |53| 
    3954 000004ae 9294          MOV       AL,*+XAR4[AR0]        ; |53| 
    3955                      .dwpsn  "WIDGET\GUI_widget_checkbox.c",54,1
    3956 000004af FE82          SUBB      SP,#2                 ; |53| 
    3957                      .dwcfa  0x1d, -2
    3958 000004b0 0006          LRETR
    3959                      ; return occurs
    3960                      .dwattr DW$439, DW_AT_end_file("WIDGET\GUI_widget_checkbox.c")
    3961                      .dwattr DW$439, DW_AT_end_line(0x36)
    3962                      .dwattr DW$439, DW_AT_end_column(0x01)
    3963                      .dwendentry
    3964                      .dwendtag DW$439
    3965              
    3966 000004b1               .sect   ".text"
    3967                      .global _GUI_checkBox_select
    3968              
    3969              DW$442  .dwtag  DW_TAG_subprogram, DW_AT_name("GUI_checkBox_select"), DW_AT_symbol_name("_GUI_checkBox_select
    3970                      .dwattr DW$442, DW_AT_low_pc(_GUI_checkBox_select)
    3971                      .dwattr DW$442, DW_AT_high_pc(0x00)
    3972                      .dwattr DW$442, DW_AT_begin_file("WIDGET\GUI_widget_checkbox.c")
    3973                      .dwattr DW$442, DW_AT_begin_line(0x3d)
    3974                      .dwattr DW$442, DW_AT_begin_column(0x06)
    3975                      .dwpsn  "WIDGET\GUI_widget_checkbox.c",62,1
    3976              
    3977                      .dwfde DW$CIE
    3978              
    3979              ;***************************************************************
    3980              ;* FNAME: _GUI_checkBox_select          FR SIZE:   6           *
    3981              ;*                                                             *
    3982              ;* FUNCTION ENVIRONMENT                                        *
    3983              ;*                                                             *
    3984              ;* FUNCTION PROPERTIES                                         *
    3985              ;*                            0 Parameter,  6 Auto,  0 SOE     *
    3986              ;***************************************************************
    3987              
    3988              _GUI_checkBox_select:
    3989                      .dwcfa  0x1d, -2
    3990                      .dwcfa  0x1c, 26, 0
    3991                      .dwcfa  0x09, 40, 26
    3992 000004b1 FE06          ADDB      SP,#6
    3993                      .dwcfa  0x1d, -8
    3994              ;* AR4   assigned to _hp
TMS320C2000 COFF Assembler PC v4.1.3 Thu Nov 29 16:03:34 2012

Tools Copyright (c) 1996-2006 Texas Instruments Incorporated
C:\DOCUME~1\ADMINI~1\LOCALS~1\Temp\TI9882                            PAGE   77

    3995              DW$443  .dwtag  DW_TAG_formal_parameter, DW_AT_name("hp"), DW_AT_symbol_name("_hp")
    3996                      .dwattr DW$443, DW_AT_type(*DW$T$54)
    3997                      .dwattr DW$443, DW_AT_location[DW_OP_reg12]
    3998              ;* AL    assigned to _state
    3999              DW$444  .dwtag  DW_TAG_formal_parameter, DW_AT_name("state"), DW_AT_symbol_name("_state")
    4000                      .dwattr DW$444, DW_AT_type(*DW$T$37)
    4001                      .dwattr DW$444, DW_AT_location[DW_OP_reg0]
    4002              DW$445  .dwtag  DW_TAG_variable, DW_AT_name("hp"), DW_AT_symbol_name("_hp")
    4003                      .dwattr DW$445, DW_AT_type(*DW$T$54)
    4004                      .dwattr DW$445, DW_AT_location[DW_OP_breg20 -2]
    4005              DW$446  .dwtag  DW_TAG_variable, DW_AT_name("state"), DW_AT_symbol_name("_state")
    4006                      .dwattr DW$446, DW_AT_type(*DW$T$37)
    4007                      .dwattr DW$446, DW_AT_location[DW_OP_breg20 -3]
    4008              DW$447  .dwtag  DW_TAG_variable, DW_AT_name("len"), DW_AT_symbol_name("_len")
    4009                      .dwattr DW$447, DW_AT_type(*DW$T$11)
    4010                      .dwattr DW$447, DW_AT_location[DW_OP_breg20 -4]
    4011              DW$448  .dwtag  DW_TAG_variable, DW_AT_name("fg_bak"), DW_AT_symbol_name("_fg_bak")
    4012                      .dwattr DW$448, DW_AT_type(*DW$T$11)
    4013                      .dwattr DW$448, DW_AT_location[DW_OP_breg20 -5]
    4014              DW$449  .dwtag  DW_TAG_variable, DW_AT_name("bg_bak"), DW_AT_symbol_name("_bg_bak")
    4015                      .dwattr DW$449, DW_AT_type(*DW$T$11)
    4016                      .dwattr DW$449, DW_AT_location[DW_OP_breg20 -6]
    4017 000004b2 9643          MOV       *-SP[3],AL            ; |62| 
    4018 000004b3 A842          MOVL      *-SP[2],XAR4          ; |62| 
    4019                      .dwpsn  "WIDGET\GUI_widget_checkbox.c",63,11
    4020 000004b4 8A42          MOVL      XAR4,*-SP[2]          ; |63| 
    4021 000004b5 D01D          MOVB      XAR0,#29              ; |63| 
    4022 000004b6 9294          MOV       AL,*+XAR4[AR0]        ; |63| 
    4023 000004b7 9644          MOV       *-SP[4],AL            ; |63| 
    4024                      .dwpsn  "WIDGET\GUI_widget_checkbox.c",66,2
    4025 000004b8 761F!         MOVW      DP,#_m_Fcolor
         000004b9 0000 
    4026 000004ba 9200!         MOV       AL,@_m_Fcolor         ; |66| 
    4027 000004bb 9645          MOV       *-SP[5],AL            ; |66| 
    4028                      .dwpsn  "WIDGET\GUI_widget_checkbox.c",67,2
    4029 000004bc 761F!         MOVW      DP,#_m_Bcolor
         000004bd 0000 
    4030 000004be 9200!         MOV       AL,@_m_Bcolor         ; |67| 
    4031 000004bf 9646          MOV       *-SP[6],AL            ; |67| 
    4032                      .dwpsn  "WIDGET\GUI_widget_checkbox.c",68,2
    4033 000004c0 9243          MOV       AL,*-SP[3]            ; |68| 
    4034 000004c1 5201          CMPB      AL,#1                 ; |68| 
    4035 000004c2 ED72          BF        L57,NEQ               ; |68| 
    4036                      ; branchcc occurs ; |68| 
    4037                      .dwpsn  "WIDGET\GUI_widget_checkbox.c",70,3
    4038 000004c3 8A42          MOVL      XAR4,*-SP[2]          ; |70| 
    4039 000004c4 D01C          MOVB      XAR0,#28              ; |70| 
    4040 000004c5 2894          MOV       *+XAR4[AR0],#1        ; |70| 
         000004c6 0001 
    4041                      .dwpsn  "WIDGET\GUI_widget_checkbox.c",71,6
    4042 000004c7 9AFF          MOVB      AL,#255               ; |71| 
    4043 000004c8 7640!         LCR       #_GUI_set_Bgcolor     ; |71| 
         000004c9 0000 
    4044                      ; call occurs [#_GUI_set_Bgcolor] ; |71| 
    4045                      .dwpsn  "WIDGET\GUI_widget_checkbox.c",72,3
TMS320C2000 COFF Assembler PC v4.1.3 Thu Nov 29 16:03:34 2012

Tools Copyright (c) 1996-2006 Texas Instruments Incorporated
C:\DOCUME~1\ADMINI~1\LOCALS~1\Temp\TI9882                            PAGE   78

    4046 000004ca 8A42          MOVL      XAR4,*-SP[2]          ; |72| 
    4047 000004cb 9244          MOV       AL,*-SP[4]            ; |72| 
    4048 000004cc 94CC          ADD       AL,*+XAR4[1]          ; |72| 
    4049 000004cd 8A42          MOVL      XAR4,*-SP[2]          ; |72| 
    4050 000004ce 9C05          ADDB      AL,#5                 ; |72| 
    4051 000004cf 93D4          MOV       AH,*+XAR4[2]          ; |72| 
    4052 000004d0 D510          MOVB      XAR5,#16              ; |72| 
    4053 000004d1 9D02          ADDB      AH,#2                 ; |72| 
    4054 000004d2 D412          MOVB      XAR4,#18              ; |72| 
    4055 000004d3 7640!         LCR       #_GUI_fill_Rect       ; |72| 
         000004d4 0000 
    4056                      ; call occurs [#_GUI_fill_Rect] ; |72| 
    4057                      .dwpsn  "WIDGET\GUI_widget_checkbox.c",73,3
    4058 000004d5 8A42          MOVL      XAR4,*-SP[2]          ; |73| 
    4059 000004d6 9244          MOV       AL,*-SP[4]            ; |73| 
    4060 000004d7 94CC          ADD       AL,*+XAR4[1]          ; |73| 
    4061 000004d8 8A42          MOVL      XAR4,*-SP[2]          ; |73| 
    4062 000004d9 9C05          ADDB      AL,#5                 ; |73| 
    4063 000004da 93D4          MOV       AH,*+XAR4[2]          ; |73| 
    4064 000004db D510          MOVB      XAR5,#16              ; |73| 
    4065 000004dc 9D02          ADDB      AH,#2                 ; |73| 
    4066 000004dd D412          MOVB      XAR4,#18              ; |73| 
    4067 000004de 7640!         LCR       #_GUI_widget_sink_3D_paint ; |73| 
         000004df 0000 
    4068                      ; call occurs [#_GUI_widget_sink_3D_paint] ; |73| 
    4069                      .dwpsn  "WIDGET\GUI_widget_checkbox.c",74,3
    4070 000004e0 9A00          MOVB      AL,#0
    4071 000004e1 7640!         LCR       #_GUI_set_Fgcolor     ; |74| 
         000004e2 0000 
    4072                      ; call occurs [#_GUI_set_Fgcolor] ; |74| 
    4073                      .dwpsn  "WIDGET\GUI_widget_checkbox.c",75,3
    4074 000004e3 8A42          MOVL      XAR4,*-SP[2]          ; |75| 
    4075 000004e4 9244          MOV       AL,*-SP[4]            ; |75| 
    4076 000004e5 94CC          ADD       AL,*+XAR4[1]          ; |75| 
    4077 000004e6 8A42          MOVL      XAR4,*-SP[2]          ; |75| 
    4078 000004e7 93D4          MOV       AH,*+XAR4[2]          ; |75| 
    4079 000004e8 8A42          MOVL      XAR4,*-SP[2]          ; |75| 
    4080 000004e9 9C08          ADDB      AL,#8                 ; |75| 
    4081 000004ea 88A9          MOVZ      AR6,AL                ; |75| 
    4082 000004eb 9244          MOV       AL,*-SP[4]            ; |75| 
    4083 000004ec 94CC          ADD       AL,*+XAR4[1]          ; |75| 
    4084 000004ed 8342          MOVL      XAR5,*-SP[2]          ; |75| 
    4085 000004ee 9C0D          ADDB      AL,#13                ; |75| 
    4086 000004ef 5CA9          MOVZ      AR4,AL                ; |75| 
    4087 000004f0 9D0A          ADDB      AH,#10                ; |75| 
    4088 000004f1 92D5          MOV       AL,*+XAR5[2]          ; |75| 
    4089 000004f2 9C0F          ADDB      AL,#15                ; |75| 
    4090 000004f3 5DA9          MOVZ      AR5,AL                ; |75| 
    4091 000004f4 92A6          MOV       AL,AR6                ; |75| 
    4092 000004f5 7640!         LCR       #_GUI_draw_line       ; |75| 
         000004f6 0000 
    4093                      ; call occurs [#_GUI_draw_line] ; |75| 
    4094                      .dwpsn  "WIDGET\GUI_widget_checkbox.c",77,3
    4095 000004f7 8A42          MOVL      XAR4,*-SP[2]          ; |77| 
    4096 000004f8 9244          MOV       AL,*-SP[4]            ; |77| 
TMS320C2000 COFF Assembler PC v4.1.3 Thu Nov 29 16:03:34 2012

Tools Copyright (c) 1996-2006 Texas Instruments Incorporated
C:\DOCUME~1\ADMINI~1\LOCALS~1\Temp\TI9882                            PAGE   79

    4097 000004f9 94CC          ADD       AL,*+XAR4[1]          ; |77| 
    4098 000004fa 8A42          MOVL      XAR4,*-SP[2]          ; |77| 
    4099 000004fb 93D4          MOV       AH,*+XAR4[2]          ; |77| 
    4100 000004fc 8A42          MOVL      XAR4,*-SP[2]          ; |77| 
    4101 000004fd 9C07          ADDB      AL,#7                 ; |77| 
    4102 000004fe 88A9          MOVZ      AR6,AL                ; |77| 
    4103 000004ff 9244          MOV       AL,*-SP[4]            ; |77| 
    4104 00000500 94CC          ADD       AL,*+XAR4[1]          ; |77| 
    4105 00000501 8342          MOVL      XAR5,*-SP[2]          ; |77| 
    4106 00000502 9C0D          ADDB      AL,#13                ; |77| 
    4107 00000503 5CA9          MOVZ      AR4,AL                ; |77| 
    4108 00000504 9D0A          ADDB      AH,#10                ; |77| 
    4109 00000505 92D5          MOV       AL,*+XAR5[2]          ; |77| 
    4110 00000506 9C10          ADDB      AL,#16                ; |77| 
    4111 00000507 5DA9          MOVZ      AR5,AL                ; |77| 
    4112 00000508 92A6          MOV       AL,AR6                ; |77| 
    4113 00000509 7640!         LCR       #_GUI_draw_line       ; |77| 
         0000050a 0000 
    4114                      ; call occurs [#_GUI_draw_line] ; |77| 
    4115                      .dwpsn  "WIDGET\GUI_widget_checkbox.c",79,3
    4116 0000050b 8A42          MOVL      XAR4,*-SP[2]          ; |79| 
    4117 0000050c 9244          MOV       AL,*-SP[4]            ; |79| 
    4118 0000050d 94CC          ADD       AL,*+XAR4[1]          ; |79| 
    4119 0000050e 8A42          MOVL      XAR4,*-SP[2]          ; |79| 
    4120 0000050f 93D4          MOV       AH,*+XAR4[2]          ; |79| 
    4121 00000510 8A42          MOVL      XAR4,*-SP[2]          ; |79| 
    4122 00000511 9C0D          ADDB      AL,#13                ; |79| 
    4123 00000512 88A9          MOVZ      AR6,AL                ; |79| 
    4124 00000513 9244          MOV       AL,*-SP[4]            ; |79| 
    4125 00000514 94CC          ADD       AL,*+XAR4[1]          ; |79| 
    4126 00000515 8342          MOVL      XAR5,*-SP[2]          ; |79| 
    4127 00000516 9C14          ADDB      AL,#20                ; |79| 
    4128 00000517 5CA9          MOVZ      AR4,AL                ; |79| 
    4129 00000518 9D0F          ADDB      AH,#15                ; |79| 
    4130 00000519 92D5          MOV       AL,*+XAR5[2]          ; |79| 
    4131 0000051a 9C04          ADDB      AL,#4                 ; |79| 
    4132 0000051b 5DA9          MOVZ      AR5,AL                ; |79| 
    4133 0000051c 92A6          MOV       AL,AR6                ; |79| 
    4134 0000051d 7640!         LCR       #_GUI_draw_line       ; |79| 
         0000051e 0000 
    4135                      ; call occurs [#_GUI_draw_line] ; |79| 
    4136                      .dwpsn  "WIDGET\GUI_widget_checkbox.c",81,3
    4137 0000051f 8A42          MOVL      XAR4,*-SP[2]          ; |81| 
    4138 00000520 9244          MOV       AL,*-SP[4]            ; |81| 
    4139 00000521 94CC          ADD       AL,*+XAR4[1]          ; |81| 
    4140 00000522 8A42          MOVL      XAR4,*-SP[2]          ; |81| 
    4141 00000523 93D4          MOV       AH,*+XAR4[2]          ; |81| 
    4142 00000524 8A42          MOVL      XAR4,*-SP[2]          ; |81| 
    4143 00000525 9C0D          ADDB      AL,#13                ; |81| 
    4144 00000526 88A9          MOVZ      AR6,AL                ; |81| 
    4145 00000527 9244          MOV       AL,*-SP[4]            ; |81| 
    4146 00000528 94CC          ADD       AL,*+XAR4[1]          ; |81| 
    4147 00000529 8342          MOVL      XAR5,*-SP[2]          ; |81| 
    4148 0000052a 9C15          ADDB      AL,#21                ; |81| 
    4149 0000052b 5CA9          MOVZ      AR4,AL                ; |81| 
TMS320C2000 COFF Assembler PC v4.1.3 Thu Nov 29 16:03:34 2012

Tools Copyright (c) 1996-2006 Texas Instruments Incorporated
C:\DOCUME~1\ADMINI~1\LOCALS~1\Temp\TI9882                            PAGE   80

    4150 0000052c 9D10          ADDB      AH,#16                ; |81| 
    4151 0000052d 92D5          MOV       AL,*+XAR5[2]          ; |81| 
    4152 0000052e 9C04          ADDB      AL,#4                 ; |81| 
    4153 0000052f 5DA9          MOVZ      AR5,AL                ; |81| 
    4154 00000530 92A6          MOV       AL,AR6                ; |81| 
    4155 00000531 7640!         LCR       #_GUI_draw_line       ; |81| 
         00000532 0000 
    4156                      ; call occurs [#_GUI_draw_line] ; |81| 
    4157                      .dwpsn  "WIDGET\GUI_widget_checkbox.c",83,2
    4158 00000533 6F48          B         L58,UNC               ; |83| 
    4159                      ; branch occurs ; |83| 
    4160              L57:    
    4161                      .dwpsn  "WIDGET\GUI_widget_checkbox.c",86,3
    4162 00000534 8A42          MOVL      XAR4,*-SP[2]          ; |86| 
    4163 00000535 D01C          MOVB      XAR0,#28              ; |86| 
    4164 00000536 2B94          MOV       *+XAR4[AR0],#0        ; |86| 
    4165                      .dwpsn  "WIDGET\GUI_widget_checkbox.c",87,6
    4166 00000537 9AFF          MOVB      AL,#255               ; |87| 
    4167 00000538 7640!         LCR       #_GUI_set_Bgcolor     ; |87| 
         00000539 0000 
    4168                      ; call occurs [#_GUI_set_Bgcolor] ; |87| 
    4169                      .dwpsn  "WIDGET\GUI_widget_checkbox.c",88,3
    4170 0000053a 8A42          MOVL      XAR4,*-SP[2]          ; |88| 
    4171 0000053b 9244          MOV       AL,*-SP[4]            ; |88| 
    4172 0000053c 94CC          ADD       AL,*+XAR4[1]          ; |88| 
    4173 0000053d 8A42          MOVL      XAR4,*-SP[2]          ; |88| 
    4174 0000053e 9C05          ADDB      AL,#5                 ; |88| 
    4175 0000053f 93D4          MOV       AH,*+XAR4[2]          ; |88| 
    4176 00000540 D510          MOVB      XAR5,#16              ; |88| 
    4177 00000541 9D02          ADDB      AH,#2                 ; |88| 
    4178 00000542 D412          MOVB      XAR4,#18              ; |88| 
    4179 00000543 7640!         LCR       #_GUI_fill_Rect       ; |88| 
         00000544 0000 
    4180                      ; call occurs [#_GUI_fill_Rect] ; |88| 
    4181                      .dwpsn  "WIDGET\GUI_widget_checkbox.c",89,3
    4182 00000545 8A42          MOVL      XAR4,*-SP[2]          ; |89| 
    4183 00000546 9244          MOV       AL,*-SP[4]            ; |89| 
    4184 00000547 94CC          ADD       AL,*+XAR4[1]          ; |89| 
    4185 00000548 8A42          MOVL      XAR4,*-SP[2]          ; |89| 
    4186 00000549 9C05          ADDB      AL,#5                 ; |89| 
    4187 0000054a 93D4          MOV       AH,*+XAR4[2]          ; |89| 
    4188 0000054b D510          MOVB      XAR5,#16              ; |89| 
    4189 0000054c 9D02          ADDB      AH,#2                 ; |89| 
    4190 0000054d D412          MOVB      XAR4,#18              ; |89| 
    4191 0000054e 7640!         LCR       #_GUI_widget_sink_3D_paint ; |89| 
         0000054f 0000 
    4192                      ; call occurs [#_GUI_widget_sink_3D_paint] ; |89| 
    4193                      .dwpsn  "WIDGET\GUI_widget_checkbox.c",90,3
    4194 00000550 9A00          MOVB      AL,#0
    4195 00000551 7640!         LCR       #_GUI_set_Fgcolor     ; |90| 
         00000552 0000 
    4196                      ; call occurs [#_GUI_set_Fgcolor] ; |90| 
    4197                      .dwpsn  "WIDGET\GUI_widget_checkbox.c",91,3
    4198 00000553 8A42          MOVL      XAR4,*-SP[2]          ; |91| 
    4199 00000554 9244          MOV       AL,*-SP[4]            ; |91| 
TMS320C2000 COFF Assembler PC v4.1.3 Thu Nov 29 16:03:34 2012

Tools Copyright (c) 1996-2006 Texas Instruments Incorporated
C:\DOCUME~1\ADMINI~1\LOCALS~1\Temp\TI9882                            PAGE   81

    4200 00000555 94CC          ADD       AL,*+XAR4[1]          ; |91| 
    4201 00000556 8A42          MOVL      XAR4,*-SP[2]          ; |91| 
    4202 00000557 93D4          MOV       AH,*+XAR4[2]          ; |91| 
    4203 00000558 8A42          MOVL      XAR4,*-SP[2]          ; |91| 
    4204 00000559 9C09          ADDB      AL,#9                 ; |91| 
    4205 0000055a 88A9          MOVZ      AR6,AL                ; |91| 
    4206 0000055b 9244          MOV       AL,*-SP[4]            ; |91| 
    4207 0000055c 94CC          ADD       AL,*+XAR4[1]          ; |91| 
    4208 0000055d 8342          MOVL      XAR5,*-SP[2]          ; |91| 
    4209 0000055e 9C12          ADDB      AL,#18                ; |91| 
    4210 0000055f 5CA9          MOVZ      AR4,AL                ; |91| 
    4211 00000560 9D05          ADDB      AH,#5                 ; |91| 
    4212 00000561 92D5          MOV       AL,*+XAR5[2]          ; |91| 
    4213 00000562 9C0E          ADDB      AL,#14                ; |91| 
    4214 00000563 5DA9          MOVZ      AR5,AL                ; |91| 
    4215 00000564 92A6          MOV       AL,AR6                ; |91| 
    4216 00000565 7640!         LCR       #_GUI_draw_line       ; |91| 
         00000566 0000 
    4217                      ; call occurs [#_GUI_draw_line] ; |91| 
    4218                      .dwpsn  "WIDGET\GUI_widget_checkbox.c",93,3
    4219 00000567 8A42          MOVL      XAR4,*-SP[2]          ; |93| 
    4220 00000568 9244          MOV       AL,*-SP[4]            ; |93| 
    4221 00000569 94CC          ADD       AL,*+XAR4[1]          ; |93| 
    4222 0000056a 8A42          MOVL      XAR4,*-SP[2]          ; |93| 
    4223 0000056b 93D4          MOV       AH,*+XAR4[2]          ; |93| 
    4224 0000056c 8A42          MOVL      XAR4,*-SP[2]          ; |93| 
    4225 0000056d 9C12          ADDB      AL,#18                ; |93| 
    4226 0000056e 88A9          MOVZ      AR6,AL                ; |93| 
    4227 0000056f 9244          MOV       AL,*-SP[4]            ; |93| 
    4228 00000570 94CC          ADD       AL,*+XAR4[1]          ; |93| 
    4229 00000571 8342          MOVL      XAR5,*-SP[2]          ; |93| 
    4230 00000572 9C09          ADDB      AL,#9                 ; |93| 
    4231 00000573 5CA9          MOVZ      AR4,AL                ; |93| 
    4232 00000574 9D05          ADDB      AH,#5                 ; |93| 
    4233 00000575 92D5          MOV       AL,*+XAR5[2]          ; |93| 
    4234 00000576 9C0E          ADDB      AL,#14                ; |93| 
    4235 00000577 5DA9          MOVZ      AR5,AL                ; |93| 
    4236 00000578 92A6          MOV       AL,AR6                ; |93| 
    4237 00000579 7640!         LCR       #_GUI_draw_line       ; |93| 
         0000057a 0000 
    4238                      ; call occurs [#_GUI_draw_line] ; |93| 
    4239              L58:    
    4240                      .dwpsn  "WIDGET\GUI_widget_checkbox.c",96,2
    4241 0000057b 9245          MOV       AL,*-SP[5]            ; |96| 
    4242 0000057c 761F!         MOVW      DP,#_m_Fcolor
         0000057d 0000 
    4243 0000057e 9600!         MOV       @_m_Fcolor,AL         ; |96| 
    4244                      .dwpsn  "WIDGET\GUI_widget_checkbox.c",97,2
    4245 0000057f 9246          MOV       AL,*-SP[6]            ; |97| 
    4246 00000580 761F!         MOVW      DP,#_m_Bcolor
         00000581 0000 
    4247 00000582 9600!         MOV       @_m_Bcolor,AL         ; |97| 
    4248                      .dwpsn  "WIDGET\GUI_widget_checkbox.c",98,2
    4249                      .dwpsn  "WIDGET\GUI_widget_checkbox.c",99,1
    4250 00000583 FE86          SUBB      SP,#6
TMS320C2000 COFF Assembler PC v4.1.3 Thu Nov 29 16:03:34 2012

Tools Copyright (c) 1996-2006 Texas Instruments Incorporated
C:\DOCUME~1\ADMINI~1\LOCALS~1\Temp\TI9882                            PAGE   82

    4251                      .dwcfa  0x1d, -2
    4252 00000584 0006          LRETR
    4253                      ; return occurs
    4254                      .dwattr DW$442, DW_AT_end_file("WIDGET\GUI_widget_checkbox.c")
    4255                      .dwattr DW$442, DW_AT_end_line(0x63)
    4256                      .dwattr DW$442, DW_AT_end_column(0x01)
    4257                      .dwendentry
    4258                      .dwendtag DW$442
    4259              
    4260 00000585               .sect   ".text"
    4261                      .global _GUI_dialogBox_member_obtain
    4262              
    4263              DW$450  .dwtag  DW_TAG_subprogram, DW_AT_name("GUI_dialogBox_member_obtain"), DW_AT_symbol_name("_GUI_dialogB
    4264                      .dwattr DW$450, DW_AT_low_pc(_GUI_dialogBox_member_obtain)
    4265                      .dwattr DW$450, DW_AT_high_pc(0x00)
    4266                      .dwattr DW$450, DW_AT_begin_file("WIDGET\GUI_widget_dialogBox.c")
    4267                      .dwattr DW$450, DW_AT_begin_line(0x07)
    4268                      .dwattr DW$450, DW_AT_begin_column(0x08)
    4269                      .dwpsn  "WIDGET\GUI_widget_dialogBox.c",8,1
    4270              
    4271                      .dwfde DW$CIE
    4272              
    4273              ;***************************************************************
    4274              ;* FNAME: _GUI_dialogBox_member_obtain  FR SIZE:   2           *
    4275              ;*                                                             *
    4276              ;* FUNCTION ENVIRONMENT                                        *
    4277              ;*                                                             *
    4278              ;* FUNCTION PROPERTIES                                         *
    4279              ;*                            0 Parameter,  2 Auto,  0 SOE     *
    4280              ;***************************************************************
    4281              
    4282              _GUI_dialogBox_member_obtain:
    4283                      .dwcfa  0x1d, -2
    4284                      .dwcfa  0x1c, 26, 0
    4285                      .dwcfa  0x09, 40, 26
    4286 00000585 FE02          ADDB      SP,#2
    4287                      .dwcfa  0x1d, -4
    4288              ;* AL    assigned to _id
    4289              DW$451  .dwtag  DW_TAG_formal_parameter, DW_AT_name("id"), DW_AT_symbol_name("_id")
    4290                      .dwattr DW$451, DW_AT_type(*DW$T$27)
    4291                      .dwattr DW$451, DW_AT_location[DW_OP_reg0]
    4292              DW$452  .dwtag  DW_TAG_variable, DW_AT_name("id"), DW_AT_symbol_name("_id")
    4293                      .dwattr DW$452, DW_AT_type(*DW$T$27)
    4294                      .dwattr DW$452, DW_AT_location[DW_OP_breg20 -1]
    4295              DW$453  .dwtag  DW_TAG_variable, DW_AT_name("offset"), DW_AT_symbol_name("_offset")
    4296                      .dwattr DW$453, DW_AT_type(*DW$T$27)
    4297                      .dwattr DW$453, DW_AT_location[DW_OP_breg20 -2]
    4298 00000586 9641          MOV       *-SP[1],AL            ; |8| 
    4299                      .dwpsn  "WIDGET\GUI_widget_dialogBox.c",10,6
    4300 00000587 2B42          MOV       *-SP[2],#0            ; |10| 
    4301                      .dwpsn  "WIDGET\GUI_widget_dialogBox.c",10,15
    4302 00000588 9242          MOV       AL,*-SP[2]            ; |10| 
    4303 00000589 521E          CMPB      AL,#30                ; |10| 
    4304 0000058a 671E          B         L61,HIS               ; |10| 
    4305                      ; branchcc occurs ; |10| 
TMS320C2000 COFF Assembler PC v4.1.3 Thu Nov 29 16:03:34 2012

Tools Copyright (c) 1996-2006 Texas Instruments Incorporated
C:\DOCUME~1\ADMINI~1\LOCALS~1\Temp\TI9882                            PAGE   83

    4306              L59:    
    4307              DW$L$_GUI_dialogBox_member_obtain$2$B:
    4308                      .dwpsn  "WIDGET\GUI_widget_dialogBox.c",12,5
    4309 0000058b 0E42          MOVU      ACC,*-SP[2]
    4310 0000058c 8F00-         MOVL      XAR4,#_dialogBox_ctl  ; |12| 
         0000058d 0040 
    4311 0000058e FF31          LSL       ACC,2                 ; |12| 
    4312 0000058f 5601          ADDL      XAR4,ACC
         00000590 00A4 
    4313 00000591 92C4          MOV       AL,*+XAR4[0]          ; |12| 
    4314 00000592 EC12          BF        L60,EQ                ; |12| 
    4315                      ; branchcc occurs ; |12| 
    4316              DW$L$_GUI_dialogBox_member_obtain$2$E:
    4317              DW$L$_GUI_dialogBox_member_obtain$3$B:
    4318                      .dwpsn  "WIDGET\GUI_widget_dialogBox.c",13,6
    4319                      .dwpsn  "WIDGET\GUI_widget_dialogBox.c",14,8
    4320 00000593 0E42          MOVU      ACC,*-SP[2]
    4321 00000594 8F00-         MOVL      XAR4,#_dialogBox_ctl+1 ; |14| 
         00000595 0041 
    4322 00000596 FF31          LSL       ACC,2                 ; |14| 
    4323 00000597 5601          ADDL      XAR4,ACC
         00000598 00A4 
    4324 00000599 9241          MOV       AL,*-SP[1]            ; |14| 
    4325 0000059a 54C4          CMP       AL,*+XAR4[0]          ; |14| 
    4326 0000059b ED09          BF        L60,NEQ               ; |14| 
    4327                      ; branchcc occurs ; |14| 
    4328              DW$L$_GUI_dialogBox_member_obtain$3$E:
    4329                      .dwpsn  "WIDGET\GUI_widget_dialogBox.c",16,11
    4330 0000059c 0E42          MOVU      ACC,*-SP[2]
    4331 0000059d FF31          LSL       ACC,2                 ; |16| 
    4332 0000059e 8F00-         MOVL      XAR4,#_dialogBox_ctl+2 ; |16| 
         0000059f 0042 
    4333 000005a0 5601          ADDL      XAR4,ACC
         000005a1 00A4 
    4334 000005a2 8AC4          MOVL      XAR4,*+XAR4[0]        ; |16| 
    4335 000005a3 6F06          B         L62,UNC               ; |16| 
    4336                      ; branch occurs ; |16| 
    4337              L60:    
    4338              DW$L$_GUI_dialogBox_member_obtain$5$B:
    4339                      .dwpsn  "WIDGET\GUI_widget_dialogBox.c",10,37
    4340 000005a4 0A42          INC       *-SP[2]               ; |10| 
    4341                      .dwpsn  "WIDGET\GUI_widget_dialogBox.c",10,15
    4342 000005a5 9242          MOV       AL,*-SP[2]            ; |10| 
    4343 000005a6 521E          CMPB      AL,#30                ; |10| 
    4344 000005a7 68E4          B         L59,LO                ; |10| 
    4345                      ; branchcc occurs ; |10| 
    4346              DW$L$_GUI_dialogBox_member_obtain$5$E:
    4347              L61:    
    4348                      .dwpsn  "WIDGET\GUI_widget_dialogBox.c",19,2
    4349 000005a8 D400          MOVB      XAR4,#0
    4350              L62:    
    4351                      .dwpsn  "WIDGET\GUI_widget_dialogBox.c",20,1
    4352 000005a9 FE82          SUBB      SP,#2                 ; |19| 
    4353                      .dwcfa  0x1d, -2
    4354 000005aa 0006          LRETR
TMS320C2000 COFF Assembler PC v4.1.3 Thu Nov 29 16:03:34 2012

Tools Copyright (c) 1996-2006 Texas Instruments Incorporated
C:\DOCUME~1\ADMINI~1\LOCALS~1\Temp\TI9882                            PAGE   84

    4355                      ; return occurs
    4356              
    4357              DW$454  .dwtag  DW_TAG_loop
    4358                      .dwattr DW$454, DW_AT_name("C:\DOCUME~1\ADMINI~1\LOCALS~1\Temp\TI9882:L59:1:1354176212")
    4359                      .dwattr DW$454, DW_AT_begin_file("WIDGET\GUI_widget_dialogBox.c")
    4360                      .dwattr DW$454, DW_AT_begin_line(0x0a)
    4361                      .dwattr DW$454, DW_AT_end_line(0x12)
    4362              DW$455  .dwtag  DW_TAG_loop_range
    4363                      .dwattr DW$455, DW_AT_low_pc(DW$L$_GUI_dialogBox_member_obtain$2$B)
    4364                      .dwattr DW$455, DW_AT_high_pc(DW$L$_GUI_dialogBox_member_obtain$2$E)
    4365              DW$456  .dwtag  DW_TAG_loop_range
    4366                      .dwattr DW$456, DW_AT_low_pc(DW$L$_GUI_dialogBox_member_obtain$3$B)
    4367                      .dwattr DW$456, DW_AT_high_pc(DW$L$_GUI_dialogBox_member_obtain$3$E)
    4368              DW$457  .dwtag  DW_TAG_loop_range
    4369                      .dwattr DW$457, DW_AT_low_pc(DW$L$_GUI_dialogBox_member_obtain$5$B)
    4370                      .dwattr DW$457, DW_AT_high_pc(DW$L$_GUI_dialogBox_member_obtain$5$E)
    4371                      .dwendtag DW$454
    4372              
    4373                      .dwattr DW$450, DW_AT_end_file("WIDGET\GUI_widget_dialogBox.c")
    4374                      .dwattr DW$450, DW_AT_end_line(0x14)
    4375                      .dwattr DW$450, DW_AT_end_column(0x01)
    4376                      .dwendentry
    4377                      .dwendtag DW$450
    4378              
    4379 000005ab               .sect   ".text"
    4380                      .global _GUI_dialogBox_create
    4381              
    4382              DW$458  .dwtag  DW_TAG_subprogram, DW_AT_name("GUI_dialogBox_create"), DW_AT_symbol_name("_GUI_dialogBox_crea
    4383                      .dwattr DW$458, DW_AT_low_pc(_GUI_dialogBox_create)
    4384                      .dwattr DW$458, DW_AT_high_pc(0x00)
    4385                      .dwattr DW$458, DW_AT_begin_file("WIDGET\GUI_widget_dialogBox.c")
    4386                      .dwattr DW$458, DW_AT_begin_line(0x16)
    4387                      .dwattr DW$458, DW_AT_begin_column(0x08)
    4388                      .dwpsn  "WIDGET\GUI_widget_dialogBox.c",31,1
    4389              
    4390                      .dwfde DW$CIE
    4391              
    4392              ;***************************************************************
    4393              ;* FNAME: _GUI_dialogBox_create         FR SIZE:  20           *
    4394              ;*                                                             *
    4395              ;* FUNCTION ENVIRONMENT                                        *
    4396              ;*                                                             *
    4397              ;* FUNCTION PROPERTIES                                         *
    4398              ;*                            3 Parameter, 17 Auto,  0 SOE     *
    4399              ;***************************************************************
    4400              
    4401              _GUI_dialogBox_create:
    4402                      .dwcfa  0x1d, -2
    4403                      .dwcfa  0x1c, 26, 0
    4404                      .dwcfa  0x09, 40, 26
    4405 000005ab FE14          ADDB      SP,#20
    4406                      .dwcfa  0x1d, -22
    4407              ;* AR4   assigned to _title
    4408              DW$459  .dwtag  DW_TAG_formal_parameter, DW_AT_name("title"), DW_AT_symbol_name("_title")
    4409                      .dwattr DW$459, DW_AT_type(*DW$T$21)
TMS320C2000 COFF Assembler PC v4.1.3 Thu Nov 29 16:03:34 2012

Tools Copyright (c) 1996-2006 Texas Instruments Incorporated
C:\DOCUME~1\ADMINI~1\LOCALS~1\Temp\TI9882                            PAGE   85

    4410                      .dwattr DW$459, DW_AT_location[DW_OP_reg12]
    4411              ;* AL    assigned to _x
    4412              DW$460  .dwtag  DW_TAG_formal_parameter, DW_AT_name("x"), DW_AT_symbol_name("_x")
    4413                      .dwattr DW$460, DW_AT_type(*DW$T$11)
    4414                      .dwattr DW$460, DW_AT_location[DW_OP_reg0]
    4415              ;* AH    assigned to _y
    4416              DW$461  .dwtag  DW_TAG_formal_parameter, DW_AT_name("y"), DW_AT_symbol_name("_y")
    4417                      .dwattr DW$461, DW_AT_type(*DW$T$11)
    4418                      .dwattr DW$461, DW_AT_location[DW_OP_reg1]
    4419              DW$462  .dwtag  DW_TAG_formal_parameter, DW_AT_name("wide"), DW_AT_symbol_name("_wide")
    4420                      .dwattr DW$462, DW_AT_type(*DW$T$11)
    4421                      .dwattr DW$462, DW_AT_location[DW_OP_breg20 -23]
    4422              DW$463  .dwtag  DW_TAG_formal_parameter, DW_AT_name("high"), DW_AT_symbol_name("_high")
    4423                      .dwattr DW$463, DW_AT_type(*DW$T$11)
    4424                      .dwattr DW$463, DW_AT_location[DW_OP_breg20 -24]
    4425              DW$464  .dwtag  DW_TAG_formal_parameter, DW_AT_name("flag"), DW_AT_symbol_name("_flag")
    4426                      .dwattr DW$464, DW_AT_type(*DW$T$27)
    4427                      .dwattr DW$464, DW_AT_location[DW_OP_breg20 -25]
    4428              ;* AR5   assigned to _pbox
    4429              DW$465  .dwtag  DW_TAG_formal_parameter, DW_AT_name("pbox"), DW_AT_symbol_name("_pbox")
    4430                      .dwattr DW$465, DW_AT_type(*DW$T$216)
    4431                      .dwattr DW$465, DW_AT_location[DW_OP_reg14]
    4432              DW$466  .dwtag  DW_TAG_formal_parameter, DW_AT_name("box_size"), DW_AT_symbol_name("_box_size")
    4433                      .dwattr DW$466, DW_AT_type(*DW$T$27)
    4434                      .dwattr DW$466, DW_AT_location[DW_OP_breg20 -26]
    4435              DW$467  .dwtag  DW_TAG_variable, DW_AT_name("title"), DW_AT_symbol_name("_title")
    4436                      .dwattr DW$467, DW_AT_type(*DW$T$21)
    4437                      .dwattr DW$467, DW_AT_location[DW_OP_breg20 -6]
    4438              DW$468  .dwtag  DW_TAG_variable, DW_AT_name("x"), DW_AT_symbol_name("_x")
    4439                      .dwattr DW$468, DW_AT_type(*DW$T$11)
    4440                      .dwattr DW$468, DW_AT_location[DW_OP_breg20 -7]
    4441              DW$469  .dwtag  DW_TAG_variable, DW_AT_name("y"), DW_AT_symbol_name("_y")
    4442                      .dwattr DW$469, DW_AT_type(*DW$T$11)
    4443                      .dwattr DW$469, DW_AT_location[DW_OP_breg20 -8]
    4444              DW$470  .dwtag  DW_TAG_variable, DW_AT_name("pbox"), DW_AT_symbol_name("_pbox")
    4445                      .dwattr DW$470, DW_AT_type(*DW$T$216)
    4446                      .dwattr DW$470, DW_AT_location[DW_OP_breg20 -10]
    4447              DW$471  .dwtag  DW_TAG_variable, DW_AT_name("dialog"), DW_AT_symbol_name("_dialog")
    4448                      .dwattr DW$471, DW_AT_type(*DW$T$54)
    4449                      .dwattr DW$471, DW_AT_location[DW_OP_breg20 -12]
    4450              DW$472  .dwtag  DW_TAG_variable, DW_AT_name("pwin"), DW_AT_symbol_name("_pwin")
    4451                      .dwattr DW$472, DW_AT_type(*DW$T$54)
    4452                      .dwattr DW$472, DW_AT_location[DW_OP_breg20 -14]
    4453              DW$473  .dwtag  DW_TAG_variable, DW_AT_name("offset"), DW_AT_symbol_name("_offset")
    4454                      .dwattr DW$473, DW_AT_type(*DW$T$27)
    4455                      .dwattr DW$473, DW_AT_location[DW_OP_breg20 -15]
    4456              DW$474  .dwtag  DW_TAG_variable, DW_AT_name("Bgcor"), DW_AT_symbol_name("_Bgcor")
    4457                      .dwattr DW$474, DW_AT_type(*DW$T$11)
    4458                      .dwattr DW$474, DW_AT_location[DW_OP_breg20 -16]
    4459              DW$475  .dwtag  DW_TAG_variable, DW_AT_name("Fgcor"), DW_AT_symbol_name("_Fgcor")
    4460                      .dwattr DW$475, DW_AT_type(*DW$T$11)
    4461                      .dwattr DW$475, DW_AT_location[DW_OP_breg20 -17]
    4462              DW$476  .dwtag  DW_TAG_variable, DW_AT_name("pmember"), DW_AT_symbol_name("_pmember")
    4463                      .dwattr DW$476, DW_AT_type(*DW$T$226)
    4464                      .dwattr DW$476, DW_AT_location[DW_OP_breg20 -20]
TMS320C2000 COFF Assembler PC v4.1.3 Thu Nov 29 16:03:34 2012

Tools Copyright (c) 1996-2006 Texas Instruments Incorporated
C:\DOCUME~1\ADMINI~1\LOCALS~1\Temp\TI9882                            PAGE   86

    4465 000005ac A04A          MOVL      *-SP[10],XAR5         ; |31| 
    4466 000005ad 9748          MOV       *-SP[8],AH            ; |31| 
    4467 000005ae 9647          MOV       *-SP[7],AL            ; |31| 
    4468 000005af A846          MOVL      *-SP[6],XAR4          ; |31| 
    4469                      .dwpsn  "WIDGET\GUI_widget_dialogBox.c",37,2
    4470 000005b0 761F!         MOVW      DP,#_m_Bcolor
         000005b1 0000 
    4471 000005b2 9200!         MOV       AL,@_m_Bcolor         ; |37| 
    4472 000005b3 9650          MOV       *-SP[16],AL           ; |37| 
    4473                      .dwpsn  "WIDGET\GUI_widget_dialogBox.c",38,2
    4474 000005b4 761F!         MOVW      DP,#_m_Fcolor
         000005b5 0000 
    4475 000005b6 9200!         MOV       AL,@_m_Fcolor         ; |38| 
    4476 000005b7 9651          MOV       *-SP[17],AL           ; |38| 
    4477                      .dwpsn  "WIDGET\GUI_widget_dialogBox.c",39,2
    4478 000005b8 8A46          MOVL      XAR4,*-SP[6]          ; |39| 
    4479 000005b9 92C4          MOV       AL,*+XAR4[0]          ; |39| 
    4480 000005ba EC0F          BF        L63,EQ                ; |39| 
    4481                      ; branchcc occurs ; |39| 
    4482                      .dwpsn  "WIDGET\GUI_widget_dialogBox.c",40,3
    4483 000005bb 9257          MOV       AL,*-SP[23]           ; |40| 
    4484 000005bc 9641          MOV       *-SP[1],AL            ; |40| 
    4485 000005bd 9258          MOV       AL,*-SP[24]           ; |40| 
    4486 000005be D500          MOVB      XAR5,#0
    4487 000005bf 9642          MOV       *-SP[2],AL            ; |40| 
    4488 000005c0 9259          MOV       AL,*-SP[25]           ; |40| 
    4489 000005c1 9643          MOV       *-SP[3],AL            ; |40| 
    4490 000005c2 8A46          MOVL      XAR4,*-SP[6]          ; |40| 
    4491 000005c3 9247          MOV       AL,*-SP[7]            ; |40| 
    4492 000005c4 9348          MOV       AH,*-SP[8]            ; |40| 
    4493 000005c5 7640'         LCR       #_Gui_3D_window_creat ; |40| 
         000005c6 000E 
    4494                      ; call occurs [#_Gui_3D_window_creat] ; |40| 
    4495 000005c7 A84C          MOVL      *-SP[12],XAR4         ; |40| 
    4496 000005c8 6F0A          B         L64,UNC               ; |40| 
    4497                      ; branch occurs ; |40| 
    4498              L63:    
    4499                      .dwpsn  "WIDGET\GUI_widget_dialogBox.c",42,3
    4500 000005c9 9259          MOV       AL,*-SP[25]           ; |42| 
    4501 000005ca 5C57          MOVZ      AR4,*-SP[23]          ; |42| 
    4502 000005cb 9641          MOV       *-SP[1],AL            ; |42| 
    4503 000005cc 5D58          MOVZ      AR5,*-SP[24]          ; |42| 
    4504 000005cd 9247          MOV       AL,*-SP[7]            ; |42| 
    4505 000005ce 9348          MOV       AH,*-SP[8]            ; |42| 
    4506 000005cf 7640!         LCR       #_GUI_window_creat    ; |42| 
         000005d0 0000 
    4507                      ; call occurs [#_GUI_window_creat] ; |42| 
    4508 000005d1 A84C          MOVL      *-SP[12],XAR4         ; |42| 
    4509              L64:    
    4510                      .dwpsn  "WIDGET\GUI_widget_dialogBox.c",43,2
    4511 000005d2 8A4C          MOVL      XAR4,*-SP[12]         ; |43| 
    4512 000005d3 D008          MOVB      XAR0,#8               ; |43| 
    4513 000005d4 2894          MOV       *+XAR4[AR0],#13       ; |43| 
         000005d5 000D 
    4514                      .dwpsn  "WIDGET\GUI_widget_dialogBox.c",44,2
TMS320C2000 COFF Assembler PC v4.1.3 Thu Nov 29 16:03:34 2012

Tools Copyright (c) 1996-2006 Texas Instruments Incorporated
C:\DOCUME~1\ADMINI~1\LOCALS~1\Temp\TI9882                            PAGE   87

    4515 000005d6 8A4C          MOVL      XAR4,*-SP[12]         ; |44| 
    4516 000005d7 7640!         LCR       #_GUI_window_hwin_req ; |44| 
         000005d8 0000 
    4517                      ; call occurs [#_GUI_window_hwin_req] ; |44| 
    4518                      .dwpsn  "WIDGET\GUI_widget_dialogBox.c",45,2
    4519 000005d9 925A          MOV       AL,*-SP[26]           ; |45| 
    4520 000005da 521E          CMPB      AL,#30                ; |45| 
    4521 000005db 6902          B         L65,LOS               ; |45| 
    4522                      ; branchcc occurs ; |45| 
    4523 000005dc 9A1E          MOVB      AL,#30                ; |45| 
    4524 000005dd       L65:    
    4525 000005dd 965A          MOV       *-SP[26],AL           ; |45| 
    4526                      .dwpsn  "WIDGET\GUI_widget_dialogBox.c",46,2
    4527 000005de 9A00          MOVB      AL,#0
    4528 000005df 8F00-         MOVL      XAR4,#_dialogBox_ctl  ; |46| 
         000005e0 0040 
    4529 000005e1 9B78          MOVB      AH,#120               ; |46| 
    4530 000005e2 7640!         LCR       #_global_memset       ; |46| 
         000005e3 0000 
    4531                      ; call occurs [#_global_memset] ; |46| 
    4532                      .dwpsn  "WIDGET\GUI_widget_dialogBox.c",47,2
    4533 000005e4 761F-         MOVW      DP,#_dialogBox_offset
         000005e5 0000 
    4534 000005e6 2B0F-         MOV       @_dialogBox_offset,#0 ; |47| 
    4535                      .dwpsn  "WIDGET\GUI_widget_dialogBox.c",48,6
    4536 000005e7 2B4F          MOV       *-SP[15],#0           ; |48| 
    4537                      .dwpsn  "WIDGET\GUI_widget_dialogBox.c",48,15
    4538 000005e8 925A          MOV       AL,*-SP[26]           ; |48| 
    4539 000005e9 544F          CMP       AL,*-SP[15]           ; |48| 
    4540 000005ea FFE9          B         L75,LOS               ; |48| 
         000005eb 00D3 
    4541                      ; branchcc occurs ; |48| 
    4542              L66:    
    4543              DW$L$_GUI_dialogBox_create$7$B:
    4544                      .dwpsn  "WIDGET\GUI_widget_dialogBox.c",50,3
    4545 000005ec C44A          MOVL      XAR6,*-SP[10]         ; |50| 
    4546 000005ed 0E4F          MOVU      ACC,*-SP[15]
    4547 000005ee FF33          LSL       ACC,4                 ; |50| 
    4548 000005ef 5601          ADDL      XAR6,ACC
         000005f0 00A6 
    4549 000005f1 C254          MOVL      *-SP[20],XAR6         ; |50| 
    4550                      .dwpsn  "WIDGET\GUI_widget_dialogBox.c",51,3
    4551 000005f2 8A54          MOVL      XAR4,*-SP[20]         ; |51| 
    4552 000005f3 92C4          MOV       AL,*+XAR4[0]          ; |51| 
    4553 000005f4 5206          CMPB      AL,#6                 ; |51| 
    4554 000005f5 ED2F          BF        L68,NEQ               ; |51| 
    4555                      ; branchcc occurs ; |51| 
    4556              DW$L$_GUI_dialogBox_create$7$E:
    4557              DW$L$_GUI_dialogBox_create$8$B:
    4558                      .dwpsn  "WIDGET\GUI_widget_dialogBox.c",53,4
    4559 000005f6 8A54          MOVL      XAR4,*-SP[20]         ; |53| 
    4560 000005f7 92FC          MOV       AL,*+XAR4[7]          ; |53| 
    4561 000005f8 9641          MOV       *-SP[1],AL            ; |53| 
    4562 000005f9 8A54          MOVL      XAR4,*-SP[20]         ; |53| 
    4563 000005fa D008          MOVB      XAR0,#8               ; |53| 
TMS320C2000 COFF Assembler PC v4.1.3 Thu Nov 29 16:03:34 2012

Tools Copyright (c) 1996-2006 Texas Instruments Incorporated
C:\DOCUME~1\ADMINI~1\LOCALS~1\Temp\TI9882                            PAGE   88

    4564 000005fb 9294          MOV       AL,*+XAR4[AR0]        ; |53| 
    4565 000005fc 9642          MOV       *-SP[2],AL            ; |53| 
    4566 000005fd 8A54          MOVL      XAR4,*-SP[20]         ; |53| 
    4567 000005fe 92E4          MOV       AL,*+XAR4[4]          ; |53| 
    4568 000005ff 8A54          MOVL      XAR4,*-SP[20]         ; |53| 
    4569 00000600 93EC          MOV       AH,*+XAR4[5]          ; |53| 
    4570 00000601 8A54          MOVL      XAR4,*-SP[20]         ; |53| 
    4571 00000602 5DF4          MOVZ      AR5,*+XAR4[6]         ; |53| 
    4572 00000603 8A4C          MOVL      XAR4,*-SP[12]         ; |53| 
    4573 00000604 7640'         LCR       #_Gui_button_creat    ; |53| 
         00000605 00F2 
    4574                      ; call occurs [#_Gui_button_creat] ; |53| 
    4575 00000606 A84E          MOVL      *-SP[14],XAR4         ; |53| 
    4576                      .dwpsn  "WIDGET\GUI_widget_dialogBox.c",57,4
    4577 00000607 8A54          MOVL      XAR4,*-SP[20]         ; |57| 
    4578 00000608 D008          MOVB      XAR0,#8               ; |57| 
    4579 00000609 CC94          AND       AL,*+XAR4[AR0],#0x0100 ; |57| 
         0000060a 0100 
    4580 0000060b 1BA9          CMP       AL,#256               ; |57| 
         0000060c 0100 
    4581 0000060d ED08          BF        L67,NEQ               ; |57| 
    4582                      ; branchcc occurs ; |57| 
    4583              DW$L$_GUI_dialogBox_create$8$E:
    4584              DW$L$_GUI_dialogBox_create$9$B:
    4585                      .dwpsn  "WIDGET\GUI_widget_dialogBox.c",58,5
    4586 0000060e 8A54          MOVL      XAR4,*-SP[20]         ; |58| 
    4587 0000060f 83D4          MOVL      XAR5,*+XAR4[2]        ; |58| 
    4588 00000610 8A4E          MOVL      XAR4,*-SP[14]         ; |58| 
    4589 00000611 7640'         LCR       #_GUI_button_title_display ; |58| 
         00000612 03C0 
    4590                      ; call occurs [#_GUI_button_title_display] ; |58| 
    4591 00000613 FFEF          B         L73,UNC               ; |58| 
         00000614 0081 
    4592                      ; branch occurs ; |58| 
    4593              DW$L$_GUI_dialogBox_create$9$E:
    4594              L67:    
    4595              DW$L$_GUI_dialogBox_create$10$B:
    4596                      .dwpsn  "WIDGET\GUI_widget_dialogBox.c",59,9
    4597 00000615 8A54          MOVL      XAR4,*-SP[20]         ; |59| 
    4598 00000616 CC94          AND       AL,*+XAR4[AR0],#0x2000 ; |59| 
         00000617 2000 
    4599 00000618 1BA9          CMP       AL,#8192              ; |59| 
         00000619 2000 
    4600 0000061a ED7A          BF        L73,NEQ               ; |59| 
    4601                      ; branchcc occurs ; |59| 
    4602              DW$L$_GUI_dialogBox_create$10$E:
    4603              DW$L$_GUI_dialogBox_create$11$B:
    4604                      .dwpsn  "WIDGET\GUI_widget_dialogBox.c",60,5
    4605 0000061b 8A54          MOVL      XAR4,*-SP[20]         ; |60| 
    4606 0000061c D00A          MOVB      XAR0,#10              ; |60| 
    4607 0000061d 8394          MOVL      XAR5,*+XAR4[AR0]      ; |60| 
    4608 0000061e 8A4E          MOVL      XAR4,*-SP[14]         ; |60| 
    4609 0000061f 9251          MOV       AL,*-SP[17]           ; |60| 
    4610 00000620 9350          MOV       AH,*-SP[16]           ; |60| 
    4611 00000621 7640'         LCR       #_Gui_button_insert_icon ; |60| 
TMS320C2000 COFF Assembler PC v4.1.3 Thu Nov 29 16:03:34 2012

Tools Copyright (c) 1996-2006 Texas Instruments Incorporated
C:\DOCUME~1\ADMINI~1\LOCALS~1\Temp\TI9882                            PAGE   89

         00000622 0348 
    4612                      ; call occurs [#_Gui_button_insert_icon] ; |60| 
    4613                      .dwpsn  "WIDGET\GUI_widget_dialogBox.c",61,3
    4614 00000623 6F71          B         L73,UNC               ; |61| 
    4615                      ; branch occurs ; |61| 
    4616              DW$L$_GUI_dialogBox_create$11$E:
    4617              L68:    
    4618              DW$L$_GUI_dialogBox_create$12$B:
    4619                      .dwpsn  "WIDGET\GUI_widget_dialogBox.c",62,8
    4620 00000624 8A54          MOVL      XAR4,*-SP[20]         ; |62| 
    4621 00000625 92C4          MOV       AL,*+XAR4[0]          ; |62| 
    4622 00000626 5204          CMPB      AL,#4                 ; |62| 
    4623 00000627 ED13          BF        L69,NEQ               ; |62| 
    4624                      ; branchcc occurs ; |62| 
    4625              DW$L$_GUI_dialogBox_create$12$E:
    4626              DW$L$_GUI_dialogBox_create$13$B:
    4627                      .dwpsn  "WIDGET\GUI_widget_dialogBox.c",64,4
    4628 00000628 8A54          MOVL      XAR4,*-SP[20]         ; |64| 
    4629 00000629 92FC          MOV       AL,*+XAR4[7]          ; |64| 
    4630 0000062a 9641          MOV       *-SP[1],AL            ; |64| 
    4631 0000062b 8A54          MOVL      XAR4,*-SP[20]         ; |64| 
    4632 0000062c D008          MOVB      XAR0,#8               ; |64| 
    4633 0000062d 9294          MOV       AL,*+XAR4[AR0]        ; |64| 
    4634 0000062e 9642          MOV       *-SP[2],AL            ; |64| 
    4635 0000062f 8A54          MOVL      XAR4,*-SP[20]         ; |64| 
    4636 00000630 92E4          MOV       AL,*+XAR4[4]          ; |64| 
    4637 00000631 8A54          MOVL      XAR4,*-SP[20]         ; |64| 
    4638 00000632 93EC          MOV       AH,*+XAR4[5]          ; |64| 
    4639 00000633 8A54          MOVL      XAR4,*-SP[20]         ; |64| 
    4640 00000634 5DF4          MOVZ      AR5,*+XAR4[6]         ; |64| 
    4641 00000635 8A4C          MOVL      XAR4,*-SP[12]         ; |64| 
    4642 00000636 7640'         LCR       #_GUI_edit_creat      ; |64| 
         00000637 0A8B 
    4643                      ; call occurs [#_GUI_edit_creat] ; |64| 
    4644 00000638 A84E          MOVL      *-SP[14],XAR4         ; |64| 
    4645                      .dwpsn  "WIDGET\GUI_widget_dialogBox.c",67,3
    4646 00000639 6F5B          B         L73,UNC               ; |67| 
    4647                      ; branch occurs ; |67| 
    4648              DW$L$_GUI_dialogBox_create$13$E:
    4649              L69:    
    4650              DW$L$_GUI_dialogBox_create$14$B:
    4651                      .dwpsn  "WIDGET\GUI_widget_dialogBox.c",68,8
    4652 0000063a 8A54          MOVL      XAR4,*-SP[20]         ; |68| 
    4653 0000063b 92C4          MOV       AL,*+XAR4[0]          ; |68| 
    4654 0000063c 520A          CMPB      AL,#10                ; |68| 
    4655 0000063d ED15          BF        L70,NEQ               ; |68| 
    4656                      ; branchcc occurs ; |68| 
    4657              DW$L$_GUI_dialogBox_create$14$E:
    4658              DW$L$_GUI_dialogBox_create$15$B:
    4659                      .dwpsn  "WIDGET\GUI_widget_dialogBox.c",70,4
    4660 0000063e 8A54          MOVL      XAR4,*-SP[20]         ; |70| 
    4661 0000063f D00C          MOVB      XAR0,#12              ; |70| 
    4662 00000640 9294          MOV       AL,*+XAR4[AR0]        ; |70| 
    4663 00000641 9641          MOV       *-SP[1],AL            ; |70| 
    4664 00000642 8A54          MOVL      XAR4,*-SP[20]         ; |70| 
TMS320C2000 COFF Assembler PC v4.1.3 Thu Nov 29 16:03:34 2012

Tools Copyright (c) 1996-2006 Texas Instruments Incorporated
C:\DOCUME~1\ADMINI~1\LOCALS~1\Temp\TI9882                            PAGE   90

    4665 00000643 D008          MOVB      XAR0,#8               ; |70| 
    4666 00000644 9294          MOV       AL,*+XAR4[AR0]        ; |70| 
    4667 00000645 9642          MOV       *-SP[2],AL            ; |70| 
    4668 00000646 8A54          MOVL      XAR4,*-SP[20]         ; |70| 
    4669 00000647 92E4          MOV       AL,*+XAR4[4]          ; |70| 
    4670 00000648 8A54          MOVL      XAR4,*-SP[20]         ; |70| 
    4671 00000649 93EC          MOV       AH,*+XAR4[5]          ; |70| 
    4672 0000064a 8A54          MOVL      XAR4,*-SP[20]         ; |70| 
    4673 0000064b 834C          MOVL      XAR5,*-SP[12]         ; |70| 
    4674 0000064c D00A          MOVB      XAR0,#10              ; |70| 
    4675 0000064d 8A94          MOVL      XAR4,*+XAR4[AR0]      ; |70| 
    4676 0000064e 7640'         LCR       #_Gui_drop_list_creat ; |70| 
         0000064f 06E7 
    4677                      ; call occurs [#_Gui_drop_list_creat] ; |70| 
    4678 00000650 A84E          MOVL      *-SP[14],XAR4         ; |70| 
    4679                      .dwpsn  "WIDGET\GUI_widget_dialogBox.c",72,3
    4680 00000651 6F43          B         L73,UNC               ; |72| 
    4681                      ; branch occurs ; |72| 
    4682              DW$L$_GUI_dialogBox_create$15$E:
    4683              L70:    
    4684              DW$L$_GUI_dialogBox_create$16$B:
    4685                      .dwpsn  "WIDGET\GUI_widget_dialogBox.c",73,8
    4686 00000652 8A54          MOVL      XAR4,*-SP[20]         ; |73| 
    4687 00000653 92C4          MOV       AL,*+XAR4[0]          ; |73| 
    4688 00000654 5209          CMPB      AL,#9                 ; |73| 
    4689 00000655 ED13          BF        L71,NEQ               ; |73| 
    4690                      ; branchcc occurs ; |73| 
    4691              DW$L$_GUI_dialogBox_create$16$E:
    4692              DW$L$_GUI_dialogBox_create$17$B:
    4693                      .dwpsn  "WIDGET\GUI_widget_dialogBox.c",75,4
    4694 00000656 8A54          MOVL      XAR4,*-SP[20]         ; |75| 
    4695 00000657 92FC          MOV       AL,*+XAR4[7]          ; |75| 
    4696 00000658 9641          MOV       *-SP[1],AL            ; |75| 
    4697 00000659 8A54          MOVL      XAR4,*-SP[20]         ; |75| 
    4698 0000065a D00C          MOVB      XAR0,#12              ; |75| 
    4699 0000065b 9294          MOV       AL,*+XAR4[AR0]        ; |75| 
    4700 0000065c 9642          MOV       *-SP[2],AL            ; |75| 
    4701 0000065d 8A54          MOVL      XAR4,*-SP[20]         ; |75| 
    4702 0000065e 92E4          MOV       AL,*+XAR4[4]          ; |75| 
    4703 0000065f 8A54          MOVL      XAR4,*-SP[20]         ; |75| 
    4704 00000660 93EC          MOV       AH,*+XAR4[5]          ; |75| 
    4705 00000661 8A54          MOVL      XAR4,*-SP[20]         ; |75| 
    4706 00000662 5DF4          MOVZ      AR5,*+XAR4[6]         ; |75| 
    4707 00000663 8A4C          MOVL      XAR4,*-SP[12]         ; |75| 
    4708 00000664 7640'         LCR       #_Gui_progress_bar_creat ; |75| 
         00000665 0FC9 
    4709                      ; call occurs [#_Gui_progress_bar_creat] ; |75| 
    4710 00000666 A84E          MOVL      *-SP[14],XAR4         ; |75| 
    4711                      .dwpsn  "WIDGET\GUI_widget_dialogBox.c",78,3
    4712 00000667 6F2D          B         L73,UNC               ; |78| 
    4713                      ; branch occurs ; |78| 
    4714              DW$L$_GUI_dialogBox_create$17$E:
    4715              L71:    
    4716              DW$L$_GUI_dialogBox_create$18$B:
    4717                      .dwpsn  "WIDGET\GUI_widget_dialogBox.c",79,8
TMS320C2000 COFF Assembler PC v4.1.3 Thu Nov 29 16:03:34 2012

Tools Copyright (c) 1996-2006 Texas Instruments Incorporated
C:\DOCUME~1\ADMINI~1\LOCALS~1\Temp\TI9882                            PAGE   91

    4718 00000668 8A54          MOVL      XAR4,*-SP[20]         ; |79| 
    4719 00000669 92C4          MOV       AL,*+XAR4[0]          ; |79| 
    4720 0000066a 520C          CMPB      AL,#12                ; |79| 
    4721 0000066b ED13          BF        L72,NEQ               ; |79| 
    4722                      ; branchcc occurs ; |79| 
    4723              DW$L$_GUI_dialogBox_create$18$E:
    4724              DW$L$_GUI_dialogBox_create$19$B:
    4725                      .dwpsn  "WIDGET\GUI_widget_dialogBox.c",81,4
    4726 0000066c 8A54          MOVL      XAR4,*-SP[20]         ; |81| 
    4727 0000066d 92FC          MOV       AL,*+XAR4[7]          ; |81| 
    4728 0000066e 9641          MOV       *-SP[1],AL            ; |81| 
    4729 0000066f 8A54          MOVL      XAR4,*-SP[20]         ; |81| 
    4730 00000670 D008          MOVB      XAR0,#8               ; |81| 
    4731 00000671 9294          MOV       AL,*+XAR4[AR0]        ; |81| 
    4732 00000672 9642          MOV       *-SP[2],AL            ; |81| 
    4733 00000673 8A54          MOVL      XAR4,*-SP[20]         ; |81| 
    4734 00000674 92E4          MOV       AL,*+XAR4[4]          ; |81| 
    4735 00000675 8A54          MOVL      XAR4,*-SP[20]         ; |81| 
    4736 00000676 93EC          MOV       AH,*+XAR4[5]          ; |81| 
    4737 00000677 8A54          MOVL      XAR4,*-SP[20]         ; |81| 
    4738 00000678 5DF4          MOVZ      AR5,*+XAR4[6]         ; |81| 
    4739 00000679 8A4C          MOVL      XAR4,*-SP[12]         ; |81| 
    4740 0000067a 7640'         LCR       #_GUI_radio_create    ; |81| 
         0000067b 105B 
    4741                      ; call occurs [#_GUI_radio_create] ; |81| 
    4742 0000067c A84E          MOVL      *-SP[14],XAR4         ; |81| 
    4743                      .dwpsn  "WIDGET\GUI_widget_dialogBox.c",84,3
    4744 0000067d 6F17          B         L73,UNC               ; |84| 
    4745                      ; branch occurs ; |84| 
    4746              DW$L$_GUI_dialogBox_create$19$E:
    4747              L72:    
    4748              DW$L$_GUI_dialogBox_create$20$B:
    4749                      .dwpsn  "WIDGET\GUI_widget_dialogBox.c",85,8
    4750 0000067e 8A54          MOVL      XAR4,*-SP[20]         ; |85| 
    4751 0000067f 92C4          MOV       AL,*+XAR4[0]          ; |85| 
    4752 00000680 5201          CMPB      AL,#1                 ; |85| 
    4753 00000681 ED3C          BF        L75,NEQ               ; |85| 
    4754                      ; branchcc occurs ; |85| 
    4755              DW$L$_GUI_dialogBox_create$20$E:
    4756              DW$L$_GUI_dialogBox_create$21$B:
    4757                      .dwpsn  "WIDGET\GUI_widget_dialogBox.c",87,4
    4758 00000682 8A54          MOVL      XAR4,*-SP[20]         ; |87| 
    4759 00000683 92FC          MOV       AL,*+XAR4[7]          ; |87| 
    4760 00000684 9641          MOV       *-SP[1],AL            ; |87| 
    4761 00000685 8A54          MOVL      XAR4,*-SP[20]         ; |87| 
    4762 00000686 D008          MOVB      XAR0,#8               ; |87| 
    4763 00000687 9294          MOV       AL,*+XAR4[AR0]        ; |87| 
    4764 00000688 9642          MOV       *-SP[2],AL            ; |87| 
    4765 00000689 8A54          MOVL      XAR4,*-SP[20]         ; |87| 
    4766 0000068a 92E4          MOV       AL,*+XAR4[4]          ; |87| 
    4767 0000068b 8A54          MOVL      XAR4,*-SP[20]         ; |87| 
    4768 0000068c 93EC          MOV       AH,*+XAR4[5]          ; |87| 
    4769 0000068d 8A54          MOVL      XAR4,*-SP[20]         ; |87| 
    4770 0000068e 5DF4          MOVZ      AR5,*+XAR4[6]         ; |87| 
    4771 0000068f 8A4C          MOVL      XAR4,*-SP[12]         ; |87| 
TMS320C2000 COFF Assembler PC v4.1.3 Thu Nov 29 16:03:34 2012

Tools Copyright (c) 1996-2006 Texas Instruments Incorporated
C:\DOCUME~1\ADMINI~1\LOCALS~1\Temp\TI9882                            PAGE   92

    4772 00000690 7640!         LCR       #_GUI_window_child_creat ; |87| 
         00000691 0000 
    4773                      ; call occurs [#_GUI_window_child_creat] ; |87| 
    4774 00000692 A84E          MOVL      *-SP[14],XAR4         ; |87| 
    4775                      .dwpsn  "WIDGET\GUI_widget_dialogBox.c",90,3
    4776 00000693 6F01          B         L73,UNC               ; |90| 
    4777                      ; branch occurs ; |90| 
    4778              DW$L$_GUI_dialogBox_create$21$E:
    4779              L73:    
    4780              DW$L$_GUI_dialogBox_create$23$B:
    4781                      .dwpsn  "WIDGET\GUI_widget_dialogBox.c",92,3
    4782 00000694 8A54          MOVL      XAR4,*-SP[20]         ; |92| 
    4783 00000695 D00E          MOVB      XAR0,#14              ; |92| 
    4784 00000696 0694          MOVL      ACC,*+XAR4[AR0]       ; |92| 
    4785 00000697 EC05          BF        L74,EQ                ; |92| 
    4786                      ; branchcc occurs ; |92| 
    4787              DW$L$_GUI_dialogBox_create$23$E:
    4788              DW$L$_GUI_dialogBox_create$24$B:
    4789                      .dwpsn  "WIDGET\GUI_widget_dialogBox.c",92,25
    4790 00000698 8A54          MOVL      XAR4,*-SP[20]         ; |92| 
    4791 00000699 C594          MOVL      XAR7,*+XAR4[AR0]      ; |92| 
    4792 0000069a 8A4E          MOVL      XAR4,*-SP[14]         ; |92| 
    4793 0000069b 3E67          LCR       *XAR7                 ; |92| 
    4794                      ; call occurs [XAR7] ; |92| 
    4795              DW$L$_GUI_dialogBox_create$24$E:
    4796              L74:    
    4797              DW$L$_GUI_dialogBox_create$25$B:
    4798                      .dwpsn  "WIDGET\GUI_widget_dialogBox.c",93,3
    4799 0000069c 761F-         MOVW      DP,#_dialogBox_offset
         0000069d 0000 
    4800 0000069e 8F00-         MOVL      XAR4,#_dialogBox_ctl+1 ; |93| 
         0000069f 0041 
    4801 000006a0 8354          MOVL      XAR5,*-SP[20]         ; |93| 
    4802 000006a1 0E0F-         MOVU      ACC,@_dialogBox_offset
    4803 000006a2 FF31          LSL       ACC,2                 ; |93| 
    4804 000006a3 5601          ADDL      XAR4,ACC
         000006a4 00A4 
    4805 000006a5 92CD          MOV       AL,*+XAR5[1]          ; |93| 
    4806 000006a6 96C4          MOV       *+XAR4[0],AL          ; |93| 
    4807                      .dwpsn  "WIDGET\GUI_widget_dialogBox.c",94,3
    4808 000006a7 0E0F-         MOVU      ACC,@_dialogBox_offset
    4809 000006a8 8F00-         MOVL      XAR4,#_dialogBox_ctl+2 ; |94| 
         000006a9 0042 
    4810 000006aa FF31          LSL       ACC,2                 ; |94| 
    4811 000006ab 5601          ADDL      XAR4,ACC
         000006ac 00A4 
    4812 000006ad 064E          MOVL      ACC,*-SP[14]          ; |94| 
    4813 000006ae 1EC4          MOVL      *+XAR4[0],ACC         ; |94| 
    4814                      .dwpsn  "WIDGET\GUI_widget_dialogBox.c",95,3
    4815 000006af 0E0F-         MOVU      ACC,@_dialogBox_offset
    4816 000006b0 8F00-         MOVL      XAR4,#_dialogBox_ctl  ; |95| 
         000006b1 0040 
    4817 000006b2 FF31          LSL       ACC,2                 ; |95| 
    4818 000006b3 5601          ADDL      XAR4,ACC
         000006b4 00A4 
TMS320C2000 COFF Assembler PC v4.1.3 Thu Nov 29 16:03:34 2012

Tools Copyright (c) 1996-2006 Texas Instruments Incorporated
C:\DOCUME~1\ADMINI~1\LOCALS~1\Temp\TI9882                            PAGE   93

    4819 000006b5 28C4          MOV       *+XAR4[0],#1          ; |95| 
         000006b6 0001 
    4820                      .dwpsn  "WIDGET\GUI_widget_dialogBox.c",96,3
    4821 000006b7 0A0F-         INC       @_dialogBox_offset    ; |96| 
    4822                      .dwpsn  "WIDGET\GUI_widget_dialogBox.c",48,31
    4823 000006b8 0A4F          INC       *-SP[15]              ; |48| 
    4824                      .dwpsn  "WIDGET\GUI_widget_dialogBox.c",48,15
    4825 000006b9 925A          MOV       AL,*-SP[26]           ; |48| 
    4826 000006ba 544F          CMP       AL,*-SP[15]           ; |48| 
    4827 000006bb FFE6          B         L66,HI                ; |48| 
         000006bc FF31 
    4828                      ; branchcc occurs ; |48| 
    4829              DW$L$_GUI_dialogBox_create$25$E:
    4830              L75:    
    4831                      .dwpsn  "WIDGET\GUI_widget_dialogBox.c",98,2
    4832 000006bd 8A4C          MOVL      XAR4,*-SP[12]         ; |98| 
    4833 000006be 7640!         LCR       #_GUI_window_hwin_release ; |98| 
         000006bf 0000 
    4834                      ; call occurs [#_GUI_window_hwin_release] ; |98| 
    4835                      .dwpsn  "WIDGET\GUI_widget_dialogBox.c",99,2
    4836 000006c0 8A4C          MOVL      XAR4,*-SP[12]         ; |99| 
    4837                      .dwpsn  "WIDGET\GUI_widget_dialogBox.c",100,1
    4838 000006c1 FE94          SUBB      SP,#20                ; |99| 
    4839                      .dwcfa  0x1d, -2
    4840 000006c2 0006          LRETR
    4841                      ; return occurs
    4842              
    4843              DW$477  .dwtag  DW_TAG_loop
    4844                      .dwattr DW$477, DW_AT_name("C:\DOCUME~1\ADMINI~1\LOCALS~1\Temp\TI9882:L66:1:1354176212")
    4845                      .dwattr DW$477, DW_AT_begin_file("WIDGET\GUI_widget_dialogBox.c")
    4846                      .dwattr DW$477, DW_AT_begin_line(0x30)
    4847                      .dwattr DW$477, DW_AT_end_line(0x61)
    4848              DW$478  .dwtag  DW_TAG_loop_range
    4849                      .dwattr DW$478, DW_AT_low_pc(DW$L$_GUI_dialogBox_create$7$B)
    4850                      .dwattr DW$478, DW_AT_high_pc(DW$L$_GUI_dialogBox_create$7$E)
    4851              DW$479  .dwtag  DW_TAG_loop_range
    4852                      .dwattr DW$479, DW_AT_low_pc(DW$L$_GUI_dialogBox_create$20$B)
    4853                      .dwattr DW$479, DW_AT_high_pc(DW$L$_GUI_dialogBox_create$20$E)
    4854              DW$480  .dwtag  DW_TAG_loop_range
    4855                      .dwattr DW$480, DW_AT_low_pc(DW$L$_GUI_dialogBox_create$18$B)
    4856                      .dwattr DW$480, DW_AT_high_pc(DW$L$_GUI_dialogBox_create$18$E)
    4857              DW$481  .dwtag  DW_TAG_loop_range
    4858                      .dwattr DW$481, DW_AT_low_pc(DW$L$_GUI_dialogBox_create$16$B)
    4859                      .dwattr DW$481, DW_AT_high_pc(DW$L$_GUI_dialogBox_create$16$E)
    4860              DW$482  .dwtag  DW_TAG_loop_range
    4861                      .dwattr DW$482, DW_AT_low_pc(DW$L$_GUI_dialogBox_create$14$B)
    4862                      .dwattr DW$482, DW_AT_high_pc(DW$L$_GUI_dialogBox_create$14$E)
    4863              DW$483  .dwtag  DW_TAG_loop_range
    4864                      .dwattr DW$483, DW_AT_low_pc(DW$L$_GUI_dialogBox_create$12$B)
    4865                      .dwattr DW$483, DW_AT_high_pc(DW$L$_GUI_dialogBox_create$12$E)
    4866              DW$484  .dwtag  DW_TAG_loop_range
    4867                      .dwattr DW$484, DW_AT_low_pc(DW$L$_GUI_dialogBox_create$8$B)
    4868                      .dwattr DW$484, DW_AT_high_pc(DW$L$_GUI_dialogBox_create$8$E)
    4869              DW$485  .dwtag  DW_TAG_loop_range
    4870                      .dwattr DW$485, DW_AT_low_pc(DW$L$_GUI_dialogBox_create$9$B)
TMS320C2000 COFF Assembler PC v4.1.3 Thu Nov 29 16:03:34 2012

Tools Copyright (c) 1996-2006 Texas Instruments Incorporated
C:\DOCUME~1\ADMINI~1\LOCALS~1\Temp\TI9882                            PAGE   94

    4871                      .dwattr DW$485, DW_AT_high_pc(DW$L$_GUI_dialogBox_create$9$E)
    4872              DW$486  .dwtag  DW_TAG_loop_range
    4873                      .dwattr DW$486, DW_AT_low_pc(DW$L$_GUI_dialogBox_create$10$B)
    4874                      .dwattr DW$486, DW_AT_high_pc(DW$L$_GUI_dialogBox_create$10$E)
    4875              DW$487  .dwtag  DW_TAG_loop_range
    4876                      .dwattr DW$487, DW_AT_low_pc(DW$L$_GUI_dialogBox_create$11$B)
    4877                      .dwattr DW$487, DW_AT_high_pc(DW$L$_GUI_dialogBox_create$11$E)
    4878              DW$488  .dwtag  DW_TAG_loop_range
    4879                      .dwattr DW$488, DW_AT_low_pc(DW$L$_GUI_dialogBox_create$13$B)
    4880                      .dwattr DW$488, DW_AT_high_pc(DW$L$_GUI_dialogBox_create$13$E)
    4881              DW$489  .dwtag  DW_TAG_loop_range
    4882                      .dwattr DW$489, DW_AT_low_pc(DW$L$_GUI_dialogBox_create$15$B)
    4883                      .dwattr DW$489, DW_AT_high_pc(DW$L$_GUI_dialogBox_create$15$E)
    4884              DW$490  .dwtag  DW_TAG_loop_range
    4885                      .dwattr DW$490, DW_AT_low_pc(DW$L$_GUI_dialogBox_create$17$B)
    4886                      .dwattr DW$490, DW_AT_high_pc(DW$L$_GUI_dialogBox_create$17$E)
    4887              DW$491  .dwtag  DW_TAG_loop_range
    4888                      .dwattr DW$491, DW_AT_low_pc(DW$L$_GUI_dialogBox_create$19$B)
    4889                      .dwattr DW$491, DW_AT_high_pc(DW$L$_GUI_dialogBox_create$19$E)
    4890              DW$492  .dwtag  DW_TAG_loop_range
    4891                      .dwattr DW$492, DW_AT_low_pc(DW$L$_GUI_dialogBox_create$21$B)
    4892                      .dwattr DW$492, DW_AT_high_pc(DW$L$_GUI_dialogBox_create$21$E)
    4893              DW$493  .dwtag  DW_TAG_loop_range
    4894                      .dwattr DW$493, DW_AT_low_pc(DW$L$_GUI_dialogBox_create$23$B)
    4895                      .dwattr DW$493, DW_AT_high_pc(DW$L$_GUI_dialogBox_create$23$E)
    4896              DW$494  .dwtag  DW_TAG_loop_range
    4897                      .dwattr DW$494, DW_AT_low_pc(DW$L$_GUI_dialogBox_create$24$B)
    4898                      .dwattr DW$494, DW_AT_high_pc(DW$L$_GUI_dialogBox_create$24$E)
    4899              DW$495  .dwtag  DW_TAG_loop_range
    4900                      .dwattr DW$495, DW_AT_low_pc(DW$L$_GUI_dialogBox_create$25$B)
    4901                      .dwattr DW$495, DW_AT_high_pc(DW$L$_GUI_dialogBox_create$25$E)
    4902                      .dwendtag DW$477
    4903              
    4904                      .dwattr DW$458, DW_AT_end_file("WIDGET\GUI_widget_dialogBox.c")
    4905                      .dwattr DW$458, DW_AT_end_line(0x64)
    4906                      .dwattr DW$458, DW_AT_end_column(0x01)
    4907                      .dwendentry
    4908                      .dwendtag DW$458
    4909              
    4910 000006c3               .sect   ".text"
    4911                      .global _GUI_dialogBox_init
    4912              
    4913              DW$496  .dwtag  DW_TAG_subprogram, DW_AT_name("GUI_dialogBox_init"), DW_AT_symbol_name("_GUI_dialogBox_init")
    4914                      .dwattr DW$496, DW_AT_low_pc(_GUI_dialogBox_init)
    4915                      .dwattr DW$496, DW_AT_high_pc(0x00)
    4916                      .dwattr DW$496, DW_AT_begin_file("WIDGET\GUI_widget_dialogBox.c")
    4917                      .dwattr DW$496, DW_AT_begin_line(0x65)
    4918                      .dwattr DW$496, DW_AT_begin_column(0x06)
    4919                      .dwpsn  "WIDGET\GUI_widget_dialogBox.c",102,1
    4920              
    4921                      .dwfde DW$CIE
    4922              
    4923              ;***************************************************************
    4924              ;* FNAME: _GUI_dialogBox_init           FR SIZE:   0           *
    4925              ;*                                                             *
TMS320C2000 COFF Assembler PC v4.1.3 Thu Nov 29 16:03:34 2012

Tools Copyright (c) 1996-2006 Texas Instruments Incorporated
C:\DOCUME~1\ADMINI~1\LOCALS~1\Temp\TI9882                            PAGE   95

    4926              ;* FUNCTION ENVIRONMENT                                        *
    4927              ;*                                                             *
    4928              ;* FUNCTION PROPERTIES                                         *
    4929              ;*                            0 Parameter,  0 Auto,  0 SOE     *
    4930              ;***************************************************************
    4931              
    4932              _GUI_dialogBox_init:
    4933                      .dwcfa  0x1d, -2
    4934                      .dwcfa  0x1c, 26, 0
    4935                      .dwcfa  0x09, 40, 26
    4936                      .dwpsn  "WIDGET\GUI_widget_dialogBox.c",103,5
    4937                      .dwpsn  "WIDGET\GUI_widget_dialogBox.c",104,1
    4938 000006c3 0006          LRETR
    4939                      ; return occurs
    4940                      .dwattr DW$496, DW_AT_end_file("WIDGET\GUI_widget_dialogBox.c")
    4941                      .dwattr DW$496, DW_AT_end_line(0x68)
    4942                      .dwattr DW$496, DW_AT_end_column(0x01)
    4943                      .dwendentry
    4944                      .dwendtag DW$496
    4945              
    4946 000006c4               .sect   ".text"
    4947                      .global _GUI_widget_key_cnt_reload
    4948              
    4949              DW$497  .dwtag  DW_TAG_subprogram, DW_AT_name("GUI_widget_key_cnt_reload"), DW_AT_symbol_name("_GUI_widget_ke
    4950                      .dwattr DW$497, DW_AT_low_pc(_GUI_widget_key_cnt_reload)
    4951                      .dwattr DW$497, DW_AT_high_pc(0x00)
    4952                      .dwattr DW$497, DW_AT_begin_file("WIDGET\Gui_widget_droplist.c")
    4953                      .dwattr DW$497, DW_AT_begin_line(0x05)
    4954                      .dwattr DW$497, DW_AT_begin_column(0x06)
    4955                      .dwpsn  "WIDGET\Gui_widget_droplist.c",6,1
    4956              
    4957                      .dwfde DW$CIE
    4958              
    4959              ;***************************************************************
    4960              ;* FNAME: _GUI_widget_key_cnt_reload    FR SIZE:   0           *
    4961              ;*                                                             *
    4962              ;* FUNCTION ENVIRONMENT                                        *
    4963              ;*                                                             *
    4964              ;* FUNCTION PROPERTIES                                         *
    4965              ;*                            0 Parameter,  0 Auto,  0 SOE     *
    4966              ;***************************************************************
    4967              
    4968              _GUI_widget_key_cnt_reload:
    4969                      .dwcfa  0x1d, -2
    4970                      .dwcfa  0x1c, 26, 0
    4971                      .dwcfa  0x09, 40, 26
    4972                      .dwpsn  "WIDGET\Gui_widget_droplist.c",7,3
    4973 000006c4 7640!         LCR       #_OSTimeGet           ; |7| 
         000006c5 0000 
    4974                      ; call occurs [#_OSTimeGet] ; |7| 
    4975 000006c6 761F-         MOVW      DP,#_m_drop_list_cnt
         000006c7 0000 
    4976 000006c8 1E16-         MOVL      @_m_drop_list_cnt,ACC ; |7| 
    4977                      .dwpsn  "WIDGET\Gui_widget_droplist.c",8,3
    4978                      .dwpsn  "WIDGET\Gui_widget_droplist.c",9,1
TMS320C2000 COFF Assembler PC v4.1.3 Thu Nov 29 16:03:34 2012

Tools Copyright (c) 1996-2006 Texas Instruments Incorporated
C:\DOCUME~1\ADMINI~1\LOCALS~1\Temp\TI9882                            PAGE   96

    4979 000006c9 0006          LRETR
    4980                      ; return occurs
    4981                      .dwattr DW$497, DW_AT_end_file("WIDGET\Gui_widget_droplist.c")
    4982                      .dwattr DW$497, DW_AT_end_line(0x09)
    4983                      .dwattr DW$497, DW_AT_end_column(0x01)
    4984                      .dwendentry
    4985                      .dwendtag DW$497
    4986              
    4987 000006ca               .sect   ".text"
    4988                      .global _GUI_widget_key_cnt_wait
    4989              
    4990              DW$498  .dwtag  DW_TAG_subprogram, DW_AT_name("GUI_widget_key_cnt_wait"), DW_AT_symbol_name("_GUI_widget_key_
    4991                      .dwattr DW$498, DW_AT_low_pc(_GUI_widget_key_cnt_wait)
    4992                      .dwattr DW$498, DW_AT_high_pc(0x00)
    4993                      .dwattr DW$498, DW_AT_begin_file("WIDGET\Gui_widget_droplist.c")
    4994                      .dwattr DW$498, DW_AT_begin_line(0x0b)
    4995                      .dwattr DW$498, DW_AT_begin_column(0x06)
    4996                      .dwpsn  "WIDGET\Gui_widget_droplist.c",12,1
    4997              
    4998                      .dwfde DW$CIE
    4999              
    5000              ;***************************************************************
    5001              ;* FNAME: _GUI_widget_key_cnt_wait      FR SIZE:   0           *
    5002              ;*                                                             *
    5003              ;* FUNCTION ENVIRONMENT                                        *
    5004              ;*                                                             *
    5005              ;* FUNCTION PROPERTIES                                         *
    5006              ;*                            0 Parameter,  0 Auto,  0 SOE     *
    5007              ;***************************************************************
    5008              
    5009              _GUI_widget_key_cnt_wait:
    5010                      .dwcfa  0x1d, -2
    5011                      .dwcfa  0x1c, 26, 0
    5012                      .dwcfa  0x09, 40, 26
    5013                      .dwpsn  "WIDGET\Gui_widget_droplist.c",13,4
    5014 000006ca 7640!         LCR       #_OSTimeGet           ; |13| 
         000006cb 0000 
    5015                      ; call occurs [#_OSTimeGet] ; |13| 
    5016 000006cc BE32          MOVB      XAR6,#50
    5017 000006cd 761F-         MOVW      DP,#_m_drop_list_cnt
         000006ce 0000 
    5018 000006cf 0316-         SUBL      ACC,@_m_drop_list_cnt ; |13| 
    5019 000006d0 0FA6          CMPL      ACC,XAR6              ; |13| 
    5020 000006d1 6903          B         L76,LOS               ; |13| 
    5021                      ; branchcc occurs ; |13| 
    5022                      .dwpsn  "WIDGET\Gui_widget_droplist.c",14,4
    5023 000006d2 9A01          MOVB      AL,#1                 ; |14| 
    5024 000006d3 6F02          B         L77,UNC               ; |14| 
    5025                      ; branch occurs ; |14| 
    5026              L76:    
    5027                      .dwpsn  "WIDGET\Gui_widget_droplist.c",15,9
    5028 000006d4 9A00          MOVB      AL,#0
    5029              L77:    
    5030                      .dwpsn  "WIDGET\Gui_widget_droplist.c",16,1
    5031 000006d5 0006          LRETR
TMS320C2000 COFF Assembler PC v4.1.3 Thu Nov 29 16:03:34 2012

Tools Copyright (c) 1996-2006 Texas Instruments Incorporated
C:\DOCUME~1\ADMINI~1\LOCALS~1\Temp\TI9882                            PAGE   97

    5032                      ; return occurs
    5033                      .dwattr DW$498, DW_AT_end_file("WIDGET\Gui_widget_droplist.c")
    5034                      .dwattr DW$498, DW_AT_end_line(0x10)
    5035                      .dwattr DW$498, DW_AT_end_column(0x01)
    5036                      .dwendentry
    5037                      .dwendtag DW$498
    5038              
    5039 000006d6               .sect   ".text"
    5040                      .global _Gui_drop_list_set_color
    5041              
    5042              DW$499  .dwtag  DW_TAG_subprogram, DW_AT_name("Gui_drop_list_set_color"), DW_AT_symbol_name("_Gui_drop_list_s
    5043                      .dwattr DW$499, DW_AT_low_pc(_Gui_drop_list_set_color)
    5044                      .dwattr DW$499, DW_AT_high_pc(0x00)
    5045                      .dwattr DW$499, DW_AT_begin_file("WIDGET\Gui_widget_droplist.c")
    5046                      .dwattr DW$499, DW_AT_begin_line(0x17)
    5047                      .dwattr DW$499, DW_AT_begin_column(0x06)
    5048                      .dwpsn  "WIDGET\Gui_widget_droplist.c",24,1
    5049              
    5050                      .dwfde DW$CIE
    5051              
    5052              ;***************************************************************
    5053              ;* FNAME: _Gui_drop_list_set_color      FR SIZE:   2           *
    5054              ;*                                                             *
    5055              ;* FUNCTION ENVIRONMENT                                        *
    5056              ;*                                                             *
    5057              ;* FUNCTION PROPERTIES                                         *
    5058              ;*                            0 Parameter,  2 Auto,  0 SOE     *
    5059              ;***************************************************************
    5060              
    5061              _Gui_drop_list_set_color:
    5062                      .dwcfa  0x1d, -2
    5063                      .dwcfa  0x1c, 26, 0
    5064                      .dwcfa  0x09, 40, 26
    5065 000006d6 FE02          ADDB      SP,#2
    5066                      .dwcfa  0x1d, -4
    5067              ;* AL    assigned to _Fgcor
    5068              DW$500  .dwtag  DW_TAG_formal_parameter, DW_AT_name("Fgcor"), DW_AT_symbol_name("_Fgcor")
    5069                      .dwattr DW$500, DW_AT_type(*DW$T$11)
    5070                      .dwattr DW$500, DW_AT_location[DW_OP_reg0]
    5071              ;* AH    assigned to _Bgcor
    5072              DW$501  .dwtag  DW_TAG_formal_parameter, DW_AT_name("Bgcor"), DW_AT_symbol_name("_Bgcor")
    5073                      .dwattr DW$501, DW_AT_type(*DW$T$11)
    5074                      .dwattr DW$501, DW_AT_location[DW_OP_reg1]
    5075              DW$502  .dwtag  DW_TAG_variable, DW_AT_name("Fgcor"), DW_AT_symbol_name("_Fgcor")
    5076                      .dwattr DW$502, DW_AT_type(*DW$T$11)
    5077                      .dwattr DW$502, DW_AT_location[DW_OP_breg20 -1]
    5078              DW$503  .dwtag  DW_TAG_variable, DW_AT_name("Bgcor"), DW_AT_symbol_name("_Bgcor")
    5079                      .dwattr DW$503, DW_AT_type(*DW$T$11)
    5080                      .dwattr DW$503, DW_AT_location[DW_OP_breg20 -2]
    5081 000006d7 9742          MOV       *-SP[2],AH            ; |24| 
    5082 000006d8 9641          MOV       *-SP[1],AL            ; |24| 
    5083                      .dwpsn  "WIDGET\Gui_widget_droplist.c",25,4
    5084 000006d9 761F-         MOVW      DP,#_m_GUI_drop_list_SW_Bgcor
         000006da 0000 
    5085 000006db 9242          MOV       AL,*-SP[2]            ; |25| 
TMS320C2000 COFF Assembler PC v4.1.3 Thu Nov 29 16:03:34 2012

Tools Copyright (c) 1996-2006 Texas Instruments Incorporated
C:\DOCUME~1\ADMINI~1\LOCALS~1\Temp\TI9882                            PAGE   98

    5086 000006dc 9603-         MOV       @_m_GUI_drop_list_SW_Bgcor,AL ; |25| 
    5087                      .dwpsn  "WIDGET\Gui_widget_droplist.c",26,4
    5088 000006dd 9241          MOV       AL,*-SP[1]            ; |26| 
    5089 000006de 960A-         MOV       @_m_GUI_drop_list_SW_Fgcor,AL ; |26| 
    5090                      .dwpsn  "WIDGET\Gui_widget_droplist.c",27,4
    5091                      .dwpsn  "WIDGET\Gui_widget_droplist.c",28,1
    5092 000006df FE82          SUBB      SP,#2
    5093                      .dwcfa  0x1d, -2
    5094 000006e0 0006          LRETR
    5095                      ; return occurs
    5096                      .dwattr DW$499, DW_AT_end_file("WIDGET\Gui_widget_droplist.c")
    5097                      .dwattr DW$499, DW_AT_end_line(0x1c)
    5098                      .dwattr DW$499, DW_AT_end_column(0x01)
    5099                      .dwendentry
    5100                      .dwendtag DW$499
    5101              
    5102 000006e1               .sect   ".text"
    5103                      .global _Gui_drop_list_init
    5104              
    5105              DW$504  .dwtag  DW_TAG_subprogram, DW_AT_name("Gui_drop_list_init"), DW_AT_symbol_name("_Gui_drop_list_init")
    5106                      .dwattr DW$504, DW_AT_low_pc(_Gui_drop_list_init)
    5107                      .dwattr DW$504, DW_AT_high_pc(0x00)
    5108                      .dwattr DW$504, DW_AT_begin_file("WIDGET\Gui_widget_droplist.c")
    5109                      .dwattr DW$504, DW_AT_begin_line(0x1d)
    5110                      .dwattr DW$504, DW_AT_begin_column(0x06)
    5111                      .dwpsn  "WIDGET\Gui_widget_droplist.c",30,1
    5112              
    5113                      .dwfde DW$CIE
    5114              
    5115              ;***************************************************************
    5116              ;* FNAME: _Gui_drop_list_init           FR SIZE:   0           *
    5117              ;*                                                             *
    5118              ;* FUNCTION ENVIRONMENT                                        *
    5119              ;*                                                             *
    5120              ;* FUNCTION PROPERTIES                                         *
    5121              ;*                            0 Parameter,  0 Auto,  0 SOE     *
    5122              ;***************************************************************
    5123              
    5124              _Gui_drop_list_init:
    5125                      .dwcfa  0x1d, -2
    5126                      .dwcfa  0x1c, 26, 0
    5127                      .dwcfa  0x09, 40, 26
    5128                      .dwpsn  "WIDGET\Gui_widget_droplist.c",31,4
    5129 000006e1 761F-         MOVW      DP,#_m_GUI_drop_list_SW_Bgcor
         000006e2 0000 
    5130 000006e3 2803-         MOV       @_m_GUI_drop_list_SW_Bgcor,#14 ; |31| 
         000006e4 000E 
    5131                      .dwpsn  "WIDGET\Gui_widget_droplist.c",32,4
    5132 000006e5 2B0A-         MOV       @_m_GUI_drop_list_SW_Fgcor,#0 ; |32| 
    5133                      .dwpsn  "WIDGET\Gui_widget_droplist.c",33,4
    5134                      .dwpsn  "WIDGET\Gui_widget_droplist.c",34,1
    5135 000006e6 0006          LRETR
    5136                      ; return occurs
    5137                      .dwattr DW$504, DW_AT_end_file("WIDGET\Gui_widget_droplist.c")
    5138                      .dwattr DW$504, DW_AT_end_line(0x22)
TMS320C2000 COFF Assembler PC v4.1.3 Thu Nov 29 16:03:34 2012

Tools Copyright (c) 1996-2006 Texas Instruments Incorporated
C:\DOCUME~1\ADMINI~1\LOCALS~1\Temp\TI9882                            PAGE   99

    5139                      .dwattr DW$504, DW_AT_end_column(0x01)
    5140                      .dwendentry
    5141                      .dwendtag DW$504
    5142              
    5143 000006e7               .sect   ".text"
    5144                      .global _Gui_drop_list_creat
    5145              
    5146              DW$505  .dwtag  DW_TAG_subprogram, DW_AT_name("Gui_drop_list_creat"), DW_AT_symbol_name("_Gui_drop_list_creat
    5147                      .dwattr DW$505, DW_AT_low_pc(_Gui_drop_list_creat)
    5148                      .dwattr DW$505, DW_AT_high_pc(0x00)
    5149                      .dwattr DW$505, DW_AT_begin_file("WIDGET\Gui_widget_droplist.c")
    5150                      .dwattr DW$505, DW_AT_begin_line(0x29)
    5151                      .dwattr DW$505, DW_AT_begin_column(0x09)
    5152                      .dwpsn  "WIDGET\Gui_widget_droplist.c",48,1
    5153              
    5154                      .dwfde DW$CIE
    5155              
    5156              ;***************************************************************
    5157              ;* FNAME: _Gui_drop_list_creat          FR SIZE:  18           *
    5158              ;*                                                             *
    5159              ;* FUNCTION ENVIRONMENT                                        *
    5160              ;*                                                             *
    5161              ;* FUNCTION PROPERTIES                                         *
    5162              ;*                            2 Parameter, 14 Auto,  2 SOE     *
    5163              ;***************************************************************
    5164              
    5165              _Gui_drop_list_creat:
    5166                      .dwcfa  0x1d, -2
    5167                      .dwcfa  0x1c, 26, 0
    5168                      .dwcfa  0x09, 40, 26
    5169 000006e7 B2BD          MOVL      *SP++,XAR1
    5170                      .dwcfa  0x80, 7, 2
    5171                      .dwcfa  0x1d, -4
    5172 000006e8 FE10          ADDB      SP,#16
    5173                      .dwcfa  0x1d, -20
    5174              ;* AL    assigned to _xcoord
    5175              DW$506  .dwtag  DW_TAG_formal_parameter, DW_AT_name("xcoord"), DW_AT_symbol_name("_xcoord")
    5176                      .dwattr DW$506, DW_AT_type(*DW$T$11)
    5177                      .dwattr DW$506, DW_AT_location[DW_OP_reg0]
    5178              ;* AH    assigned to _ycoord
    5179              DW$507  .dwtag  DW_TAG_formal_parameter, DW_AT_name("ycoord"), DW_AT_symbol_name("_ycoord")
    5180                      .dwattr DW$507, DW_AT_type(*DW$T$11)
    5181                      .dwattr DW$507, DW_AT_location[DW_OP_reg1]
    5182              ;* AR4   assigned to _pmember
    5183              DW$508  .dwtag  DW_TAG_formal_parameter, DW_AT_name("pmember"), DW_AT_symbol_name("_pmember")
    5184                      .dwattr DW$508, DW_AT_type(*DW$T$36)
    5185                      .dwattr DW$508, DW_AT_location[DW_OP_reg12]
    5186              DW$509  .dwtag  DW_TAG_formal_parameter, DW_AT_name("size"), DW_AT_symbol_name("_size")
    5187                      .dwattr DW$509, DW_AT_type(*DW$T$6)
    5188                      .dwattr DW$509, DW_AT_location[DW_OP_breg20 -21]
    5189              DW$510  .dwtag  DW_TAG_formal_parameter, DW_AT_name("flag"), DW_AT_symbol_name("_flag")
    5190                      .dwattr DW$510, DW_AT_type(*DW$T$27)
    5191                      .dwattr DW$510, DW_AT_location[DW_OP_breg20 -22]
    5192              ;* AR5   assigned to _fatherhp
    5193              DW$511  .dwtag  DW_TAG_formal_parameter, DW_AT_name("fatherhp"), DW_AT_symbol_name("_fatherhp")
TMS320C2000 COFF Assembler PC v4.1.3 Thu Nov 29 16:03:34 2012

Tools Copyright (c) 1996-2006 Texas Instruments Incorporated
C:\DOCUME~1\ADMINI~1\LOCALS~1\Temp\TI9882                            PAGE  100

    5194                      .dwattr DW$511, DW_AT_type(*DW$T$54)
    5195                      .dwattr DW$511, DW_AT_location[DW_OP_reg14]
    5196              DW$512  .dwtag  DW_TAG_variable, DW_AT_name("xcoord"), DW_AT_symbol_name("_xcoord")
    5197                      .dwattr DW$512, DW_AT_type(*DW$T$11)
    5198                      .dwattr DW$512, DW_AT_location[DW_OP_breg20 -3]
    5199              DW$513  .dwtag  DW_TAG_variable, DW_AT_name("ycoord"), DW_AT_symbol_name("_ycoord")
    5200                      .dwattr DW$513, DW_AT_type(*DW$T$11)
    5201                      .dwattr DW$513, DW_AT_location[DW_OP_breg20 -4]
    5202              DW$514  .dwtag  DW_TAG_variable, DW_AT_name("pmember"), DW_AT_symbol_name("_pmember")
    5203                      .dwattr DW$514, DW_AT_type(*DW$T$36)
    5204                      .dwattr DW$514, DW_AT_location[DW_OP_breg20 -6]
    5205              DW$515  .dwtag  DW_TAG_variable, DW_AT_name("fatherhp"), DW_AT_symbol_name("_fatherhp")
    5206                      .dwattr DW$515, DW_AT_type(*DW$T$54)
    5207                      .dwattr DW$515, DW_AT_location[DW_OP_breg20 -8]
    5208              DW$516  .dwtag  DW_TAG_variable, DW_AT_name("hp"), DW_AT_symbol_name("_hp")
    5209                      .dwattr DW$516, DW_AT_type(*DW$T$54)
    5210                      .dwattr DW$516, DW_AT_location[DW_OP_breg20 -10]
    5211              DW$517  .dwtag  DW_TAG_variable, DW_AT_name("lenth"), DW_AT_symbol_name("_lenth")
    5212                      .dwattr DW$517, DW_AT_type(*DW$T$6)
    5213                      .dwattr DW$517, DW_AT_location[DW_OP_breg20 -11]
    5214              DW$518  .dwtag  DW_TAG_variable, DW_AT_name("offset"), DW_AT_symbol_name("_offset")
    5215                      .dwattr DW$518, DW_AT_type(*DW$T$6)
    5216                      .dwattr DW$518, DW_AT_location[DW_OP_breg20 -12]
    5217              DW$519  .dwtag  DW_TAG_variable, DW_AT_name("wide"), DW_AT_symbol_name("_wide")
    5218                      .dwattr DW$519, DW_AT_type(*DW$T$27)
    5219                      .dwattr DW$519, DW_AT_location[DW_OP_breg20 -13]
    5220              DW$520  .dwtag  DW_TAG_variable, DW_AT_name("x"), DW_AT_symbol_name("_x")
    5221                      .dwattr DW$520, DW_AT_type(*DW$T$11)
    5222                      .dwattr DW$520, DW_AT_location[DW_OP_breg20 -14]
    5223              DW$521  .dwtag  DW_TAG_variable, DW_AT_name("y"), DW_AT_symbol_name("_y")
    5224                      .dwattr DW$521, DW_AT_type(*DW$T$11)
    5225                      .dwattr DW$521, DW_AT_location[DW_OP_breg20 -15]
    5226              DW$522  .dwtag  DW_TAG_variable, DW_AT_name("len"), DW_AT_symbol_name("_len")
    5227                      .dwattr DW$522, DW_AT_type(*DW$T$11)
    5228                      .dwattr DW$522, DW_AT_location[DW_OP_breg20 -16]
    5229 000006e9 A048          MOVL      *-SP[8],XAR5          ; |48| 
    5230 000006ea A846          MOVL      *-SP[6],XAR4          ; |48| 
    5231 000006eb 9744          MOV       *-SP[4],AH            ; |48| 
    5232 000006ec 9643          MOV       *-SP[3],AL            ; |48| 
    5233                      .dwpsn  "WIDGET\Gui_widget_droplist.c",50,10
    5234 000006ed 2B4B          MOV       *-SP[11],#0           ; |50| 
    5235                      .dwpsn  "WIDGET\Gui_widget_droplist.c",54,8
    5236 000006ee 2B4C          MOV       *-SP[12],#0           ; |54| 
    5237 000006ef 6F16          B         L80,UNC               ; |54| 
    5238                      ; branch occurs ; |54| 
    5239              L78:    
    5240              DW$L$_Gui_drop_list_creat$2$B:
    5241                      .dwpsn  "WIDGET\Gui_widget_droplist.c",56,3
    5242 000006f0 8A46          MOVL      XAR4,*-SP[6]          ; |56| 
    5243 000006f1 0E4C          MOVU      ACC,*-SP[12]
    5244 000006f2 FF30          LSL       ACC,1                 ; |56| 
    5245 000006f3 5601          ADDL      XAR4,ACC
         000006f4 00A4 
    5246 000006f5 8AC4          MOVL      XAR4,*+XAR4[0]        ; |56| 
    5247 000006f6 7640!         LCR       #_strlen              ; |56| 
TMS320C2000 COFF Assembler PC v4.1.3 Thu Nov 29 16:03:34 2012

Tools Copyright (c) 1996-2006 Texas Instruments Incorporated
C:\DOCUME~1\ADMINI~1\LOCALS~1\Temp\TI9882                            PAGE  101

         000006f7 0000 
    5248                      ; call occurs [#_strlen] ; |56| 
    5249 000006f8 884B          MOVZ      AR6,*-SP[11]
    5250 000006f9 0FA6          CMPL      ACC,XAR6              ; |56| 
    5251 000006fa 690A          B         L79,LOS               ; |56| 
    5252                      ; branchcc occurs ; |56| 
    5253              DW$L$_Gui_drop_list_creat$2$E:
    5254              DW$L$_Gui_drop_list_creat$3$B:
    5255                      .dwpsn  "WIDGET\Gui_widget_droplist.c",58,4
    5256 000006fb 8A46          MOVL      XAR4,*-SP[6]          ; |58| 
    5257 000006fc 0E4C          MOVU      ACC,*-SP[12]
    5258 000006fd FF30          LSL       ACC,1                 ; |58| 
    5259 000006fe 5601          ADDL      XAR4,ACC
         000006ff 00A4 
    5260 00000700 8AC4          MOVL      XAR4,*+XAR4[0]        ; |58| 
    5261 00000701 7640!         LCR       #_strlen              ; |58| 
         00000702 0000 
    5262                      ; call occurs [#_strlen] ; |58| 
    5263 00000703 964B          MOV       *-SP[11],AL           ; |58| 
    5264              DW$L$_Gui_drop_list_creat$3$E:
    5265              L79:    
    5266              DW$L$_Gui_drop_list_creat$4$B:
    5267                      .dwpsn  "WIDGET\Gui_widget_droplist.c",54,33
    5268 00000704 0A4C          INC       *-SP[12]              ; |54| 
    5269              DW$L$_Gui_drop_list_creat$4$E:
    5270              L80:    
    5271              DW$L$_Gui_drop_list_creat$5$B:
    5272                      .dwpsn  "WIDGET\Gui_widget_droplist.c",54,19
    5273 00000705 9255          MOV       AL,*-SP[21]           ; |54| 
    5274 00000706 544C          CMP       AL,*-SP[12]           ; |54| 
    5275 00000707 66E9          B         L78,HI                ; |54| 
    5276                      ; branchcc occurs ; |54| 
    5277              DW$L$_Gui_drop_list_creat$5$E:
    5278                      .dwpsn  "WIDGET\Gui_widget_droplist.c",61,2
    5279 00000708 5603          MOV       ACC,*-SP[11] << #3    ; |61| 
         00000709 034B 
    5280 0000070a 9C16          ADDB      AL,#22                ; |61| 
    5281 0000070b 964D          MOV       *-SP[13],AL           ; |61| 
    5282                      .dwpsn  "WIDGET\Gui_widget_droplist.c",62,2
    5283 0000070c 9243          MOV       AL,*-SP[3]            ; |62| 
    5284 0000070d 944D          ADD       AL,*-SP[13]           ; |62| 
    5285 0000070e 1BA9          CMP       AL,#320               ; |62| 
         0000070f 0140 
    5286 00000710 6904          B         L81,LOS               ; |62| 
    5287                      ; branchcc occurs ; |62| 
    5288                      .dwpsn  "WIDGET\Gui_widget_droplist.c",63,3
    5289 00000711 D400          MOVB      XAR4,#0
    5290 00000712 FFEF          B         L84,UNC               ; |63| 
         00000713 008A 
    5291                      ; branch occurs ; |63| 
    5292              L81:    
    5293                      .dwpsn  "WIDGET\Gui_widget_droplist.c",64,2
    5294 00000714 8A48          MOVL      XAR4,*-SP[8]          ; |64| 
    5295 00000715 7640!         LCR       #_GUI_window_hwin_req ; |64| 
         00000716 0000 
TMS320C2000 COFF Assembler PC v4.1.3 Thu Nov 29 16:03:34 2012

Tools Copyright (c) 1996-2006 Texas Instruments Incorporated
C:\DOCUME~1\ADMINI~1\LOCALS~1\Temp\TI9882                            PAGE  102

    5296                      ; call occurs [#_GUI_window_hwin_req] ; |64| 
    5297                      .dwpsn  "WIDGET\Gui_widget_droplist.c",65,2
    5298 00000717 9AFF          MOVB      AL,#255               ; |65| 
    5299 00000718 7640!         LCR       #_GUI_set_Bgcolor     ; |65| 
         00000719 0000 
    5300                      ; call occurs [#_GUI_set_Bgcolor] ; |65| 
    5301                      .dwpsn  "WIDGET\Gui_widget_droplist.c",66,2
    5302 0000071a 9A80          MOVB      AL,#128               ; |66| 
    5303 0000071b 7640!         LCR       #_GUI_set_Fgcolor     ; |66| 
         0000071c 0000 
    5304                      ; call occurs [#_GUI_set_Fgcolor] ; |66| 
    5305                      .dwpsn  "WIDGET\Gui_widget_droplist.c",67,2
    5306 0000071d 2841          MOV       *-SP[1],#20           ; |67| 
         0000071e 0014 
    5307 0000071f 2842          MOV       *-SP[2],#1536         ; |67| 
         00000720 0600 
    5308 00000721 5D4D          MOVZ      AR5,*-SP[13]          ; |67| 
    5309 00000722 8A48          MOVL      XAR4,*-SP[8]          ; |67| 
    5310 00000723 9243          MOV       AL,*-SP[3]            ; |67| 
    5311 00000724 9344          MOV       AH,*-SP[4]            ; |67| 
    5312 00000725 7640!         LCR       #_GUI_window_child_creat ; |67| 
         00000726 0000 
    5313                      ; call occurs [#_GUI_window_child_creat] ; |67| 
    5314 00000727 A84A          MOVL      *-SP[10],XAR4         ; |67| 
    5315                      .dwpsn  "WIDGET\Gui_widget_droplist.c",74,2
    5316 00000728 8A4A          MOVL      XAR4,*-SP[10]         ; |74| 
    5317 00000729 9256          MOV       AL,*-SP[22]           ; |74| 
    5318 0000072a 96FC          MOV       *+XAR4[7],AL          ; |74| 
    5319                      .dwpsn  "WIDGET\Gui_widget_droplist.c",75,2
    5320 0000072b 8A4A          MOVL      XAR4,*-SP[10]         ; |75| 
    5321 0000072c D018          MOVB      XAR0,#24              ; |75| 
    5322 0000072d 0646          MOVL      ACC,*-SP[6]           ; |75| 
    5323 0000072e 1E94          MOVL      *+XAR4[AR0],ACC       ; |75| 
    5324                      .dwpsn  "WIDGET\Gui_widget_droplist.c",76,2
    5325 0000072f 8A4A          MOVL      XAR4,*-SP[10]         ; |76| 
    5326 00000730 D11B          MOVB      XAR1,#27              ; |76| 
    5327 00000731 9255          MOV       AL,*-SP[21]           ; |76| 
    5328 00000732 969C          MOV       *+XAR4[AR1],AL        ; |76| 
    5329                      .dwpsn  "WIDGET\Gui_widget_droplist.c",77,2
    5330 00000733 8A4A          MOVL      XAR4,*-SP[10]         ; |77| 
    5331 00000734 D01A          MOVB      XAR0,#26              ; |77| 
    5332 00000735 2B94          MOV       *+XAR4[AR0],#0        ; |77| 
    5333                      .dwpsn  "WIDGET\Gui_widget_droplist.c",78,2
    5334 00000736 8A4A          MOVL      XAR4,*-SP[10]         ; |78| 
    5335 00000737 D008          MOVB      XAR0,#8               ; |78| 
    5336 00000738 2894          MOV       *+XAR4[AR0],#10       ; |78| 
         00000739 000A 
    5337                      .dwpsn  "WIDGET\Gui_widget_droplist.c",80,2
    5338 0000073a 761F-         MOVW      DP,#_m_GUI_drop_list_SW_Bgcor
         0000073b 0000 
    5339 0000073c 9203-         MOV       AL,@_m_GUI_drop_list_SW_Bgcor ; |80| 
    5340 0000073d 7640!         LCR       #_GUI_set_Bgcolor     ; |80| 
         0000073e 0000 
    5341                      ; call occurs [#_GUI_set_Bgcolor] ; |80| 
    5342                      .dwpsn  "WIDGET\Gui_widget_droplist.c",81,2
TMS320C2000 COFF Assembler PC v4.1.3 Thu Nov 29 16:03:34 2012

Tools Copyright (c) 1996-2006 Texas Instruments Incorporated
C:\DOCUME~1\ADMINI~1\LOCALS~1\Temp\TI9882                            PAGE  103

    5343 0000073f 8A4A          MOVL      XAR4,*-SP[10]         ; |81| 
    5344 00000740 924D          MOV       AL,*-SP[13]           ; |81| 
    5345 00000741 94CC          ADD       AL,*+XAR4[1]          ; |81| 
    5346 00000742 8A4A          MOVL      XAR4,*-SP[10]         ; |81| 
    5347 00000743 9CED          ADDB      AL,#-19
    5348 00000744 93D4          MOV       AH,*+XAR4[2]          ; |81| 
    5349 00000745 D510          MOVB      XAR5,#16              ; |81| 
    5350 00000746 9D02          ADDB      AH,#2                 ; |81| 
    5351 00000747 D411          MOVB      XAR4,#17              ; |81| 
    5352 00000748 7640!         LCR       #_GUI_fill_Rect       ; |81| 
         00000749 0000 
    5353                      ; call occurs [#_GUI_fill_Rect] ; |81| 
    5354                      .dwpsn  "WIDGET\Gui_widget_droplist.c",82,5
    5355 0000074a 8A4A          MOVL      XAR4,*-SP[10]         ; |82| 
    5356 0000074b 924D          MOV       AL,*-SP[13]           ; |82| 
    5357 0000074c 94CC          ADD       AL,*+XAR4[1]          ; |82| 
    5358 0000074d 8A4A          MOVL      XAR4,*-SP[10]         ; |82| 
    5359 0000074e 9CED          ADDB      AL,#-19
    5360 0000074f 93D4          MOV       AH,*+XAR4[2]          ; |82| 
    5361 00000750 D510          MOVB      XAR5,#16              ; |82| 
    5362 00000751 9D02          ADDB      AH,#2                 ; |82| 
    5363 00000752 D411          MOVB      XAR4,#17              ; |82| 
    5364 00000753 7640!         LCR       #_GUI_widget_3D_paint ; |82| 
         00000754 0000 
    5365                      ; call occurs [#_GUI_widget_3D_paint] ; |82| 
    5366                      .dwpsn  "WIDGET\Gui_widget_droplist.c",83,2
    5367 00000755 8A4A          MOVL      XAR4,*-SP[10]         ; |83| 
    5368 00000756 7640!         LCR       #_GUI_window_hwin_req ; |83| 
         00000757 0000 
    5369                      ; call occurs [#_GUI_window_hwin_req] ; |83| 
    5370                      .dwpsn  "WIDGET\Gui_widget_droplist.c",84,2
    5371 00000758 761F-         MOVW      DP,#_m_GUI_drop_list_SW_Fgcor
         00000759 0000 
    5372 0000075a 920A-         MOV       AL,@_m_GUI_drop_list_SW_Fgcor ; |84| 
    5373 0000075b 7640!         LCR       #_GUI_set_Fgcolor     ; |84| 
         0000075c 0000 
    5374                      ; call occurs [#_GUI_set_Fgcolor] ; |84| 
    5375                      .dwpsn  "WIDGET\Gui_widget_droplist.c",85,2
    5376 0000075d 761F-         MOVW      DP,#_m_GUI_drop_list_SW_Bgcor
         0000075e 0000 
    5377 0000075f 9203-         MOV       AL,@_m_GUI_drop_list_SW_Bgcor ; |85| 
    5378 00000760 7640!         LCR       #_GUI_set_Bgcolor     ; |85| 
         00000761 0000 
    5379                      ; call occurs [#_GUI_set_Bgcolor] ; |85| 
    5380                      .dwpsn  "WIDGET\Gui_widget_droplist.c",86,2
    5381 00000762 924D          MOV       AL,*-SP[13]           ; |86| 
    5382 00000763 9CF1          ADDB      AL,#-15
    5383 00000764 964E          MOV       *-SP[14],AL           ; |86| 
    5384                      .dwpsn  "WIDGET\Gui_widget_droplist.c",86,14
    5385 00000765 284F          MOV       *-SP[15],#9           ; |86| 
         00000766 0009 
    5386                      .dwpsn  "WIDGET\Gui_widget_droplist.c",86,18
    5387 00000767 2850          MOV       *-SP[16],#10          ; |86| 
         00000768 000A 
    5388                      .dwpsn  "WIDGET\Gui_widget_droplist.c",87,6
TMS320C2000 COFF Assembler PC v4.1.3 Thu Nov 29 16:03:34 2012

Tools Copyright (c) 1996-2006 Texas Instruments Incorporated
C:\DOCUME~1\ADMINI~1\LOCALS~1\Temp\TI9882                            PAGE  104

    5389 00000769 2B4C          MOV       *-SP[12],#0           ; |87| 
    5390                      .dwpsn  "WIDGET\Gui_widget_droplist.c",87,15
    5391 0000076a 924C          MOV       AL,*-SP[12]           ; |87| 
    5392 0000076b 5206          CMPB      AL,#6                 ; |87| 
    5393 0000076c 6711          B         L83,HIS               ; |87| 
    5394                      ; branchcc occurs ; |87| 
    5395              L82:    
    5396              DW$L$_Gui_drop_list_creat$9$B:
    5397                      .dwpsn  "WIDGET\Gui_widget_droplist.c",89,7
    5398 0000076d 9250          MOV       AL,*-SP[16]           ; |89| 
    5399 0000076e 944E          ADD       AL,*-SP[14]           ; |89| 
    5400 0000076f 5D4F          MOVZ      AR5,*-SP[15]          ; |89| 
    5401 00000770 5CA9          MOVZ      AR4,AL                ; |89| 
    5402 00000771 924E          MOV       AL,*-SP[14]           ; |89| 
    5403 00000772 934F          MOV       AH,*-SP[15]           ; |89| 
    5404 00000773 7640!         LCR       #_GUI_window_line_display ; |89| 
         00000774 0000 
    5405                      ; call occurs [#_GUI_window_line_display] ; |89| 
    5406                      .dwpsn  "WIDGET\Gui_widget_droplist.c",90,3
    5407 00000775 0A4F          INC       *-SP[15]              ; |90| 
    5408                      .dwpsn  "WIDGET\Gui_widget_droplist.c",90,7
    5409 00000776 0A4E          INC       *-SP[14]              ; |90| 
    5410                      .dwpsn  "WIDGET\Gui_widget_droplist.c",90,11
    5411 00000777 9A02          MOVB      AL,#2                 ; |90| 
    5412 00000778 7450          SUB       *-SP[16],AL           ; |90| 
    5413                      .dwpsn  "WIDGET\Gui_widget_droplist.c",87,24
    5414 00000779 0A4C          INC       *-SP[12]              ; |87| 
    5415                      .dwpsn  "WIDGET\Gui_widget_droplist.c",87,15
    5416 0000077a 924C          MOV       AL,*-SP[12]           ; |87| 
    5417 0000077b 5206          CMPB      AL,#6                 ; |87| 
    5418 0000077c 68F1          B         L82,LO                ; |87| 
    5419                      ; branchcc occurs ; |87| 
    5420              DW$L$_Gui_drop_list_creat$9$E:
    5421              L83:    
    5422                      .dwpsn  "WIDGET\Gui_widget_droplist.c",92,2
    5423 0000077d 8A4A          MOVL      XAR4,*-SP[10]         ; |92| 
    5424 0000077e 7640!         LCR       #_GUI_window_hwin_release ; |92| 
         0000077f 0000 
    5425                      ; call occurs [#_GUI_window_hwin_release] ; |92| 
    5426                      .dwpsn  "WIDGET\Gui_widget_droplist.c",93,2
    5427 00000780 8A4A          MOVL      XAR4,*-SP[10]         ; |93| 
    5428 00000781 7640!         LCR       #_GUI_window_hwin_req ; |93| 
         00000782 0000 
    5429                      ; call occurs [#_GUI_window_hwin_req] ; |93| 
    5430                      .dwpsn  "WIDGET\Gui_widget_droplist.c",94,2
    5431 00000783 8A4A          MOVL      XAR4,*-SP[10]         ; |94| 
    5432 00000784 92DC          MOV       AL,*+XAR4[3]          ; |94| 
    5433 00000785 8A4A          MOVL      XAR4,*-SP[10]         ; |94| 
    5434 00000786 9CEC          ADDB      AL,#-20
    5435 00000787 96DC          MOV       *+XAR4[3],AL          ; |94| 
    5436                      .dwpsn  "WIDGET\Gui_widget_droplist.c",95,2
    5437 00000788 9AFF          MOVB      AL,#255               ; |95| 
    5438 00000789 7640!         LCR       #_GUI_set_Bgcolor     ; |95| 
         0000078a 0000 
    5439                      ; call occurs [#_GUI_set_Bgcolor] ; |95| 
TMS320C2000 COFF Assembler PC v4.1.3 Thu Nov 29 16:03:34 2012

Tools Copyright (c) 1996-2006 Texas Instruments Incorporated
C:\DOCUME~1\ADMINI~1\LOCALS~1\Temp\TI9882                            PAGE  105

    5440                      .dwpsn  "WIDGET\Gui_widget_droplist.c",96,2
    5441 0000078b 9A00          MOVB      AL,#0
    5442 0000078c 7640!         LCR       #_GUI_set_Fgcolor     ; |96| 
         0000078d 0000 
    5443                      ; call occurs [#_GUI_set_Fgcolor] ; |96| 
    5444                      .dwpsn  "WIDGET\Gui_widget_droplist.c",97,2
    5445 0000078e 8A4A          MOVL      XAR4,*-SP[10]         ; |97| 
    5446 0000078f D018          MOVB      XAR0,#24              ; |97| 
    5447 00000790 8A94          MOVL      XAR4,*+XAR4[AR0]      ; |97| 
    5448 00000791 8AC4          MOVL      XAR4,*+XAR4[0]        ; |97| 
    5449 00000792 0200          MOVB      ACC,#0
    5450 00000793 7640!         LCR       #_GUI_string_display_At ; |97| 
         00000794 0000 
    5451                      ; call occurs [#_GUI_string_display_At] ; |97| 
    5452                      .dwpsn  "WIDGET\Gui_widget_droplist.c",98,2
    5453 00000795 8A4A          MOVL      XAR4,*-SP[10]         ; |98| 
    5454 00000796 7640!         LCR       #_GUI_window_hwin_release ; |98| 
         00000797 0000 
    5455                      ; call occurs [#_GUI_window_hwin_release] ; |98| 
    5456                      .dwpsn  "WIDGET\Gui_widget_droplist.c",99,2
    5457 00000798 8A48          MOVL      XAR4,*-SP[8]          ; |99| 
    5458 00000799 7640!         LCR       #_GUI_window_hwin_release ; |99| 
         0000079a 0000 
    5459                      ; call occurs [#_GUI_window_hwin_release] ; |99| 
    5460                      .dwpsn  "WIDGET\Gui_widget_droplist.c",100,2
    5461 0000079b 8A4A          MOVL      XAR4,*-SP[10]         ; |100| 
    5462              L84:    
    5463                      .dwpsn  "WIDGET\Gui_widget_droplist.c",101,1
    5464 0000079c FE90          SUBB      SP,#16                ; |100| 
    5465                      .dwcfa  0x1d, -4
    5466 0000079d 8BBE          MOVL      XAR1,*--SP            ; |100| 
    5467                      .dwcfa  0x1d, -2
    5468                      .dwcfa  0xc0, 7
    5469 0000079e 0006          LRETR
    5470                      ; return occurs
    5471              
    5472              DW$523  .dwtag  DW_TAG_loop
    5473                      .dwattr DW$523, DW_AT_name("C:\DOCUME~1\ADMINI~1\LOCALS~1\Temp\TI9882:L82:1:1354176212")
    5474                      .dwattr DW$523, DW_AT_begin_file("WIDGET\Gui_widget_droplist.c")
    5475                      .dwattr DW$523, DW_AT_begin_line(0x57)
    5476                      .dwattr DW$523, DW_AT_end_line(0x5b)
    5477              DW$524  .dwtag  DW_TAG_loop_range
    5478                      .dwattr DW$524, DW_AT_low_pc(DW$L$_Gui_drop_list_creat$9$B)
    5479                      .dwattr DW$524, DW_AT_high_pc(DW$L$_Gui_drop_list_creat$9$E)
    5480                      .dwendtag DW$523
    5481              
    5482              
    5483              DW$525  .dwtag  DW_TAG_loop
    5484                      .dwattr DW$525, DW_AT_name("C:\DOCUME~1\ADMINI~1\LOCALS~1\Temp\TI9882:L80:1:1354176212")
    5485                      .dwattr DW$525, DW_AT_begin_file("WIDGET\Gui_widget_droplist.c")
    5486                      .dwattr DW$525, DW_AT_begin_line(0x36)
    5487                      .dwattr DW$525, DW_AT_end_line(0x3a)
    5488              DW$526  .dwtag  DW_TAG_loop_range
    5489                      .dwattr DW$526, DW_AT_low_pc(DW$L$_Gui_drop_list_creat$5$B)
    5490                      .dwattr DW$526, DW_AT_high_pc(DW$L$_Gui_drop_list_creat$5$E)
TMS320C2000 COFF Assembler PC v4.1.3 Thu Nov 29 16:03:34 2012

Tools Copyright (c) 1996-2006 Texas Instruments Incorporated
C:\DOCUME~1\ADMINI~1\LOCALS~1\Temp\TI9882                            PAGE  106

    5491              DW$527  .dwtag  DW_TAG_loop_range
    5492                      .dwattr DW$527, DW_AT_low_pc(DW$L$_Gui_drop_list_creat$2$B)
    5493                      .dwattr DW$527, DW_AT_high_pc(DW$L$_Gui_drop_list_creat$2$E)
    5494              DW$528  .dwtag  DW_TAG_loop_range
    5495                      .dwattr DW$528, DW_AT_low_pc(DW$L$_Gui_drop_list_creat$3$B)
    5496                      .dwattr DW$528, DW_AT_high_pc(DW$L$_Gui_drop_list_creat$3$E)
    5497              DW$529  .dwtag  DW_TAG_loop_range
    5498                      .dwattr DW$529, DW_AT_low_pc(DW$L$_Gui_drop_list_creat$4$B)
    5499                      .dwattr DW$529, DW_AT_high_pc(DW$L$_Gui_drop_list_creat$4$E)
    5500                      .dwendtag DW$525
    5501              
    5502                      .dwattr DW$505, DW_AT_end_file("WIDGET\Gui_widget_droplist.c")
    5503                      .dwattr DW$505, DW_AT_end_line(0x65)
    5504                      .dwattr DW$505, DW_AT_end_column(0x01)
    5505                      .dwendentry
    5506                      .dwendtag DW$505
    5507              
    5508 0000079f               .sect   ".text"
    5509                      .global _Gui_drop_list_select
    5510              
    5511              DW$530  .dwtag  DW_TAG_subprogram, DW_AT_name("Gui_drop_list_select"), DW_AT_symbol_name("_Gui_drop_list_sele
    5512                      .dwattr DW$530, DW_AT_low_pc(_Gui_drop_list_select)
    5513                      .dwattr DW$530, DW_AT_high_pc(0x00)
    5514                      .dwattr DW$530, DW_AT_begin_file("WIDGET\Gui_widget_droplist.c")
    5515                      .dwattr DW$530, DW_AT_begin_line(0x6d)
    5516                      .dwattr DW$530, DW_AT_begin_column(0x06)
    5517                      .dwpsn  "WIDGET\Gui_widget_droplist.c",110,1
    5518              
    5519                      .dwfde DW$CIE
    5520              
    5521              ;***************************************************************
    5522              ;* FNAME: _Gui_drop_list_select         FR SIZE:   2           *
    5523              ;*                                                             *
    5524              ;* FUNCTION ENVIRONMENT                                        *
    5525              ;*                                                             *
    5526              ;* FUNCTION PROPERTIES                                         *
    5527              ;*                            0 Parameter,  2 Auto,  0 SOE     *
    5528              ;***************************************************************
    5529              
    5530              _Gui_drop_list_select:
    5531                      .dwcfa  0x1d, -2
    5532                      .dwcfa  0x1c, 26, 0
    5533                      .dwcfa  0x09, 40, 26
    5534 0000079f FE02          ADDB      SP,#2
    5535                      .dwcfa  0x1d, -4
    5536              ;* AR4   assigned to _hp
    5537              DW$531  .dwtag  DW_TAG_formal_parameter, DW_AT_name("hp"), DW_AT_symbol_name("_hp")
    5538                      .dwattr DW$531, DW_AT_type(*DW$T$54)
    5539                      .dwattr DW$531, DW_AT_location[DW_OP_reg12]
    5540              DW$532  .dwtag  DW_TAG_variable, DW_AT_name("hp"), DW_AT_symbol_name("_hp")
    5541                      .dwattr DW$532, DW_AT_type(*DW$T$54)
    5542                      .dwattr DW$532, DW_AT_location[DW_OP_breg20 -2]
    5543 000007a0 A842          MOVL      *-SP[2],XAR4          ; |110| 
    5544                      .dwpsn  "WIDGET\Gui_widget_droplist.c",111,2
    5545 000007a1 8A42          MOVL      XAR4,*-SP[2]          ; |111| 
TMS320C2000 COFF Assembler PC v4.1.3 Thu Nov 29 16:03:34 2012

Tools Copyright (c) 1996-2006 Texas Instruments Incorporated
C:\DOCUME~1\ADMINI~1\LOCALS~1\Temp\TI9882                            PAGE  107

    5546 000007a2 7640!         LCR       #_GUI_window_hwin_req ; |111| 
         000007a3 0000 
    5547                      ; call occurs [#_GUI_window_hwin_req] ; |111| 
    5548                      .dwpsn  "WIDGET\Gui_widget_droplist.c",112,2
    5549 000007a4 9A01          MOVB      AL,#1                 ; |112| 
    5550 000007a5 7640!         LCR       #_GUI_set_Bgcolor     ; |112| 
         000007a6 0000 
    5551                      ; call occurs [#_GUI_set_Bgcolor] ; |112| 
    5552                      .dwpsn  "WIDGET\Gui_widget_droplist.c",113,2
    5553 000007a7 7640!         LCR       #_GUI_clean_window    ; |113| 
         000007a8 0000 
    5554                      ; call occurs [#_GUI_clean_window] ; |113| 
    5555                      .dwpsn  "WIDGET\Gui_widget_droplist.c",114,2
    5556 000007a9 9AFF          MOVB      AL,#255               ; |114| 
    5557 000007aa 7640!         LCR       #_GUI_set_Fgcolor     ; |114| 
         000007ab 0000 
    5558                      ; call occurs [#_GUI_set_Fgcolor] ; |114| 
    5559                      .dwpsn  "WIDGET\Gui_widget_droplist.c",115,2
    5560 000007ac 8A42          MOVL      XAR4,*-SP[2]          ; |115| 
    5561 000007ad D01A          MOVB      XAR0,#26              ; |115| 
    5562 000007ae 0E94          MOVU      ACC,*+XAR4[AR0]
    5563 000007af 8A42          MOVL      XAR4,*-SP[2]          ; |115| 
    5564 000007b0 D018          MOVB      XAR0,#24              ; |115| 
    5565 000007b1 8A94          MOVL      XAR4,*+XAR4[AR0]      ; |115| 
    5566 000007b2 FF30          LSL       ACC,1                 ; |115| 
    5567 000007b3 5601          ADDL      XAR4,ACC
         000007b4 00A4 
    5568 000007b5 8AC4          MOVL      XAR4,*+XAR4[0]        ; |115| 
    5569 000007b6 0200          MOVB      ACC,#0
    5570 000007b7 7640!         LCR       #_GUI_string_display_At ; |115| 
         000007b8 0000 
    5571                      ; call occurs [#_GUI_string_display_At] ; |115| 
    5572                      .dwpsn  "WIDGET\Gui_widget_droplist.c",116,2
    5573 000007b9 8A42          MOVL      XAR4,*-SP[2]          ; |116| 
    5574 000007ba 7640!         LCR       #_GUI_window_hwin_release ; |116| 
         000007bb 0000 
    5575                      ; call occurs [#_GUI_window_hwin_release] ; |116| 
    5576                      .dwpsn  "WIDGET\Gui_widget_droplist.c",117,2
    5577                      .dwpsn  "WIDGET\Gui_widget_droplist.c",118,1
    5578 000007bc FE82          SUBB      SP,#2
    5579                      .dwcfa  0x1d, -2
    5580 000007bd 0006          LRETR
    5581                      ; return occurs
    5582                      .dwattr DW$530, DW_AT_end_file("WIDGET\Gui_widget_droplist.c")
    5583                      .dwattr DW$530, DW_AT_end_line(0x76)
    5584                      .dwattr DW$530, DW_AT_end_column(0x01)
    5585                      .dwendentry
    5586                      .dwendtag DW$530
    5587              
    5588 000007be               .sect   ".text"
    5589              
    5590              DW$533  .dwtag  DW_TAG_subprogram, DW_AT_name("GUI_drop_list_unfold_display"), DW_AT_symbol_name("_GUI_drop_l
    5591                      .dwattr DW$533, DW_AT_low_pc(_GUI_drop_list_unfold_display)
    5592                      .dwattr DW$533, DW_AT_high_pc(0x00)
    5593                      .dwattr DW$533, DW_AT_begin_file("WIDGET\Gui_widget_droplist.c")
TMS320C2000 COFF Assembler PC v4.1.3 Thu Nov 29 16:03:34 2012

Tools Copyright (c) 1996-2006 Texas Instruments Incorporated
C:\DOCUME~1\ADMINI~1\LOCALS~1\Temp\TI9882                            PAGE  108

    5594                      .dwattr DW$533, DW_AT_begin_line(0x86)
    5595                      .dwattr DW$533, DW_AT_begin_column(0x0d)
    5596                      .dwpsn  "WIDGET\Gui_widget_droplist.c",139,1
    5597              
    5598                      .dwfde DW$CIE
    5599              
    5600              ;***************************************************************
    5601              ;* FNAME: _GUI_drop_list_unfold_display FR SIZE:  10           *
    5602              ;*                                                             *
    5603              ;* FUNCTION ENVIRONMENT                                        *
    5604              ;*                                                             *
    5605              ;* FUNCTION PROPERTIES                                         *
    5606              ;*                            1 Parameter,  9 Auto,  0 SOE     *
    5607              ;***************************************************************
    5608              
    5609              _GUI_drop_list_unfold_display:
    5610                      .dwcfa  0x1d, -2
    5611                      .dwcfa  0x1c, 26, 0
    5612                      .dwcfa  0x09, 40, 26
    5613 000007be FE0A          ADDB      SP,#10
    5614                      .dwcfa  0x1d, -12
    5615              ;* AR4   assigned to _hp
    5616              DW$534  .dwtag  DW_TAG_formal_parameter, DW_AT_name("hp"), DW_AT_symbol_name("_hp")
    5617                      .dwattr DW$534, DW_AT_type(*DW$T$54)
    5618                      .dwattr DW$534, DW_AT_location[DW_OP_reg12]
    5619              ;* AL    assigned to _x
    5620              DW$535  .dwtag  DW_TAG_formal_parameter, DW_AT_name("x"), DW_AT_symbol_name("_x")
    5621                      .dwattr DW$535, DW_AT_type(*DW$T$11)
    5622                      .dwattr DW$535, DW_AT_location[DW_OP_reg0]
    5623              ;* AH    assigned to _y
    5624              DW$536  .dwtag  DW_TAG_formal_parameter, DW_AT_name("y"), DW_AT_symbol_name("_y")
    5625                      .dwattr DW$536, DW_AT_type(*DW$T$11)
    5626                      .dwattr DW$536, DW_AT_location[DW_OP_reg1]
    5627              ;* AR5   assigned to _wide
    5628              DW$537  .dwtag  DW_TAG_formal_parameter, DW_AT_name("wide"), DW_AT_symbol_name("_wide")
    5629                      .dwattr DW$537, DW_AT_type(*DW$T$11)
    5630                      .dwattr DW$537, DW_AT_location[DW_OP_reg14]
    5631              DW$538  .dwtag  DW_TAG_formal_parameter, DW_AT_name("high"), DW_AT_symbol_name("_high")
    5632                      .dwattr DW$538, DW_AT_type(*DW$T$11)
    5633                      .dwattr DW$538, DW_AT_location[DW_OP_breg20 -13]
    5634              DW$539  .dwtag  DW_TAG_variable, DW_AT_name("hp"), DW_AT_symbol_name("_hp")
    5635                      .dwattr DW$539, DW_AT_type(*DW$T$54)
    5636                      .dwattr DW$539, DW_AT_location[DW_OP_breg20 -4]
    5637              DW$540  .dwtag  DW_TAG_variable, DW_AT_name("x"), DW_AT_symbol_name("_x")
    5638                      .dwattr DW$540, DW_AT_type(*DW$T$11)
    5639                      .dwattr DW$540, DW_AT_location[DW_OP_breg20 -5]
    5640              DW$541  .dwtag  DW_TAG_variable, DW_AT_name("y"), DW_AT_symbol_name("_y")
    5641                      .dwattr DW$541, DW_AT_type(*DW$T$11)
    5642                      .dwattr DW$541, DW_AT_location[DW_OP_breg20 -6]
    5643              DW$542  .dwtag  DW_TAG_variable, DW_AT_name("wide"), DW_AT_symbol_name("_wide")
    5644                      .dwattr DW$542, DW_AT_type(*DW$T$11)
    5645                      .dwattr DW$542, DW_AT_location[DW_OP_breg20 -7]
    5646              DW$543  .dwtag  DW_TAG_variable, DW_AT_name("offset"), DW_AT_symbol_name("_offset")
    5647                      .dwattr DW$543, DW_AT_type(*DW$T$6)
    5648                      .dwattr DW$543, DW_AT_location[DW_OP_breg20 -8]
TMS320C2000 COFF Assembler PC v4.1.3 Thu Nov 29 16:03:34 2012

Tools Copyright (c) 1996-2006 Texas Instruments Incorporated
C:\DOCUME~1\ADMINI~1\LOCALS~1\Temp\TI9882                            PAGE  109

    5649              DW$544  .dwtag  DW_TAG_variable, DW_AT_name("flag"), DW_AT_symbol_name("_flag")
    5650                      .dwattr DW$544, DW_AT_type(*DW$T$27)
    5651                      .dwattr DW$544, DW_AT_location[DW_OP_breg20 -9]
    5652              DW$545  .dwtag  DW_TAG_variable, DW_AT_name("key"), DW_AT_symbol_name("_key")
    5653                      .dwattr DW$545, DW_AT_type(*DW$T$27)
    5654                      .dwattr DW$545, DW_AT_location[DW_OP_breg20 -10]
    5655 000007bf 7D47          MOV       *-SP[7],AR5           ; |139| 
    5656 000007c0 9746          MOV       *-SP[6],AH            ; |139| 
    5657 000007c1 9645          MOV       *-SP[5],AL            ; |139| 
    5658 000007c2 A844          MOVL      *-SP[4],XAR4          ; |139| 
    5659                      .dwpsn  "WIDGET\Gui_widget_droplist.c",143,2
    5660 000007c3 9AFF          MOVB      AL,#255               ; |143| 
    5661 000007c4 7640!         LCR       #_GUI_set_Bgcolor     ; |143| 
         000007c5 0000 
    5662                      ; call occurs [#_GUI_set_Bgcolor] ; |143| 
    5663                      .dwpsn  "WIDGET\Gui_widget_droplist.c",144,2
    5664 000007c6 5C47          MOVZ      AR4,*-SP[7]           ; |144| 
    5665 000007c7 5D4D          MOVZ      AR5,*-SP[13]          ; |144| 
    5666 000007c8 9245          MOV       AL,*-SP[5]            ; |144| 
    5667 000007c9 9346          MOV       AH,*-SP[6]            ; |144| 
    5668 000007ca 7640!         LCR       #_GUI_fill_Rect       ; |144| 
         000007cb 0000 
    5669                      ; call occurs [#_GUI_fill_Rect] ; |144| 
    5670                      .dwpsn  "WIDGET\Gui_widget_droplist.c",145,2
    5671 000007cc 9A00          MOVB      AL,#0
    5672 000007cd 7640!         LCR       #_GUI_set_Fgcolor     ; |145| 
         000007ce 0000 
    5673                      ; call occurs [#_GUI_set_Fgcolor] ; |145| 
    5674                      .dwpsn  "WIDGET\Gui_widget_droplist.c",146,2
    5675 000007cf 5C47          MOVZ      AR4,*-SP[7]           ; |146| 
    5676 000007d0 5D4D          MOVZ      AR5,*-SP[13]          ; |146| 
    5677 000007d1 9245          MOV       AL,*-SP[5]            ; |146| 
    5678 000007d2 9346          MOV       AH,*-SP[6]            ; |146| 
    5679 000007d3 7640!         LCR       #_GUI_draw_Rect       ; |146| 
         000007d4 0000 
    5680                      ; call occurs [#_GUI_draw_Rect] ; |146| 
    5681                      .dwpsn  "WIDGET\Gui_widget_droplist.c",147,2
    5682 000007d5 0A46          INC       *-SP[6]               ; |147| 
    5683                      .dwpsn  "WIDGET\Gui_widget_droplist.c",148,2
    5684 000007d6 9AFF          MOVB      AL,#255               ; |148| 
    5685 000007d7 7640!         LCR       #_GUI_set_Bgcolor     ; |148| 
         000007d8 0000 
    5686                      ; call occurs [#_GUI_set_Bgcolor] ; |148| 
    5687                      .dwpsn  "WIDGET\Gui_widget_droplist.c",149,2
    5688 000007d9 9A00          MOVB      AL,#0
    5689 000007da 7640!         LCR       #_GUI_set_Fgcolor     ; |149| 
         000007db 0000 
    5690                      ; call occurs [#_GUI_set_Fgcolor] ; |149| 
    5691                      .dwpsn  "WIDGET\Gui_widget_droplist.c",150,8
    5692 000007dc 2B48          MOV       *-SP[8],#0            ; |150| 
    5693 000007dd 6F1B          B         L86,UNC               ; |150| 
    5694                      ; branch occurs ; |150| 
    5695              L85:    
    5696              DW$L$_GUI_drop_list_unfold_display$2$B:
    5697                      .dwpsn  "WIDGET\Gui_widget_droplist.c",152,3
TMS320C2000 COFF Assembler PC v4.1.3 Thu Nov 29 16:03:34 2012

Tools Copyright (c) 1996-2006 Texas Instruments Incorporated
C:\DOCUME~1\ADMINI~1\LOCALS~1\Temp\TI9882                            PAGE  110

    5698 000007de 924D          MOV       AL,*-SP[13]           ; |152| 
    5699 000007df 9446          ADD       AL,*-SP[6]            ; |152| 
    5700 000007e0 9641          MOV       *-SP[1],AL            ; |152| 
    5701 000007e1 D018          MOVB      XAR0,#24              ; |152| 
    5702 000007e2 9245          MOV       AL,*-SP[5]            ; |152| 
    5703 000007e3 9C01          ADDB      AL,#1                 ; |152| 
    5704 000007e4 80A9          MOVZ      AR7,AL                ; |152| 
    5705 000007e5 5603          MOV       ACC,*-SP[8] << #4     ; |152| 
         000007e6 0448 
    5706 000007e7 9446          ADD       AL,*-SP[6]            ; |152| 
    5707 000007e8 8A44          MOVL      XAR4,*-SP[4]          ; |152| 
    5708 000007e9 88A9          MOVZ      AR6,AL                ; |152| 
    5709 000007ea 9247          MOV       AL,*-SP[7]            ; |152| 
    5710 000007eb 9445          ADD       AL,*-SP[5]            ; |152| 
    5711 000007ec 8A94          MOVL      XAR4,*+XAR4[AR0]      ; |152| 
    5712 000007ed 5DA9          MOVZ      AR5,AL                ; |152| 
    5713 000007ee 0E48          MOVU      ACC,*-SP[8]
    5714 000007ef FF30          LSL       ACC,1                 ; |152| 
    5715 000007f0 5601          ADDL      XAR4,ACC
         000007f1 00A4 
    5716 000007f2 8AC4          MOVL      XAR4,*+XAR4[0]        ; |152| 
    5717 000007f3 92A7          MOV       AL,AR7                ; |152| 
    5718 000007f4 93A6          MOV       AH,AR6                ; |152| 
    5719 000007f5 7640!         LCR       #_GUI_print_string    ; |152| 
         000007f6 0000 
    5720                      ; call occurs [#_GUI_print_string] ; |152| 
    5721                      .dwpsn  "WIDGET\Gui_widget_droplist.c",150,49
    5722 000007f7 0A48          INC       *-SP[8]               ; |150| 
    5723              DW$L$_GUI_drop_list_unfold_display$2$E:
    5724              L86:    
    5725              DW$L$_GUI_drop_list_unfold_display$3$B:
    5726                      .dwpsn  "WIDGET\Gui_widget_droplist.c",150,19
    5727 000007f8 8A44          MOVL      XAR4,*-SP[4]          ; |150| 
    5728 000007f9 D01B          MOVB      XAR0,#27              ; |150| 
    5729 000007fa 9294          MOV       AL,*+XAR4[AR0]        ; |150| 
    5730 000007fb 5448          CMP       AL,*-SP[8]            ; |150| 
    5731 000007fc 66E2          B         L85,HI                ; |150| 
    5732                      ; branchcc occurs ; |150| 
    5733              DW$L$_GUI_drop_list_unfold_display$3$E:
    5734                      .dwpsn  "WIDGET\Gui_widget_droplist.c",156,2
    5735 000007fd 9A03          MOVB      AL,#3                 ; |156| 
    5736 000007fe 7640!         LCR       #_GUI_set_Bgcolor     ; |156| 
         000007ff 0000 
    5737                      ; call occurs [#_GUI_set_Bgcolor] ; |156| 
    5738 00000800 9AFF          MOVB      AL,#255               ; |156| 
    5739 00000801 7640!         LCR       #_GUI_set_Fgcolor     ; |156| 
         00000802 0000 
    5740                      ; call occurs [#_GUI_set_Fgcolor] ; |156| 
    5741 00000803 924D          MOV       AL,*-SP[13]           ; |156| 
    5742 00000804 9446          ADD       AL,*-SP[6]            ; |156| 
    5743 00000805 9641          MOV       *-SP[1],AL            ; |156| 
    5744 00000806 9245          MOV       AL,*-SP[5]            ; |156| 
    5745 00000807 8A44          MOVL      XAR4,*-SP[4]          ; |156| 
    5746 00000808 9C01          ADDB      AL,#1                 ; |156| 
    5747 00000809 D01A          MOVB      XAR0,#26              ; |156| 
TMS320C2000 COFF Assembler PC v4.1.3 Thu Nov 29 16:03:34 2012

Tools Copyright (c) 1996-2006 Texas Instruments Incorporated
C:\DOCUME~1\ADMINI~1\LOCALS~1\Temp\TI9882                            PAGE  111

    5748 0000080a 80A9          MOVZ      AR7,AL                ; |156| 
    5749 0000080b 5603          MOV       ACC,*+XAR4[AR0] << #4 ; |156| 
         0000080c 0494 
    5750 0000080d 9446          ADD       AL,*-SP[6]            ; |156| 
    5751 0000080e 88A9          MOVZ      AR6,AL                ; |156| 
    5752 0000080f 8A44          MOVL      XAR4,*-SP[4]          ; |156| 
    5753 00000810 9247          MOV       AL,*-SP[7]            ; |156| 
    5754 00000811 9445          ADD       AL,*-SP[5]            ; |156| 
    5755 00000812 5DA9          MOVZ      AR5,AL                ; |156| 
    5756 00000813 0E94          MOVU      ACC,*+XAR4[AR0]
    5757 00000814 8A44          MOVL      XAR4,*-SP[4]          ; |156| 
    5758 00000815 D018          MOVB      XAR0,#24              ; |156| 
    5759 00000816 8A94          MOVL      XAR4,*+XAR4[AR0]      ; |156| 
    5760 00000817 FF30          LSL       ACC,1                 ; |156| 
    5761 00000818 5601          ADDL      XAR4,ACC
         00000819 00A4 
    5762 0000081a 8AC4          MOVL      XAR4,*+XAR4[0]        ; |156| 
    5763 0000081b 92A7          MOV       AL,AR7                ; |156| 
    5764 0000081c 93A6          MOV       AH,AR6                ; |156| 
    5765 0000081d 7640!         LCR       #_GUI_print_string    ; |156| 
         0000081e 0000 
    5766                      ; call occurs [#_GUI_print_string] ; |156| 
    5767                      .dwpsn  "WIDGET\Gui_widget_droplist.c",157,2
    5768 0000081f 8A44          MOVL      XAR4,*-SP[4]          ; |157| 
    5769 00000820 D01A          MOVB      XAR0,#26              ; |157| 
    5770 00000821 9294          MOV       AL,*+XAR4[AR0]        ; |157| 
    5771 00000822 9648          MOV       *-SP[8],AL            ; |157| 
    5772                      .dwpsn  "WIDGET\Gui_widget_droplist.c",158,10
    5773              L87:    
    5774              DW$L$_GUI_drop_list_unfold_display$5$B:
    5775                      .dwpsn  "WIDGET\Gui_widget_droplist.c",160,3
    5776 00000823 8A44          MOVL      XAR4,*-SP[4]          ; |160| 
    5777 00000824 7640!         LCR       #_GUI_window_hwin_release ; |160| 
         00000825 0000 
    5778                      ; call occurs [#_GUI_window_hwin_release] ; |160| 
    5779                      .dwpsn  "WIDGET\Gui_widget_droplist.c",161,3
    5780 00000826 9A01          MOVB      AL,#1                 ; |161| 
    5781 00000827 7640!         LCR       #_OSTimeDly           ; |161| 
         00000828 0000 
    5782                      ; call occurs [#_OSTimeDly] ; |161| 
    5783                      .dwpsn  "WIDGET\Gui_widget_droplist.c",162,3
    5784 00000829 5CAD          MOVZ      AR4,SP                ; |162| 
    5785 0000082a DC8A          SUBB      XAR4,#10              ; |162| 
    5786 0000082b 7640!         LCR       #_GUI_drop_msg_obtain_hook ; |162| 
         0000082c 0000 
    5787                      ; call occurs [#_GUI_drop_msg_obtain_hook] ; |162| 
    5788 0000082d 5200          CMPB      AL,#0                 ; |162| 
    5789 0000082e ECF5          BF        L87,EQ                ; |162| 
    5790                      ; branchcc occurs ; |162| 
    5791              DW$L$_GUI_drop_list_unfold_display$5$E:
    5792              DW$L$_GUI_drop_list_unfold_display$6$B:
    5793                      .dwpsn  "WIDGET\Gui_widget_droplist.c",164,7
    5794 0000082f 924A          MOV       AL,*-SP[10]           ; |164| 
    5795 00000830 90FF          ANDB      AL,#0xff              ; |164| 
    5796 00000831 9649          MOV       *-SP[9],AL            ; |164| 
TMS320C2000 COFF Assembler PC v4.1.3 Thu Nov 29 16:03:34 2012

Tools Copyright (c) 1996-2006 Texas Instruments Incorporated
C:\DOCUME~1\ADMINI~1\LOCALS~1\Temp\TI9882                            PAGE  112

    5797                      .dwpsn  "WIDGET\Gui_widget_droplist.c",165,4
    5798 00000832 8A44          MOVL      XAR4,*-SP[4]          ; |165| 
    5799 00000833 7640!         LCR       #_GUI_window_hwin_req ; |165| 
         00000834 0000 
    5800                      ; call occurs [#_GUI_window_hwin_req] ; |165| 
    5801                      .dwpsn  "WIDGET\Gui_widget_droplist.c",166,4
    5802 00000835 9249          MOV       AL,*-SP[9]            ; |166| 
    5803 00000836 5201          CMPB      AL,#1                 ; |166| 
    5804 00000837 ED51          BF        L88,NEQ               ; |166| 
    5805                      ; branchcc occurs ; |166| 
    5806              DW$L$_GUI_drop_list_unfold_display$6$E:
    5807              DW$L$_GUI_drop_list_unfold_display$7$B:
    5808                      .dwpsn  "WIDGET\Gui_widget_droplist.c",168,5
    5809 00000838 8A44          MOVL      XAR4,*-SP[4]          ; |168| 
    5810 00000839 D01B          MOVB      XAR0,#27              ; |168| 
    5811 0000083a 9294          MOV       AL,*+XAR4[AR0]        ; |168| 
    5812 0000083b 8A44          MOVL      XAR4,*-SP[4]          ; |168| 
    5813 0000083c D01A          MOVB      XAR0,#26              ; |168| 
    5814 0000083d 9CFF          ADDB      AL,#-1
    5815 0000083e 5494          CMP       AL,*+XAR4[AR0]        ; |168| 
    5816 0000083f 69E4          B         L87,LOS               ; |168| 
    5817                      ; branchcc occurs ; |168| 
    5818              DW$L$_GUI_drop_list_unfold_display$7$E:
    5819              DW$L$_GUI_drop_list_unfold_display$8$B:
    5820                      .dwpsn  "WIDGET\Gui_widget_droplist.c",170,6
    5821 00000840 9AFF          MOVB      AL,#255               ; |170| 
    5822 00000841 7640!         LCR       #_GUI_set_Bgcolor     ; |170| 
         00000842 0000 
    5823                      ; call occurs [#_GUI_set_Bgcolor] ; |170| 
    5824 00000843 9A00          MOVB      AL,#0
    5825 00000844 7640!         LCR       #_GUI_set_Fgcolor     ; |170| 
         00000845 0000 
    5826                      ; call occurs [#_GUI_set_Fgcolor] ; |170| 
    5827 00000846 924D          MOV       AL,*-SP[13]           ; |170| 
    5828 00000847 9446          ADD       AL,*-SP[6]            ; |170| 
    5829 00000848 9641          MOV       *-SP[1],AL            ; |170| 
    5830 00000849 9245          MOV       AL,*-SP[5]            ; |170| 
    5831 0000084a 8A44          MOVL      XAR4,*-SP[4]          ; |170| 
    5832 0000084b 9C01          ADDB      AL,#1                 ; |170| 
    5833 0000084c D01A          MOVB      XAR0,#26              ; |170| 
    5834 0000084d 80A9          MOVZ      AR7,AL                ; |170| 
    5835 0000084e 5603          MOV       ACC,*+XAR4[AR0] << #4 ; |170| 
         0000084f 0494 
    5836 00000850 9446          ADD       AL,*-SP[6]            ; |170| 
    5837 00000851 88A9          MOVZ      AR6,AL                ; |170| 
    5838 00000852 8A44          MOVL      XAR4,*-SP[4]          ; |170| 
    5839 00000853 9247          MOV       AL,*-SP[7]            ; |170| 
    5840 00000854 9445          ADD       AL,*-SP[5]            ; |170| 
    5841 00000855 5DA9          MOVZ      AR5,AL                ; |170| 
    5842 00000856 0E94          MOVU      ACC,*+XAR4[AR0]
    5843 00000857 8A44          MOVL      XAR4,*-SP[4]          ; |170| 
    5844 00000858 D018          MOVB      XAR0,#24              ; |170| 
    5845 00000859 8A94          MOVL      XAR4,*+XAR4[AR0]      ; |170| 
    5846 0000085a FF30          LSL       ACC,1                 ; |170| 
    5847 0000085b 5601          ADDL      XAR4,ACC
TMS320C2000 COFF Assembler PC v4.1.3 Thu Nov 29 16:03:34 2012

Tools Copyright (c) 1996-2006 Texas Instruments Incorporated
C:\DOCUME~1\ADMINI~1\LOCALS~1\Temp\TI9882                            PAGE  113

         0000085c 00A4 
    5848 0000085d 8AC4          MOVL      XAR4,*+XAR4[0]        ; |170| 
    5849 0000085e 92A7          MOV       AL,AR7                ; |170| 
    5850 0000085f 93A6          MOV       AH,AR6                ; |170| 
    5851 00000860 7640!         LCR       #_GUI_print_string    ; |170| 
         00000861 0000 
    5852                      ; call occurs [#_GUI_print_string] ; |170| 
    5853                      .dwpsn  "WIDGET\Gui_widget_droplist.c",171,6
    5854 00000862 8A44          MOVL      XAR4,*-SP[4]          ; |171| 
    5855 00000863 DC1A          ADDB      XAR4,#26              ; |171| 
    5856 00000864 0AC4          INC       *+XAR4[0]             ; |171| 
    5857                      .dwpsn  "WIDGET\Gui_widget_droplist.c",172,6
    5858 00000865 9A03          MOVB      AL,#3                 ; |172| 
    5859 00000866 7640!         LCR       #_GUI_set_Bgcolor     ; |172| 
         00000867 0000 
    5860                      ; call occurs [#_GUI_set_Bgcolor] ; |172| 
    5861 00000868 9AFF          MOVB      AL,#255               ; |172| 
    5862 00000869 7640!         LCR       #_GUI_set_Fgcolor     ; |172| 
         0000086a 0000 
    5863                      ; call occurs [#_GUI_set_Fgcolor] ; |172| 
    5864 0000086b 924D          MOV       AL,*-SP[13]           ; |172| 
    5865 0000086c 9446          ADD       AL,*-SP[6]            ; |172| 
    5866 0000086d 9641          MOV       *-SP[1],AL            ; |172| 
    5867 0000086e 9245          MOV       AL,*-SP[5]            ; |172| 
    5868 0000086f 8A44          MOVL      XAR4,*-SP[4]          ; |172| 
    5869 00000870 9C01          ADDB      AL,#1                 ; |172| 
    5870 00000871 D01A          MOVB      XAR0,#26              ; |172| 
    5871 00000872 80A9          MOVZ      AR7,AL                ; |172| 
    5872 00000873 5603          MOV       ACC,*+XAR4[AR0] << #4 ; |172| 
         00000874 0494 
    5873 00000875 9446          ADD       AL,*-SP[6]            ; |172| 
    5874 00000876 88A9          MOVZ      AR6,AL                ; |172| 
    5875 00000877 8A44          MOVL      XAR4,*-SP[4]          ; |172| 
    5876 00000878 9247          MOV       AL,*-SP[7]            ; |172| 
    5877 00000879 9445          ADD       AL,*-SP[5]            ; |172| 
    5878 0000087a 5DA9          MOVZ      AR5,AL                ; |172| 
    5879 0000087b 0E94          MOVU      ACC,*+XAR4[AR0]
    5880 0000087c 8A44          MOVL      XAR4,*-SP[4]          ; |172| 
    5881 0000087d D018          MOVB      XAR0,#24              ; |172| 
    5882 0000087e 8A94          MOVL      XAR4,*+XAR4[AR0]      ; |172| 
    5883 0000087f FF30          LSL       ACC,1                 ; |172| 
    5884 00000880 5601          ADDL      XAR4,ACC
         00000881 00A4 
    5885 00000882 8AC4          MOVL      XAR4,*+XAR4[0]        ; |172| 
    5886 00000883 92A7          MOV       AL,AR7                ; |172| 
    5887 00000884 93A6          MOV       AH,AR6                ; |172| 
    5888 00000885 7640!         LCR       #_GUI_print_string    ; |172| 
         00000886 0000 
    5889                      ; call occurs [#_GUI_print_string] ; |172| 
    5890                      .dwpsn  "WIDGET\Gui_widget_droplist.c",174,4
    5891 00000887 6F9C          B         L87,UNC               ; |174| 
    5892                      ; branch occurs ; |174| 
    5893              DW$L$_GUI_drop_list_unfold_display$8$E:
    5894              L88:    
    5895              DW$L$_GUI_drop_list_unfold_display$9$B:
TMS320C2000 COFF Assembler PC v4.1.3 Thu Nov 29 16:03:34 2012

Tools Copyright (c) 1996-2006 Texas Instruments Incorporated
C:\DOCUME~1\ADMINI~1\LOCALS~1\Temp\TI9882                            PAGE  114

    5896                      .dwpsn  "WIDGET\Gui_widget_droplist.c",175,9
    5897 00000888 5200          CMPB      AL,#0                 ; |175| 
    5898 00000889 ED4E          BF        L89,NEQ               ; |175| 
    5899                      ; branchcc occurs ; |175| 
    5900              DW$L$_GUI_drop_list_unfold_display$9$E:
    5901              DW$L$_GUI_drop_list_unfold_display$10$B:
    5902                      .dwpsn  "WIDGET\Gui_widget_droplist.c",177,5
    5903 0000088a 8A44          MOVL      XAR4,*-SP[4]          ; |177| 
    5904 0000088b D01A          MOVB      XAR0,#26              ; |177| 
    5905 0000088c 9294          MOV       AL,*+XAR4[AR0]        ; |177| 
    5906 0000088d EC96          BF        L87,EQ                ; |177| 
    5907                      ; branchcc occurs ; |177| 
    5908              DW$L$_GUI_drop_list_unfold_display$10$E:
    5909              DW$L$_GUI_drop_list_unfold_display$11$B:
    5910                      .dwpsn  "WIDGET\Gui_widget_droplist.c",179,6
    5911 0000088e 9AFF          MOVB      AL,#255               ; |179| 
    5912 0000088f 7640!         LCR       #_GUI_set_Bgcolor     ; |179| 
         00000890 0000 
    5913                      ; call occurs [#_GUI_set_Bgcolor] ; |179| 
    5914 00000891 9A00          MOVB      AL,#0
    5915 00000892 7640!         LCR       #_GUI_set_Fgcolor     ; |179| 
         00000893 0000 
    5916                      ; call occurs [#_GUI_set_Fgcolor] ; |179| 
    5917 00000894 924D          MOV       AL,*-SP[13]           ; |179| 
    5918 00000895 9446          ADD       AL,*-SP[6]            ; |179| 
    5919 00000896 9641          MOV       *-SP[1],AL            ; |179| 
    5920 00000897 9245          MOV       AL,*-SP[5]            ; |179| 
    5921 00000898 8A44          MOVL      XAR4,*-SP[4]          ; |179| 
    5922 00000899 9C01          ADDB      AL,#1                 ; |179| 
    5923 0000089a D01A          MOVB      XAR0,#26              ; |179| 
    5924 0000089b 80A9          MOVZ      AR7,AL                ; |179| 
    5925 0000089c 5603          MOV       ACC,*+XAR4[AR0] << #4 ; |179| 
         0000089d 0494 
    5926 0000089e 9446          ADD       AL,*-SP[6]            ; |179| 
    5927 0000089f 88A9          MOVZ      AR6,AL                ; |179| 
    5928 000008a0 8A44          MOVL      XAR4,*-SP[4]          ; |179| 
    5929 000008a1 9247          MOV       AL,*-SP[7]            ; |179| 
    5930 000008a2 9445          ADD       AL,*-SP[5]            ; |179| 
    5931 000008a3 5DA9          MOVZ      AR5,AL                ; |179| 
    5932 000008a4 0E94          MOVU      ACC,*+XAR4[AR0]
    5933 000008a5 8A44          MOVL      XAR4,*-SP[4]          ; |179| 
    5934 000008a6 D018          MOVB      XAR0,#24              ; |179| 
    5935 000008a7 8A94          MOVL      XAR4,*+XAR4[AR0]      ; |179| 
    5936 000008a8 FF30          LSL       ACC,1                 ; |179| 
    5937 000008a9 5601          ADDL      XAR4,ACC
         000008aa 00A4 
    5938 000008ab 8AC4          MOVL      XAR4,*+XAR4[0]        ; |179| 
    5939 000008ac 92A7          MOV       AL,AR7                ; |179| 
    5940 000008ad 93A6          MOV       AH,AR6                ; |179| 
    5941 000008ae 7640!         LCR       #_GUI_print_string    ; |179| 
         000008af 0000 
    5942                      ; call occurs [#_GUI_print_string] ; |179| 
    5943                      .dwpsn  "WIDGET\Gui_widget_droplist.c",180,6
    5944 000008b0 8A44          MOVL      XAR4,*-SP[4]          ; |180| 
    5945 000008b1 DC1A          ADDB      XAR4,#26              ; |180| 
TMS320C2000 COFF Assembler PC v4.1.3 Thu Nov 29 16:03:34 2012

Tools Copyright (c) 1996-2006 Texas Instruments Incorporated
C:\DOCUME~1\ADMINI~1\LOCALS~1\Temp\TI9882                            PAGE  115

    5946 000008b2 0BC4          DEC       *+XAR4[0]             ; |180| 
    5947                      .dwpsn  "WIDGET\Gui_widget_droplist.c",181,6
    5948 000008b3 9A03          MOVB      AL,#3                 ; |181| 
    5949 000008b4 7640!         LCR       #_GUI_set_Bgcolor     ; |181| 
         000008b5 0000 
    5950                      ; call occurs [#_GUI_set_Bgcolor] ; |181| 
    5951 000008b6 9AFF          MOVB      AL,#255               ; |181| 
    5952 000008b7 7640!         LCR       #_GUI_set_Fgcolor     ; |181| 
         000008b8 0000 
    5953                      ; call occurs [#_GUI_set_Fgcolor] ; |181| 
    5954 000008b9 924D          MOV       AL,*-SP[13]           ; |181| 
    5955 000008ba 9446          ADD       AL,*-SP[6]            ; |181| 
    5956 000008bb 9641          MOV       *-SP[1],AL            ; |181| 
    5957 000008bc 9245          MOV       AL,*-SP[5]            ; |181| 
    5958 000008bd 8A44          MOVL      XAR4,*-SP[4]          ; |181| 
    5959 000008be 9C01          ADDB      AL,#1                 ; |181| 
    5960 000008bf D01A          MOVB      XAR0,#26              ; |181| 
    5961 000008c0 80A9          MOVZ      AR7,AL                ; |181| 
    5962 000008c1 5603          MOV       ACC,*+XAR4[AR0] << #4 ; |181| 
         000008c2 0494 
    5963 000008c3 9446          ADD       AL,*-SP[6]            ; |181| 
    5964 000008c4 88A9          MOVZ      AR6,AL                ; |181| 
    5965 000008c5 8A44          MOVL      XAR4,*-SP[4]          ; |181| 
    5966 000008c6 9247          MOV       AL,*-SP[7]            ; |181| 
    5967 000008c7 9445          ADD       AL,*-SP[5]            ; |181| 
    5968 000008c8 5DA9          MOVZ      AR5,AL                ; |181| 
    5969 000008c9 0E94          MOVU      ACC,*+XAR4[AR0]
    5970 000008ca 8A44          MOVL      XAR4,*-SP[4]          ; |181| 
    5971 000008cb D018          MOVB      XAR0,#24              ; |181| 
    5972 000008cc 8A94          MOVL      XAR4,*+XAR4[AR0]      ; |181| 
    5973 000008cd FF30          LSL       ACC,1                 ; |181| 
    5974 000008ce 5601          ADDL      XAR4,ACC
         000008cf 00A4 
    5975 000008d0 8AC4          MOVL      XAR4,*+XAR4[0]        ; |181| 
    5976 000008d1 92A7          MOV       AL,AR7                ; |181| 
    5977 000008d2 93A6          MOV       AH,AR6                ; |181| 
    5978 000008d3 7640!         LCR       #_GUI_print_string    ; |181| 
         000008d4 0000 
    5979                      ; call occurs [#_GUI_print_string] ; |181| 
    5980                      .dwpsn  "WIDGET\Gui_widget_droplist.c",183,4
    5981 000008d5 FFEF          B         L87,UNC               ; |183| 
         000008d6 FF4E 
    5982                      ; branch occurs ; |183| 
    5983              DW$L$_GUI_drop_list_unfold_display$11$E:
    5984              L89:    
    5985              DW$L$_GUI_drop_list_unfold_display$12$B:
    5986                      .dwpsn  "WIDGET\Gui_widget_droplist.c",184,9
    5987 000008d7 52CB          CMPB      AL,#203               ; |184| 
    5988 000008d8 ED4C          BF        L90,NEQ               ; |184| 
    5989                      ; branchcc occurs ; |184| 
    5990              DW$L$_GUI_drop_list_unfold_display$12$E:
    5991                      .dwpsn  "WIDGET\Gui_widget_droplist.c",186,5
    5992 000008d9 9AFF          MOVB      AL,#255               ; |186| 
    5993 000008da 7640!         LCR       #_GUI_set_Bgcolor     ; |186| 
         000008db 0000 
TMS320C2000 COFF Assembler PC v4.1.3 Thu Nov 29 16:03:34 2012

Tools Copyright (c) 1996-2006 Texas Instruments Incorporated
C:\DOCUME~1\ADMINI~1\LOCALS~1\Temp\TI9882                            PAGE  116

    5994                      ; call occurs [#_GUI_set_Bgcolor] ; |186| 
    5995 000008dc 9A00          MOVB      AL,#0
    5996 000008dd 7640!         LCR       #_GUI_set_Fgcolor     ; |186| 
         000008de 0000 
    5997                      ; call occurs [#_GUI_set_Fgcolor] ; |186| 
    5998 000008df 924D          MOV       AL,*-SP[13]           ; |186| 
    5999 000008e0 9446          ADD       AL,*-SP[6]            ; |186| 
    6000 000008e1 9641          MOV       *-SP[1],AL            ; |186| 
    6001 000008e2 9245          MOV       AL,*-SP[5]            ; |186| 
    6002 000008e3 8A44          MOVL      XAR4,*-SP[4]          ; |186| 
    6003 000008e4 9C01          ADDB      AL,#1                 ; |186| 
    6004 000008e5 D01A          MOVB      XAR0,#26              ; |186| 
    6005 000008e6 80A9          MOVZ      AR7,AL                ; |186| 
    6006 000008e7 5603          MOV       ACC,*+XAR4[AR0] << #4 ; |186| 
         000008e8 0494 
    6007 000008e9 9446          ADD       AL,*-SP[6]            ; |186| 
    6008 000008ea 88A9          MOVZ      AR6,AL                ; |186| 
    6009 000008eb 8A44          MOVL      XAR4,*-SP[4]          ; |186| 
    6010 000008ec 9247          MOV       AL,*-SP[7]            ; |186| 
    6011 000008ed 9445          ADD       AL,*-SP[5]            ; |186| 
    6012 000008ee 5DA9          MOVZ      AR5,AL                ; |186| 
    6013 000008ef 0E94          MOVU      ACC,*+XAR4[AR0]
    6014 000008f0 8A44          MOVL      XAR4,*-SP[4]          ; |186| 
    6015 000008f1 D018          MOVB      XAR0,#24              ; |186| 
    6016 000008f2 8A94          MOVL      XAR4,*+XAR4[AR0]      ; |186| 
    6017 000008f3 FF30          LSL       ACC,1                 ; |186| 
    6018 000008f4 5601          ADDL      XAR4,ACC
         000008f5 00A4 
    6019 000008f6 8AC4          MOVL      XAR4,*+XAR4[0]        ; |186| 
    6020 000008f7 92A7          MOV       AL,AR7                ; |186| 
    6021 000008f8 93A6          MOV       AH,AR6                ; |186| 
    6022 000008f9 7640!         LCR       #_GUI_print_string    ; |186| 
         000008fa 0000 
    6023                      ; call occurs [#_GUI_print_string] ; |186| 
    6024                      .dwpsn  "WIDGET\Gui_widget_droplist.c",187,5
    6025 000008fb 8A44          MOVL      XAR4,*-SP[4]          ; |187| 
    6026 000008fc 761F-         MOVW      DP,#_m_select_drop_member
         000008fd 0000 
    6027 000008fe D01A          MOVB      XAR0,#26              ; |187| 
    6028 000008ff 9204-         MOV       AL,@_m_select_drop_member ; |187| 
    6029 00000900 9694          MOV       *+XAR4[AR0],AL        ; |187| 
    6030                      .dwpsn  "WIDGET\Gui_widget_droplist.c",188,5
    6031 00000901 9A03          MOVB      AL,#3                 ; |188| 
    6032 00000902 7640!         LCR       #_GUI_set_Bgcolor     ; |188| 
         00000903 0000 
    6033                      ; call occurs [#_GUI_set_Bgcolor] ; |188| 
    6034 00000904 9AFF          MOVB      AL,#255               ; |188| 
    6035 00000905 7640!         LCR       #_GUI_set_Fgcolor     ; |188| 
         00000906 0000 
    6036                      ; call occurs [#_GUI_set_Fgcolor] ; |188| 
    6037 00000907 924D          MOV       AL,*-SP[13]           ; |188| 
    6038 00000908 9446          ADD       AL,*-SP[6]            ; |188| 
    6039 00000909 9641          MOV       *-SP[1],AL            ; |188| 
    6040 0000090a 9245          MOV       AL,*-SP[5]            ; |188| 
    6041 0000090b 8A44          MOVL      XAR4,*-SP[4]          ; |188| 
TMS320C2000 COFF Assembler PC v4.1.3 Thu Nov 29 16:03:34 2012

Tools Copyright (c) 1996-2006 Texas Instruments Incorporated
C:\DOCUME~1\ADMINI~1\LOCALS~1\Temp\TI9882                            PAGE  117

    6042 0000090c 9C01          ADDB      AL,#1                 ; |188| 
    6043 0000090d D01A          MOVB      XAR0,#26              ; |188| 
    6044 0000090e 80A9          MOVZ      AR7,AL                ; |188| 
    6045 0000090f 5603          MOV       ACC,*+XAR4[AR0] << #4 ; |188| 
         00000910 0494 
    6046 00000911 9446          ADD       AL,*-SP[6]            ; |188| 
    6047 00000912 88A9          MOVZ      AR6,AL                ; |188| 
    6048 00000913 8A44          MOVL      XAR4,*-SP[4]          ; |188| 
    6049 00000914 9247          MOV       AL,*-SP[7]            ; |188| 
    6050 00000915 9445          ADD       AL,*-SP[5]            ; |188| 
    6051 00000916 5DA9          MOVZ      AR5,AL                ; |188| 
    6052 00000917 0E94          MOVU      ACC,*+XAR4[AR0]
    6053 00000918 8A44          MOVL      XAR4,*-SP[4]          ; |188| 
    6054 00000919 D018          MOVB      XAR0,#24              ; |188| 
    6055 0000091a 8A94          MOVL      XAR4,*+XAR4[AR0]      ; |188| 
    6056 0000091b FF30          LSL       ACC,1                 ; |188| 
    6057 0000091c 5601          ADDL      XAR4,ACC
         0000091d 00A4 
    6058 0000091e 92A7          MOV       AL,AR7                ; |188| 
    6059 0000091f 8AC4          MOVL      XAR4,*+XAR4[0]        ; |188| 
    6060 00000920 93A6          MOV       AH,AR6                ; |188| 
    6061 00000921 7640!         LCR       #_GUI_print_string    ; |188| 
         00000922 0000 
    6062                      ; call occurs [#_GUI_print_string] ; |188| 
    6063                      .dwpsn  "WIDGET\Gui_widget_droplist.c",189,5
    6064 00000923 6F5E          B         L92,UNC               ; |189| 
    6065                      ; branch occurs ; |189| 
    6066              L90:    
    6067              DW$L$_GUI_drop_list_unfold_display$15$B:
    6068                      .dwpsn  "WIDGET\Gui_widget_droplist.c",191,9
    6069 00000924 5204          CMPB      AL,#4                 ; |191| 
    6070 00000925 ED55          BF        L91,NEQ               ; |191| 
    6071                      ; branchcc occurs ; |191| 
    6072              DW$L$_GUI_drop_list_unfold_display$15$E:
    6073              DW$L$_GUI_drop_list_unfold_display$16$B:
    6074                      .dwpsn  "WIDGET\Gui_widget_droplist.c",193,17
    6075 00000926 CC4A          AND       AL,*-SP[10],#0xff00   ; |193| 
         00000927 FF00 
    6076 00000928 FFC7          LSR       AL,8                  ; |193| 
    6077 00000929 964A          MOV       *-SP[10],AL           ; |193| 
    6078                      .dwpsn  "WIDGET\Gui_widget_droplist.c",194,5
    6079 0000092a 0B4A          DEC       *-SP[10]              ; |194| 
    6080                      .dwpsn  "WIDGET\Gui_widget_droplist.c",195,5
    6081 0000092b 8A44          MOVL      XAR4,*-SP[4]          ; |195| 
    6082 0000092c D01B          MOVB      XAR0,#27              ; |195| 
    6083 0000092d 9294          MOV       AL,*+XAR4[AR0]        ; |195| 
    6084 0000092e 544A          CMP       AL,*-SP[10]           ; |195| 
    6085 0000092f FFE9          B         L87,LOS               ; |195| 
         00000930 FEF4 
    6086                      ; branchcc occurs ; |195| 
    6087              DW$L$_GUI_drop_list_unfold_display$16$E:
    6088                      .dwpsn  "WIDGET\Gui_widget_droplist.c",197,6
    6089 00000931 9AFF          MOVB      AL,#255               ; |197| 
    6090 00000932 7640!         LCR       #_GUI_set_Bgcolor     ; |197| 
         00000933 0000 
TMS320C2000 COFF Assembler PC v4.1.3 Thu Nov 29 16:03:34 2012

Tools Copyright (c) 1996-2006 Texas Instruments Incorporated
C:\DOCUME~1\ADMINI~1\LOCALS~1\Temp\TI9882                            PAGE  118

    6091                      ; call occurs [#_GUI_set_Bgcolor] ; |197| 
    6092 00000934 9A00          MOVB      AL,#0
    6093 00000935 7640!         LCR       #_GUI_set_Fgcolor     ; |197| 
         00000936 0000 
    6094                      ; call occurs [#_GUI_set_Fgcolor] ; |197| 
    6095 00000937 924D          MOV       AL,*-SP[13]           ; |197| 
    6096 00000938 9446          ADD       AL,*-SP[6]            ; |197| 
    6097 00000939 9641          MOV       *-SP[1],AL            ; |197| 
    6098 0000093a 9245          MOV       AL,*-SP[5]            ; |197| 
    6099 0000093b 8A44          MOVL      XAR4,*-SP[4]          ; |197| 
    6100 0000093c 9C01          ADDB      AL,#1                 ; |197| 
    6101 0000093d D01A          MOVB      XAR0,#26              ; |197| 
    6102 0000093e 80A9          MOVZ      AR7,AL                ; |197| 
    6103 0000093f 5603          MOV       ACC,*+XAR4[AR0] << #4 ; |197| 
         00000940 0494 
    6104 00000941 9446          ADD       AL,*-SP[6]            ; |197| 
    6105 00000942 88A9          MOVZ      AR6,AL                ; |197| 
    6106 00000943 8A44          MOVL      XAR4,*-SP[4]          ; |197| 
    6107 00000944 9247          MOV       AL,*-SP[7]            ; |197| 
    6108 00000945 9445          ADD       AL,*-SP[5]            ; |197| 
    6109 00000946 5DA9          MOVZ      AR5,AL                ; |197| 
    6110 00000947 0E94          MOVU      ACC,*+XAR4[AR0]
    6111 00000948 8A44          MOVL      XAR4,*-SP[4]          ; |197| 
    6112 00000949 D018          MOVB      XAR0,#24              ; |197| 
    6113 0000094a 8A94          MOVL      XAR4,*+XAR4[AR0]      ; |197| 
    6114 0000094b FF30          LSL       ACC,1                 ; |197| 
    6115 0000094c 5601          ADDL      XAR4,ACC
         0000094d 00A4 
    6116 0000094e 8AC4          MOVL      XAR4,*+XAR4[0]        ; |197| 
    6117 0000094f 92A7          MOV       AL,AR7                ; |197| 
    6118 00000950 93A6          MOV       AH,AR6                ; |197| 
    6119 00000951 7640!         LCR       #_GUI_print_string    ; |197| 
         00000952 0000 
    6120                      ; call occurs [#_GUI_print_string] ; |197| 
    6121                      .dwpsn  "WIDGET\Gui_widget_droplist.c",198,7
    6122 00000953 8A44          MOVL      XAR4,*-SP[4]          ; |198| 
    6123 00000954 D01A          MOVB      XAR0,#26              ; |198| 
    6124 00000955 924A          MOV       AL,*-SP[10]           ; |198| 
    6125 00000956 9694          MOV       *+XAR4[AR0],AL        ; |198| 
    6126                      .dwpsn  "WIDGET\Gui_widget_droplist.c",199,6
    6127 00000957 9A03          MOVB      AL,#3                 ; |199| 
    6128 00000958 7640!         LCR       #_GUI_set_Bgcolor     ; |199| 
         00000959 0000 
    6129                      ; call occurs [#_GUI_set_Bgcolor] ; |199| 
    6130 0000095a 9AFF          MOVB      AL,#255               ; |199| 
    6131 0000095b 7640!         LCR       #_GUI_set_Fgcolor     ; |199| 
         0000095c 0000 
    6132                      ; call occurs [#_GUI_set_Fgcolor] ; |199| 
    6133 0000095d 924D          MOV       AL,*-SP[13]           ; |199| 
    6134 0000095e 9446          ADD       AL,*-SP[6]            ; |199| 
    6135 0000095f 9641          MOV       *-SP[1],AL            ; |199| 
    6136 00000960 9245          MOV       AL,*-SP[5]            ; |199| 
    6137 00000961 8A44          MOVL      XAR4,*-SP[4]          ; |199| 
    6138 00000962 9C01          ADDB      AL,#1                 ; |199| 
    6139 00000963 D01A          MOVB      XAR0,#26              ; |199| 
TMS320C2000 COFF Assembler PC v4.1.3 Thu Nov 29 16:03:34 2012

Tools Copyright (c) 1996-2006 Texas Instruments Incorporated
C:\DOCUME~1\ADMINI~1\LOCALS~1\Temp\TI9882                            PAGE  119

    6140 00000964 80A9          MOVZ      AR7,AL                ; |199| 
    6141 00000965 5603          MOV       ACC,*+XAR4[AR0] << #4 ; |199| 
         00000966 0494 
    6142 00000967 9446          ADD       AL,*-SP[6]            ; |199| 
    6143 00000968 88A9          MOVZ      AR6,AL                ; |199| 
    6144 00000969 8A44          MOVL      XAR4,*-SP[4]          ; |199| 
    6145 0000096a 9247          MOV       AL,*-SP[7]            ; |199| 
    6146 0000096b 9445          ADD       AL,*-SP[5]            ; |199| 
    6147 0000096c 5DA9          MOVZ      AR5,AL                ; |199| 
    6148 0000096d 0E94          MOVU      ACC,*+XAR4[AR0]
    6149 0000096e 8A44          MOVL      XAR4,*-SP[4]          ; |199| 
    6150 0000096f D018          MOVB      XAR0,#24              ; |199| 
    6151 00000970 8A94          MOVL      XAR4,*+XAR4[AR0]      ; |199| 
    6152 00000971 FF30          LSL       ACC,1                 ; |199| 
    6153 00000972 5601          ADDL      XAR4,ACC
         00000973 00A4 
    6154 00000974 92A7          MOV       AL,AR7                ; |199| 
    6155 00000975 8AC4          MOVL      XAR4,*+XAR4[0]        ; |199| 
    6156 00000976 93A6          MOV       AH,AR6                ; |199| 
    6157 00000977 7640!         LCR       #_GUI_print_string    ; |199| 
         00000978 0000 
    6158                      ; call occurs [#_GUI_print_string] ; |199| 
    6159                      .dwpsn  "WIDGET\Gui_widget_droplist.c",200,6
    6160 00000979 6F08          B         L92,UNC               ; |200| 
    6161                      ; branch occurs ; |200| 
    6162              L91:    
    6163                      .dwpsn  "WIDGET\Gui_widget_droplist.c",203,9
    6164 0000097a 5203          CMPB      AL,#3                 ; |203| 
    6165 0000097b ED06          BF        L92,NEQ               ; |203| 
    6166                      ; branchcc occurs ; |203| 
    6167                      .dwpsn  "WIDGET\Gui_widget_droplist.c",205,5
    6168 0000097c 9248          MOV       AL,*-SP[8]            ; |205| 
    6169 0000097d 8A44          MOVL      XAR4,*-SP[4]          ; |205| 
    6170 0000097e D01A          MOVB      XAR0,#26              ; |205| 
    6171 0000097f 9694          MOV       *+XAR4[AR0],AL        ; |205| 
    6172                      .dwpsn  "WIDGET\Gui_widget_droplist.c",206,5
    6173 00000980 6F01          B         L92,UNC               ; |206| 
    6174                      ; branch occurs ; |206| 
    6175              L92:    
    6176                      .dwpsn  "WIDGET\Gui_widget_droplist.c",212,1
    6177 00000981 FE8A          SUBB      SP,#10
    6178                      .dwcfa  0x1d, -2
    6179 00000982 0006          LRETR
    6180                      ; return occurs
    6181              
    6182              DW$546  .dwtag  DW_TAG_loop
    6183                      .dwattr DW$546, DW_AT_name("C:\DOCUME~1\ADMINI~1\LOCALS~1\Temp\TI9882:L87:1:1354176212")
    6184                      .dwattr DW$546, DW_AT_begin_file("WIDGET\Gui_widget_droplist.c")
    6185                      .dwattr DW$546, DW_AT_begin_line(0x9e)
    6186                      .dwattr DW$546, DW_AT_end_line(0xd2)
    6187              DW$547  .dwtag  DW_TAG_loop_range
    6188                      .dwattr DW$547, DW_AT_low_pc(DW$L$_GUI_drop_list_unfold_display$5$B)
    6189                      .dwattr DW$547, DW_AT_high_pc(DW$L$_GUI_drop_list_unfold_display$5$E)
    6190              DW$548  .dwtag  DW_TAG_loop_range
    6191                      .dwattr DW$548, DW_AT_low_pc(DW$L$_GUI_drop_list_unfold_display$12$B)
TMS320C2000 COFF Assembler PC v4.1.3 Thu Nov 29 16:03:34 2012

Tools Copyright (c) 1996-2006 Texas Instruments Incorporated
C:\DOCUME~1\ADMINI~1\LOCALS~1\Temp\TI9882                            PAGE  120

    6192                      .dwattr DW$548, DW_AT_high_pc(DW$L$_GUI_drop_list_unfold_display$12$E)
    6193              DW$549  .dwtag  DW_TAG_loop_range
    6194                      .dwattr DW$549, DW_AT_low_pc(DW$L$_GUI_drop_list_unfold_display$15$B)
    6195                      .dwattr DW$549, DW_AT_high_pc(DW$L$_GUI_drop_list_unfold_display$15$E)
    6196              DW$550  .dwtag  DW_TAG_loop_range
    6197                      .dwattr DW$550, DW_AT_low_pc(DW$L$_GUI_drop_list_unfold_display$9$B)
    6198                      .dwattr DW$550, DW_AT_high_pc(DW$L$_GUI_drop_list_unfold_display$9$E)
    6199              DW$551  .dwtag  DW_TAG_loop_range
    6200                      .dwattr DW$551, DW_AT_low_pc(DW$L$_GUI_drop_list_unfold_display$6$B)
    6201                      .dwattr DW$551, DW_AT_high_pc(DW$L$_GUI_drop_list_unfold_display$6$E)
    6202              DW$552  .dwtag  DW_TAG_loop_range
    6203                      .dwattr DW$552, DW_AT_low_pc(DW$L$_GUI_drop_list_unfold_display$16$B)
    6204                      .dwattr DW$552, DW_AT_high_pc(DW$L$_GUI_drop_list_unfold_display$16$E)
    6205              DW$553  .dwtag  DW_TAG_loop_range
    6206                      .dwattr DW$553, DW_AT_low_pc(DW$L$_GUI_drop_list_unfold_display$11$B)
    6207                      .dwattr DW$553, DW_AT_high_pc(DW$L$_GUI_drop_list_unfold_display$11$E)
    6208              DW$554  .dwtag  DW_TAG_loop_range
    6209                      .dwattr DW$554, DW_AT_low_pc(DW$L$_GUI_drop_list_unfold_display$10$B)
    6210                      .dwattr DW$554, DW_AT_high_pc(DW$L$_GUI_drop_list_unfold_display$10$E)
    6211              DW$555  .dwtag  DW_TAG_loop_range
    6212                      .dwattr DW$555, DW_AT_low_pc(DW$L$_GUI_drop_list_unfold_display$8$B)
    6213                      .dwattr DW$555, DW_AT_high_pc(DW$L$_GUI_drop_list_unfold_display$8$E)
    6214              DW$556  .dwtag  DW_TAG_loop_range
    6215                      .dwattr DW$556, DW_AT_low_pc(DW$L$_GUI_drop_list_unfold_display$7$B)
    6216                      .dwattr DW$556, DW_AT_high_pc(DW$L$_GUI_drop_list_unfold_display$7$E)
    6217                      .dwendtag DW$546
    6218              
    6219              
    6220              DW$557  .dwtag  DW_TAG_loop
    6221                      .dwattr DW$557, DW_AT_name("C:\DOCUME~1\ADMINI~1\LOCALS~1\Temp\TI9882:L86:1:1354176212")
    6222                      .dwattr DW$557, DW_AT_begin_file("WIDGET\Gui_widget_droplist.c")
    6223                      .dwattr DW$557, DW_AT_begin_line(0x96)
    6224                      .dwattr DW$557, DW_AT_end_line(0x98)
    6225              DW$558  .dwtag  DW_TAG_loop_range
    6226                      .dwattr DW$558, DW_AT_low_pc(DW$L$_GUI_drop_list_unfold_display$3$B)
    6227                      .dwattr DW$558, DW_AT_high_pc(DW$L$_GUI_drop_list_unfold_display$3$E)
    6228              DW$559  .dwtag  DW_TAG_loop_range
    6229                      .dwattr DW$559, DW_AT_low_pc(DW$L$_GUI_drop_list_unfold_display$2$B)
    6230                      .dwattr DW$559, DW_AT_high_pc(DW$L$_GUI_drop_list_unfold_display$2$E)
    6231                      .dwendtag DW$557
    6232              
    6233                      .dwattr DW$533, DW_AT_end_file("WIDGET\Gui_widget_droplist.c")
    6234                      .dwattr DW$533, DW_AT_end_line(0xd4)
    6235                      .dwattr DW$533, DW_AT_end_column(0x01)
    6236                      .dwendentry
    6237                      .dwendtag DW$533
    6238              
    6239 00000983               .sect   ".text"
    6240                      .global _GUI_drop_list_unfold
    6241              
    6242              DW$560  .dwtag  DW_TAG_subprogram, DW_AT_name("GUI_drop_list_unfold"), DW_AT_symbol_name("_GUI_drop_list_unfo
    6243                      .dwattr DW$560, DW_AT_low_pc(_GUI_drop_list_unfold)
    6244                      .dwattr DW$560, DW_AT_high_pc(0x00)
    6245                      .dwattr DW$560, DW_AT_begin_file("WIDGET\Gui_widget_droplist.c")
    6246                      .dwattr DW$560, DW_AT_begin_line(0xdc)
TMS320C2000 COFF Assembler PC v4.1.3 Thu Nov 29 16:03:34 2012

Tools Copyright (c) 1996-2006 Texas Instruments Incorporated
C:\DOCUME~1\ADMINI~1\LOCALS~1\Temp\TI9882                            PAGE  121

    6247                      .dwattr DW$560, DW_AT_begin_column(0x09)
    6248                      .dwpsn  "WIDGET\Gui_widget_droplist.c",221,1
    6249              
    6250                      .dwfde DW$CIE
    6251              
    6252              ;***************************************************************
    6253              ;* FNAME: _GUI_drop_list_unfold         FR SIZE:   6           *
    6254              ;*                                                             *
    6255              ;* FUNCTION ENVIRONMENT                                        *
    6256              ;*                                                             *
    6257              ;* FUNCTION PROPERTIES                                         *
    6258              ;*                            2 Parameter,  4 Auto,  0 SOE     *
    6259              ;***************************************************************
    6260              
    6261              _GUI_drop_list_unfold:
    6262                      .dwcfa  0x1d, -2
    6263                      .dwcfa  0x1c, 26, 0
    6264                      .dwcfa  0x09, 40, 26
    6265 00000983 FE06          ADDB      SP,#6
    6266                      .dwcfa  0x1d, -8
    6267              ;* AR4   assigned to _hp
    6268              DW$561  .dwtag  DW_TAG_formal_parameter, DW_AT_name("hp"), DW_AT_symbol_name("_hp")
    6269                      .dwattr DW$561, DW_AT_type(*DW$T$54)
    6270                      .dwattr DW$561, DW_AT_location[DW_OP_reg12]
    6271              DW$562  .dwtag  DW_TAG_variable, DW_AT_name("hp"), DW_AT_symbol_name("_hp")
    6272                      .dwattr DW$562, DW_AT_type(*DW$T$54)
    6273                      .dwattr DW$562, DW_AT_location[DW_OP_breg20 -4]
    6274              DW$563  .dwtag  DW_TAG_variable, DW_AT_name("pmem"), DW_AT_symbol_name("_pmem")
    6275                      .dwattr DW$563, DW_AT_type(*DW$T$186)
    6276                      .dwattr DW$563, DW_AT_location[DW_OP_breg20 -6]
    6277 00000984 A844          MOVL      *-SP[4],XAR4          ; |221| 
    6278                      .dwpsn  "WIDGET\Gui_widget_droplist.c",227,5
    6279 00000985 0644          MOVL      ACC,*-SP[4]           ; |227| 
    6280 00000986 ED06          BF        L93,NEQ               ; |227| 
    6281                      ; branchcc occurs ; |227| 
    6282                      .dwpsn  "WIDGET\Gui_widget_droplist.c",227,13
    6283 00000987 8A44          MOVL      XAR4,*-SP[4]          ; |227| 
    6284 00000988 D01A          MOVB      XAR0,#26              ; |227| 
    6285 00000989 9294          MOV       AL,*+XAR4[AR0]        ; |227| 
    6286 0000098a FFEF          B         L97,UNC               ; |227| 
         0000098b 00A9 
    6287                      ; branch occurs ; |227| 
    6288              L93:    
    6289                      .dwpsn  "WIDGET\Gui_widget_droplist.c",228,2
    6290 0000098c 8A44          MOVL      XAR4,*-SP[4]          ; |228| 
    6291 0000098d D016          MOVB      XAR0,#22              ; |228| 
    6292 0000098e 9294          MOV       AL,*+XAR4[AR0]        ; |228| 
    6293 0000098f EC06          BF        L94,EQ                ; |228| 
    6294                      ; branchcc occurs ; |228| 
    6295                      .dwpsn  "WIDGET\Gui_widget_droplist.c",230,3
    6296 00000990 8A44          MOVL      XAR4,*-SP[4]          ; |230| 
    6297 00000991 D01A          MOVB      XAR0,#26              ; |230| 
    6298 00000992 9294          MOV       AL,*+XAR4[AR0]        ; |230| 
    6299 00000993 FFEF          B         L97,UNC               ; |230| 
         00000994 00A0 
TMS320C2000 COFF Assembler PC v4.1.3 Thu Nov 29 16:03:34 2012

Tools Copyright (c) 1996-2006 Texas Instruments Incorporated
C:\DOCUME~1\ADMINI~1\LOCALS~1\Temp\TI9882                            PAGE  122

    6300                      ; branch occurs ; |230| 
    6301              L94:    
    6302                      .dwpsn  "WIDGET\Gui_widget_droplist.c",232,2
    6303 00000995 8A44          MOVL      XAR4,*-SP[4]          ; |232| 
    6304 00000996 7640'         LCR       #_Gui_drop_list_select ; |232| 
         00000997 079F 
    6305                      ; call occurs [#_Gui_drop_list_select] ; |232| 
    6306                      .dwpsn  "WIDGET\Gui_widget_droplist.c",233,2
    6307 00000998 8A44          MOVL      XAR4,*-SP[4]          ; |233| 
    6308 00000999 7640!         LCR       #_GUI_window_hwin_req ; |233| 
         0000099a 0000 
    6309                      ; call occurs [#_GUI_window_hwin_req] ; |233| 
    6310                      .dwpsn  "WIDGET\Gui_widget_droplist.c",234,2
    6311 0000099b 8A44          MOVL      XAR4,*-SP[4]          ; |234| 
    6312 0000099c D016          MOVB      XAR0,#22              ; |234| 
    6313 0000099d 2894          MOV       *+XAR4[AR0],#1        ; |234| 
         0000099e 0001 
    6314                      .dwpsn  "WIDGET\Gui_widget_droplist.c",235,2
    6315 0000099f 8344          MOVL      XAR5,*-SP[4]          ; |235| 
    6316 000009a0 8A44          MOVL      XAR4,*-SP[4]          ; |235| 
    6317 000009a1 92E5          MOV       AL,*+XAR5[4]          ; |235| 
    6318 000009a2 94D4          ADD       AL,*+XAR4[2]          ; |235| 
    6319 000009a3 8A44          MOVL      XAR4,*-SP[4]          ; |235| 
    6320 000009a4 88A9          MOVZ      AR6,AL                ; |235| 
    6321 000009a5 D01B          MOVB      XAR0,#27              ; |235| 
    6322 000009a6 5603          MOV       ACC,*+XAR4[AR0] << #4 ; |235| 
         000009a7 0494 
    6323 000009a8 94A6          ADD       AL,AR6                ; |235| 
    6324 000009a9 9C04          ADDB      AL,#4                 ; |235| 
    6325 000009aa 52F0          CMPB      AL,#240               ; |235| 
    6326 000009ab 6909          B         L95,LOS               ; |235| 
    6327                      ; branchcc occurs ; |235| 
    6328                      .dwpsn  "WIDGET\Gui_widget_droplist.c",237,3
    6329 000009ac 8A44          MOVL      XAR4,*-SP[4]          ; |237| 
    6330 000009ad D016          MOVB      XAR0,#22              ; |237| 
    6331 000009ae 2B94          MOV       *+XAR4[AR0],#0        ; |237| 
    6332                      .dwpsn  "WIDGET\Gui_widget_droplist.c",238,3
    6333 000009af 8A44          MOVL      XAR4,*-SP[4]          ; |238| 
    6334 000009b0 D01A          MOVB      XAR0,#26              ; |238| 
    6335 000009b1 9294          MOV       AL,*+XAR4[AR0]        ; |238| 
    6336 000009b2 FFEF          B         L97,UNC               ; |238| 
         000009b3 0081 
    6337                      ; branch occurs ; |238| 
    6338              L95:    
    6339                      .dwpsn  "WIDGET\Gui_widget_droplist.c",243,2
    6340 000009b4 8A44          MOVL      XAR4,*-SP[4]          ; |243| 
    6341 000009b5 5603          MOV       ACC,*+XAR4[AR0] << #4 ; |243| 
         000009b6 0494 
    6342 000009b7 8A44          MOVL      XAR4,*-SP[4]          ; |243| 
    6343 000009b8 9C05          ADDB      AL,#5                 ; |243| 
    6344 000009b9 93DC          MOV       AH,*+XAR4[3]          ; |243| 
    6345 000009ba 2DA9          MOV       T,AL                  ; |243| 
    6346 000009bb 9D03          ADDB      AH,#3                 ; |243| 
    6347 000009bc 12A8          MPY       ACC,T,AH              ; |243| 
    6348 000009bd 0EA9          MOVU      ACC,AL
TMS320C2000 COFF Assembler PC v4.1.3 Thu Nov 29 16:03:34 2012

Tools Copyright (c) 1996-2006 Texas Instruments Incorporated
C:\DOCUME~1\ADMINI~1\LOCALS~1\Temp\TI9882                            PAGE  123

    6349 000009be 7640!         LCR       #_app_malloc          ; |243| 
         000009bf 0000 
    6350                      ; call occurs [#_app_malloc] ; |243| 
    6351 000009c0 A846          MOVL      *-SP[6],XAR4          ; |243| 
    6352                      .dwpsn  "WIDGET\Gui_widget_droplist.c",245,2
    6353 000009c1 0646          MOVL      ACC,*-SP[6]           ; |245| 
    6354 000009c2 EC68          BF        L96,EQ                ; |245| 
    6355                      ; branchcc occurs ; |245| 
    6356                      .dwpsn  "WIDGET\Gui_widget_droplist.c",255,3
    6357 000009c3 8344          MOVL      XAR5,*-SP[4]          ; |255| 
    6358 000009c4 8A44          MOVL      XAR4,*-SP[4]          ; |255| 
    6359 000009c5 92E5          MOV       AL,*+XAR5[4]          ; |255| 
    6360 000009c6 94D4          ADD       AL,*+XAR4[2]          ; |255| 
    6361 000009c7 8A44          MOVL      XAR4,*-SP[4]          ; |255| 
    6362 000009c8 88A9          MOVZ      AR6,AL                ; |255| 
    6363 000009c9 D01B          MOVB      XAR0,#27              ; |255| 
    6364 000009ca 5603          MOV       ACC,*+XAR4[AR0] << #4 ; |255| 
         000009cb 0494 
    6365 000009cc 94A6          ADD       AL,AR6                ; |255| 
    6366 000009cd 9C04          ADDB      AL,#4                 ; |255| 
    6367 000009ce 9641          MOV       *-SP[1],AL            ; |255| 
    6368 000009cf 8A44          MOVL      XAR4,*-SP[4]          ; |255| 
    6369 000009d0 8344          MOVL      XAR5,*-SP[4]          ; |255| 
    6370 000009d1 92CC          MOV       AL,*+XAR4[1]          ; |255| 
    6371 000009d2 8A44          MOVL      XAR4,*-SP[4]          ; |255| 
    6372 000009d3 93E5          MOV       AH,*+XAR5[4]          ; |255| 
    6373 000009d4 95D4          ADD       AH,*+XAR4[2]          ; |255| 
    6374 000009d5 8344          MOVL      XAR5,*-SP[4]          ; |255| 
    6375 000009d6 8A44          MOVL      XAR4,*-SP[4]          ; |255| 
    6376 000009d7 9CFF          ADDB      AL,#-1
    6377 000009d8 88A9          MOVZ      AR6,AL                ; |255| 
    6378 000009d9 92DD          MOV       AL,*+XAR5[3]          ; |255| 
    6379 000009da 94CC          ADD       AL,*+XAR4[1]          ; |255| 
    6380 000009db 9C01          ADDB      AL,#1                 ; |255| 
    6381 000009dc 5DA9          MOVZ      AR5,AL                ; |255| 
    6382 000009dd 8A46          MOVL      XAR4,*-SP[6]          ; |255| 
    6383 000009de 92A6          MOV       AL,AR6                ; |255| 
    6384 000009df 7640!         LCR       #_GUI_read_block      ; |255| 
         000009e0 0000 
    6385                      ; call occurs [#_GUI_read_block] ; |255| 
    6386                      .dwpsn  "WIDGET\Gui_widget_droplist.c",261,3
    6387 000009e1 8A44          MOVL      XAR4,*-SP[4]          ; |261| 
    6388 000009e2 D01B          MOVB      XAR0,#27              ; |261| 
    6389 000009e3 5603          MOV       ACC,*+XAR4[AR0] << #4 ; |261| 
         000009e4 0494 
    6390 000009e5 9C02          ADDB      AL,#2                 ; |261| 
    6391 000009e6 9641          MOV       *-SP[1],AL            ; |261| 
    6392 000009e7 8A44          MOVL      XAR4,*-SP[4]          ; |261| 
    6393 000009e8 8344          MOVL      XAR5,*-SP[4]          ; |261| 
    6394 000009e9 92CC          MOV       AL,*+XAR4[1]          ; |261| 
    6395 000009ea 8A44          MOVL      XAR4,*-SP[4]          ; |261| 
    6396 000009eb 93E5          MOV       AH,*+XAR5[4]          ; |261| 
    6397 000009ec 95D4          ADD       AH,*+XAR4[2]          ; |261| 
    6398 000009ed 8A44          MOVL      XAR4,*-SP[4]          ; |261| 
    6399 000009ee 5DDC          MOVZ      AR5,*+XAR4[3]         ; |261| 
TMS320C2000 COFF Assembler PC v4.1.3 Thu Nov 29 16:03:34 2012

Tools Copyright (c) 1996-2006 Texas Instruments Incorporated
C:\DOCUME~1\ADMINI~1\LOCALS~1\Temp\TI9882                            PAGE  124

    6400 000009ef 8A44          MOVL      XAR4,*-SP[4]          ; |261| 
    6401 000009f0 9D01          ADDB      AH,#1                 ; |261| 
    6402 000009f1 7640'         LCR       #_GUI_drop_list_unfold_display ; |261| 
         000009f2 07BE 
    6403                      ; call occurs [#_GUI_drop_list_unfold_display] ; |261| 
    6404                      .dwpsn  "WIDGET\Gui_widget_droplist.c",266,3
    6405 000009f3 9AFF          MOVB      AL,#255               ; |266| 
    6406 000009f4 7640!         LCR       #_GUI_set_Bgcolor     ; |266| 
         000009f5 0000 
    6407                      ; call occurs [#_GUI_set_Bgcolor] ; |266| 
    6408                      .dwpsn  "WIDGET\Gui_widget_droplist.c",267,3
    6409 000009f6 7640!         LCR       #_GUI_clean_window    ; |267| 
         000009f7 0000 
    6410                      ; call occurs [#_GUI_clean_window] ; |267| 
    6411                      .dwpsn  "WIDGET\Gui_widget_droplist.c",268,3
    6412 000009f8 9A00          MOVB      AL,#0
    6413 000009f9 7640!         LCR       #_GUI_set_Fgcolor     ; |268| 
         000009fa 0000 
    6414                      ; call occurs [#_GUI_set_Fgcolor] ; |268| 
    6415                      .dwpsn  "WIDGET\Gui_widget_droplist.c",269,3
    6416 000009fb 8A44          MOVL      XAR4,*-SP[4]          ; |269| 
    6417 000009fc D01A          MOVB      XAR0,#26              ; |269| 
    6418 000009fd 0E94          MOVU      ACC,*+XAR4[AR0]
    6419 000009fe 8A44          MOVL      XAR4,*-SP[4]          ; |269| 
    6420 000009ff D018          MOVB      XAR0,#24              ; |269| 
    6421 00000a00 8A94          MOVL      XAR4,*+XAR4[AR0]      ; |269| 
    6422 00000a01 FF30          LSL       ACC,1                 ; |269| 
    6423 00000a02 5601          ADDL      XAR4,ACC
         00000a03 00A4 
    6424 00000a04 8AC4          MOVL      XAR4,*+XAR4[0]        ; |269| 
    6425 00000a05 0200          MOVB      ACC,#0
    6426 00000a06 7640!         LCR       #_GUI_string_display_At ; |269| 
         00000a07 0000 
    6427                      ; call occurs [#_GUI_string_display_At] ; |269| 
    6428                      .dwpsn  "WIDGET\Gui_widget_droplist.c",277,3
    6429 00000a08 8344          MOVL      XAR5,*-SP[4]          ; |277| 
    6430 00000a09 8A44          MOVL      XAR4,*-SP[4]          ; |277| 
    6431 00000a0a 92E5          MOV       AL,*+XAR5[4]          ; |277| 
    6432 00000a0b 94D4          ADD       AL,*+XAR4[2]          ; |277| 
    6433 00000a0c 8A44          MOVL      XAR4,*-SP[4]          ; |277| 
    6434 00000a0d 88A9          MOVZ      AR6,AL                ; |277| 
    6435 00000a0e D01B          MOVB      XAR0,#27              ; |277| 
    6436 00000a0f 5603          MOV       ACC,*+XAR4[AR0] << #4 ; |277| 
         00000a10 0494 
    6437 00000a11 94A6          ADD       AL,AR6                ; |277| 
    6438 00000a12 9C04          ADDB      AL,#4                 ; |277| 
    6439 00000a13 9641          MOV       *-SP[1],AL            ; |277| 
    6440 00000a14 2B42          MOV       *-SP[2],#0            ; |277| 
    6441 00000a15 8A44          MOVL      XAR4,*-SP[4]          ; |277| 
    6442 00000a16 8344          MOVL      XAR5,*-SP[4]          ; |277| 
    6443 00000a17 92CC          MOV       AL,*+XAR4[1]          ; |277| 
    6444 00000a18 8A44          MOVL      XAR4,*-SP[4]          ; |277| 
    6445 00000a19 93E5          MOV       AH,*+XAR5[4]          ; |277| 
    6446 00000a1a 95D4          ADD       AH,*+XAR4[2]          ; |277| 
    6447 00000a1b 8344          MOVL      XAR5,*-SP[4]          ; |277| 
TMS320C2000 COFF Assembler PC v4.1.3 Thu Nov 29 16:03:34 2012

Tools Copyright (c) 1996-2006 Texas Instruments Incorporated
C:\DOCUME~1\ADMINI~1\LOCALS~1\Temp\TI9882                            PAGE  125

    6448 00000a1c 8A44          MOVL      XAR4,*-SP[4]          ; |277| 
    6449 00000a1d 9CFF          ADDB      AL,#-1
    6450 00000a1e 88A9          MOVZ      AR6,AL                ; |277| 
    6451 00000a1f 92DD          MOV       AL,*+XAR5[3]          ; |277| 
    6452 00000a20 94CC          ADD       AL,*+XAR4[1]          ; |277| 
    6453 00000a21 9C01          ADDB      AL,#1                 ; |277| 
    6454 00000a22 5DA9          MOVZ      AR5,AL                ; |277| 
    6455 00000a23 8A46          MOVL      XAR4,*-SP[6]          ; |277| 
    6456 00000a24 92A6          MOV       AL,AR6                ; |277| 
    6457 00000a25 7640!         LCR       #_GUI_write_block     ; |277| 
         00000a26 0000 
    6458                      ; call occurs [#_GUI_write_block] ; |277| 
    6459                      .dwpsn  "WIDGET\Gui_widget_droplist.c",286,3
    6460 00000a27 8A46          MOVL      XAR4,*-SP[6]          ; |286| 
    6461 00000a28 7640!         LCR       #_app_free            ; |286| 
         00000a29 0000 
    6462                      ; call occurs [#_app_free] ; |286| 
    6463              L96:    
    6464                      .dwpsn  "WIDGET\Gui_widget_droplist.c",289,2
    6465 00000a2a 8A44          MOVL      XAR4,*-SP[4]          ; |289| 
    6466 00000a2b 7640!         LCR       #_GUI_window_hwin_release ; |289| 
         00000a2c 0000 
    6467                      ; call occurs [#_GUI_window_hwin_release] ; |289| 
    6468                      .dwpsn  "WIDGET\Gui_widget_droplist.c",290,2
    6469 00000a2d 8A44          MOVL      XAR4,*-SP[4]          ; |290| 
    6470 00000a2e D016          MOVB      XAR0,#22              ; |290| 
    6471 00000a2f 2B94          MOV       *+XAR4[AR0],#0        ; |290| 
    6472                      .dwpsn  "WIDGET\Gui_widget_droplist.c",291,2
    6473 00000a30 8A44          MOVL      XAR4,*-SP[4]          ; |291| 
    6474 00000a31 D01A          MOVB      XAR0,#26              ; |291| 
    6475 00000a32 9294          MOV       AL,*+XAR4[AR0]        ; |291| 
    6476              L97:    
    6477                      .dwpsn  "WIDGET\Gui_widget_droplist.c",292,1
    6478 00000a33 FE86          SUBB      SP,#6                 ; |291| 
    6479                      .dwcfa  0x1d, -2
    6480 00000a34 0006          LRETR
    6481                      ; return occurs
    6482                      .dwattr DW$560, DW_AT_end_file("WIDGET\Gui_widget_droplist.c")
    6483                      .dwattr DW$560, DW_AT_end_line(0x124)
    6484                      .dwattr DW$560, DW_AT_end_column(0x01)
    6485                      .dwendentry
    6486                      .dwendtag DW$560
    6487              
    6488 00000a35               .sect   ".text"
    6489                      .global _GUI_drop_list_member_assign
    6490              
    6491              DW$564  .dwtag  DW_TAG_subprogram, DW_AT_name("GUI_drop_list_member_assign"), DW_AT_symbol_name("_GUI_drop_li
    6492                      .dwattr DW$564, DW_AT_low_pc(_GUI_drop_list_member_assign)
    6493                      .dwattr DW$564, DW_AT_high_pc(0x00)
    6494                      .dwattr DW$564, DW_AT_begin_file("WIDGET\Gui_widget_droplist.c")
    6495                      .dwattr DW$564, DW_AT_begin_line(0x127)
    6496                      .dwattr DW$564, DW_AT_begin_column(0x07)
    6497                      .dwpsn  "WIDGET\Gui_widget_droplist.c",296,1
    6498              
    6499                      .dwfde DW$CIE
TMS320C2000 COFF Assembler PC v4.1.3 Thu Nov 29 16:03:34 2012

Tools Copyright (c) 1996-2006 Texas Instruments Incorporated
C:\DOCUME~1\ADMINI~1\LOCALS~1\Temp\TI9882                            PAGE  126

    6500              
    6501              ;***************************************************************
    6502              ;* FNAME: _GUI_drop_list_member_assign  FR SIZE:   4           *
    6503              ;*                                                             *
    6504              ;* FUNCTION ENVIRONMENT                                        *
    6505              ;*                                                             *
    6506              ;* FUNCTION PROPERTIES                                         *
    6507              ;*                            0 Parameter,  3 Auto,  0 SOE     *
    6508              ;***************************************************************
    6509              
    6510              _GUI_drop_list_member_assign:
    6511                      .dwcfa  0x1d, -2
    6512                      .dwcfa  0x1c, 26, 0
    6513                      .dwcfa  0x09, 40, 26
    6514 00000a35 FE04          ADDB      SP,#4
    6515                      .dwcfa  0x1d, -6
    6516              ;* AR4   assigned to _hp
    6517              DW$565  .dwtag  DW_TAG_formal_parameter, DW_AT_name("hp"), DW_AT_symbol_name("_hp")
    6518                      .dwattr DW$565, DW_AT_type(*DW$T$54)
    6519                      .dwattr DW$565, DW_AT_location[DW_OP_reg12]
    6520              ;* AL    assigned to _offset
    6521              DW$566  .dwtag  DW_TAG_formal_parameter, DW_AT_name("offset"), DW_AT_symbol_name("_offset")
    6522                      .dwattr DW$566, DW_AT_type(*DW$T$27)
    6523                      .dwattr DW$566, DW_AT_location[DW_OP_reg0]
    6524              DW$567  .dwtag  DW_TAG_variable, DW_AT_name("hp"), DW_AT_symbol_name("_hp")
    6525                      .dwattr DW$567, DW_AT_type(*DW$T$54)
    6526                      .dwattr DW$567, DW_AT_location[DW_OP_breg20 -2]
    6527              DW$568  .dwtag  DW_TAG_variable, DW_AT_name("offset"), DW_AT_symbol_name("_offset")
    6528                      .dwattr DW$568, DW_AT_type(*DW$T$27)
    6529                      .dwattr DW$568, DW_AT_location[DW_OP_breg20 -3]
    6530 00000a36 9643          MOV       *-SP[3],AL            ; |296| 
    6531 00000a37 A842          MOVL      *-SP[2],XAR4          ; |296| 
    6532                      .dwpsn  "WIDGET\Gui_widget_droplist.c",297,2
    6533 00000a38 8A42          MOVL      XAR4,*-SP[2]          ; |297| 
    6534 00000a39 7640!         LCR       #_GUI_window_hwin_req ; |297| 
         00000a3a 0000 
    6535                      ; call occurs [#_GUI_window_hwin_req] ; |297| 
    6536                      .dwpsn  "WIDGET\Gui_widget_droplist.c",298,2
    6537 00000a3b 9AFF          MOVB      AL,#255               ; |298| 
    6538 00000a3c 7640!         LCR       #_GUI_set_Bgcolor     ; |298| 
         00000a3d 0000 
    6539                      ; call occurs [#_GUI_set_Bgcolor] ; |298| 
    6540                      .dwpsn  "WIDGET\Gui_widget_droplist.c",299,2
    6541 00000a3e 7640!         LCR       #_GUI_clean_window    ; |299| 
         00000a3f 0000 
    6542                      ; call occurs [#_GUI_clean_window] ; |299| 
    6543                      .dwpsn  "WIDGET\Gui_widget_droplist.c",300,2
    6544 00000a40 9A00          MOVB      AL,#0
    6545 00000a41 7640!         LCR       #_GUI_set_Fgcolor     ; |300| 
         00000a42 0000 
    6546                      ; call occurs [#_GUI_set_Fgcolor] ; |300| 
    6547                      .dwpsn  "WIDGET\Gui_widget_droplist.c",301,2
    6548 00000a43 8A42          MOVL      XAR4,*-SP[2]          ; |301| 
    6549 00000a44 D01A          MOVB      XAR0,#26              ; |301| 
    6550 00000a45 9243          MOV       AL,*-SP[3]            ; |301| 
TMS320C2000 COFF Assembler PC v4.1.3 Thu Nov 29 16:03:34 2012

Tools Copyright (c) 1996-2006 Texas Instruments Incorporated
C:\DOCUME~1\ADMINI~1\LOCALS~1\Temp\TI9882                            PAGE  127

    6551 00000a46 9694          MOV       *+XAR4[AR0],AL        ; |301| 
    6552                      .dwpsn  "WIDGET\Gui_widget_droplist.c",302,2
    6553 00000a47 8A42          MOVL      XAR4,*-SP[2]          ; |302| 
    6554 00000a48 0E94          MOVU      ACC,*+XAR4[AR0]
    6555 00000a49 8A42          MOVL      XAR4,*-SP[2]          ; |302| 
    6556 00000a4a D018          MOVB      XAR0,#24              ; |302| 
    6557 00000a4b 8A94          MOVL      XAR4,*+XAR4[AR0]      ; |302| 
    6558 00000a4c FF30          LSL       ACC,1                 ; |302| 
    6559 00000a4d 5601          ADDL      XAR4,ACC
         00000a4e 00A4 
    6560 00000a4f 8AC4          MOVL      XAR4,*+XAR4[0]        ; |302| 
    6561 00000a50 0200          MOVB      ACC,#0
    6562 00000a51 7640!         LCR       #_GUI_string_display_At ; |302| 
         00000a52 0000 
    6563                      ; call occurs [#_GUI_string_display_At] ; |302| 
    6564                      .dwpsn  "WIDGET\Gui_widget_droplist.c",303,2
    6565 00000a53 8A42          MOVL      XAR4,*-SP[2]          ; |303| 
    6566 00000a54 7640!         LCR       #_GUI_window_hwin_release ; |303| 
         00000a55 0000 
    6567                      ; call occurs [#_GUI_window_hwin_release] ; |303| 
    6568                      .dwpsn  "WIDGET\Gui_widget_droplist.c",304,2
    6569                      .dwpsn  "WIDGET\Gui_widget_droplist.c",305,1
    6570 00000a56 FE84          SUBB      SP,#4
    6571                      .dwcfa  0x1d, -2
    6572 00000a57 0006          LRETR
    6573                      ; return occurs
    6574                      .dwattr DW$564, DW_AT_end_file("WIDGET\Gui_widget_droplist.c")
    6575                      .dwattr DW$564, DW_AT_end_line(0x131)
    6576                      .dwattr DW$564, DW_AT_end_column(0x01)
    6577                      .dwendentry
    6578                      .dwendtag DW$564
    6579              
    6580 00000a58               .sect   ".text"
    6581                      .global _GUI_edit_member_set_color
    6582              
    6583              DW$569  .dwtag  DW_TAG_subprogram, DW_AT_name("GUI_edit_member_set_color"), DW_AT_symbol_name("_GUI_edit_memb
    6584                      .dwattr DW$569, DW_AT_low_pc(_GUI_edit_member_set_color)
    6585                      .dwattr DW$569, DW_AT_high_pc(0x00)
    6586                      .dwattr DW$569, DW_AT_begin_file("WIDGET\GUI_widget_edit.c")
    6587                      .dwattr DW$569, DW_AT_begin_line(0x12)
    6588                      .dwattr DW$569, DW_AT_begin_column(0x06)
    6589                      .dwpsn  "WIDGET\GUI_widget_edit.c",19,1
    6590              
    6591                      .dwfde DW$CIE
    6592              
    6593              ;***************************************************************
    6594              ;* FNAME: _GUI_edit_member_set_color    FR SIZE:   2           *
    6595              ;*                                                             *
    6596              ;* FUNCTION ENVIRONMENT                                        *
    6597              ;*                                                             *
    6598              ;* FUNCTION PROPERTIES                                         *
    6599              ;*                            0 Parameter,  2 Auto,  0 SOE     *
    6600              ;***************************************************************
    6601              
    6602              _GUI_edit_member_set_color:
TMS320C2000 COFF Assembler PC v4.1.3 Thu Nov 29 16:03:34 2012

Tools Copyright (c) 1996-2006 Texas Instruments Incorporated
C:\DOCUME~1\ADMINI~1\LOCALS~1\Temp\TI9882                            PAGE  128

    6603                      .dwcfa  0x1d, -2
    6604                      .dwcfa  0x1c, 26, 0
    6605                      .dwcfa  0x09, 40, 26
    6606 00000a58 FE02          ADDB      SP,#2
    6607                      .dwcfa  0x1d, -4
    6608              ;* AL    assigned to _Fgcor
    6609              DW$570  .dwtag  DW_TAG_formal_parameter, DW_AT_name("Fgcor"), DW_AT_symbol_name("_Fgcor")
    6610                      .dwattr DW$570, DW_AT_type(*DW$T$11)
    6611                      .dwattr DW$570, DW_AT_location[DW_OP_reg0]
    6612              ;* AH    assigned to _Bgcor
    6613              DW$571  .dwtag  DW_TAG_formal_parameter, DW_AT_name("Bgcor"), DW_AT_symbol_name("_Bgcor")
    6614                      .dwattr DW$571, DW_AT_type(*DW$T$11)
    6615                      .dwattr DW$571, DW_AT_location[DW_OP_reg1]
    6616              DW$572  .dwtag  DW_TAG_variable, DW_AT_name("Fgcor"), DW_AT_symbol_name("_Fgcor")
    6617                      .dwattr DW$572, DW_AT_type(*DW$T$11)
    6618                      .dwattr DW$572, DW_AT_location[DW_OP_breg20 -1]
    6619              DW$573  .dwtag  DW_TAG_variable, DW_AT_name("Bgcor"), DW_AT_symbol_name("_Bgcor")
    6620                      .dwattr DW$573, DW_AT_type(*DW$T$11)
    6621                      .dwattr DW$573, DW_AT_location[DW_OP_breg20 -2]
    6622 00000a59 9742          MOV       *-SP[2],AH            ; |19| 
    6623 00000a5a 9641          MOV       *-SP[1],AL            ; |19| 
    6624                      .dwpsn  "WIDGET\GUI_widget_edit.c",20,5
    6625 00000a5b 761F-         MOVW      DP,#_m_edit_member_Fgcor
         00000a5c 0000 
    6626 00000a5d 9602-         MOV       @_m_edit_member_Fgcor,AL ; |20| 
    6627                      .dwpsn  "WIDGET\GUI_widget_edit.c",21,2
    6628 00000a5e 9242          MOV       AL,*-SP[2]            ; |21| 
    6629 00000a5f 9609-         MOV       @_m_edit_member_Bgcor,AL ; |21| 
    6630                      .dwpsn  "WIDGET\GUI_widget_edit.c",22,2
    6631                      .dwpsn  "WIDGET\GUI_widget_edit.c",23,1
    6632 00000a60 FE82          SUBB      SP,#2
    6633                      .dwcfa  0x1d, -2
    6634 00000a61 0006          LRETR
    6635                      ; return occurs
    6636                      .dwattr DW$569, DW_AT_end_file("WIDGET\GUI_widget_edit.c")
    6637                      .dwattr DW$569, DW_AT_end_line(0x17)
    6638                      .dwattr DW$569, DW_AT_end_column(0x01)
    6639                      .dwendentry
    6640                      .dwendtag DW$569
    6641              
    6642 00000a62               .sect   ".text"
    6643                      .global _GUI_edit_mem_req
    6644              
    6645              DW$574  .dwtag  DW_TAG_subprogram, DW_AT_name("GUI_edit_mem_req"), DW_AT_symbol_name("_GUI_edit_mem_req")
    6646                      .dwattr DW$574, DW_AT_low_pc(_GUI_edit_mem_req)
    6647                      .dwattr DW$574, DW_AT_high_pc(0x00)
    6648                      .dwattr DW$574, DW_AT_begin_file("WIDGET\GUI_widget_edit.c")
    6649                      .dwattr DW$574, DW_AT_begin_line(0x20)
    6650                      .dwattr DW$574, DW_AT_begin_column(0x0d)
    6651                      .dwpsn  "WIDGET\GUI_widget_edit.c",33,1
    6652              
    6653                      .dwfde DW$CIE
    6654              
    6655              ;***************************************************************
    6656              ;* FNAME: _GUI_edit_mem_req             FR SIZE:   2           *
TMS320C2000 COFF Assembler PC v4.1.3 Thu Nov 29 16:03:34 2012

Tools Copyright (c) 1996-2006 Texas Instruments Incorporated
C:\DOCUME~1\ADMINI~1\LOCALS~1\Temp\TI9882                            PAGE  129

    6657              ;*                                                             *
    6658              ;* FUNCTION ENVIRONMENT                                        *
    6659              ;*                                                             *
    6660              ;* FUNCTION PROPERTIES                                         *
    6661              ;*                            0 Parameter,  2 Auto,  0 SOE     *
    6662              ;***************************************************************
    6663              
    6664              _GUI_edit_mem_req:
    6665                      .dwcfa  0x1d, -2
    6666                      .dwcfa  0x1c, 26, 0
    6667                      .dwcfa  0x09, 40, 26
    6668 00000a62 FE02          ADDB      SP,#2
    6669                      .dwcfa  0x1d, -4
    6670              DW$575  .dwtag  DW_TAG_variable, DW_AT_name("pret"), DW_AT_symbol_name("_pret")
    6671                      .dwattr DW$575, DW_AT_type(*DW$T$35)
    6672                      .dwattr DW$575, DW_AT_location[DW_OP_breg20 -2]
    6673                      .dwpsn  "WIDGET\GUI_widget_edit.c",35,5
    6674 00000a63 020C          MOVB      ACC,#12
    6675 00000a64 7640!         LCR       #_GUI_malloc          ; |35| 
         00000a65 0000 
    6676                      ; call occurs [#_GUI_malloc] ; |35| 
    6677 00000a66 A842          MOVL      *-SP[2],XAR4          ; |35| 
    6678                      .dwpsn  "WIDGET\GUI_widget_edit.c",36,2
    6679 00000a67 8A42          MOVL      XAR4,*-SP[2]          ; |36| 
    6680                      .dwpsn  "WIDGET\GUI_widget_edit.c",37,1
    6681 00000a68 FE82          SUBB      SP,#2                 ; |36| 
    6682                      .dwcfa  0x1d, -2
    6683 00000a69 0006          LRETR
    6684                      ; return occurs
    6685                      .dwattr DW$574, DW_AT_end_file("WIDGET\GUI_widget_edit.c")
    6686                      .dwattr DW$574, DW_AT_end_line(0x25)
    6687                      .dwattr DW$574, DW_AT_end_column(0x01)
    6688                      .dwendentry
    6689                      .dwendtag DW$574
    6690              
    6691 00000a6a               .sect   ".text"
    6692                      .global _GUI_edit_allmember_release
    6693              
    6694              DW$576  .dwtag  DW_TAG_subprogram, DW_AT_name("GUI_edit_allmember_release"), DW_AT_symbol_name("_GUI_edit_all
    6695                      .dwattr DW$576, DW_AT_low_pc(_GUI_edit_allmember_release)
    6696                      .dwattr DW$576, DW_AT_high_pc(0x00)
    6697                      .dwattr DW$576, DW_AT_begin_file("WIDGET\GUI_widget_edit.c")
    6698                      .dwattr DW$576, DW_AT_begin_line(0x2e)
    6699                      .dwattr DW$576, DW_AT_begin_column(0x06)
    6700                      .dwpsn  "WIDGET\GUI_widget_edit.c",47,1
    6701              
    6702                      .dwfde DW$CIE
    6703              
    6704              ;***************************************************************
    6705              ;* FNAME: _GUI_edit_allmember_release   FR SIZE:   4           *
    6706              ;*                                                             *
    6707              ;* FUNCTION ENVIRONMENT                                        *
    6708              ;*                                                             *
    6709              ;* FUNCTION PROPERTIES                                         *
    6710              ;*                            0 Parameter,  4 Auto,  0 SOE     *
TMS320C2000 COFF Assembler PC v4.1.3 Thu Nov 29 16:03:34 2012

Tools Copyright (c) 1996-2006 Texas Instruments Incorporated
C:\DOCUME~1\ADMINI~1\LOCALS~1\Temp\TI9882                            PAGE  130

    6711              ;***************************************************************
    6712              
    6713              _GUI_edit_allmember_release:
    6714                      .dwcfa  0x1d, -2
    6715                      .dwcfa  0x1c, 26, 0
    6716                      .dwcfa  0x09, 40, 26
    6717 00000a6a FE04          ADDB      SP,#4
    6718                      .dwcfa  0x1d, -6
    6719              ;* AR4   assigned to _hp
    6720              DW$577  .dwtag  DW_TAG_formal_parameter, DW_AT_name("hp"), DW_AT_symbol_name("_hp")
    6721                      .dwattr DW$577, DW_AT_type(*DW$T$54)
    6722                      .dwattr DW$577, DW_AT_location[DW_OP_reg12]
    6723              DW$578  .dwtag  DW_TAG_variable, DW_AT_name("hp"), DW_AT_symbol_name("_hp")
    6724                      .dwattr DW$578, DW_AT_type(*DW$T$54)
    6725                      .dwattr DW$578, DW_AT_location[DW_OP_breg20 -2]
    6726              DW$579  .dwtag  DW_TAG_variable, DW_AT_name("pedit"), DW_AT_symbol_name("_pedit")
    6727                      .dwattr DW$579, DW_AT_type(*DW$T$35)
    6728                      .dwattr DW$579, DW_AT_location[DW_OP_breg20 -4]
    6729 00000a6b A842          MOVL      *-SP[2],XAR4          ; |47| 
    6730                      .dwpsn  "WIDGET\GUI_widget_edit.c",49,2
    6731 00000a6c 761F-         MOVW      DP,#_m_edit_lock
         00000a6d 0000 
    6732 00000a6e 8A14-         MOVL      XAR4,@_m_edit_lock    ; |49| 
    6733 00000a6f 7640!         LCR       #_os_lock             ; |49| 
         00000a70 0000 
    6734                      ; call occurs [#_os_lock] ; |49| 
    6735                      .dwpsn  "WIDGET\GUI_widget_edit.c",50,2
    6736 00000a71 6F0F          B         L99,UNC               ; |50| 
    6737                      ; branch occurs ; |50| 
    6738              L98:    
    6739              DW$L$_GUI_edit_allmember_release$2$B:
    6740                      .dwpsn  "WIDGET\GUI_widget_edit.c",52,3
    6741 00000a72 8A42          MOVL      XAR4,*-SP[2]          ; |52| 
    6742 00000a73 8A94          MOVL      XAR4,*+XAR4[AR0]      ; |52| 
    6743 00000a74 D00A          MOVB      XAR0,#10              ; |52| 
    6744 00000a75 0694          MOVL      ACC,*+XAR4[AR0]       ; |52| 
    6745 00000a76 1E44          MOVL      *-SP[4],ACC           ; |52| 
    6746                      .dwpsn  "WIDGET\GUI_widget_edit.c",53,9
    6747 00000a77 8A42          MOVL      XAR4,*-SP[2]          ; |53| 
    6748 00000a78 D012          MOVB      XAR0,#18              ; |53| 
    6749 00000a79 8A94          MOVL      XAR4,*+XAR4[AR0]      ; |53| 
    6750 00000a7a 7640!         LCR       #_GUI_free            ; |53| 
         00000a7b 0000 
    6751                      ; call occurs [#_GUI_free] ; |53| 
    6752                      .dwpsn  "WIDGET\GUI_widget_edit.c",54,3
    6753 00000a7c 8A42          MOVL      XAR4,*-SP[2]          ; |54| 
    6754 00000a7d D012          MOVB      XAR0,#18              ; |54| 
    6755 00000a7e 0644          MOVL      ACC,*-SP[4]           ; |54| 
    6756 00000a7f 1E94          MOVL      *+XAR4[AR0],ACC       ; |54| 
    6757              DW$L$_GUI_edit_allmember_release$2$E:
    6758              L99:    
    6759              DW$L$_GUI_edit_allmember_release$3$B:
    6760                      .dwpsn  "WIDGET\GUI_widget_edit.c",55,2
    6761 00000a80 8A42          MOVL      XAR4,*-SP[2]          ; |55| 
    6762 00000a81 D012          MOVB      XAR0,#18              ; |55| 
TMS320C2000 COFF Assembler PC v4.1.3 Thu Nov 29 16:03:34 2012

Tools Copyright (c) 1996-2006 Texas Instruments Incorporated
C:\DOCUME~1\ADMINI~1\LOCALS~1\Temp\TI9882                            PAGE  131

    6763 00000a82 0694          MOVL      ACC,*+XAR4[AR0]       ; |55| 
    6764 00000a83 EDEF          BF        L98,NEQ               ; |55| 
    6765                      ; branchcc occurs ; |55| 
    6766              DW$L$_GUI_edit_allmember_release$3$E:
    6767                      .dwpsn  "WIDGET\GUI_widget_edit.c",56,2
    6768 00000a84 761F-         MOVW      DP,#_m_edit_lock
         00000a85 0000 
    6769 00000a86 8A14-         MOVL      XAR4,@_m_edit_lock    ; |56| 
    6770 00000a87 7640!         LCR       #_os_unlock           ; |56| 
         00000a88 0000 
    6771                      ; call occurs [#_os_unlock] ; |56| 
    6772                      .dwpsn  "WIDGET\GUI_widget_edit.c",57,2
    6773                      .dwpsn  "WIDGET\GUI_widget_edit.c",58,1
    6774 00000a89 FE84          SUBB      SP,#4
    6775                      .dwcfa  0x1d, -2
    6776 00000a8a 0006          LRETR
    6777                      ; return occurs
    6778              
    6779              DW$580  .dwtag  DW_TAG_loop
    6780                      .dwattr DW$580, DW_AT_name("C:\DOCUME~1\ADMINI~1\LOCALS~1\Temp\TI9882:L99:1:1354176212")
    6781                      .dwattr DW$580, DW_AT_begin_file("WIDGET\GUI_widget_edit.c")
    6782                      .dwattr DW$580, DW_AT_begin_line(0x32)
    6783                      .dwattr DW$580, DW_AT_end_line(0x37)
    6784              DW$581  .dwtag  DW_TAG_loop_range
    6785                      .dwattr DW$581, DW_AT_low_pc(DW$L$_GUI_edit_allmember_release$3$B)
    6786                      .dwattr DW$581, DW_AT_high_pc(DW$L$_GUI_edit_allmember_release$3$E)
    6787              DW$582  .dwtag  DW_TAG_loop_range
    6788                      .dwattr DW$582, DW_AT_low_pc(DW$L$_GUI_edit_allmember_release$2$B)
    6789                      .dwattr DW$582, DW_AT_high_pc(DW$L$_GUI_edit_allmember_release$2$E)
    6790                      .dwendtag DW$580
    6791              
    6792                      .dwattr DW$576, DW_AT_end_file("WIDGET\GUI_widget_edit.c")
    6793                      .dwattr DW$576, DW_AT_end_line(0x3a)
    6794                      .dwattr DW$576, DW_AT_end_column(0x01)
    6795                      .dwendentry
    6796                      .dwendtag DW$576
    6797              
    6798 00000a8b               .sect   ".text"
    6799                      .global _GUI_edit_creat
    6800              
    6801              DW$583  .dwtag  DW_TAG_subprogram, DW_AT_name("GUI_edit_creat"), DW_AT_symbol_name("_GUI_edit_creat")
    6802                      .dwattr DW$583, DW_AT_low_pc(_GUI_edit_creat)
    6803                      .dwattr DW$583, DW_AT_high_pc(0x00)
    6804                      .dwattr DW$583, DW_AT_begin_file("WIDGET\GUI_widget_edit.c")
    6805                      .dwattr DW$583, DW_AT_begin_line(0x45)
    6806                      .dwattr DW$583, DW_AT_begin_column(0x09)
    6807                      .dwpsn  "WIDGET\GUI_widget_edit.c",75,1
    6808              
    6809                      .dwfde DW$CIE
    6810              
    6811              ;***************************************************************
    6812              ;* FNAME: _GUI_edit_creat               FR SIZE:  10           *
    6813              ;*                                                             *
    6814              ;* FUNCTION ENVIRONMENT                                        *
    6815              ;*                                                             *
TMS320C2000 COFF Assembler PC v4.1.3 Thu Nov 29 16:03:34 2012

Tools Copyright (c) 1996-2006 Texas Instruments Incorporated
C:\DOCUME~1\ADMINI~1\LOCALS~1\Temp\TI9882                            PAGE  132

    6816              ;* FUNCTION PROPERTIES                                         *
    6817              ;*                            2 Parameter,  8 Auto,  0 SOE     *
    6818              ;***************************************************************
    6819              
    6820              _GUI_edit_creat:
    6821                      .dwcfa  0x1d, -2
    6822                      .dwcfa  0x1c, 26, 0
    6823                      .dwcfa  0x09, 40, 26
    6824 00000a8b FE0A          ADDB      SP,#10
    6825                      .dwcfa  0x1d, -12
    6826              ;* AL    assigned to _xcoord
    6827              DW$584  .dwtag  DW_TAG_formal_parameter, DW_AT_name("xcoord"), DW_AT_symbol_name("_xcoord")
    6828                      .dwattr DW$584, DW_AT_type(*DW$T$11)
    6829                      .dwattr DW$584, DW_AT_location[DW_OP_reg0]
    6830              ;* AH    assigned to _ycoord
    6831              DW$585  .dwtag  DW_TAG_formal_parameter, DW_AT_name("ycoord"), DW_AT_symbol_name("_ycoord")
    6832                      .dwattr DW$585, DW_AT_type(*DW$T$11)
    6833                      .dwattr DW$585, DW_AT_location[DW_OP_reg1]
    6834              ;* AR5   assigned to _wide
    6835              DW$586  .dwtag  DW_TAG_formal_parameter, DW_AT_name("wide"), DW_AT_symbol_name("_wide")
    6836                      .dwattr DW$586, DW_AT_type(*DW$T$27)
    6837                      .dwattr DW$586, DW_AT_location[DW_OP_reg14]
    6838              DW$587  .dwtag  DW_TAG_formal_parameter, DW_AT_name("high"), DW_AT_symbol_name("_high")
    6839                      .dwattr DW$587, DW_AT_type(*DW$T$27)
    6840                      .dwattr DW$587, DW_AT_location[DW_OP_breg20 -13]
    6841              DW$588  .dwtag  DW_TAG_formal_parameter, DW_AT_name("flags"), DW_AT_symbol_name("_flags")
    6842                      .dwattr DW$588, DW_AT_type(*DW$T$27)
    6843                      .dwattr DW$588, DW_AT_location[DW_OP_breg20 -14]
    6844              ;* AR4   assigned to _fatherhp
    6845              DW$589  .dwtag  DW_TAG_formal_parameter, DW_AT_name("fatherhp"), DW_AT_symbol_name("_fatherhp")
    6846                      .dwattr DW$589, DW_AT_type(*DW$T$54)
    6847                      .dwattr DW$589, DW_AT_location[DW_OP_reg12]
    6848              DW$590  .dwtag  DW_TAG_variable, DW_AT_name("xcoord"), DW_AT_symbol_name("_xcoord")
    6849                      .dwattr DW$590, DW_AT_type(*DW$T$11)
    6850                      .dwattr DW$590, DW_AT_location[DW_OP_breg20 -3]
    6851              DW$591  .dwtag  DW_TAG_variable, DW_AT_name("ycoord"), DW_AT_symbol_name("_ycoord")
    6852                      .dwattr DW$591, DW_AT_type(*DW$T$11)
    6853                      .dwattr DW$591, DW_AT_location[DW_OP_breg20 -4]
    6854              DW$592  .dwtag  DW_TAG_variable, DW_AT_name("wide"), DW_AT_symbol_name("_wide")
    6855                      .dwattr DW$592, DW_AT_type(*DW$T$27)
    6856                      .dwattr DW$592, DW_AT_location[DW_OP_breg20 -5]
    6857              DW$593  .dwtag  DW_TAG_variable, DW_AT_name("fatherhp"), DW_AT_symbol_name("_fatherhp")
    6858                      .dwattr DW$593, DW_AT_type(*DW$T$54)
    6859                      .dwattr DW$593, DW_AT_location[DW_OP_breg20 -8]
    6860              DW$594  .dwtag  DW_TAG_variable, DW_AT_name("hp"), DW_AT_symbol_name("_hp")
    6861                      .dwattr DW$594, DW_AT_type(*DW$T$54)
    6862                      .dwattr DW$594, DW_AT_location[DW_OP_breg20 -10]
    6863 00000a8c A848          MOVL      *-SP[8],XAR4          ; |75| 
    6864 00000a8d 7D45          MOV       *-SP[5],AR5           ; |75| 
    6865 00000a8e 9744          MOV       *-SP[4],AH            ; |75| 
    6866 00000a8f 9643          MOV       *-SP[3],AL            ; |75| 
    6867                      .dwpsn  "WIDGET\GUI_widget_edit.c",77,2
    6868 00000a90 924D          MOV       AL,*-SP[13]           ; |77| 
    6869 00000a91 9641          MOV       *-SP[1],AL            ; |77| 
    6870 00000a92 924E          MOV       AL,*-SP[14]           ; |77| 
TMS320C2000 COFF Assembler PC v4.1.3 Thu Nov 29 16:03:34 2012

Tools Copyright (c) 1996-2006 Texas Instruments Incorporated
C:\DOCUME~1\ADMINI~1\LOCALS~1\Temp\TI9882                            PAGE  133

    6871 00000a93 9642          MOV       *-SP[2],AL            ; |77| 
    6872 00000a94 5D45          MOVZ      AR5,*-SP[5]           ; |77| 
    6873 00000a95 8A48          MOVL      XAR4,*-SP[8]          ; |77| 
    6874 00000a96 9243          MOV       AL,*-SP[3]            ; |77| 
    6875 00000a97 9344          MOV       AH,*-SP[4]            ; |77| 
    6876 00000a98 7640!         LCR       #_GUI_window_child_creat ; |77| 
         00000a99 0000 
    6877                      ; call occurs [#_GUI_window_child_creat] ; |77| 
    6878 00000a9a A84A          MOVL      *-SP[10],XAR4         ; |77| 
    6879                      .dwpsn  "WIDGET\GUI_widget_edit.c",84,2
    6880 00000a9b 064A          MOVL      ACC,*-SP[10]          ; |84| 
    6881 00000a9c ED03          BF        L100,NEQ              ; |84| 
    6882                      ; branchcc occurs ; |84| 
    6883                      .dwpsn  "WIDGET\GUI_widget_edit.c",84,13
    6884 00000a9d D400          MOVB      XAR4,#0
    6885 00000a9e 6F06          B         L101,UNC              ; |84| 
    6886                      ; branch occurs ; |84| 
    6887              L100:    
    6888                      .dwpsn  "WIDGET\GUI_widget_edit.c",85,2
    6889 00000a9f 8A4A          MOVL      XAR4,*-SP[10]         ; |85| 
    6890 00000aa0 D008          MOVB      XAR0,#8               ; |85| 
    6891 00000aa1 2894          MOV       *+XAR4[AR0],#4        ; |85| 
         00000aa2 0004 
    6892                      .dwpsn  "WIDGET\GUI_widget_edit.c",86,2
    6893 00000aa3 8A4A          MOVL      XAR4,*-SP[10]         ; |86| 
    6894              L101:    
    6895                      .dwpsn  "WIDGET\GUI_widget_edit.c",87,1
    6896 00000aa4 FE8A          SUBB      SP,#10                ; |86| 
    6897                      .dwcfa  0x1d, -2
    6898 00000aa5 0006          LRETR
    6899                      ; return occurs
    6900                      .dwattr DW$583, DW_AT_end_file("WIDGET\GUI_widget_edit.c")
    6901                      .dwattr DW$583, DW_AT_end_line(0x57)
    6902                      .dwattr DW$583, DW_AT_end_column(0x01)
    6903                      .dwendentry
    6904                      .dwendtag DW$583
    6905              
    6906 00000aa6               .sect   ".text"
    6907                      .global _GUI_edit_memeber_add
    6908              
    6909              DW$595  .dwtag  DW_TAG_subprogram, DW_AT_name("GUI_edit_memeber_add"), DW_AT_symbol_name("_GUI_edit_memeber_a
    6910                      .dwattr DW$595, DW_AT_low_pc(_GUI_edit_memeber_add)
    6911                      .dwattr DW$595, DW_AT_high_pc(0x00)
    6912                      .dwattr DW$595, DW_AT_begin_file("WIDGET\GUI_widget_edit.c")
    6913                      .dwattr DW$595, DW_AT_begin_line(0x61)
    6914                      .dwattr DW$595, DW_AT_begin_column(0x06)
    6915                      .dwpsn  "WIDGET\GUI_widget_edit.c",104,1
    6916              
    6917                      .dwfde DW$CIE
    6918              
    6919              ;***************************************************************
    6920              ;* FNAME: _GUI_edit_memeber_add         FR SIZE:  10           *
    6921              ;*                                                             *
    6922              ;* FUNCTION ENVIRONMENT                                        *
    6923              ;*                                                             *
TMS320C2000 COFF Assembler PC v4.1.3 Thu Nov 29 16:03:34 2012

Tools Copyright (c) 1996-2006 Texas Instruments Incorporated
C:\DOCUME~1\ADMINI~1\LOCALS~1\Temp\TI9882                            PAGE  134

    6924              ;* FUNCTION PROPERTIES                                         *
    6925              ;*                            0 Parameter, 10 Auto,  0 SOE     *
    6926              ;***************************************************************
    6927              
    6928              _GUI_edit_memeber_add:
    6929                      .dwcfa  0x1d, -2
    6930                      .dwcfa  0x1c, 26, 0
    6931                      .dwcfa  0x09, 40, 26
    6932 00000aa6 FE0A          ADDB      SP,#10
    6933                      .dwcfa  0x1d, -12
    6934              ;* AL    assigned to _x
    6935              DW$596  .dwtag  DW_TAG_formal_parameter, DW_AT_name("x"), DW_AT_symbol_name("_x")
    6936                      .dwattr DW$596, DW_AT_type(*DW$T$11)
    6937                      .dwattr DW$596, DW_AT_location[DW_OP_reg0]
    6938              ;* AH    assigned to _y
    6939              DW$597  .dwtag  DW_TAG_formal_parameter, DW_AT_name("y"), DW_AT_symbol_name("_y")
    6940                      .dwattr DW$597, DW_AT_type(*DW$T$11)
    6941                      .dwattr DW$597, DW_AT_location[DW_OP_reg1]
    6942              ;* AR5   assigned to _lenth
    6943              DW$598  .dwtag  DW_TAG_formal_parameter, DW_AT_name("lenth"), DW_AT_symbol_name("_lenth")
    6944                      .dwattr DW$598, DW_AT_type(*DW$T$27)
    6945                      .dwattr DW$598, DW_AT_location[DW_OP_reg14]
    6946              ;* AR4   assigned to _title
    6947              DW$599  .dwtag  DW_TAG_formal_parameter, DW_AT_name("title"), DW_AT_symbol_name("_title")
    6948                      .dwattr DW$599, DW_AT_type(*DW$T$52)
    6949                      .dwattr DW$599, DW_AT_location[DW_OP_reg12]
    6950              DW$600  .dwtag  DW_TAG_formal_parameter, DW_AT_name("flags"), DW_AT_symbol_name("_flags")
    6951                      .dwattr DW$600, DW_AT_type(*DW$T$27)
    6952                      .dwattr DW$600, DW_AT_location[DW_OP_breg20 -13]
    6953              DW$601  .dwtag  DW_TAG_variable, DW_AT_name("x"), DW_AT_symbol_name("_x")
    6954                      .dwattr DW$601, DW_AT_type(*DW$T$11)
    6955                      .dwattr DW$601, DW_AT_location[DW_OP_breg20 -1]
    6956              DW$602  .dwtag  DW_TAG_variable, DW_AT_name("y"), DW_AT_symbol_name("_y")
    6957                      .dwattr DW$602, DW_AT_type(*DW$T$11)
    6958                      .dwattr DW$602, DW_AT_location[DW_OP_breg20 -2]
    6959              DW$603  .dwtag  DW_TAG_variable, DW_AT_name("lenth"), DW_AT_symbol_name("_lenth")
    6960                      .dwattr DW$603, DW_AT_type(*DW$T$27)
    6961                      .dwattr DW$603, DW_AT_location[DW_OP_breg20 -3]
    6962              DW$604  .dwtag  DW_TAG_variable, DW_AT_name("title"), DW_AT_symbol_name("_title")
    6963                      .dwattr DW$604, DW_AT_type(*DW$T$52)
    6964                      .dwattr DW$604, DW_AT_location[DW_OP_breg20 -6]
    6965              DW$605  .dwtag  DW_TAG_variable, DW_AT_name("pedit"), DW_AT_symbol_name("_pedit")
    6966                      .dwattr DW$605, DW_AT_type(*DW$T$35)
    6967                      .dwattr DW$605, DW_AT_location[DW_OP_breg20 -8]
    6968              DW$606  .dwtag  DW_TAG_variable, DW_AT_name("tflag"), DW_AT_symbol_name("_tflag")
    6969                      .dwattr DW$606, DW_AT_type(*DW$T$27)
    6970                      .dwattr DW$606, DW_AT_location[DW_OP_breg20 -9]
    6971              DW$607  .dwtag  DW_TAG_variable, DW_AT_name("flag_shadow"), DW_AT_symbol_name("_flag_shadow")
    6972                      .dwattr DW$607, DW_AT_type(*DW$T$27)
    6973                      .dwattr DW$607, DW_AT_location[DW_OP_breg20 -10]
    6974 00000aa7 A846          MOVL      *-SP[6],XAR4          ; |104| 
    6975 00000aa8 7D43          MOV       *-SP[3],AR5           ; |104| 
    6976 00000aa9 9742          MOV       *-SP[2],AH            ; |104| 
    6977 00000aaa 9641          MOV       *-SP[1],AL            ; |104| 
    6978                      .dwpsn  "WIDGET\GUI_widget_edit.c",108,2
TMS320C2000 COFF Assembler PC v4.1.3 Thu Nov 29 16:03:34 2012

Tools Copyright (c) 1996-2006 Texas Instruments Incorporated
C:\DOCUME~1\ADMINI~1\LOCALS~1\Temp\TI9882                            PAGE  135

    6979 00000aab 761F!         MOVW      DP,#_m_cur_hwin
         00000aac 0000 
    6980 00000aad 8A00!         MOVL      XAR4,@_m_cur_hwin     ; |108| 
    6981 00000aae D008          MOVB      XAR0,#8               ; |108| 
    6982 00000aaf 9294          MOV       AL,*+XAR4[AR0]        ; |108| 
    6983 00000ab0 5204          CMPB      AL,#4                 ; |108| 
    6984 00000ab1 56C0          BF        L111,NEQ              ; |108| 
         00000ab2 00E1 
    6985                      ; branchcc occurs ; |108| 
    6986                      .dwpsn  "WIDGET\GUI_widget_edit.c",108,41
    6987                      .dwpsn  "WIDGET\GUI_widget_edit.c",109,2
    6988 00000ab3 7640'         LCR       #_GUI_edit_mem_req    ; |109| 
         00000ab4 0A62 
    6989                      ; call occurs [#_GUI_edit_mem_req] ; |109| 
    6990 00000ab5 A848          MOVL      *-SP[8],XAR4          ; |109| 
    6991                      .dwpsn  "WIDGET\GUI_widget_edit.c",110,2
    6992 00000ab6 0648          MOVL      ACC,*-SP[8]           ; |110| 
    6993 00000ab7 56C1          BF        L111,EQ               ; |110| 
         00000ab8 00DB 
    6994                      ; branchcc occurs ; |110| 
    6995                      .dwpsn  "WIDGET\GUI_widget_edit.c",110,16
    6996                      .dwpsn  "WIDGET\GUI_widget_edit.c",111,2
    6997 00000ab9 8A48          MOVL      XAR4,*-SP[8]          ; |111| 
    6998 00000aba 761F!         MOVW      DP,#_m_GUI_CHhigh
         00000abb 0000 
    6999 00000abc 9200!         MOV       AL,@_m_GUI_CHhigh     ; |111| 
    7000 00000abd 96DC          MOV       *+XAR4[3],AL          ; |111| 
    7001                      .dwpsn  "WIDGET\GUI_widget_edit.c",112,2
    7002 00000abe 8A48          MOVL      XAR4,*-SP[8]          ; |112| 
    7003 00000abf 761F!         MOVW      DP,#_m_GUI_CHwide
         00000ac0 0000 
    7004 00000ac1 9200!         MOV       AL,@_m_GUI_CHwide     ; |112| 
    7005 00000ac2 96D4          MOV       *+XAR4[2],AL          ; |112| 
    7006                      .dwpsn  "WIDGET\GUI_widget_edit.c",113,2
    7007 00000ac3 7640!         LCR       #_GUI_GetFront        ; |113| 
         00000ac4 0000 
    7008                      ; call occurs [#_GUI_GetFront] ; |113| 
    7009 00000ac5 8348          MOVL      XAR5,*-SP[8]          ; |113| 
    7010 00000ac6 D008          MOVB      XAR0,#8               ; |113| 
    7011 00000ac7 A895          MOVL      *+XAR5[AR0],XAR4      ; |113| 
    7012                      .dwpsn  "WIDGET\GUI_widget_edit.c",114,2
    7013 00000ac8 CC4D          AND       AL,*-SP[13],#0x0200   ; |114| 
         00000ac9 0200 
    7014 00000aca 964A          MOV       *-SP[10],AL           ; |114| 
    7015                      .dwpsn  "WIDGET\GUI_widget_edit.c",115,2
    7016 00000acb 1BA9          CMP       AL,#512               ; |115| 
         00000acc 0200 
    7017 00000acd ED05          BF        L102,NEQ              ; |115| 
    7018                      ; branchcc occurs ; |115| 
    7019                      .dwpsn  "WIDGET\GUI_widget_edit.c",117,3
    7020 00000ace 0841          ADD       *-SP[1],#3            ; |117| 
         00000acf 0003 
    7021                      .dwpsn  "WIDGET\GUI_widget_edit.c",118,3
    7022 00000ad0 0842          ADD       *-SP[2],#2            ; |118| 
         00000ad1 0002 
TMS320C2000 COFF Assembler PC v4.1.3 Thu Nov 29 16:03:34 2012

Tools Copyright (c) 1996-2006 Texas Instruments Incorporated
C:\DOCUME~1\ADMINI~1\LOCALS~1\Temp\TI9882                            PAGE  136

    7023              L102:    
    7024                      .dwpsn  "WIDGET\GUI_widget_edit.c",120,2
    7025 00000ad2 9241          MOV       AL,*-SP[1]            ; |120| 
    7026 00000ad3 9342          MOV       AH,*-SP[2]            ; |120| 
    7027 00000ad4 7640!         LCR       #_GUI_xy_set          ; |120| 
         00000ad5 0000 
    7028                      ; call occurs [#_GUI_xy_set] ; |120| 
    7029                      .dwpsn  "WIDGET\GUI_widget_edit.c",121,2
    7030 00000ad6 8A48          MOVL      XAR4,*-SP[8]          ; |121| 
    7031 00000ad7 924D          MOV       AL,*-SP[13]           ; |121| 
    7032 00000ad8 90FF          ANDB      AL,#0xff              ; |121| 
    7033 00000ad9 96F4          MOV       *+XAR4[6],AL          ; |121| 
    7034                      .dwpsn  "WIDGET\GUI_widget_edit.c",122,2
    7035 00000ada 8A48          MOVL      XAR4,*-SP[8]          ; |122| 
    7036 00000adb 9242          MOV       AL,*-SP[2]            ; |122| 
    7037 00000adc 96CC          MOV       *+XAR4[1],AL          ; |122| 
    7038                      .dwpsn  "WIDGET\GUI_widget_edit.c",123,2
    7039 00000add 8A48          MOVL      XAR4,*-SP[8]          ; |123| 
    7040 00000ade 2BFC          MOV       *+XAR4[7],#0          ; |123| 
    7041                      .dwpsn  "WIDGET\GUI_widget_edit.c",124,2
    7042 00000adf 8A48          MOVL      XAR4,*-SP[8]          ; |124| 
    7043 00000ae0 9243          MOV       AL,*-SP[3]            ; |124| 
    7044 00000ae1 96E4          MOV       *+XAR4[4],AL          ; |124| 
    7045                      .dwpsn  "WIDGET\GUI_widget_edit.c",125,2
    7046 00000ae2 8A48          MOVL      XAR4,*-SP[8]          ; |125| 
    7047 00000ae3 92E4          MOV       AL,*+XAR4[4]          ; |125| 
    7048 00000ae4 8A48          MOVL      XAR4,*-SP[8]          ; |125| 
    7049 00000ae5 96EC          MOV       *+XAR4[5],AL          ; |125| 
    7050                      .dwpsn  "WIDGET\GUI_widget_edit.c",126,2
    7051 00000ae6 8A48          MOVL      XAR4,*-SP[8]          ; |126| 
    7052 00000ae7 D00A          MOVB      XAR0,#10              ; |126| 
    7053 00000ae8 0200          MOVB      ACC,#0
    7054 00000ae9 1E94          MOVL      *+XAR4[AR0],ACC       ; |126| 
    7055                      .dwpsn  "WIDGET\GUI_widget_edit.c",127,2
    7056 00000aea CC4D          AND       AL,*-SP[13],#0x0100   ; |127| 
         00000aeb 0100 
    7057 00000aec 9649          MOV       *-SP[9],AL            ; |127| 
    7058                      .dwpsn  "WIDGET\GUI_widget_edit.c",128,2
    7059 00000aed 1BA9          CMP       AL,#256               ; |128| 
         00000aee 0100 
    7060 00000aef EC1F          BF        L104,EQ               ; |128| 
    7061                      ; branchcc occurs ; |128| 
    7062                      .dwpsn  "WIDGET\GUI_widget_edit.c",130,3
    7063 00000af0 8A46          MOVL      XAR4,*-SP[6]          ; |130| 
    7064 00000af1 7640!         LCR       #_GUI_string_display  ; |130| 
         00000af2 0000 
    7065                      ; call occurs [#_GUI_string_display] ; |130| 
    7066                      .dwpsn  "WIDGET\GUI_widget_edit.c",131,3
    7067 00000af3 CC4D          AND       AL,*-SP[13],#0x0200   ; |131| 
         00000af4 0200 
    7068 00000af5 964A          MOV       *-SP[10],AL           ; |131| 
    7069                      .dwpsn  "WIDGET\GUI_widget_edit.c",132,3
    7070 00000af6 1BA9          CMP       AL,#512               ; |132| 
         00000af7 0200 
    7071 00000af8 ED0C          BF        L103,NEQ              ; |132| 
TMS320C2000 COFF Assembler PC v4.1.3 Thu Nov 29 16:03:34 2012

Tools Copyright (c) 1996-2006 Texas Instruments Incorporated
C:\DOCUME~1\ADMINI~1\LOCALS~1\Temp\TI9882                            PAGE  137

    7072                      ; branchcc occurs ; |132| 
    7073                      .dwpsn  "WIDGET\GUI_widget_edit.c",134,4
    7074 00000af9 8A46          MOVL      XAR4,*-SP[6]          ; |134| 
    7075 00000afa 7640!         LCR       #_global_strlen       ; |134| 
         00000afb 0000 
    7076                      ; call occurs [#_global_strlen] ; |134| 
    7077 00000afc 8A48          MOVL      XAR4,*-SP[8]          ; |134| 
    7078 00000afd 2DD4          MOV       T,*+XAR4[2]           ; |134| 
    7079 00000afe 8A48          MOVL      XAR4,*-SP[8]          ; |134| 
    7080 00000aff 12A9          MPY       ACC,T,AL              ; |134| 
    7081 00000b00 9441          ADD       AL,*-SP[1]            ; |134| 
    7082 00000b01 9C03          ADDB      AL,#3                 ; |134| 
    7083 00000b02 96C4          MOV       *+XAR4[0],AL          ; |134| 
    7084                      .dwpsn  "WIDGET\GUI_widget_edit.c",135,3
    7085 00000b03 6F29          B         L107,UNC              ; |135| 
    7086                      ; branch occurs ; |135| 
    7087              L103:    
    7088                      .dwpsn  "WIDGET\GUI_widget_edit.c",138,4
    7089 00000b04 8A46          MOVL      XAR4,*-SP[6]          ; |138| 
    7090 00000b05 7640!         LCR       #_global_strlen       ; |138| 
         00000b06 0000 
    7091                      ; call occurs [#_global_strlen] ; |138| 
    7092 00000b07 8A48          MOVL      XAR4,*-SP[8]          ; |138| 
    7093 00000b08 2DD4          MOV       T,*+XAR4[2]           ; |138| 
    7094 00000b09 8A48          MOVL      XAR4,*-SP[8]          ; |138| 
    7095 00000b0a 12A9          MPY       ACC,T,AL              ; |138| 
    7096 00000b0b 9441          ADD       AL,*-SP[1]            ; |138| 
    7097 00000b0c 96C4          MOV       *+XAR4[0],AL          ; |138| 
    7098                      .dwpsn  "WIDGET\GUI_widget_edit.c",140,2
    7099 00000b0d 6F1F          B         L107,UNC              ; |140| 
    7100                      ; branch occurs ; |140| 
    7101              L104:    
    7102                      .dwpsn  "WIDGET\GUI_widget_edit.c",143,3
    7103 00000b0e 8A48          MOVL      XAR4,*-SP[8]          ; |143| 
    7104 00000b0f 9241          MOV       AL,*-SP[1]            ; |143| 
    7105 00000b10 96C4          MOV       *+XAR4[0],AL          ; |143| 
    7106                      .dwpsn  "WIDGET\GUI_widget_edit.c",144,3
    7107 00000b11 CC4D          AND       AL,*-SP[13],#0x0200   ; |144| 
         00000b12 0200 
    7108 00000b13 964A          MOV       *-SP[10],AL           ; |144| 
    7109                      .dwpsn  "WIDGET\GUI_widget_edit.c",145,3
    7110 00000b14 1BA9          CMP       AL,#512               ; |145| 
         00000b15 0200 
    7111 00000b16 ED0B          BF        L105,NEQ              ; |145| 
    7112                      ; branchcc occurs ; |145| 
    7113                      .dwpsn  "WIDGET\GUI_widget_edit.c",147,4
    7114 00000b17 8348          MOVL      XAR5,*-SP[8]          ; |147| 
    7115 00000b18 8A48          MOVL      XAR4,*-SP[8]          ; |147| 
    7116 00000b19 2DD5          MOV       T,*+XAR5[2]           ; |147| 
    7117 00000b1a 12E4          MPY       ACC,T,*+XAR4[4]       ; |147| 
    7118 00000b1b 9441          ADD       AL,*-SP[1]            ; |147| 
    7119 00000b1c 9C03          ADDB      AL,#3                 ; |147| 
    7120 00000b1d 9342          MOV       AH,*-SP[2]            ; |147| 
    7121 00000b1e 7640!         LCR       #_GUI_xy_set          ; |147| 
         00000b1f 0000 
TMS320C2000 COFF Assembler PC v4.1.3 Thu Nov 29 16:03:34 2012

Tools Copyright (c) 1996-2006 Texas Instruments Incorporated
C:\DOCUME~1\ADMINI~1\LOCALS~1\Temp\TI9882                            PAGE  138

    7122                      ; call occurs [#_GUI_xy_set] ; |147| 
    7123                      .dwpsn  "WIDGET\GUI_widget_edit.c",148,3
    7124 00000b20 6F09          B         L106,UNC              ; |148| 
    7125                      ; branch occurs ; |148| 
    7126              L105:    
    7127                      .dwpsn  "WIDGET\GUI_widget_edit.c",151,4
    7128 00000b21 8348          MOVL      XAR5,*-SP[8]          ; |151| 
    7129 00000b22 8A48          MOVL      XAR4,*-SP[8]          ; |151| 
    7130 00000b23 2DD5          MOV       T,*+XAR5[2]           ; |151| 
    7131 00000b24 12E4          MPY       ACC,T,*+XAR4[4]       ; |151| 
    7132 00000b25 9441          ADD       AL,*-SP[1]            ; |151| 
    7133 00000b26 9342          MOV       AH,*-SP[2]            ; |151| 
    7134 00000b27 7640!         LCR       #_GUI_xy_set          ; |151| 
         00000b28 0000 
    7135                      ; call occurs [#_GUI_xy_set] ; |151| 
    7136              L106:    
    7137                      .dwpsn  "WIDGET\GUI_widget_edit.c",153,3
    7138 00000b29 8A46          MOVL      XAR4,*-SP[6]          ; |153| 
    7139 00000b2a 7640!         LCR       #_GUI_string_display  ; |153| 
         00000b2b 0000 
    7140                      ; call occurs [#_GUI_string_display] ; |153| 
    7141              L107:    
    7142                      .dwpsn  "WIDGET\GUI_widget_edit.c",155,2
    7143 00000b2c 761F-         MOVW      DP,#_m_edit_lock
         00000b2d 0000 
    7144 00000b2e 8A14-         MOVL      XAR4,@_m_edit_lock    ; |155| 
    7145 00000b2f 7640!         LCR       #_os_lock             ; |155| 
         00000b30 0000 
    7146                      ; call occurs [#_os_lock] ; |155| 
    7147                      .dwpsn  "WIDGET\GUI_widget_edit.c",156,2
    7148 00000b31 761F!         MOVW      DP,#_m_cur_hwin
         00000b32 0000 
    7149 00000b33 8A00!         MOVL      XAR4,@_m_cur_hwin     ; |156| 
    7150 00000b34 D010          MOVB      XAR0,#16              ; |156| 
    7151 00000b35 0694          MOVL      ACC,*+XAR4[AR0]       ; |156| 
    7152 00000b36 ED0A          BF        L108,NEQ              ; |156| 
    7153                      ; branchcc occurs ; |156| 
    7154                      .dwpsn  "WIDGET\GUI_widget_edit.c",158,3
    7155 00000b37 8A00!         MOVL      XAR4,@_m_cur_hwin     ; |158| 
    7156 00000b38 0648          MOVL      ACC,*-SP[8]           ; |158| 
    7157 00000b39 D012          MOVB      XAR0,#18              ; |158| 
    7158 00000b3a 1E94          MOVL      *+XAR4[AR0],ACC       ; |158| 
    7159                      .dwpsn  "WIDGET\GUI_widget_edit.c",159,3
    7160 00000b3b 8A00!         MOVL      XAR4,@_m_cur_hwin     ; |159| 
    7161 00000b3c D010          MOVB      XAR0,#16              ; |159| 
    7162 00000b3d 0648          MOVL      ACC,*-SP[8]           ; |159| 
    7163 00000b3e 1E94          MOVL      *+XAR4[AR0],ACC       ; |159| 
    7164                      .dwpsn  "WIDGET\GUI_widget_edit.c",160,2
    7165 00000b3f 6F0A          B         L109,UNC              ; |160| 
    7166                      ; branch occurs ; |160| 
    7167              L108:    
    7168                      .dwpsn  "WIDGET\GUI_widget_edit.c",163,3
    7169 00000b40 8A00!         MOVL      XAR4,@_m_cur_hwin     ; |163| 
    7170 00000b41 8A94          MOVL      XAR4,*+XAR4[AR0]      ; |163| 
    7171 00000b42 0648          MOVL      ACC,*-SP[8]           ; |163| 
TMS320C2000 COFF Assembler PC v4.1.3 Thu Nov 29 16:03:34 2012

Tools Copyright (c) 1996-2006 Texas Instruments Incorporated
C:\DOCUME~1\ADMINI~1\LOCALS~1\Temp\TI9882                            PAGE  139

    7172 00000b43 D00A          MOVB      XAR0,#10              ; |163| 
    7173 00000b44 1E94          MOVL      *+XAR4[AR0],ACC       ; |163| 
    7174                      .dwpsn  "WIDGET\GUI_widget_edit.c",164,3
    7175 00000b45 8A00!         MOVL      XAR4,@_m_cur_hwin     ; |164| 
    7176 00000b46 D010          MOVB      XAR0,#16              ; |164| 
    7177 00000b47 0648          MOVL      ACC,*-SP[8]           ; |164| 
    7178 00000b48 1E94          MOVL      *+XAR4[AR0],ACC       ; |164| 
    7179              L109:    
    7180                      .dwpsn  "WIDGET\GUI_widget_edit.c",166,2
    7181 00000b49 CC4D          AND       AL,*-SP[13],#0x0200   ; |166| 
         00000b4a 0200 
    7182 00000b4b 964A          MOV       *-SP[10],AL           ; |166| 
    7183                      .dwpsn  "WIDGET\GUI_widget_edit.c",167,2
    7184 00000b4c 1BA9          CMP       AL,#512               ; |167| 
         00000b4d 0200 
    7185 00000b4e ED3F          BF        L110,NEQ              ; |167| 
    7186                      ; branchcc occurs ; |167| 
    7187                      .dwpsn  "WIDGET\GUI_widget_edit.c",169,3
    7188 00000b4f 8A00!         MOVL      XAR4,@_m_cur_hwin     ; |169| 
    7189 00000b50 7640!         LCR       #_GUI_window_hwin_req ; |169| 
         00000b51 0000 
    7190                      ; call occurs [#_GUI_window_hwin_req] ; |169| 
    7191                      .dwpsn  "WIDGET\GUI_widget_edit.c",170,6
    7192 00000b52 761F-         MOVW      DP,#_m_edit_member_Bgcor
         00000b53 0000 
    7193 00000b54 9209-         MOV       AL,@_m_edit_member_Bgcor ; |170| 
    7194 00000b55 7640!         LCR       #_GUI_set_Bgcolor     ; |170| 
         00000b56 0000 
    7195                      ; call occurs [#_GUI_set_Bgcolor] ; |170| 
    7196                      .dwpsn  "WIDGET\GUI_widget_edit.c",171,3
    7197 00000b57 761F-         MOVW      DP,#_m_edit_member_Fgcor
         00000b58 0000 
    7198 00000b59 9202-         MOV       AL,@_m_edit_member_Fgcor ; |171| 
    7199 00000b5a 7640!         LCR       #_GUI_set_Fgcolor     ; |171| 
         00000b5b 0000 
    7200                      ; call occurs [#_GUI_set_Fgcolor] ; |171| 
    7201                      .dwpsn  "WIDGET\GUI_widget_edit.c",172,3
    7202 00000b5c 8A48          MOVL      XAR4,*-SP[8]          ; |172| 
    7203 00000b5d 27C4          MOV       PL,*+XAR4[0]          ; |172| 
    7204 00000b5e 8A48          MOVL      XAR4,*-SP[8]          ; |172| 
    7205 00000b5f 8348          MOVL      XAR5,*-SP[8]          ; |172| 
    7206 00000b60 80CC          MOVZ      AR7,*+XAR4[1]         ; |172| 
    7207 00000b61 8A48          MOVL      XAR4,*-SP[8]          ; |172| 
    7208 00000b62 2DD5          MOV       T,*+XAR5[2]           ; |172| 
    7209 00000b63 12E4          MPY       ACC,T,*+XAR4[4]       ; |172| 
    7210 00000b64 8A48          MOVL      XAR4,*-SP[8]          ; |172| 
    7211 00000b65 94C4          ADD       AL,*+XAR4[0]          ; |172| 
    7212 00000b66 C448          MOVL      XAR6,*-SP[8]          ; |172| 
    7213 00000b67 8348          MOVL      XAR5,*-SP[8]          ; |172| 
    7214 00000b68 9C02          ADDB      AL,#2                 ; |172| 
    7215 00000b69 5CA9          MOVZ      AR4,AL                ; |172| 
    7216 00000b6a 92DE          MOV       AL,*+XAR6[3]          ; |172| 
    7217 00000b6b 94CD          ADD       AL,*+XAR5[1]          ; |172| 
    7218 00000b6c 9C01          ADDB      AL,#1                 ; |172| 
    7219 00000b6d 5DA9          MOVZ      AR5,AL                ; |172| 
TMS320C2000 COFF Assembler PC v4.1.3 Thu Nov 29 16:03:34 2012

Tools Copyright (c) 1996-2006 Texas Instruments Incorporated
C:\DOCUME~1\ADMINI~1\LOCALS~1\Temp\TI9882                            PAGE  140

    7220 00000b6e 92AB          MOV       AL,PL                 ; |172| 
    7221 00000b6f 93A7          MOV       AH,AR7                ; |172| 
    7222 00000b70 7640!         LCR       #_GUI_fill_window_area ; |172| 
         00000b71 0000 
    7223                      ; call occurs [#_GUI_fill_window_area] ; |172| 
    7224                      .dwpsn  "WIDGET\GUI_widget_edit.c",177,3
    7225 00000b72 8A48          MOVL      XAR4,*-SP[8]          ; |177| 
    7226 00000b73 92C4          MOV       AL,*+XAR4[0]          ; |177| 
    7227 00000b74 8A48          MOVL      XAR4,*-SP[8]          ; |177| 
    7228 00000b75 8348          MOVL      XAR5,*-SP[8]          ; |177| 
    7229 00000b76 93CC          MOV       AH,*+XAR4[1]          ; |177| 
    7230 00000b77 9CFF          ADDB      AL,#-1
    7231 00000b78 9DFF          ADDB      AH,#-1
    7232 00000b79 2DD5          MOV       T,*+XAR5[2]           ; |177| 
    7233 00000b7a 8A48          MOVL      XAR4,*-SP[8]          ; |177| 
    7234 00000b7b 80A9          MOVZ      AR7,AL                ; |177| 
    7235 00000b7c 88A8          MOVZ      AR6,AH                ; |177| 
    7236 00000b7d 8348          MOVL      XAR5,*-SP[8]          ; |177| 
    7237 00000b7e 12E4          MPY       ACC,T,*+XAR4[4]       ; |177| 
    7238 00000b7f 9C03          ADDB      AL,#3                 ; |177| 
    7239 00000b80 5CA9          MOVZ      AR4,AL                ; |177| 
    7240 00000b81 92DD          MOV       AL,*+XAR5[3]          ; |177| 
    7241 00000b82 9C02          ADDB      AL,#2                 ; |177| 
    7242 00000b83 5DA9          MOVZ      AR5,AL                ; |177| 
    7243 00000b84 92A7          MOV       AL,AR7                ; |177| 
    7244 00000b85 93A6          MOV       AH,AR6                ; |177| 
    7245 00000b86 7640!         LCR       #_GUI_window_draw_Rect ; |177| 
         00000b87 0000 
    7246                      ; call occurs [#_GUI_window_draw_Rect] ; |177| 
    7247                      .dwpsn  "WIDGET\GUI_widget_edit.c",182,3
    7248 00000b88 761F!         MOVW      DP,#_m_cur_hwin
         00000b89 0000 
    7249 00000b8a 8A00!         MOVL      XAR4,@_m_cur_hwin     ; |182| 
    7250 00000b8b 7640!         LCR       #_GUI_window_hwin_release ; |182| 
         00000b8c 0000 
    7251                      ; call occurs [#_GUI_window_hwin_release] ; |182| 
    7252              L110:    
    7253                      .dwpsn  "WIDGET\GUI_widget_edit.c",184,2
    7254 00000b8d 761F-         MOVW      DP,#_m_edit_lock
         00000b8e 0000 
    7255 00000b8f 8A14-         MOVL      XAR4,@_m_edit_lock    ; |184| 
    7256 00000b90 7640!         LCR       #_os_unlock           ; |184| 
         00000b91 0000 
    7257                      ; call occurs [#_os_unlock] ; |184| 
    7258                      .dwpsn  "WIDGET\GUI_widget_edit.c",185,2
    7259              L111:    
    7260                      .dwpsn  "WIDGET\GUI_widget_edit.c",186,1
    7261 00000b92 FE8A          SUBB      SP,#10
    7262                      .dwcfa  0x1d, -2
    7263 00000b93 0006          LRETR
    7264                      ; return occurs
    7265                      .dwattr DW$595, DW_AT_end_file("WIDGET\GUI_widget_edit.c")
    7266                      .dwattr DW$595, DW_AT_end_line(0xba)
    7267                      .dwattr DW$595, DW_AT_end_column(0x01)
    7268                      .dwendentry
TMS320C2000 COFF Assembler PC v4.1.3 Thu Nov 29 16:03:34 2012

Tools Copyright (c) 1996-2006 Texas Instruments Incorporated
C:\DOCUME~1\ADMINI~1\LOCALS~1\Temp\TI9882                            PAGE  141

    7269                      .dwendtag DW$595
    7270              
    7271 00000b94               .sect   ".text"
    7272                      .global _GUI_edit_select
    7273              
    7274              DW$608  .dwtag  DW_TAG_subprogram, DW_AT_name("GUI_edit_select"), DW_AT_symbol_name("_GUI_edit_select")
    7275                      .dwattr DW$608, DW_AT_low_pc(_GUI_edit_select)
    7276                      .dwattr DW$608, DW_AT_high_pc(0x00)
    7277                      .dwattr DW$608, DW_AT_begin_file("WIDGET\GUI_widget_edit.c")
    7278                      .dwattr DW$608, DW_AT_begin_line(0xc3)
    7279                      .dwattr DW$608, DW_AT_begin_column(0x07)
    7280                      .dwpsn  "WIDGET\GUI_widget_edit.c",196,1
    7281              
    7282                      .dwfde DW$CIE
    7283              
    7284              ;***************************************************************
    7285              ;* FNAME: _GUI_edit_select              FR SIZE:   4           *
    7286              ;*                                                             *
    7287              ;* FUNCTION ENVIRONMENT                                        *
    7288              ;*                                                             *
    7289              ;* FUNCTION PROPERTIES                                         *
    7290              ;*                            0 Parameter,  4 Auto,  0 SOE     *
    7291              ;***************************************************************
    7292              
    7293              _GUI_edit_select:
    7294                      .dwcfa  0x1d, -2
    7295                      .dwcfa  0x1c, 26, 0
    7296                      .dwcfa  0x09, 40, 26
    7297 00000b94 FE04          ADDB      SP,#4
    7298                      .dwcfa  0x1d, -6
    7299              ;* AL    assigned to _id
    7300              DW$609  .dwtag  DW_TAG_formal_parameter, DW_AT_name("id"), DW_AT_symbol_name("_id")
    7301                      .dwattr DW$609, DW_AT_type(*DW$T$27)
    7302                      .dwattr DW$609, DW_AT_location[DW_OP_reg0]
    7303              DW$610  .dwtag  DW_TAG_variable, DW_AT_name("id"), DW_AT_symbol_name("_id")
    7304                      .dwattr DW$610, DW_AT_type(*DW$T$27)
    7305                      .dwattr DW$610, DW_AT_location[DW_OP_breg20 -1]
    7306              DW$611  .dwtag  DW_TAG_variable, DW_AT_name("plist"), DW_AT_symbol_name("_plist")
    7307                      .dwattr DW$611, DW_AT_type(*DW$T$35)
    7308                      .dwattr DW$611, DW_AT_location[DW_OP_breg20 -4]
    7309 00000b95 9641          MOV       *-SP[1],AL            ; |196| 
    7310                      .dwpsn  "WIDGET\GUI_widget_edit.c",198,2
    7311 00000b96 761F-         MOVW      DP,#_m_edit_lock
         00000b97 0000 
    7312 00000b98 8A14-         MOVL      XAR4,@_m_edit_lock    ; |198| 
    7313 00000b99 7640!         LCR       #_os_lock             ; |198| 
         00000b9a 0000 
    7314                      ; call occurs [#_os_lock] ; |198| 
    7315                      .dwpsn  "WIDGET\GUI_widget_edit.c",199,2
    7316 00000b9b 761F!         MOVW      DP,#_m_cur_hwin
         00000b9c 0000 
    7317 00000b9d 8A00!         MOVL      XAR4,@_m_cur_hwin     ; |199| 
    7318 00000b9e D012          MOVB      XAR0,#18              ; |199| 
    7319 00000b9f 0694          MOVL      ACC,*+XAR4[AR0]       ; |199| 
    7320 00000ba0 D00A          MOVB      XAR0,#10              ; |203| 
TMS320C2000 COFF Assembler PC v4.1.3 Thu Nov 29 16:03:34 2012

Tools Copyright (c) 1996-2006 Texas Instruments Incorporated
C:\DOCUME~1\ADMINI~1\LOCALS~1\Temp\TI9882                            PAGE  142

    7321 00000ba1 1E44          MOVL      *-SP[4],ACC           ; |199| 
    7322                      .dwpsn  "WIDGET\GUI_widget_edit.c",200,10
    7323              L112:    
    7324              DW$L$_GUI_edit_select$2$B:
    7325                      .dwpsn  "WIDGET\GUI_widget_edit.c",202,3
    7326 00000ba2 8A44          MOVL      XAR4,*-SP[4]          ; |202| 
    7327 00000ba3 9241          MOV       AL,*-SP[1]            ; |202| 
    7328 00000ba4 54F4          CMP       AL,*+XAR4[6]          ; |202| 
    7329 00000ba5 EC0D          BF        L113,EQ               ; |202| 
    7330                      ; branchcc occurs ; |202| 
    7331              DW$L$_GUI_edit_select$2$E:
    7332              DW$L$_GUI_edit_select$3$B:
    7333                      .dwpsn  "WIDGET\GUI_widget_edit.c",202,26
    7334                      .dwpsn  "WIDGET\GUI_widget_edit.c",203,3
    7335 00000ba6 8A44          MOVL      XAR4,*-SP[4]          ; |203| 
    7336 00000ba7 0694          MOVL      ACC,*+XAR4[AR0]       ; |203| 
    7337 00000ba8 1E44          MOVL      *-SP[4],ACC           ; |203| 
    7338                      .dwpsn  "WIDGET\GUI_widget_edit.c",204,3
    7339 00000ba9 0644          MOVL      ACC,*-SP[4]           ; |204| 
    7340 00000baa EDF8          BF        L112,NEQ              ; |204| 
    7341                      ; branchcc occurs ; |204| 
    7342              DW$L$_GUI_edit_select$3$E:
    7343                      .dwpsn  "WIDGET\GUI_widget_edit.c",206,4
    7344 00000bab 761F-         MOVW      DP,#_m_edit_lock
         00000bac 0000 
    7345 00000bad 8A14-         MOVL      XAR4,@_m_edit_lock    ; |206| 
    7346 00000bae 7640!         LCR       #_os_unlock           ; |206| 
         00000baf 0000 
    7347                      ; call occurs [#_os_unlock] ; |206| 
    7348                      .dwpsn  "WIDGET\GUI_widget_edit.c",207,4
    7349 00000bb0 9A00          MOVB      AL,#0
    7350 00000bb1 6F17          B         L114,UNC              ; |207| 
    7351                      ; branch occurs ; |207| 
    7352              L113:    
    7353                      .dwpsn  "WIDGET\GUI_widget_edit.c",210,2
    7354 00000bb2 8A44          MOVL      XAR4,*-SP[4]          ; |210| 
    7355 00000bb3 92E4          MOV       AL,*+XAR4[4]          ; |210| 
    7356 00000bb4 8A44          MOVL      XAR4,*-SP[4]          ; |210| 
    7357 00000bb5 96EC          MOV       *+XAR4[5],AL          ; |210| 
    7358                      .dwpsn  "WIDGET\GUI_widget_edit.c",211,2
    7359 00000bb6 761F!         MOVW      DP,#_m_cur_hwin
         00000bb7 0000 
    7360 00000bb8 8A00!         MOVL      XAR4,@_m_cur_hwin     ; |211| 
    7361 00000bb9 D014          MOVB      XAR0,#20              ; |211| 
    7362 00000bba 0644          MOVL      ACC,*-SP[4]           ; |211| 
    7363 00000bbb 1E94          MOVL      *+XAR4[AR0],ACC       ; |211| 
    7364                      .dwpsn  "WIDGET\GUI_widget_edit.c",212,2
    7365 00000bbc 8A44          MOVL      XAR4,*-SP[4]          ; |212| 
    7366 00000bbd 92C4          MOV       AL,*+XAR4[0]          ; |212| 
    7367 00000bbe 8A44          MOVL      XAR4,*-SP[4]          ; |212| 
    7368 00000bbf 93CC          MOV       AH,*+XAR4[1]          ; |212| 
    7369 00000bc0 7640!         LCR       #_GUI_xy_set          ; |212| 
         00000bc1 0000 
    7370                      ; call occurs [#_GUI_xy_set] ; |212| 
    7371                      .dwpsn  "WIDGET\GUI_widget_edit.c",213,2
TMS320C2000 COFF Assembler PC v4.1.3 Thu Nov 29 16:03:34 2012

Tools Copyright (c) 1996-2006 Texas Instruments Incorporated
C:\DOCUME~1\ADMINI~1\LOCALS~1\Temp\TI9882                            PAGE  143

    7372 00000bc2 761F-         MOVW      DP,#_m_edit_lock
         00000bc3 0000 
    7373 00000bc4 8A14-         MOVL      XAR4,@_m_edit_lock    ; |213| 
    7374 00000bc5 7640!         LCR       #_os_unlock           ; |213| 
         00000bc6 0000 
    7375                      ; call occurs [#_os_unlock] ; |213| 
    7376                      .dwpsn  "WIDGET\GUI_widget_edit.c",214,2
    7377 00000bc7 9A01          MOVB      AL,#1                 ; |214| 
    7378              L114:    
    7379                      .dwpsn  "WIDGET\GUI_widget_edit.c",215,1
    7380 00000bc8 FE84          SUBB      SP,#4                 ; |214| 
    7381                      .dwcfa  0x1d, -2
    7382 00000bc9 0006          LRETR
    7383                      ; return occurs
    7384              
    7385              DW$612  .dwtag  DW_TAG_loop
    7386                      .dwattr DW$612, DW_AT_name("C:\DOCUME~1\ADMINI~1\LOCALS~1\Temp\TI9882:L112:1:1354176212")
    7387                      .dwattr DW$612, DW_AT_begin_file("WIDGET\GUI_widget_edit.c")
    7388                      .dwattr DW$612, DW_AT_begin_line(0xc8)
    7389                      .dwattr DW$612, DW_AT_end_line(0xd1)
    7390              DW$613  .dwtag  DW_TAG_loop_range
    7391                      .dwattr DW$613, DW_AT_low_pc(DW$L$_GUI_edit_select$2$B)
    7392                      .dwattr DW$613, DW_AT_high_pc(DW$L$_GUI_edit_select$2$E)
    7393              DW$614  .dwtag  DW_TAG_loop_range
    7394                      .dwattr DW$614, DW_AT_low_pc(DW$L$_GUI_edit_select$3$B)
    7395                      .dwattr DW$614, DW_AT_high_pc(DW$L$_GUI_edit_select$3$E)
    7396                      .dwendtag DW$612
    7397              
    7398                      .dwattr DW$608, DW_AT_end_file("WIDGET\GUI_widget_edit.c")
    7399                      .dwattr DW$608, DW_AT_end_line(0xd7)
    7400                      .dwattr DW$608, DW_AT_end_column(0x01)
    7401                      .dwendentry
    7402                      .dwendtag DW$608
    7403              
    7404 00000bca               .sect   ".text"
    7405                      .global _GUI_edit_shift
    7406              
    7407              DW$615  .dwtag  DW_TAG_subprogram, DW_AT_name("GUI_edit_shift"), DW_AT_symbol_name("_GUI_edit_shift")
    7408                      .dwattr DW$615, DW_AT_low_pc(_GUI_edit_shift)
    7409                      .dwattr DW$615, DW_AT_high_pc(0x00)
    7410                      .dwattr DW$615, DW_AT_begin_file("WIDGET\GUI_widget_edit.c")
    7411                      .dwattr DW$615, DW_AT_begin_line(0xe0)
    7412                      .dwattr DW$615, DW_AT_begin_column(0x06)
    7413                      .dwpsn  "WIDGET\GUI_widget_edit.c",225,1
    7414              
    7415                      .dwfde DW$CIE
    7416              
    7417              ;***************************************************************
    7418              ;* FNAME: _GUI_edit_shift               FR SIZE:   4           *
    7419              ;*                                                             *
    7420              ;* FUNCTION ENVIRONMENT                                        *
    7421              ;*                                                             *
    7422              ;* FUNCTION PROPERTIES                                         *
    7423              ;*                            0 Parameter,  4 Auto,  0 SOE     *
    7424              ;***************************************************************
TMS320C2000 COFF Assembler PC v4.1.3 Thu Nov 29 16:03:34 2012

Tools Copyright (c) 1996-2006 Texas Instruments Incorporated
C:\DOCUME~1\ADMINI~1\LOCALS~1\Temp\TI9882                            PAGE  144

    7425              
    7426              _GUI_edit_shift:
    7427                      .dwcfa  0x1d, -2
    7428                      .dwcfa  0x1c, 26, 0
    7429                      .dwcfa  0x09, 40, 26
    7430 00000bca FE04          ADDB      SP,#4
    7431                      .dwcfa  0x1d, -6
    7432              ;* AL    assigned to _flag
    7433              DW$616  .dwtag  DW_TAG_formal_parameter, DW_AT_name("flag"), DW_AT_symbol_name("_flag")
    7434                      .dwattr DW$616, DW_AT_type(*DW$T$27)
    7435                      .dwattr DW$616, DW_AT_location[DW_OP_reg0]
    7436              DW$617  .dwtag  DW_TAG_variable, DW_AT_name("flag"), DW_AT_symbol_name("_flag")
    7437                      .dwattr DW$617, DW_AT_type(*DW$T$27)
    7438                      .dwattr DW$617, DW_AT_location[DW_OP_breg20 -1]
    7439              DW$618  .dwtag  DW_TAG_variable, DW_AT_name("plist"), DW_AT_symbol_name("_plist")
    7440                      .dwattr DW$618, DW_AT_type(*DW$T$35)
    7441                      .dwattr DW$618, DW_AT_location[DW_OP_breg20 -4]
    7442 00000bcb 9641          MOV       *-SP[1],AL            ; |225| 
    7443                      .dwpsn  "WIDGET\GUI_widget_edit.c",227,2
    7444 00000bcc 761F-         MOVW      DP,#_m_edit_lock
         00000bcd 0000 
    7445 00000bce 8A14-         MOVL      XAR4,@_m_edit_lock    ; |227| 
    7446 00000bcf 7640!         LCR       #_os_lock             ; |227| 
         00000bd0 0000 
    7447                      ; call occurs [#_os_lock] ; |227| 
    7448                      .dwpsn  "WIDGET\GUI_widget_edit.c",228,2
    7449 00000bd1 761F!         MOVW      DP,#_m_cur_hwin
         00000bd2 0000 
    7450 00000bd3 8A00!         MOVL      XAR4,@_m_cur_hwin     ; |228| 
    7451 00000bd4 D014          MOVB      XAR0,#20              ; |228| 
    7452 00000bd5 0694          MOVL      ACC,*+XAR4[AR0]       ; |228| 
    7453 00000bd6 1E44          MOVL      *-SP[4],ACC           ; |228| 
    7454                      .dwpsn  "WIDGET\GUI_widget_edit.c",229,2
    7455 00000bd7 9241          MOV       AL,*-SP[1]            ; |229| 
    7456 00000bd8 5203          CMPB      AL,#3                 ; |229| 
    7457 00000bd9 ED10          BF        L116,NEQ              ; |229| 
    7458                      ; branchcc occurs ; |229| 
    7459                      .dwpsn  "WIDGET\GUI_widget_edit.c",231,3
    7460 00000bda 8A44          MOVL      XAR4,*-SP[4]          ; |231| 
    7461 00000bdb D00A          MOVB      XAR0,#10              ; |231| 
    7462 00000bdc 0694          MOVL      ACC,*+XAR4[AR0]       ; |231| 
    7463 00000bdd ED08          BF        L115,NEQ              ; |231| 
    7464                      ; branchcc occurs ; |231| 
    7465                      .dwpsn  "WIDGET\GUI_widget_edit.c",233,4
    7466 00000bde 761F-         MOVW      DP,#_m_edit_lock
         00000bdf 0000 
    7467 00000be0 8A14-         MOVL      XAR4,@_m_edit_lock    ; |233| 
    7468 00000be1 7640!         LCR       #_os_unlock           ; |233| 
         00000be2 0000 
    7469                      ; call occurs [#_os_unlock] ; |233| 
    7470                      .dwpsn  "WIDGET\GUI_widget_edit.c",234,4
    7471 00000be3 9A00          MOVB      AL,#0
    7472 00000be4 6F34          B         L119,UNC              ; |234| 
    7473                      ; branch occurs ; |234| 
    7474              L115:    
TMS320C2000 COFF Assembler PC v4.1.3 Thu Nov 29 16:03:34 2012

Tools Copyright (c) 1996-2006 Texas Instruments Incorporated
C:\DOCUME~1\ADMINI~1\LOCALS~1\Temp\TI9882                            PAGE  145

    7475                      .dwpsn  "WIDGET\GUI_widget_edit.c",236,3
    7476 00000be5 8A44          MOVL      XAR4,*-SP[4]          ; |236| 
    7477 00000be6 0694          MOVL      ACC,*+XAR4[AR0]       ; |236| 
    7478 00000be7 1E44          MOVL      *-SP[4],ACC           ; |236| 
    7479                      .dwpsn  "WIDGET\GUI_widget_edit.c",237,2
    7480 00000be8 6F1B          B         L118,UNC              ; |237| 
    7481                      ; branch occurs ; |237| 
    7482              L116:    
    7483                      .dwpsn  "WIDGET\GUI_widget_edit.c",240,3
    7484 00000be9 8A00!         MOVL      XAR4,@_m_cur_hwin     ; |240| 
    7485 00000bea D012          MOVB      XAR0,#18              ; |240| 
    7486 00000beb 0694          MOVL      ACC,*+XAR4[AR0]       ; |240| 
    7487 00000bec 1E44          MOVL      *-SP[4],ACC           ; |240| 
    7488                      .dwpsn  "WIDGET\GUI_widget_edit.c",241,11
    7489              L117:    
    7490              DW$L$_GUI_edit_shift$6$B:
    7491                      .dwpsn  "WIDGET\GUI_widget_edit.c",243,4
    7492 00000bed 761F!         MOVW      DP,#_m_cur_hwin
         00000bee 0000 
    7493 00000bef 8A00!         MOVL      XAR4,@_m_cur_hwin     ; |243| 
    7494 00000bf0 D014          MOVB      XAR0,#20              ; |243| 
    7495 00000bf1 0694          MOVL      ACC,*+XAR4[AR0]       ; |243| 
    7496 00000bf2 8A44          MOVL      XAR4,*-SP[4]          ; |243| 
    7497 00000bf3 D00A          MOVB      XAR0,#10              ; |243| 
    7498 00000bf4 C494          MOVL      XAR6,*+XAR4[AR0]      ; |243| 
    7499 00000bf5 0FA6          CMPL      ACC,XAR6              ; |243| 
    7500 00000bf6 EC0D          BF        L118,EQ               ; |243| 
    7501                      ; branchcc occurs ; |243| 
    7502              DW$L$_GUI_edit_shift$6$E:
    7503              DW$L$_GUI_edit_shift$7$B:
    7504                      .dwpsn  "WIDGET\GUI_widget_edit.c",244,5
    7505                      .dwpsn  "WIDGET\GUI_widget_edit.c",245,4
    7506 00000bf7 8A44          MOVL      XAR4,*-SP[4]          ; |245| 
    7507 00000bf8 0694          MOVL      ACC,*+XAR4[AR0]       ; |245| 
    7508 00000bf9 1E44          MOVL      *-SP[4],ACC           ; |245| 
    7509                      .dwpsn  "WIDGET\GUI_widget_edit.c",246,4
    7510 00000bfa 0644          MOVL      ACC,*-SP[4]           ; |246| 
    7511 00000bfb EDF2          BF        L117,NEQ              ; |246| 
    7512                      ; branchcc occurs ; |246| 
    7513              DW$L$_GUI_edit_shift$7$E:
    7514                      .dwpsn  "WIDGET\GUI_widget_edit.c",248,5
    7515 00000bfc 761F-         MOVW      DP,#_m_edit_lock
         00000bfd 0000 
    7516 00000bfe 8A14-         MOVL      XAR4,@_m_edit_lock    ; |248| 
    7517 00000bff 7640!         LCR       #_os_unlock           ; |248| 
         00000c00 0000 
    7518                      ; call occurs [#_os_unlock] ; |248| 
    7519                      .dwpsn  "WIDGET\GUI_widget_edit.c",249,5
    7520 00000c01 9A00          MOVB      AL,#0
    7521 00000c02 6F16          B         L119,UNC              ; |249| 
    7522                      ; branch occurs ; |249| 
    7523              L118:    
    7524                      .dwpsn  "WIDGET\GUI_widget_edit.c",253,2
    7525 00000c03 8A44          MOVL      XAR4,*-SP[4]          ; |253| 
    7526 00000c04 92E4          MOV       AL,*+XAR4[4]          ; |253| 
TMS320C2000 COFF Assembler PC v4.1.3 Thu Nov 29 16:03:34 2012

Tools Copyright (c) 1996-2006 Texas Instruments Incorporated
C:\DOCUME~1\ADMINI~1\LOCALS~1\Temp\TI9882                            PAGE  146

    7527 00000c05 8A44          MOVL      XAR4,*-SP[4]          ; |253| 
    7528 00000c06 96EC          MOV       *+XAR4[5],AL          ; |253| 
    7529                      .dwpsn  "WIDGET\GUI_widget_edit.c",254,2
    7530 00000c07 8A00!         MOVL      XAR4,@_m_cur_hwin     ; |254| 
    7531 00000c08 D014          MOVB      XAR0,#20              ; |254| 
    7532 00000c09 0644          MOVL      ACC,*-SP[4]           ; |254| 
    7533 00000c0a 1E94          MOVL      *+XAR4[AR0],ACC       ; |254| 
    7534                      .dwpsn  "WIDGET\GUI_widget_edit.c",255,2
    7535 00000c0b 8A44          MOVL      XAR4,*-SP[4]          ; |255| 
    7536 00000c0c 92C4          MOV       AL,*+XAR4[0]          ; |255| 
    7537 00000c0d 8A44          MOVL      XAR4,*-SP[4]          ; |255| 
    7538 00000c0e 93CC          MOV       AH,*+XAR4[1]          ; |255| 
    7539 00000c0f 7640!         LCR       #_GUI_xy_set          ; |255| 
         00000c10 0000 
    7540                      ; call occurs [#_GUI_xy_set] ; |255| 
    7541                      .dwpsn  "WIDGET\GUI_widget_edit.c",256,2
    7542 00000c11 761F-         MOVW      DP,#_m_eidt_end_flag
         00000c12 0000 
    7543 00000c13 2B05-         MOV       @_m_eidt_end_flag,#0  ; |256| 
    7544                      .dwpsn  "WIDGET\GUI_widget_edit.c",257,2
    7545 00000c14 8A14-         MOVL      XAR4,@_m_edit_lock    ; |257| 
    7546 00000c15 7640!         LCR       #_os_unlock           ; |257| 
         00000c16 0000 
    7547                      ; call occurs [#_os_unlock] ; |257| 
    7548                      .dwpsn  "WIDGET\GUI_widget_edit.c",258,2
    7549 00000c17 9A01          MOVB      AL,#1                 ; |258| 
    7550              L119:    
    7551                      .dwpsn  "WIDGET\GUI_widget_edit.c",259,1
    7552 00000c18 FE84          SUBB      SP,#4                 ; |258| 
    7553                      .dwcfa  0x1d, -2
    7554 00000c19 0006          LRETR
    7555                      ; return occurs
    7556              
    7557              DW$619  .dwtag  DW_TAG_loop
    7558                      .dwattr DW$619, DW_AT_name("C:\DOCUME~1\ADMINI~1\LOCALS~1\Temp\TI9882:L117:1:1354176212")
    7559                      .dwattr DW$619, DW_AT_begin_file("WIDGET\GUI_widget_edit.c")
    7560                      .dwattr DW$619, DW_AT_begin_line(0xf1)
    7561                      .dwattr DW$619, DW_AT_end_line(0xfb)
    7562              DW$620  .dwtag  DW_TAG_loop_range
    7563                      .dwattr DW$620, DW_AT_low_pc(DW$L$_GUI_edit_shift$6$B)
    7564                      .dwattr DW$620, DW_AT_high_pc(DW$L$_GUI_edit_shift$6$E)
    7565              DW$621  .dwtag  DW_TAG_loop_range
    7566                      .dwattr DW$621, DW_AT_low_pc(DW$L$_GUI_edit_shift$7$B)
    7567                      .dwattr DW$621, DW_AT_high_pc(DW$L$_GUI_edit_shift$7$E)
    7568                      .dwendtag DW$619
    7569              
    7570                      .dwattr DW$615, DW_AT_end_file("WIDGET\GUI_widget_edit.c")
    7571                      .dwattr DW$615, DW_AT_end_line(0x103)
    7572                      .dwattr DW$615, DW_AT_end_column(0x01)
    7573                      .dwendentry
    7574                      .dwendtag DW$615
    7575              
    7576 00000c1a               .sect   ".text"
    7577                      .global _GUI_edit_Boffset_obtain
    7578              
TMS320C2000 COFF Assembler PC v4.1.3 Thu Nov 29 16:03:34 2012

Tools Copyright (c) 1996-2006 Texas Instruments Incorporated
C:\DOCUME~1\ADMINI~1\LOCALS~1\Temp\TI9882                            PAGE  147

    7579              DW$622  .dwtag  DW_TAG_subprogram, DW_AT_name("GUI_edit_Boffset_obtain"), DW_AT_symbol_name("_GUI_edit_Boffse
    7580                      .dwattr DW$622, DW_AT_low_pc(_GUI_edit_Boffset_obtain)
    7581                      .dwattr DW$622, DW_AT_high_pc(0x00)
    7582                      .dwattr DW$622, DW_AT_begin_file("WIDGET\GUI_widget_edit.c")
    7583                      .dwattr DW$622, DW_AT_begin_line(0x10c)
    7584                      .dwattr DW$622, DW_AT_begin_column(0x09)
    7585                      .dwpsn  "WIDGET\GUI_widget_edit.c",269,1
    7586              
    7587                      .dwfde DW$CIE
    7588              
    7589              ;***************************************************************
    7590              ;* FNAME: _GUI_edit_Boffset_obtain      FR SIZE:   2           *
    7591              ;*                                                             *
    7592              ;* FUNCTION ENVIRONMENT                                        *
    7593              ;*                                                             *
    7594              ;* FUNCTION PROPERTIES                                         *
    7595              ;*                            0 Parameter,  1 Auto,  0 SOE     *
    7596              ;***************************************************************
    7597              
    7598              _GUI_edit_Boffset_obtain:
    7599                      .dwcfa  0x1d, -2
    7600                      .dwcfa  0x1c, 26, 0
    7601                      .dwcfa  0x09, 40, 26
    7602 00000c1a FE02          ADDB      SP,#2
    7603                      .dwcfa  0x1d, -4
    7604              DW$623  .dwtag  DW_TAG_variable, DW_AT_name("offset"), DW_AT_symbol_name("_offset")
    7605                      .dwattr DW$623, DW_AT_type(*DW$T$27)
    7606                      .dwattr DW$623, DW_AT_location[DW_OP_breg20 -1]
    7607                      .dwpsn  "WIDGET\GUI_widget_edit.c",271,2
    7608 00000c1b 761F-         MOVW      DP,#_start_edit_win
         00000c1c 0000 
    7609 00000c1d 061C-         MOVL      ACC,@_start_edit_win  ; |271| 
    7610 00000c1e ED03          BF        L120,NEQ              ; |271| 
    7611                      ; branchcc occurs ; |271| 
    7612                      .dwpsn  "WIDGET\GUI_widget_edit.c",272,3
    7613 00000c1f 9A00          MOVB      AL,#0
    7614 00000c20 6F12          B         L121,UNC              ; |272| 
    7615                      ; branch occurs ; |272| 
    7616              L120:    
    7617                      .dwpsn  "WIDGET\GUI_widget_edit.c",273,2
    7618 00000c21 8A14-         MOVL      XAR4,@_m_edit_lock    ; |273| 
    7619 00000c22 7640!         LCR       #_os_lock             ; |273| 
         00000c23 0000 
    7620                      ; call occurs [#_os_lock] ; |273| 
    7621                      .dwpsn  "WIDGET\GUI_widget_edit.c",274,2
    7622 00000c24 761F-         MOVW      DP,#_start_edit_win
         00000c25 0000 
    7623 00000c26 831C-         MOVL      XAR5,@_start_edit_win ; |274| 
    7624 00000c27 8A1C-         MOVL      XAR4,@_start_edit_win ; |274| 
    7625 00000c28 D014          MOVB      XAR0,#20              ; |274| 
    7626 00000c29 8395          MOVL      XAR5,*+XAR5[AR0]      ; |274| 
    7627 00000c2a 8A94          MOVL      XAR4,*+XAR4[AR0]      ; |274| 
    7628 00000c2b 92E5          MOV       AL,*+XAR5[4]          ; |274| 
    7629 00000c2c 9EEC          SUB       AL,*+XAR4[5]          ; |274| 
    7630 00000c2d 9641          MOV       *-SP[1],AL            ; |274| 
TMS320C2000 COFF Assembler PC v4.1.3 Thu Nov 29 16:03:34 2012

Tools Copyright (c) 1996-2006 Texas Instruments Incorporated
C:\DOCUME~1\ADMINI~1\LOCALS~1\Temp\TI9882                            PAGE  148

    7631                      .dwpsn  "WIDGET\GUI_widget_edit.c",275,2
    7632 00000c2e 8A14-         MOVL      XAR4,@_m_edit_lock    ; |275| 
    7633 00000c2f 7640!         LCR       #_os_unlock           ; |275| 
         00000c30 0000 
    7634                      ; call occurs [#_os_unlock] ; |275| 
    7635                      .dwpsn  "WIDGET\GUI_widget_edit.c",276,2
    7636 00000c31 9241          MOV       AL,*-SP[1]            ; |276| 
    7637              L121:    
    7638                      .dwpsn  "WIDGET\GUI_widget_edit.c",277,1
    7639 00000c32 FE82          SUBB      SP,#2                 ; |276| 
    7640                      .dwcfa  0x1d, -2
    7641 00000c33 0006          LRETR
    7642                      ; return occurs
    7643                      .dwattr DW$622, DW_AT_end_file("WIDGET\GUI_widget_edit.c")
    7644                      .dwattr DW$622, DW_AT_end_line(0x115)
    7645                      .dwattr DW$622, DW_AT_end_column(0x01)
    7646                      .dwendentry
    7647                      .dwendtag DW$622
    7648              
    7649 00000c34               .sect   ".text"
    7650                      .global _GUI_edit_id_obtain
    7651              
    7652              DW$624  .dwtag  DW_TAG_subprogram, DW_AT_name("GUI_edit_id_obtain"), DW_AT_symbol_name("_GUI_edit_id_obtain")
    7653                      .dwattr DW$624, DW_AT_low_pc(_GUI_edit_id_obtain)
    7654                      .dwattr DW$624, DW_AT_high_pc(0x00)
    7655                      .dwattr DW$624, DW_AT_begin_file("WIDGET\GUI_widget_edit.c")
    7656                      .dwattr DW$624, DW_AT_begin_line(0x11e)
    7657                      .dwattr DW$624, DW_AT_begin_column(0x09)
    7658                      .dwpsn  "WIDGET\GUI_widget_edit.c",287,1
    7659              
    7660                      .dwfde DW$CIE
    7661              
    7662              ;***************************************************************
    7663              ;* FNAME: _GUI_edit_id_obtain           FR SIZE:   2           *
    7664              ;*                                                             *
    7665              ;* FUNCTION ENVIRONMENT                                        *
    7666              ;*                                                             *
    7667              ;* FUNCTION PROPERTIES                                         *
    7668              ;*                            0 Parameter,  1 Auto,  0 SOE     *
    7669              ;***************************************************************
    7670              
    7671              _GUI_edit_id_obtain:
    7672                      .dwcfa  0x1d, -2
    7673                      .dwcfa  0x1c, 26, 0
    7674                      .dwcfa  0x09, 40, 26
    7675 00000c34 FE02          ADDB      SP,#2
    7676                      .dwcfa  0x1d, -4
    7677              DW$625  .dwtag  DW_TAG_variable, DW_AT_name("id"), DW_AT_symbol_name("_id")
    7678                      .dwattr DW$625, DW_AT_type(*DW$T$27)
    7679                      .dwattr DW$625, DW_AT_location[DW_OP_breg20 -1]
    7680                      .dwpsn  "WIDGET\GUI_widget_edit.c",289,2
    7681 00000c35 761F!         MOVW      DP,#_m_cur_hwin
         00000c36 0000 
    7682 00000c37 8A00!         MOVL      XAR4,@_m_cur_hwin     ; |289| 
    7683 00000c38 D014          MOVB      XAR0,#20              ; |289| 
TMS320C2000 COFF Assembler PC v4.1.3 Thu Nov 29 16:03:34 2012

Tools Copyright (c) 1996-2006 Texas Instruments Incorporated
C:\DOCUME~1\ADMINI~1\LOCALS~1\Temp\TI9882                            PAGE  149

    7684 00000c39 0694          MOVL      ACC,*+XAR4[AR0]       ; |289| 
    7685 00000c3a ED04          BF        L122,NEQ              ; |289| 
    7686                      ; branchcc occurs ; |289| 
    7687                      .dwpsn  "WIDGET\GUI_widget_edit.c",290,3
    7688 00000c3b 28A9          MOV       AL,#4096              ; |290| 
         00000c3c 1000 
    7689 00000c3d 6F13          B         L123,UNC              ; |290| 
    7690                      ; branch occurs ; |290| 
    7691              L122:    
    7692                      .dwpsn  "WIDGET\GUI_widget_edit.c",291,2
    7693 00000c3e 761F-         MOVW      DP,#_m_edit_lock
         00000c3f 0000 
    7694 00000c40 8A14-         MOVL      XAR4,@_m_edit_lock    ; |291| 
    7695 00000c41 7640!         LCR       #_os_lock             ; |291| 
         00000c42 0000 
    7696                      ; call occurs [#_os_lock] ; |291| 
    7697                      .dwpsn  "WIDGET\GUI_widget_edit.c",292,2
    7698 00000c43 761F!         MOVW      DP,#_m_cur_hwin
         00000c44 0000 
    7699 00000c45 8A00!         MOVL      XAR4,@_m_cur_hwin     ; |292| 
    7700 00000c46 D014          MOVB      XAR0,#20              ; |292| 
    7701 00000c47 8A94          MOVL      XAR4,*+XAR4[AR0]      ; |292| 
    7702 00000c48 92F4          MOV       AL,*+XAR4[6]          ; |292| 
    7703 00000c49 9641          MOV       *-SP[1],AL            ; |292| 
    7704                      .dwpsn  "WIDGET\GUI_widget_edit.c",293,2
    7705 00000c4a 761F-         MOVW      DP,#_m_edit_lock
         00000c4b 0000 
    7706 00000c4c 8A14-         MOVL      XAR4,@_m_edit_lock    ; |293| 
    7707 00000c4d 7640!         LCR       #_os_unlock           ; |293| 
         00000c4e 0000 
    7708                      ; call occurs [#_os_unlock] ; |293| 
    7709                      .dwpsn  "WIDGET\GUI_widget_edit.c",294,2
    7710 00000c4f 9241          MOV       AL,*-SP[1]            ; |294| 
    7711              L123:    
    7712                      .dwpsn  "WIDGET\GUI_widget_edit.c",295,1
    7713 00000c50 FE82          SUBB      SP,#2                 ; |294| 
    7714                      .dwcfa  0x1d, -2
    7715 00000c51 0006          LRETR
    7716                      ; return occurs
    7717                      .dwattr DW$624, DW_AT_end_file("WIDGET\GUI_widget_edit.c")
    7718                      .dwattr DW$624, DW_AT_end_line(0x127)
    7719                      .dwattr DW$624, DW_AT_end_column(0x01)
    7720                      .dwendentry
    7721                      .dwendtag DW$624
    7722              
    7723 00000c52               .sect   ".text"
    7724                      .global _GUI_edit_clean
    7725              
    7726              DW$626  .dwtag  DW_TAG_subprogram, DW_AT_name("GUI_edit_clean"), DW_AT_symbol_name("_GUI_edit_clean")
    7727                      .dwattr DW$626, DW_AT_low_pc(_GUI_edit_clean)
    7728                      .dwattr DW$626, DW_AT_high_pc(0x00)
    7729                      .dwattr DW$626, DW_AT_begin_file("WIDGET\GUI_widget_edit.c")
    7730                      .dwattr DW$626, DW_AT_begin_line(0x12e)
    7731                      .dwattr DW$626, DW_AT_begin_column(0x06)
    7732                      .dwpsn  "WIDGET\GUI_widget_edit.c",303,1
TMS320C2000 COFF Assembler PC v4.1.3 Thu Nov 29 16:03:34 2012

Tools Copyright (c) 1996-2006 Texas Instruments Incorporated
C:\DOCUME~1\ADMINI~1\LOCALS~1\Temp\TI9882                            PAGE  150

    7733              
    7734                      .dwfde DW$CIE
    7735              
    7736              ;***************************************************************
    7737              ;* FNAME: _GUI_edit_clean               FR SIZE:   2           *
    7738              ;*                                                             *
    7739              ;* FUNCTION ENVIRONMENT                                        *
    7740              ;*                                                             *
    7741              ;* FUNCTION PROPERTIES                                         *
    7742              ;*                            0 Parameter,  2 Auto,  0 SOE     *
    7743              ;***************************************************************
    7744              
    7745              _GUI_edit_clean:
    7746                      .dwcfa  0x1d, -2
    7747                      .dwcfa  0x1c, 26, 0
    7748                      .dwcfa  0x09, 40, 26
    7749 00000c52 FE02          ADDB      SP,#2
    7750                      .dwcfa  0x1d, -4
    7751              DW$627  .dwtag  DW_TAG_variable, DW_AT_name("plist"), DW_AT_symbol_name("_plist")
    7752                      .dwattr DW$627, DW_AT_type(*DW$T$35)
    7753                      .dwattr DW$627, DW_AT_location[DW_OP_breg20 -2]
    7754                      .dwpsn  "WIDGET\GUI_widget_edit.c",304,13
    7755 00000c53 761F!         MOVW      DP,#_m_cur_hwin
         00000c54 0000 
    7756 00000c55 8A00!         MOVL      XAR4,@_m_cur_hwin     ; |304| 
    7757 00000c56 D014          MOVB      XAR0,#20              ; |304| 
    7758 00000c57 0694          MOVL      ACC,*+XAR4[AR0]       ; |304| 
    7759 00000c58 1E42          MOVL      *-SP[2],ACC           ; |304| 
    7760                      .dwpsn  "WIDGET\GUI_widget_edit.c",305,2
    7761 00000c59 8A42          MOVL      XAR4,*-SP[2]          ; |305| 
    7762 00000c5a 27C4          MOV       PL,*+XAR4[0]          ; |305| 
    7763 00000c5b 8A42          MOVL      XAR4,*-SP[2]          ; |305| 
    7764 00000c5c 8342          MOVL      XAR5,*-SP[2]          ; |305| 
    7765 00000c5d 93CC          MOV       AH,*+XAR4[1]          ; |305| 
    7766 00000c5e 8A42          MOVL      XAR4,*-SP[2]          ; |305| 
    7767 00000c5f 9D01          ADDB      AH,#1                 ; |305| 
    7768 00000c60 2DD5          MOV       T,*+XAR5[2]           ; |305| 
    7769 00000c61 80A8          MOVZ      AR7,AH                ; |305| 
    7770 00000c62 12E4          MPY       ACC,T,*+XAR4[4]       ; |305| 
    7771 00000c63 8A42          MOVL      XAR4,*-SP[2]          ; |305| 
    7772 00000c64 C442          MOVL      XAR6,*-SP[2]          ; |305| 
    7773 00000c65 94C4          ADD       AL,*+XAR4[0]          ; |305| 
    7774 00000c66 8342          MOVL      XAR5,*-SP[2]          ; |305| 
    7775 00000c67 9C01          ADDB      AL,#1                 ; |305| 
    7776 00000c68 5CA9          MOVZ      AR4,AL                ; |305| 
    7777 00000c69 92DE          MOV       AL,*+XAR6[3]          ; |305| 
    7778 00000c6a 94CD          ADD       AL,*+XAR5[1]          ; |305| 
    7779 00000c6b 9C01          ADDB      AL,#1                 ; |305| 
    7780 00000c6c 5DA9          MOVZ      AR5,AL                ; |305| 
    7781 00000c6d 92AB          MOV       AL,PL                 ; |305| 
    7782 00000c6e 93A7          MOV       AH,AR7                ; |305| 
    7783 00000c6f 7640!         LCR       #_GUI_fill_window_area ; |305| 
         00000c70 0000 
    7784                      ; call occurs [#_GUI_fill_window_area] ; |305| 
    7785                      .dwpsn  "WIDGET\GUI_widget_edit.c",308,2
TMS320C2000 COFF Assembler PC v4.1.3 Thu Nov 29 16:03:34 2012

Tools Copyright (c) 1996-2006 Texas Instruments Incorporated
C:\DOCUME~1\ADMINI~1\LOCALS~1\Temp\TI9882                            PAGE  151

    7786 00000c71 761F!         MOVW      DP,#_m_cur_hwin
         00000c72 0000 
    7787 00000c73 8A00!         MOVL      XAR4,@_m_cur_hwin     ; |308| 
    7788 00000c74 D014          MOVB      XAR0,#20              ; |308| 
    7789 00000c75 8A94          MOVL      XAR4,*+XAR4[AR0]      ; |308| 
    7790 00000c76 92F4          MOV       AL,*+XAR4[6]          ; |308| 
    7791 00000c77 7640'         LCR       #_GUI_edit_select     ; |308| 
         00000c78 0B94 
    7792                      ; call occurs [#_GUI_edit_select] ; |308| 
    7793                      .dwpsn  "WIDGET\GUI_widget_edit.c",309,2
    7794                      .dwpsn  "WIDGET\GUI_widget_edit.c",310,1
    7795 00000c79 FE82          SUBB      SP,#2
    7796                      .dwcfa  0x1d, -2
    7797 00000c7a 0006          LRETR
    7798                      ; return occurs
    7799                      .dwattr DW$626, DW_AT_end_file("WIDGET\GUI_widget_edit.c")
    7800                      .dwattr DW$626, DW_AT_end_line(0x136)
    7801                      .dwattr DW$626, DW_AT_end_column(0x01)
    7802                      .dwendentry
    7803                      .dwendtag DW$626
    7804              
    7805 00000c7b               .sect   ".text"
    7806                      .global _GUI_edit_string_display
    7807              
    7808              DW$628  .dwtag  DW_TAG_subprogram, DW_AT_name("GUI_edit_string_display"), DW_AT_symbol_name("_GUI_edit_string
    7809                      .dwattr DW$628, DW_AT_low_pc(_GUI_edit_string_display)
    7810                      .dwattr DW$628, DW_AT_high_pc(0x00)
    7811                      .dwattr DW$628, DW_AT_begin_file("WIDGET\GUI_widget_edit.c")
    7812                      .dwattr DW$628, DW_AT_begin_line(0x13f)
    7813                      .dwattr DW$628, DW_AT_begin_column(0x06)
    7814                      .dwpsn  "WIDGET\GUI_widget_edit.c",320,1
    7815              
    7816                      .dwfde DW$CIE
    7817              
    7818              ;***************************************************************
    7819              ;* FNAME: _GUI_edit_string_display      FR SIZE:  10           *
    7820              ;*                                                             *
    7821              ;* FUNCTION ENVIRONMENT                                        *
    7822              ;*                                                             *
    7823              ;* FUNCTION PROPERTIES                                         *
    7824              ;*                            0 Parameter,  8 Auto,  2 SOE     *
    7825              ;***************************************************************
    7826              
    7827              _GUI_edit_string_display:
    7828                      .dwcfa  0x1d, -2
    7829                      .dwcfa  0x1c, 26, 0
    7830                      .dwcfa  0x09, 40, 26
    7831 00000c7b B2BD          MOVL      *SP++,XAR1
    7832                      .dwcfa  0x80, 7, 2
    7833                      .dwcfa  0x1d, -4
    7834 00000c7c FE08          ADDB      SP,#8
    7835                      .dwcfa  0x1d, -12
    7836              ;* AR4   assigned to _pstr
    7837              DW$629  .dwtag  DW_TAG_formal_parameter, DW_AT_name("pstr"), DW_AT_symbol_name("_pstr")
    7838                      .dwattr DW$629, DW_AT_type(*DW$T$52)
TMS320C2000 COFF Assembler PC v4.1.3 Thu Nov 29 16:03:34 2012

Tools Copyright (c) 1996-2006 Texas Instruments Incorporated
C:\DOCUME~1\ADMINI~1\LOCALS~1\Temp\TI9882                            PAGE  152

    7839                      .dwattr DW$629, DW_AT_location[DW_OP_reg12]
    7840              DW$630  .dwtag  DW_TAG_variable, DW_AT_name("pstr"), DW_AT_symbol_name("_pstr")
    7841                      .dwattr DW$630, DW_AT_type(*DW$T$52)
    7842                      .dwattr DW$630, DW_AT_location[DW_OP_breg20 -2]
    7843              DW$631  .dwtag  DW_TAG_variable, DW_AT_name("plist"), DW_AT_symbol_name("_plist")
    7844                      .dwattr DW$631, DW_AT_type(*DW$T$35)
    7845                      .dwattr DW$631, DW_AT_location[DW_OP_breg20 -4]
    7846              DW$632  .dwtag  DW_TAG_variable, DW_AT_name("pch"), DW_AT_symbol_name("_pch")
    7847                      .dwattr DW$632, DW_AT_type(*DW$T$52)
    7848                      .dwattr DW$632, DW_AT_location[DW_OP_breg20 -6]
    7849              DW$633  .dwtag  DW_TAG_variable, DW_AT_name("pfront"), DW_AT_symbol_name("_pfront")
    7850                      .dwattr DW$633, DW_AT_type(*DW$T$30)
    7851                      .dwattr DW$633, DW_AT_location[DW_OP_breg20 -8]
    7852 00000c7d A842          MOVL      *-SP[2],XAR4          ; |320| 
    7853                      .dwpsn  "WIDGET\GUI_widget_edit.c",324,2
    7854 00000c7e 7640!         LCR       #_GUI_GetFront        ; |324| 
         00000c7f 0000 
    7855                      ; call occurs [#_GUI_GetFront] ; |324| 
    7856 00000c80 A848          MOVL      *-SP[8],XAR4          ; |324| 
    7857                      .dwpsn  "WIDGET\GUI_widget_edit.c",325,2
    7858 00000c81 0228          MOVB      ACC,#40
    7859 00000c82 7640!         LCR       #_app_malloc          ; |325| 
         00000c83 0000 
    7860                      ; call occurs [#_app_malloc] ; |325| 
    7861 00000c84 A846          MOVL      *-SP[6],XAR4          ; |325| 
    7862                      .dwpsn  "WIDGET\GUI_widget_edit.c",326,2
    7863 00000c85 0646          MOVL      ACC,*-SP[6]           ; |326| 
    7864 00000c86 EC70          BF        L129,EQ               ; |326| 
    7865                      ; branchcc occurs ; |326| 
    7866                      .dwpsn  "WIDGET\GUI_widget_edit.c",326,14
    7867                      .dwpsn  "WIDGET\GUI_widget_edit.c",327,2
    7868 00000c87 761F-         MOVW      DP,#_m_edit_lock
         00000c88 0000 
    7869 00000c89 8A14-         MOVL      XAR4,@_m_edit_lock    ; |327| 
    7870 00000c8a 7640!         LCR       #_os_lock             ; |327| 
         00000c8b 0000 
    7871                      ; call occurs [#_os_lock] ; |327| 
    7872                      .dwpsn  "WIDGET\GUI_widget_edit.c",328,2
    7873 00000c8c 8342          MOVL      XAR5,*-SP[2]          ; |328| 
    7874 00000c8d 8A46          MOVL      XAR4,*-SP[6]          ; |328| 
    7875 00000c8e 7640!         LCR       #_global_strcpy       ; |328| 
         00000c8f 0000 
    7876                      ; call occurs [#_global_strcpy] ; |328| 
    7877                      .dwpsn  "WIDGET\GUI_widget_edit.c",329,2
    7878 00000c90 761F!         MOVW      DP,#_m_cur_hwin
         00000c91 0000 
    7879 00000c92 8A00!         MOVL      XAR4,@_m_cur_hwin     ; |329| 
    7880 00000c93 D014          MOVB      XAR0,#20              ; |329| 
    7881 00000c94 0694          MOVL      ACC,*+XAR4[AR0]       ; |329| 
    7882 00000c95 1E44          MOVL      *-SP[4],ACC           ; |329| 
    7883                      .dwpsn  "WIDGET\GUI_widget_edit.c",330,2
    7884 00000c96 8A42          MOVL      XAR4,*-SP[2]          ; |330| 
    7885 00000c97 7640!         LCR       #_global_strlen       ; |330| 
         00000c98 0000 
    7886                      ; call occurs [#_global_strlen] ; |330| 
TMS320C2000 COFF Assembler PC v4.1.3 Thu Nov 29 16:03:34 2012

Tools Copyright (c) 1996-2006 Texas Instruments Incorporated
C:\DOCUME~1\ADMINI~1\LOCALS~1\Temp\TI9882                            PAGE  153

    7887 00000c99 8A44          MOVL      XAR4,*-SP[4]          ; |330| 
    7888 00000c9a 54EC          CMP       AL,*+XAR4[5]          ; |330| 
    7889 00000c9b 6907          B         L124,LOS              ; |330| 
    7890                      ; branchcc occurs ; |330| 
    7891                      .dwpsn  "WIDGET\GUI_widget_edit.c",332,3
    7892 00000c9c 8A44          MOVL      XAR4,*-SP[4]          ; |332| 
    7893 00000c9d 92EC          MOV       AL,*+XAR4[5]          ; |332| 
    7894 00000c9e 9CFF          ADDB      AL,#-1
    7895 00000c9f 58A9          MOVZ      AR0,AL                ; |332| 
    7896 00000ca0 8A46          MOVL      XAR4,*-SP[6]          ; |332| 
    7897 00000ca1 2B94          MOV       *+XAR4[AR0],#0        ; |332| 
    7898              L124:    
    7899                      .dwpsn  "WIDGET\GUI_widget_edit.c",334,5
    7900 00000ca2 8A44          MOVL      XAR4,*-SP[4]          ; |334| 
    7901 00000ca3 D008          MOVB      XAR0,#8               ; |334| 
    7902 00000ca4 8A94          MOVL      XAR4,*+XAR4[AR0]      ; |334| 
    7903 00000ca5 7640!         LCR       #_GUI_SetFront        ; |334| 
         00000ca6 0000 
    7904                      ; call occurs [#_GUI_SetFront] ; |334| 
    7905                      .dwpsn  "WIDGET\GUI_widget_edit.c",335,2
    7906 00000ca7 8A46          MOVL      XAR4,*-SP[6]          ; |335| 
    7907 00000ca8 8B44          MOVL      XAR1,*-SP[4]          ; |335| 
    7908 00000ca9 7640!         LCR       #_global_strlen       ; |335| 
         00000caa 0000 
    7909                      ; call occurs [#_global_strlen] ; |335| 
    7910 00000cab 74E9          SUB       *+XAR1[5],AL          ; |335| 
    7911                      .dwpsn  "WIDGET\GUI_widget_edit.c",336,2
    7912 00000cac 761F-         MOVW      DP,#_edit_is_start
         00000cad 0000 
    7913 00000cae 9201-         MOV       AL,@_edit_is_start    ; |336| 
    7914 00000caf EC39          BF        L127,EQ               ; |336| 
    7915                      ; branchcc occurs ; |336| 
    7916                      .dwpsn  "WIDGET\GUI_widget_edit.c",338,3
    7917 00000cb0 8A46          MOVL      XAR4,*-SP[6]          ; |338| 
    7918 00000cb1 7640!         LCR       #_GUI_string_display  ; |338| 
         00000cb2 0000 
    7919                      ; call occurs [#_GUI_string_display] ; |338| 
    7920                      .dwpsn  "WIDGET\GUI_widget_edit.c",339,3
    7921 00000cb3 761F-         MOVW      DP,#_m_edit_csr
         00000cb4 0000 
    7922 00000cb5 8A1A-         MOVL      XAR4,@_m_edit_csr     ; |339| 
    7923 00000cb6 7640!         LCR       #_GUI_cursor_state_obtain ; |339| 
         00000cb7 0000 
    7924                      ; call occurs [#_GUI_cursor_state_obtain] ; |339| 
    7925 00000cb8 5201          CMPB      AL,#1                 ; |339| 
    7926 00000cb9 ED0E          BF        L125,NEQ              ; |339| 
    7927                      ; branchcc occurs ; |339| 
    7928                      .dwpsn  "WIDGET\GUI_widget_edit.c",342,4
    7929 00000cba 761F-         MOVW      DP,#_start_edit_win
         00000cbb 0000 
    7930 00000cbc 061C-         MOVL      ACC,@_start_edit_win  ; |342| 
    7931 00000cbd 761F!         MOVW      DP,#_m_cur_hwin
         00000cbe 0000 
    7932 00000cbf C400!         MOVL      XAR6,@_m_cur_hwin     ; |342| 
    7933 00000cc0 0FA6          CMPL      ACC,XAR6              ; |342| 
TMS320C2000 COFF Assembler PC v4.1.3 Thu Nov 29 16:03:34 2012

Tools Copyright (c) 1996-2006 Texas Instruments Incorporated
C:\DOCUME~1\ADMINI~1\LOCALS~1\Temp\TI9882                            PAGE  154

    7934 00000cc1 ED06          BF        L125,NEQ              ; |342| 
    7935                      ; branchcc occurs ; |342| 
    7936                      .dwpsn  "WIDGET\GUI_widget_edit.c",344,5
    7937 00000cc2 761F-         MOVW      DP,#_m_edit_csr
         00000cc3 0000 
    7938 00000cc4 8A1A-         MOVL      XAR4,@_m_edit_csr     ; |344| 
    7939 00000cc5 7640!         LCR       #_GUI_cursor_reload   ; |344| 
         00000cc6 0000 
    7940                      ; call occurs [#_GUI_cursor_reload] ; |344| 
    7941              L125:    
    7942                      .dwpsn  "WIDGET\GUI_widget_edit.c",347,3
    7943 00000cc7 8A44          MOVL      XAR4,*-SP[4]          ; |347| 
    7944 00000cc8 92EC          MOV       AL,*+XAR4[5]          ; |347| 
    7945 00000cc9 ED22          BF        L128,NEQ              ; |347| 
    7946                      ; branchcc occurs ; |347| 
    7947                      .dwpsn  "WIDGET\GUI_widget_edit.c",349,4
    7948 00000cca 761F-         MOVW      DP,#_start_edit_win
         00000ccb 0000 
    7949 00000ccc 061C-         MOVL      ACC,@_start_edit_win  ; |349| 
    7950 00000ccd 761F!         MOVW      DP,#_m_cur_hwin
         00000cce 0000 
    7951 00000ccf C400!         MOVL      XAR6,@_m_cur_hwin     ; |349| 
    7952 00000cd0 0FA6          CMPL      ACC,XAR6              ; |349| 
    7953 00000cd1 ED1A          BF        L128,NEQ              ; |349| 
    7954                      ; branchcc occurs ; |349| 
    7955                      .dwpsn  "WIDGET\GUI_widget_edit.c",351,5
    7956 00000cd2 761F-         MOVW      DP,#_m_eidt_end_flag
         00000cd3 0000 
    7957 00000cd4 9205-         MOV       AL,@_m_eidt_end_flag  ; |351| 
    7958 00000cd5 ED03          BF        L126,NEQ              ; |351| 
    7959                      ; branchcc occurs ; |351| 
    7960                      .dwpsn  "WIDGET\GUI_widget_edit.c",351,36
    7961 00000cd6 2805-         MOV       @_m_eidt_end_flag,#1  ; |351| 
         00000cd7 0001 
    7962              L126:    
    7963                      .dwpsn  "WIDGET\GUI_widget_edit.c",352,5
    7964 00000cd8 8344          MOVL      XAR5,*-SP[4]          ; |352| 
    7965 00000cd9 8A44          MOVL      XAR4,*-SP[4]          ; |352| 
    7966 00000cda 92E5          MOV       AL,*+XAR5[4]          ; |352| 
    7967 00000cdb 9CFF          ADDB      AL,#-1
    7968 00000cdc 2DA9          MOV       T,AL                  ; |352| 
    7969 00000cdd 12D4          MPY       ACC,T,*+XAR4[2]       ; |352| 
    7970 00000cde 8A44          MOVL      XAR4,*-SP[4]          ; |352| 
    7971 00000cdf 94C4          ADD       AL,*+XAR4[0]          ; |352| 
    7972 00000ce0 8A44          MOVL      XAR4,*-SP[4]          ; |352| 
    7973 00000ce1 93CC          MOV       AH,*+XAR4[1]          ; |352| 
    7974 00000ce2 7640!         LCR       #_GUI_xy_set          ; |352| 
         00000ce3 0000 
    7975                      ; call occurs [#_GUI_xy_set] ; |352| 
    7976                      .dwpsn  "WIDGET\GUI_widget_edit.c",353,5
    7977 00000ce4 8A44          MOVL      XAR4,*-SP[4]          ; |353| 
    7978 00000ce5 28EC          MOV       *+XAR4[5],#1          ; |353| 
         00000ce6 0001 
    7979                      .dwpsn  "WIDGET\GUI_widget_edit.c",356,2
    7980 00000ce7 6F04          B         L128,UNC              ; |356| 
TMS320C2000 COFF Assembler PC v4.1.3 Thu Nov 29 16:03:34 2012

Tools Copyright (c) 1996-2006 Texas Instruments Incorporated
C:\DOCUME~1\ADMINI~1\LOCALS~1\Temp\TI9882                            PAGE  155

    7981                      ; branch occurs ; |356| 
    7982              L127:    
    7983                      .dwpsn  "WIDGET\GUI_widget_edit.c",359,3
    7984 00000ce8 8A46          MOVL      XAR4,*-SP[6]          ; |359| 
    7985 00000ce9 7640!         LCR       #_GUI_string_display  ; |359| 
         00000cea 0000 
    7986                      ; call occurs [#_GUI_string_display] ; |359| 
    7987              L128:    
    7988                      .dwpsn  "WIDGET\GUI_widget_edit.c",361,2
    7989 00000ceb 8A46          MOVL      XAR4,*-SP[6]          ; |361| 
    7990 00000cec 7640!         LCR       #_app_free            ; |361| 
         00000ced 0000 
    7991                      ; call occurs [#_app_free] ; |361| 
    7992                      .dwpsn  "WIDGET\GUI_widget_edit.c",362,2
    7993 00000cee 8A48          MOVL      XAR4,*-SP[8]          ; |362| 
    7994 00000cef 7640!         LCR       #_GUI_SetFront        ; |362| 
         00000cf0 0000 
    7995                      ; call occurs [#_GUI_SetFront] ; |362| 
    7996                      .dwpsn  "WIDGET\GUI_widget_edit.c",363,2
    7997 00000cf1 761F-         MOVW      DP,#_m_edit_lock
         00000cf2 0000 
    7998 00000cf3 8A14-         MOVL      XAR4,@_m_edit_lock    ; |363| 
    7999 00000cf4 7640!         LCR       #_os_unlock           ; |363| 
         00000cf5 0000 
    8000                      ; call occurs [#_os_unlock] ; |363| 
    8001                      .dwpsn  "WIDGET\GUI_widget_edit.c",364,2
    8002              L129:    
    8003                      .dwpsn  "WIDGET\GUI_widget_edit.c",365,1
    8004 00000cf6 FE88          SUBB      SP,#8
    8005                      .dwcfa  0x1d, -4
    8006 00000cf7 8BBE          MOVL      XAR1,*--SP
    8007                      .dwcfa  0x1d, -2
    8008                      .dwcfa  0xc0, 7
    8009 00000cf8 0006          LRETR
    8010                      ; return occurs
    8011                      .dwattr DW$628, DW_AT_end_file("WIDGET\GUI_widget_edit.c")
    8012                      .dwattr DW$628, DW_AT_end_line(0x16d)
    8013                      .dwattr DW$628, DW_AT_end_column(0x01)
    8014                      .dwendentry
    8015                      .dwendtag DW$628
    8016              
    8017 00000cf9               .sect   ".text"
    8018                      .global _GUI_edit_string_display_At
    8019              
    8020              DW$634  .dwtag  DW_TAG_subprogram, DW_AT_name("GUI_edit_string_display_At"), DW_AT_symbol_name("_GUI_edit_str
    8021                      .dwattr DW$634, DW_AT_low_pc(_GUI_edit_string_display_At)
    8022                      .dwattr DW$634, DW_AT_high_pc(0x00)
    8023                      .dwattr DW$634, DW_AT_begin_file("WIDGET\GUI_widget_edit.c")
    8024                      .dwattr DW$634, DW_AT_begin_line(0x176)
    8025                      .dwattr DW$634, DW_AT_begin_column(0x06)
    8026                      .dwpsn  "WIDGET\GUI_widget_edit.c",375,1
    8027              
    8028                      .dwfde DW$CIE
    8029              
    8030              ;***************************************************************
TMS320C2000 COFF Assembler PC v4.1.3 Thu Nov 29 16:03:34 2012

Tools Copyright (c) 1996-2006 Texas Instruments Incorporated
C:\DOCUME~1\ADMINI~1\LOCALS~1\Temp\TI9882                            PAGE  156

    8031              ;* FNAME: _GUI_edit_string_display_At   FR SIZE:   4           *
    8032              ;*                                                             *
    8033              ;* FUNCTION ENVIRONMENT                                        *
    8034              ;*                                                             *
    8035              ;* FUNCTION PROPERTIES                                         *
    8036              ;*                            0 Parameter,  3 Auto,  0 SOE     *
    8037              ;***************************************************************
    8038              
    8039              _GUI_edit_string_display_At:
    8040                      .dwcfa  0x1d, -2
    8041                      .dwcfa  0x1c, 26, 0
    8042                      .dwcfa  0x09, 40, 26
    8043 00000cf9 FE04          ADDB      SP,#4
    8044                      .dwcfa  0x1d, -6
    8045              ;* AR4   assigned to _pstr
    8046              DW$635  .dwtag  DW_TAG_formal_parameter, DW_AT_name("pstr"), DW_AT_symbol_name("_pstr")
    8047                      .dwattr DW$635, DW_AT_type(*DW$T$52)
    8048                      .dwattr DW$635, DW_AT_location[DW_OP_reg12]
    8049              ;* AL    assigned to _id
    8050              DW$636  .dwtag  DW_TAG_formal_parameter, DW_AT_name("id"), DW_AT_symbol_name("_id")
    8051                      .dwattr DW$636, DW_AT_type(*DW$T$27)
    8052                      .dwattr DW$636, DW_AT_location[DW_OP_reg0]
    8053              DW$637  .dwtag  DW_TAG_variable, DW_AT_name("pstr"), DW_AT_symbol_name("_pstr")
    8054                      .dwattr DW$637, DW_AT_type(*DW$T$52)
    8055                      .dwattr DW$637, DW_AT_location[DW_OP_breg20 -2]
    8056              DW$638  .dwtag  DW_TAG_variable, DW_AT_name("id"), DW_AT_symbol_name("_id")
    8057                      .dwattr DW$638, DW_AT_type(*DW$T$27)
    8058                      .dwattr DW$638, DW_AT_location[DW_OP_breg20 -3]
    8059 00000cfa 9643          MOV       *-SP[3],AL            ; |375| 
    8060 00000cfb A842          MOVL      *-SP[2],XAR4          ; |375| 
    8061                      .dwpsn  "WIDGET\GUI_widget_edit.c",376,2
    8062 00000cfc 9243          MOV       AL,*-SP[3]            ; |376| 
    8063 00000cfd 7640'         LCR       #_GUI_edit_select     ; |376| 
         00000cfe 0B94 
    8064                      ; call occurs [#_GUI_edit_select] ; |376| 
    8065                      .dwpsn  "WIDGET\GUI_widget_edit.c",377,2
    8066 00000cff 7640'         LCR       #_GUI_edit_clean      ; |377| 
         00000d00 0C52 
    8067                      ; call occurs [#_GUI_edit_clean] ; |377| 
    8068                      .dwpsn  "WIDGET\GUI_widget_edit.c",378,2
    8069 00000d01 8A42          MOVL      XAR4,*-SP[2]          ; |378| 
    8070 00000d02 7640'         LCR       #_GUI_edit_string_display ; |378| 
         00000d03 0C7B 
    8071                      ; call occurs [#_GUI_edit_string_display] ; |378| 
    8072                      .dwpsn  "WIDGET\GUI_widget_edit.c",379,2
    8073                      .dwpsn  "WIDGET\GUI_widget_edit.c",380,1
    8074 00000d04 FE84          SUBB      SP,#4
    8075                      .dwcfa  0x1d, -2
    8076 00000d05 0006          LRETR
    8077                      ; return occurs
    8078                      .dwattr DW$634, DW_AT_end_file("WIDGET\GUI_widget_edit.c")
    8079                      .dwattr DW$634, DW_AT_end_line(0x17c)
    8080                      .dwattr DW$634, DW_AT_end_column(0x01)
    8081                      .dwendentry
    8082                      .dwendtag DW$634
TMS320C2000 COFF Assembler PC v4.1.3 Thu Nov 29 16:03:34 2012

Tools Copyright (c) 1996-2006 Texas Instruments Incorporated
C:\DOCUME~1\ADMINI~1\LOCALS~1\Temp\TI9882                            PAGE  157

    8083              
    8084 00000d06               .sect   ".text"
    8085                      .global _GUI_edit_string_modCor_display_At
    8086              
    8087              DW$639  .dwtag  DW_TAG_subprogram, DW_AT_name("GUI_edit_string_modCor_display_At"), DW_AT_symbol_name("_GUI_e
    8088                      .dwattr DW$639, DW_AT_low_pc(_GUI_edit_string_modCor_display_At)
    8089                      .dwattr DW$639, DW_AT_high_pc(0x00)
    8090                      .dwattr DW$639, DW_AT_begin_file("WIDGET\GUI_widget_edit.c")
    8091                      .dwattr DW$639, DW_AT_begin_line(0x183)
    8092                      .dwattr DW$639, DW_AT_begin_column(0x06)
    8093                      .dwpsn  "WIDGET\GUI_widget_edit.c",388,1
    8094              
    8095                      .dwfde DW$CIE
    8096              
    8097              ;***************************************************************
    8098              ;* FNAME: _GUI_edit_string_modCor_display_At FR SIZE:   4           *
    8099              ;*                                                             *
    8100              ;* FUNCTION ENVIRONMENT                                        *
    8101              ;*                                                             *
    8102              ;* FUNCTION PROPERTIES                                         *
    8103              ;*                            0 Parameter,  4 Auto,  0 SOE     *
    8104              ;***************************************************************
    8105              
    8106              _GUI_edit_string_modCor_display_At:
    8107                      .dwcfa  0x1d, -2
    8108                      .dwcfa  0x1c, 26, 0
    8109                      .dwcfa  0x09, 40, 26
    8110 00000d06 FE04          ADDB      SP,#4
    8111                      .dwcfa  0x1d, -6
    8112              ;* AR4   assigned to _pstr
    8113              DW$640  .dwtag  DW_TAG_formal_parameter, DW_AT_name("pstr"), DW_AT_symbol_name("_pstr")
    8114                      .dwattr DW$640, DW_AT_type(*DW$T$52)
    8115                      .dwattr DW$640, DW_AT_location[DW_OP_reg12]
    8116              ;* AL    assigned to _id
    8117              DW$641  .dwtag  DW_TAG_formal_parameter, DW_AT_name("id"), DW_AT_symbol_name("_id")
    8118                      .dwattr DW$641, DW_AT_type(*DW$T$27)
    8119                      .dwattr DW$641, DW_AT_location[DW_OP_reg0]
    8120              ;* AH    assigned to _color
    8121              DW$642  .dwtag  DW_TAG_formal_parameter, DW_AT_name("color"), DW_AT_symbol_name("_color")
    8122                      .dwattr DW$642, DW_AT_type(*DW$T$11)
    8123                      .dwattr DW$642, DW_AT_location[DW_OP_reg1]
    8124              DW$643  .dwtag  DW_TAG_variable, DW_AT_name("pstr"), DW_AT_symbol_name("_pstr")
    8125                      .dwattr DW$643, DW_AT_type(*DW$T$52)
    8126                      .dwattr DW$643, DW_AT_location[DW_OP_breg20 -2]
    8127              DW$644  .dwtag  DW_TAG_variable, DW_AT_name("id"), DW_AT_symbol_name("_id")
    8128                      .dwattr DW$644, DW_AT_type(*DW$T$27)
    8129                      .dwattr DW$644, DW_AT_location[DW_OP_breg20 -3]
    8130              DW$645  .dwtag  DW_TAG_variable, DW_AT_name("color"), DW_AT_symbol_name("_color")
    8131                      .dwattr DW$645, DW_AT_type(*DW$T$11)
    8132                      .dwattr DW$645, DW_AT_location[DW_OP_breg20 -4]
    8133 00000d07 9744          MOV       *-SP[4],AH            ; |388| 
    8134 00000d08 9643          MOV       *-SP[3],AL            ; |388| 
    8135 00000d09 A842          MOVL      *-SP[2],XAR4          ; |388| 
    8136                      .dwpsn  "WIDGET\GUI_widget_edit.c",389,5
    8137 00000d0a 9244          MOV       AL,*-SP[4]            ; |389| 
TMS320C2000 COFF Assembler PC v4.1.3 Thu Nov 29 16:03:34 2012

Tools Copyright (c) 1996-2006 Texas Instruments Incorporated
C:\DOCUME~1\ADMINI~1\LOCALS~1\Temp\TI9882                            PAGE  158

    8138 00000d0b 7640!         LCR       #_GUI_set_Fgcolor     ; |389| 
         00000d0c 0000 
    8139                      ; call occurs [#_GUI_set_Fgcolor] ; |389| 
    8140                      .dwpsn  "WIDGET\GUI_widget_edit.c",390,5
    8141 00000d0d 9A01          MOVB      AL,#1                 ; |390| 
    8142 00000d0e 7640!         LCR       #_GUI_set_Bgcolor     ; |390| 
         00000d0f 0000 
    8143                      ; call occurs [#_GUI_set_Bgcolor] ; |390| 
    8144                      .dwpsn  "WIDGET\GUI_widget_edit.c",391,2
    8145 00000d10 9243          MOV       AL,*-SP[3]            ; |391| 
    8146 00000d11 7640'         LCR       #_GUI_edit_select     ; |391| 
         00000d12 0B94 
    8147                      ; call occurs [#_GUI_edit_select] ; |391| 
    8148                      .dwpsn  "WIDGET\GUI_widget_edit.c",392,2
    8149 00000d13 7640'         LCR       #_GUI_edit_clean      ; |392| 
         00000d14 0C52 
    8150                      ; call occurs [#_GUI_edit_clean] ; |392| 
    8151                      .dwpsn  "WIDGET\GUI_widget_edit.c",393,2
    8152 00000d15 8A42          MOVL      XAR4,*-SP[2]          ; |393| 
    8153 00000d16 7640'         LCR       #_GUI_edit_string_display ; |393| 
         00000d17 0C7B 
    8154                      ; call occurs [#_GUI_edit_string_display] ; |393| 
    8155                      .dwpsn  "WIDGET\GUI_widget_edit.c",394,2
    8156                      .dwpsn  "WIDGET\GUI_widget_edit.c",395,1
    8157 00000d18 FE84          SUBB      SP,#4
    8158                      .dwcfa  0x1d, -2
    8159 00000d19 0006          LRETR
    8160                      ; return occurs
    8161                      .dwattr DW$639, DW_AT_end_file("WIDGET\GUI_widget_edit.c")
    8162                      .dwattr DW$639, DW_AT_end_line(0x18b)
    8163                      .dwattr DW$639, DW_AT_end_column(0x01)
    8164                      .dwendentry
    8165                      .dwendtag DW$639
    8166              
    8167 00000d1a               .sect   ".text"
    8168                      .global _GUI_edit_int_display_At
    8169              
    8170              DW$646  .dwtag  DW_TAG_subprogram, DW_AT_name("GUI_edit_int_display_At"), DW_AT_symbol_name("_GUI_edit_int_di
    8171                      .dwattr DW$646, DW_AT_low_pc(_GUI_edit_int_display_At)
    8172                      .dwattr DW$646, DW_AT_high_pc(0x00)
    8173                      .dwattr DW$646, DW_AT_begin_file("WIDGET\GUI_widget_edit.c")
    8174                      .dwattr DW$646, DW_AT_begin_line(0x192)
    8175                      .dwattr DW$646, DW_AT_begin_column(0x06)
    8176                      .dwpsn  "WIDGET\GUI_widget_edit.c",403,1
    8177              
    8178                      .dwfde DW$CIE
    8179              
    8180              ;***************************************************************
    8181              ;* FNAME: _GUI_edit_int_display_At      FR SIZE:  24           *
    8182              ;*                                                             *
    8183              ;* FUNCTION ENVIRONMENT                                        *
    8184              ;*                                                             *
    8185              ;* FUNCTION PROPERTIES                                         *
    8186              ;*                            0 Parameter, 23 Auto,  0 SOE     *
    8187              ;***************************************************************
TMS320C2000 COFF Assembler PC v4.1.3 Thu Nov 29 16:03:34 2012

Tools Copyright (c) 1996-2006 Texas Instruments Incorporated
C:\DOCUME~1\ADMINI~1\LOCALS~1\Temp\TI9882                            PAGE  159

    8188              
    8189              _GUI_edit_int_display_At:
    8190                      .dwcfa  0x1d, -2
    8191                      .dwcfa  0x1c, 26, 0
    8192                      .dwcfa  0x09, 40, 26
    8193 00000d1a FE18          ADDB      SP,#24
    8194                      .dwcfa  0x1d, -26
    8195              ;* AL    assigned to _data
    8196              DW$647  .dwtag  DW_TAG_formal_parameter, DW_AT_name("data"), DW_AT_symbol_name("_data")
    8197                      .dwattr DW$647, DW_AT_type(*DW$T$12)
    8198                      .dwattr DW$647, DW_AT_location[DW_OP_reg0]
    8199              ;* AR4   assigned to _id
    8200              DW$648  .dwtag  DW_TAG_formal_parameter, DW_AT_name("id"), DW_AT_symbol_name("_id")
    8201                      .dwattr DW$648, DW_AT_type(*DW$T$27)
    8202                      .dwattr DW$648, DW_AT_location[DW_OP_reg12]
    8203              DW$649  .dwtag  DW_TAG_variable, DW_AT_name("data"), DW_AT_symbol_name("_data")
    8204                      .dwattr DW$649, DW_AT_type(*DW$T$12)
    8205                      .dwattr DW$649, DW_AT_location[DW_OP_breg20 -2]
    8206              DW$650  .dwtag  DW_TAG_variable, DW_AT_name("id"), DW_AT_symbol_name("_id")
    8207                      .dwattr DW$650, DW_AT_type(*DW$T$27)
    8208                      .dwattr DW$650, DW_AT_location[DW_OP_breg20 -3]
    8209              DW$651  .dwtag  DW_TAG_variable, DW_AT_name("pstr"), DW_AT_symbol_name("_pstr")
    8210                      .dwattr DW$651, DW_AT_type(*DW$T$198)
    8211                      .dwattr DW$651, DW_AT_location[DW_OP_breg20 -23]
    8212 00000d1b 7C43          MOV       *-SP[3],AR4           ; |403| 
    8213 00000d1c 1E42          MOVL      *-SP[2],ACC           ; |403| 
    8214                      .dwpsn  "WIDGET\GUI_widget_edit.c",404,10
    8215 00000d1d 5CAD          MOVZ      AR4,SP                ; |404| 
    8216 00000d1e 76C0+         MOVL      XAR7,#_$T0$1          ; |404| 
         00000d1f 001E 
    8217 00000d20 DC97          SUBB      XAR4,#23              ; |404| 
    8218 00000d21 F613          RPT       #19
    8219 00000d22 2484  ||     PREAD     *XAR4++,*XAR7         ; |404| 
    8220                      .dwpsn  "WIDGET\GUI_widget_edit.c",405,2
    8221 00000d23 9243          MOV       AL,*-SP[3]            ; |405| 
    8222 00000d24 7640'         LCR       #_GUI_edit_select     ; |405| 
         00000d25 0B94 
    8223                      ; call occurs [#_GUI_edit_select] ; |405| 
    8224                      .dwpsn  "WIDGET\GUI_widget_edit.c",406,2
    8225 00000d26 7640'         LCR       #_GUI_edit_clean      ; |406| 
         00000d27 0C52 
    8226                      ; call occurs [#_GUI_edit_clean] ; |406| 
    8227                      .dwpsn  "WIDGET\GUI_widget_edit.c",407,2
    8228 00000d28 5CAD          MOVZ      AR4,SP                ; |407| 
    8229 00000d29 0642          MOVL      ACC,*-SP[2]           ; |407| 
    8230 00000d2a DC97          SUBB      XAR4,#23              ; |407| 
    8231 00000d2b 7640!         LCR       #_global_ltoa         ; |407| 
         00000d2c 0000 
    8232                      ; call occurs [#_global_ltoa] ; |407| 
    8233                      .dwpsn  "WIDGET\GUI_widget_edit.c",408,2
    8234 00000d2d 5CAD          MOVZ      AR4,SP                ; |408| 
    8235 00000d2e DC97          SUBB      XAR4,#23              ; |408| 
    8236 00000d2f 7640'         LCR       #_GUI_edit_string_display ; |408| 
         00000d30 0C7B 
    8237                      ; call occurs [#_GUI_edit_string_display] ; |408| 
TMS320C2000 COFF Assembler PC v4.1.3 Thu Nov 29 16:03:34 2012

Tools Copyright (c) 1996-2006 Texas Instruments Incorporated
C:\DOCUME~1\ADMINI~1\LOCALS~1\Temp\TI9882                            PAGE  160

    8238                      .dwpsn  "WIDGET\GUI_widget_edit.c",409,2
    8239                      .dwpsn  "WIDGET\GUI_widget_edit.c",410,1
    8240 00000d31 FE98          SUBB      SP,#24
    8241                      .dwcfa  0x1d, -2
    8242 00000d32 0006          LRETR
    8243                      ; return occurs
    8244                      .dwattr DW$646, DW_AT_end_file("WIDGET\GUI_widget_edit.c")
    8245                      .dwattr DW$646, DW_AT_end_line(0x19a)
    8246                      .dwattr DW$646, DW_AT_end_column(0x01)
    8247                      .dwendentry
    8248                      .dwendtag DW$646
    8249              
    8250 00000d33               .sect   ".text"
    8251                      .global _GUI_edit_float_display_at
    8252              
    8253              DW$652  .dwtag  DW_TAG_subprogram, DW_AT_name("GUI_edit_float_display_at"), DW_AT_symbol_name("_GUI_edit_floa
    8254                      .dwattr DW$652, DW_AT_low_pc(_GUI_edit_float_display_at)
    8255                      .dwattr DW$652, DW_AT_high_pc(0x00)
    8256                      .dwattr DW$652, DW_AT_begin_file("WIDGET\GUI_widget_edit.c")
    8257                      .dwattr DW$652, DW_AT_begin_line(0x1a3)
    8258                      .dwattr DW$652, DW_AT_begin_column(0x06)
    8259                      .dwpsn  "WIDGET\GUI_widget_edit.c",420,1
    8260              
    8261                      .dwfde DW$CIE
    8262              
    8263              ;***************************************************************
    8264              ;* FNAME: _GUI_edit_float_display_at    FR SIZE:  38           *
    8265              ;*                                                             *
    8266              ;* FUNCTION ENVIRONMENT                                        *
    8267              ;*                                                             *
    8268              ;* FUNCTION PROPERTIES                                         *
    8269              ;*                            2 Parameter, 35 Auto,  0 SOE     *
    8270              ;***************************************************************
    8271              
    8272              _GUI_edit_float_display_at:
    8273                      .dwcfa  0x1d, -2
    8274                      .dwcfa  0x1c, 26, 0
    8275                      .dwcfa  0x09, 40, 26
    8276 00000d33 FE26          ADDB      SP,#38
    8277                      .dwcfa  0x1d, -40
    8278              ;* AL    assigned to _fdata
    8279              DW$653  .dwtag  DW_TAG_formal_parameter, DW_AT_name("fdata"), DW_AT_symbol_name("_fdata")
    8280                      .dwattr DW$653, DW_AT_type(*DW$T$16)
    8281                      .dwattr DW$653, DW_AT_location[DW_OP_reg0]
    8282              ;* AR4   assigned to _id
    8283              DW$654  .dwtag  DW_TAG_formal_parameter, DW_AT_name("id"), DW_AT_symbol_name("_id")
    8284                      .dwattr DW$654, DW_AT_type(*DW$T$27)
    8285                      .dwattr DW$654, DW_AT_location[DW_OP_reg12]
    8286              ;* AR5   assigned to _ch_len
    8287              DW$655  .dwtag  DW_TAG_formal_parameter, DW_AT_name("ch_len"), DW_AT_symbol_name("_ch_len")
    8288                      .dwattr DW$655, DW_AT_type(*DW$T$27)
    8289                      .dwattr DW$655, DW_AT_location[DW_OP_reg14]
    8290              DW$656  .dwtag  DW_TAG_variable, DW_AT_name("fdata"), DW_AT_symbol_name("_fdata")
    8291                      .dwattr DW$656, DW_AT_type(*DW$T$16)
    8292                      .dwattr DW$656, DW_AT_location[DW_OP_breg20 -4]
TMS320C2000 COFF Assembler PC v4.1.3 Thu Nov 29 16:03:34 2012

Tools Copyright (c) 1996-2006 Texas Instruments Incorporated
C:\DOCUME~1\ADMINI~1\LOCALS~1\Temp\TI9882                            PAGE  161

    8293              DW$657  .dwtag  DW_TAG_variable, DW_AT_name("id"), DW_AT_symbol_name("_id")
    8294                      .dwattr DW$657, DW_AT_type(*DW$T$27)
    8295                      .dwattr DW$657, DW_AT_location[DW_OP_breg20 -5]
    8296              DW$658  .dwtag  DW_TAG_variable, DW_AT_name("ch_len"), DW_AT_symbol_name("_ch_len")
    8297                      .dwattr DW$658, DW_AT_type(*DW$T$27)
    8298                      .dwattr DW$658, DW_AT_location[DW_OP_breg20 -6]
    8299              DW$659  .dwtag  DW_TAG_variable, DW_AT_name("pst"), DW_AT_symbol_name("_pst")
    8300                      .dwattr DW$659, DW_AT_type(*DW$T$198)
    8301                      .dwattr DW$659, DW_AT_location[DW_OP_breg20 -26]
    8302              DW$660  .dwtag  DW_TAG_variable, DW_AT_name("str"), DW_AT_symbol_name("_str")
    8303                      .dwattr DW$660, DW_AT_type(*DW$T$200)
    8304                      .dwattr DW$660, DW_AT_location[DW_OP_breg20 -36]
    8305              DW$661  .dwtag  DW_TAG_variable, DW_AT_name("len"), DW_AT_symbol_name("_len")
    8306                      .dwattr DW$661, DW_AT_type(*DW$T$27)
    8307                      .dwattr DW$661, DW_AT_location[DW_OP_breg20 -37]
    8308 00000d34 7D46          MOV       *-SP[6],AR5           ; |420| 
    8309 00000d35 7C45          MOV       *-SP[5],AR4           ; |420| 
    8310 00000d36 1E44          MOVL      *-SP[4],ACC           ; |420| 
    8311                      .dwpsn  "WIDGET\GUI_widget_edit.c",421,7
    8312 00000d37 5CAD          MOVZ      AR4,SP                ; |421| 
    8313 00000d38 76C0+         MOVL      XAR7,#_$T1$2          ; |421| 
         00000d39 000A 
    8314 00000d3a DC9A          SUBB      XAR4,#26              ; |421| 
    8315 00000d3b F613          RPT       #19
    8316 00000d3c 2484  ||     PREAD     *XAR4++,*XAR7         ; |421| 
    8317                      .dwpsn  "WIDGET\GUI_widget_edit.c",422,7
    8318 00000d3d 5CAD          MOVZ      AR4,SP                ; |422| 
    8319 00000d3e 76C0+         MOVL      XAR7,#_$T2$3          ; |422| 
         00000d3f 0000 
    8320 00000d40 DCA4          SUBB      XAR4,#36              ; |422| 
    8321 00000d41 F609          RPT       #9
    8322 00000d42 2484  ||     PREAD     *XAR4++,*XAR7         ; |422| 
    8323                      .dwpsn  "WIDGET\GUI_widget_edit.c",424,2
    8324 00000d43 9245          MOV       AL,*-SP[5]            ; |424| 
    8325 00000d44 7640'         LCR       #_GUI_edit_select     ; |424| 
         00000d45 0B94 
    8326                      ; call occurs [#_GUI_edit_select] ; |424| 
    8327                      .dwpsn  "WIDGET\GUI_widget_edit.c",425,2
    8328 00000d46 7640'         LCR       #_GUI_edit_clean      ; |425| 
         00000d47 0C52 
    8329                      ; call occurs [#_GUI_edit_clean] ; |425| 
    8330                      .dwpsn  "WIDGET\GUI_widget_edit.c",426,2
    8331 00000d48 9A00          MOV       AL,#0
    8332 00000d49 9B00          MOV       AH,#0
    8333 00000d4a 1E42          MOVL      *-SP[2],ACC           ; |426| 
    8334 00000d4b 0644          MOVL      ACC,*-SP[4]           ; |426| 
    8335 00000d4c 7640!         LCR       #FS$$CMP              ; |426| 
         00000d4d 0000 
    8336                      ; call occurs [#FS$$CMP] ; |426| 
    8337 00000d4e 5200          CMPB      AL,#0                 ; |426| 
    8338 00000d4f 6503          B         L130,LEQ              ; |426| 
    8339                      ; branchcc occurs ; |426| 
    8340 00000d50 C444          MOVL      XAR6,*-SP[4]          ; |426| 
    8341 00000d51 6F05          B         L131,UNC              ; |426| 
    8342                      ; branch occurs ; |426| 
TMS320C2000 COFF Assembler PC v4.1.3 Thu Nov 29 16:03:34 2012

Tools Copyright (c) 1996-2006 Texas Instruments Incorporated
C:\DOCUME~1\ADMINI~1\LOCALS~1\Temp\TI9882                            PAGE  162

    8343 00000d52       L130:    
    8344 00000d52 0644          MOVL      ACC,*-SP[4]           ; |426| 
    8345 00000d53 7640!         LCR       #FS$$NEG              ; |426| 
         00000d54 0000 
    8346                      ; call occurs [#FS$$NEG] ; |426| 
    8347 00000d55 1EA6          MOVL      XAR6,ACC              ; |426| 
    8348 00000d56       L131:    
    8349 00000d56 28A9          MOV       AL,#4719
         00000d57 126F 
    8350 00000d58 28A8          MOV       AH,#14979
         00000d59 3A83 
    8351 00000d5a 1E42          MOVL      *-SP[2],ACC           ; |426| 
    8352 00000d5b 06A6          MOVL      ACC,XAR6              ; |426| 
    8353 00000d5c 7640!         LCR       #FS$$CMP              ; |426| 
         00000d5d 0000 
    8354                      ; call occurs [#FS$$CMP] ; |426| 
    8355 00000d5e 5200          CMPB      AL,#0                 ; |426| 
    8356 00000d5f 6556          B         L137,LEQ              ; |426| 
    8357                      ; branchcc occurs ; |426| 
    8358 00000d60 9A00          MOV       AL,#0
    8359 00000d61 9B00          MOV       AH,#0
    8360 00000d62 1E42          MOVL      *-SP[2],ACC           ; |426| 
    8361 00000d63 0644          MOVL      ACC,*-SP[4]           ; |426| 
    8362 00000d64 7640!         LCR       #FS$$CMP              ; |426| 
         00000d65 0000 
    8363                      ; call occurs [#FS$$CMP] ; |426| 
    8364 00000d66 5200          CMPB      AL,#0                 ; |426| 
    8365 00000d67 6503          B         L132,LEQ              ; |426| 
    8366                      ; branchcc occurs ; |426| 
    8367 00000d68 C444          MOVL      XAR6,*-SP[4]          ; |426| 
    8368 00000d69 6F05          B         L133,UNC              ; |426| 
    8369                      ; branch occurs ; |426| 
    8370 00000d6a       L132:    
    8371 00000d6a 0644          MOVL      ACC,*-SP[4]           ; |426| 
    8372 00000d6b 7640!         LCR       #FS$$NEG              ; |426| 
         00000d6c 0000 
    8373                      ; call occurs [#FS$$NEG] ; |426| 
    8374 00000d6d 1EA6          MOVL      XAR6,ACC              ; |426| 
    8375 00000d6e       L133:    
    8376 00000d6e 28A9          MOV       AL,#38528
         00000d6f 9680 
    8377 00000d70 28A8          MOV       AH,#19096
         00000d71 4A98 
    8378 00000d72 1E42          MOVL      *-SP[2],ACC           ; |426| 
    8379 00000d73 06A6          MOVL      ACC,XAR6              ; |426| 
    8380 00000d74 7640!         LCR       #FS$$CMP              ; |426| 
         00000d75 0000 
    8381                      ; call occurs [#FS$$CMP] ; |426| 
    8382 00000d76 5200          CMPB      AL,#0                 ; |426| 
    8383 00000d77 633E          B         L137,GEQ              ; |426| 
    8384                      ; branchcc occurs ; |426| 
    8385                      .dwpsn  "WIDGET\GUI_widget_edit.c",428,3
    8386 00000d78 5CAD          MOVZ      AR4,SP                ; |428| 
    8387 00000d79 0644          MOVL      ACC,*-SP[4]           ; |428| 
    8388 00000d7a D504          MOVB      XAR5,#4               ; |428| 
TMS320C2000 COFF Assembler PC v4.1.3 Thu Nov 29 16:03:34 2012

Tools Copyright (c) 1996-2006 Texas Instruments Incorporated
C:\DOCUME~1\ADMINI~1\LOCALS~1\Temp\TI9882                            PAGE  163

    8389 00000d7b DC9A          SUBB      XAR4,#26              ; |428| 
    8390 00000d7c 7640!         LCR       #_global_ftoa         ; |428| 
         00000d7d 0000 
    8391                      ; call occurs [#_global_ftoa] ; |428| 
    8392                      .dwpsn  "WIDGET\GUI_widget_edit.c",429,3
    8393 00000d7e 5CAD          MOVZ      AR4,SP                ; |429| 
    8394 00000d7f DC9A          SUBB      XAR4,#26              ; |429| 
    8395 00000d80 7640!         LCR       #_global_strlen       ; |429| 
         00000d81 0000 
    8396                      ; call occurs [#_global_strlen] ; |429| 
    8397 00000d82 9665          MOV       *-SP[37],AL           ; |429| 
    8398                      .dwpsn  "WIDGET\GUI_widget_edit.c",430,3
    8399 00000d83 9246          MOV       AL,*-SP[6]            ; |430| 
    8400 00000d84 5465          CMP       AL,*-SP[37]           ; |430| 
    8401 00000d85 6705          B         L134,HIS              ; |430| 
    8402                      ; branchcc occurs ; |430| 
    8403                      .dwpsn  "WIDGET\GUI_widget_edit.c",432,4
    8404 00000d86 5CAD          MOVZ      AR4,SP                ; |432| 
    8405 00000d87 5846          MOVZ      AR0,*-SP[6]           ; |432| 
    8406 00000d88 DC9A          SUBB      XAR4,#26              ; |432| 
    8407 00000d89 2B94          MOV       *+XAR4[AR0],#0        ; |432| 
    8408              L134:    
    8409                      .dwpsn  "WIDGET\GUI_widget_edit.c",434,3
    8410 00000d8a 5CAD          MOVZ      AR4,SP                ; |434| 
    8411 00000d8b 9246          MOV       AL,*-SP[6]            ; |434| 
    8412 00000d8c 9CFF          ADDB      AL,#-1
    8413 00000d8d 58A9          MOVZ      AR0,AL                ; |434| 
    8414 00000d8e DC9A          SUBB      XAR4,#26              ; |434| 
    8415 00000d8f 9294          MOV       AL,*+XAR4[AR0]        ; |434| 
    8416 00000d90 522E          CMPB      AL,#46                ; |434| 
    8417 00000d91 ED08          BF        L135,NEQ              ; |434| 
    8418                      ; branchcc occurs ; |434| 
    8419                      .dwpsn  "WIDGET\GUI_widget_edit.c",436,4
    8420 00000d92 5CAD          MOVZ      AR4,SP                ; |436| 
    8421 00000d93 9246          MOV       AL,*-SP[6]            ; |436| 
    8422 00000d94 9CFF          ADDB      AL,#-1
    8423 00000d95 58A9          MOVZ      AR0,AL                ; |436| 
    8424 00000d96 DC9A          SUBB      XAR4,#26              ; |436| 
    8425 00000d97 2B94          MOV       *+XAR4[AR0],#0        ; |436| 
    8426                      .dwpsn  "WIDGET\GUI_widget_edit.c",437,3
    8427 00000d98 6F19          B         L136,UNC              ; |437| 
    8428                      ; branch occurs ; |437| 
    8429              L135:    
    8430                      .dwpsn  "WIDGET\GUI_widget_edit.c",438,14
    8431 00000d99 9246          MOV       AL,*-SP[6]            ; |438| 
    8432 00000d9a 5465          CMP       AL,*-SP[37]           ; |438| 
    8433 00000d9b 6916          B         L136,LOS              ; |438| 
    8434                      ; branchcc occurs ; |438| 
    8435 00000d9c 5CAD          MOVZ      AR4,SP                ; |438| 
    8436 00000d9d 8F40+         MOVL      XAR5,#FSL1            ; |438| 
         00000d9e 0032 
    8437 00000d9f DC9A          SUBB      XAR4,#26              ; |438| 
    8438 00000da0 7640!         LCR       #_global_string_locate_first ; |438| 
         00000da1 0000 
    8439                      ; call occurs [#_global_string_locate_first] ; |438| 
TMS320C2000 COFF Assembler PC v4.1.3 Thu Nov 29 16:03:34 2012

Tools Copyright (c) 1996-2006 Texas Instruments Incorporated
C:\DOCUME~1\ADMINI~1\LOCALS~1\Temp\TI9882                            PAGE  164

    8440 00000da2 A8A9          MOVL      ACC,XAR4              ; |438| 
    8441 00000da3 EC0E          BF        L136,EQ               ; |438| 
    8442                      ; branchcc occurs ; |438| 
    8443                      .dwpsn  "WIDGET\GUI_widget_edit.c",440,13
    8444 00000da4 5CAD          MOVZ      AR4,SP                ; |440| 
    8445 00000da5 9346          MOV       AH,*-SP[6]            ; |440| 
    8446 00000da6 9F65          SUB       AH,*-SP[37]           ; |440| 
    8447 00000da7 DCA4          SUBB      XAR4,#36              ; |440| 
    8448 00000da8 9A30          MOVB      AL,#48                ; |440| 
    8449 00000da9 7640!         LCR       #_global_memset       ; |440| 
         00000daa 0000 
    8450                      ; call occurs [#_global_memset] ; |440| 
    8451                      .dwpsn  "WIDGET\GUI_widget_edit.c",441,4
    8452 00000dab 5DAD          MOVZ      AR5,SP                ; |441| 
    8453 00000dac 5CAD          MOVZ      AR4,SP                ; |441| 
    8454 00000dad DDA4          SUBB      XAR5,#36              ; |441| 
    8455 00000dae DC9A          SUBB      XAR4,#26              ; |441| 
    8456 00000daf 7640!         LCR       #_global_strcat       ; |441| 
         00000db0 0000 
    8457                      ; call occurs [#_global_strcat] ; |441| 
    8458              L136:    
    8459                      .dwpsn  "WIDGET\GUI_widget_edit.c",443,3
    8460 00000db1 5CAD          MOVZ      AR4,SP                ; |443| 
    8461 00000db2 DC9A          SUBB      XAR4,#26              ; |443| 
    8462 00000db3 7640'         LCR       #_GUI_edit_string_display ; |443| 
         00000db4 0C7B 
    8463                      ; call occurs [#_GUI_edit_string_display] ; |443| 
    8464                      .dwpsn  "WIDGET\GUI_widget_edit.c",445,2
    8465              L137:    
    8466                      .dwpsn  "WIDGET\GUI_widget_edit.c",446,1
    8467 00000db5 FEA6          SUBB      SP,#38
    8468                      .dwcfa  0x1d, -2
    8469 00000db6 0006          LRETR
    8470                      ; return occurs
    8471                      .dwattr DW$652, DW_AT_end_file("WIDGET\GUI_widget_edit.c")
    8472                      .dwattr DW$652, DW_AT_end_line(0x1be)
    8473                      .dwattr DW$652, DW_AT_end_column(0x01)
    8474                      .dwendentry
    8475                      .dwendtag DW$652
    8476              
    8477 00000db7               .sect   ".text"
    8478                      .global _GUI_edit_string_redisplay
    8479              
    8480              DW$662  .dwtag  DW_TAG_subprogram, DW_AT_name("GUI_edit_string_redisplay"), DW_AT_symbol_name("_GUI_edit_stri
    8481                      .dwattr DW$662, DW_AT_low_pc(_GUI_edit_string_redisplay)
    8482                      .dwattr DW$662, DW_AT_high_pc(0x00)
    8483                      .dwattr DW$662, DW_AT_begin_file("WIDGET\GUI_widget_edit.c")
    8484                      .dwattr DW$662, DW_AT_begin_line(0x1c7)
    8485                      .dwattr DW$662, DW_AT_begin_column(0x06)
    8486                      .dwpsn  "WIDGET\GUI_widget_edit.c",456,1
    8487              
    8488                      .dwfde DW$CIE
    8489              
    8490              ;***************************************************************
    8491              ;* FNAME: _GUI_edit_string_redisplay    FR SIZE:   2           *
TMS320C2000 COFF Assembler PC v4.1.3 Thu Nov 29 16:03:34 2012

Tools Copyright (c) 1996-2006 Texas Instruments Incorporated
C:\DOCUME~1\ADMINI~1\LOCALS~1\Temp\TI9882                            PAGE  165

    8492              ;*                                                             *
    8493              ;* FUNCTION ENVIRONMENT                                        *
    8494              ;*                                                             *
    8495              ;* FUNCTION PROPERTIES                                         *
    8496              ;*                            0 Parameter,  2 Auto,  0 SOE     *
    8497              ;***************************************************************
    8498              
    8499              _GUI_edit_string_redisplay:
    8500                      .dwcfa  0x1d, -2
    8501                      .dwcfa  0x1c, 26, 0
    8502                      .dwcfa  0x09, 40, 26
    8503 00000db7 FE02          ADDB      SP,#2
    8504                      .dwcfa  0x1d, -4
    8505              ;* AR4   assigned to _pstr
    8506              DW$663  .dwtag  DW_TAG_formal_parameter, DW_AT_name("pstr"), DW_AT_symbol_name("_pstr")
    8507                      .dwattr DW$663, DW_AT_type(*DW$T$52)
    8508                      .dwattr DW$663, DW_AT_location[DW_OP_reg12]
    8509              DW$664  .dwtag  DW_TAG_variable, DW_AT_name("pstr"), DW_AT_symbol_name("_pstr")
    8510                      .dwattr DW$664, DW_AT_type(*DW$T$52)
    8511                      .dwattr DW$664, DW_AT_location[DW_OP_breg20 -2]
    8512 00000db8 A842          MOVL      *-SP[2],XAR4          ; |456| 
    8513                      .dwpsn  "WIDGET\GUI_widget_edit.c",457,2
    8514 00000db9 7640'         LCR       #_GUI_edit_clean      ; |457| 
         00000dba 0C52 
    8515                      ; call occurs [#_GUI_edit_clean] ; |457| 
    8516                      .dwpsn  "WIDGET\GUI_widget_edit.c",458,2
    8517 00000dbb 8A42          MOVL      XAR4,*-SP[2]          ; |458| 
    8518 00000dbc 7640'         LCR       #_GUI_edit_string_display ; |458| 
         00000dbd 0C7B 
    8519                      ; call occurs [#_GUI_edit_string_display] ; |458| 
    8520                      .dwpsn  "WIDGET\GUI_widget_edit.c",459,2
    8521                      .dwpsn  "WIDGET\GUI_widget_edit.c",460,1
    8522 00000dbe FE82          SUBB      SP,#2
    8523                      .dwcfa  0x1d, -2
    8524 00000dbf 0006          LRETR
    8525                      ; return occurs
    8526                      .dwattr DW$662, DW_AT_end_file("WIDGET\GUI_widget_edit.c")
    8527                      .dwattr DW$662, DW_AT_end_line(0x1cc)
    8528                      .dwattr DW$662, DW_AT_end_column(0x01)
    8529                      .dwendentry
    8530                      .dwendtag DW$662
    8531              
    8532 00000dc0               .sect   ".text"
    8533                      .global _GUI_edit_csr_shift
    8534              
    8535              DW$665  .dwtag  DW_TAG_subprogram, DW_AT_name("GUI_edit_csr_shift"), DW_AT_symbol_name("_GUI_edit_csr_shift")
    8536                      .dwattr DW$665, DW_AT_low_pc(_GUI_edit_csr_shift)
    8537                      .dwattr DW$665, DW_AT_high_pc(0x00)
    8538                      .dwattr DW$665, DW_AT_begin_file("WIDGET\GUI_widget_edit.c")
    8539                      .dwattr DW$665, DW_AT_begin_line(0x1d5)
    8540                      .dwattr DW$665, DW_AT_begin_column(0x06)
    8541                      .dwpsn  "WIDGET\GUI_widget_edit.c",470,1
    8542              
    8543                      .dwfde DW$CIE
    8544              
TMS320C2000 COFF Assembler PC v4.1.3 Thu Nov 29 16:03:34 2012

Tools Copyright (c) 1996-2006 Texas Instruments Incorporated
C:\DOCUME~1\ADMINI~1\LOCALS~1\Temp\TI9882                            PAGE  166

    8545              ;***************************************************************
    8546              ;* FNAME: _GUI_edit_csr_shift           FR SIZE:   4           *
    8547              ;*                                                             *
    8548              ;* FUNCTION ENVIRONMENT                                        *
    8549              ;*                                                             *
    8550              ;* FUNCTION PROPERTIES                                         *
    8551              ;*                            0 Parameter,  4 Auto,  0 SOE     *
    8552              ;***************************************************************
    8553              
    8554              _GUI_edit_csr_shift:
    8555                      .dwcfa  0x1d, -2
    8556                      .dwcfa  0x1c, 26, 0
    8557                      .dwcfa  0x09, 40, 26
    8558 00000dc0 FE04          ADDB      SP,#4
    8559                      .dwcfa  0x1d, -6
    8560              ;* AL    assigned to _flag
    8561              DW$666  .dwtag  DW_TAG_formal_parameter, DW_AT_name("flag"), DW_AT_symbol_name("_flag")
    8562                      .dwattr DW$666, DW_AT_type(*DW$T$27)
    8563                      .dwattr DW$666, DW_AT_location[DW_OP_reg0]
    8564              DW$667  .dwtag  DW_TAG_variable, DW_AT_name("flag"), DW_AT_symbol_name("_flag")
    8565                      .dwattr DW$667, DW_AT_type(*DW$T$27)
    8566                      .dwattr DW$667, DW_AT_location[DW_OP_breg20 -1]
    8567              DW$668  .dwtag  DW_TAG_variable, DW_AT_name("plist"), DW_AT_symbol_name("_plist")
    8568                      .dwattr DW$668, DW_AT_type(*DW$T$35)
    8569                      .dwattr DW$668, DW_AT_location[DW_OP_breg20 -4]
    8570 00000dc1 9641          MOV       *-SP[1],AL            ; |470| 
    8571                      .dwpsn  "WIDGET\GUI_widget_edit.c",472,2
    8572 00000dc2 761F-         MOVW      DP,#_m_edit_lock
         00000dc3 0000 
    8573 00000dc4 8A14-         MOVL      XAR4,@_m_edit_lock    ; |472| 
    8574 00000dc5 7640!         LCR       #_os_lock             ; |472| 
         00000dc6 0000 
    8575                      ; call occurs [#_os_lock] ; |472| 
    8576                      .dwpsn  "WIDGET\GUI_widget_edit.c",473,2
    8577 00000dc7 761F-         MOVW      DP,#_start_edit_win
         00000dc8 0000 
    8578 00000dc9 8A1C-         MOVL      XAR4,@_start_edit_win ; |473| 
    8579 00000dca D014          MOVB      XAR0,#20              ; |473| 
    8580 00000dcb 0694          MOVL      ACC,*+XAR4[AR0]       ; |473| 
    8581 00000dcc 1E44          MOVL      *-SP[4],ACC           ; |473| 
    8582                      .dwpsn  "WIDGET\GUI_widget_edit.c",474,2
    8583 00000dcd 9241          MOV       AL,*-SP[1]            ; |474| 
    8584 00000dce 5202          CMPB      AL,#2                 ; |474| 
    8585 00000dcf ED0C          BF        L138,NEQ              ; |474| 
    8586                      ; branchcc occurs ; |474| 
    8587                      .dwpsn  "WIDGET\GUI_widget_edit.c",476,3
    8588 00000dd0 8A44          MOVL      XAR4,*-SP[4]          ; |476| 
    8589 00000dd1 92EC          MOV       AL,*+XAR4[5]          ; |476| 
    8590 00000dd2 5201          CMPB      AL,#1                 ; |476| 
    8591 00000dd3 6917          B         L139,LOS              ; |476| 
    8592                      ; branchcc occurs ; |476| 
    8593                      .dwpsn  "WIDGET\GUI_widget_edit.c",478,4
    8594 00000dd4 8A44          MOVL      XAR4,*-SP[4]          ; |478| 
    8595 00000dd5 92D4          MOV       AL,*+XAR4[2]          ; |478| 
    8596 00000dd6 7640!         LCR       #_GUI_x_shift         ; |478| 
TMS320C2000 COFF Assembler PC v4.1.3 Thu Nov 29 16:03:34 2012

Tools Copyright (c) 1996-2006 Texas Instruments Incorporated
C:\DOCUME~1\ADMINI~1\LOCALS~1\Temp\TI9882                            PAGE  167

         00000dd7 0000 
    8597                      ; call occurs [#_GUI_x_shift] ; |478| 
    8598                      .dwpsn  "WIDGET\GUI_widget_edit.c",479,4
    8599 00000dd8 8A44          MOVL      XAR4,*-SP[4]          ; |479| 
    8600 00000dd9 0BEC          DEC       *+XAR4[5]             ; |479| 
    8601                      .dwpsn  "WIDGET\GUI_widget_edit.c",481,2
    8602 00000dda 6F10          B         L139,UNC              ; |481| 
    8603                      ; branch occurs ; |481| 
    8604              L138:    
    8605                      .dwpsn  "WIDGET\GUI_widget_edit.c",482,8
    8606 00000ddb 5201          CMPB      AL,#1                 ; |482| 
    8607 00000ddc ED0E          BF        L139,NEQ              ; |482| 
    8608                      ; branchcc occurs ; |482| 
    8609                      .dwpsn  "WIDGET\GUI_widget_edit.c",484,3
    8610 00000ddd 8A44          MOVL      XAR4,*-SP[4]          ; |484| 
    8611 00000dde 92E4          MOV       AL,*+XAR4[4]          ; |484| 
    8612 00000ddf 8A44          MOVL      XAR4,*-SP[4]          ; |484| 
    8613 00000de0 54EC          CMP       AL,*+XAR4[5]          ; |484| 
    8614 00000de1 6909          B         L139,LOS              ; |484| 
    8615                      ; branchcc occurs ; |484| 
    8616                      .dwpsn  "WIDGET\GUI_widget_edit.c",486,4
    8617 00000de2 8A44          MOVL      XAR4,*-SP[4]          ; |486| 
    8618 00000de3 831C-         MOVL      XAR5,@_start_edit_win ; |486| 
    8619 00000de4 92D4          MOV       AL,*+XAR4[2]          ; |486| 
    8620 00000de5 74ED          SUB       *+XAR5[5],AL          ; |486| 
    8621                      .dwpsn  "WIDGET\GUI_widget_edit.c",487,4
    8622 00000de6 8A1C-         MOVL      XAR4,@_start_edit_win ; |487| 
    8623 00000de7 8A94          MOVL      XAR4,*+XAR4[AR0]      ; |487| 
    8624 00000de8 0AEC          INC       *+XAR4[5]             ; |487| 
    8625                      .dwpsn  "WIDGET\GUI_widget_edit.c",488,4
    8626 00000de9 2B05-         MOV       @_m_eidt_end_flag,#0  ; |488| 
    8627              L139:    
    8628                      .dwpsn  "WIDGET\GUI_widget_edit.c",491,2
    8629 00000dea 761F-         MOVW      DP,#_m_edit_lock
         00000deb 0000 
    8630 00000dec 8A14-         MOVL      XAR4,@_m_edit_lock    ; |491| 
    8631 00000ded 7640!         LCR       #_os_unlock           ; |491| 
         00000dee 0000 
    8632                      ; call occurs [#_os_unlock] ; |491| 
    8633                      .dwpsn  "WIDGET\GUI_widget_edit.c",492,2
    8634                      .dwpsn  "WIDGET\GUI_widget_edit.c",493,1
    8635 00000def FE84          SUBB      SP,#4
    8636                      .dwcfa  0x1d, -2
    8637 00000df0 0006          LRETR
    8638                      ; return occurs
    8639                      .dwattr DW$665, DW_AT_end_file("WIDGET\GUI_widget_edit.c")
    8640                      .dwattr DW$665, DW_AT_end_line(0x1ed)
    8641                      .dwattr DW$665, DW_AT_end_column(0x01)
    8642                      .dwendentry
    8643                      .dwendtag DW$665
    8644              
    8645 00000df1               .sect   ".text"
    8646                      .global _GUI_edit_csr_check
    8647              
    8648              DW$669  .dwtag  DW_TAG_subprogram, DW_AT_name("GUI_edit_csr_check"), DW_AT_symbol_name("_GUI_edit_csr_check")
TMS320C2000 COFF Assembler PC v4.1.3 Thu Nov 29 16:03:34 2012

Tools Copyright (c) 1996-2006 Texas Instruments Incorporated
C:\DOCUME~1\ADMINI~1\LOCALS~1\Temp\TI9882                            PAGE  168

    8649                      .dwattr DW$669, DW_AT_low_pc(_GUI_edit_csr_check)
    8650                      .dwattr DW$669, DW_AT_high_pc(0x00)
    8651                      .dwattr DW$669, DW_AT_begin_file("WIDGET\GUI_widget_edit.c")
    8652                      .dwattr DW$669, DW_AT_begin_line(0x1f6)
    8653                      .dwattr DW$669, DW_AT_begin_column(0x06)
    8654                      .dwpsn  "WIDGET\GUI_widget_edit.c",503,1
    8655              
    8656                      .dwfde DW$CIE
    8657              
    8658              ;***************************************************************
    8659              ;* FNAME: _GUI_edit_csr_check           FR SIZE:   6           *
    8660              ;*                                                             *
    8661              ;* FUNCTION ENVIRONMENT                                        *
    8662              ;*                                                             *
    8663              ;* FUNCTION PROPERTIES                                         *
    8664              ;*                            0 Parameter,  6 Auto,  0 SOE     *
    8665              ;***************************************************************
    8666              
    8667              _GUI_edit_csr_check:
    8668                      .dwcfa  0x1d, -2
    8669                      .dwcfa  0x1c, 26, 0
    8670                      .dwcfa  0x09, 40, 26
    8671 00000df1 FE06          ADDB      SP,#6
    8672                      .dwcfa  0x1d, -8
    8673              ;* AR4   assigned to _arg
    8674              DW$670  .dwtag  DW_TAG_formal_parameter, DW_AT_name("arg"), DW_AT_symbol_name("_arg")
    8675                      .dwattr DW$670, DW_AT_type(*DW$T$3)
    8676                      .dwattr DW$670, DW_AT_location[DW_OP_reg12]
    8677              DW$671  .dwtag  DW_TAG_variable, DW_AT_name("arg"), DW_AT_symbol_name("_arg")
    8678                      .dwattr DW$671, DW_AT_type(*DW$T$3)
    8679                      .dwattr DW$671, DW_AT_location[DW_OP_breg20 -2]
    8680              DW$672  .dwtag  DW_TAG_variable, DW_AT_name("xpos"), DW_AT_symbol_name("_xpos")
    8681                      .dwattr DW$672, DW_AT_type(*DW$T$11)
    8682                      .dwattr DW$672, DW_AT_location[DW_OP_breg20 -3]
    8683              DW$673  .dwtag  DW_TAG_variable, DW_AT_name("ypos"), DW_AT_symbol_name("_ypos")
    8684                      .dwattr DW$673, DW_AT_type(*DW$T$11)
    8685                      .dwattr DW$673, DW_AT_location[DW_OP_breg20 -4]
    8686              DW$674  .dwtag  DW_TAG_variable, DW_AT_name("edit_hwin"), DW_AT_symbol_name("_edit_hwin")
    8687                      .dwattr DW$674, DW_AT_type(*DW$T$54)
    8688                      .dwattr DW$674, DW_AT_location[DW_OP_breg20 -6]
    8689 00000df2 A842          MOVL      *-SP[2],XAR4          ; |503| 
    8690                      .dwpsn  "WIDGET\GUI_widget_edit.c",504,11
    8691 00000df3 761F-         MOVW      DP,#_start_edit_win
         00000df4 0000 
    8692 00000df5 8A1C-         MOVL      XAR4,@_start_edit_win ; |504| 
    8693 00000df6 92EC          MOV       AL,*+XAR4[5]          ; |504| 
    8694 00000df7 9643          MOV       *-SP[3],AL            ; |504| 
    8695                      .dwpsn  "WIDGET\GUI_widget_edit.c",505,11
    8696 00000df8 8A1C-         MOVL      XAR4,@_start_edit_win ; |505| 
    8697 00000df9 92F4          MOV       AL,*+XAR4[6]          ; |505| 
    8698 00000dfa 9644          MOV       *-SP[4],AL            ; |505| 
    8699                      .dwpsn  "WIDGET\GUI_widget_edit.c",506,9
    8700 00000dfb 061C-         MOVL      ACC,@_start_edit_win  ; |506| 
    8701 00000dfc 1E46          MOVL      *-SP[6],ACC           ; |506| 
    8702                      .dwpsn  "WIDGET\GUI_widget_edit.c",507,10
TMS320C2000 COFF Assembler PC v4.1.3 Thu Nov 29 16:03:34 2012

Tools Copyright (c) 1996-2006 Texas Instruments Incorporated
C:\DOCUME~1\ADMINI~1\LOCALS~1\Temp\TI9882                            PAGE  169

    8703              L140:    
    8704              DW$L$_GUI_edit_csr_check$2$B:
    8705                      .dwpsn  "WIDGET\GUI_widget_edit.c",509,3
    8706 00000dfd 9A03          MOVB      AL,#3                 ; |509| 
    8707 00000dfe 7640!         LCR       #_OSTimeDly           ; |509| 
         00000dff 0000 
    8708                      ; call occurs [#_OSTimeDly] ; |509| 
    8709                      .dwpsn  "WIDGET\GUI_widget_edit.c",510,3
    8710 00000e00 9AFF          MOVB      AL,#255               ; |510| 
    8711 00000e01 7640!         LCR       #_OSTaskDelReq        ; |510| 
         00000e02 0000 
    8712                      ; call occurs [#_OSTaskDelReq] ; |510| 
    8713 00000e03 523F          CMPB      AL,#63                ; |510| 
    8714 00000e04 ED04          BF        L141,NEQ              ; |510| 
    8715                      ; branchcc occurs ; |510| 
    8716 00000e05       DW$L$_GUI_edit_csr_check$2$E:
    8717 00000e05       DW$L$_GUI_edit_csr_check$3$B:
    8718 00000e05 9AFF          MOVB      AL,#255               ; |510| 
    8719 00000e06 7640!         LCR       #_os_task_delete      ; |510| 
         00000e07 0000 
    8720                      ; call occurs [#_os_task_delete] ; |510| 
    8721              DW$L$_GUI_edit_csr_check$3$E:
    8722              L141:    
    8723              DW$L$_GUI_edit_csr_check$4$B:
    8724                      .dwpsn  "WIDGET\GUI_widget_edit.c",511,3
    8725 00000e08 8A46          MOVL      XAR4,*-SP[6]          ; |511| 
    8726 00000e09 92EC          MOV       AL,*+XAR4[5]          ; |511| 
    8727 00000e0a 5443          CMP       AL,*-SP[3]            ; |511| 
    8728 00000e0b ED05          BF        L142,NEQ              ; |511| 
    8729                      ; branchcc occurs ; |511| 
    8730 00000e0c       DW$L$_GUI_edit_csr_check$4$E:
    8731 00000e0c       DW$L$_GUI_edit_csr_check$5$B:
    8732 00000e0c 8A46          MOVL      XAR4,*-SP[6]          ; |511| 
    8733 00000e0d 92F4          MOV       AL,*+XAR4[6]          ; |511| 
    8734 00000e0e 5444          CMP       AL,*-SP[4]            ; |511| 
    8735 00000e0f ECEE          BF        L140,EQ               ; |511| 
    8736                      ; branchcc occurs ; |511| 
    8737              DW$L$_GUI_edit_csr_check$5$E:
    8738              L142:    
    8739              DW$L$_GUI_edit_csr_check$6$B:
    8740                      .dwpsn  "WIDGET\GUI_widget_edit.c",514,4
    8741 00000e10 8A46          MOVL      XAR4,*-SP[6]          ; |514| 
    8742 00000e11 92EC          MOV       AL,*+XAR4[5]          ; |514| 
    8743 00000e12 9643          MOV       *-SP[3],AL            ; |514| 
    8744                      .dwpsn  "WIDGET\GUI_widget_edit.c",515,4
    8745 00000e13 8A46          MOVL      XAR4,*-SP[6]          ; |515| 
    8746 00000e14 92F4          MOV       AL,*+XAR4[6]          ; |515| 
    8747 00000e15 9644          MOV       *-SP[4],AL            ; |515| 
    8748                      .dwpsn  "WIDGET\GUI_widget_edit.c",516,4
    8749 00000e16 8A46          MOVL      XAR4,*-SP[6]          ; |516| 
    8750 00000e17 92EC          MOV       AL,*+XAR4[5]          ; |516| 
    8751 00000e18 8A46          MOVL      XAR4,*-SP[6]          ; |516| 
    8752 00000e19 761F-         MOVW      DP,#_m_edit_csr
         00000e1a 0000 
    8753 00000e1b 93F4          MOV       AH,*+XAR4[6]          ; |516| 
TMS320C2000 COFF Assembler PC v4.1.3 Thu Nov 29 16:03:34 2012

Tools Copyright (c) 1996-2006 Texas Instruments Incorporated
C:\DOCUME~1\ADMINI~1\LOCALS~1\Temp\TI9882                            PAGE  170

    8754 00000e1c 8A1A-         MOVL      XAR4,@_m_edit_csr     ; |516| 
    8755 00000e1d 7640!         LCR       #_GUI_cursor_shift    ; |516| 
         00000e1e 0000 
    8756                      ; call occurs [#_GUI_cursor_shift] ; |516| 
    8757                      .dwpsn  "WIDGET\GUI_widget_edit.c",519,4
    8758 00000e1f 761F-         MOVW      DP,#_m_edit_csr
         00000e20 0000 
    8759 00000e21 8A1A-         MOVL      XAR4,@_m_edit_csr     ; |519| 
    8760 00000e22 7640!         LCR       #_GUI_cursor_reload   ; |519| 
         00000e23 0000 
    8761                      ; call occurs [#_GUI_cursor_reload] ; |519| 
    8762                      .dwpsn  "WIDGET\GUI_widget_edit.c",507,10
    8763 00000e24 6FD9          B         L140,UNC              ; |507| 
    8764                      ; branch occurs ; |507| 
    8765              DW$L$_GUI_edit_csr_check$6$E:
    8766                      .dwcfa  0x1d, -2
    8767              
    8768              DW$675  .dwtag  DW_TAG_loop
    8769                      .dwattr DW$675, DW_AT_name("C:\DOCUME~1\ADMINI~1\LOCALS~1\Temp\TI9882:L140:1:1354176212")
    8770                      .dwattr DW$675, DW_AT_begin_file("WIDGET\GUI_widget_edit.c")
    8771                      .dwattr DW$675, DW_AT_begin_line(0x1fb)
    8772                      .dwattr DW$675, DW_AT_end_line(0x209)
    8773              DW$676  .dwtag  DW_TAG_loop_range
    8774                      .dwattr DW$676, DW_AT_low_pc(DW$L$_GUI_edit_csr_check$2$B)
    8775                      .dwattr DW$676, DW_AT_high_pc(DW$L$_GUI_edit_csr_check$2$E)
    8776              DW$677  .dwtag  DW_TAG_loop_range
    8777                      .dwattr DW$677, DW_AT_low_pc(DW$L$_GUI_edit_csr_check$3$B)
    8778                      .dwattr DW$677, DW_AT_high_pc(DW$L$_GUI_edit_csr_check$3$E)
    8779              DW$678  .dwtag  DW_TAG_loop_range
    8780                      .dwattr DW$678, DW_AT_low_pc(DW$L$_GUI_edit_csr_check$4$B)
    8781                      .dwattr DW$678, DW_AT_high_pc(DW$L$_GUI_edit_csr_check$4$E)
    8782              DW$679  .dwtag  DW_TAG_loop_range
    8783                      .dwattr DW$679, DW_AT_low_pc(DW$L$_GUI_edit_csr_check$6$B)
    8784                      .dwattr DW$679, DW_AT_high_pc(DW$L$_GUI_edit_csr_check$6$E)
    8785              DW$680  .dwtag  DW_TAG_loop_range
    8786                      .dwattr DW$680, DW_AT_low_pc(DW$L$_GUI_edit_csr_check$5$B)
    8787                      .dwattr DW$680, DW_AT_high_pc(DW$L$_GUI_edit_csr_check$5$E)
    8788                      .dwendtag DW$675
    8789              
    8790                      .dwattr DW$669, DW_AT_end_file("WIDGET\GUI_widget_edit.c")
    8791                      .dwattr DW$669, DW_AT_end_line(0x20a)
    8792                      .dwattr DW$669, DW_AT_end_column(0x01)
    8793                      .dwendentry
    8794                      .dwendtag DW$669
    8795              
    8796 00000e25               .sect   ".text"
    8797              
    8798              DW$681  .dwtag  DW_TAG_subprogram, DW_AT_name("GUI_edit_csr_start"), DW_AT_symbol_name("_GUI_edit_csr_start")
    8799                      .dwattr DW$681, DW_AT_low_pc(_GUI_edit_csr_start)
    8800                      .dwattr DW$681, DW_AT_high_pc(0x00)
    8801                      .dwattr DW$681, DW_AT_begin_file("WIDGET\GUI_widget_edit.c")
    8802                      .dwattr DW$681, DW_AT_begin_line(0x211)
    8803                      .dwattr DW$681, DW_AT_begin_column(0x0d)
    8804                      .dwpsn  "WIDGET\GUI_widget_edit.c",530,1
    8805              
TMS320C2000 COFF Assembler PC v4.1.3 Thu Nov 29 16:03:34 2012

Tools Copyright (c) 1996-2006 Texas Instruments Incorporated
C:\DOCUME~1\ADMINI~1\LOCALS~1\Temp\TI9882                            PAGE  171

    8806                      .dwfde DW$CIE
    8807              
    8808              ;***************************************************************
    8809              ;* FNAME: _GUI_edit_csr_start           FR SIZE:   0           *
    8810              ;*                                                             *
    8811              ;* FUNCTION ENVIRONMENT                                        *
    8812              ;*                                                             *
    8813              ;* FUNCTION PROPERTIES                                         *
    8814              ;*                            0 Parameter,  0 Auto,  0 SOE     *
    8815              ;***************************************************************
    8816              
    8817              _GUI_edit_csr_start:
    8818                      .dwcfa  0x1d, -2
    8819                      .dwcfa  0x1c, 26, 0
    8820                      .dwcfa  0x09, 40, 26
    8821                      .dwpsn  "WIDGET\GUI_widget_edit.c",531,2
    8822 00000e25 761F!         MOVW      DP,#_m_cur_hwin
         00000e26 0000 
    8823 00000e27 8A00!         MOVL      XAR4,@_m_cur_hwin     ; |531| 
    8824 00000e28 92EC          MOV       AL,*+XAR4[5]          ; |531| 
    8825 00000e29 8A00!         MOVL      XAR4,@_m_cur_hwin     ; |531| 
    8826 00000e2a D510          MOVB      XAR5,#16              ; |531| 
    8827 00000e2b 93F4          MOV       AH,*+XAR4[6]          ; |531| 
    8828 00000e2c D402          MOVB      XAR4,#2               ; |531| 
    8829 00000e2d 7640!         LCR       #_GUI_cursor_start    ; |531| 
         00000e2e 0000 
    8830                      ; call occurs [#_GUI_cursor_start] ; |531| 
    8831 00000e2f 761F-         MOVW      DP,#_m_edit_csr
         00000e30 0000 
    8832 00000e31 A81A-         MOVL      @_m_edit_csr,XAR4     ; |531| 
    8833                      .dwpsn  "WIDGET\GUI_widget_edit.c",536,2
    8834                      .dwpsn  "WIDGET\GUI_widget_edit.c",537,1
    8835 00000e32 0006          LRETR
    8836                      ; return occurs
    8837                      .dwattr DW$681, DW_AT_end_file("WIDGET\GUI_widget_edit.c")
    8838                      .dwattr DW$681, DW_AT_end_line(0x219)
    8839                      .dwattr DW$681, DW_AT_end_column(0x01)
    8840                      .dwendentry
    8841                      .dwendtag DW$681
    8842              
    8843 00000e33               .sect   ".text"
    8844              
    8845              DW$682  .dwtag  DW_TAG_subprogram, DW_AT_name("GUI_edit_csr_stop"), DW_AT_symbol_name("_GUI_edit_csr_stop")
    8846                      .dwattr DW$682, DW_AT_low_pc(_GUI_edit_csr_stop)
    8847                      .dwattr DW$682, DW_AT_high_pc(0x00)
    8848                      .dwattr DW$682, DW_AT_begin_file("WIDGET\GUI_widget_edit.c")
    8849                      .dwattr DW$682, DW_AT_begin_line(0x220)
    8850                      .dwattr DW$682, DW_AT_begin_column(0x0d)
    8851                      .dwpsn  "WIDGET\GUI_widget_edit.c",545,1
    8852              
    8853                      .dwfde DW$CIE
    8854              
    8855              ;***************************************************************
    8856              ;* FNAME: _GUI_edit_csr_stop            FR SIZE:   0           *
    8857              ;*                                                             *
TMS320C2000 COFF Assembler PC v4.1.3 Thu Nov 29 16:03:34 2012

Tools Copyright (c) 1996-2006 Texas Instruments Incorporated
C:\DOCUME~1\ADMINI~1\LOCALS~1\Temp\TI9882                            PAGE  172

    8858              ;* FUNCTION ENVIRONMENT                                        *
    8859              ;*                                                             *
    8860              ;* FUNCTION PROPERTIES                                         *
    8861              ;*                            0 Parameter,  0 Auto,  0 SOE     *
    8862              ;***************************************************************
    8863              
    8864              _GUI_edit_csr_stop:
    8865                      .dwcfa  0x1d, -2
    8866                      .dwcfa  0x1c, 26, 0
    8867                      .dwcfa  0x09, 40, 26
    8868                      .dwpsn  "WIDGET\GUI_widget_edit.c",546,2
    8869 00000e33 761F-         MOVW      DP,#_m_edit_csr
         00000e34 0000 
    8870 00000e35 8A1A-         MOVL      XAR4,@_m_edit_csr     ; |546| 
    8871 00000e36 7640!         LCR       #_GUI_cursor_stop     ; |546| 
         00000e37 0000 
    8872                      ; call occurs [#_GUI_cursor_stop] ; |546| 
    8873                      .dwpsn  "WIDGET\GUI_widget_edit.c",547,2
    8874                      .dwpsn  "WIDGET\GUI_widget_edit.c",548,1
    8875 00000e38 0006          LRETR
    8876                      ; return occurs
    8877                      .dwattr DW$682, DW_AT_end_file("WIDGET\GUI_widget_edit.c")
    8878                      .dwattr DW$682, DW_AT_end_line(0x224)
    8879                      .dwattr DW$682, DW_AT_end_column(0x01)
    8880                      .dwendentry
    8881                      .dwendtag DW$682
    8882              
    8883 00000e39               .sect   ".text"
    8884                      .global _GUI_edit_start
    8885              
    8886              DW$683  .dwtag  DW_TAG_subprogram, DW_AT_name("GUI_edit_start"), DW_AT_symbol_name("_GUI_edit_start")
    8887                      .dwattr DW$683, DW_AT_low_pc(_GUI_edit_start)
    8888                      .dwattr DW$683, DW_AT_high_pc(0x00)
    8889                      .dwattr DW$683, DW_AT_begin_file("WIDGET\GUI_widget_edit.c")
    8890                      .dwattr DW$683, DW_AT_begin_line(0x22d)
    8891                      .dwattr DW$683, DW_AT_begin_column(0x09)
    8892                      .dwpsn  "WIDGET\GUI_widget_edit.c",558,1
    8893              
    8894                      .dwfde DW$CIE
    8895              
    8896              ;***************************************************************
    8897              ;* FNAME: _GUI_edit_start               FR SIZE:  12           *
    8898              ;*                                                             *
    8899              ;* FUNCTION ENVIRONMENT                                        *
    8900              ;*                                                             *
    8901              ;* FUNCTION PROPERTIES                                         *
    8902              ;*                            0 Parameter, 12 Auto,  0 SOE     *
    8903              ;***************************************************************
    8904              
    8905              _GUI_edit_start:
    8906                      .dwcfa  0x1d, -2
    8907                      .dwcfa  0x1c, 26, 0
    8908                      .dwcfa  0x09, 40, 26
    8909 00000e39 FE0C          ADDB      SP,#12
    8910                      .dwcfa  0x1d, -14
TMS320C2000 COFF Assembler PC v4.1.3 Thu Nov 29 16:03:34 2012

Tools Copyright (c) 1996-2006 Texas Instruments Incorporated
C:\DOCUME~1\ADMINI~1\LOCALS~1\Temp\TI9882                            PAGE  173

    8911              ;* AR4   assigned to _hp
    8912              DW$684  .dwtag  DW_TAG_formal_parameter, DW_AT_name("hp"), DW_AT_symbol_name("_hp")
    8913                      .dwattr DW$684, DW_AT_type(*DW$T$54)
    8914                      .dwattr DW$684, DW_AT_location[DW_OP_reg12]
    8915              ;* AR5   assigned to _callback
    8916              DW$685  .dwtag  DW_TAG_formal_parameter, DW_AT_name("callback"), DW_AT_symbol_name("_callback")
    8917                      .dwattr DW$685, DW_AT_type(*DW$T$172)
    8918                      .dwattr DW$685, DW_AT_location[DW_OP_reg14]
    8919              DW$686  .dwtag  DW_TAG_variable, DW_AT_name("hp"), DW_AT_symbol_name("_hp")
    8920                      .dwattr DW$686, DW_AT_type(*DW$T$54)
    8921                      .dwattr DW$686, DW_AT_location[DW_OP_breg20 -2]
    8922              DW$687  .dwtag  DW_TAG_variable, DW_AT_name("callback"), DW_AT_symbol_name("_callback")
    8923                      .dwattr DW$687, DW_AT_type(*DW$T$172)
    8924                      .dwattr DW$687, DW_AT_location[DW_OP_breg20 -4]
    8925              DW$688  .dwtag  DW_TAG_variable, DW_AT_name("exit_value"), DW_AT_symbol_name("_exit_value")
    8926                      .dwattr DW$688, DW_AT_type(*DW$T$6)
    8927                      .dwattr DW$688, DW_AT_location[DW_OP_breg20 -5]
    8928              DW$689  .dwtag  DW_TAG_variable, DW_AT_name("plist"), DW_AT_symbol_name("_plist")
    8929                      .dwattr DW$689, DW_AT_type(*DW$T$35)
    8930                      .dwattr DW$689, DW_AT_location[DW_OP_breg20 -8]
    8931              DW$690  .dwtag  DW_TAG_variable, DW_AT_name("p1"), DW_AT_symbol_name("_p1")
    8932                      .dwattr DW$690, DW_AT_type(*DW$T$3)
    8933                      .dwattr DW$690, DW_AT_location[DW_OP_breg20 -10]
    8934              DW$691  .dwtag  DW_TAG_variable, DW_AT_name("p2"), DW_AT_symbol_name("_p2")
    8935                      .dwattr DW$691, DW_AT_type(*DW$T$3)
    8936                      .dwattr DW$691, DW_AT_location[DW_OP_breg20 -12]
    8937 00000e3a A044          MOVL      *-SP[4],XAR5          ; |558| 
    8938 00000e3b A842          MOVL      *-SP[2],XAR4          ; |558| 
    8939                      .dwpsn  "WIDGET\GUI_widget_edit.c",562,5
    8940 00000e3c 8A42          MOVL      XAR4,*-SP[2]          ; |562| 
    8941 00000e3d D012          MOVB      XAR0,#18              ; |562| 
    8942 00000e3e 8A94          MOVL      XAR4,*+XAR4[AR0]      ; |562| 
    8943 00000e3f D008          MOVB      XAR0,#8               ; |562| 
    8944 00000e40 0694          MOVL      ACC,*+XAR4[AR0]       ; |562| 
    8945 00000e41 1E4A          MOVL      *-SP[10],ACC          ; |562| 
    8946                      .dwpsn  "WIDGET\GUI_widget_edit.c",563,2
    8947 00000e42 8F00!         MOVL      XAR4,#_GUI_F8X16_EXTASCII ; |563| 
         00000e43 0000 
    8948 00000e44 A84C          MOVL      *-SP[12],XAR4         ; |563| 
    8949                      .dwpsn  "WIDGET\GUI_widget_edit.c",564,5
    8950 00000e45 C44A          MOVL      XAR6,*-SP[10]         ; |564| 
    8951 00000e46 064C          MOVL      ACC,*-SP[12]          ; |564| 
    8952 00000e47 0FA6          CMPL      ACC,XAR6              ; |564| 
    8953 00000e48 ED45          BF        L143,NEQ              ; |564| 
    8954                      ; branchcc occurs ; |564| 
    8955                      .dwpsn  "WIDGET\GUI_widget_edit.c",564,15
    8956                      .dwpsn  "WIDGET\GUI_widget_edit.c",565,2
    8957 00000e49 7640!         LCR       #_GUI_edit_start_hook ; |565| 
         00000e4a 0000 
    8958                      ; call occurs [#_GUI_edit_start_hook] ; |565| 
    8959                      .dwpsn  "WIDGET\GUI_widget_edit.c",566,2
    8960 00000e4b 8A42          MOVL      XAR4,*-SP[2]          ; |566| 
    8961 00000e4c 7640!         LCR       #_GUI_window_hwin_req ; |566| 
         00000e4d 0000 
    8962                      ; call occurs [#_GUI_window_hwin_req] ; |566| 
TMS320C2000 COFF Assembler PC v4.1.3 Thu Nov 29 16:03:34 2012

Tools Copyright (c) 1996-2006 Texas Instruments Incorporated
C:\DOCUME~1\ADMINI~1\LOCALS~1\Temp\TI9882                            PAGE  174

    8963                      .dwpsn  "WIDGET\GUI_widget_edit.c",567,2
    8964 00000e4e 761F!         MOVW      DP,#_m_cur_hwin
         00000e4f 0000 
    8965 00000e50 8A00!         MOVL      XAR4,@_m_cur_hwin     ; |567| 
    8966 00000e51 D012          MOVB      XAR0,#18              ; |567| 
    8967 00000e52 0694          MOVL      ACC,*+XAR4[AR0]       ; |567| 
    8968 00000e53 1E48          MOVL      *-SP[8],ACC           ; |567| 
    8969                      .dwpsn  "WIDGET\GUI_widget_edit.c",568,2
    8970 00000e54 8A48          MOVL      XAR4,*-SP[8]          ; |568| 
    8971 00000e55 92E4          MOV       AL,*+XAR4[4]          ; |568| 
    8972 00000e56 8A48          MOVL      XAR4,*-SP[8]          ; |568| 
    8973 00000e57 96EC          MOV       *+XAR4[5],AL          ; |568| 
    8974                      .dwpsn  "WIDGET\GUI_widget_edit.c",569,2
    8975 00000e58 8A00!         MOVL      XAR4,@_m_cur_hwin     ; |569| 
    8976 00000e59 D014          MOVB      XAR0,#20              ; |569| 
    8977 00000e5a 0648          MOVL      ACC,*-SP[8]           ; |569| 
    8978 00000e5b 1E94          MOVL      *+XAR4[AR0],ACC       ; |569| 
    8979                      .dwpsn  "WIDGET\GUI_widget_edit.c",570,2
    8980 00000e5c 8A48          MOVL      XAR4,*-SP[8]          ; |570| 
    8981 00000e5d 92C4          MOV       AL,*+XAR4[0]          ; |570| 
    8982 00000e5e 8A48          MOVL      XAR4,*-SP[8]          ; |570| 
    8983 00000e5f 93CC          MOV       AH,*+XAR4[1]          ; |570| 
    8984 00000e60 7640!         LCR       #_GUI_xy_set          ; |570| 
         00000e61 0000 
    8985                      ; call occurs [#_GUI_xy_set] ; |570| 
    8986                      .dwpsn  "WIDGET\GUI_widget_edit.c",571,2
    8987 00000e62 7640'         LCR       #_GUI_edit_csr_start  ; |571| 
         00000e63 0E25 
    8988                      ; call occurs [#_GUI_edit_csr_start] ; |571| 
    8989                      .dwpsn  "WIDGET\GUI_widget_edit.c",572,2
    8990 00000e64 2801-         MOV       @_edit_is_start,#1    ; |572| 
         00000e65 0001 
    8991                      .dwpsn  "WIDGET\GUI_widget_edit.c",573,2
    8992 00000e66 0642          MOVL      ACC,*-SP[2]           ; |573| 
    8993 00000e67 1E1C-         MOVL      @_start_edit_win,ACC  ; |573| 
    8994                      .dwpsn  "WIDGET\GUI_widget_edit.c",574,2
    8995 00000e68 9A02          MOVB      AL,#2                 ; |574| 
    8996 00000e69 8F00'         MOVL      XAR4,#_GUI_edit_csr_check ; |574| 
         00000e6a 0DF1 
    8997 00000e6b 7640!         LCR       #_os_task_assign_stk_build ; |574| 
         00000e6c 0000 
    8998                      ; call occurs [#_os_task_assign_stk_build] ; |574| 
    8999 00000e6d 761F-         MOVW      DP,#_edit_csr_task_pro
         00000e6e 0000 
    9000 00000e6f 9600-         MOV       @_edit_csr_task_pro,AL ; |574| 
    9001                      .dwpsn  "WIDGET\GUI_widget_edit.c",576,2
    9002 00000e70 8F00+         MOVL      XAR4,#FSL2            ; |576| 
         00000e71 0034 
    9003 00000e72 7640!         LCR       #_os_task_name_set    ; |576| 
         00000e73 0000 
    9004                      ; call occurs [#_os_task_name_set] ; |576| 
    9005                      .dwpsn  "WIDGET\GUI_widget_edit.c",577,2
    9006 00000e74 8A42          MOVL      XAR4,*-SP[2]          ; |577| 
    9007 00000e75 7640!         LCR       #_GUI_window_hwin_release ; |577| 
         00000e76 0000 
TMS320C2000 COFF Assembler PC v4.1.3 Thu Nov 29 16:03:34 2012

Tools Copyright (c) 1996-2006 Texas Instruments Incorporated
C:\DOCUME~1\ADMINI~1\LOCALS~1\Temp\TI9882                            PAGE  175

    9008                      ; call occurs [#_GUI_window_hwin_release] ; |577| 
    9009                      .dwpsn  "WIDGET\GUI_widget_edit.c",578,2
    9010 00000e77 C544          MOVL      XAR7,*-SP[4]          ; |578| 
    9011 00000e78 8A42          MOVL      XAR4,*-SP[2]          ; |578| 
    9012 00000e79 3E67          LCR       *XAR7                 ; |578| 
    9013                      ; call occurs [XAR7] ; |578| 
    9014 00000e7a 9645          MOV       *-SP[5],AL            ; |578| 
    9015                      .dwpsn  "WIDGET\GUI_widget_edit.c",579,2
    9016 00000e7b 761F-         MOVW      DP,#_edit_csr_task_pro
         00000e7c 0000 
    9017 00000e7d 9200-         MOV       AL,@_edit_csr_task_pro ; |579| 
    9018 00000e7e 7640!         LCR       #_os_task_delete      ; |579| 
         00000e7f 0000 
    9019                      ; call occurs [#_os_task_delete] ; |579| 
    9020                      .dwpsn  "WIDGET\GUI_widget_edit.c",581,2
    9021 00000e80 761F-         MOVW      DP,#_edit_csr_task_pro
         00000e81 0000 
    9022 00000e82 2800-         MOV       @_edit_csr_task_pro,#190 ; |581| 
         00000e83 00BE 
    9023                      .dwpsn  "WIDGET\GUI_widget_edit.c",582,2
    9024 00000e84 7640!         LCR       #_GUI_edit_end_hook   ; |582| 
         00000e85 0000 
    9025                      ; call occurs [#_GUI_edit_end_hook] ; |582| 
    9026                      .dwpsn  "WIDGET\GUI_widget_edit.c",583,2
    9027 00000e86 7640'         LCR       #_GUI_edit_csr_stop   ; |583| 
         00000e87 0E33 
    9028                      ; call occurs [#_GUI_edit_csr_stop] ; |583| 
    9029                      .dwpsn  "WIDGET\GUI_widget_edit.c",584,2
    9030 00000e88 761F-         MOVW      DP,#_edit_is_start
         00000e89 0000 
    9031 00000e8a 2B01-         MOV       @_edit_is_start,#0    ; |584| 
    9032                      .dwpsn  "WIDGET\GUI_widget_edit.c",585,2
    9033 00000e8b 2B05-         MOV       @_m_eidt_end_flag,#0  ; |585| 
    9034                      .dwpsn  "WIDGET\GUI_widget_edit.c",586,2
    9035 00000e8c 9245          MOV       AL,*-SP[5]            ; |586| 
    9036              L143:    
    9037                      .dwpsn  "WIDGET\GUI_widget_edit.c",587,1
    9038 00000e8d FE8C          SUBB      SP,#12                ; |586| 
    9039                      .dwcfa  0x1d, -2
    9040 00000e8e 0006          LRETR
    9041                      ; return occurs
    9042                      .dwattr DW$683, DW_AT_end_file("WIDGET\GUI_widget_edit.c")
    9043                      .dwattr DW$683, DW_AT_end_line(0x24b)
    9044                      .dwattr DW$683, DW_AT_end_column(0x01)
    9045                      .dwendentry
    9046                      .dwendtag DW$683
    9047              
    9048 00000e8f               .sect   ".text"
    9049                      .global _GUI_edit_init
    9050              
    9051              DW$692  .dwtag  DW_TAG_subprogram, DW_AT_name("GUI_edit_init"), DW_AT_symbol_name("_GUI_edit_init")
    9052                      .dwattr DW$692, DW_AT_low_pc(_GUI_edit_init)
    9053                      .dwattr DW$692, DW_AT_high_pc(0x00)
    9054                      .dwattr DW$692, DW_AT_begin_file("WIDGET\GUI_widget_edit.c")
    9055                      .dwattr DW$692, DW_AT_begin_line(0x2c0)
TMS320C2000 COFF Assembler PC v4.1.3 Thu Nov 29 16:03:34 2012

Tools Copyright (c) 1996-2006 Texas Instruments Incorporated
C:\DOCUME~1\ADMINI~1\LOCALS~1\Temp\TI9882                            PAGE  176

    9056                      .dwattr DW$692, DW_AT_begin_column(0x06)
    9057                      .dwpsn  "WIDGET\GUI_widget_edit.c",705,1
    9058              
    9059                      .dwfde DW$CIE
    9060              
    9061              ;***************************************************************
    9062              ;* FNAME: _GUI_edit_init                FR SIZE:   0           *
    9063              ;*                                                             *
    9064              ;* FUNCTION ENVIRONMENT                                        *
    9065              ;*                                                             *
    9066              ;* FUNCTION PROPERTIES                                         *
    9067              ;*                            0 Parameter,  0 Auto,  0 SOE     *
    9068              ;***************************************************************
    9069              
    9070              _GUI_edit_init:
    9071                      .dwcfa  0x1d, -2
    9072                      .dwcfa  0x1c, 26, 0
    9073                      .dwcfa  0x09, 40, 26
    9074                      .dwpsn  "WIDGET\GUI_widget_edit.c",706,2
    9075 00000e8f 761F-         MOVW      DP,#_edit_is_start
         00000e90 0000 
    9076 00000e91 2B01-         MOV       @_edit_is_start,#0    ; |706| 
    9077                      .dwpsn  "WIDGET\GUI_widget_edit.c",707,2
    9078 00000e92 2B05-         MOV       @_m_eidt_end_flag,#0  ; |707| 
    9079                      .dwpsn  "WIDGET\GUI_widget_edit.c",708,2
    9080 00000e93 8F00-         MOVL      XAR4,#_m_edit_lock    ; |708| 
         00000e94 0014 
    9081 00000e95 7640!         LCR       #_os_lock_creat       ; |708| 
         00000e96 0000 
    9082                      ; call occurs [#_os_lock_creat] ; |708| 
    9083                      .dwpsn  "WIDGET\GUI_widget_edit.c",709,2
    9084 00000e97 761F-         MOVW      DP,#_edit_csr_task_pro
         00000e98 0000 
    9085 00000e99 9200-         MOV       AL,@_edit_csr_task_pro ; |709| 
    9086 00000e9a 52BE          CMPB      AL,#190               ; |709| 
    9087 00000e9b EC07          BF        L144,EQ               ; |709| 
    9088                      ; branchcc occurs ; |709| 
    9089                      .dwpsn  "WIDGET\GUI_widget_edit.c",711,3
    9090 00000e9c 7640!         LCR       #_os_task_delete      ; |711| 
         00000e9d 0000 
    9091                      ; call occurs [#_os_task_delete] ; |711| 
    9092                      .dwpsn  "WIDGET\GUI_widget_edit.c",712,3
    9093 00000e9e 761F-         MOVW      DP,#_edit_csr_task_pro
         00000e9f 0000 
    9094 00000ea0 2800-         MOV       @_edit_csr_task_pro,#190 ; |712| 
         00000ea1 00BE 
    9095              L144:    
    9096                      .dwpsn  "WIDGET\GUI_widget_edit.c",714,2
    9097 00000ea2 2802-         MOV       @_m_edit_member_Fgcor,#255 ; |714| 
         00000ea3 00FF 
    9098                      .dwpsn  "WIDGET\GUI_widget_edit.c",715,2
    9099 00000ea4 2809-         MOV       @_m_edit_member_Bgcor,#1 ; |715| 
         00000ea5 0001 
    9100                      .dwpsn  "WIDGET\GUI_widget_edit.c",716,2
    9101                      .dwpsn  "WIDGET\GUI_widget_edit.c",717,1
TMS320C2000 COFF Assembler PC v4.1.3 Thu Nov 29 16:03:34 2012

Tools Copyright (c) 1996-2006 Texas Instruments Incorporated
C:\DOCUME~1\ADMINI~1\LOCALS~1\Temp\TI9882                            PAGE  177

    9102 00000ea6 0006          LRETR
    9103                      ; return occurs
    9104                      .dwattr DW$692, DW_AT_end_file("WIDGET\GUI_widget_edit.c")
    9105                      .dwattr DW$692, DW_AT_end_line(0x2cd)
    9106                      .dwattr DW$692, DW_AT_end_column(0x01)
    9107                      .dwendentry
    9108                      .dwendtag DW$692
    9109              
    9110 00000ea7               .sect   ".text"
    9111                      .global _GUI_set_3D
    9112              
    9113              DW$693  .dwtag  DW_TAG_subprogram, DW_AT_name("GUI_set_3D"), DW_AT_symbol_name("_GUI_set_3D")
    9114                      .dwattr DW$693, DW_AT_low_pc(_GUI_set_3D)
    9115                      .dwattr DW$693, DW_AT_high_pc(0x00)
    9116                      .dwattr DW$693, DW_AT_begin_file("WIDGET\Gui_widget_MsgBox.c")
    9117                      .dwattr DW$693, DW_AT_begin_line(0x06)
    9118                      .dwattr DW$693, DW_AT_begin_column(0x06)
    9119                      .dwpsn  "WIDGET\Gui_widget_MsgBox.c",7,1
    9120              
    9121                      .dwfde DW$CIE
    9122              
    9123              ;***************************************************************
    9124              ;* FNAME: _GUI_set_3D                   FR SIZE:   4           *
    9125              ;*                                                             *
    9126              ;* FUNCTION ENVIRONMENT                                        *
    9127              ;*                                                             *
    9128              ;* FUNCTION PROPERTIES                                         *
    9129              ;*                            0 Parameter,  4 Auto,  0 SOE     *
    9130              ;***************************************************************
    9131              
    9132              _GUI_set_3D:
    9133                      .dwcfa  0x1d, -2
    9134                      .dwcfa  0x1c, 26, 0
    9135                      .dwcfa  0x09, 40, 26
    9136 00000ea7 FE04          ADDB      SP,#4
    9137                      .dwcfa  0x1d, -6
    9138              ;* AL    assigned to _x
    9139              DW$694  .dwtag  DW_TAG_formal_parameter, DW_AT_name("x"), DW_AT_symbol_name("_x")
    9140                      .dwattr DW$694, DW_AT_type(*DW$T$10)
    9141                      .dwattr DW$694, DW_AT_location[DW_OP_reg0]
    9142              ;* AH    assigned to _y
    9143              DW$695  .dwtag  DW_TAG_formal_parameter, DW_AT_name("y"), DW_AT_symbol_name("_y")
    9144                      .dwattr DW$695, DW_AT_type(*DW$T$10)
    9145                      .dwattr DW$695, DW_AT_location[DW_OP_reg1]
    9146              ;* AR4   assigned to _wide
    9147              DW$696  .dwtag  DW_TAG_formal_parameter, DW_AT_name("wide"), DW_AT_symbol_name("_wide")
    9148                      .dwattr DW$696, DW_AT_type(*DW$T$27)
    9149                      .dwattr DW$696, DW_AT_location[DW_OP_reg12]
    9150              ;* AR5   assigned to _high
    9151              DW$697  .dwtag  DW_TAG_formal_parameter, DW_AT_name("high"), DW_AT_symbol_name("_high")
    9152                      .dwattr DW$697, DW_AT_type(*DW$T$27)
    9153                      .dwattr DW$697, DW_AT_location[DW_OP_reg14]
    9154              DW$698  .dwtag  DW_TAG_variable, DW_AT_name("x"), DW_AT_symbol_name("_x")
    9155                      .dwattr DW$698, DW_AT_type(*DW$T$10)
    9156                      .dwattr DW$698, DW_AT_location[DW_OP_breg20 -1]
TMS320C2000 COFF Assembler PC v4.1.3 Thu Nov 29 16:03:34 2012

Tools Copyright (c) 1996-2006 Texas Instruments Incorporated
C:\DOCUME~1\ADMINI~1\LOCALS~1\Temp\TI9882                            PAGE  178

    9157              DW$699  .dwtag  DW_TAG_variable, DW_AT_name("y"), DW_AT_symbol_name("_y")
    9158                      .dwattr DW$699, DW_AT_type(*DW$T$10)
    9159                      .dwattr DW$699, DW_AT_location[DW_OP_breg20 -2]
    9160              DW$700  .dwtag  DW_TAG_variable, DW_AT_name("wide"), DW_AT_symbol_name("_wide")
    9161                      .dwattr DW$700, DW_AT_type(*DW$T$27)
    9162                      .dwattr DW$700, DW_AT_location[DW_OP_breg20 -3]
    9163              DW$701  .dwtag  DW_TAG_variable, DW_AT_name("high"), DW_AT_symbol_name("_high")
    9164                      .dwattr DW$701, DW_AT_type(*DW$T$27)
    9165                      .dwattr DW$701, DW_AT_location[DW_OP_breg20 -4]
    9166 00000ea8 7D44          MOV       *-SP[4],AR5           ; |7| 
    9167 00000ea9 7C43          MOV       *-SP[3],AR4           ; |7| 
    9168 00000eaa 9742          MOV       *-SP[2],AH            ; |7| 
    9169 00000eab 9641          MOV       *-SP[1],AL            ; |7| 
    9170                      .dwpsn  "WIDGET\Gui_widget_MsgBox.c",8,2
    9171 00000eac 9CFF          ADDB      AL,#-1
    9172 00000ead 88A9          MOVZ      AR6,AL                ; |8| 
    9173 00000eae 9342          MOV       AH,*-SP[2]            ; |8| 
    9174 00000eaf 9243          MOV       AL,*-SP[3]            ; |8| 
    9175 00000eb0 9C01          ADDB      AL,#1                 ; |8| 
    9176 00000eb1 5CA9          MOVZ      AR4,AL                ; |8| 
    9177 00000eb2 5D44          MOVZ      AR5,*-SP[4]           ; |8| 
    9178 00000eb3 92A6          MOV       AL,AR6                ; |8| 
    9179 00000eb4 7640!         LCR       #_GUI_draw_Rect       ; |8| 
         00000eb5 0000 
    9180                      ; call occurs [#_GUI_draw_Rect] ; |8| 
    9181                      .dwpsn  "WIDGET\Gui_widget_MsgBox.c",12,2
    9182 00000eb6 9241          MOV       AL,*-SP[1]            ; |12| 
    9183 00000eb7 9CFE          ADDB      AL,#-2
    9184 00000eb8 88A9          MOVZ      AR6,AL                ; |12| 
    9185 00000eb9 9243          MOV       AL,*-SP[3]            ; |12| 
    9186 00000eba 9C02          ADDB      AL,#2                 ; |12| 
    9187 00000ebb 9342          MOV       AH,*-SP[2]            ; |12| 
    9188 00000ebc 5CA9          MOVZ      AR4,AL                ; |12| 
    9189 00000ebd 9DFF          ADDB      AH,#-1
    9190 00000ebe 9244          MOV       AL,*-SP[4]            ; |12| 
    9191 00000ebf 9C02          ADDB      AL,#2                 ; |12| 
    9192 00000ec0 5DA9          MOVZ      AR5,AL                ; |12| 
    9193 00000ec1 92A6          MOV       AL,AR6                ; |12| 
    9194 00000ec2 7640!         LCR       #_GUI_draw_Rect       ; |12| 
         00000ec3 0000 
    9195                      ; call occurs [#_GUI_draw_Rect] ; |12| 
    9196                      .dwpsn  "WIDGET\Gui_widget_MsgBox.c",16,2
    9197 00000ec4 9243          MOV       AL,*-SP[3]            ; |16| 
    9198 00000ec5 9441          ADD       AL,*-SP[1]            ; |16| 
    9199 00000ec6 9342          MOV       AH,*-SP[2]            ; |16| 
    9200 00000ec7 5CA9          MOVZ      AR4,AL                ; |16| 
    9201 00000ec8 9D14          ADDB      AH,#20                ; |16| 
    9202 00000ec9 9242          MOV       AL,*-SP[2]            ; |16| 
    9203 00000eca 9C14          ADDB      AL,#20                ; |16| 
    9204 00000ecb 5DA9          MOVZ      AR5,AL                ; |16| 
    9205 00000ecc 9241          MOV       AL,*-SP[1]            ; |16| 
    9206 00000ecd 7640!         LCR       #_GUI_window_line_display ; |16| 
         00000ece 0000 
    9207                      ; call occurs [#_GUI_window_line_display] ; |16| 
    9208                      .dwpsn  "WIDGET\Gui_widget_MsgBox.c",17,2
TMS320C2000 COFF Assembler PC v4.1.3 Thu Nov 29 16:03:34 2012

Tools Copyright (c) 1996-2006 Texas Instruments Incorporated
C:\DOCUME~1\ADMINI~1\LOCALS~1\Temp\TI9882                            PAGE  179

    9209                      .dwpsn  "WIDGET\Gui_widget_MsgBox.c",18,1
    9210 00000ecf FE84          SUBB      SP,#4
    9211                      .dwcfa  0x1d, -2
    9212 00000ed0 0006          LRETR
    9213                      ; return occurs
    9214                      .dwattr DW$693, DW_AT_end_file("WIDGET\Gui_widget_MsgBox.c")
    9215                      .dwattr DW$693, DW_AT_end_line(0x12)
    9216                      .dwattr DW$693, DW_AT_end_column(0x01)
    9217                      .dwendentry
    9218                      .dwendtag DW$693
    9219              
    9220 00000ed1               .sect   ".text"
    9221                      .global _GUI_MsgBox_draw_frame
    9222              
    9223              DW$702  .dwtag  DW_TAG_subprogram, DW_AT_name("GUI_MsgBox_draw_frame"), DW_AT_symbol_name("_GUI_MsgBox_draw_f
    9224                      .dwattr DW$702, DW_AT_low_pc(_GUI_MsgBox_draw_frame)
    9225                      .dwattr DW$702, DW_AT_high_pc(0x00)
    9226                      .dwattr DW$702, DW_AT_begin_file("WIDGET\Gui_widget_MsgBox.c")
    9227                      .dwattr DW$702, DW_AT_begin_line(0x13)
    9228                      .dwattr DW$702, DW_AT_begin_column(0x06)
    9229                      .dwpsn  "WIDGET\Gui_widget_MsgBox.c",20,1
    9230              
    9231                      .dwfde DW$CIE
    9232              
    9233              ;***************************************************************
    9234              ;* FNAME: _GUI_MsgBox_draw_frame        FR SIZE:   4           *
    9235              ;*                                                             *
    9236              ;* FUNCTION ENVIRONMENT                                        *
    9237              ;*                                                             *
    9238              ;* FUNCTION PROPERTIES                                         *
    9239              ;*                            0 Parameter,  4 Auto,  0 SOE     *
    9240              ;***************************************************************
    9241              
    9242              _GUI_MsgBox_draw_frame:
    9243                      .dwcfa  0x1d, -2
    9244                      .dwcfa  0x1c, 26, 0
    9245                      .dwcfa  0x09, 40, 26
    9246 00000ed1 FE04          ADDB      SP,#4
    9247                      .dwcfa  0x1d, -6
    9248              ;* AL    assigned to _x
    9249              DW$703  .dwtag  DW_TAG_formal_parameter, DW_AT_name("x"), DW_AT_symbol_name("_x")
    9250                      .dwattr DW$703, DW_AT_type(*DW$T$10)
    9251                      .dwattr DW$703, DW_AT_location[DW_OP_reg0]
    9252              ;* AH    assigned to _y
    9253              DW$704  .dwtag  DW_TAG_formal_parameter, DW_AT_name("y"), DW_AT_symbol_name("_y")
    9254                      .dwattr DW$704, DW_AT_type(*DW$T$10)
    9255                      .dwattr DW$704, DW_AT_location[DW_OP_reg1]
    9256              ;* AR4   assigned to _wide
    9257              DW$705  .dwtag  DW_TAG_formal_parameter, DW_AT_name("wide"), DW_AT_symbol_name("_wide")
    9258                      .dwattr DW$705, DW_AT_type(*DW$T$27)
    9259                      .dwattr DW$705, DW_AT_location[DW_OP_reg12]
    9260              ;* AR5   assigned to _high
    9261              DW$706  .dwtag  DW_TAG_formal_parameter, DW_AT_name("high"), DW_AT_symbol_name("_high")
    9262                      .dwattr DW$706, DW_AT_type(*DW$T$27)
    9263                      .dwattr DW$706, DW_AT_location[DW_OP_reg14]
TMS320C2000 COFF Assembler PC v4.1.3 Thu Nov 29 16:03:34 2012

Tools Copyright (c) 1996-2006 Texas Instruments Incorporated
C:\DOCUME~1\ADMINI~1\LOCALS~1\Temp\TI9882                            PAGE  180

    9264              DW$707  .dwtag  DW_TAG_variable, DW_AT_name("x"), DW_AT_symbol_name("_x")
    9265                      .dwattr DW$707, DW_AT_type(*DW$T$10)
    9266                      .dwattr DW$707, DW_AT_location[DW_OP_breg20 -1]
    9267              DW$708  .dwtag  DW_TAG_variable, DW_AT_name("y"), DW_AT_symbol_name("_y")
    9268                      .dwattr DW$708, DW_AT_type(*DW$T$10)
    9269                      .dwattr DW$708, DW_AT_location[DW_OP_breg20 -2]
    9270              DW$709  .dwtag  DW_TAG_variable, DW_AT_name("wide"), DW_AT_symbol_name("_wide")
    9271                      .dwattr DW$709, DW_AT_type(*DW$T$27)
    9272                      .dwattr DW$709, DW_AT_location[DW_OP_breg20 -3]
    9273              DW$710  .dwtag  DW_TAG_variable, DW_AT_name("high"), DW_AT_symbol_name("_high")
    9274                      .dwattr DW$710, DW_AT_type(*DW$T$27)
    9275                      .dwattr DW$710, DW_AT_location[DW_OP_breg20 -4]
    9276 00000ed2 7D44          MOV       *-SP[4],AR5           ; |20| 
    9277 00000ed3 7C43          MOV       *-SP[3],AR4           ; |20| 
    9278 00000ed4 9742          MOV       *-SP[2],AH            ; |20| 
    9279 00000ed5 9641          MOV       *-SP[1],AL            ; |20| 
    9280                      .dwpsn  "WIDGET\Gui_widget_MsgBox.c",21,2
    9281 00000ed6 9A01          MOVB      AL,#1                 ; |21| 
    9282 00000ed7 7640!         LCR       #_GUI_set_Bgcolor     ; |21| 
         00000ed8 0000 
    9283                      ; call occurs [#_GUI_set_Bgcolor] ; |21| 
    9284                      .dwpsn  "WIDGET\Gui_widget_MsgBox.c",22,2
    9285 00000ed9 9243          MOV       AL,*-SP[3]            ; |22| 
    9286 00000eda 9441          ADD       AL,*-SP[1]            ; |22| 
    9287 00000edb 5CA9          MOVZ      AR4,AL                ; |22| 
    9288 00000edc 9342          MOV       AH,*-SP[2]            ; |22| 
    9289 00000edd 9242          MOV       AL,*-SP[2]            ; |22| 
    9290 00000ede 9C14          ADDB      AL,#20                ; |22| 
    9291 00000edf 5DA9          MOVZ      AR5,AL                ; |22| 
    9292 00000ee0 9241          MOV       AL,*-SP[1]            ; |22| 
    9293 00000ee1 7640!         LCR       #_GUI_fill_Rect_At    ; |22| 
         00000ee2 0000 
    9294                      ; call occurs [#_GUI_fill_Rect_At] ; |22| 
    9295                      .dwpsn  "WIDGET\Gui_widget_MsgBox.c",23,2
    9296 00000ee3 9241          MOV       AL,*-SP[1]            ; |23| 
    9297 00000ee4 9C02          ADDB      AL,#2                 ; |23| 
    9298 00000ee5 5CA9          MOVZ      AR4,AL                ; |23| 
    9299 00000ee6 9342          MOV       AH,*-SP[2]            ; |23| 
    9300 00000ee7 9244          MOV       AL,*-SP[4]            ; |23| 
    9301 00000ee8 9D14          ADDB      AH,#20                ; |23| 
    9302 00000ee9 9442          ADD       AL,*-SP[2]            ; |23| 
    9303 00000eea 9CFE          ADDB      AL,#-2
    9304 00000eeb 5DA9          MOVZ      AR5,AL                ; |23| 
    9305 00000eec 9241          MOV       AL,*-SP[1]            ; |23| 
    9306 00000eed 7640!         LCR       #_GUI_fill_Rect_At    ; |23| 
         00000eee 0000 
    9307                      ; call occurs [#_GUI_fill_Rect_At] ; |23| 
    9308                      .dwpsn  "WIDGET\Gui_widget_MsgBox.c",28,2
    9309 00000eef 9243          MOV       AL,*-SP[3]            ; |28| 
    9310 00000ef0 9441          ADD       AL,*-SP[1]            ; |28| 
    9311 00000ef1 9CFE          ADDB      AL,#-2
    9312 00000ef2 88A9          MOVZ      AR6,AL                ; |28| 
    9313 00000ef3 9243          MOV       AL,*-SP[3]            ; |28| 
    9314 00000ef4 9441          ADD       AL,*-SP[1]            ; |28| 
    9315 00000ef5 5CA9          MOVZ      AR4,AL                ; |28| 
TMS320C2000 COFF Assembler PC v4.1.3 Thu Nov 29 16:03:34 2012

Tools Copyright (c) 1996-2006 Texas Instruments Incorporated
C:\DOCUME~1\ADMINI~1\LOCALS~1\Temp\TI9882                            PAGE  181

    9316 00000ef6 9342          MOV       AH,*-SP[2]            ; |28| 
    9317 00000ef7 9244          MOV       AL,*-SP[4]            ; |28| 
    9318 00000ef8 9D14          ADDB      AH,#20                ; |28| 
    9319 00000ef9 9442          ADD       AL,*-SP[2]            ; |28| 
    9320 00000efa 9CFE          ADDB      AL,#-2
    9321 00000efb 5DA9          MOVZ      AR5,AL                ; |28| 
    9322 00000efc 92A6          MOV       AL,AR6                ; |28| 
    9323 00000efd 7640!         LCR       #_GUI_fill_Rect_At    ; |28| 
         00000efe 0000 
    9324                      ; call occurs [#_GUI_fill_Rect_At] ; |28| 
    9325                      .dwpsn  "WIDGET\Gui_widget_MsgBox.c",33,2
    9326 00000eff 9243          MOV       AL,*-SP[3]            ; |33| 
    9327 00000f00 9344          MOV       AH,*-SP[4]            ; |33| 
    9328 00000f01 9441          ADD       AL,*-SP[1]            ; |33| 
    9329 00000f02 9542          ADD       AH,*-SP[2]            ; |33| 
    9330 00000f03 5CA9          MOVZ      AR4,AL                ; |33| 
    9331 00000f04 9DFE          ADDB      AH,#-2
    9332 00000f05 9244          MOV       AL,*-SP[4]            ; |33| 
    9333 00000f06 9442          ADD       AL,*-SP[2]            ; |33| 
    9334 00000f07 5DA9          MOVZ      AR5,AL                ; |33| 
    9335 00000f08 9241          MOV       AL,*-SP[1]            ; |33| 
    9336 00000f09 7640!         LCR       #_GUI_fill_Rect_At    ; |33| 
         00000f0a 0000 
    9337                      ; call occurs [#_GUI_fill_Rect_At] ; |33| 
    9338                      .dwpsn  "WIDGET\Gui_widget_MsgBox.c",38,2
    9339 00000f0b 9AFE          MOVB      AL,#254               ; |38| 
    9340 00000f0c 7640!         LCR       #_GUI_set_Bgcolor     ; |38| 
         00000f0d 0000 
    9341                      ; call occurs [#_GUI_set_Bgcolor] ; |38| 
    9342                      .dwpsn  "WIDGET\Gui_widget_MsgBox.c",41,2
    9343 00000f0e 9241          MOV       AL,*-SP[1]            ; |41| 
    9344 00000f0f 9C02          ADDB      AL,#2                 ; |41| 
    9345 00000f10 88A9          MOVZ      AR6,AL                ; |41| 
    9346 00000f11 9243          MOV       AL,*-SP[3]            ; |41| 
    9347 00000f12 9441          ADD       AL,*-SP[1]            ; |41| 
    9348 00000f13 9CFE          ADDB      AL,#-2
    9349 00000f14 5CA9          MOVZ      AR4,AL                ; |41| 
    9350 00000f15 9342          MOV       AH,*-SP[2]            ; |41| 
    9351 00000f16 9244          MOV       AL,*-SP[4]            ; |41| 
    9352 00000f17 9D14          ADDB      AH,#20                ; |41| 
    9353 00000f18 9442          ADD       AL,*-SP[2]            ; |41| 
    9354 00000f19 9CFE          ADDB      AL,#-2
    9355 00000f1a 5DA9          MOVZ      AR5,AL                ; |41| 
    9356 00000f1b 92A6          MOV       AL,AR6                ; |41| 
    9357 00000f1c 7640!         LCR       #_GUI_fill_Rect_At    ; |41| 
         00000f1d 0000 
    9358                      ; call occurs [#_GUI_fill_Rect_At] ; |41| 
    9359                      .dwpsn  "WIDGET\Gui_widget_MsgBox.c",46,2
    9360                      .dwpsn  "WIDGET\Gui_widget_MsgBox.c",47,1
    9361 00000f1e FE84          SUBB      SP,#4
    9362                      .dwcfa  0x1d, -2
    9363 00000f1f 0006          LRETR
    9364                      ; return occurs
    9365                      .dwattr DW$702, DW_AT_end_file("WIDGET\Gui_widget_MsgBox.c")
    9366                      .dwattr DW$702, DW_AT_end_line(0x2f)
TMS320C2000 COFF Assembler PC v4.1.3 Thu Nov 29 16:03:34 2012

Tools Copyright (c) 1996-2006 Texas Instruments Incorporated
C:\DOCUME~1\ADMINI~1\LOCALS~1\Temp\TI9882                            PAGE  182

    9367                      .dwattr DW$702, DW_AT_end_column(0x01)
    9368                      .dwendentry
    9369                      .dwendtag DW$702
    9370              
    9371 00000f20               .sect   ".text"
    9372                      .global _GUI_MsgBox_exit_req
    9373              
    9374              DW$711  .dwtag  DW_TAG_subprogram, DW_AT_name("GUI_MsgBox_exit_req"), DW_AT_symbol_name("_GUI_MsgBox_exit_req
    9375                      .dwattr DW$711, DW_AT_low_pc(_GUI_MsgBox_exit_req)
    9376                      .dwattr DW$711, DW_AT_high_pc(0x00)
    9377                      .dwattr DW$711, DW_AT_begin_file("WIDGET\Gui_widget_MsgBox.c")
    9378                      .dwattr DW$711, DW_AT_begin_line(0x30)
    9379                      .dwattr DW$711, DW_AT_begin_column(0x06)
    9380                      .dwpsn  "WIDGET\Gui_widget_MsgBox.c",49,1
    9381              
    9382                      .dwfde DW$CIE
    9383              
    9384              ;***************************************************************
    9385              ;* FNAME: _GUI_MsgBox_exit_req          FR SIZE:   0           *
    9386              ;*                                                             *
    9387              ;* FUNCTION ENVIRONMENT                                        *
    9388              ;*                                                             *
    9389              ;* FUNCTION PROPERTIES                                         *
    9390              ;*                            0 Parameter,  0 Auto,  0 SOE     *
    9391              ;***************************************************************
    9392              
    9393              _GUI_MsgBox_exit_req:
    9394                      .dwcfa  0x1d, -2
    9395                      .dwcfa  0x1c, 26, 0
    9396                      .dwcfa  0x09, 40, 26
    9397                      .dwpsn  "WIDGET\Gui_widget_MsgBox.c",50,2
    9398 00000f20 761F-         MOVW      DP,#_m_occupy_flag
         00000f21 0000 
    9399 00000f22 920C-         MOV       AL,@_m_occupy_flag    ; |50| 
    9400 00000f23 5201          CMPB      AL,#1                 ; |50| 
    9401 00000f24 ED04          BF        L145,NEQ              ; |50| 
    9402                      ; branchcc occurs ; |50| 
    9403                      .dwpsn  "WIDGET\Gui_widget_MsgBox.c",51,3
    9404 00000f25 9A1B          MOVB      AL,#27                ; |51| 
    9405 00000f26 7640!         LCR       #_app_global_key_dummy_press ; |51| 
         00000f27 0000 
    9406                      ; call occurs [#_app_global_key_dummy_press] ; |51| 
    9407                      .dwpsn  "WIDGET\Gui_widget_MsgBox.c",52,2
    9408              L145:    
    9409                      .dwpsn  "WIDGET\Gui_widget_MsgBox.c",53,1
    9410 00000f28 0006          LRETR
    9411                      ; return occurs
    9412                      .dwattr DW$711, DW_AT_end_file("WIDGET\Gui_widget_MsgBox.c")
    9413                      .dwattr DW$711, DW_AT_end_line(0x35)
    9414                      .dwattr DW$711, DW_AT_end_column(0x01)
    9415                      .dwendentry
    9416                      .dwendtag DW$711
    9417              
    9418 00000f29               .sect   ".text"
    9419                      .global _GUI_MsgBox_creat
TMS320C2000 COFF Assembler PC v4.1.3 Thu Nov 29 16:03:34 2012

Tools Copyright (c) 1996-2006 Texas Instruments Incorporated
C:\DOCUME~1\ADMINI~1\LOCALS~1\Temp\TI9882                            PAGE  183

    9420              
    9421              DW$712  .dwtag  DW_TAG_subprogram, DW_AT_name("GUI_MsgBox_creat"), DW_AT_symbol_name("_GUI_MsgBox_creat")
    9422                      .dwattr DW$712, DW_AT_low_pc(_GUI_MsgBox_creat)
    9423                      .dwattr DW$712, DW_AT_high_pc(0x00)
    9424                      .dwattr DW$712, DW_AT_begin_file("WIDGET\Gui_widget_MsgBox.c")
    9425                      .dwattr DW$712, DW_AT_begin_line(0x36)
    9426                      .dwattr DW$712, DW_AT_begin_column(0x06)
    9427                      .dwpsn  "WIDGET\Gui_widget_MsgBox.c",59,1
    9428              
    9429                      .dwfde DW$CIE
    9430              
    9431              ;***************************************************************
    9432              ;* FNAME: _GUI_MsgBox_creat             FR SIZE:  18           *
    9433              ;*                                                             *
    9434              ;* FUNCTION ENVIRONMENT                                        *
    9435              ;*                                                             *
    9436              ;* FUNCTION PROPERTIES                                         *
    9437              ;*                            2 Parameter, 16 Auto,  0 SOE     *
    9438              ;***************************************************************
    9439              
    9440              _GUI_MsgBox_creat:
    9441                      .dwcfa  0x1d, -2
    9442                      .dwcfa  0x1c, 26, 0
    9443                      .dwcfa  0x09, 40, 26
    9444 00000f29 FE12          ADDB      SP,#18
    9445                      .dwcfa  0x1d, -20
    9446              ;* AL    assigned to _x
    9447              DW$713  .dwtag  DW_TAG_formal_parameter, DW_AT_name("x"), DW_AT_symbol_name("_x")
    9448                      .dwattr DW$713, DW_AT_type(*DW$T$11)
    9449                      .dwattr DW$713, DW_AT_location[DW_OP_reg0]
    9450              ;* AH    assigned to _y
    9451              DW$714  .dwtag  DW_TAG_formal_parameter, DW_AT_name("y"), DW_AT_symbol_name("_y")
    9452                      .dwattr DW$714, DW_AT_type(*DW$T$11)
    9453                      .dwattr DW$714, DW_AT_location[DW_OP_reg1]
    9454              DW$715  .dwtag  DW_TAG_formal_parameter, DW_AT_name("wide"), DW_AT_symbol_name("_wide")
    9455                      .dwattr DW$715, DW_AT_type(*DW$T$27)
    9456                      .dwattr DW$715, DW_AT_location[DW_OP_breg20 -21]
    9457              DW$716  .dwtag  DW_TAG_formal_parameter, DW_AT_name("high"), DW_AT_symbol_name("_high")
    9458                      .dwattr DW$716, DW_AT_type(*DW$T$27)
    9459                      .dwattr DW$716, DW_AT_location[DW_OP_breg20 -22]
    9460              ;* AR4   assigned to _title
    9461              DW$717  .dwtag  DW_TAG_formal_parameter, DW_AT_name("title"), DW_AT_symbol_name("_title")
    9462                      .dwattr DW$717, DW_AT_type(*DW$T$52)
    9463                      .dwattr DW$717, DW_AT_location[DW_OP_reg12]
    9464              ;* AR5   assigned to _callback
    9465              DW$718  .dwtag  DW_TAG_formal_parameter, DW_AT_name("callback"), DW_AT_symbol_name("_callback")
    9466                      .dwattr DW$718, DW_AT_type(*DW$T$177)
    9467                      .dwattr DW$718, DW_AT_location[DW_OP_reg14]
    9468              DW$719  .dwtag  DW_TAG_variable, DW_AT_name("x"), DW_AT_symbol_name("_x")
    9469                      .dwattr DW$719, DW_AT_type(*DW$T$11)
    9470                      .dwattr DW$719, DW_AT_location[DW_OP_breg20 -3]
    9471              DW$720  .dwtag  DW_TAG_variable, DW_AT_name("y"), DW_AT_symbol_name("_y")
    9472                      .dwattr DW$720, DW_AT_type(*DW$T$11)
    9473                      .dwattr DW$720, DW_AT_location[DW_OP_breg20 -4]
    9474              DW$721  .dwtag  DW_TAG_variable, DW_AT_name("title"), DW_AT_symbol_name("_title")
TMS320C2000 COFF Assembler PC v4.1.3 Thu Nov 29 16:03:34 2012

Tools Copyright (c) 1996-2006 Texas Instruments Incorporated
C:\DOCUME~1\ADMINI~1\LOCALS~1\Temp\TI9882                            PAGE  184

    9475                      .dwattr DW$721, DW_AT_type(*DW$T$52)
    9476                      .dwattr DW$721, DW_AT_location[DW_OP_breg20 -6]
    9477              DW$722  .dwtag  DW_TAG_variable, DW_AT_name("callback"), DW_AT_symbol_name("_callback")
    9478                      .dwattr DW$722, DW_AT_type(*DW$T$177)
    9479                      .dwattr DW$722, DW_AT_location[DW_OP_breg20 -8]
    9480              DW$723  .dwtag  DW_TAG_variable, DW_AT_name("hp"), DW_AT_symbol_name("_hp")
    9481                      .dwattr DW$723, DW_AT_type(*DW$T$54)
    9482                      .dwattr DW$723, DW_AT_location[DW_OP_breg20 -10]
    9483              DW$724  .dwtag  DW_TAG_variable, DW_AT_name("title_x"), DW_AT_symbol_name("_title_x")
    9484                      .dwattr DW$724, DW_AT_type(*DW$T$10)
    9485                      .dwattr DW$724, DW_AT_location[DW_OP_breg20 -11]
    9486              DW$725  .dwtag  DW_TAG_variable, DW_AT_name("size"), DW_AT_symbol_name("_size")
    9487                      .dwattr DW$725, DW_AT_type(*DW$T$13)
    9488                      .dwattr DW$725, DW_AT_location[DW_OP_breg20 -14]
    9489              DW$726  .dwtag  DW_TAG_variable, DW_AT_name("pmem"), DW_AT_symbol_name("_pmem")
    9490                      .dwattr DW$726, DW_AT_type(*DW$T$186)
    9491                      .dwattr DW$726, DW_AT_location[DW_OP_breg20 -16]
    9492              DW$727  .dwtag  DW_TAG_variable, DW_AT_name("cnt"), DW_AT_symbol_name("_cnt")
    9493                      .dwattr DW$727, DW_AT_type(*DW$T$27)
    9494                      .dwattr DW$727, DW_AT_location[DW_OP_breg20 -17]
    9495              DW$728  .dwtag  DW_TAG_variable, DW_AT_name("key"), DW_AT_symbol_name("_key")
    9496                      .dwattr DW$728, DW_AT_type(*DW$T$10)
    9497                      .dwattr DW$728, DW_AT_location[DW_OP_breg20 -18]
    9498 00000f2a A048          MOVL      *-SP[8],XAR5          ; |59| 
    9499 00000f2b A846          MOVL      *-SP[6],XAR4          ; |59| 
    9500 00000f2c 9744          MOV       *-SP[4],AH            ; |59| 
    9501 00000f2d 9643          MOV       *-SP[3],AL            ; |59| 
    9502                      .dwpsn  "WIDGET\Gui_widget_MsgBox.c",68,10
    9503 00000f2e 2B51          MOV       *-SP[17],#0           ; |68| 
    9504                      .dwpsn  "WIDGET\Gui_widget_MsgBox.c",70,2
    9505 00000f2f 761F-         MOVW      DP,#_edit_is_start
         00000f30 0000 
    9506 00000f31 9201-         MOV       AL,@_edit_is_start    ; |70| 
    9507 00000f32 EC08          BF        L147,EQ               ; |70| 
    9508                      ; branchcc occurs ; |70| 
    9509                      .dwpsn  "WIDGET\Gui_widget_MsgBox.c",70,20
    9510 00000f33 9A1B          MOVB      AL,#27                ; |70| 
    9511 00000f34 FFEF          B         L152,UNC              ; |70| 
         00000f35 008D 
    9512                      ; branch occurs ; |70| 
    9513              L146:    
    9514              DW$L$_GUI_MsgBox_creat$4$B:
    9515                      .dwpsn  "WIDGET\Gui_widget_MsgBox.c",73,3
    9516 00000f36 0A51          INC       *-SP[17]              ; |73| 
    9517 00000f37 9251          MOV       AL,*-SP[17]           ; |73| 
    9518 00000f38 520A          CMPB      AL,#10                ; |73| 
    9519 00000f39 6609          B         L148,HI               ; |73| 
    9520                      ; branchcc occurs ; |73| 
    9521              DW$L$_GUI_MsgBox_creat$4$E:
    9522              DW$L$_GUI_MsgBox_creat$5$B:
    9523                      .dwpsn  "WIDGET\Gui_widget_MsgBox.c",73,21
    9524                      .dwpsn  "WIDGET\Gui_widget_MsgBox.c",74,3
    9525              DW$L$_GUI_MsgBox_creat$5$E:
    9526              L147:    
    9527              DW$L$_GUI_MsgBox_creat$6$B:
TMS320C2000 COFF Assembler PC v4.1.3 Thu Nov 29 16:03:34 2012

Tools Copyright (c) 1996-2006 Texas Instruments Incorporated
C:\DOCUME~1\ADMINI~1\LOCALS~1\Temp\TI9882                            PAGE  185

    9528                      .dwpsn  "WIDGET\Gui_widget_MsgBox.c",71,10
    9529 00000f3a 761F-         MOVW      DP,#_m_msgbox_lock
         00000f3b 0000 
    9530 00000f3c 8A18-         MOVL      XAR4,@_m_msgbox_lock  ; |71| 
    9531 00000f3d 9A32          MOVB      AL,#50                ; |71| 
    9532 00000f3e 7640!         LCR       #_os_sem_pend         ; |71| 
         00000f3f 0000 
    9533                      ; call occurs [#_os_sem_pend] ; |71| 
    9534 00000f40 5200          CMPB      AL,#0                 ; |71| 
    9535 00000f41 EDF5          BF        L146,NEQ              ; |71| 
    9536                      ; branchcc occurs ; |71| 
    9537              DW$L$_GUI_MsgBox_creat$6$E:
    9538              L148:    
    9539                      .dwpsn  "WIDGET\Gui_widget_MsgBox.c",76,2
    9540 00000f42 761F-         MOVW      DP,#_m_occupy_flag
         00000f43 0000 
    9541 00000f44 280C-         MOV       @_m_occupy_flag,#1    ; |76| 
         00000f45 0001 
    9542                      .dwpsn  "WIDGET\Gui_widget_MsgBox.c",77,2
    9543 00000f46 2B41          MOV       *-SP[1],#0            ; |77| 
    9544 00000f47 5C55          MOVZ      AR4,*-SP[21]          ; |77| 
    9545 00000f48 5D56          MOVZ      AR5,*-SP[22]          ; |77| 
    9546 00000f49 9243          MOV       AL,*-SP[3]            ; |77| 
    9547 00000f4a 9344          MOV       AH,*-SP[4]            ; |77| 
    9548 00000f4b 7640!         LCR       #_GUI_window_creat    ; |77| 
         00000f4c 0000 
    9549                      ; call occurs [#_GUI_window_creat] ; |77| 
    9550 00000f4d A84A          MOVL      *-SP[10],XAR4         ; |77| 
    9551                      .dwpsn  "WIDGET\Gui_widget_MsgBox.c",78,2
    9552 00000f4e 064A          MOVL      ACC,*-SP[10]          ; |78| 
    9553 00000f4f ED03          BF        L149,NEQ              ; |78| 
    9554                      ; branchcc occurs ; |78| 
    9555                      .dwpsn  "WIDGET\Gui_widget_MsgBox.c",78,13
    9556 00000f50 9A00          MOVB      AL,#0
    9557 00000f51 6F70          B         L152,UNC              ; |78| 
    9558                      ; branch occurs ; |78| 
    9559              L149:    
    9560                      .dwpsn  "WIDGET\Gui_widget_MsgBox.c",79,5
    9561 00000f52 BE02          MOVB      XAR6,#2
    9562 00000f53 06A6          MOVL      ACC,XAR6              ; |79| 
    9563 00000f54 0D55          ADDU      ACC,*-SP[21]          ; |79| 
    9564 00000f55 1EA6          MOVL      XAR6,ACC              ; |79| 
    9565 00000f56 0202          MOVB      ACC,#2
    9566 00000f57 0D56          ADDU      ACC,*-SP[22]          ; |79| 
    9567 00000f58 1EAC          MOVL      XT,ACC                ; |79| 
    9568 00000f59 5665          IMPYXUL   P,XT,XAR6             ; |79| 
         00000f5a 00A6 
    9569 00000f5b A94E          MOVL      *-SP[14],P            ; |79| 
    9570                      .dwpsn  "WIDGET\Gui_widget_MsgBox.c",83,2
    9571 00000f5c 064E          MOVL      ACC,*-SP[14]          ; |83| 
    9572 00000f5d 7640!         LCR       #_app_malloc          ; |83| 
         00000f5e 0000 
    9573                      ; call occurs [#_app_malloc] ; |83| 
    9574 00000f5f A850          MOVL      *-SP[16],XAR4         ; |83| 
    9575                      .dwpsn  "WIDGET\Gui_widget_MsgBox.c",85,2
TMS320C2000 COFF Assembler PC v4.1.3 Thu Nov 29 16:03:34 2012

Tools Copyright (c) 1996-2006 Texas Instruments Incorporated
C:\DOCUME~1\ADMINI~1\LOCALS~1\Temp\TI9882                            PAGE  186

    9576 00000f60 0650          MOVL      ACC,*-SP[16]          ; |85| 
    9577 00000f61 ED0E          BF        L150,NEQ              ; |85| 
    9578                      ; branchcc occurs ; |85| 
    9579                      .dwpsn  "WIDGET\Gui_widget_MsgBox.c",88,3
    9580 00000f62 761F-         MOVW      DP,#_m_occupy_flag
         00000f63 0000 
    9581 00000f64 2B0C-         MOV       @_m_occupy_flag,#0    ; |88| 
    9582                      .dwpsn  "WIDGET\Gui_widget_MsgBox.c",89,3
    9583 00000f65 8A4A          MOVL      XAR4,*-SP[10]         ; |89| 
    9584 00000f66 7640!         LCR       #_GUI_window_destory  ; |89| 
         00000f67 0000 
    9585                      ; call occurs [#_GUI_window_destory] ; |89| 
    9586                      .dwpsn  "WIDGET\Gui_widget_MsgBox.c",90,3
    9587 00000f68 761F-         MOVW      DP,#_m_msgbox_lock
         00000f69 0000 
    9588 00000f6a 8A18-         MOVL      XAR4,@_m_msgbox_lock  ; |90| 
    9589 00000f6b 7640!         LCR       #_OSSemPost           ; |90| 
         00000f6c 0000 
    9590                      ; call occurs [#_OSSemPost] ; |90| 
    9591                      .dwpsn  "WIDGET\Gui_widget_MsgBox.c",91,3
    9592 00000f6d 9A00          MOVB      AL,#0
    9593 00000f6e 6F53          B         L152,UNC              ; |91| 
    9594                      ; branch occurs ; |91| 
    9595              L150:    
    9596                      .dwpsn  "WIDGET\Gui_widget_MsgBox.c",93,2
    9597 00000f6f 8A4A          MOVL      XAR4,*-SP[10]         ; |93| 
    9598 00000f70 7640!         LCR       #_GUI_window_hwin_req ; |93| 
         00000f71 0000 
    9599                      ; call occurs [#_GUI_window_hwin_req] ; |93| 
    9600                      .dwpsn  "WIDGET\Gui_widget_MsgBox.c",97,2
    9601 00000f72 9256          MOV       AL,*-SP[22]           ; |97| 
    9602 00000f73 9444          ADD       AL,*-SP[4]            ; |97| 
    9603 00000f74 9641          MOV       *-SP[1],AL            ; |97| 
    9604 00000f75 9255          MOV       AL,*-SP[21]           ; |97| 
    9605 00000f76 9344          MOV       AH,*-SP[4]            ; |97| 
    9606 00000f77 9443          ADD       AL,*-SP[3]            ; |97| 
    9607 00000f78 5DA9          MOVZ      AR5,AL                ; |97| 
    9608 00000f79 8A50          MOVL      XAR4,*-SP[16]         ; |97| 
    9609 00000f7a 9243          MOV       AL,*-SP[3]            ; |97| 
    9610 00000f7b 7640!         LCR       #_GUI_read_block      ; |97| 
         00000f7c 0000 
    9611                      ; call occurs [#_GUI_read_block] ; |97| 
    9612                      .dwpsn  "WIDGET\Gui_widget_MsgBox.c",99,2
    9613 00000f7d 5C55          MOVZ      AR4,*-SP[21]          ; |99| 
    9614 00000f7e 5D56          MOVZ      AR5,*-SP[22]          ; |99| 
    9615 00000f7f 9243          MOV       AL,*-SP[3]            ; |99| 
    9616 00000f80 9344          MOV       AH,*-SP[4]            ; |99| 
    9617 00000f81 7640'         LCR       #_GUI_MsgBox_draw_frame ; |99| 
         00000f82 0ED1 
    9618                      ; call occurs [#_GUI_MsgBox_draw_frame] ; |99| 
    9619                      .dwpsn  "WIDGET\Gui_widget_MsgBox.c",100,2
    9620 00000f83 8A46          MOVL      XAR4,*-SP[6]          ; |100| 
    9621 00000f84 7640!         LCR       #_global_strlen       ; |100| 
         00000f85 0000 
    9622                      ; call occurs [#_global_strlen] ; |100| 
TMS320C2000 COFF Assembler PC v4.1.3 Thu Nov 29 16:03:34 2012

Tools Copyright (c) 1996-2006 Texas Instruments Incorporated
C:\DOCUME~1\ADMINI~1\LOCALS~1\Temp\TI9882                            PAGE  187

    9623 00000f86 5603          MOV       ACC,AL << #3          ; |100| 
         00000f87 03A9 
    9624 00000f88 9355          MOV       AH,*-SP[21]           ; |100| 
    9625 00000f89 9FA9          SUB       AH,AL                 ; |100| 
    9626 00000f8a FFD0          LSR       AH,1                  ; |100| 
    9627 00000f8b 974B          MOV       *-SP[11],AH           ; |100| 
    9628                      .dwpsn  "WIDGET\Gui_widget_MsgBox.c",101,2
    9629 00000f8c 9A03          MOVB      AL,#3                 ; |101| 
    9630 00000f8d 7640!         LCR       #_GUI_set_Fgcolor     ; |101| 
         00000f8e 0000 
    9631                      ; call occurs [#_GUI_set_Fgcolor] ; |101| 
    9632                      .dwpsn  "WIDGET\Gui_widget_MsgBox.c",102,2
    9633 00000f8f 9A01          MOVB      AL,#1                 ; |102| 
    9634 00000f90 7640!         LCR       #_GUI_set_Bgcolor     ; |102| 
         00000f91 0000 
    9635                      ; call occurs [#_GUI_set_Bgcolor] ; |102| 
    9636                      .dwpsn  "WIDGET\Gui_widget_MsgBox.c",103,2
    9637 00000f92 924B          MOV       AL,*-SP[11]           ; |103| 
    9638 00000f93 9B00          MOVB      AH,#0
    9639 00000f94 7640!         LCR       #_GUI_xy_set          ; |103| 
         00000f95 0000 
    9640                      ; call occurs [#_GUI_xy_set] ; |103| 
    9641                      .dwpsn  "WIDGET\Gui_widget_MsgBox.c",104,2
    9642 00000f96 9AFC          MOVB      AL,#252               ; |104| 
    9643 00000f97 7640!         LCR       #_GUI_set_Fgcolor     ; |104| 
         00000f98 0000 
    9644                      ; call occurs [#_GUI_set_Fgcolor] ; |104| 
    9645                      .dwpsn  "WIDGET\Gui_widget_MsgBox.c",105,2
    9646 00000f99 9A01          MOVB      AL,#1                 ; |105| 
    9647 00000f9a 7640!         LCR       #_GUI_set_Bgcolor     ; |105| 
         00000f9b 0000 
    9648                      ; call occurs [#_GUI_set_Bgcolor] ; |105| 
    9649                      .dwpsn  "WIDGET\Gui_widget_MsgBox.c",106,2
    9650 00000f9c 8A46          MOVL      XAR4,*-SP[6]          ; |106| 
    9651 00000f9d 7640!         LCR       #_GUI_string_display  ; |106| 
         00000f9e 0000 
    9652                      ; call occurs [#_GUI_string_display] ; |106| 
    9653                      .dwpsn  "WIDGET\Gui_widget_MsgBox.c",107,2
    9654 00000f9f 0648          MOVL      ACC,*-SP[8]           ; |107| 
    9655 00000fa0 EC05          BF        L151,EQ               ; |107| 
    9656                      ; branchcc occurs ; |107| 
    9657                      .dwpsn  "WIDGET\Gui_widget_MsgBox.c",109,3
    9658 00000fa1 C548          MOVL      XAR7,*-SP[8]          ; |109| 
    9659 00000fa2 8A4A          MOVL      XAR4,*-SP[10]         ; |109| 
    9660 00000fa3 3E67          LCR       *XAR7                 ; |109| 
    9661                      ; call occurs [XAR7] ; |109| 
    9662 00000fa4 9652          MOV       *-SP[18],AL           ; |109| 
    9663              L151:    
    9664                      .dwpsn  "WIDGET\Gui_widget_MsgBox.c",111,2
    9665 00000fa5 8A4A          MOVL      XAR4,*-SP[10]         ; |111| 
    9666 00000fa6 7640!         LCR       #_GUI_window_destory  ; |111| 
         00000fa7 0000 
    9667                      ; call occurs [#_GUI_window_destory] ; |111| 
    9668                      .dwpsn  "WIDGET\Gui_widget_MsgBox.c",116,2
    9669 00000fa8 9256          MOV       AL,*-SP[22]           ; |116| 
TMS320C2000 COFF Assembler PC v4.1.3 Thu Nov 29 16:03:34 2012

Tools Copyright (c) 1996-2006 Texas Instruments Incorporated
C:\DOCUME~1\ADMINI~1\LOCALS~1\Temp\TI9882                            PAGE  188

    9670 00000fa9 9444          ADD       AL,*-SP[4]            ; |116| 
    9671 00000faa 9641          MOV       *-SP[1],AL            ; |116| 
    9672 00000fab 2B42          MOV       *-SP[2],#0            ; |116| 
    9673 00000fac 9255          MOV       AL,*-SP[21]           ; |116| 
    9674 00000fad 9344          MOV       AH,*-SP[4]            ; |116| 
    9675 00000fae 9443          ADD       AL,*-SP[3]            ; |116| 
    9676 00000faf 5DA9          MOVZ      AR5,AL                ; |116| 
    9677 00000fb0 8A50          MOVL      XAR4,*-SP[16]         ; |116| 
    9678 00000fb1 9243          MOV       AL,*-SP[3]            ; |116| 
    9679 00000fb2 7640!         LCR       #_GUI_write_block     ; |116| 
         00000fb3 0000 
    9680                      ; call occurs [#_GUI_write_block] ; |116| 
    9681                      .dwpsn  "WIDGET\Gui_widget_MsgBox.c",117,5
    9682 00000fb4 8A50          MOVL      XAR4,*-SP[16]         ; |117| 
    9683 00000fb5 7640!         LCR       #_app_free            ; |117| 
         00000fb6 0000 
    9684                      ; call occurs [#_app_free] ; |117| 
    9685                      .dwpsn  "WIDGET\Gui_widget_MsgBox.c",119,2
    9686 00000fb7 8A4A          MOVL      XAR4,*-SP[10]         ; |119| 
    9687 00000fb8 7640!         LCR       #_GUI_window_hwin_release ; |119| 
         00000fb9 0000 
    9688                      ; call occurs [#_GUI_window_hwin_release] ; |119| 
    9689                      .dwpsn  "WIDGET\Gui_widget_MsgBox.c",120,2
    9690 00000fba 761F-         MOVW      DP,#_m_occupy_flag
         00000fbb 0000 
    9691 00000fbc 2B0C-         MOV       @_m_occupy_flag,#0    ; |120| 
    9692                      .dwpsn  "WIDGET\Gui_widget_MsgBox.c",121,2
    9693 00000fbd 8A18-         MOVL      XAR4,@_m_msgbox_lock  ; |121| 
    9694 00000fbe 7640!         LCR       #_OSSemPost           ; |121| 
         00000fbf 0000 
    9695                      ; call occurs [#_OSSemPost] ; |121| 
    9696                      .dwpsn  "WIDGET\Gui_widget_MsgBox.c",122,2
    9697 00000fc0 9252          MOV       AL,*-SP[18]           ; |122| 
    9698              L152:    
    9699                      .dwpsn  "WIDGET\Gui_widget_MsgBox.c",123,1
    9700 00000fc1 FE92          SUBB      SP,#18                ; |122| 
    9701                      .dwcfa  0x1d, -2
    9702 00000fc2 0006          LRETR
    9703                      ; return occurs
    9704              
    9705              DW$729  .dwtag  DW_TAG_loop
    9706                      .dwattr DW$729, DW_AT_name("C:\DOCUME~1\ADMINI~1\LOCALS~1\Temp\TI9882:L147:1:1354176212")
    9707                      .dwattr DW$729, DW_AT_begin_file("WIDGET\Gui_widget_MsgBox.c")
    9708                      .dwattr DW$729, DW_AT_begin_line(0x47)
    9709                      .dwattr DW$729, DW_AT_end_line(0x4a)
    9710              DW$730  .dwtag  DW_TAG_loop_range
    9711                      .dwattr DW$730, DW_AT_low_pc(DW$L$_GUI_MsgBox_creat$6$B)
    9712                      .dwattr DW$730, DW_AT_high_pc(DW$L$_GUI_MsgBox_creat$6$E)
    9713              DW$731  .dwtag  DW_TAG_loop_range
    9714                      .dwattr DW$731, DW_AT_low_pc(DW$L$_GUI_MsgBox_creat$4$B)
    9715                      .dwattr DW$731, DW_AT_high_pc(DW$L$_GUI_MsgBox_creat$4$E)
    9716              DW$732  .dwtag  DW_TAG_loop_range
    9717                      .dwattr DW$732, DW_AT_low_pc(DW$L$_GUI_MsgBox_creat$5$B)
    9718                      .dwattr DW$732, DW_AT_high_pc(DW$L$_GUI_MsgBox_creat$5$E)
    9719                      .dwendtag DW$729
TMS320C2000 COFF Assembler PC v4.1.3 Thu Nov 29 16:03:34 2012

Tools Copyright (c) 1996-2006 Texas Instruments Incorporated
C:\DOCUME~1\ADMINI~1\LOCALS~1\Temp\TI9882                            PAGE  189

    9720              
    9721                      .dwattr DW$712, DW_AT_end_file("WIDGET\Gui_widget_MsgBox.c")
    9722                      .dwattr DW$712, DW_AT_end_line(0x7b)
    9723                      .dwattr DW$712, DW_AT_end_column(0x01)
    9724                      .dwendentry
    9725                      .dwendtag DW$712
    9726              
    9727 00000fc3               .sect   ".text"
    9728                      .global _Gui_MsgBox_init
    9729              
    9730              DW$733  .dwtag  DW_TAG_subprogram, DW_AT_name("Gui_MsgBox_init"), DW_AT_symbol_name("_Gui_MsgBox_init")
    9731                      .dwattr DW$733, DW_AT_low_pc(_Gui_MsgBox_init)
    9732                      .dwattr DW$733, DW_AT_high_pc(0x00)
    9733                      .dwattr DW$733, DW_AT_begin_file("WIDGET\Gui_widget_MsgBox.c")
    9734                      .dwattr DW$733, DW_AT_begin_line(0x7d)
    9735                      .dwattr DW$733, DW_AT_begin_column(0x06)
    9736                      .dwpsn  "WIDGET\Gui_widget_MsgBox.c",126,1
    9737              
    9738                      .dwfde DW$CIE
    9739              
    9740              ;***************************************************************
    9741              ;* FNAME: _Gui_MsgBox_init              FR SIZE:   0           *
    9742              ;*                                                             *
    9743              ;* FUNCTION ENVIRONMENT                                        *
    9744              ;*                                                             *
    9745              ;* FUNCTION PROPERTIES                                         *
    9746              ;*                            0 Parameter,  0 Auto,  0 SOE     *
    9747              ;***************************************************************
    9748              
    9749              _Gui_MsgBox_init:
    9750                      .dwcfa  0x1d, -2
    9751                      .dwcfa  0x1c, 26, 0
    9752                      .dwcfa  0x09, 40, 26
    9753                      .dwpsn  "WIDGET\Gui_widget_MsgBox.c",127,2
    9754 00000fc3 9A01          MOVB      AL,#1                 ; |127| 
    9755 00000fc4 8F00-         MOVL      XAR4,#_m_msgbox_lock  ; |127| 
         00000fc5 0018 
    9756 00000fc6 7640!         LCR       #_os_sem_creat        ; |127| 
         00000fc7 0000 
    9757                      ; call occurs [#_os_sem_creat] ; |127| 
    9758                      .dwpsn  "WIDGET\Gui_widget_MsgBox.c",128,2
    9759                      .dwpsn  "WIDGET\Gui_widget_MsgBox.c",129,1
    9760 00000fc8 0006          LRETR
    9761                      ; return occurs
    9762                      .dwattr DW$733, DW_AT_end_file("WIDGET\Gui_widget_MsgBox.c")
    9763                      .dwattr DW$733, DW_AT_end_line(0x81)
    9764                      .dwattr DW$733, DW_AT_end_column(0x01)
    9765                      .dwendentry
    9766                      .dwendtag DW$733
    9767              
    9768 00000fc9               .sect   ".text"
    9769                      .global _Gui_progress_bar_creat
    9770              
    9771              DW$734  .dwtag  DW_TAG_subprogram, DW_AT_name("Gui_progress_bar_creat"), DW_AT_symbol_name("_Gui_progress_bar
    9772                      .dwattr DW$734, DW_AT_low_pc(_Gui_progress_bar_creat)
TMS320C2000 COFF Assembler PC v4.1.3 Thu Nov 29 16:03:34 2012

Tools Copyright (c) 1996-2006 Texas Instruments Incorporated
C:\DOCUME~1\ADMINI~1\LOCALS~1\Temp\TI9882                            PAGE  190

    9773                      .dwattr DW$734, DW_AT_high_pc(0x00)
    9774                      .dwattr DW$734, DW_AT_begin_file("WIDGET\Gui_widget_progress_bar.c")
    9775                      .dwattr DW$734, DW_AT_begin_line(0x10)
    9776                      .dwattr DW$734, DW_AT_begin_column(0x09)
    9777                      .dwpsn  "WIDGET\Gui_widget_progress_bar.c",22,1
    9778              
    9779                      .dwfde DW$CIE
    9780              
    9781              ;***************************************************************
    9782              ;* FNAME: _Gui_progress_bar_creat       FR SIZE:  12           *
    9783              ;*                                                             *
    9784              ;* FUNCTION ENVIRONMENT                                        *
    9785              ;*                                                             *
    9786              ;* FUNCTION PROPERTIES                                         *
    9787              ;*                            2 Parameter,  9 Auto,  0 SOE     *
    9788              ;***************************************************************
    9789              
    9790              _Gui_progress_bar_creat:
    9791                      .dwcfa  0x1d, -2
    9792                      .dwcfa  0x1c, 26, 0
    9793                      .dwcfa  0x09, 40, 26
    9794 00000fc9 FE0C          ADDB      SP,#12
    9795                      .dwcfa  0x1d, -14
    9796              ;* AL    assigned to _xcoord
    9797              DW$735  .dwtag  DW_TAG_formal_parameter, DW_AT_name("xcoord"), DW_AT_symbol_name("_xcoord")
    9798                      .dwattr DW$735, DW_AT_type(*DW$T$11)
    9799                      .dwattr DW$735, DW_AT_location[DW_OP_reg0]
    9800              ;* AH    assigned to _ycoord
    9801              DW$736  .dwtag  DW_TAG_formal_parameter, DW_AT_name("ycoord"), DW_AT_symbol_name("_ycoord")
    9802                      .dwattr DW$736, DW_AT_type(*DW$T$11)
    9803                      .dwattr DW$736, DW_AT_location[DW_OP_reg1]
    9804              ;* AR5   assigned to _wide
    9805              DW$737  .dwtag  DW_TAG_formal_parameter, DW_AT_name("wide"), DW_AT_symbol_name("_wide")
    9806                      .dwattr DW$737, DW_AT_type(*DW$T$27)
    9807                      .dwattr DW$737, DW_AT_location[DW_OP_reg14]
    9808              DW$738  .dwtag  DW_TAG_formal_parameter, DW_AT_name("high"), DW_AT_symbol_name("_high")
    9809                      .dwattr DW$738, DW_AT_type(*DW$T$27)
    9810                      .dwattr DW$738, DW_AT_location[DW_OP_breg20 -15]
    9811              DW$739  .dwtag  DW_TAG_formal_parameter, DW_AT_name("setp_num"), DW_AT_symbol_name("_setp_num")
    9812                      .dwattr DW$739, DW_AT_type(*DW$T$27)
    9813                      .dwattr DW$739, DW_AT_location[DW_OP_breg20 -16]
    9814              ;* AR4   assigned to _fatherhp
    9815              DW$740  .dwtag  DW_TAG_formal_parameter, DW_AT_name("fatherhp"), DW_AT_symbol_name("_fatherhp")
    9816                      .dwattr DW$740, DW_AT_type(*DW$T$54)
    9817                      .dwattr DW$740, DW_AT_location[DW_OP_reg12]
    9818              DW$741  .dwtag  DW_TAG_variable, DW_AT_name("xcoord"), DW_AT_symbol_name("_xcoord")
    9819                      .dwattr DW$741, DW_AT_type(*DW$T$11)
    9820                      .dwattr DW$741, DW_AT_location[DW_OP_breg20 -3]
    9821              DW$742  .dwtag  DW_TAG_variable, DW_AT_name("ycoord"), DW_AT_symbol_name("_ycoord")
    9822                      .dwattr DW$742, DW_AT_type(*DW$T$11)
    9823                      .dwattr DW$742, DW_AT_location[DW_OP_breg20 -4]
    9824              DW$743  .dwtag  DW_TAG_variable, DW_AT_name("wide"), DW_AT_symbol_name("_wide")
    9825                      .dwattr DW$743, DW_AT_type(*DW$T$27)
    9826                      .dwattr DW$743, DW_AT_location[DW_OP_breg20 -5]
    9827              DW$744  .dwtag  DW_TAG_variable, DW_AT_name("fatherhp"), DW_AT_symbol_name("_fatherhp")
TMS320C2000 COFF Assembler PC v4.1.3 Thu Nov 29 16:03:34 2012

Tools Copyright (c) 1996-2006 Texas Instruments Incorporated
C:\DOCUME~1\ADMINI~1\LOCALS~1\Temp\TI9882                            PAGE  191

    9828                      .dwattr DW$744, DW_AT_type(*DW$T$54)
    9829                      .dwattr DW$744, DW_AT_location[DW_OP_breg20 -8]
    9830              DW$745  .dwtag  DW_TAG_variable, DW_AT_name("hp"), DW_AT_symbol_name("_hp")
    9831                      .dwattr DW$745, DW_AT_type(*DW$T$54)
    9832                      .dwattr DW$745, DW_AT_location[DW_OP_breg20 -10]
    9833              DW$746  .dwtag  DW_TAG_variable, DW_AT_name("wide_shadow"), DW_AT_symbol_name("_wide_shadow")
    9834                      .dwattr DW$746, DW_AT_type(*DW$T$27)
    9835                      .dwattr DW$746, DW_AT_location[DW_OP_breg20 -11]
    9836 00000fca A848          MOVL      *-SP[8],XAR4          ; |22| 
    9837 00000fcb 7D45          MOV       *-SP[5],AR5           ; |22| 
    9838 00000fcc 9744          MOV       *-SP[4],AH            ; |22| 
    9839 00000fcd 9643          MOV       *-SP[3],AL            ; |22| 
    9840                      .dwpsn  "WIDGET\Gui_widget_progress_bar.c",24,10
    9841 00000fce 9245          MOV       AL,*-SP[5]            ; |24| 
    9842 00000fcf 964B          MOV       *-SP[11],AL           ; |24| 
    9843                      .dwpsn  "WIDGET\Gui_widget_progress_bar.c",25,2
    9844 00000fd0 9A01          MOVB      AL,#1                 ; |25| 
    9845 00000fd1 7640!         LCR       #_GUI_set_Bgcolor     ; |25| 
         00000fd2 0000 
    9846                      ; call occurs [#_GUI_set_Bgcolor] ; |25| 
    9847                      .dwpsn  "WIDGET\Gui_widget_progress_bar.c",26,2
    9848 00000fd3 9AFF          MOVB      AL,#255               ; |26| 
    9849 00000fd4 7640!         LCR       #_GUI_set_Fgcolor     ; |26| 
         00000fd5 0000 
    9850                      ; call occurs [#_GUI_set_Fgcolor] ; |26| 
    9851                      .dwpsn  "WIDGET\Gui_widget_progress_bar.c",27,2
    9852 00000fd6 761F-         MOVW      DP,#_m_progress_max_pos
         00000fd7 0000 
    9853 00000fd8 9250          MOV       AL,*-SP[16]           ; |27| 
    9854 00000fd9 9606-         MOV       @_m_progress_max_pos,AL ; |27| 
    9855                      .dwpsn  "WIDGET\Gui_widget_progress_bar.c",28,2
    9856 00000fda 2B07-         MOV       @_m_progress_cur_pos,#0 ; |28| 
    9857                      .dwpsn  "WIDGET\Gui_widget_progress_bar.c",29,2
    9858 00000fdb 0E45          MOVU      ACC,*-SP[5]
    9859 00000fdc F60F          RPT       #15
    9860 00000fdd 1F50  ||     SUBCU     ACC,*-SP[16]          ; |29| 
    9861 00000fde 9608-         MOV       @_m_progress_setp_size,AL ; |29| 
    9862                      .dwpsn  "WIDGET\Gui_widget_progress_bar.c",30,2
    9863 00000fdf 2D50          MOV       T,*-SP[16]            ; |30| 
    9864 00000fe0 1208-         MPY       ACC,T,@_m_progress_setp_size ; |30| 
    9865 00000fe1 9645          MOV       *-SP[5],AL            ; |30| 
    9866                      .dwpsn  "WIDGET\Gui_widget_progress_bar.c",31,2
    9867                      .dwpsn  "WIDGET\Gui_widget_progress_bar.c",35,2
    9868 00000fe2 924F          MOV       AL,*-SP[15]           ; |35| 
    9869 00000fe3 9641          MOV       *-SP[1],AL            ; |35| 
    9870 00000fe4 2842          MOV       *-SP[2],#1536         ; |35| 
         00000fe5 0600 
    9871 00000fe6 5D45          MOVZ      AR5,*-SP[5]           ; |35| 
    9872 00000fe7 8A48          MOVL      XAR4,*-SP[8]          ; |35| 
    9873 00000fe8 9243          MOV       AL,*-SP[3]            ; |35| 
    9874 00000fe9 9344          MOV       AH,*-SP[4]            ; |35| 
    9875 00000fea 7640!         LCR       #_GUI_window_child_creat ; |35| 
         00000feb 0000 
    9876                      ; call occurs [#_GUI_window_child_creat] ; |35| 
    9877 00000fec A84A          MOVL      *-SP[10],XAR4         ; |35| 
TMS320C2000 COFF Assembler PC v4.1.3 Thu Nov 29 16:03:34 2012

Tools Copyright (c) 1996-2006 Texas Instruments Incorporated
C:\DOCUME~1\ADMINI~1\LOCALS~1\Temp\TI9882                            PAGE  192

    9878                      .dwpsn  "WIDGET\Gui_widget_progress_bar.c",42,2
    9879 00000fed 8A4A          MOVL      XAR4,*-SP[10]         ; |42| 
    9880 00000fee D008          MOVB      XAR0,#8               ; |42| 
    9881 00000fef 2894          MOV       *+XAR4[AR0],#9        ; |42| 
         00000ff0 0009 
    9882                      .dwpsn  "WIDGET\Gui_widget_progress_bar.c",43,2
    9883 00000ff1 761F-         MOVW      DP,#_m_progress_dischange
         00000ff2 0000 
    9884 00000ff3 2B0B-         MOV       @_m_progress_dischange,#0 ; |43| 
    9885                      .dwpsn  "WIDGET\Gui_widget_progress_bar.c",44,2
    9886 00000ff4 8A4A          MOVL      XAR4,*-SP[10]         ; |44| 
    9887                      .dwpsn  "WIDGET\Gui_widget_progress_bar.c",45,1
    9888 00000ff5 FE8C          SUBB      SP,#12                ; |44| 
    9889                      .dwcfa  0x1d, -2
    9890 00000ff6 0006          LRETR
    9891                      ; return occurs
    9892                      .dwattr DW$734, DW_AT_end_file("WIDGET\Gui_widget_progress_bar.c")
    9893                      .dwattr DW$734, DW_AT_end_line(0x2d)
    9894                      .dwattr DW$734, DW_AT_end_column(0x01)
    9895                      .dwendentry
    9896                      .dwendtag DW$734
    9897              
    9898 00000ff7               .sect   ".text"
    9899                      .global _Gui_progress_mod_setp
    9900              
    9901              DW$747  .dwtag  DW_TAG_subprogram, DW_AT_name("Gui_progress_mod_setp"), DW_AT_symbol_name("_Gui_progress_mod_
    9902                      .dwattr DW$747, DW_AT_low_pc(_Gui_progress_mod_setp)
    9903                      .dwattr DW$747, DW_AT_high_pc(0x00)
    9904                      .dwattr DW$747, DW_AT_begin_file("WIDGET\Gui_widget_progress_bar.c")
    9905                      .dwattr DW$747, DW_AT_begin_line(0x35)
    9906                      .dwattr DW$747, DW_AT_begin_column(0x07)
    9907                      .dwpsn  "WIDGET\Gui_widget_progress_bar.c",54,1
    9908              
    9909                      .dwfde DW$CIE
    9910              
    9911              ;***************************************************************
    9912              ;* FNAME: _Gui_progress_mod_setp        FR SIZE:   4           *
    9913              ;*                                                             *
    9914              ;* FUNCTION ENVIRONMENT                                        *
    9915              ;*                                                             *
    9916              ;* FUNCTION PROPERTIES                                         *
    9917              ;*                            0 Parameter,  3 Auto,  0 SOE     *
    9918              ;***************************************************************
    9919              
    9920              _Gui_progress_mod_setp:
    9921                      .dwcfa  0x1d, -2
    9922                      .dwcfa  0x1c, 26, 0
    9923                      .dwcfa  0x09, 40, 26
    9924 00000ff7 FE04          ADDB      SP,#4
    9925                      .dwcfa  0x1d, -6
    9926              ;* AR4   assigned to _hp
    9927              DW$748  .dwtag  DW_TAG_formal_parameter, DW_AT_name("hp"), DW_AT_symbol_name("_hp")
    9928                      .dwattr DW$748, DW_AT_type(*DW$T$54)
    9929                      .dwattr DW$748, DW_AT_location[DW_OP_reg12]
    9930              ;* AL    assigned to _setp_size
TMS320C2000 COFF Assembler PC v4.1.3 Thu Nov 29 16:03:34 2012

Tools Copyright (c) 1996-2006 Texas Instruments Incorporated
C:\DOCUME~1\ADMINI~1\LOCALS~1\Temp\TI9882                            PAGE  193

    9931              DW$749  .dwtag  DW_TAG_formal_parameter, DW_AT_name("setp_size"), DW_AT_symbol_name("_setp_size")
    9932                      .dwattr DW$749, DW_AT_type(*DW$T$11)
    9933                      .dwattr DW$749, DW_AT_location[DW_OP_reg0]
    9934              DW$750  .dwtag  DW_TAG_variable, DW_AT_name("hp"), DW_AT_symbol_name("_hp")
    9935                      .dwattr DW$750, DW_AT_type(*DW$T$54)
    9936                      .dwattr DW$750, DW_AT_location[DW_OP_breg20 -2]
    9937              DW$751  .dwtag  DW_TAG_variable, DW_AT_name("setp_size"), DW_AT_symbol_name("_setp_size")
    9938                      .dwattr DW$751, DW_AT_type(*DW$T$11)
    9939                      .dwattr DW$751, DW_AT_location[DW_OP_breg20 -3]
    9940 00000ff8 9643          MOV       *-SP[3],AL            ; |54| 
    9941 00000ff9 A842          MOVL      *-SP[2],XAR4          ; |54| 
    9942                      .dwpsn  "WIDGET\Gui_widget_progress_bar.c",55,2
    9943 00000ffa 761F-         MOVW      DP,#_m_progress_max_pos
         00000ffb 0000 
    9944 00000ffc 9243          MOV       AL,*-SP[3]            ; |55| 
    9945 00000ffd 9606-         MOV       @_m_progress_max_pos,AL ; |55| 
    9946                      .dwpsn  "WIDGET\Gui_widget_progress_bar.c",56,2
    9947 00000ffe 8A42          MOVL      XAR4,*-SP[2]          ; |56| 
    9948 00000fff 0EDC          MOVU      ACC,*+XAR4[3]
    9949 00001000 F60F          RPT       #15
    9950 00001001 1F43  ||     SUBCU     ACC,*-SP[3]           ; |56| 
    9951 00001002 9608-         MOV       @_m_progress_setp_size,AL ; |56| 
    9952                      .dwpsn  "WIDGET\Gui_widget_progress_bar.c",57,2
    9953 00001003 5200          CMPB      AL,#0                 ; |57| 
    9954 00001004 ED03          BF        L153,NEQ              ; |57| 
    9955                      ; branchcc occurs ; |57| 
    9956                      .dwpsn  "WIDGET\Gui_widget_progress_bar.c",57,29
    9957 00001005 2808-         MOV       @_m_progress_setp_size,#1 ; |57| 
         00001006 0001 
    9958                      .dwpsn  "WIDGET\Gui_widget_progress_bar.c",58,2
    9959              L153:    
    9960                      .dwpsn  "WIDGET\Gui_widget_progress_bar.c",59,1
    9961 00001007 FE84          SUBB      SP,#4
    9962                      .dwcfa  0x1d, -2
    9963 00001008 0006          LRETR
    9964                      ; return occurs
    9965                      .dwattr DW$747, DW_AT_end_file("WIDGET\Gui_widget_progress_bar.c")
    9966                      .dwattr DW$747, DW_AT_end_line(0x3b)
    9967                      .dwattr DW$747, DW_AT_end_column(0x01)
    9968                      .dwendentry
    9969                      .dwendtag DW$747
    9970              
    9971 00001009               .sect   ".text"
    9972                      .global _Gui_progress_bar_advance
    9973              
    9974              DW$752  .dwtag  DW_TAG_subprogram, DW_AT_name("Gui_progress_bar_advance"), DW_AT_symbol_name("_Gui_progress_b
    9975                      .dwattr DW$752, DW_AT_low_pc(_Gui_progress_bar_advance)
    9976                      .dwattr DW$752, DW_AT_high_pc(0x00)
    9977                      .dwattr DW$752, DW_AT_begin_file("WIDGET\Gui_widget_progress_bar.c")
    9978                      .dwattr DW$752, DW_AT_begin_line(0x43)
    9979                      .dwattr DW$752, DW_AT_begin_column(0x06)
    9980                      .dwpsn  "WIDGET\Gui_widget_progress_bar.c",68,1
    9981              
    9982                      .dwfde DW$CIE
    9983              
TMS320C2000 COFF Assembler PC v4.1.3 Thu Nov 29 16:03:34 2012

Tools Copyright (c) 1996-2006 Texas Instruments Incorporated
C:\DOCUME~1\ADMINI~1\LOCALS~1\Temp\TI9882                            PAGE  194

    9984              ;***************************************************************
    9985              ;* FNAME: _Gui_progress_bar_advance     FR SIZE:   6           *
    9986              ;*                                                             *
    9987              ;* FUNCTION ENVIRONMENT                                        *
    9988              ;*                                                             *
    9989              ;* FUNCTION PROPERTIES                                         *
    9990              ;*                            0 Parameter,  5 Auto,  0 SOE     *
    9991              ;***************************************************************
    9992              
    9993              _Gui_progress_bar_advance:
    9994                      .dwcfa  0x1d, -2
    9995                      .dwcfa  0x1c, 26, 0
    9996                      .dwcfa  0x09, 40, 26
    9997 00001009 FE06          ADDB      SP,#6
    9998                      .dwcfa  0x1d, -8
    9999              ;* AR4   assigned to _hp
   10000              DW$753  .dwtag  DW_TAG_formal_parameter, DW_AT_name("hp"), DW_AT_symbol_name("_hp")
   10001                      .dwattr DW$753, DW_AT_type(*DW$T$54)
   10002                      .dwattr DW$753, DW_AT_location[DW_OP_reg12]
   10003              ;* AL    assigned to _setp
   10004              DW$754  .dwtag  DW_TAG_formal_parameter, DW_AT_name("setp"), DW_AT_symbol_name("_setp")
   10005                      .dwattr DW$754, DW_AT_type(*DW$T$11)
   10006                      .dwattr DW$754, DW_AT_location[DW_OP_reg0]
   10007              DW$755  .dwtag  DW_TAG_variable, DW_AT_name("hp"), DW_AT_symbol_name("_hp")
   10008                      .dwattr DW$755, DW_AT_type(*DW$T$54)
   10009                      .dwattr DW$755, DW_AT_location[DW_OP_breg20 -2]
   10010              DW$756  .dwtag  DW_TAG_variable, DW_AT_name("setp"), DW_AT_symbol_name("_setp")
   10011                      .dwattr DW$756, DW_AT_type(*DW$T$11)
   10012                      .dwattr DW$756, DW_AT_location[DW_OP_breg20 -3]
   10013              DW$757  .dwtag  DW_TAG_variable, DW_AT_name("x_start"), DW_AT_symbol_name("_x_start")
   10014                      .dwattr DW$757, DW_AT_type(*DW$T$11)
   10015                      .dwattr DW$757, DW_AT_location[DW_OP_breg20 -4]
   10016              DW$758  .dwtag  DW_TAG_variable, DW_AT_name("x_end"), DW_AT_symbol_name("_x_end")
   10017                      .dwattr DW$758, DW_AT_type(*DW$T$11)
   10018                      .dwattr DW$758, DW_AT_location[DW_OP_breg20 -5]
   10019 0000100a 9643          MOV       *-SP[3],AL            ; |68| 
   10020 0000100b A842          MOVL      *-SP[2],XAR4          ; |68| 
   10021                      .dwpsn  "WIDGET\Gui_widget_progress_bar.c",71,2
   10022 0000100c 8A42          MOVL      XAR4,*-SP[2]          ; |71| 
   10023 0000100d 7640!         LCR       #_GUI_window_hwin_req ; |71| 
         0000100e 0000 
   10024                      ; call occurs [#_GUI_window_hwin_req] ; |71| 
   10025                      .dwpsn  "WIDGET\Gui_widget_progress_bar.c",72,2
   10026 0000100f 9A1C          MOVB      AL,#28                ; |72| 
   10027 00001010 7640!         LCR       #_GUI_set_Bgcolor     ; |72| 
         00001011 0000 
   10028                      ; call occurs [#_GUI_set_Bgcolor] ; |72| 
   10029                      .dwpsn  "WIDGET\Gui_widget_progress_bar.c",73,2
   10030 00001012 9AE0          MOVB      AL,#224               ; |73| 
   10031 00001013 7640!         LCR       #_GUI_set_Fgcolor     ; |73| 
         00001014 0000 
   10032                      ; call occurs [#_GUI_set_Fgcolor] ; |73| 
   10033                      .dwpsn  "WIDGET\Gui_widget_progress_bar.c",74,2
   10034 00001015 761F-         MOVW      DP,#_m_progress_setp_size
         00001016 0000 
TMS320C2000 COFF Assembler PC v4.1.3 Thu Nov 29 16:03:34 2012

Tools Copyright (c) 1996-2006 Texas Instruments Incorporated
C:\DOCUME~1\ADMINI~1\LOCALS~1\Temp\TI9882                            PAGE  195

   10035 00001017 2D08-         MOV       T,@_m_progress_setp_size ; |74| 
   10036 00001018 1207-         MPY       ACC,T,@_m_progress_cur_pos ; |74| 
   10037 00001019 9C01          ADDB      AL,#1                 ; |74| 
   10038 0000101a 9644          MOV       *-SP[4],AL            ; |74| 
   10039                      .dwpsn  "WIDGET\Gui_widget_progress_bar.c",75,2
   10040 0000101b 8A42          MOVL      XAR4,*-SP[2]          ; |75| 
   10041 0000101c 92DC          MOV       AL,*+XAR4[3]          ; |75| 
   10042 0000101d 9CFE          ADDB      AL,#-2
   10043 0000101e 5444          CMP       AL,*-SP[4]            ; |75| 
   10044 0000101f 691C          B         L156,LOS              ; |75| 
   10045                      ; branchcc occurs ; |75| 
   10046                      .dwpsn  "WIDGET\Gui_widget_progress_bar.c",78,3
   10047 00001020 9243          MOV       AL,*-SP[3]            ; |78| 
   10048 00001021 9407-         ADD       AL,@_m_progress_cur_pos ; |78| 
   10049 00001022 5406-         CMP       AL,@_m_progress_max_pos ; |78| 
   10050 00001023 6705          B         L154,HIS              ; |78| 
   10051                      ; branchcc occurs ; |78| 
   10052                      .dwpsn  "WIDGET\Gui_widget_progress_bar.c",80,4
   10053 00001024 1243          MPY       ACC,T,*-SP[3]         ; |80| 
   10054 00001025 9444          ADD       AL,*-SP[4]            ; |80| 
   10055 00001026 9645          MOV       *-SP[5],AL            ; |80| 
   10056                      .dwpsn  "WIDGET\Gui_widget_progress_bar.c",81,3
   10057 00001027 6F09          B         L155,UNC              ; |81| 
   10058                      ; branch occurs ; |81| 
   10059              L154:    
   10060                      .dwpsn  "WIDGET\Gui_widget_progress_bar.c",84,4
   10061 00001028 9206-         MOV       AL,@_m_progress_max_pos ; |84| 
   10062 00001029 9E07-         SUB       AL,@_m_progress_cur_pos ; |84| 
   10063 0000102a 9643          MOV       *-SP[3],AL            ; |84| 
   10064                      .dwpsn  "WIDGET\Gui_widget_progress_bar.c",85,4
   10065 0000102b 8342          MOVL      XAR5,*-SP[2]          ; |85| 
   10066 0000102c 8A42          MOVL      XAR4,*-SP[2]          ; |85| 
   10067 0000102d 92DD          MOV       AL,*+XAR5[3]          ; |85| 
   10068 0000102e 94CC          ADD       AL,*+XAR4[1]          ; |85| 
   10069 0000102f 9645          MOV       *-SP[5],AL            ; |85| 
   10070              L155:    
   10071                      .dwpsn  "WIDGET\Gui_widget_progress_bar.c",87,3
   10072 00001030 8A42          MOVL      XAR4,*-SP[2]          ; |87| 
   10073 00001031 5DE4          MOVZ      AR5,*+XAR4[4]         ; |87| 
   10074 00001032 5C45          MOVZ      AR4,*-SP[5]           ; |87| 
   10075 00001033 9244          MOV       AL,*-SP[4]            ; |87| 
   10076 00001034 9B01          MOVB      AH,#1                 ; |87| 
   10077 00001035 7640!         LCR       #_GUI_fill_window_area ; |87| 
         00001036 0000 
   10078                      ; call occurs [#_GUI_fill_window_area] ; |87| 
   10079                      .dwpsn  "WIDGET\Gui_widget_progress_bar.c",88,3
   10080 00001037 9243          MOV       AL,*-SP[3]            ; |88| 
   10081 00001038 761F-         MOVW      DP,#_m_progress_cur_pos
         00001039 0000 
   10082 0000103a 7207-         ADD       @_m_progress_cur_pos,AL ; |88| 
   10083              L156:    
   10084                      .dwpsn  "WIDGET\Gui_widget_progress_bar.c",118,2
   10085 0000103b 8A42          MOVL      XAR4,*-SP[2]          ; |118| 
   10086 0000103c 7640!         LCR       #_GUI_window_hwin_release ; |118| 
         0000103d 0000 
TMS320C2000 COFF Assembler PC v4.1.3 Thu Nov 29 16:03:34 2012

Tools Copyright (c) 1996-2006 Texas Instruments Incorporated
C:\DOCUME~1\ADMINI~1\LOCALS~1\Temp\TI9882                            PAGE  196

   10087                      ; call occurs [#_GUI_window_hwin_release] ; |118| 
   10088                      .dwpsn  "WIDGET\Gui_widget_progress_bar.c",119,2
   10089                      .dwpsn  "WIDGET\Gui_widget_progress_bar.c",120,1
   10090 0000103e FE86          SUBB      SP,#6
   10091                      .dwcfa  0x1d, -2
   10092 0000103f 0006          LRETR
   10093                      ; return occurs
   10094                      .dwattr DW$752, DW_AT_end_file("WIDGET\Gui_widget_progress_bar.c")
   10095                      .dwattr DW$752, DW_AT_end_line(0x78)
   10096                      .dwattr DW$752, DW_AT_end_column(0x01)
   10097                      .dwendentry
   10098                      .dwendtag DW$752
   10099              
   10100 00001040               .sect   ".text"
   10101                      .global _Gui_progress_bar_empty
   10102              
   10103              DW$759  .dwtag  DW_TAG_subprogram, DW_AT_name("Gui_progress_bar_empty"), DW_AT_symbol_name("_Gui_progress_bar
   10104                      .dwattr DW$759, DW_AT_low_pc(_Gui_progress_bar_empty)
   10105                      .dwattr DW$759, DW_AT_high_pc(0x00)
   10106                      .dwattr DW$759, DW_AT_begin_file("WIDGET\Gui_widget_progress_bar.c")
   10107                      .dwattr DW$759, DW_AT_begin_line(0x80)
   10108                      .dwattr DW$759, DW_AT_begin_column(0x06)
   10109                      .dwpsn  "WIDGET\Gui_widget_progress_bar.c",129,1
   10110              
   10111                      .dwfde DW$CIE
   10112              
   10113              ;***************************************************************
   10114              ;* FNAME: _Gui_progress_bar_empty       FR SIZE:   2           *
   10115              ;*                                                             *
   10116              ;* FUNCTION ENVIRONMENT                                        *
   10117              ;*                                                             *
   10118              ;* FUNCTION PROPERTIES                                         *
   10119              ;*                            0 Parameter,  2 Auto,  0 SOE     *
   10120              ;***************************************************************
   10121              
   10122              _Gui_progress_bar_empty:
   10123                      .dwcfa  0x1d, -2
   10124                      .dwcfa  0x1c, 26, 0
   10125                      .dwcfa  0x09, 40, 26
   10126 00001040 FE02          ADDB      SP,#2
   10127                      .dwcfa  0x1d, -4
   10128              ;* AR4   assigned to _hp
   10129              DW$760  .dwtag  DW_TAG_formal_parameter, DW_AT_name("hp"), DW_AT_symbol_name("_hp")
   10130                      .dwattr DW$760, DW_AT_type(*DW$T$54)
   10131                      .dwattr DW$760, DW_AT_location[DW_OP_reg12]
   10132              DW$761  .dwtag  DW_TAG_variable, DW_AT_name("hp"), DW_AT_symbol_name("_hp")
   10133                      .dwattr DW$761, DW_AT_type(*DW$T$54)
   10134                      .dwattr DW$761, DW_AT_location[DW_OP_breg20 -2]
   10135 00001041 A842          MOVL      *-SP[2],XAR4          ; |129| 
   10136                      .dwpsn  "WIDGET\Gui_widget_progress_bar.c",130,2
   10137 00001042 8A42          MOVL      XAR4,*-SP[2]          ; |130| 
   10138 00001043 7640!         LCR       #_GUI_window_hwin_req ; |130| 
         00001044 0000 
   10139                      ; call occurs [#_GUI_window_hwin_req] ; |130| 
   10140                      .dwpsn  "WIDGET\Gui_widget_progress_bar.c",131,2
TMS320C2000 COFF Assembler PC v4.1.3 Thu Nov 29 16:03:34 2012

Tools Copyright (c) 1996-2006 Texas Instruments Incorporated
C:\DOCUME~1\ADMINI~1\LOCALS~1\Temp\TI9882                            PAGE  197

   10141 00001045 9A01          MOVB      AL,#1                 ; |131| 
   10142 00001046 7640!         LCR       #_GUI_set_Bgcolor     ; |131| 
         00001047 0000 
   10143                      ; call occurs [#_GUI_set_Bgcolor] ; |131| 
   10144                      .dwpsn  "WIDGET\Gui_widget_progress_bar.c",132,2
   10145 00001048 9AFF          MOVB      AL,#255               ; |132| 
   10146 00001049 7640!         LCR       #_GUI_set_Fgcolor     ; |132| 
         0000104a 0000 
   10147                      ; call occurs [#_GUI_set_Fgcolor] ; |132| 
   10148                      .dwpsn  "WIDGET\Gui_widget_progress_bar.c",133,2
   10149 0000104b 8342          MOVL      XAR5,*-SP[2]          ; |133| 
   10150 0000104c 8A42          MOVL      XAR4,*-SP[2]          ; |133| 
   10151 0000104d 5DE5          MOVZ      AR5,*+XAR5[4]         ; |133| 
   10152 0000104e 5CDC          MOVZ      AR4,*+XAR4[3]         ; |133| 
   10153 0000104f 9A01          MOVB      AL,#1                 ; |133| 
   10154 00001050 9B01          MOVB      AH,#1                 ; |133| 
   10155 00001051 7640!         LCR       #_GUI_fill_window_area ; |133| 
         00001052 0000 
   10156                      ; call occurs [#_GUI_fill_window_area] ; |133| 
   10157                      .dwpsn  "WIDGET\Gui_widget_progress_bar.c",134,2
   10158 00001053 761F-         MOVW      DP,#_m_progress_cur_pos
         00001054 0000 
   10159 00001055 2B07-         MOV       @_m_progress_cur_pos,#0 ; |134| 
   10160                      .dwpsn  "WIDGET\Gui_widget_progress_bar.c",135,2
   10161 00001056 8A42          MOVL      XAR4,*-SP[2]          ; |135| 
   10162 00001057 7640!         LCR       #_GUI_window_hwin_release ; |135| 
         00001058 0000 
   10163                      ; call occurs [#_GUI_window_hwin_release] ; |135| 
   10164                      .dwpsn  "WIDGET\Gui_widget_progress_bar.c",136,2
   10165                      .dwpsn  "WIDGET\Gui_widget_progress_bar.c",137,1
   10166 00001059 FE82          SUBB      SP,#2
   10167                      .dwcfa  0x1d, -2
   10168 0000105a 0006          LRETR
   10169                      ; return occurs
   10170                      .dwattr DW$759, DW_AT_end_file("WIDGET\Gui_widget_progress_bar.c")
   10171                      .dwattr DW$759, DW_AT_end_line(0x89)
   10172                      .dwattr DW$759, DW_AT_end_column(0x01)
   10173                      .dwendentry
   10174                      .dwendtag DW$759
   10175              
   10176 0000105b               .sect   ".text"
   10177                      .global _GUI_radio_create
   10178              
   10179              DW$762  .dwtag  DW_TAG_subprogram, DW_AT_name("GUI_radio_create"), DW_AT_symbol_name("_GUI_radio_create")
   10180                      .dwattr DW$762, DW_AT_low_pc(_GUI_radio_create)
   10181                      .dwattr DW$762, DW_AT_high_pc(0x00)
   10182                      .dwattr DW$762, DW_AT_begin_file("WIDGET\GUI_widget_radio.c")
   10183                      .dwattr DW$762, DW_AT_begin_line(0x06)
   10184                      .dwattr DW$762, DW_AT_begin_column(0x09)
   10185                      .dwpsn  "WIDGET\GUI_widget_radio.c",12,1
   10186              
   10187                      .dwfde DW$CIE
   10188              
   10189              ;***************************************************************
   10190              ;* FNAME: _GUI_radio_create             FR SIZE:  10           *
TMS320C2000 COFF Assembler PC v4.1.3 Thu Nov 29 16:03:34 2012

Tools Copyright (c) 1996-2006 Texas Instruments Incorporated
C:\DOCUME~1\ADMINI~1\LOCALS~1\Temp\TI9882                            PAGE  198

   10191              ;*                                                             *
   10192              ;* FUNCTION ENVIRONMENT                                        *
   10193              ;*                                                             *
   10194              ;* FUNCTION PROPERTIES                                         *
   10195              ;*                            2 Parameter,  8 Auto,  0 SOE     *
   10196              ;***************************************************************
   10197              
   10198              _GUI_radio_create:
   10199                      .dwcfa  0x1d, -2
   10200                      .dwcfa  0x1c, 26, 0
   10201                      .dwcfa  0x09, 40, 26
   10202 0000105b FE0A          ADDB      SP,#10
   10203                      .dwcfa  0x1d, -12
   10204              ;* AL    assigned to _xcoord
   10205              DW$763  .dwtag  DW_TAG_formal_parameter, DW_AT_name("xcoord"), DW_AT_symbol_name("_xcoord")
   10206                      .dwattr DW$763, DW_AT_type(*DW$T$11)
   10207                      .dwattr DW$763, DW_AT_location[DW_OP_reg0]
   10208              ;* AH    assigned to _ycoord
   10209              DW$764  .dwtag  DW_TAG_formal_parameter, DW_AT_name("ycoord"), DW_AT_symbol_name("_ycoord")
   10210                      .dwattr DW$764, DW_AT_type(*DW$T$11)
   10211                      .dwattr DW$764, DW_AT_location[DW_OP_reg1]
   10212              ;* AR5   assigned to _wide
   10213              DW$765  .dwtag  DW_TAG_formal_parameter, DW_AT_name("wide"), DW_AT_symbol_name("_wide")
   10214                      .dwattr DW$765, DW_AT_type(*DW$T$27)
   10215                      .dwattr DW$765, DW_AT_location[DW_OP_reg14]
   10216              DW$766  .dwtag  DW_TAG_formal_parameter, DW_AT_name("high"), DW_AT_symbol_name("_high")
   10217                      .dwattr DW$766, DW_AT_type(*DW$T$27)
   10218                      .dwattr DW$766, DW_AT_location[DW_OP_breg20 -13]
   10219              DW$767  .dwtag  DW_TAG_formal_parameter, DW_AT_name("flags"), DW_AT_symbol_name("_flags")
   10220                      .dwattr DW$767, DW_AT_type(*DW$T$27)
   10221                      .dwattr DW$767, DW_AT_location[DW_OP_breg20 -14]
   10222              ;* AR4   assigned to _fatherhp
   10223              DW$768  .dwtag  DW_TAG_formal_parameter, DW_AT_name("fatherhp"), DW_AT_symbol_name("_fatherhp")
   10224                      .dwattr DW$768, DW_AT_type(*DW$T$54)
   10225                      .dwattr DW$768, DW_AT_location[DW_OP_reg12]
   10226              DW$769  .dwtag  DW_TAG_variable, DW_AT_name("xcoord"), DW_AT_symbol_name("_xcoord")
   10227                      .dwattr DW$769, DW_AT_type(*DW$T$11)
   10228                      .dwattr DW$769, DW_AT_location[DW_OP_breg20 -3]
   10229              DW$770  .dwtag  DW_TAG_variable, DW_AT_name("ycoord"), DW_AT_symbol_name("_ycoord")
   10230                      .dwattr DW$770, DW_AT_type(*DW$T$11)
   10231                      .dwattr DW$770, DW_AT_location[DW_OP_breg20 -4]
   10232              DW$771  .dwtag  DW_TAG_variable, DW_AT_name("wide"), DW_AT_symbol_name("_wide")
   10233                      .dwattr DW$771, DW_AT_type(*DW$T$27)
   10234                      .dwattr DW$771, DW_AT_location[DW_OP_breg20 -5]
   10235              DW$772  .dwtag  DW_TAG_variable, DW_AT_name("fatherhp"), DW_AT_symbol_name("_fatherhp")
   10236                      .dwattr DW$772, DW_AT_type(*DW$T$54)
   10237                      .dwattr DW$772, DW_AT_location[DW_OP_breg20 -8]
   10238              DW$773  .dwtag  DW_TAG_variable, DW_AT_name("hp"), DW_AT_symbol_name("_hp")
   10239                      .dwattr DW$773, DW_AT_type(*DW$T$54)
   10240                      .dwattr DW$773, DW_AT_location[DW_OP_breg20 -10]
   10241 0000105c A848          MOVL      *-SP[8],XAR4          ; |12| 
   10242 0000105d 7D45          MOV       *-SP[5],AR5           ; |12| 
   10243 0000105e 9744          MOV       *-SP[4],AH            ; |12| 
   10244 0000105f 9643          MOV       *-SP[3],AL            ; |12| 
   10245                      .dwpsn  "WIDGET\GUI_widget_radio.c",14,2
TMS320C2000 COFF Assembler PC v4.1.3 Thu Nov 29 16:03:34 2012

Tools Copyright (c) 1996-2006 Texas Instruments Incorporated
C:\DOCUME~1\ADMINI~1\LOCALS~1\Temp\TI9882                            PAGE  199

   10246 00001060 924D          MOV       AL,*-SP[13]           ; |14| 
   10247 00001061 9641          MOV       *-SP[1],AL            ; |14| 
   10248 00001062 924E          MOV       AL,*-SP[14]           ; |14| 
   10249 00001063 9642          MOV       *-SP[2],AL            ; |14| 
   10250 00001064 5D45          MOVZ      AR5,*-SP[5]           ; |14| 
   10251 00001065 8A48          MOVL      XAR4,*-SP[8]          ; |14| 
   10252 00001066 9243          MOV       AL,*-SP[3]            ; |14| 
   10253 00001067 9344          MOV       AH,*-SP[4]            ; |14| 
   10254 00001068 7640!         LCR       #_GUI_window_child_creat ; |14| 
         00001069 0000 
   10255                      ; call occurs [#_GUI_window_child_creat] ; |14| 
   10256 0000106a A84A          MOVL      *-SP[10],XAR4         ; |14| 
   10257                      .dwpsn  "WIDGET\GUI_widget_radio.c",21,2
   10258 0000106b 064A          MOVL      ACC,*-SP[10]          ; |21| 
   10259 0000106c ED03          BF        L157,NEQ              ; |21| 
   10260                      ; branchcc occurs ; |21| 
   10261                      .dwpsn  "WIDGET\GUI_widget_radio.c",21,13
   10262 0000106d D400          MOVB      XAR4,#0
   10263 0000106e 6F06          B         L158,UNC              ; |21| 
   10264                      ; branch occurs ; |21| 
   10265              L157:    
   10266                      .dwpsn  "WIDGET\GUI_widget_radio.c",22,2
   10267 0000106f 8A4A          MOVL      XAR4,*-SP[10]         ; |22| 
   10268 00001070 D008          MOVB      XAR0,#8               ; |22| 
   10269 00001071 2894          MOV       *+XAR4[AR0],#12       ; |22| 
         00001072 000C 
   10270                      .dwpsn  "WIDGET\GUI_widget_radio.c",23,2
   10271 00001073 8A4A          MOVL      XAR4,*-SP[10]         ; |23| 
   10272              L158:    
   10273                      .dwpsn  "WIDGET\GUI_widget_radio.c",24,1
   10274 00001074 FE8A          SUBB      SP,#10                ; |23| 
   10275                      .dwcfa  0x1d, -2
   10276 00001075 0006          LRETR
   10277                      ; return occurs
   10278                      .dwattr DW$762, DW_AT_end_file("WIDGET\GUI_widget_radio.c")
   10279                      .dwattr DW$762, DW_AT_end_line(0x18)
   10280                      .dwattr DW$762, DW_AT_end_column(0x01)
   10281                      .dwendentry
   10282                      .dwendtag DW$762
   10283              
   10284 00001076               .sect   ".text"
   10285                      .global _GUI_radio_memeber_add
   10286              
   10287              DW$774  .dwtag  DW_TAG_subprogram, DW_AT_name("GUI_radio_memeber_add"), DW_AT_symbol_name("_GUI_radio_memeber
   10288                      .dwattr DW$774, DW_AT_low_pc(_GUI_radio_memeber_add)
   10289                      .dwattr DW$774, DW_AT_high_pc(0x00)
   10290                      .dwattr DW$774, DW_AT_begin_file("WIDGET\GUI_widget_radio.c")
   10291                      .dwattr DW$774, DW_AT_begin_line(0x21)
   10292                      .dwattr DW$774, DW_AT_begin_column(0x06)
   10293                      .dwpsn  "WIDGET\GUI_widget_radio.c",34,1
   10294              
   10295                      .dwfde DW$CIE
   10296              
   10297              ;***************************************************************
   10298              ;* FNAME: _GUI_radio_memeber_add        FR SIZE:  10           *
TMS320C2000 COFF Assembler PC v4.1.3 Thu Nov 29 16:03:34 2012

Tools Copyright (c) 1996-2006 Texas Instruments Incorporated
C:\DOCUME~1\ADMINI~1\LOCALS~1\Temp\TI9882                            PAGE  200

   10299              ;*                                                             *
   10300              ;* FUNCTION ENVIRONMENT                                        *
   10301              ;*                                                             *
   10302              ;* FUNCTION PROPERTIES                                         *
   10303              ;*                            0 Parameter,  9 Auto,  0 SOE     *
   10304              ;***************************************************************
   10305              
   10306              _GUI_radio_memeber_add:
   10307                      .dwcfa  0x1d, -2
   10308                      .dwcfa  0x1c, 26, 0
   10309                      .dwcfa  0x09, 40, 26
   10310 00001076 FE0A          ADDB      SP,#10
   10311                      .dwcfa  0x1d, -12
   10312              ;* AL    assigned to _x
   10313              DW$775  .dwtag  DW_TAG_formal_parameter, DW_AT_name("x"), DW_AT_symbol_name("_x")
   10314                      .dwattr DW$775, DW_AT_type(*DW$T$11)
   10315                      .dwattr DW$775, DW_AT_location[DW_OP_reg0]
   10316              ;* AH    assigned to _y
   10317              DW$776  .dwtag  DW_TAG_formal_parameter, DW_AT_name("y"), DW_AT_symbol_name("_y")
   10318                      .dwattr DW$776, DW_AT_type(*DW$T$11)
   10319                      .dwattr DW$776, DW_AT_location[DW_OP_reg1]
   10320              ;* AR4   assigned to _title
   10321              DW$777  .dwtag  DW_TAG_formal_parameter, DW_AT_name("title"), DW_AT_symbol_name("_title")
   10322                      .dwattr DW$777, DW_AT_type(*DW$T$52)
   10323                      .dwattr DW$777, DW_AT_location[DW_OP_reg12]
   10324              ;* AR5   assigned to _id
   10325              DW$778  .dwtag  DW_TAG_formal_parameter, DW_AT_name("id"), DW_AT_symbol_name("_id")
   10326                      .dwattr DW$778, DW_AT_type(*DW$T$27)
   10327                      .dwattr DW$778, DW_AT_location[DW_OP_reg14]
   10328              DW$779  .dwtag  DW_TAG_variable, DW_AT_name("x"), DW_AT_symbol_name("_x")
   10329                      .dwattr DW$779, DW_AT_type(*DW$T$11)
   10330                      .dwattr DW$779, DW_AT_location[DW_OP_breg20 -1]
   10331              DW$780  .dwtag  DW_TAG_variable, DW_AT_name("y"), DW_AT_symbol_name("_y")
   10332                      .dwattr DW$780, DW_AT_type(*DW$T$11)
   10333                      .dwattr DW$780, DW_AT_location[DW_OP_breg20 -2]
   10334              DW$781  .dwtag  DW_TAG_variable, DW_AT_name("title"), DW_AT_symbol_name("_title")
   10335                      .dwattr DW$781, DW_AT_type(*DW$T$52)
   10336                      .dwattr DW$781, DW_AT_location[DW_OP_breg20 -4]
   10337              DW$782  .dwtag  DW_TAG_variable, DW_AT_name("id"), DW_AT_symbol_name("_id")
   10338                      .dwattr DW$782, DW_AT_type(*DW$T$27)
   10339                      .dwattr DW$782, DW_AT_location[DW_OP_breg20 -5]
   10340              DW$783  .dwtag  DW_TAG_variable, DW_AT_name("pedit"), DW_AT_symbol_name("_pedit")
   10341                      .dwattr DW$783, DW_AT_type(*DW$T$35)
   10342                      .dwattr DW$783, DW_AT_location[DW_OP_breg20 -8]
   10343              DW$784  .dwtag  DW_TAG_variable, DW_AT_name("len"), DW_AT_symbol_name("_len")
   10344                      .dwattr DW$784, DW_AT_type(*DW$T$11)
   10345                      .dwattr DW$784, DW_AT_location[DW_OP_breg20 -9]
   10346 00001077 7D45          MOV       *-SP[5],AR5           ; |34| 
   10347 00001078 A844          MOVL      *-SP[4],XAR4          ; |34| 
   10348 00001079 9742          MOV       *-SP[2],AH            ; |34| 
   10349 0000107a 9641          MOV       *-SP[1],AL            ; |34| 
   10350                      .dwpsn  "WIDGET\GUI_widget_radio.c",39,2
   10351 0000107b 8A44          MOVL      XAR4,*-SP[4]          ; |39| 
   10352 0000107c 7640!         LCR       #_global_strlen       ; |39| 
         0000107d 0000 
TMS320C2000 COFF Assembler PC v4.1.3 Thu Nov 29 16:03:34 2012

Tools Copyright (c) 1996-2006 Texas Instruments Incorporated
C:\DOCUME~1\ADMINI~1\LOCALS~1\Temp\TI9882                            PAGE  201

   10353                      ; call occurs [#_global_strlen] ; |39| 
   10354 0000107e 5603          MOV       ACC,AL << #3          ; |39| 
         0000107f 03A9 
   10355 00001080 9649          MOV       *-SP[9],AL            ; |39| 
   10356                      .dwpsn  "WIDGET\GUI_widget_radio.c",40,2
   10357 00001081 761F!         MOVW      DP,#_m_cur_hwin
         00001082 0000 
   10358 00001083 8A00!         MOVL      XAR4,@_m_cur_hwin     ; |40| 
   10359 00001084 D008          MOVB      XAR0,#8               ; |40| 
   10360 00001085 9294          MOV       AL,*+XAR4[AR0]        ; |40| 
   10361 00001086 520C          CMPB      AL,#12                ; |40| 
   10362 00001087 ED5A          BF        L161,NEQ              ; |40| 
   10363                      ; branchcc occurs ; |40| 
   10364                      .dwpsn  "WIDGET\GUI_widget_radio.c",40,41
   10365                      .dwpsn  "WIDGET\GUI_widget_radio.c",41,2
   10366 00001088 7640'         LCR       #_GUI_edit_mem_req    ; |41| 
         00001089 0A62 
   10367                      ; call occurs [#_GUI_edit_mem_req] ; |41| 
   10368 0000108a A848          MOVL      *-SP[8],XAR4          ; |41| 
   10369                      .dwpsn  "WIDGET\GUI_widget_radio.c",42,2
   10370 0000108b 0648          MOVL      ACC,*-SP[8]           ; |42| 
   10371 0000108c EC55          BF        L161,EQ               ; |42| 
   10372                      ; branchcc occurs ; |42| 
   10373                      .dwpsn  "WIDGET\GUI_widget_radio.c",42,16
   10374                      .dwpsn  "WIDGET\GUI_widget_radio.c",43,2
   10375 0000108d 8A48          MOVL      XAR4,*-SP[8]          ; |43| 
   10376 0000108e 9245          MOV       AL,*-SP[5]            ; |43| 
   10377 0000108f 96F4          MOV       *+XAR4[6],AL          ; |43| 
   10378                      .dwpsn  "WIDGET\GUI_widget_radio.c",44,2
   10379 00001090 761F!         MOVW      DP,#_m_cur_hwin
         00001091 0000 
   10380 00001092 8A00!         MOVL      XAR4,@_m_cur_hwin     ; |44| 
   10381 00001093 9242          MOV       AL,*-SP[2]            ; |44| 
   10382 00001094 94D4          ADD       AL,*+XAR4[2]          ; |44| 
   10383 00001095 8A48          MOVL      XAR4,*-SP[8]          ; |44| 
   10384 00001096 96CC          MOV       *+XAR4[1],AL          ; |44| 
   10385                      .dwpsn  "WIDGET\GUI_widget_radio.c",45,2
   10386 00001097 8A00!         MOVL      XAR4,@_m_cur_hwin     ; |45| 
   10387 00001098 9241          MOV       AL,*-SP[1]            ; |45| 
   10388 00001099 94CC          ADD       AL,*+XAR4[1]          ; |45| 
   10389 0000109a 8A48          MOVL      XAR4,*-SP[8]          ; |45| 
   10390 0000109b 9449          ADD       AL,*-SP[9]            ; |45| 
   10391 0000109c 96C4          MOV       *+XAR4[0],AL          ; |45| 
   10392                      .dwpsn  "WIDGET\GUI_widget_radio.c",46,2
   10393 0000109d 8A48          MOVL      XAR4,*-SP[8]          ; |46| 
   10394 0000109e 9249          MOV       AL,*-SP[9]            ; |46| 
   10395 0000109f 96E4          MOV       *+XAR4[4],AL          ; |46| 
   10396                      .dwpsn  "WIDGET\GUI_widget_radio.c",47,2
   10397 000010a0 8A48          MOVL      XAR4,*-SP[8]          ; |47| 
   10398 000010a1 2BFC          MOV       *+XAR4[7],#0          ; |47| 
   10399                      .dwpsn  "WIDGET\GUI_widget_radio.c",48,2
   10400 000010a2 8A48          MOVL      XAR4,*-SP[8]          ; |48| 
   10401 000010a3 D00A          MOVB      XAR0,#10              ; |48| 
   10402 000010a4 0200          MOVB      ACC,#0
   10403 000010a5 1E94          MOVL      *+XAR4[AR0],ACC       ; |48| 
TMS320C2000 COFF Assembler PC v4.1.3 Thu Nov 29 16:03:34 2012

Tools Copyright (c) 1996-2006 Texas Instruments Incorporated
C:\DOCUME~1\ADMINI~1\LOCALS~1\Temp\TI9882                            PAGE  202

   10404                      .dwpsn  "WIDGET\GUI_widget_radio.c",49,2
   10405 000010a6 761F-         MOVW      DP,#_m_edit_lock
         000010a7 0000 
   10406 000010a8 8A14-         MOVL      XAR4,@_m_edit_lock    ; |49| 
   10407 000010a9 7640!         LCR       #_os_lock             ; |49| 
         000010aa 0000 
   10408                      ; call occurs [#_os_lock] ; |49| 
   10409                      .dwpsn  "WIDGET\GUI_widget_radio.c",50,2
   10410 000010ab 761F!         MOVW      DP,#_m_cur_hwin
         000010ac 0000 
   10411 000010ad 8A00!         MOVL      XAR4,@_m_cur_hwin     ; |50| 
   10412 000010ae D010          MOVB      XAR0,#16              ; |50| 
   10413 000010af 0694          MOVL      ACC,*+XAR4[AR0]       ; |50| 
   10414 000010b0 ED0A          BF        L159,NEQ              ; |50| 
   10415                      ; branchcc occurs ; |50| 
   10416                      .dwpsn  "WIDGET\GUI_widget_radio.c",52,3
   10417 000010b1 8A00!         MOVL      XAR4,@_m_cur_hwin     ; |52| 
   10418 000010b2 0648          MOVL      ACC,*-SP[8]           ; |52| 
   10419 000010b3 D012          MOVB      XAR0,#18              ; |52| 
   10420 000010b4 1E94          MOVL      *+XAR4[AR0],ACC       ; |52| 
   10421                      .dwpsn  "WIDGET\GUI_widget_radio.c",53,3
   10422 000010b5 8A00!         MOVL      XAR4,@_m_cur_hwin     ; |53| 
   10423 000010b6 D010          MOVB      XAR0,#16              ; |53| 
   10424 000010b7 0648          MOVL      ACC,*-SP[8]           ; |53| 
   10425 000010b8 1E94          MOVL      *+XAR4[AR0],ACC       ; |53| 
   10426                      .dwpsn  "WIDGET\GUI_widget_radio.c",54,2
   10427 000010b9 6F0A          B         L160,UNC              ; |54| 
   10428                      ; branch occurs ; |54| 
   10429              L159:    
   10430                      .dwpsn  "WIDGET\GUI_widget_radio.c",57,3
   10431 000010ba 8A00!         MOVL      XAR4,@_m_cur_hwin     ; |57| 
   10432 000010bb 8A94          MOVL      XAR4,*+XAR4[AR0]      ; |57| 
   10433 000010bc 0648          MOVL      ACC,*-SP[8]           ; |57| 
   10434 000010bd D00A          MOVB      XAR0,#10              ; |57| 
   10435 000010be 1E94          MOVL      *+XAR4[AR0],ACC       ; |57| 
   10436                      .dwpsn  "WIDGET\GUI_widget_radio.c",58,3
   10437 000010bf 8A00!         MOVL      XAR4,@_m_cur_hwin     ; |58| 
   10438 000010c0 D010          MOVB      XAR0,#16              ; |58| 
   10439 000010c1 0648          MOVL      ACC,*-SP[8]           ; |58| 
   10440 000010c2 1E94          MOVL      *+XAR4[AR0],ACC       ; |58| 
   10441              L160:    
   10442                      .dwpsn  "WIDGET\GUI_widget_radio.c",60,2
   10443 000010c3 761F-         MOVW      DP,#_m_edit_lock
         000010c4 0000 
   10444 000010c5 8A14-         MOVL      XAR4,@_m_edit_lock    ; |60| 
   10445 000010c6 7640!         LCR       #_os_unlock           ; |60| 
         000010c7 0000 
   10446                      ; call occurs [#_os_unlock] ; |60| 
   10447                      .dwpsn  "WIDGET\GUI_widget_radio.c",61,2
   10448 000010c8 8A44          MOVL      XAR4,*-SP[4]          ; |61| 
   10449 000010c9 9241          MOV       AL,*-SP[1]            ; |61| 
   10450 000010ca 9342          MOV       AH,*-SP[2]            ; |61| 
   10451 000010cb 7640!         LCR       #_GUI_string_display_At ; |61| 
         000010cc 0000 
   10452                      ; call occurs [#_GUI_string_display_At] ; |61| 
TMS320C2000 COFF Assembler PC v4.1.3 Thu Nov 29 16:03:34 2012

Tools Copyright (c) 1996-2006 Texas Instruments Incorporated
C:\DOCUME~1\ADMINI~1\LOCALS~1\Temp\TI9882                            PAGE  203

   10453                      .dwpsn  "WIDGET\GUI_widget_radio.c",62,2
   10454 000010cd 8A48          MOVL      XAR4,*-SP[8]          ; |62| 
   10455 000010ce 92C4          MOV       AL,*+XAR4[0]          ; |62| 
   10456 000010cf 8A48          MOVL      XAR4,*-SP[8]          ; |62| 
   10457 000010d0 9C08          ADDB      AL,#8                 ; |62| 
   10458 000010d1 93CC          MOV       AH,*+XAR4[1]          ; |62| 
   10459 000010d2 D500          MOVB      XAR5,#0
   10460 000010d3 9D09          ADDB      AH,#9                 ; |62| 
   10461 000010d4 D405          MOVB      XAR4,#5               ; |62| 
   10462 000010d5 7640!         LCR       #_GUI_drawcircle      ; |62| 
         000010d6 0000 
   10463                      ; call occurs [#_GUI_drawcircle] ; |62| 
   10464                      .dwpsn  "WIDGET\GUI_widget_radio.c",63,2
   10465 000010d7 8A48          MOVL      XAR4,*-SP[8]          ; |63| 
   10466 000010d8 92C4          MOV       AL,*+XAR4[0]          ; |63| 
   10467 000010d9 8A48          MOVL      XAR4,*-SP[8]          ; |63| 
   10468 000010da 9C08          ADDB      AL,#8                 ; |63| 
   10469 000010db 93CC          MOV       AH,*+XAR4[1]          ; |63| 
   10470 000010dc 9D09          ADDB      AH,#9                 ; |63| 
   10471 000010dd D5FF          MOVB      XAR5,#255             ; |63| 
   10472 000010de D405          MOVB      XAR4,#5               ; |63| 
   10473 000010df 7640!         LCR       #_GUI_fillcircle      ; |63| 
         000010e0 0000 
   10474                      ; call occurs [#_GUI_fillcircle] ; |63| 
   10475                      .dwpsn  "WIDGET\GUI_widget_radio.c",64,2
   10476              L161:    
   10477                      .dwpsn  "WIDGET\GUI_widget_radio.c",65,1
   10478 000010e1 FE8A          SUBB      SP,#10
   10479                      .dwcfa  0x1d, -2
   10480 000010e2 0006          LRETR
   10481                      ; return occurs
   10482                      .dwattr DW$774, DW_AT_end_file("WIDGET\GUI_widget_radio.c")
   10483                      .dwattr DW$774, DW_AT_end_line(0x41)
   10484                      .dwattr DW$774, DW_AT_end_column(0x01)
   10485                      .dwendentry
   10486                      .dwendtag DW$774
   10487              
   10488 000010e3               .sect   ".text"
   10489                      .global _GUI_radio_curmember_obtain
   10490              
   10491              DW$785  .dwtag  DW_TAG_subprogram, DW_AT_name("GUI_radio_curmember_obtain"), DW_AT_symbol_name("_GUI_radio_cu
   10492                      .dwattr DW$785, DW_AT_low_pc(_GUI_radio_curmember_obtain)
   10493                      .dwattr DW$785, DW_AT_high_pc(0x00)
   10494                      .dwattr DW$785, DW_AT_begin_file("WIDGET\GUI_widget_radio.c")
   10495                      .dwattr DW$785, DW_AT_begin_line(0x48)
   10496                      .dwattr DW$785, DW_AT_begin_column(0x09)
   10497                      .dwpsn  "WIDGET\GUI_widget_radio.c",73,1
   10498              
   10499                      .dwfde DW$CIE
   10500              
   10501              ;***************************************************************
   10502              ;* FNAME: _GUI_radio_curmember_obtain   FR SIZE:   2           *
   10503              ;*                                                             *
   10504              ;* FUNCTION ENVIRONMENT                                        *
   10505              ;*                                                             *
TMS320C2000 COFF Assembler PC v4.1.3 Thu Nov 29 16:03:34 2012

Tools Copyright (c) 1996-2006 Texas Instruments Incorporated
C:\DOCUME~1\ADMINI~1\LOCALS~1\Temp\TI9882                            PAGE  204

   10506              ;* FUNCTION PROPERTIES                                         *
   10507              ;*                            0 Parameter,  2 Auto,  0 SOE     *
   10508              ;***************************************************************
   10509              
   10510              _GUI_radio_curmember_obtain:
   10511                      .dwcfa  0x1d, -2
   10512                      .dwcfa  0x1c, 26, 0
   10513                      .dwcfa  0x09, 40, 26
   10514 000010e3 FE02          ADDB      SP,#2
   10515                      .dwcfa  0x1d, -4
   10516              ;* AR4   assigned to _hp
   10517              DW$786  .dwtag  DW_TAG_formal_parameter, DW_AT_name("hp"), DW_AT_symbol_name("_hp")
   10518                      .dwattr DW$786, DW_AT_type(*DW$T$54)
   10519                      .dwattr DW$786, DW_AT_location[DW_OP_reg12]
   10520              DW$787  .dwtag  DW_TAG_variable, DW_AT_name("hp"), DW_AT_symbol_name("_hp")
   10521                      .dwattr DW$787, DW_AT_type(*DW$T$54)
   10522                      .dwattr DW$787, DW_AT_location[DW_OP_breg20 -2]
   10523 000010e4 A842          MOVL      *-SP[2],XAR4          ; |73| 
   10524                      .dwpsn  "WIDGET\GUI_widget_radio.c",74,4
   10525 000010e5 8A42          MOVL      XAR4,*-SP[2]          ; |74| 
   10526 000010e6 D014          MOVB      XAR0,#20              ; |74| 
   10527 000010e7 8A94          MOVL      XAR4,*+XAR4[AR0]      ; |74| 
   10528 000010e8 92F4          MOV       AL,*+XAR4[6]          ; |74| 
   10529                      .dwpsn  "WIDGET\GUI_widget_radio.c",75,1
   10530 000010e9 FE82          SUBB      SP,#2                 ; |74| 
   10531                      .dwcfa  0x1d, -2
   10532 000010ea 0006          LRETR
   10533                      ; return occurs
   10534                      .dwattr DW$785, DW_AT_end_file("WIDGET\GUI_widget_radio.c")
   10535                      .dwattr DW$785, DW_AT_end_line(0x4b)
   10536                      .dwattr DW$785, DW_AT_end_column(0x01)
   10537                      .dwendentry
   10538                      .dwendtag DW$785
   10539              
   10540 000010eb               .sect   ".text"
   10541                      .global _GUI_radio_select
   10542              
   10543              DW$788  .dwtag  DW_TAG_subprogram, DW_AT_name("GUI_radio_select"), DW_AT_symbol_name("_GUI_radio_select")
   10544                      .dwattr DW$788, DW_AT_low_pc(_GUI_radio_select)
   10545                      .dwattr DW$788, DW_AT_high_pc(0x00)
   10546                      .dwattr DW$788, DW_AT_begin_file("WIDGET\GUI_widget_radio.c")
   10547                      .dwattr DW$788, DW_AT_begin_line(0x52)
   10548                      .dwattr DW$788, DW_AT_begin_column(0x06)
   10549                      .dwpsn  "WIDGET\GUI_widget_radio.c",83,1
   10550              
   10551                      .dwfde DW$CIE
   10552              
   10553              ;***************************************************************
   10554              ;* FNAME: _GUI_radio_select             FR SIZE:   6           *
   10555              ;*                                                             *
   10556              ;* FUNCTION ENVIRONMENT                                        *
   10557              ;*                                                             *
   10558              ;* FUNCTION PROPERTIES                                         *
   10559              ;*                            0 Parameter,  6 Auto,  0 SOE     *
   10560              ;***************************************************************
TMS320C2000 COFF Assembler PC v4.1.3 Thu Nov 29 16:03:34 2012

Tools Copyright (c) 1996-2006 Texas Instruments Incorporated
C:\DOCUME~1\ADMINI~1\LOCALS~1\Temp\TI9882                            PAGE  205

   10561              
   10562              _GUI_radio_select:
   10563                      .dwcfa  0x1d, -2
   10564                      .dwcfa  0x1c, 26, 0
   10565                      .dwcfa  0x09, 40, 26
   10566 000010eb FE06          ADDB      SP,#6
   10567                      .dwcfa  0x1d, -8
   10568              ;* AR4   assigned to _hp
   10569              DW$789  .dwtag  DW_TAG_formal_parameter, DW_AT_name("hp"), DW_AT_symbol_name("_hp")
   10570                      .dwattr DW$789, DW_AT_type(*DW$T$54)
   10571                      .dwattr DW$789, DW_AT_location[DW_OP_reg12]
   10572              ;* AL    assigned to _id
   10573              DW$790  .dwtag  DW_TAG_formal_parameter, DW_AT_name("id"), DW_AT_symbol_name("_id")
   10574                      .dwattr DW$790, DW_AT_type(*DW$T$27)
   10575                      .dwattr DW$790, DW_AT_location[DW_OP_reg0]
   10576              DW$791  .dwtag  DW_TAG_variable, DW_AT_name("hp"), DW_AT_symbol_name("_hp")
   10577                      .dwattr DW$791, DW_AT_type(*DW$T$54)
   10578                      .dwattr DW$791, DW_AT_location[DW_OP_breg20 -2]
   10579              DW$792  .dwtag  DW_TAG_variable, DW_AT_name("id"), DW_AT_symbol_name("_id")
   10580                      .dwattr DW$792, DW_AT_type(*DW$T$27)
   10581                      .dwattr DW$792, DW_AT_location[DW_OP_breg20 -3]
   10582              DW$793  .dwtag  DW_TAG_variable, DW_AT_name("plist"), DW_AT_symbol_name("_plist")
   10583                      .dwattr DW$793, DW_AT_type(*DW$T$35)
   10584                      .dwattr DW$793, DW_AT_location[DW_OP_breg20 -6]
   10585 000010ec 9643          MOV       *-SP[3],AL            ; |83| 
   10586 000010ed A842          MOVL      *-SP[2],XAR4          ; |83| 
   10587                      .dwpsn  "WIDGET\GUI_widget_radio.c",85,2
   10588 000010ee 761F-         MOVW      DP,#_m_edit_lock
         000010ef 0000 
   10589 000010f0 8A14-         MOVL      XAR4,@_m_edit_lock    ; |85| 
   10590 000010f1 7640!         LCR       #_os_lock             ; |85| 
         000010f2 0000 
   10591                      ; call occurs [#_os_lock] ; |85| 
   10592                      .dwpsn  "WIDGET\GUI_widget_radio.c",86,2
   10593 000010f3 8A42          MOVL      XAR4,*-SP[2]          ; |86| 
   10594 000010f4 D012          MOVB      XAR0,#18              ; |86| 
   10595 000010f5 0694          MOVL      ACC,*+XAR4[AR0]       ; |86| 
   10596 000010f6 D00A          MOVB      XAR0,#10              ; |90| 
   10597 000010f7 1E46          MOVL      *-SP[6],ACC           ; |86| 
   10598                      .dwpsn  "WIDGET\GUI_widget_radio.c",87,10
   10599              L162:    
   10600              DW$L$_GUI_radio_select$2$B:
   10601                      .dwpsn  "WIDGET\GUI_widget_radio.c",89,3
   10602 000010f8 8A46          MOVL      XAR4,*-SP[6]          ; |89| 
   10603 000010f9 9243          MOV       AL,*-SP[3]            ; |89| 
   10604 000010fa 54F4          CMP       AL,*+XAR4[6]          ; |89| 
   10605 000010fb EC0C          BF        L163,EQ               ; |89| 
   10606                      ; branchcc occurs ; |89| 
   10607              DW$L$_GUI_radio_select$2$E:
   10608              DW$L$_GUI_radio_select$3$B:
   10609                      .dwpsn  "WIDGET\GUI_widget_radio.c",89,26
   10610                      .dwpsn  "WIDGET\GUI_widget_radio.c",90,3
   10611 000010fc 8A46          MOVL      XAR4,*-SP[6]          ; |90| 
   10612 000010fd 0694          MOVL      ACC,*+XAR4[AR0]       ; |90| 
   10613 000010fe 1E46          MOVL      *-SP[6],ACC           ; |90| 
TMS320C2000 COFF Assembler PC v4.1.3 Thu Nov 29 16:03:34 2012

Tools Copyright (c) 1996-2006 Texas Instruments Incorporated
C:\DOCUME~1\ADMINI~1\LOCALS~1\Temp\TI9882                            PAGE  206

   10614                      .dwpsn  "WIDGET\GUI_widget_radio.c",91,3
   10615 000010ff 0646          MOVL      ACC,*-SP[6]           ; |91| 
   10616 00001100 EDF8          BF        L162,NEQ              ; |91| 
   10617                      ; branchcc occurs ; |91| 
   10618              DW$L$_GUI_radio_select$3$E:
   10619                      .dwpsn  "WIDGET\GUI_widget_radio.c",93,4
   10620 00001101 761F-         MOVW      DP,#_m_edit_lock
         00001102 0000 
   10621 00001103 8A14-         MOVL      XAR4,@_m_edit_lock    ; |93| 
   10622 00001104 7640!         LCR       #_os_unlock           ; |93| 
         00001105 0000 
   10623                      ; call occurs [#_os_unlock] ; |93| 
   10624                      .dwpsn  "WIDGET\GUI_widget_radio.c",94,4
   10625 00001106 6F31          B         L165,UNC              ; |94| 
   10626                      ; branch occurs ; |94| 
   10627              L163:    
   10628                      .dwpsn  "WIDGET\GUI_widget_radio.c",97,2
   10629 00001107 8A42          MOVL      XAR4,*-SP[2]          ; |97| 
   10630 00001108 D014          MOVB      XAR0,#20              ; |97| 
   10631 00001109 0694          MOVL      ACC,*+XAR4[AR0]       ; |97| 
   10632 0000110a EC1A          BF        L164,EQ               ; |97| 
   10633                      ; branchcc occurs ; |97| 
   10634                      .dwpsn  "WIDGET\GUI_widget_radio.c",99,3
   10635 0000110b 8A42          MOVL      XAR4,*-SP[2]          ; |99| 
   10636 0000110c 8A94          MOVL      XAR4,*+XAR4[AR0]      ; |99| 
   10637 0000110d 92C4          MOV       AL,*+XAR4[0]          ; |99| 
   10638 0000110e 8A42          MOVL      XAR4,*-SP[2]          ; |99| 
   10639 0000110f 8A94          MOVL      XAR4,*+XAR4[AR0]      ; |99| 
   10640 00001110 9C08          ADDB      AL,#8                 ; |99| 
   10641 00001111 D500          MOVB      XAR5,#0
   10642 00001112 93CC          MOV       AH,*+XAR4[1]          ; |99| 
   10643 00001113 9D09          ADDB      AH,#9                 ; |99| 
   10644 00001114 D405          MOVB      XAR4,#5               ; |99| 
   10645 00001115 7640!         LCR       #_GUI_drawcircle      ; |99| 
         00001116 0000 
   10646                      ; call occurs [#_GUI_drawcircle] ; |99| 
   10647                      .dwpsn  "WIDGET\GUI_widget_radio.c",100,3
   10648 00001117 8A42          MOVL      XAR4,*-SP[2]          ; |100| 
   10649 00001118 D014          MOVB      XAR0,#20              ; |100| 
   10650 00001119 8A94          MOVL      XAR4,*+XAR4[AR0]      ; |100| 
   10651 0000111a 92C4          MOV       AL,*+XAR4[0]          ; |100| 
   10652 0000111b 8A42          MOVL      XAR4,*-SP[2]          ; |100| 
   10653 0000111c 8A94          MOVL      XAR4,*+XAR4[AR0]      ; |100| 
   10654 0000111d 9C08          ADDB      AL,#8                 ; |100| 
   10655 0000111e 93CC          MOV       AH,*+XAR4[1]          ; |100| 
   10656 0000111f D5FF          MOVB      XAR5,#255             ; |100| 
   10657 00001120 9D09          ADDB      AH,#9                 ; |100| 
   10658 00001121 D405          MOVB      XAR4,#5               ; |100| 
   10659 00001122 7640!         LCR       #_GUI_fillcircle      ; |100| 
         00001123 0000 
   10660                      ; call occurs [#_GUI_fillcircle] ; |100| 
   10661              L164:    
   10662                      .dwpsn  "WIDGET\GUI_widget_radio.c",102,2
   10663 00001124 8A42          MOVL      XAR4,*-SP[2]          ; |102| 
   10664 00001125 0646          MOVL      ACC,*-SP[6]           ; |102| 
TMS320C2000 COFF Assembler PC v4.1.3 Thu Nov 29 16:03:34 2012

Tools Copyright (c) 1996-2006 Texas Instruments Incorporated
C:\DOCUME~1\ADMINI~1\LOCALS~1\Temp\TI9882                            PAGE  207

   10665 00001126 D014          MOVB      XAR0,#20              ; |102| 
   10666 00001127 1E94          MOVL      *+XAR4[AR0],ACC       ; |102| 
   10667                      .dwpsn  "WIDGET\GUI_widget_radio.c",103,2
   10668 00001128 761F-         MOVW      DP,#_m_edit_lock
         00001129 0000 
   10669 0000112a 8A14-         MOVL      XAR4,@_m_edit_lock    ; |103| 
   10670 0000112b 7640!         LCR       #_os_unlock           ; |103| 
         0000112c 0000 
   10671                      ; call occurs [#_os_unlock] ; |103| 
   10672                      .dwpsn  "WIDGET\GUI_widget_radio.c",104,2
   10673 0000112d 8A46          MOVL      XAR4,*-SP[6]          ; |104| 
   10674 0000112e 92C4          MOV       AL,*+XAR4[0]          ; |104| 
   10675 0000112f 8A46          MOVL      XAR4,*-SP[6]          ; |104| 
   10676 00001130 9C08          ADDB      AL,#8                 ; |104| 
   10677 00001131 93CC          MOV       AH,*+XAR4[1]          ; |104| 
   10678 00001132 9D09          ADDB      AH,#9                 ; |104| 
   10679 00001133 D500          MOVB      XAR5,#0
   10680 00001134 D402          MOVB      XAR4,#2               ; |104| 
   10681 00001135 7640!         LCR       #_GUI_fillcircle      ; |104| 
         00001136 0000 
   10682                      ; call occurs [#_GUI_fillcircle] ; |104| 
   10683                      .dwpsn  "WIDGET\GUI_widget_radio.c",105,2
   10684              L165:    
   10685                      .dwpsn  "WIDGET\GUI_widget_radio.c",106,1
   10686 00001137 FE86          SUBB      SP,#6
   10687                      .dwcfa  0x1d, -2
   10688 00001138 0006          LRETR
   10689                      ; return occurs
   10690              
   10691              DW$794  .dwtag  DW_TAG_loop
   10692                      .dwattr DW$794, DW_AT_name("C:\DOCUME~1\ADMINI~1\LOCALS~1\Temp\TI9882:L162:1:1354176212")
   10693                      .dwattr DW$794, DW_AT_begin_file("WIDGET\GUI_widget_radio.c")
   10694                      .dwattr DW$794, DW_AT_begin_line(0x57)
   10695                      .dwattr DW$794, DW_AT_end_line(0x60)
   10696              DW$795  .dwtag  DW_TAG_loop_range
   10697                      .dwattr DW$795, DW_AT_low_pc(DW$L$_GUI_radio_select$2$B)
   10698                      .dwattr DW$795, DW_AT_high_pc(DW$L$_GUI_radio_select$2$E)
   10699              DW$796  .dwtag  DW_TAG_loop_range
   10700                      .dwattr DW$796, DW_AT_low_pc(DW$L$_GUI_radio_select$3$B)
   10701                      .dwattr DW$796, DW_AT_high_pc(DW$L$_GUI_radio_select$3$E)
   10702                      .dwendtag DW$794
   10703              
   10704                      .dwattr DW$788, DW_AT_end_file("WIDGET\GUI_widget_radio.c")
   10705                      .dwattr DW$788, DW_AT_end_line(0x6a)
   10706                      .dwattr DW$788, DW_AT_end_column(0x01)
   10707                      .dwendentry
   10708                      .dwendtag DW$788
   10709              
   10710 00001139               .sect   ".text"
   10711              
   10712              DW$797  .dwtag  DW_TAG_subprogram, DW_AT_name("GUI_radio_match"), DW_AT_symbol_name("_GUI_radio_match")
   10713                      .dwattr DW$797, DW_AT_low_pc(_GUI_radio_match)
   10714                      .dwattr DW$797, DW_AT_high_pc(0x00)
   10715                      .dwattr DW$797, DW_AT_begin_file("WIDGET\GUI_widget_radio.c")
   10716                      .dwattr DW$797, DW_AT_begin_line(0x72)
TMS320C2000 COFF Assembler PC v4.1.3 Thu Nov 29 16:03:34 2012

Tools Copyright (c) 1996-2006 Texas Instruments Incorporated
C:\DOCUME~1\ADMINI~1\LOCALS~1\Temp\TI9882                            PAGE  208

   10717                      .dwattr DW$797, DW_AT_begin_column(0x0d)
   10718                      .dwpsn  "WIDGET\GUI_widget_radio.c",115,1
   10719              
   10720                      .dwfde DW$CIE
   10721              
   10722              ;***************************************************************
   10723              ;* FNAME: _GUI_radio_match              FR SIZE:  10           *
   10724              ;*                                                             *
   10725              ;* FUNCTION ENVIRONMENT                                        *
   10726              ;*                                                             *
   10727              ;* FUNCTION PROPERTIES                                         *
   10728              ;*                            0 Parameter,  9 Auto,  0 SOE     *
   10729              ;***************************************************************
   10730              
   10731              _GUI_radio_match:
   10732                      .dwcfa  0x1d, -2
   10733                      .dwcfa  0x1c, 26, 0
   10734                      .dwcfa  0x09, 40, 26
   10735 00001139 FE0A          ADDB      SP,#10
   10736                      .dwcfa  0x1d, -12
   10737              ;* AR4   assigned to _pedit
   10738              DW$798  .dwtag  DW_TAG_formal_parameter, DW_AT_name("pedit"), DW_AT_symbol_name("_pedit")
   10739                      .dwattr DW$798, DW_AT_type(*DW$T$35)
   10740                      .dwattr DW$798, DW_AT_location[DW_OP_reg12]
   10741              ;* AR5   assigned to _data
   10742              DW$799  .dwtag  DW_TAG_formal_parameter, DW_AT_name("data"), DW_AT_symbol_name("_data")
   10743                      .dwattr DW$799, DW_AT_type(*DW$T$146)
   10744                      .dwattr DW$799, DW_AT_location[DW_OP_reg14]
   10745              DW$800  .dwtag  DW_TAG_formal_parameter, DW_AT_name("hp"), DW_AT_symbol_name("_hp")
   10746                      .dwattr DW$800, DW_AT_type(*DW$T$54)
   10747                      .dwattr DW$800, DW_AT_location[DW_OP_breg20 -14]
   10748              DW$801  .dwtag  DW_TAG_variable, DW_AT_name("pedit"), DW_AT_symbol_name("_pedit")
   10749                      .dwattr DW$801, DW_AT_type(*DW$T$35)
   10750                      .dwattr DW$801, DW_AT_location[DW_OP_breg20 -2]
   10751              DW$802  .dwtag  DW_TAG_variable, DW_AT_name("data"), DW_AT_symbol_name("_data")
   10752                      .dwattr DW$802, DW_AT_type(*DW$T$146)
   10753                      .dwattr DW$802, DW_AT_location[DW_OP_breg20 -4]
   10754              DW$803  .dwtag  DW_TAG_variable, DW_AT_name("xmax"), DW_AT_symbol_name("_xmax")
   10755                      .dwattr DW$803, DW_AT_type(*DW$T$10)
   10756                      .dwattr DW$803, DW_AT_location[DW_OP_breg20 -5]
   10757              DW$804  .dwtag  DW_TAG_variable, DW_AT_name("xmin"), DW_AT_symbol_name("_xmin")
   10758                      .dwattr DW$804, DW_AT_type(*DW$T$10)
   10759                      .dwattr DW$804, DW_AT_location[DW_OP_breg20 -6]
   10760              DW$805  .dwtag  DW_TAG_variable, DW_AT_name("ymax"), DW_AT_symbol_name("_ymax")
   10761                      .dwattr DW$805, DW_AT_type(*DW$T$10)
   10762                      .dwattr DW$805, DW_AT_location[DW_OP_breg20 -7]
   10763              DW$806  .dwtag  DW_TAG_variable, DW_AT_name("ymin"), DW_AT_symbol_name("_ymin")
   10764                      .dwattr DW$806, DW_AT_type(*DW$T$10)
   10765                      .dwattr DW$806, DW_AT_location[DW_OP_breg20 -8]
   10766              DW$807  .dwtag  DW_TAG_variable, DW_AT_name("offset"), DW_AT_symbol_name("_offset")
   10767                      .dwattr DW$807, DW_AT_type(*DW$T$10)
   10768                      .dwattr DW$807, DW_AT_location[DW_OP_breg20 -9]
   10769 0000113a A044          MOVL      *-SP[4],XAR5          ; |115| 
   10770 0000113b A842          MOVL      *-SP[2],XAR4          ; |115| 
   10771                      .dwpsn  "WIDGET\GUI_widget_radio.c",117,5
TMS320C2000 COFF Assembler PC v4.1.3 Thu Nov 29 16:03:34 2012

Tools Copyright (c) 1996-2006 Texas Instruments Incorporated
C:\DOCUME~1\ADMINI~1\LOCALS~1\Temp\TI9882                            PAGE  209

   10772                      .dwpsn  "WIDGET\GUI_widget_radio.c",118,2
   10773 0000113c 8A42          MOVL      XAR4,*-SP[2]          ; |118| 
   10774 0000113d 92C4          MOV       AL,*+XAR4[0]          ; |118| 
   10775 0000113e 9C14          ADDB      AL,#20                ; |118| 
   10776 0000113f 9645          MOV       *-SP[5],AL            ; |118| 
   10777                      .dwpsn  "WIDGET\GUI_widget_radio.c",119,2
   10778 00001140 8A42          MOVL      XAR4,*-SP[2]          ; |119| 
   10779 00001141 92C4          MOV       AL,*+XAR4[0]          ; |119| 
   10780 00001142 9CFB          ADDB      AL,#-5
   10781 00001143 9646          MOV       *-SP[6],AL            ; |119| 
   10782                      .dwpsn  "WIDGET\GUI_widget_radio.c",120,2
   10783 00001144 8A42          MOVL      XAR4,*-SP[2]          ; |120| 
   10784 00001145 92CC          MOV       AL,*+XAR4[1]          ; |120| 
   10785 00001146 9C13          ADDB      AL,#19                ; |120| 
   10786 00001147 9647          MOV       *-SP[7],AL            ; |120| 
   10787                      .dwpsn  "WIDGET\GUI_widget_radio.c",121,2
   10788 00001148 8A42          MOVL      XAR4,*-SP[2]          ; |121| 
   10789 00001149 92CC          MOV       AL,*+XAR4[1]          ; |121| 
   10790 0000114a 9CFD          ADDB      AL,#-3
   10791 0000114b 9648          MOV       *-SP[8],AL            ; |121| 
   10792                      .dwpsn  "WIDGET\GUI_widget_radio.c",122,2
   10793 0000114c 1B45          CMP       *-SP[5],#320          ; |122| 
         0000114d 0140 
   10794 0000114e 6503          B         L166,LEQ              ; |122| 
   10795                      ; branchcc occurs ; |122| 
   10796 0000114f 2845          MOV       *-SP[5],#320          ; |122| 
         00001150 0140 
   10797              L166:    
   10798                      .dwpsn  "WIDGET\GUI_widget_radio.c",123,2
   10799 00001151 9246          MOV       AL,*-SP[6]            ; |123| 
   10800 00001152 6302          B         L167,GEQ              ; |123| 
   10801                      ; branchcc occurs ; |123| 
   10802 00001153 2B46          MOV       *-SP[6],#0            ; |123| 
   10803              L167:    
   10804                      .dwpsn  "WIDGET\GUI_widget_radio.c",124,2
   10805 00001154 9247          MOV       AL,*-SP[7]            ; |124| 
   10806 00001155 52F0          CMPB      AL,#240               ; |124| 
   10807 00001156 6503          B         L168,LEQ              ; |124| 
   10808                      ; branchcc occurs ; |124| 
   10809 00001157 2847          MOV       *-SP[7],#240          ; |124| 
         00001158 00F0 
   10810              L168:    
   10811                      .dwpsn  "WIDGET\GUI_widget_radio.c",125,2
   10812 00001159 9248          MOV       AL,*-SP[8]            ; |125| 
   10813 0000115a 6302          B         L169,GEQ              ; |125| 
   10814                      ; branchcc occurs ; |125| 
   10815 0000115b 2B48          MOV       *-SP[8],#0            ; |125| 
   10816              L169:    
   10817                      .dwpsn  "WIDGET\GUI_widget_radio.c",126,2
   10818 0000115c 8A44          MOVL      XAR4,*-SP[4]          ; |126| 
   10819 0000115d 9246          MOV       AL,*-SP[6]            ; |126| 
   10820 0000115e 54C4          CMP       AL,*+XAR4[0]          ; |126| 
   10821 0000115f 6903          B         L170,LOS              ; |126| 
   10822                      ; branchcc occurs ; |126| 
   10823                      .dwpsn  "WIDGET\GUI_widget_radio.c",126,24
TMS320C2000 COFF Assembler PC v4.1.3 Thu Nov 29 16:03:34 2012

Tools Copyright (c) 1996-2006 Texas Instruments Incorporated
C:\DOCUME~1\ADMINI~1\LOCALS~1\Temp\TI9882                            PAGE  210

   10824 00001160 9A00          MOVB      AL,#0
   10825 00001161 6F14          B         L174,UNC              ; |126| 
   10826                      ; branch occurs ; |126| 
   10827              L170:    
   10828                      .dwpsn  "WIDGET\GUI_widget_radio.c",127,2
   10829 00001162 8A44          MOVL      XAR4,*-SP[4]          ; |127| 
   10830 00001163 9245          MOV       AL,*-SP[5]            ; |127| 
   10831 00001164 54C4          CMP       AL,*+XAR4[0]          ; |127| 
   10832 00001165 6703          B         L171,HIS              ; |127| 
   10833                      ; branchcc occurs ; |127| 
   10834                      .dwpsn  "WIDGET\GUI_widget_radio.c",127,24
   10835 00001166 9A00          MOVB      AL,#0
   10836 00001167 6F0E          B         L174,UNC              ; |127| 
   10837                      ; branch occurs ; |127| 
   10838              L171:    
   10839                      .dwpsn  "WIDGET\GUI_widget_radio.c",128,2
   10840 00001168 8A44          MOVL      XAR4,*-SP[4]          ; |128| 
   10841 00001169 9248          MOV       AL,*-SP[8]            ; |128| 
   10842 0000116a 54CC          CMP       AL,*+XAR4[1]          ; |128| 
   10843 0000116b 6903          B         L172,LOS              ; |128| 
   10844                      ; branchcc occurs ; |128| 
   10845                      .dwpsn  "WIDGET\GUI_widget_radio.c",128,24
   10846 0000116c 9A00          MOVB      AL,#0
   10847 0000116d 6F08          B         L174,UNC              ; |128| 
   10848                      ; branch occurs ; |128| 
   10849              L172:    
   10850                      .dwpsn  "WIDGET\GUI_widget_radio.c",129,2
   10851 0000116e 8A44          MOVL      XAR4,*-SP[4]          ; |129| 
   10852 0000116f 9247          MOV       AL,*-SP[7]            ; |129| 
   10853 00001170 54CC          CMP       AL,*+XAR4[1]          ; |129| 
   10854 00001171 6703          B         L173,HIS              ; |129| 
   10855                      ; branchcc occurs ; |129| 
   10856                      .dwpsn  "WIDGET\GUI_widget_radio.c",129,24
   10857 00001172 9A00          MOVB      AL,#0
   10858 00001173 6F02          B         L174,UNC              ; |129| 
   10859                      ; branch occurs ; |129| 
   10860              L173:    
   10861                      .dwpsn  "WIDGET\GUI_widget_radio.c",131,2
   10862 00001174 9A01          MOVB      AL,#1                 ; |131| 
   10863              L174:    
   10864                      .dwpsn  "WIDGET\GUI_widget_radio.c",132,1
   10865 00001175 FE8A          SUBB      SP,#10                ; |131| 
   10866                      .dwcfa  0x1d, -2
   10867 00001176 0006          LRETR
   10868                      ; return occurs
   10869                      .dwattr DW$797, DW_AT_end_file("WIDGET\GUI_widget_radio.c")
   10870                      .dwattr DW$797, DW_AT_end_line(0x84)
   10871                      .dwattr DW$797, DW_AT_end_column(0x01)
   10872                      .dwendentry
   10873                      .dwendtag DW$797
   10874              
   10875 00001177               .sect   ".text"
   10876                      .global _GUI_radio_ontouch
   10877              
   10878              DW$808  .dwtag  DW_TAG_subprogram, DW_AT_name("GUI_radio_ontouch"), DW_AT_symbol_name("_GUI_radio_ontouch")
TMS320C2000 COFF Assembler PC v4.1.3 Thu Nov 29 16:03:34 2012

Tools Copyright (c) 1996-2006 Texas Instruments Incorporated
C:\DOCUME~1\ADMINI~1\LOCALS~1\Temp\TI9882                            PAGE  211

   10879                      .dwattr DW$808, DW_AT_low_pc(_GUI_radio_ontouch)
   10880                      .dwattr DW$808, DW_AT_high_pc(0x00)
   10881                      .dwattr DW$808, DW_AT_begin_file("WIDGET\GUI_widget_radio.c")
   10882                      .dwattr DW$808, DW_AT_begin_line(0x8c)
   10883                      .dwattr DW$808, DW_AT_begin_column(0x06)
   10884                      .dwpsn  "WIDGET\GUI_widget_radio.c",141,1
   10885              
   10886                      .dwfde DW$CIE
   10887              
   10888              ;***************************************************************
   10889              ;* FNAME: _GUI_radio_ontouch            FR SIZE:   8           *
   10890              ;*                                                             *
   10891              ;* FUNCTION ENVIRONMENT                                        *
   10892              ;*                                                             *
   10893              ;* FUNCTION PROPERTIES                                         *
   10894              ;*                            2 Parameter,  6 Auto,  0 SOE     *
   10895              ;***************************************************************
   10896              
   10897              _GUI_radio_ontouch:
   10898                      .dwcfa  0x1d, -2
   10899                      .dwcfa  0x1c, 26, 0
   10900                      .dwcfa  0x09, 40, 26
   10901 00001177 FE08          ADDB      SP,#8
   10902                      .dwcfa  0x1d, -10
   10903              ;* AR4   assigned to _hp
   10904              DW$809  .dwtag  DW_TAG_formal_parameter, DW_AT_name("hp"), DW_AT_symbol_name("_hp")
   10905                      .dwattr DW$809, DW_AT_type(*DW$T$54)
   10906                      .dwattr DW$809, DW_AT_location[DW_OP_reg12]
   10907              ;* AR5   assigned to _data
   10908              DW$810  .dwtag  DW_TAG_formal_parameter, DW_AT_name("data"), DW_AT_symbol_name("_data")
   10909                      .dwattr DW$810, DW_AT_type(*DW$T$146)
   10910                      .dwattr DW$810, DW_AT_location[DW_OP_reg14]
   10911              DW$811  .dwtag  DW_TAG_variable, DW_AT_name("hp"), DW_AT_symbol_name("_hp")
   10912                      .dwattr DW$811, DW_AT_type(*DW$T$54)
   10913                      .dwattr DW$811, DW_AT_location[DW_OP_breg20 -4]
   10914              DW$812  .dwtag  DW_TAG_variable, DW_AT_name("data"), DW_AT_symbol_name("_data")
   10915                      .dwattr DW$812, DW_AT_type(*DW$T$146)
   10916                      .dwattr DW$812, DW_AT_location[DW_OP_breg20 -6]
   10917              DW$813  .dwtag  DW_TAG_variable, DW_AT_name("plist"), DW_AT_symbol_name("_plist")
   10918                      .dwattr DW$813, DW_AT_type(*DW$T$35)
   10919                      .dwattr DW$813, DW_AT_location[DW_OP_breg20 -8]
   10920 00001178 A046          MOVL      *-SP[6],XAR5          ; |141| 
   10921 00001179 A844          MOVL      *-SP[4],XAR4          ; |141| 
   10922                      .dwpsn  "WIDGET\GUI_widget_radio.c",143,2
   10923 0000117a 8A44          MOVL      XAR4,*-SP[4]          ; |143| 
   10924 0000117b D012          MOVB      XAR0,#18              ; |143| 
   10925 0000117c 0694          MOVL      ACC,*+XAR4[AR0]       ; |143| 
   10926 0000117d 1E48          MOVL      *-SP[8],ACC           ; |143| 
   10927                      .dwpsn  "WIDGET\GUI_widget_radio.c",144,10
   10928              L175:    
   10929              DW$L$_GUI_radio_ontouch$2$B:
   10930                      .dwpsn  "WIDGET\GUI_widget_radio.c",146,3
   10931 0000117e 0648          MOVL      ACC,*-SP[8]           ; |146| 
   10932 0000117f ED03          BF        L176,NEQ              ; |146| 
   10933                      ; branchcc occurs ; |146| 
TMS320C2000 COFF Assembler PC v4.1.3 Thu Nov 29 16:03:34 2012

Tools Copyright (c) 1996-2006 Texas Instruments Incorporated
C:\DOCUME~1\ADMINI~1\LOCALS~1\Temp\TI9882                            PAGE  212

   10934              DW$L$_GUI_radio_ontouch$2$E:
   10935                      .dwpsn  "WIDGET\GUI_widget_radio.c",148,4
   10936 00001180 9A00          MOVB      AL,#0
   10937 00001181 6F1E          B         L178,UNC              ; |148| 
   10938                      ; branch occurs ; |148| 
   10939              L176:    
   10940              DW$L$_GUI_radio_ontouch$4$B:
   10941                      .dwpsn  "WIDGET\GUI_widget_radio.c",150,3
   10942 00001182 0644          MOVL      ACC,*-SP[4]           ; |150| 
   10943 00001183 1E42          MOVL      *-SP[2],ACC           ; |150| 
   10944 00001184 8A48          MOVL      XAR4,*-SP[8]          ; |150| 
   10945 00001185 8346          MOVL      XAR5,*-SP[6]          ; |150| 
   10946 00001186 7640'         LCR       #_GUI_radio_match     ; |150| 
         00001187 1139 
   10947                      ; call occurs [#_GUI_radio_match] ; |150| 
   10948 00001188 5200          CMPB      AL,#0                 ; |150| 
   10949 00001189 EC11          BF        L177,EQ               ; |150| 
   10950                      ; branchcc occurs ; |150| 
   10951              DW$L$_GUI_radio_ontouch$4$E:
   10952              DW$L$_GUI_radio_ontouch$5$B:
   10953                      .dwpsn  "WIDGET\GUI_widget_radio.c",152,7
   10954 0000118a 7640'         LCR       #_GUI_widget_key_cnt_wait ; |152| 
         0000118b 06CA 
   10955                      ; call occurs [#_GUI_widget_key_cnt_wait] ; |152| 
   10956 0000118c 5200          CMPB      AL,#0                 ; |152| 
   10957 0000118d EC0D          BF        L177,EQ               ; |152| 
   10958                      ; branchcc occurs ; |152| 
   10959              DW$L$_GUI_radio_ontouch$5$E:
   10960                      .dwpsn  "WIDGET\GUI_widget_radio.c",154,5
   10961 0000118e 8A48          MOVL      XAR4,*-SP[8]          ; |154| 
   10962 0000118f 92F4          MOV       AL,*+XAR4[6]          ; |154| 
   10963 00001190 8A44          MOVL      XAR4,*-SP[4]          ; |154| 
   10964 00001191 7640'         LCR       #_GUI_radio_select    ; |154| 
         00001192 10EB 
   10965                      ; call occurs [#_GUI_radio_select] ; |154| 
   10966                      .dwpsn  "WIDGET\GUI_widget_radio.c",155,5
   10967 00001193 8A44          MOVL      XAR4,*-SP[4]          ; |155| 
   10968 00001194 CCFC          AND       AL,*+XAR4[7],#0x00ff  ; |155| 
         00001195 00FF 
   10969 00001196 7640!         LCR       #_app_global_key_dummy_press ; |155| 
         00001197 0000 
   10970                      ; call occurs [#_app_global_key_dummy_press] ; |155| 
   10971                      .dwpsn  "WIDGET\GUI_widget_radio.c",156,5
   10972 00001198 9A01          MOVB      AL,#1                 ; |156| 
   10973 00001199 6F06          B         L178,UNC              ; |156| 
   10974                      ; branch occurs ; |156| 
   10975              L177:    
   10976              DW$L$_GUI_radio_ontouch$7$B:
   10977                      .dwpsn  "WIDGET\GUI_widget_radio.c",159,3
   10978 0000119a 8A48          MOVL      XAR4,*-SP[8]          ; |159| 
   10979 0000119b D00A          MOVB      XAR0,#10              ; |159| 
   10980 0000119c 0694          MOVL      ACC,*+XAR4[AR0]       ; |159| 
   10981 0000119d 1E48          MOVL      *-SP[8],ACC           ; |159| 
   10982                      .dwpsn  "WIDGET\GUI_widget_radio.c",144,10
   10983 0000119e 6FE0          B         L175,UNC              ; |144| 
TMS320C2000 COFF Assembler PC v4.1.3 Thu Nov 29 16:03:34 2012

Tools Copyright (c) 1996-2006 Texas Instruments Incorporated
C:\DOCUME~1\ADMINI~1\LOCALS~1\Temp\TI9882                            PAGE  213

   10984                      ; branch occurs ; |144| 
   10985              DW$L$_GUI_radio_ontouch$7$E:
   10986              L178:    
   10987                      .dwpsn  "WIDGET\GUI_widget_radio.c",161,1
   10988 0000119f FE88          SUBB      SP,#8                 ; |144| 
   10989                      .dwcfa  0x1d, -2
   10990 000011a0 0006          LRETR
   10991                      ; return occurs
   10992              
   10993              DW$814  .dwtag  DW_TAG_loop
   10994                      .dwattr DW$814, DW_AT_name("C:\DOCUME~1\ADMINI~1\LOCALS~1\Temp\TI9882:L175:1:1354176212")
   10995                      .dwattr DW$814, DW_AT_begin_file("WIDGET\GUI_widget_radio.c")
   10996                      .dwattr DW$814, DW_AT_begin_line(0x90)
   10997                      .dwattr DW$814, DW_AT_end_line(0xa0)
   10998              DW$815  .dwtag  DW_TAG_loop_range
   10999                      .dwattr DW$815, DW_AT_low_pc(DW$L$_GUI_radio_ontouch$2$B)
   11000                      .dwattr DW$815, DW_AT_high_pc(DW$L$_GUI_radio_ontouch$2$E)
   11001              DW$816  .dwtag  DW_TAG_loop_range
   11002                      .dwattr DW$816, DW_AT_low_pc(DW$L$_GUI_radio_ontouch$4$B)
   11003                      .dwattr DW$816, DW_AT_high_pc(DW$L$_GUI_radio_ontouch$4$E)
   11004              DW$817  .dwtag  DW_TAG_loop_range
   11005                      .dwattr DW$817, DW_AT_low_pc(DW$L$_GUI_radio_ontouch$5$B)
   11006                      .dwattr DW$817, DW_AT_high_pc(DW$L$_GUI_radio_ontouch$5$E)
   11007              DW$818  .dwtag  DW_TAG_loop_range
   11008                      .dwattr DW$818, DW_AT_low_pc(DW$L$_GUI_radio_ontouch$7$B)
   11009                      .dwattr DW$818, DW_AT_high_pc(DW$L$_GUI_radio_ontouch$7$E)
   11010                      .dwendtag DW$814
   11011              
   11012                      .dwattr DW$808, DW_AT_end_file("WIDGET\GUI_widget_radio.c")
   11013                      .dwattr DW$808, DW_AT_end_line(0xa1)
   11014                      .dwattr DW$808, DW_AT_end_column(0x01)
   11015                      .dwendentry
   11016                      .dwendtag DW$808
   11017              
   11018 000011a1               .sect   ".text"
   11019                      .global _Gui_txtbox_creat
   11020              
   11021              DW$819  .dwtag  DW_TAG_subprogram, DW_AT_name("Gui_txtbox_creat"), DW_AT_symbol_name("_Gui_txtbox_creat")
   11022                      .dwattr DW$819, DW_AT_low_pc(_Gui_txtbox_creat)
   11023                      .dwattr DW$819, DW_AT_high_pc(0x00)
   11024                      .dwattr DW$819, DW_AT_begin_file("WIDGET\Gui_widget_txtbox.c")
   11025                      .dwattr DW$819, DW_AT_begin_line(0x04)
   11026                      .dwattr DW$819, DW_AT_begin_column(0x09)
   11027                      .dwpsn  "WIDGET\Gui_widget_txtbox.c",10,1
   11028              
   11029                      .dwfde DW$CIE
   11030              
   11031              ;***************************************************************
   11032              ;* FNAME: _Gui_txtbox_creat             FR SIZE:  10           *
   11033              ;*                                                             *
   11034              ;* FUNCTION ENVIRONMENT                                        *
   11035              ;*                                                             *
   11036              ;* FUNCTION PROPERTIES                                         *
   11037              ;*                            2 Parameter,  8 Auto,  0 SOE     *
   11038              ;***************************************************************
TMS320C2000 COFF Assembler PC v4.1.3 Thu Nov 29 16:03:34 2012

Tools Copyright (c) 1996-2006 Texas Instruments Incorporated
C:\DOCUME~1\ADMINI~1\LOCALS~1\Temp\TI9882                            PAGE  214

   11039              
   11040              _Gui_txtbox_creat:
   11041                      .dwcfa  0x1d, -2
   11042                      .dwcfa  0x1c, 26, 0
   11043                      .dwcfa  0x09, 40, 26
   11044 000011a1 FE0A          ADDB      SP,#10
   11045                      .dwcfa  0x1d, -12
   11046              ;* AL    assigned to _xcoord
   11047              DW$820  .dwtag  DW_TAG_formal_parameter, DW_AT_name("xcoord"), DW_AT_symbol_name("_xcoord")
   11048                      .dwattr DW$820, DW_AT_type(*DW$T$11)
   11049                      .dwattr DW$820, DW_AT_location[DW_OP_reg0]
   11050              ;* AH    assigned to _ycoord
   11051              DW$821  .dwtag  DW_TAG_formal_parameter, DW_AT_name("ycoord"), DW_AT_symbol_name("_ycoord")
   11052                      .dwattr DW$821, DW_AT_type(*DW$T$11)
   11053                      .dwattr DW$821, DW_AT_location[DW_OP_reg1]
   11054              ;* AR5   assigned to _wide
   11055              DW$822  .dwtag  DW_TAG_formal_parameter, DW_AT_name("wide"), DW_AT_symbol_name("_wide")
   11056                      .dwattr DW$822, DW_AT_type(*DW$T$27)
   11057                      .dwattr DW$822, DW_AT_location[DW_OP_reg14]
   11058              DW$823  .dwtag  DW_TAG_formal_parameter, DW_AT_name("high"), DW_AT_symbol_name("_high")
   11059                      .dwattr DW$823, DW_AT_type(*DW$T$27)
   11060                      .dwattr DW$823, DW_AT_location[DW_OP_breg20 -13]
   11061              DW$824  .dwtag  DW_TAG_formal_parameter, DW_AT_name("flags"), DW_AT_symbol_name("_flags")
   11062                      .dwattr DW$824, DW_AT_type(*DW$T$27)
   11063                      .dwattr DW$824, DW_AT_location[DW_OP_breg20 -14]
   11064              ;* AR4   assigned to _fatherhp
   11065              DW$825  .dwtag  DW_TAG_formal_parameter, DW_AT_name("fatherhp"), DW_AT_symbol_name("_fatherhp")
   11066                      .dwattr DW$825, DW_AT_type(*DW$T$54)
   11067                      .dwattr DW$825, DW_AT_location[DW_OP_reg12]
   11068              DW$826  .dwtag  DW_TAG_variable, DW_AT_name("xcoord"), DW_AT_symbol_name("_xcoord")
   11069                      .dwattr DW$826, DW_AT_type(*DW$T$11)
   11070                      .dwattr DW$826, DW_AT_location[DW_OP_breg20 -3]
   11071              DW$827  .dwtag  DW_TAG_variable, DW_AT_name("ycoord"), DW_AT_symbol_name("_ycoord")
   11072                      .dwattr DW$827, DW_AT_type(*DW$T$11)
   11073                      .dwattr DW$827, DW_AT_location[DW_OP_breg20 -4]
   11074              DW$828  .dwtag  DW_TAG_variable, DW_AT_name("wide"), DW_AT_symbol_name("_wide")
   11075                      .dwattr DW$828, DW_AT_type(*DW$T$27)
   11076                      .dwattr DW$828, DW_AT_location[DW_OP_breg20 -5]
   11077              DW$829  .dwtag  DW_TAG_variable, DW_AT_name("fatherhp"), DW_AT_symbol_name("_fatherhp")
   11078                      .dwattr DW$829, DW_AT_type(*DW$T$54)
   11079                      .dwattr DW$829, DW_AT_location[DW_OP_breg20 -8]
   11080              DW$830  .dwtag  DW_TAG_variable, DW_AT_name("hp"), DW_AT_symbol_name("_hp")
   11081                      .dwattr DW$830, DW_AT_type(*DW$T$54)
   11082                      .dwattr DW$830, DW_AT_location[DW_OP_breg20 -10]
   11083 000011a2 A848          MOVL      *-SP[8],XAR4          ; |10| 
   11084 000011a3 7D45          MOV       *-SP[5],AR5           ; |10| 
   11085 000011a4 9744          MOV       *-SP[4],AH            ; |10| 
   11086 000011a5 9643          MOV       *-SP[3],AL            ; |10| 
   11087                      .dwpsn  "WIDGET\Gui_widget_txtbox.c",12,2
   11088 000011a6 924D          MOV       AL,*-SP[13]           ; |12| 
   11089 000011a7 9641          MOV       *-SP[1],AL            ; |12| 
   11090 000011a8 924E          MOV       AL,*-SP[14]           ; |12| 
   11091 000011a9 9642          MOV       *-SP[2],AL            ; |12| 
   11092 000011aa 5D45          MOVZ      AR5,*-SP[5]           ; |12| 
   11093 000011ab 8A48          MOVL      XAR4,*-SP[8]          ; |12| 
TMS320C2000 COFF Assembler PC v4.1.3 Thu Nov 29 16:03:34 2012

Tools Copyright (c) 1996-2006 Texas Instruments Incorporated
C:\DOCUME~1\ADMINI~1\LOCALS~1\Temp\TI9882                            PAGE  215

   11094 000011ac 9243          MOV       AL,*-SP[3]            ; |12| 
   11095 000011ad 9344          MOV       AH,*-SP[4]            ; |12| 
   11096 000011ae 7640!         LCR       #_GUI_window_child_creat ; |12| 
         000011af 0000 
   11097                      ; call occurs [#_GUI_window_child_creat] ; |12| 
   11098 000011b0 A84A          MOVL      *-SP[10],XAR4         ; |12| 
   11099                      .dwpsn  "WIDGET\Gui_widget_txtbox.c",19,2
   11100 000011b1 8A4A          MOVL      XAR4,*-SP[10]         ; |19| 
   11101 000011b2 D008          MOVB      XAR0,#8               ; |19| 
   11102 000011b3 2894          MOV       *+XAR4[AR0],#7        ; |19| 
         000011b4 0007 
   11103                      .dwpsn  "WIDGET\Gui_widget_txtbox.c",20,2
   11104 000011b5 8A4A          MOVL      XAR4,*-SP[10]         ; |20| 
   11105                      .dwpsn  "WIDGET\Gui_widget_txtbox.c",21,1
   11106 000011b6 FE8A          SUBB      SP,#10                ; |20| 
   11107                      .dwcfa  0x1d, -2
   11108 000011b7 0006          LRETR
   11109                      ; return occurs
   11110                      .dwattr DW$819, DW_AT_end_file("WIDGET\Gui_widget_txtbox.c")
   11111                      .dwattr DW$819, DW_AT_end_line(0x15)
   11112                      .dwattr DW$819, DW_AT_end_column(0x01)
   11113                      .dwendentry
   11114                      .dwendtag DW$819
   11115              
   11116 000011b8               .sect   ".text"
   11117                      .global _GUI_txtbox_print
   11118              
   11119              DW$831  .dwtag  DW_TAG_subprogram, DW_AT_name("GUI_txtbox_print"), DW_AT_symbol_name("_GUI_txtbox_print")
   11120                      .dwattr DW$831, DW_AT_low_pc(_GUI_txtbox_print)
   11121                      .dwattr DW$831, DW_AT_high_pc(0x00)
   11122                      .dwattr DW$831, DW_AT_begin_file("WIDGET\Gui_widget_txtbox.c")
   11123                      .dwattr DW$831, DW_AT_begin_line(0x16)
   11124                      .dwattr DW$831, DW_AT_begin_column(0x06)
   11125                      .dwpsn  "WIDGET\Gui_widget_txtbox.c",23,1
   11126              
   11127                      .dwfde DW$CIE
   11128              
   11129              ;***************************************************************
   11130              ;* FNAME: _GUI_txtbox_print             FR SIZE:   4           *
   11131              ;*                                                             *
   11132              ;* FUNCTION ENVIRONMENT                                        *
   11133              ;*                                                             *
   11134              ;* FUNCTION PROPERTIES                                         *
   11135              ;*                            0 Parameter,  4 Auto,  0 SOE     *
   11136              ;***************************************************************
   11137              
   11138              _GUI_txtbox_print:
   11139                      .dwcfa  0x1d, -2
   11140                      .dwcfa  0x1c, 26, 0
   11141                      .dwcfa  0x09, 40, 26
   11142 000011b8 FE04          ADDB      SP,#4
   11143                      .dwcfa  0x1d, -6
   11144              ;* AR4   assigned to _hp
   11145              DW$832  .dwtag  DW_TAG_formal_parameter, DW_AT_name("hp"), DW_AT_symbol_name("_hp")
   11146                      .dwattr DW$832, DW_AT_type(*DW$T$54)
TMS320C2000 COFF Assembler PC v4.1.3 Thu Nov 29 16:03:34 2012

Tools Copyright (c) 1996-2006 Texas Instruments Incorporated
C:\DOCUME~1\ADMINI~1\LOCALS~1\Temp\TI9882                            PAGE  216

   11147                      .dwattr DW$832, DW_AT_location[DW_OP_reg12]
   11148              ;* AR5   assigned to _pst
   11149              DW$833  .dwtag  DW_TAG_formal_parameter, DW_AT_name("pst"), DW_AT_symbol_name("_pst")
   11150                      .dwattr DW$833, DW_AT_type(*DW$T$52)
   11151                      .dwattr DW$833, DW_AT_location[DW_OP_reg14]
   11152              DW$834  .dwtag  DW_TAG_variable, DW_AT_name("hp"), DW_AT_symbol_name("_hp")
   11153                      .dwattr DW$834, DW_AT_type(*DW$T$54)
   11154                      .dwattr DW$834, DW_AT_location[DW_OP_breg20 -2]
   11155              DW$835  .dwtag  DW_TAG_variable, DW_AT_name("pst"), DW_AT_symbol_name("_pst")
   11156                      .dwattr DW$835, DW_AT_type(*DW$T$52)
   11157                      .dwattr DW$835, DW_AT_location[DW_OP_breg20 -4]
   11158 000011b9 A044          MOVL      *-SP[4],XAR5          ; |23| 
   11159 000011ba A842          MOVL      *-SP[2],XAR4          ; |23| 
   11160                      .dwpsn  "WIDGET\Gui_widget_txtbox.c",24,2
   11161 000011bb 8A42          MOVL      XAR4,*-SP[2]          ; |24| 
   11162 000011bc D008          MOVB      XAR0,#8               ; |24| 
   11163 000011bd 9294          MOV       AL,*+XAR4[AR0]        ; |24| 
   11164 000011be 5207          CMPB      AL,#7                 ; |24| 
   11165 000011bf ED0F          BF        L179,NEQ              ; |24| 
   11166                      ; branchcc occurs ; |24| 
   11167                      .dwpsn  "WIDGET\Gui_widget_txtbox.c",26,3
   11168 000011c0 8A42          MOVL      XAR4,*-SP[2]          ; |26| 
   11169 000011c1 7640!         LCR       #_GUI_window_hwin_req ; |26| 
         000011c2 0000 
   11170                      ; call occurs [#_GUI_window_hwin_req] ; |26| 
   11171                      .dwpsn  "WIDGET\Gui_widget_txtbox.c",27,3
   11172 000011c3 7640!         LCR       #_GUI_clean_window    ; |27| 
         000011c4 0000 
   11173                      ; call occurs [#_GUI_clean_window] ; |27| 
   11174                      .dwpsn  "WIDGET\Gui_widget_txtbox.c",28,3
   11175 000011c5 0200          MOVB      ACC,#0
   11176 000011c6 7640!         LCR       #_GUI_xy_set          ; |28| 
         000011c7 0000 
   11177                      ; call occurs [#_GUI_xy_set] ; |28| 
   11178                      .dwpsn  "WIDGET\Gui_widget_txtbox.c",29,3
   11179 000011c8 8A44          MOVL      XAR4,*-SP[4]          ; |29| 
   11180 000011c9 7640!         LCR       #_GUI_string_display  ; |29| 
         000011ca 0000 
   11181                      ; call occurs [#_GUI_string_display] ; |29| 
   11182                      .dwpsn  "WIDGET\Gui_widget_txtbox.c",30,3
   11183 000011cb 8A42          MOVL      XAR4,*-SP[2]          ; |30| 
   11184 000011cc 7640!         LCR       #_GUI_window_hwin_release ; |30| 
         000011cd 0000 
   11185                      ; call occurs [#_GUI_window_hwin_release] ; |30| 
   11186                      .dwpsn  "WIDGET\Gui_widget_txtbox.c",32,2
   11187              L179:    
   11188                      .dwpsn  "WIDGET\Gui_widget_txtbox.c",33,1
   11189 000011ce FE84          SUBB      SP,#4
   11190                      .dwcfa  0x1d, -2
   11191 000011cf 0006          LRETR
   11192                      ; return occurs
   11193                      .dwattr DW$831, DW_AT_end_file("WIDGET\Gui_widget_txtbox.c")
   11194                      .dwattr DW$831, DW_AT_end_line(0x21)
   11195                      .dwattr DW$831, DW_AT_end_column(0x01)
   11196                      .dwendentry
TMS320C2000 COFF Assembler PC v4.1.3 Thu Nov 29 16:03:34 2012

Tools Copyright (c) 1996-2006 Texas Instruments Incorporated
C:\DOCUME~1\ADMINI~1\LOCALS~1\Temp\TI9882                            PAGE  217

   11197                      .dwendtag DW$831
   11198              
   11199              ;***************************************************************
   11200              ;* FAR STRINGS                                                 *
   11201              ;***************************************************************
   11202 00000032               .sect   ".econst"
   11203                      .align  2
   11204 00000032 002E  FSL1:   .string ".",0
         00000033 0000 
   11205                      .align  2
   11206 00000034 0047  FSL2:   .string "GUI--CSR task",0
         00000035 0055 
         00000036 0049 
         00000037 002D 
         00000038 002D 
         00000039 0043 
         0000003a 0053 
         0000003b 0052 
         0000003c 0020 
         0000003d 0074 
         0000003e 0061 
         0000003f 0073 
         00000040 006B 
         00000041 0000 
   11207              ;***************************************************************
   11208              ;* UNDEFINED EXTERNAL REFERENCES                               *
   11209              ;***************************************************************
   11210                      .global _lcd_driver_fill_rectangle
   11211                      .global _GUI_edit_start_hook
   11212                      .global _GUI_free
   11213                      .global _GUI_edit_end_hook
   11214                      .global _GUI_cursor_reload
   11215                      .global _GUI_write_block
   11216                      .global _GUI_widget_sink_3D_paint
   11217                      .global _os_unlock
   11218                      .global _GUI_read_block
   11219                      .global _GUI_window_draw_dot
   11220                      .global _global_memset
   11221                      .global _GUI_widget_3D_paint
   11222                      .global _GUI_fill_Rect_At
   11223                      .global _os_lock
   11224                      .global _OSTimeDly
   11225                      .global _GUI_draw_Rect
   11226                      .global _GUI_set_Fgcolor
   11227                      .global _GUI_draw_line
   11228                      .global _GUI_print_string
   11229                      .global _GUI_fill_Rect
   11230                      .global _GUI_print_string_ext
   11231                      .global _GUI_SetFront
   11232                      .global _GUI_set_Bgcolor
   11233                      .global _GUI_clean_window
   11234                      .global _GUI_string_display_At
   11235                      .global _app_free
   11236                      .global _GUI_fill_window_area
   11237                      .global _GUI_window_draw_Rect
TMS320C2000 COFF Assembler PC v4.1.3 Thu Nov 29 16:03:34 2012

Tools Copyright (c) 1996-2006 Texas Instruments Incorporated
C:\DOCUME~1\ADMINI~1\LOCALS~1\Temp\TI9882                            PAGE  218

   11238                      .global _GUI_cursor_shift
   11239                      .global _GUI_x_shift
   11240                      .global _GUI_string_display
   11241                      .global _GUI_xy_set
   11242                      .global _GUI_window_hwin_req
   11243                      .global _GUI_window_hwin_release
   11244                      .global _GUI_window_destory
   11245                      .global _GUI_fillcircle
   11246                      .global _GUI_drawcircle
   11247                      .global _app_global_key_dummy_press
   11248                      .global _GUI_cursor_stop
   11249                      .global _GUI_window_line_display
   11250                      .global _m_GUI_CHhigh
   11251                      .global _m_GUI_CHwide
   11252                      .global _m_Bcolor
   11253                      .global _m_Fcolor
   11254                      .global _os_sem_creat
   11255                      .global _os_lock_creat
   11256                      .global _os_task_assign_stk_build
   11257                      .global _os_sem_pend
   11258                      .global _OSTaskDelReq
   11259                      .global _global_ftoa
   11260                      .global _global_ltoa
   11261                      .global _GUI_cursor_state_obtain
   11262                      .global _GUI_drop_msg_obtain_hook
   11263                      .global _os_task_name_set
   11264                      .global _global_strlen
   11265                      .global _os_task_delete
   11266                      .global _global_strcat
   11267                      .global _OSSemPost
   11268                      .global _GUI_malloc
   11269                      .global _global_strcpy
   11270                      .global _global_string_locate_first
   11271                      .global _GUI_cursor_start
   11272                      .global _app_malloc
   11273                      .global _GUI_strcpy
   11274                      .global _OSTimeGet
   11275                      .global _GUI_GetFront
   11276                      .global _m_hwin_list_head
   11277                      .global _m_hwin_list_end
   11278                      .global _GUI_window_child_creat
   11279                      .global _m_cur_hwin
   11280                      .global _strlen
   11281                      .global _GUI_window_creat
   11282                      .global _GUI_F8X16_EXTASCII
   11283                      .global I$$MOD
   11284                      .global FS$$CMP
   11285                      .global FS$$NEG
   11286              
   11287              ;***************************************************************
   11288              ;* TYPE INFORMATION                                            *
   11289              ;***************************************************************
   11290              DW$T$3  .dwtag  DW_TAG_pointer_type
   11291                      .dwattr DW$T$3, DW_AT_address_class(0x16)
   11292              
TMS320C2000 COFF Assembler PC v4.1.3 Thu Nov 29 16:03:34 2012

Tools Copyright (c) 1996-2006 Texas Instruments Incorporated
C:\DOCUME~1\ADMINI~1\LOCALS~1\Temp\TI9882                            PAGE  219

   11293              DW$T$60 .dwtag  DW_TAG_subroutine_type, DW_AT_type(*DW$T$3)
   11294                      .dwattr DW$T$60, DW_AT_language(DW_LANG_C)
   11295              DW$836  .dwtag  DW_TAG_formal_parameter, DW_AT_type(*DW$T$13)
   11296                      .dwendtag DW$T$60
   11297              
   11298              
   11299              DW$T$43 .dwtag  DW_TAG_subroutine_type
   11300                      .dwattr DW$T$43, DW_AT_language(DW_LANG_C)
   11301              DW$837  .dwtag  DW_TAG_formal_parameter, DW_AT_type(*DW$T$3)
   11302                      .dwendtag DW$T$43
   11303              
   11304              DW$T$44 .dwtag  DW_TAG_pointer_type, DW_AT_type(*DW$T$43)
   11305                      .dwattr DW$T$44, DW_AT_address_class(0x16)
   11306              
   11307              DW$T$55 .dwtag  DW_TAG_subroutine_type
   11308                      .dwattr DW$T$55, DW_AT_language(DW_LANG_C)
   11309              DW$838  .dwtag  DW_TAG_formal_parameter, DW_AT_type(*DW$T$54)
   11310                      .dwendtag DW$T$55
   11311              
   11312              
   11313              DW$T$62 .dwtag  DW_TAG_subroutine_type
   11314                      .dwattr DW$T$62, DW_AT_language(DW_LANG_C)
   11315              DW$839  .dwtag  DW_TAG_formal_parameter, DW_AT_type(*DW$T$30)
   11316                      .dwendtag DW$T$62
   11317              
   11318              
   11319              DW$T$64 .dwtag  DW_TAG_subroutine_type
   11320                      .dwattr DW$T$64, DW_AT_language(DW_LANG_C)
   11321              DW$840  .dwtag  DW_TAG_formal_parameter, DW_AT_type(*DW$T$11)
   11322                      .dwendtag DW$T$64
   11323              
   11324              
   11325              DW$T$66 .dwtag  DW_TAG_subroutine_type
   11326                      .dwattr DW$T$66, DW_AT_language(DW_LANG_C)
   11327              DW$841  .dwtag  DW_TAG_formal_parameter, DW_AT_type(*DW$T$11)
   11328              DW$842  .dwtag  DW_TAG_formal_parameter, DW_AT_type(*DW$T$11)
   11329              DW$843  .dwtag  DW_TAG_formal_parameter, DW_AT_type(*DW$T$11)
   11330              DW$844  .dwtag  DW_TAG_formal_parameter, DW_AT_type(*DW$T$11)
   11331                      .dwendtag DW$T$66
   11332              
   11333              
   11334              DW$T$68 .dwtag  DW_TAG_subroutine_type
   11335                      .dwattr DW$T$68, DW_AT_language(DW_LANG_C)
   11336              DW$845  .dwtag  DW_TAG_formal_parameter, DW_AT_type(*DW$T$11)
   11337              DW$846  .dwtag  DW_TAG_formal_parameter, DW_AT_type(*DW$T$11)
   11338              DW$847  .dwtag  DW_TAG_formal_parameter, DW_AT_type(*DW$T$27)
   11339              DW$848  .dwtag  DW_TAG_formal_parameter, DW_AT_type(*DW$T$27)
   11340                      .dwendtag DW$T$68
   11341              
   11342              
   11343              DW$T$70 .dwtag  DW_TAG_subroutine_type
   11344                      .dwattr DW$T$70, DW_AT_language(DW_LANG_C)
   11345              DW$849  .dwtag  DW_TAG_formal_parameter, DW_AT_type(*DW$T$11)
   11346              DW$850  .dwtag  DW_TAG_formal_parameter, DW_AT_type(*DW$T$11)
   11347                      .dwendtag DW$T$70
TMS320C2000 COFF Assembler PC v4.1.3 Thu Nov 29 16:03:34 2012

Tools Copyright (c) 1996-2006 Texas Instruments Incorporated
C:\DOCUME~1\ADMINI~1\LOCALS~1\Temp\TI9882                            PAGE  220

   11348              
   11349              
   11350              DW$T$72 .dwtag  DW_TAG_subroutine_type
   11351                      .dwattr DW$T$72, DW_AT_language(DW_LANG_C)
   11352              DW$851  .dwtag  DW_TAG_formal_parameter, DW_AT_type(*DW$T$10)
   11353                      .dwendtag DW$T$72
   11354              
   11355              
   11356              DW$T$74 .dwtag  DW_TAG_subroutine_type
   11357                      .dwattr DW$T$74, DW_AT_language(DW_LANG_C)
   11358              DW$852  .dwtag  DW_TAG_formal_parameter, DW_AT_type(*DW$T$52)
   11359                      .dwendtag DW$T$74
   11360              
   11361              
   11362              DW$T$76 .dwtag  DW_TAG_subroutine_type
   11363                      .dwattr DW$T$76, DW_AT_language(DW_LANG_C)
   11364              DW$853  .dwtag  DW_TAG_formal_parameter, DW_AT_type(*DW$T$11)
   11365              DW$854  .dwtag  DW_TAG_formal_parameter, DW_AT_type(*DW$T$11)
   11366              DW$855  .dwtag  DW_TAG_formal_parameter, DW_AT_type(*DW$T$52)
   11367                      .dwendtag DW$T$76
   11368              
   11369              
   11370              DW$T$78 .dwtag  DW_TAG_subroutine_type
   11371                      .dwattr DW$T$78, DW_AT_language(DW_LANG_C)
   11372              
   11373              DW$T$80 .dwtag  DW_TAG_subroutine_type
   11374                      .dwattr DW$T$80, DW_AT_language(DW_LANG_C)
   11375              DW$856  .dwtag  DW_TAG_formal_parameter, DW_AT_type(*DW$T$11)
   11376              DW$857  .dwtag  DW_TAG_formal_parameter, DW_AT_type(*DW$T$11)
   11377              DW$858  .dwtag  DW_TAG_formal_parameter, DW_AT_type(*DW$T$11)
   11378                      .dwendtag DW$T$80
   11379              
   11380              
   11381              DW$T$82 .dwtag  DW_TAG_subroutine_type
   11382                      .dwattr DW$T$82, DW_AT_language(DW_LANG_C)
   11383              DW$859  .dwtag  DW_TAG_formal_parameter, DW_AT_type(*DW$T$10)
   11384              DW$860  .dwtag  DW_TAG_formal_parameter, DW_AT_type(*DW$T$10)
   11385              DW$861  .dwtag  DW_TAG_formal_parameter, DW_AT_type(*DW$T$10)
   11386              DW$862  .dwtag  DW_TAG_formal_parameter, DW_AT_type(*DW$T$10)
   11387              DW$863  .dwtag  DW_TAG_formal_parameter, DW_AT_type(*DW$T$3)
   11388              DW$864  .dwtag  DW_TAG_formal_parameter, DW_AT_type(*DW$T$19)
   11389                      .dwendtag DW$T$82
   11390              
   11391              
   11392              DW$T$84 .dwtag  DW_TAG_subroutine_type
   11393                      .dwattr DW$T$84, DW_AT_language(DW_LANG_C)
   11394              DW$865  .dwtag  DW_TAG_formal_parameter, DW_AT_type(*DW$T$10)
   11395              DW$866  .dwtag  DW_TAG_formal_parameter, DW_AT_type(*DW$T$10)
   11396              DW$867  .dwtag  DW_TAG_formal_parameter, DW_AT_type(*DW$T$10)
   11397              DW$868  .dwtag  DW_TAG_formal_parameter, DW_AT_type(*DW$T$10)
   11398              DW$869  .dwtag  DW_TAG_formal_parameter, DW_AT_type(*DW$T$3)
   11399                      .dwendtag DW$T$84
   11400              
   11401              
   11402              DW$T$86 .dwtag  DW_TAG_subroutine_type
TMS320C2000 COFF Assembler PC v4.1.3 Thu Nov 29 16:03:34 2012

Tools Copyright (c) 1996-2006 Texas Instruments Incorporated
C:\DOCUME~1\ADMINI~1\LOCALS~1\Temp\TI9882                            PAGE  221

   11403                      .dwattr DW$T$86, DW_AT_language(DW_LANG_C)
   11404              DW$870  .dwtag  DW_TAG_formal_parameter, DW_AT_type(*DW$T$11)
   11405              DW$871  .dwtag  DW_TAG_formal_parameter, DW_AT_type(*DW$T$11)
   11406              DW$872  .dwtag  DW_TAG_formal_parameter, DW_AT_type(*DW$T$11)
   11407              DW$873  .dwtag  DW_TAG_formal_parameter, DW_AT_type(*DW$T$11)
   11408              DW$874  .dwtag  DW_TAG_formal_parameter, DW_AT_type(*DW$T$52)
   11409                      .dwendtag DW$T$86
   11410              
   11411              
   11412              DW$T$88 .dwtag  DW_TAG_subroutine_type
   11413                      .dwattr DW$T$88, DW_AT_language(DW_LANG_C)
   11414              DW$875  .dwtag  DW_TAG_formal_parameter, DW_AT_type(*DW$T$11)
   11415              DW$876  .dwtag  DW_TAG_formal_parameter, DW_AT_type(*DW$T$11)
   11416              DW$877  .dwtag  DW_TAG_formal_parameter, DW_AT_type(*DW$T$11)
   11417              DW$878  .dwtag  DW_TAG_formal_parameter, DW_AT_type(*DW$T$11)
   11418              DW$879  .dwtag  DW_TAG_formal_parameter, DW_AT_type(*DW$T$11)
   11419              DW$880  .dwtag  DW_TAG_formal_parameter, DW_AT_type(*DW$T$11)
   11420              DW$881  .dwtag  DW_TAG_formal_parameter, DW_AT_type(*DW$T$3)
   11421                      .dwendtag DW$T$88
   11422              
   11423              
   11424              DW$T$90 .dwtag  DW_TAG_subroutine_type
   11425                      .dwattr DW$T$90, DW_AT_language(DW_LANG_C)
   11426              DW$882  .dwtag  DW_TAG_formal_parameter, DW_AT_type(*DW$T$40)
   11427                      .dwendtag DW$T$90
   11428              
   11429              
   11430              DW$T$95 .dwtag  DW_TAG_subroutine_type
   11431                      .dwattr DW$T$95, DW_AT_language(DW_LANG_C)
   11432              DW$883  .dwtag  DW_TAG_formal_parameter, DW_AT_type(*DW$T$94)
   11433                      .dwendtag DW$T$95
   11434              
   11435              
   11436              DW$T$97 .dwtag  DW_TAG_subroutine_type
   11437                      .dwattr DW$T$97, DW_AT_language(DW_LANG_C)
   11438              DW$884  .dwtag  DW_TAG_formal_parameter, DW_AT_type(*DW$T$3)
   11439              DW$885  .dwtag  DW_TAG_formal_parameter, DW_AT_type(*DW$T$6)
   11440              DW$886  .dwtag  DW_TAG_formal_parameter, DW_AT_type(*DW$T$27)
   11441                      .dwendtag DW$T$97
   11442              
   11443              
   11444              DW$T$99 .dwtag  DW_TAG_subroutine_type
   11445                      .dwattr DW$T$99, DW_AT_language(DW_LANG_C)
   11446              DW$887  .dwtag  DW_TAG_formal_parameter, DW_AT_type(*DW$T$6)
   11447                      .dwendtag DW$T$99
   11448              
   11449              
   11450              DW$T$103        .dwtag  DW_TAG_subroutine_type
   11451                      .dwattr DW$T$103, DW_AT_language(DW_LANG_C)
   11452              DW$888  .dwtag  DW_TAG_formal_parameter, DW_AT_type(*DW$T$102)
   11453                      .dwendtag DW$T$103
   11454              
   11455              
   11456              DW$T$105        .dwtag  DW_TAG_subroutine_type
   11457                      .dwattr DW$T$105, DW_AT_language(DW_LANG_C)
TMS320C2000 COFF Assembler PC v4.1.3 Thu Nov 29 16:03:34 2012

Tools Copyright (c) 1996-2006 Texas Instruments Incorporated
C:\DOCUME~1\ADMINI~1\LOCALS~1\Temp\TI9882                            PAGE  222

   11458              DW$889  .dwtag  DW_TAG_formal_parameter, DW_AT_type(*DW$T$102)
   11459              DW$890  .dwtag  DW_TAG_formal_parameter, DW_AT_type(*DW$T$10)
   11460              DW$891  .dwtag  DW_TAG_formal_parameter, DW_AT_type(*DW$T$10)
   11461                      .dwendtag DW$T$105
   11462              
   11463              
   11464              DW$T$107        .dwtag  DW_TAG_subroutine_type
   11465                      .dwattr DW$T$107, DW_AT_language(DW_LANG_C)
   11466              DW$892  .dwtag  DW_TAG_formal_parameter, DW_AT_type(*DW$T$11)
   11467              DW$893  .dwtag  DW_TAG_formal_parameter, DW_AT_type(*DW$T$11)
   11468              DW$894  .dwtag  DW_TAG_formal_parameter, DW_AT_type(*DW$T$11)
   11469              DW$895  .dwtag  DW_TAG_formal_parameter, DW_AT_type(*DW$T$11)
   11470              DW$896  .dwtag  DW_TAG_formal_parameter, DW_AT_type(*DW$T$6)
   11471                      .dwendtag DW$T$107
   11472              
   11473              
   11474              DW$T$109        .dwtag  DW_TAG_subroutine_type
   11475                      .dwattr DW$T$109, DW_AT_language(DW_LANG_C)
   11476              DW$897  .dwtag  DW_TAG_formal_parameter, DW_AT_type(*DW$T$54)
   11477              DW$898  .dwtag  DW_TAG_formal_parameter, DW_AT_type(*DW$T$52)
   11478                      .dwendtag DW$T$109
   11479              
   11480              
   11481              DW$T$110        .dwtag  DW_TAG_subroutine_type
   11482                      .dwattr DW$T$110, DW_AT_language(DW_LANG_C)
   11483              DW$899  .dwtag  DW_TAG_formal_parameter, DW_AT_type(*DW$T$54)
   11484              DW$900  .dwtag  DW_TAG_formal_parameter, DW_AT_type(*DW$T$11)
   11485                      .dwendtag DW$T$110
   11486              
   11487              
   11488              DW$T$112        .dwtag  DW_TAG_subroutine_type
   11489                      .dwattr DW$T$112, DW_AT_language(DW_LANG_C)
   11490              DW$901  .dwtag  DW_TAG_formal_parameter, DW_AT_type(*DW$T$11)
   11491              DW$902  .dwtag  DW_TAG_formal_parameter, DW_AT_type(*DW$T$11)
   11492              DW$903  .dwtag  DW_TAG_formal_parameter, DW_AT_type(*DW$T$52)
   11493              DW$904  .dwtag  DW_TAG_formal_parameter, DW_AT_type(*DW$T$6)
   11494                      .dwendtag DW$T$112
   11495              
   11496              
   11497              DW$T$114        .dwtag  DW_TAG_subroutine_type
   11498                      .dwattr DW$T$114, DW_AT_language(DW_LANG_C)
   11499              DW$905  .dwtag  DW_TAG_formal_parameter, DW_AT_type(*DW$T$54)
   11500              DW$906  .dwtag  DW_TAG_formal_parameter, DW_AT_type(*DW$T$21)
   11501              DW$907  .dwtag  DW_TAG_formal_parameter, DW_AT_type(*DW$T$11)
   11502              DW$908  .dwtag  DW_TAG_formal_parameter, DW_AT_type(*DW$T$11)
   11503                      .dwendtag DW$T$114
   11504              
   11505              
   11506              DW$T$116        .dwtag  DW_TAG_subroutine_type
   11507                      .dwattr DW$T$116, DW_AT_language(DW_LANG_C)
   11508              DW$909  .dwtag  DW_TAG_formal_parameter, DW_AT_type(*DW$T$54)
   11509              DW$910  .dwtag  DW_TAG_formal_parameter, DW_AT_type(*DW$T$11)
   11510              DW$911  .dwtag  DW_TAG_formal_parameter, DW_AT_type(*DW$T$11)
   11511                      .dwendtag DW$T$116
   11512              
TMS320C2000 COFF Assembler PC v4.1.3 Thu Nov 29 16:03:34 2012

Tools Copyright (c) 1996-2006 Texas Instruments Incorporated
C:\DOCUME~1\ADMINI~1\LOCALS~1\Temp\TI9882                            PAGE  223

   11513              
   11514              DW$T$117        .dwtag  DW_TAG_subroutine_type
   11515                      .dwattr DW$T$117, DW_AT_language(DW_LANG_C)
   11516              DW$912  .dwtag  DW_TAG_formal_parameter, DW_AT_type(*DW$T$54)
   11517              DW$913  .dwtag  DW_TAG_formal_parameter, DW_AT_type(*DW$T$44)
   11518                      .dwendtag DW$T$117
   11519              
   11520              
   11521              DW$T$118        .dwtag  DW_TAG_subroutine_type
   11522                      .dwattr DW$T$118, DW_AT_language(DW_LANG_C)
   11523              DW$914  .dwtag  DW_TAG_formal_parameter, DW_AT_type(*DW$T$54)
   11524              DW$915  .dwtag  DW_TAG_formal_parameter, DW_AT_type(*DW$T$37)
   11525                      .dwendtag DW$T$118
   11526              
   11527              
   11528              DW$T$119        .dwtag  DW_TAG_subroutine_type
   11529                      .dwattr DW$T$119, DW_AT_language(DW_LANG_C)
   11530              DW$916  .dwtag  DW_TAG_formal_parameter, DW_AT_type(*DW$T$54)
   11531              DW$917  .dwtag  DW_TAG_formal_parameter, DW_AT_type(*DW$T$11)
   11532              DW$918  .dwtag  DW_TAG_formal_parameter, DW_AT_type(*DW$T$11)
   11533              DW$919  .dwtag  DW_TAG_formal_parameter, DW_AT_type(*DW$T$11)
   11534              DW$920  .dwtag  DW_TAG_formal_parameter, DW_AT_type(*DW$T$11)
   11535                      .dwendtag DW$T$119
   11536              
   11537              
   11538              DW$T$121        .dwtag  DW_TAG_subroutine_type
   11539                      .dwattr DW$T$121, DW_AT_language(DW_LANG_C)
   11540              DW$921  .dwtag  DW_TAG_formal_parameter, DW_AT_type(*DW$T$54)
   11541              DW$922  .dwtag  DW_TAG_formal_parameter, DW_AT_type(*DW$T$27)
   11542                      .dwendtag DW$T$121
   11543              
   11544              
   11545              DW$T$123        .dwtag  DW_TAG_subroutine_type
   11546                      .dwattr DW$T$123, DW_AT_language(DW_LANG_C)
   11547              DW$923  .dwtag  DW_TAG_formal_parameter, DW_AT_type(*DW$T$11)
   11548              DW$924  .dwtag  DW_TAG_formal_parameter, DW_AT_type(*DW$T$11)
   11549              DW$925  .dwtag  DW_TAG_formal_parameter, DW_AT_type(*DW$T$27)
   11550              DW$926  .dwtag  DW_TAG_formal_parameter, DW_AT_type(*DW$T$52)
   11551              DW$927  .dwtag  DW_TAG_formal_parameter, DW_AT_type(*DW$T$27)
   11552                      .dwendtag DW$T$123
   11553              
   11554              
   11555              DW$T$124        .dwtag  DW_TAG_subroutine_type
   11556                      .dwattr DW$T$124, DW_AT_language(DW_LANG_C)
   11557              DW$928  .dwtag  DW_TAG_formal_parameter, DW_AT_type(*DW$T$52)
   11558              DW$929  .dwtag  DW_TAG_formal_parameter, DW_AT_type(*DW$T$27)
   11559                      .dwendtag DW$T$124
   11560              
   11561              
   11562              DW$T$125        .dwtag  DW_TAG_subroutine_type
   11563                      .dwattr DW$T$125, DW_AT_language(DW_LANG_C)
   11564              DW$930  .dwtag  DW_TAG_formal_parameter, DW_AT_type(*DW$T$52)
   11565              DW$931  .dwtag  DW_TAG_formal_parameter, DW_AT_type(*DW$T$27)
   11566              DW$932  .dwtag  DW_TAG_formal_parameter, DW_AT_type(*DW$T$11)
   11567                      .dwendtag DW$T$125
TMS320C2000 COFF Assembler PC v4.1.3 Thu Nov 29 16:03:34 2012

Tools Copyright (c) 1996-2006 Texas Instruments Incorporated
C:\DOCUME~1\ADMINI~1\LOCALS~1\Temp\TI9882                            PAGE  224

   11568              
   11569              
   11570              DW$T$126        .dwtag  DW_TAG_subroutine_type
   11571                      .dwattr DW$T$126, DW_AT_language(DW_LANG_C)
   11572              DW$933  .dwtag  DW_TAG_formal_parameter, DW_AT_type(*DW$T$12)
   11573              DW$934  .dwtag  DW_TAG_formal_parameter, DW_AT_type(*DW$T$27)
   11574                      .dwendtag DW$T$126
   11575              
   11576              
   11577              DW$T$127        .dwtag  DW_TAG_subroutine_type
   11578                      .dwattr DW$T$127, DW_AT_language(DW_LANG_C)
   11579              DW$935  .dwtag  DW_TAG_formal_parameter, DW_AT_type(*DW$T$16)
   11580              DW$936  .dwtag  DW_TAG_formal_parameter, DW_AT_type(*DW$T$27)
   11581              DW$937  .dwtag  DW_TAG_formal_parameter, DW_AT_type(*DW$T$27)
   11582                      .dwendtag DW$T$127
   11583              
   11584              
   11585              DW$T$128        .dwtag  DW_TAG_subroutine_type
   11586                      .dwattr DW$T$128, DW_AT_language(DW_LANG_C)
   11587              DW$938  .dwtag  DW_TAG_formal_parameter, DW_AT_type(*DW$T$27)
   11588                      .dwendtag DW$T$128
   11589              
   11590              
   11591              DW$T$129        .dwtag  DW_TAG_subroutine_type
   11592                      .dwattr DW$T$129, DW_AT_language(DW_LANG_C)
   11593              DW$939  .dwtag  DW_TAG_formal_parameter, DW_AT_type(*DW$T$10)
   11594              DW$940  .dwtag  DW_TAG_formal_parameter, DW_AT_type(*DW$T$10)
   11595              DW$941  .dwtag  DW_TAG_formal_parameter, DW_AT_type(*DW$T$27)
   11596              DW$942  .dwtag  DW_TAG_formal_parameter, DW_AT_type(*DW$T$27)
   11597                      .dwendtag DW$T$129
   11598              
   11599              
   11600              DW$T$131        .dwtag  DW_TAG_subroutine_type
   11601                      .dwattr DW$T$131, DW_AT_language(DW_LANG_C)
   11602              DW$943  .dwtag  DW_TAG_formal_parameter, DW_AT_type(*DW$T$11)
   11603              DW$944  .dwtag  DW_TAG_formal_parameter, DW_AT_type(*DW$T$11)
   11604              DW$945  .dwtag  DW_TAG_formal_parameter, DW_AT_type(*DW$T$52)
   11605              DW$946  .dwtag  DW_TAG_formal_parameter, DW_AT_type(*DW$T$27)
   11606                      .dwendtag DW$T$131
   11607              
   11608              DW$T$6  .dwtag  DW_TAG_base_type, DW_AT_name("unsigned char")
   11609                      .dwattr DW$T$6, DW_AT_encoding(DW_ATE_unsigned_char)
   11610                      .dwattr DW$T$6, DW_AT_byte_size(0x01)
   11611              DW$T$37 .dwtag  DW_TAG_typedef, DW_AT_name("BOOL"), DW_AT_type(*DW$T$6)
   11612                      .dwattr DW$T$37, DW_AT_language(DW_LANG_C)
   11613              
   11614              DW$T$132        .dwtag  DW_TAG_subroutine_type, DW_AT_type(*DW$T$37)
   11615                      .dwattr DW$T$132, DW_AT_language(DW_LANG_C)
   11616              DW$947  .dwtag  DW_TAG_formal_parameter, DW_AT_type(*DW$T$102)
   11617                      .dwendtag DW$T$132
   11618              
   11619              
   11620              DW$T$135        .dwtag  DW_TAG_subroutine_type, DW_AT_type(*DW$T$37)
   11621                      .dwattr DW$T$135, DW_AT_language(DW_LANG_C)
   11622              DW$948  .dwtag  DW_TAG_formal_parameter, DW_AT_type(*DW$T$134)
TMS320C2000 COFF Assembler PC v4.1.3 Thu Nov 29 16:03:34 2012

Tools Copyright (c) 1996-2006 Texas Instruments Incorporated
C:\DOCUME~1\ADMINI~1\LOCALS~1\Temp\TI9882                            PAGE  225

   11623                      .dwendtag DW$T$135
   11624              
   11625              
   11626              DW$T$137        .dwtag  DW_TAG_subroutine_type, DW_AT_type(*DW$T$37)
   11627                      .dwattr DW$T$137, DW_AT_language(DW_LANG_C)
   11628              DW$949  .dwtag  DW_TAG_formal_parameter, DW_AT_type(*DW$T$54)
   11629              DW$950  .dwtag  DW_TAG_formal_parameter, DW_AT_type(*DW$T$52)
   11630                      .dwendtag DW$T$137
   11631              
   11632              
   11633              DW$T$139        .dwtag  DW_TAG_subroutine_type, DW_AT_type(*DW$T$37)
   11634                      .dwattr DW$T$139, DW_AT_language(DW_LANG_C)
   11635              DW$951  .dwtag  DW_TAG_formal_parameter, DW_AT_type(*DW$T$54)
   11636              DW$952  .dwtag  DW_TAG_formal_parameter, DW_AT_type(*DW$T$27)
   11637                      .dwendtag DW$T$139
   11638              
   11639              
   11640              DW$T$140        .dwtag  DW_TAG_subroutine_type, DW_AT_type(*DW$T$37)
   11641                      .dwattr DW$T$140, DW_AT_language(DW_LANG_C)
   11642              DW$953  .dwtag  DW_TAG_formal_parameter, DW_AT_type(*DW$T$54)
   11643                      .dwendtag DW$T$140
   11644              
   11645              
   11646              DW$T$141        .dwtag  DW_TAG_subroutine_type, DW_AT_type(*DW$T$37)
   11647                      .dwattr DW$T$141, DW_AT_language(DW_LANG_C)
   11648              
   11649              DW$T$143        .dwtag  DW_TAG_subroutine_type, DW_AT_type(*DW$T$37)
   11650                      .dwattr DW$T$143, DW_AT_language(DW_LANG_C)
   11651              DW$954  .dwtag  DW_TAG_formal_parameter, DW_AT_type(*DW$T$27)
   11652                      .dwendtag DW$T$143
   11653              
   11654              
   11655              DW$T$147        .dwtag  DW_TAG_subroutine_type, DW_AT_type(*DW$T$37)
   11656                      .dwattr DW$T$147, DW_AT_language(DW_LANG_C)
   11657              DW$955  .dwtag  DW_TAG_formal_parameter, DW_AT_type(*DW$T$35)
   11658              DW$956  .dwtag  DW_TAG_formal_parameter, DW_AT_type(*DW$T$146)
   11659              DW$957  .dwtag  DW_TAG_formal_parameter, DW_AT_type(*DW$T$54)
   11660                      .dwendtag DW$T$147
   11661              
   11662              
   11663              DW$T$149        .dwtag  DW_TAG_subroutine_type, DW_AT_type(*DW$T$37)
   11664                      .dwattr DW$T$149, DW_AT_language(DW_LANG_C)
   11665              DW$958  .dwtag  DW_TAG_formal_parameter, DW_AT_type(*DW$T$54)
   11666              DW$959  .dwtag  DW_TAG_formal_parameter, DW_AT_type(*DW$T$146)
   11667                      .dwendtag DW$T$149
   11668              
   11669              DW$T$39 .dwtag  DW_TAG_typedef, DW_AT_name("INT8U"), DW_AT_type(*DW$T$6)
   11670                      .dwattr DW$T$39, DW_AT_language(DW_LANG_C)
   11671              
   11672              DW$T$151        .dwtag  DW_TAG_subroutine_type, DW_AT_type(*DW$T$39)
   11673                      .dwattr DW$T$151, DW_AT_language(DW_LANG_C)
   11674              DW$960  .dwtag  DW_TAG_formal_parameter, DW_AT_type(*DW$T$150)
   11675                      .dwendtag DW$T$151
   11676              
   11677              
TMS320C2000 COFF Assembler PC v4.1.3 Thu Nov 29 16:03:34 2012

Tools Copyright (c) 1996-2006 Texas Instruments Incorporated
C:\DOCUME~1\ADMINI~1\LOCALS~1\Temp\TI9882                            PAGE  226

   11678              DW$T$153        .dwtag  DW_TAG_subroutine_type, DW_AT_type(*DW$T$39)
   11679                      .dwattr DW$T$153, DW_AT_language(DW_LANG_C)
   11680              DW$961  .dwtag  DW_TAG_formal_parameter, DW_AT_type(*DW$T$39)
   11681                      .dwendtag DW$T$153
   11682              
   11683              
   11684              DW$T$156        .dwtag  DW_TAG_subroutine_type, DW_AT_type(*DW$T$6)
   11685                      .dwattr DW$T$156, DW_AT_language(DW_LANG_C)
   11686              DW$962  .dwtag  DW_TAG_formal_parameter, DW_AT_type(*DW$T$155)
   11687                      .dwendtag DW$T$156
   11688              
   11689              
   11690              DW$T$161        .dwtag  DW_TAG_subroutine_type, DW_AT_type(*DW$T$6)
   11691                      .dwattr DW$T$161, DW_AT_language(DW_LANG_C)
   11692              DW$963  .dwtag  DW_TAG_formal_parameter, DW_AT_type(*DW$T$160)
   11693              DW$964  .dwtag  DW_TAG_formal_parameter, DW_AT_type(*DW$T$11)
   11694                      .dwendtag DW$T$161
   11695              
   11696              
   11697              DW$T$163        .dwtag  DW_TAG_subroutine_type, DW_AT_type(*DW$T$6)
   11698                      .dwattr DW$T$163, DW_AT_language(DW_LANG_C)
   11699              DW$965  .dwtag  DW_TAG_formal_parameter, DW_AT_type(*DW$T$159)
   11700              DW$966  .dwtag  DW_TAG_formal_parameter, DW_AT_type(*DW$T$11)
   11701                      .dwendtag DW$T$163
   11702              
   11703              
   11704              DW$T$165        .dwtag  DW_TAG_subroutine_type, DW_AT_type(*DW$T$6)
   11705                      .dwattr DW$T$165, DW_AT_language(DW_LANG_C)
   11706              DW$967  .dwtag  DW_TAG_formal_parameter, DW_AT_type(*DW$T$44)
   11707              DW$968  .dwtag  DW_TAG_formal_parameter, DW_AT_type(*DW$T$27)
   11708                      .dwendtag DW$T$165
   11709              
   11710              
   11711              DW$T$167        .dwtag  DW_TAG_subroutine_type, DW_AT_type(*DW$T$6)
   11712                      .dwattr DW$T$167, DW_AT_language(DW_LANG_C)
   11713              DW$969  .dwtag  DW_TAG_formal_parameter, DW_AT_type(*DW$T$6)
   11714              DW$970  .dwtag  DW_TAG_formal_parameter, DW_AT_type(*DW$T$52)
   11715                      .dwendtag DW$T$167
   11716              
   11717              
   11718              DW$T$169        .dwtag  DW_TAG_subroutine_type, DW_AT_type(*DW$T$6)
   11719                      .dwattr DW$T$169, DW_AT_language(DW_LANG_C)
   11720              DW$971  .dwtag  DW_TAG_formal_parameter, DW_AT_type(*DW$T$6)
   11721                      .dwendtag DW$T$169
   11722              
   11723              DW$T$172        .dwtag  DW_TAG_pointer_type, DW_AT_type(*DW$T$171)
   11724                      .dwattr DW$T$172, DW_AT_address_class(0x16)
   11725              
   11726              DW$T$173        .dwtag  DW_TAG_subroutine_type, DW_AT_type(*DW$T$6)
   11727                      .dwattr DW$T$173, DW_AT_language(DW_LANG_C)
   11728              DW$972  .dwtag  DW_TAG_formal_parameter, DW_AT_type(*DW$T$54)
   11729              DW$973  .dwtag  DW_TAG_formal_parameter, DW_AT_type(*DW$T$172)
   11730                      .dwendtag DW$T$173
   11731              
   11732              DW$T$10 .dwtag  DW_TAG_base_type, DW_AT_name("int")
TMS320C2000 COFF Assembler PC v4.1.3 Thu Nov 29 16:03:34 2012

Tools Copyright (c) 1996-2006 Texas Instruments Incorporated
C:\DOCUME~1\ADMINI~1\LOCALS~1\Temp\TI9882                            PAGE  227

   11733                      .dwattr DW$T$10, DW_AT_encoding(DW_ATE_signed)
   11734                      .dwattr DW$T$10, DW_AT_byte_size(0x01)
   11735              
   11736              DW$T$174        .dwtag  DW_TAG_subroutine_type, DW_AT_type(*DW$T$10)
   11737                      .dwattr DW$T$174, DW_AT_language(DW_LANG_C)
   11738              
   11739              DW$T$178        .dwtag  DW_TAG_subroutine_type, DW_AT_type(*DW$T$10)
   11740                      .dwattr DW$T$178, DW_AT_language(DW_LANG_C)
   11741              DW$974  .dwtag  DW_TAG_formal_parameter, DW_AT_type(*DW$T$11)
   11742              DW$975  .dwtag  DW_TAG_formal_parameter, DW_AT_type(*DW$T$11)
   11743              DW$976  .dwtag  DW_TAG_formal_parameter, DW_AT_type(*DW$T$27)
   11744              DW$977  .dwtag  DW_TAG_formal_parameter, DW_AT_type(*DW$T$27)
   11745              DW$978  .dwtag  DW_TAG_formal_parameter, DW_AT_type(*DW$T$52)
   11746              DW$979  .dwtag  DW_TAG_formal_parameter, DW_AT_type(*DW$T$177)
   11747                      .dwendtag DW$T$178
   11748              
   11749              DW$T$11 .dwtag  DW_TAG_base_type, DW_AT_name("unsigned int")
   11750                      .dwattr DW$T$11, DW_AT_encoding(DW_ATE_unsigned)
   11751                      .dwattr DW$T$11, DW_AT_byte_size(0x01)
   11752              DW$T$27 .dwtag  DW_TAG_typedef, DW_AT_name("Bsize_t"), DW_AT_type(*DW$T$11)
   11753                      .dwattr DW$T$27, DW_AT_language(DW_LANG_C)
   11754              DW$T$134        .dwtag  DW_TAG_pointer_type, DW_AT_type(*DW$T$27)
   11755                      .dwattr DW$T$134, DW_AT_address_class(0x16)
   11756              
   11757              DW$T$176        .dwtag  DW_TAG_subroutine_type, DW_AT_type(*DW$T$27)
   11758                      .dwattr DW$T$176, DW_AT_language(DW_LANG_C)
   11759              DW$980  .dwtag  DW_TAG_formal_parameter, DW_AT_type(*DW$T$54)
   11760                      .dwendtag DW$T$176
   11761              
   11762              DW$T$177        .dwtag  DW_TAG_pointer_type, DW_AT_type(*DW$T$176)
   11763                      .dwattr DW$T$177, DW_AT_address_class(0x16)
   11764              
   11765              DW$T$179        .dwtag  DW_TAG_subroutine_type, DW_AT_type(*DW$T$27)
   11766                      .dwattr DW$T$179, DW_AT_language(DW_LANG_C)
   11767              DW$981  .dwtag  DW_TAG_formal_parameter, DW_AT_type(*DW$T$52)
   11768                      .dwendtag DW$T$179
   11769              
   11770              
   11771              DW$T$181        .dwtag  DW_TAG_subroutine_type, DW_AT_type(*DW$T$27)
   11772                      .dwattr DW$T$181, DW_AT_language(DW_LANG_C)
   11773              DW$982  .dwtag  DW_TAG_formal_parameter, DW_AT_type(*DW$T$12)
   11774              DW$983  .dwtag  DW_TAG_formal_parameter, DW_AT_type(*DW$T$52)
   11775                      .dwendtag DW$T$181
   11776              
   11777              
   11778              DW$T$183        .dwtag  DW_TAG_subroutine_type, DW_AT_type(*DW$T$27)
   11779                      .dwattr DW$T$183, DW_AT_language(DW_LANG_C)
   11780              DW$984  .dwtag  DW_TAG_formal_parameter, DW_AT_type(*DW$T$16)
   11781              DW$985  .dwtag  DW_TAG_formal_parameter, DW_AT_type(*DW$T$52)
   11782              DW$986  .dwtag  DW_TAG_formal_parameter, DW_AT_type(*DW$T$27)
   11783                      .dwendtag DW$T$183
   11784              
   11785              
   11786              DW$T$185        .dwtag  DW_TAG_subroutine_type, DW_AT_type(*DW$T$27)
   11787                      .dwattr DW$T$185, DW_AT_language(DW_LANG_C)
TMS320C2000 COFF Assembler PC v4.1.3 Thu Nov 29 16:03:34 2012

Tools Copyright (c) 1996-2006 Texas Instruments Incorporated
C:\DOCUME~1\ADMINI~1\LOCALS~1\Temp\TI9882                            PAGE  228

   11788              DW$T$40 .dwtag  DW_TAG_typedef, DW_AT_name("INT16U"), DW_AT_type(*DW$T$11)
   11789                      .dwattr DW$T$40, DW_AT_language(DW_LANG_C)
   11790              DW$T$186        .dwtag  DW_TAG_pointer_type, DW_AT_type(*DW$T$11)
   11791                      .dwattr DW$T$186, DW_AT_address_class(0x16)
   11792              DW$T$12 .dwtag  DW_TAG_base_type, DW_AT_name("long")
   11793                      .dwattr DW$T$12, DW_AT_encoding(DW_ATE_signed)
   11794                      .dwattr DW$T$12, DW_AT_byte_size(0x02)
   11795              DW$T$13 .dwtag  DW_TAG_base_type, DW_AT_name("unsigned long")
   11796                      .dwattr DW$T$13, DW_AT_encoding(DW_ATE_unsigned)
   11797                      .dwattr DW$T$13, DW_AT_byte_size(0x02)
   11798              DW$T$187        .dwtag  DW_TAG_typedef, DW_AT_name("INT32U"), DW_AT_type(*DW$T$13)
   11799                      .dwattr DW$T$187, DW_AT_language(DW_LANG_C)
   11800              
   11801              DW$T$188        .dwtag  DW_TAG_subroutine_type, DW_AT_type(*DW$T$187)
   11802                      .dwattr DW$T$188, DW_AT_language(DW_LANG_C)
   11803              DW$T$190        .dwtag  DW_TAG_typedef, DW_AT_name("size_t"), DW_AT_type(*DW$T$13)
   11804                      .dwattr DW$T$190, DW_AT_language(DW_LANG_C)
   11805              
   11806              DW$T$191        .dwtag  DW_TAG_subroutine_type, DW_AT_type(*DW$T$190)
   11807                      .dwattr DW$T$191, DW_AT_language(DW_LANG_C)
   11808              DW$987  .dwtag  DW_TAG_formal_parameter, DW_AT_type(*DW$T$21)
   11809                      .dwendtag DW$T$191
   11810              
   11811              DW$T$16 .dwtag  DW_TAG_base_type, DW_AT_name("float")
   11812                      .dwattr DW$T$16, DW_AT_encoding(DW_ATE_float)
   11813                      .dwattr DW$T$16, DW_AT_byte_size(0x02)
   11814              DW$T$19 .dwtag  DW_TAG_base_type, DW_AT_name("signed char")
   11815                      .dwattr DW$T$19, DW_AT_encoding(DW_ATE_signed_char)
   11816                      .dwattr DW$T$19, DW_AT_byte_size(0x01)
   11817              DW$T$21 .dwtag  DW_TAG_pointer_type, DW_AT_type(*DW$T$20)
   11818                      .dwattr DW$T$21, DW_AT_address_class(0x16)
   11819              DW$T$36 .dwtag  DW_TAG_pointer_type, DW_AT_type(*DW$T$21)
   11820                      .dwattr DW$T$36, DW_AT_address_class(0x16)
   11821              
   11822              DW$T$193        .dwtag  DW_TAG_array_type, DW_AT_type(*DW$T$20)
   11823                      .dwattr DW$T$193, DW_AT_language(DW_LANG_C)
   11824                      .dwattr DW$T$193, DW_AT_byte_size(0x14)
   11825              DW$988  .dwtag  DW_TAG_subrange_type
   11826                      .dwattr DW$988, DW_AT_upper_bound(0x13)
   11827                      .dwendtag DW$T$193
   11828              
   11829              
   11830              DW$T$194        .dwtag  DW_TAG_array_type, DW_AT_type(*DW$T$20)
   11831                      .dwattr DW$T$194, DW_AT_language(DW_LANG_C)
   11832                      .dwattr DW$T$194, DW_AT_byte_size(0x0a)
   11833              DW$989  .dwtag  DW_TAG_subrange_type
   11834                      .dwattr DW$989, DW_AT_upper_bound(0x09)
   11835                      .dwendtag DW$T$194
   11836              
   11837              DW$T$52 .dwtag  DW_TAG_pointer_type, DW_AT_type(*DW$T$19)
   11838                      .dwattr DW$T$52, DW_AT_address_class(0x16)
   11839              
   11840              DW$T$195        .dwtag  DW_TAG_subroutine_type, DW_AT_type(*DW$T$52)
   11841                      .dwattr DW$T$195, DW_AT_language(DW_LANG_C)
   11842              DW$990  .dwtag  DW_TAG_formal_parameter, DW_AT_type(*DW$T$52)
TMS320C2000 COFF Assembler PC v4.1.3 Thu Nov 29 16:03:34 2012

Tools Copyright (c) 1996-2006 Texas Instruments Incorporated
C:\DOCUME~1\ADMINI~1\LOCALS~1\Temp\TI9882                            PAGE  229

   11843              DW$991  .dwtag  DW_TAG_formal_parameter, DW_AT_type(*DW$T$52)
   11844                      .dwendtag DW$T$195
   11845              
   11846              
   11847              DW$T$198        .dwtag  DW_TAG_array_type, DW_AT_type(*DW$T$19)
   11848                      .dwattr DW$T$198, DW_AT_language(DW_LANG_C)
   11849                      .dwattr DW$T$198, DW_AT_byte_size(0x14)
   11850              DW$992  .dwtag  DW_TAG_subrange_type
   11851                      .dwattr DW$992, DW_AT_upper_bound(0x13)
   11852                      .dwendtag DW$T$198
   11853              
   11854              
   11855              DW$T$200        .dwtag  DW_TAG_array_type, DW_AT_type(*DW$T$19)
   11856                      .dwattr DW$T$200, DW_AT_language(DW_LANG_C)
   11857                      .dwattr DW$T$200, DW_AT_byte_size(0x0a)
   11858              DW$993  .dwtag  DW_TAG_subrange_type
   11859                      .dwattr DW$993, DW_AT_upper_bound(0x09)
   11860                      .dwendtag DW$T$200
   11861              
   11862              DW$994  .dwtag  DW_TAG_far_type
   11863                      .dwattr DW$994, DW_AT_type(*DW$T$28)
   11864              DW$T$29 .dwtag  DW_TAG_const_type
   11865                      .dwattr DW$T$29, DW_AT_type(*DW$994)
   11866              DW$T$30 .dwtag  DW_TAG_pointer_type, DW_AT_type(*DW$T$29)
   11867                      .dwattr DW$T$30, DW_AT_address_class(0x16)
   11868              
   11869              DW$T$202        .dwtag  DW_TAG_subroutine_type, DW_AT_type(*DW$T$30)
   11870                      .dwattr DW$T$202, DW_AT_language(DW_LANG_C)
   11871              DW$T$35 .dwtag  DW_TAG_pointer_type, DW_AT_type(*DW$T$34)
   11872                      .dwattr DW$T$35, DW_AT_address_class(0x16)
   11873              
   11874              DW$T$204        .dwtag  DW_TAG_subroutine_type, DW_AT_type(*DW$T$35)
   11875                      .dwattr DW$T$204, DW_AT_language(DW_LANG_C)
   11876              DW$T$54 .dwtag  DW_TAG_pointer_type, DW_AT_type(*DW$T$53)
   11877                      .dwattr DW$T$54, DW_AT_address_class(0x16)
   11878              
   11879              DW$T$206        .dwtag  DW_TAG_subroutine_type, DW_AT_type(*DW$T$54)
   11880                      .dwattr DW$T$206, DW_AT_language(DW_LANG_C)
   11881              DW$995  .dwtag  DW_TAG_formal_parameter, DW_AT_type(*DW$T$11)
   11882              DW$996  .dwtag  DW_TAG_formal_parameter, DW_AT_type(*DW$T$11)
   11883              DW$997  .dwtag  DW_TAG_formal_parameter, DW_AT_type(*DW$T$27)
   11884              DW$998  .dwtag  DW_TAG_formal_parameter, DW_AT_type(*DW$T$27)
   11885              DW$999  .dwtag  DW_TAG_formal_parameter, DW_AT_type(*DW$T$27)
   11886              DW$1000 .dwtag  DW_TAG_formal_parameter, DW_AT_type(*DW$T$54)
   11887                      .dwendtag DW$T$206
   11888              
   11889              
   11890              DW$T$208        .dwtag  DW_TAG_subroutine_type, DW_AT_type(*DW$T$54)
   11891                      .dwattr DW$T$208, DW_AT_language(DW_LANG_C)
   11892              DW$1001 .dwtag  DW_TAG_formal_parameter, DW_AT_type(*DW$T$11)
   11893              DW$1002 .dwtag  DW_TAG_formal_parameter, DW_AT_type(*DW$T$11)
   11894              DW$1003 .dwtag  DW_TAG_formal_parameter, DW_AT_type(*DW$T$27)
   11895              DW$1004 .dwtag  DW_TAG_formal_parameter, DW_AT_type(*DW$T$27)
   11896              DW$1005 .dwtag  DW_TAG_formal_parameter, DW_AT_type(*DW$T$27)
   11897                      .dwendtag DW$T$208
TMS320C2000 COFF Assembler PC v4.1.3 Thu Nov 29 16:03:34 2012

Tools Copyright (c) 1996-2006 Texas Instruments Incorporated
C:\DOCUME~1\ADMINI~1\LOCALS~1\Temp\TI9882                            PAGE  230

   11898              
   11899              
   11900              DW$T$210        .dwtag  DW_TAG_subroutine_type, DW_AT_type(*DW$T$54)
   11901                      .dwattr DW$T$210, DW_AT_language(DW_LANG_C)
   11902              DW$1006 .dwtag  DW_TAG_formal_parameter, DW_AT_type(*DW$T$11)
   11903              DW$1007 .dwtag  DW_TAG_formal_parameter, DW_AT_type(*DW$T$11)
   11904              DW$1008 .dwtag  DW_TAG_formal_parameter, DW_AT_type(*DW$T$27)
   11905              DW$1009 .dwtag  DW_TAG_formal_parameter, DW_AT_type(*DW$T$27)
   11906              DW$1010 .dwtag  DW_TAG_formal_parameter, DW_AT_type(*DW$T$52)
   11907              DW$1011 .dwtag  DW_TAG_formal_parameter, DW_AT_type(*DW$T$27)
   11908              DW$1012 .dwtag  DW_TAG_formal_parameter, DW_AT_type(*DW$T$54)
   11909                      .dwendtag DW$T$210
   11910              
   11911              
   11912              DW$T$212        .dwtag  DW_TAG_subroutine_type, DW_AT_type(*DW$T$54)
   11913                      .dwattr DW$T$212, DW_AT_language(DW_LANG_C)
   11914              DW$1013 .dwtag  DW_TAG_formal_parameter, DW_AT_type(*DW$T$21)
   11915              DW$1014 .dwtag  DW_TAG_formal_parameter, DW_AT_type(*DW$T$11)
   11916              DW$1015 .dwtag  DW_TAG_formal_parameter, DW_AT_type(*DW$T$11)
   11917              DW$1016 .dwtag  DW_TAG_formal_parameter, DW_AT_type(*DW$T$11)
   11918              DW$1017 .dwtag  DW_TAG_formal_parameter, DW_AT_type(*DW$T$11)
   11919              DW$1018 .dwtag  DW_TAG_formal_parameter, DW_AT_type(*DW$T$54)
   11920                      .dwendtag DW$T$212
   11921              
   11922              
   11923              DW$T$213        .dwtag  DW_TAG_subroutine_type, DW_AT_type(*DW$T$54)
   11924                      .dwattr DW$T$213, DW_AT_language(DW_LANG_C)
   11925              DW$1019 .dwtag  DW_TAG_formal_parameter, DW_AT_type(*DW$T$27)
   11926                      .dwendtag DW$T$213
   11927              
   11928              
   11929              DW$T$217        .dwtag  DW_TAG_subroutine_type, DW_AT_type(*DW$T$54)
   11930                      .dwattr DW$T$217, DW_AT_language(DW_LANG_C)
   11931              DW$1020 .dwtag  DW_TAG_formal_parameter, DW_AT_type(*DW$T$21)
   11932              DW$1021 .dwtag  DW_TAG_formal_parameter, DW_AT_type(*DW$T$11)
   11933              DW$1022 .dwtag  DW_TAG_formal_parameter, DW_AT_type(*DW$T$11)
   11934              DW$1023 .dwtag  DW_TAG_formal_parameter, DW_AT_type(*DW$T$11)
   11935              DW$1024 .dwtag  DW_TAG_formal_parameter, DW_AT_type(*DW$T$11)
   11936              DW$1025 .dwtag  DW_TAG_formal_parameter, DW_AT_type(*DW$T$27)
   11937              DW$1026 .dwtag  DW_TAG_formal_parameter, DW_AT_type(*DW$T$216)
   11938              DW$1027 .dwtag  DW_TAG_formal_parameter, DW_AT_type(*DW$T$27)
   11939                      .dwendtag DW$T$217
   11940              
   11941              
   11942              DW$T$218        .dwtag  DW_TAG_subroutine_type, DW_AT_type(*DW$T$54)
   11943                      .dwattr DW$T$218, DW_AT_language(DW_LANG_C)
   11944              DW$1028 .dwtag  DW_TAG_formal_parameter, DW_AT_type(*DW$T$11)
   11945              DW$1029 .dwtag  DW_TAG_formal_parameter, DW_AT_type(*DW$T$11)
   11946              DW$1030 .dwtag  DW_TAG_formal_parameter, DW_AT_type(*DW$T$36)
   11947              DW$1031 .dwtag  DW_TAG_formal_parameter, DW_AT_type(*DW$T$6)
   11948              DW$1032 .dwtag  DW_TAG_formal_parameter, DW_AT_type(*DW$T$27)
   11949              DW$1033 .dwtag  DW_TAG_formal_parameter, DW_AT_type(*DW$T$54)
   11950                      .dwendtag DW$T$218
   11951              
   11952              DW$T$94 .dwtag  DW_TAG_pointer_type, DW_AT_type(*DW$T$93)
TMS320C2000 COFF Assembler PC v4.1.3 Thu Nov 29 16:03:34 2012

Tools Copyright (c) 1996-2006 Texas Instruments Incorporated
C:\DOCUME~1\ADMINI~1\LOCALS~1\Temp\TI9882                            PAGE  231

   11953                      .dwattr DW$T$94, DW_AT_address_class(0x16)
   11954              DW$T$155        .dwtag  DW_TAG_pointer_type, DW_AT_type(*DW$T$94)
   11955                      .dwattr DW$T$155, DW_AT_address_class(0x16)
   11956              DW$T$150        .dwtag  DW_TAG_pointer_type, DW_AT_type(*DW$T$92)
   11957                      .dwattr DW$T$150, DW_AT_address_class(0x16)
   11958              DW$T$159        .dwtag  DW_TAG_pointer_type, DW_AT_type(*DW$T$158)
   11959                      .dwattr DW$T$159, DW_AT_address_class(0x16)
   11960              DW$T$160        .dwtag  DW_TAG_pointer_type, DW_AT_type(*DW$T$159)
   11961                      .dwattr DW$T$160, DW_AT_address_class(0x16)
   11962              DW$T$102        .dwtag  DW_TAG_pointer_type, DW_AT_type(*DW$T$101)
   11963                      .dwattr DW$T$102, DW_AT_address_class(0x16)
   11964              
   11965              DW$T$220        .dwtag  DW_TAG_subroutine_type, DW_AT_type(*DW$T$102)
   11966                      .dwattr DW$T$220, DW_AT_language(DW_LANG_C)
   11967              DW$1034 .dwtag  DW_TAG_formal_parameter, DW_AT_type(*DW$T$10)
   11968              DW$1035 .dwtag  DW_TAG_formal_parameter, DW_AT_type(*DW$T$10)
   11969              DW$1036 .dwtag  DW_TAG_formal_parameter, DW_AT_type(*DW$T$10)
   11970              DW$1037 .dwtag  DW_TAG_formal_parameter, DW_AT_type(*DW$T$10)
   11971                      .dwendtag DW$T$220
   11972              
   11973              DW$T$223        .dwtag  DW_TAG_pointer_type, DW_AT_type(*DW$T$222)
   11974                      .dwattr DW$T$223, DW_AT_address_class(0x16)
   11975              
   11976              DW$T$224        .dwtag  DW_TAG_subroutine_type, DW_AT_type(*DW$T$223)
   11977                      .dwattr DW$T$224, DW_AT_language(DW_LANG_C)
   11978              DW$1038 .dwtag  DW_TAG_formal_parameter, DW_AT_type(*DW$T$54)
   11979                      .dwendtag DW$T$224
   11980              
   11981              DW$T$216        .dwtag  DW_TAG_pointer_type, DW_AT_type(*DW$T$215)
   11982                      .dwattr DW$T$216, DW_AT_address_class(0x16)
   11983              DW$T$226        .dwtag  DW_TAG_pointer_type, DW_AT_type(*DW$T$214)
   11984                      .dwattr DW$T$226, DW_AT_address_class(0x16)
   11985              DW$T$146        .dwtag  DW_TAG_pointer_type, DW_AT_type(*DW$T$145)
   11986                      .dwattr DW$T$146, DW_AT_address_class(0x16)
   11987              
   11988              DW$T$228        .dwtag  DW_TAG_array_type, DW_AT_type(*DW$T$227)
   11989                      .dwattr DW$T$228, DW_AT_language(DW_LANG_C)
   11990                      .dwattr DW$T$228, DW_AT_byte_size(0x78)
   11991              DW$1039 .dwtag  DW_TAG_subrange_type
   11992                      .dwattr DW$1039, DW_AT_upper_bound(0x1d)
   11993                      .dwendtag DW$T$228
   11994              
   11995              
   11996              DW$T$171        .dwtag  DW_TAG_subroutine_type, DW_AT_type(*DW$T$6)
   11997                      .dwattr DW$T$171, DW_AT_language(DW_LANG_C)
   11998              DW$1040 .dwtag  DW_TAG_formal_parameter, DW_AT_type(*DW$T$54)
   11999                      .dwendtag DW$T$171
   12000              
   12001              DW$1041 .dwtag  DW_TAG_far_type
   12002                      .dwattr DW$1041, DW_AT_type(*DW$T$19)
   12003              DW$T$20 .dwtag  DW_TAG_const_type
   12004                      .dwattr DW$T$20, DW_AT_type(*DW$1041)
   12005              DW$T$28 .dwtag  DW_TAG_typedef, DW_AT_name("GUI_FONT"), DW_AT_type(*DW$T$26)
   12006                      .dwattr DW$T$28, DW_AT_language(DW_LANG_C)
   12007              DW$T$34 .dwtag  DW_TAG_typedef, DW_AT_name("edit_mem_t"), DW_AT_type(*DW$T$32)
TMS320C2000 COFF Assembler PC v4.1.3 Thu Nov 29 16:03:34 2012

Tools Copyright (c) 1996-2006 Texas Instruments Incorporated
C:\DOCUME~1\ADMINI~1\LOCALS~1\Temp\TI9882                            PAGE  232

   12008                      .dwattr DW$T$34, DW_AT_language(DW_LANG_C)
   12009              DW$T$53 .dwtag  DW_TAG_typedef, DW_AT_name("hwin_t"), DW_AT_type(*DW$T$38)
   12010                      .dwattr DW$T$53, DW_AT_language(DW_LANG_C)
   12011              DW$T$92 .dwtag  DW_TAG_typedef, DW_AT_name("OS_EVENT"), DW_AT_type(*DW$T$42)
   12012                      .dwattr DW$T$92, DW_AT_language(DW_LANG_C)
   12013              DW$T$93 .dwtag  DW_TAG_typedef, DW_AT_name("a_lock_t"), DW_AT_type(*DW$T$92)
   12014                      .dwattr DW$T$93, DW_AT_language(DW_LANG_C)
   12015              DW$T$158        .dwtag  DW_TAG_typedef, DW_AT_name("a_sem_t"), DW_AT_type(*DW$T$92)
   12016                      .dwattr DW$T$158, DW_AT_language(DW_LANG_C)
   12017              DW$T$101        .dwtag  DW_TAG_typedef, DW_AT_name("lcd_csr_arg_t"), DW_AT_type(*DW$T$49)
   12018                      .dwattr DW$T$101, DW_AT_language(DW_LANG_C)
   12019              DW$T$222        .dwtag  DW_TAG_typedef, DW_AT_name("widget_button_t"), DW_AT_type(*DW$T$51)
   12020                      .dwattr DW$T$222, DW_AT_language(DW_LANG_C)
   12021              DW$T$214        .dwtag  DW_TAG_typedef, DW_AT_name("dialogBox_t"), DW_AT_type(*DW$T$57)
   12022                      .dwattr DW$T$214, DW_AT_language(DW_LANG_C)
   12023              DW$1042 .dwtag  DW_TAG_far_type
   12024                      .dwattr DW$1042, DW_AT_type(*DW$T$214)
   12025              DW$T$215        .dwtag  DW_TAG_const_type
   12026                      .dwattr DW$T$215, DW_AT_type(*DW$1042)
   12027              DW$T$145        .dwtag  DW_TAG_typedef, DW_AT_name("app_touch_t"), DW_AT_type(*DW$T$58)
   12028                      .dwattr DW$T$145, DW_AT_language(DW_LANG_C)
   12029              DW$T$227        .dwtag  DW_TAG_typedef, DW_AT_name("dialogBox_ctl_t"), DW_AT_type(*DW$T$59)
   12030                      .dwattr DW$T$227, DW_AT_language(DW_LANG_C)
   12031              
   12032              DW$T$26 .dwtag  DW_TAG_structure_type
   12033                      .dwattr DW$T$26, DW_AT_name("GUI_FONT")
   12034                      .dwattr DW$T$26, DW_AT_byte_size(0x0c)
   12035              DW$1043 .dwtag  DW_TAG_member, DW_AT_type(*DW$T$21)
   12036                      .dwattr DW$1043, DW_AT_name("start_asc"), DW_AT_symbol_name("_start_asc")
   12037                      .dwattr DW$1043, DW_AT_data_member_location[DW_OP_plus_uconst 0x0]
   12038                      .dwattr DW$1043, DW_AT_accessibility(DW_ACCESS_public)
   12039              DW$1044 .dwtag  DW_TAG_member, DW_AT_type(*DW$T$21)
   12040                      .dwattr DW$1044, DW_AT_name("end_asc"), DW_AT_symbol_name("_end_asc")
   12041                      .dwattr DW$1044, DW_AT_data_member_location[DW_OP_plus_uconst 0x2]
   12042                      .dwattr DW$1044, DW_AT_accessibility(DW_ACCESS_public)
   12043              DW$1045 .dwtag  DW_TAG_member, DW_AT_type(*DW$T$6)
   12044                      .dwattr DW$1045, DW_AT_name("nbyte"), DW_AT_symbol_name("_nbyte")
   12045                      .dwattr DW$1045, DW_AT_data_member_location[DW_OP_plus_uconst 0x4]
   12046                      .dwattr DW$1045, DW_AT_accessibility(DW_ACCESS_public)
   12047              DW$1046 .dwtag  DW_TAG_member, DW_AT_type(*DW$T$11)
   12048                      .dwattr DW$1046, DW_AT_name("wide"), DW_AT_symbol_name("_wide")
   12049                      .dwattr DW$1046, DW_AT_data_member_location[DW_OP_plus_uconst 0x5]
   12050                      .dwattr DW$1046, DW_AT_accessibility(DW_ACCESS_public)
   12051              DW$1047 .dwtag  DW_TAG_member, DW_AT_type(*DW$T$11)
   12052                      .dwattr DW$1047, DW_AT_name("high"), DW_AT_symbol_name("_high")
   12053                      .dwattr DW$1047, DW_AT_data_member_location[DW_OP_plus_uconst 0x6]
   12054                      .dwattr DW$1047, DW_AT_accessibility(DW_ACCESS_public)
   12055              DW$1048 .dwtag  DW_TAG_member, DW_AT_type(*DW$T$11)
   12056                      .dwattr DW$1048, DW_AT_name("CHwide"), DW_AT_symbol_name("_CHwide")
   12057                      .dwattr DW$1048, DW_AT_data_member_location[DW_OP_plus_uconst 0x7]
   12058                      .dwattr DW$1048, DW_AT_accessibility(DW_ACCESS_public)
   12059              DW$1049 .dwtag  DW_TAG_member, DW_AT_type(*DW$T$23)
   12060                      .dwattr DW$1049, DW_AT_name("pcode"), DW_AT_symbol_name("_pcode")
   12061                      .dwattr DW$1049, DW_AT_data_member_location[DW_OP_plus_uconst 0x8]
   12062                      .dwattr DW$1049, DW_AT_accessibility(DW_ACCESS_public)
TMS320C2000 COFF Assembler PC v4.1.3 Thu Nov 29 16:03:34 2012

Tools Copyright (c) 1996-2006 Texas Instruments Incorporated
C:\DOCUME~1\ADMINI~1\LOCALS~1\Temp\TI9882                            PAGE  233

   12063              DW$1050 .dwtag  DW_TAG_member, DW_AT_type(*DW$T$25)
   12064                      .dwattr DW$1050, DW_AT_name("pNext"), DW_AT_symbol_name("_pNext")
   12065                      .dwattr DW$1050, DW_AT_data_member_location[DW_OP_plus_uconst 0xa]
   12066                      .dwattr DW$1050, DW_AT_accessibility(DW_ACCESS_public)
   12067                      .dwendtag DW$T$26
   12068              
   12069              DW$T$25 .dwtag  DW_TAG_pointer_type, DW_AT_type(*DW$T$24)
   12070                      .dwattr DW$T$25, DW_AT_address_class(0x16)
   12071              
   12072              DW$T$32 .dwtag  DW_TAG_structure_type
   12073                      .dwattr DW$T$32, DW_AT_name("edit_mem")
   12074                      .dwattr DW$T$32, DW_AT_byte_size(0x0c)
   12075              DW$1051 .dwtag  DW_TAG_member, DW_AT_type(*DW$T$11)
   12076                      .dwattr DW$1051, DW_AT_name("x"), DW_AT_symbol_name("_x")
   12077                      .dwattr DW$1051, DW_AT_data_member_location[DW_OP_plus_uconst 0x0]
   12078                      .dwattr DW$1051, DW_AT_accessibility(DW_ACCESS_public)
   12079              DW$1052 .dwtag  DW_TAG_member, DW_AT_type(*DW$T$11)
   12080                      .dwattr DW$1052, DW_AT_name("y"), DW_AT_symbol_name("_y")
   12081                      .dwattr DW$1052, DW_AT_data_member_location[DW_OP_plus_uconst 0x1]
   12082                      .dwattr DW$1052, DW_AT_accessibility(DW_ACCESS_public)
   12083              DW$1053 .dwtag  DW_TAG_member, DW_AT_type(*DW$T$11)
   12084                      .dwattr DW$1053, DW_AT_name("CHwide"), DW_AT_symbol_name("_CHwide")
   12085                      .dwattr DW$1053, DW_AT_data_member_location[DW_OP_plus_uconst 0x2]
   12086                      .dwattr DW$1053, DW_AT_accessibility(DW_ACCESS_public)
   12087              DW$1054 .dwtag  DW_TAG_member, DW_AT_type(*DW$T$11)
   12088                      .dwattr DW$1054, DW_AT_name("CHhigh"), DW_AT_symbol_name("_CHhigh")
   12089                      .dwattr DW$1054, DW_AT_data_member_location[DW_OP_plus_uconst 0x3]
   12090                      .dwattr DW$1054, DW_AT_accessibility(DW_ACCESS_public)
   12091              DW$1055 .dwtag  DW_TAG_member, DW_AT_type(*DW$T$27)
   12092                      .dwattr DW$1055, DW_AT_name("eidt_lenth"), DW_AT_symbol_name("_eidt_lenth")
   12093                      .dwattr DW$1055, DW_AT_data_member_location[DW_OP_plus_uconst 0x4]
   12094                      .dwattr DW$1055, DW_AT_accessibility(DW_ACCESS_public)
   12095              DW$1056 .dwtag  DW_TAG_member, DW_AT_type(*DW$T$27)
   12096                      .dwattr DW$1056, DW_AT_name("surplus_lenth"), DW_AT_symbol_name("_surplus_lenth")
   12097                      .dwattr DW$1056, DW_AT_data_member_location[DW_OP_plus_uconst 0x5]
   12098                      .dwattr DW$1056, DW_AT_accessibility(DW_ACCESS_public)
   12099              DW$1057 .dwtag  DW_TAG_member, DW_AT_type(*DW$T$27)
   12100                      .dwattr DW$1057, DW_AT_name("id"), DW_AT_symbol_name("_id")
   12101                      .dwattr DW$1057, DW_AT_data_member_location[DW_OP_plus_uconst 0x6]
   12102                      .dwattr DW$1057, DW_AT_accessibility(DW_ACCESS_public)
   12103              DW$1058 .dwtag  DW_TAG_member, DW_AT_type(*DW$T$6)
   12104                      .dwattr DW$1058, DW_AT_name("flag"), DW_AT_symbol_name("_flag")
   12105                      .dwattr DW$1058, DW_AT_data_member_location[DW_OP_plus_uconst 0x7]
   12106                      .dwattr DW$1058, DW_AT_accessibility(DW_ACCESS_public)
   12107              DW$1059 .dwtag  DW_TAG_member, DW_AT_type(*DW$T$30)
   12108                      .dwattr DW$1059, DW_AT_name("pfront"), DW_AT_symbol_name("_pfront")
   12109                      .dwattr DW$1059, DW_AT_data_member_location[DW_OP_plus_uconst 0x8]
   12110                      .dwattr DW$1059, DW_AT_accessibility(DW_ACCESS_public)
   12111              DW$1060 .dwtag  DW_TAG_member, DW_AT_type(*DW$T$31)
   12112                      .dwattr DW$1060, DW_AT_name("next_edit"), DW_AT_symbol_name("_next_edit")
   12113                      .dwattr DW$1060, DW_AT_data_member_location[DW_OP_plus_uconst 0xa]
   12114                      .dwattr DW$1060, DW_AT_accessibility(DW_ACCESS_public)
   12115                      .dwendtag DW$T$32
   12116              
   12117              DW$T$31 .dwtag  DW_TAG_pointer_type, DW_AT_type(*DW$T$32)
TMS320C2000 COFF Assembler PC v4.1.3 Thu Nov 29 16:03:34 2012

Tools Copyright (c) 1996-2006 Texas Instruments Incorporated
C:\DOCUME~1\ADMINI~1\LOCALS~1\Temp\TI9882                            PAGE  234

   12118                      .dwattr DW$T$31, DW_AT_address_class(0x16)
   12119              
   12120              DW$T$38 .dwtag  DW_TAG_structure_type
   12121                      .dwattr DW$T$38, DW_AT_name("hwin")
   12122                      .dwattr DW$T$38, DW_AT_byte_size(0x22)
   12123              DW$1061 .dwtag  DW_TAG_member, DW_AT_type(*DW$T$27)
   12124                      .dwattr DW$1061, DW_AT_name("occupy_flag"), DW_AT_symbol_name("_occupy_flag")
   12125                      .dwattr DW$1061, DW_AT_data_member_location[DW_OP_plus_uconst 0x0]
   12126                      .dwattr DW$1061, DW_AT_accessibility(DW_ACCESS_public)
   12127              DW$1062 .dwtag  DW_TAG_member, DW_AT_type(*DW$T$11)
   12128                      .dwattr DW$1062, DW_AT_name("win_x"), DW_AT_symbol_name("_win_x")
   12129                      .dwattr DW$1062, DW_AT_data_member_location[DW_OP_plus_uconst 0x1]
   12130                      .dwattr DW$1062, DW_AT_accessibility(DW_ACCESS_public)
   12131              DW$1063 .dwtag  DW_TAG_member, DW_AT_type(*DW$T$11)
   12132                      .dwattr DW$1063, DW_AT_name("win_y"), DW_AT_symbol_name("_win_y")
   12133                      .dwattr DW$1063, DW_AT_data_member_location[DW_OP_plus_uconst 0x2]
   12134                      .dwattr DW$1063, DW_AT_accessibility(DW_ACCESS_public)
   12135              DW$1064 .dwtag  DW_TAG_member, DW_AT_type(*DW$T$27)
   12136                      .dwattr DW$1064, DW_AT_name("win_wide"), DW_AT_symbol_name("_win_wide")
   12137                      .dwattr DW$1064, DW_AT_data_member_location[DW_OP_plus_uconst 0x3]
   12138                      .dwattr DW$1064, DW_AT_accessibility(DW_ACCESS_public)
   12139              DW$1065 .dwtag  DW_TAG_member, DW_AT_type(*DW$T$27)
   12140                      .dwattr DW$1065, DW_AT_name("win_high"), DW_AT_symbol_name("_win_high")
   12141                      .dwattr DW$1065, DW_AT_data_member_location[DW_OP_plus_uconst 0x4]
   12142                      .dwattr DW$1065, DW_AT_accessibility(DW_ACCESS_public)
   12143              DW$1066 .dwtag  DW_TAG_member, DW_AT_type(*DW$T$11)
   12144                      .dwattr DW$1066, DW_AT_name("csr_x_pos"), DW_AT_symbol_name("_csr_x_pos")
   12145                      .dwattr DW$1066, DW_AT_data_member_location[DW_OP_plus_uconst 0x5]
   12146                      .dwattr DW$1066, DW_AT_accessibility(DW_ACCESS_public)
   12147              DW$1067 .dwtag  DW_TAG_member, DW_AT_type(*DW$T$11)
   12148                      .dwattr DW$1067, DW_AT_name("csr_y_pos"), DW_AT_symbol_name("_csr_y_pos")
   12149                      .dwattr DW$1067, DW_AT_data_member_location[DW_OP_plus_uconst 0x6]
   12150                      .dwattr DW$1067, DW_AT_accessibility(DW_ACCESS_public)
   12151              DW$1068 .dwtag  DW_TAG_member, DW_AT_type(*DW$T$11)
   12152                      .dwattr DW$1068, DW_AT_name("flag"), DW_AT_symbol_name("_flag")
   12153                      .dwattr DW$1068, DW_AT_data_member_location[DW_OP_plus_uconst 0x7]
   12154                      .dwattr DW$1068, DW_AT_accessibility(DW_ACCESS_public)
   12155              DW$1069 .dwtag  DW_TAG_member, DW_AT_type(*DW$T$27)
   12156                      .dwattr DW$1069, DW_AT_name("type"), DW_AT_symbol_name("_type")
   12157                      .dwattr DW$1069, DW_AT_data_member_location[DW_OP_plus_uconst 0x8]
   12158                      .dwattr DW$1069, DW_AT_accessibility(DW_ACCESS_public)
   12159              DW$1070 .dwtag  DW_TAG_member, DW_AT_type(*DW$T$33)
   12160                      .dwattr DW$1070, DW_AT_name("father_hwin"), DW_AT_symbol_name("_father_hwin")
   12161                      .dwattr DW$1070, DW_AT_data_member_location[DW_OP_plus_uconst 0xa]
   12162                      .dwattr DW$1070, DW_AT_accessibility(DW_ACCESS_public)
   12163              DW$1071 .dwtag  DW_TAG_member, DW_AT_type(*DW$T$33)
   12164                      .dwattr DW$1071, DW_AT_name("next_hwin"), DW_AT_symbol_name("_next_hwin")
   12165                      .dwattr DW$1071, DW_AT_data_member_location[DW_OP_plus_uconst 0xc]
   12166                      .dwattr DW$1071, DW_AT_accessibility(DW_ACCESS_public)
   12167              DW$1072 .dwtag  DW_TAG_member, DW_AT_type(*DW$T$33)
   12168                      .dwattr DW$1072, DW_AT_name("last_hwin"), DW_AT_symbol_name("_last_hwin")
   12169                      .dwattr DW$1072, DW_AT_data_member_location[DW_OP_plus_uconst 0xe]
   12170                      .dwattr DW$1072, DW_AT_accessibility(DW_ACCESS_public)
   12171              DW$1073 .dwtag  DW_TAG_member, DW_AT_type(*DW$T$35)
   12172                      .dwattr DW$1073, DW_AT_name("cur_edit_pos"), DW_AT_symbol_name("_cur_edit_pos")
TMS320C2000 COFF Assembler PC v4.1.3 Thu Nov 29 16:03:34 2012

Tools Copyright (c) 1996-2006 Texas Instruments Incorporated
C:\DOCUME~1\ADMINI~1\LOCALS~1\Temp\TI9882                            PAGE  235

   12173                      .dwattr DW$1073, DW_AT_data_member_location[DW_OP_plus_uconst 0x10]
   12174                      .dwattr DW$1073, DW_AT_accessibility(DW_ACCESS_public)
   12175              DW$1074 .dwtag  DW_TAG_member, DW_AT_type(*DW$T$35)
   12176                      .dwattr DW$1074, DW_AT_name("edit_phead"), DW_AT_symbol_name("_edit_phead")
   12177                      .dwattr DW$1074, DW_AT_data_member_location[DW_OP_plus_uconst 0x12]
   12178                      .dwattr DW$1074, DW_AT_accessibility(DW_ACCESS_public)
   12179              DW$1075 .dwtag  DW_TAG_member, DW_AT_type(*DW$T$35)
   12180                      .dwattr DW$1075, DW_AT_name("m_cur_pedit"), DW_AT_symbol_name("_m_cur_pedit")
   12181                      .dwattr DW$1075, DW_AT_data_member_location[DW_OP_plus_uconst 0x14]
   12182                      .dwattr DW$1075, DW_AT_accessibility(DW_ACCESS_public)
   12183              DW$1076 .dwtag  DW_TAG_member, DW_AT_type(*DW$T$6)
   12184                      .dwattr DW$1076, DW_AT_name("drop_list_is_start"), DW_AT_symbol_name("_drop_list_is_start")
   12185                      .dwattr DW$1076, DW_AT_data_member_location[DW_OP_plus_uconst 0x16]
   12186                      .dwattr DW$1076, DW_AT_accessibility(DW_ACCESS_public)
   12187              DW$1077 .dwtag  DW_TAG_member, DW_AT_type(*DW$T$36)
   12188                      .dwattr DW$1077, DW_AT_name("drop_memeber"), DW_AT_symbol_name("_drop_memeber")
   12189                      .dwattr DW$1077, DW_AT_data_member_location[DW_OP_plus_uconst 0x18]
   12190                      .dwattr DW$1077, DW_AT_accessibility(DW_ACCESS_public)
   12191              DW$1078 .dwtag  DW_TAG_member, DW_AT_type(*DW$T$6)
   12192                      .dwattr DW$1078, DW_AT_name("drop_cur_member"), DW_AT_symbol_name("_drop_cur_member")
   12193                      .dwattr DW$1078, DW_AT_data_member_location[DW_OP_plus_uconst 0x1a]
   12194                      .dwattr DW$1078, DW_AT_accessibility(DW_ACCESS_public)
   12195              DW$1079 .dwtag  DW_TAG_member, DW_AT_type(*DW$T$6)
   12196                      .dwattr DW$1079, DW_AT_name("drop_member_size"), DW_AT_symbol_name("_drop_member_size")
   12197                      .dwattr DW$1079, DW_AT_data_member_location[DW_OP_plus_uconst 0x1b]
   12198                      .dwattr DW$1079, DW_AT_accessibility(DW_ACCESS_public)
   12199              DW$1080 .dwtag  DW_TAG_member, DW_AT_type(*DW$T$37)
   12200                      .dwattr DW$1080, DW_AT_name("checkbox_radio_state"), DW_AT_symbol_name("_checkbox_radio_state")
   12201                      .dwattr DW$1080, DW_AT_data_member_location[DW_OP_plus_uconst 0x1c]
   12202                      .dwattr DW$1080, DW_AT_accessibility(DW_ACCESS_public)
   12203              DW$1081 .dwtag  DW_TAG_member, DW_AT_type(*DW$T$11)
   12204                      .dwattr DW$1081, DW_AT_name("title_len"), DW_AT_symbol_name("_title_len")
   12205                      .dwattr DW$1081, DW_AT_data_member_location[DW_OP_plus_uconst 0x1d]
   12206                      .dwattr DW$1081, DW_AT_accessibility(DW_ACCESS_public)
   12207              DW$1082 .dwtag  DW_TAG_member, DW_AT_type(*DW$T$11)
   12208                      .dwattr DW$1082, DW_AT_name("win_cnt"), DW_AT_symbol_name("_win_cnt")
   12209                      .dwattr DW$1082, DW_AT_data_member_location[DW_OP_plus_uconst 0x1e]
   12210                      .dwattr DW$1082, DW_AT_accessibility(DW_ACCESS_public)
   12211              DW$1083 .dwtag  DW_TAG_member, DW_AT_type(*DW$T$3)
   12212                      .dwattr DW$1083, DW_AT_name("pwidget"), DW_AT_symbol_name("_pwidget")
   12213                      .dwattr DW$1083, DW_AT_data_member_location[DW_OP_plus_uconst 0x20]
   12214                      .dwattr DW$1083, DW_AT_accessibility(DW_ACCESS_public)
   12215                      .dwendtag DW$T$38
   12216              
   12217              DW$T$33 .dwtag  DW_TAG_pointer_type, DW_AT_type(*DW$T$38)
   12218                      .dwattr DW$T$33, DW_AT_address_class(0x16)
   12219              
   12220              DW$T$42 .dwtag  DW_TAG_structure_type
   12221                      .dwattr DW$T$42, DW_AT_name("os_event")
   12222                      .dwattr DW$T$42, DW_AT_byte_size(0x0e)
   12223              DW$1084 .dwtag  DW_TAG_member, DW_AT_type(*DW$T$39)
   12224                      .dwattr DW$1084, DW_AT_name("OSEventType"), DW_AT_symbol_name("_OSEventType")
   12225                      .dwattr DW$1084, DW_AT_data_member_location[DW_OP_plus_uconst 0x0]
   12226                      .dwattr DW$1084, DW_AT_accessibility(DW_ACCESS_public)
   12227              DW$1085 .dwtag  DW_TAG_member, DW_AT_type(*DW$T$3)
TMS320C2000 COFF Assembler PC v4.1.3 Thu Nov 29 16:03:34 2012

Tools Copyright (c) 1996-2006 Texas Instruments Incorporated
C:\DOCUME~1\ADMINI~1\LOCALS~1\Temp\TI9882                            PAGE  236

   12228                      .dwattr DW$1085, DW_AT_name("OSEventPtr"), DW_AT_symbol_name("_OSEventPtr")
   12229                      .dwattr DW$1085, DW_AT_data_member_location[DW_OP_plus_uconst 0x2]
   12230                      .dwattr DW$1085, DW_AT_accessibility(DW_ACCESS_public)
   12231              DW$1086 .dwtag  DW_TAG_member, DW_AT_type(*DW$T$40)
   12232                      .dwattr DW$1086, DW_AT_name("OSEventCnt"), DW_AT_symbol_name("_OSEventCnt")
   12233                      .dwattr DW$1086, DW_AT_data_member_location[DW_OP_plus_uconst 0x4]
   12234                      .dwattr DW$1086, DW_AT_accessibility(DW_ACCESS_public)
   12235              DW$1087 .dwtag  DW_TAG_member, DW_AT_type(*DW$T$39)
   12236                      .dwattr DW$1087, DW_AT_name("OSEventGrp"), DW_AT_symbol_name("_OSEventGrp")
   12237                      .dwattr DW$1087, DW_AT_data_member_location[DW_OP_plus_uconst 0x5]
   12238                      .dwattr DW$1087, DW_AT_accessibility(DW_ACCESS_public)
   12239              DW$1088 .dwtag  DW_TAG_member, DW_AT_type(*DW$T$41)
   12240                      .dwattr DW$1088, DW_AT_name("OSEventTbl"), DW_AT_symbol_name("_OSEventTbl")
   12241                      .dwattr DW$1088, DW_AT_data_member_location[DW_OP_plus_uconst 0x6]
   12242                      .dwattr DW$1088, DW_AT_accessibility(DW_ACCESS_public)
   12243                      .dwendtag DW$T$42
   12244              
   12245              
   12246              DW$T$49 .dwtag  DW_TAG_structure_type
   12247                      .dwattr DW$T$49, DW_AT_byte_size(0x0a)
   12248              DW$1089 .dwtag  DW_TAG_member, DW_AT_type(*DW$T$11)
   12249                      .dwattr DW$1089, DW_AT_name("x"), DW_AT_symbol_name("_x")
   12250                      .dwattr DW$1089, DW_AT_data_member_location[DW_OP_plus_uconst 0x0]
   12251                      .dwattr DW$1089, DW_AT_accessibility(DW_ACCESS_public)
   12252              DW$1090 .dwtag  DW_TAG_member, DW_AT_type(*DW$T$11)
   12253                      .dwattr DW$1090, DW_AT_name("y"), DW_AT_symbol_name("_y")
   12254                      .dwattr DW$1090, DW_AT_data_member_location[DW_OP_plus_uconst 0x1]
   12255                      .dwattr DW$1090, DW_AT_accessibility(DW_ACCESS_public)
   12256              DW$1091 .dwtag  DW_TAG_member, DW_AT_type(*DW$T$11)
   12257                      .dwattr DW$1091, DW_AT_name("wide"), DW_AT_symbol_name("_wide")
   12258                      .dwattr DW$1091, DW_AT_data_member_location[DW_OP_plus_uconst 0x2]
   12259                      .dwattr DW$1091, DW_AT_accessibility(DW_ACCESS_public)
   12260              DW$1092 .dwtag  DW_TAG_member, DW_AT_type(*DW$T$11)
   12261                      .dwattr DW$1092, DW_AT_name("high"), DW_AT_symbol_name("_high")
   12262                      .dwattr DW$1092, DW_AT_data_member_location[DW_OP_plus_uconst 0x3]
   12263                      .dwattr DW$1092, DW_AT_accessibility(DW_ACCESS_public)
   12264              DW$1093 .dwtag  DW_TAG_member, DW_AT_type(*DW$T$19)
   12265                      .dwattr DW$1093, DW_AT_name("occupy_flag"), DW_AT_symbol_name("_occupy_flag")
   12266                      .dwattr DW$1093, DW_AT_data_member_location[DW_OP_plus_uconst 0x4]
   12267                      .dwattr DW$1093, DW_AT_accessibility(DW_ACCESS_public)
   12268              DW$1094 .dwtag  DW_TAG_member, DW_AT_type(*DW$T$19)
   12269                      .dwattr DW$1094, DW_AT_name("flicker_flag"), DW_AT_symbol_name("_flicker_flag")
   12270                      .dwattr DW$1094, DW_AT_data_member_location[DW_OP_plus_uconst 0x5]
   12271                      .dwattr DW$1094, DW_AT_accessibility(DW_ACCESS_public)
   12272              DW$1095 .dwtag  DW_TAG_member, DW_AT_type(*DW$T$3)
   12273                      .dwattr DW$1095, DW_AT_name("csr_shadow"), DW_AT_symbol_name("_csr_shadow")
   12274                      .dwattr DW$1095, DW_AT_data_member_location[DW_OP_plus_uconst 0x6]
   12275                      .dwattr DW$1095, DW_AT_accessibility(DW_ACCESS_public)
   12276              DW$1096 .dwtag  DW_TAG_member, DW_AT_type(*DW$T$48)
   12277                      .dwattr DW$1096, DW_AT_name("csr_tmr_id"), DW_AT_symbol_name("_csr_tmr_id")
   12278                      .dwattr DW$1096, DW_AT_data_member_location[DW_OP_plus_uconst 0x8]
   12279                      .dwattr DW$1096, DW_AT_accessibility(DW_ACCESS_public)
   12280                      .dwendtag DW$T$49
   12281              
   12282              
TMS320C2000 COFF Assembler PC v4.1.3 Thu Nov 29 16:03:34 2012

Tools Copyright (c) 1996-2006 Texas Instruments Incorporated
C:\DOCUME~1\ADMINI~1\LOCALS~1\Temp\TI9882                            PAGE  237

   12283              DW$T$51 .dwtag  DW_TAG_structure_type
   12284                      .dwattr DW$T$51, DW_AT_byte_size(0x1e)
   12285              DW$1097 .dwtag  DW_TAG_member, DW_AT_type(*DW$T$50)
   12286                      .dwattr DW$1097, DW_AT_name("button_title"), DW_AT_symbol_name("_button_title")
   12287                      .dwattr DW$1097, DW_AT_data_member_location[DW_OP_plus_uconst 0x0]
   12288                      .dwattr DW$1097, DW_AT_accessibility(DW_ACCESS_public)
   12289              DW$1098 .dwtag  DW_TAG_member, DW_AT_type(*DW$T$21)
   12290                      .dwattr DW$1098, DW_AT_name("button_icon"), DW_AT_symbol_name("_button_icon")
   12291                      .dwattr DW$1098, DW_AT_data_member_location[DW_OP_plus_uconst 0x16]
   12292                      .dwattr DW$1098, DW_AT_accessibility(DW_ACCESS_public)
   12293              DW$1099 .dwtag  DW_TAG_member, DW_AT_type(*DW$T$10)
   12294                      .dwattr DW$1099, DW_AT_name("button_state"), DW_AT_symbol_name("_button_state")
   12295                      .dwattr DW$1099, DW_AT_data_member_location[DW_OP_plus_uconst 0x18]
   12296                      .dwattr DW$1099, DW_AT_accessibility(DW_ACCESS_public)
   12297              DW$1100 .dwtag  DW_TAG_member, DW_AT_type(*DW$T$11)
   12298                      .dwattr DW$1100, DW_AT_name("button_bg_color"), DW_AT_symbol_name("_button_bg_color")
   12299                      .dwattr DW$1100, DW_AT_data_member_location[DW_OP_plus_uconst 0x19]
   12300                      .dwattr DW$1100, DW_AT_accessibility(DW_ACCESS_public)
   12301              DW$1101 .dwtag  DW_TAG_member, DW_AT_type(*DW$T$11)
   12302                      .dwattr DW$1101, DW_AT_name("button_txt_color"), DW_AT_symbol_name("_button_txt_color")
   12303                      .dwattr DW$1101, DW_AT_data_member_location[DW_OP_plus_uconst 0x1a]
   12304                      .dwattr DW$1101, DW_AT_accessibility(DW_ACCESS_public)
   12305              DW$1102 .dwtag  DW_TAG_member, DW_AT_type(*DW$T$44)
   12306                      .dwattr DW$1102, DW_AT_name("buttoncallback"), DW_AT_symbol_name("_buttoncallback")
   12307                      .dwattr DW$1102, DW_AT_data_member_location[DW_OP_plus_uconst 0x1c]
   12308                      .dwattr DW$1102, DW_AT_accessibility(DW_ACCESS_public)
   12309                      .dwendtag DW$T$51
   12310              
   12311              
   12312              DW$T$57 .dwtag  DW_TAG_structure_type
   12313                      .dwattr DW$T$57, DW_AT_byte_size(0x10)
   12314              DW$1103 .dwtag  DW_TAG_member, DW_AT_type(*DW$T$27)
   12315                      .dwattr DW$1103, DW_AT_name("member_type"), DW_AT_symbol_name("_member_type")
   12316                      .dwattr DW$1103, DW_AT_data_member_location[DW_OP_plus_uconst 0x0]
   12317                      .dwattr DW$1103, DW_AT_accessibility(DW_ACCESS_public)
   12318              DW$1104 .dwtag  DW_TAG_member, DW_AT_type(*DW$T$27)
   12319                      .dwattr DW$1104, DW_AT_name("member_id"), DW_AT_symbol_name("_member_id")
   12320                      .dwattr DW$1104, DW_AT_data_member_location[DW_OP_plus_uconst 0x1]
   12321                      .dwattr DW$1104, DW_AT_accessibility(DW_ACCESS_public)
   12322              DW$1105 .dwtag  DW_TAG_member, DW_AT_type(*DW$T$52)
   12323                      .dwattr DW$1105, DW_AT_name("member_title"), DW_AT_symbol_name("_member_title")
   12324                      .dwattr DW$1105, DW_AT_data_member_location[DW_OP_plus_uconst 0x2]
   12325                      .dwattr DW$1105, DW_AT_accessibility(DW_ACCESS_public)
   12326              DW$1106 .dwtag  DW_TAG_member, DW_AT_type(*DW$T$11)
   12327                      .dwattr DW$1106, DW_AT_name("x"), DW_AT_symbol_name("_x")
   12328                      .dwattr DW$1106, DW_AT_data_member_location[DW_OP_plus_uconst 0x4]
   12329                      .dwattr DW$1106, DW_AT_accessibility(DW_ACCESS_public)
   12330              DW$1107 .dwtag  DW_TAG_member, DW_AT_type(*DW$T$11)
   12331                      .dwattr DW$1107, DW_AT_name("y"), DW_AT_symbol_name("_y")
   12332                      .dwattr DW$1107, DW_AT_data_member_location[DW_OP_plus_uconst 0x5]
   12333                      .dwattr DW$1107, DW_AT_accessibility(DW_ACCESS_public)
   12334              DW$1108 .dwtag  DW_TAG_member, DW_AT_type(*DW$T$11)
   12335                      .dwattr DW$1108, DW_AT_name("wide"), DW_AT_symbol_name("_wide")
   12336                      .dwattr DW$1108, DW_AT_data_member_location[DW_OP_plus_uconst 0x6]
   12337                      .dwattr DW$1108, DW_AT_accessibility(DW_ACCESS_public)
TMS320C2000 COFF Assembler PC v4.1.3 Thu Nov 29 16:03:34 2012

Tools Copyright (c) 1996-2006 Texas Instruments Incorporated
C:\DOCUME~1\ADMINI~1\LOCALS~1\Temp\TI9882                            PAGE  238

   12338              DW$1109 .dwtag  DW_TAG_member, DW_AT_type(*DW$T$11)
   12339                      .dwattr DW$1109, DW_AT_name("high"), DW_AT_symbol_name("_high")
   12340                      .dwattr DW$1109, DW_AT_data_member_location[DW_OP_plus_uconst 0x7]
   12341                      .dwattr DW$1109, DW_AT_accessibility(DW_ACCESS_public)
   12342              DW$1110 .dwtag  DW_TAG_member, DW_AT_type(*DW$T$27)
   12343                      .dwattr DW$1110, DW_AT_name("flag"), DW_AT_symbol_name("_flag")
   12344                      .dwattr DW$1110, DW_AT_data_member_location[DW_OP_plus_uconst 0x8]
   12345                      .dwattr DW$1110, DW_AT_accessibility(DW_ACCESS_public)
   12346              DW$1111 .dwtag  DW_TAG_member, DW_AT_type(*DW$T$3)
   12347                      .dwattr DW$1111, DW_AT_name("parg"), DW_AT_symbol_name("_parg")
   12348                      .dwattr DW$1111, DW_AT_data_member_location[DW_OP_plus_uconst 0xa]
   12349                      .dwattr DW$1111, DW_AT_accessibility(DW_ACCESS_public)
   12350              DW$1112 .dwtag  DW_TAG_member, DW_AT_type(*DW$T$27)
   12351                      .dwattr DW$1112, DW_AT_name("arg_size"), DW_AT_symbol_name("_arg_size")
   12352                      .dwattr DW$1112, DW_AT_data_member_location[DW_OP_plus_uconst 0xc]
   12353                      .dwattr DW$1112, DW_AT_accessibility(DW_ACCESS_public)
   12354              DW$1113 .dwtag  DW_TAG_member, DW_AT_type(*DW$T$56)
   12355                      .dwattr DW$1113, DW_AT_name("callblack"), DW_AT_symbol_name("_callblack")
   12356                      .dwattr DW$1113, DW_AT_data_member_location[DW_OP_plus_uconst 0xe]
   12357                      .dwattr DW$1113, DW_AT_accessibility(DW_ACCESS_public)
   12358                      .dwendtag DW$T$57
   12359              
   12360              
   12361              DW$T$58 .dwtag  DW_TAG_structure_type
   12362                      .dwattr DW$T$58, DW_AT_byte_size(0x03)
   12363              DW$1114 .dwtag  DW_TAG_member, DW_AT_type(*DW$T$27)
   12364                      .dwattr DW$1114, DW_AT_name("x"), DW_AT_symbol_name("_x")
   12365                      .dwattr DW$1114, DW_AT_data_member_location[DW_OP_plus_uconst 0x0]
   12366                      .dwattr DW$1114, DW_AT_accessibility(DW_ACCESS_public)
   12367              DW$1115 .dwtag  DW_TAG_member, DW_AT_type(*DW$T$27)
   12368                      .dwattr DW$1115, DW_AT_name("y"), DW_AT_symbol_name("_y")
   12369                      .dwattr DW$1115, DW_AT_data_member_location[DW_OP_plus_uconst 0x1]
   12370                      .dwattr DW$1115, DW_AT_accessibility(DW_ACCESS_public)
   12371              DW$1116 .dwtag  DW_TAG_member, DW_AT_type(*DW$T$27)
   12372                      .dwattr DW$1116, DW_AT_name("state"), DW_AT_symbol_name("_state")
   12373                      .dwattr DW$1116, DW_AT_data_member_location[DW_OP_plus_uconst 0x2]
   12374                      .dwattr DW$1116, DW_AT_accessibility(DW_ACCESS_public)
   12375                      .dwendtag DW$T$58
   12376              
   12377              
   12378              DW$T$59 .dwtag  DW_TAG_structure_type
   12379                      .dwattr DW$T$59, DW_AT_byte_size(0x04)
   12380              DW$1117 .dwtag  DW_TAG_member, DW_AT_type(*DW$T$6)
   12381                      .dwattr DW$1117, DW_AT_name("occupy_flag"), DW_AT_symbol_name("_occupy_flag")
   12382                      .dwattr DW$1117, DW_AT_data_member_location[DW_OP_plus_uconst 0x0]
   12383                      .dwattr DW$1117, DW_AT_accessibility(DW_ACCESS_public)
   12384              DW$1118 .dwtag  DW_TAG_member, DW_AT_type(*DW$T$6)
   12385                      .dwattr DW$1118, DW_AT_name("member_id"), DW_AT_symbol_name("_member_id")
   12386                      .dwattr DW$1118, DW_AT_data_member_location[DW_OP_plus_uconst 0x1]
   12387                      .dwattr DW$1118, DW_AT_accessibility(DW_ACCESS_public)
   12388              DW$1119 .dwtag  DW_TAG_member, DW_AT_type(*DW$T$54)
   12389                      .dwattr DW$1119, DW_AT_name("pmember"), DW_AT_symbol_name("_pmember")
   12390                      .dwattr DW$1119, DW_AT_data_member_location[DW_OP_plus_uconst 0x2]
   12391                      .dwattr DW$1119, DW_AT_accessibility(DW_ACCESS_public)
   12392                      .dwendtag DW$T$59
TMS320C2000 COFF Assembler PC v4.1.3 Thu Nov 29 16:03:34 2012

Tools Copyright (c) 1996-2006 Texas Instruments Incorporated
C:\DOCUME~1\ADMINI~1\LOCALS~1\Temp\TI9882                            PAGE  239

   12393              
   12394              DW$T$56 .dwtag  DW_TAG_pointer_type, DW_AT_type(*DW$T$55)
   12395                      .dwattr DW$T$56, DW_AT_address_class(0x16)
   12396              DW$T$23 .dwtag  DW_TAG_pointer_type, DW_AT_type(*DW$T$22)
   12397                      .dwattr DW$T$23, DW_AT_address_class(0x16)
   12398              
   12399              DW$T$41 .dwtag  DW_TAG_array_type, DW_AT_type(*DW$T$39)
   12400                      .dwattr DW$T$41, DW_AT_language(DW_LANG_C)
   12401                      .dwattr DW$T$41, DW_AT_byte_size(0x08)
   12402              DW$1120 .dwtag  DW_TAG_subrange_type
   12403                      .dwattr DW$1120, DW_AT_upper_bound(0x07)
   12404                      .dwendtag DW$T$41
   12405              
   12406              
   12407              DW$T$50 .dwtag  DW_TAG_array_type, DW_AT_type(*DW$T$19)
   12408                      .dwattr DW$T$50, DW_AT_language(DW_LANG_C)
   12409                      .dwattr DW$T$50, DW_AT_byte_size(0x16)
   12410              DW$1121 .dwtag  DW_TAG_subrange_type
   12411                      .dwattr DW$1121, DW_AT_upper_bound(0x15)
   12412                      .dwendtag DW$T$50
   12413              
   12414              DW$1122 .dwtag  DW_TAG_far_type
   12415                      .dwattr DW$1122, DW_AT_type(*DW$T$26)
   12416              DW$T$24 .dwtag  DW_TAG_const_type
   12417                      .dwattr DW$T$24, DW_AT_type(*DW$1122)
   12418              DW$T$48 .dwtag  DW_TAG_pointer_type, DW_AT_type(*DW$T$47)
   12419                      .dwattr DW$T$48, DW_AT_address_class(0x16)
   12420              DW$1123 .dwtag  DW_TAG_far_type
   12421                      .dwattr DW$1123, DW_AT_type(*DW$T$6)
   12422              DW$T$22 .dwtag  DW_TAG_const_type
   12423                      .dwattr DW$T$22, DW_AT_type(*DW$1123)
   12424              DW$T$47 .dwtag  DW_TAG_typedef, DW_AT_name("tmr_member_t"), DW_AT_type(*DW$T$46)
   12425                      .dwattr DW$T$47, DW_AT_language(DW_LANG_C)
   12426              
   12427              DW$T$46 .dwtag  DW_TAG_structure_type
   12428                      .dwattr DW$T$46, DW_AT_byte_size(0x0a)
   12429              DW$1124 .dwtag  DW_TAG_member, DW_AT_type(*DW$T$45)
   12430                      .dwattr DW$1124, DW_AT_name("function"), DW_AT_symbol_name("_function")
   12431                      .dwattr DW$1124, DW_AT_data_member_location[DW_OP_plus_uconst 0x0]
   12432                      .dwattr DW$1124, DW_AT_accessibility(DW_ACCESS_public)
   12433              DW$1125 .dwtag  DW_TAG_member, DW_AT_type(*DW$T$13)
   12434                      .dwattr DW$1125, DW_AT_name("expires"), DW_AT_symbol_name("_expires")
   12435                      .dwattr DW$1125, DW_AT_data_member_location[DW_OP_plus_uconst 0x2]
   12436                      .dwattr DW$1125, DW_AT_accessibility(DW_ACCESS_public)
   12437              DW$1126 .dwtag  DW_TAG_member, DW_AT_type(*DW$T$27)
   12438                      .dwattr DW$1126, DW_AT_name("tmr_state"), DW_AT_symbol_name("_tmr_state")
   12439                      .dwattr DW$1126, DW_AT_data_member_location[DW_OP_plus_uconst 0x4]
   12440                      .dwattr DW$1126, DW_AT_accessibility(DW_ACCESS_public)
   12441              DW$1127 .dwtag  DW_TAG_member, DW_AT_type(*DW$T$27)
   12442                      .dwattr DW$1127, DW_AT_name("type"), DW_AT_symbol_name("_type")
   12443                      .dwattr DW$1127, DW_AT_data_member_location[DW_OP_plus_uconst 0x5]
   12444                      .dwattr DW$1127, DW_AT_accessibility(DW_ACCESS_public)
   12445              DW$1128 .dwtag  DW_TAG_member, DW_AT_type(*DW$T$13)
   12446                      .dwattr DW$1128, DW_AT_name("auto_load_expires"), DW_AT_symbol_name("_auto_load_expires")
   12447                      .dwattr DW$1128, DW_AT_data_member_location[DW_OP_plus_uconst 0x6]
TMS320C2000 COFF Assembler PC v4.1.3 Thu Nov 29 16:03:34 2012

Tools Copyright (c) 1996-2006 Texas Instruments Incorporated
C:\DOCUME~1\ADMINI~1\LOCALS~1\Temp\TI9882                            PAGE  240

   12448                      .dwattr DW$1128, DW_AT_accessibility(DW_ACCESS_public)
   12449              DW$1129 .dwtag  DW_TAG_member, DW_AT_type(*DW$T$3)
   12450                      .dwattr DW$1129, DW_AT_name("p_arg"), DW_AT_symbol_name("_p_arg")
   12451                      .dwattr DW$1129, DW_AT_data_member_location[DW_OP_plus_uconst 0x8]
   12452                      .dwattr DW$1129, DW_AT_accessibility(DW_ACCESS_public)
   12453                      .dwendtag DW$T$46
   12454              
   12455              DW$T$45 .dwtag  DW_TAG_typedef, DW_AT_name("tmr_callblack"), DW_AT_type(*DW$T$44)
   12456                      .dwattr DW$T$45, DW_AT_language(DW_LANG_C)
   12457              
   12458                      .dwattr DW$275, DW_AT_external(0x01)
   12459                      .dwattr DW$269, DW_AT_external(0x01)
   12460                      .dwattr DW$712, DW_AT_external(0x01)
   12461                      .dwattr DW$712, DW_AT_type(*DW$T$10)
   12462                      .dwattr DW$702, DW_AT_external(0x01)
   12463                      .dwattr DW$711, DW_AT_external(0x01)
   12464                      .dwattr DW$328, DW_AT_external(0x01)
   12465                      .dwattr DW$338, DW_AT_external(0x01)
   12466                      .dwattr DW$331, DW_AT_external(0x01)
   12467                      .dwattr DW$373, DW_AT_external(0x01)
   12468                      .dwattr DW$406, DW_AT_external(0x01)
   12469                      .dwattr DW$276, DW_AT_type(*DW$T$223)
   12470                      .dwattr DW$420, DW_AT_external(0x01)
   12471                      .dwattr DW$420, DW_AT_type(*DW$T$37)
   12472                      .dwattr DW$425, DW_AT_external(0x01)
   12473                      .dwattr DW$367, DW_AT_external(0x01)
   12474                      .dwattr DW$356, DW_AT_external(0x01)
   12475                      .dwattr DW$345, DW_AT_external(0x01)
   12476                      .dwattr DW$412, DW_AT_external(0x01)
   12477                      .dwattr DW$412, DW_AT_type(*DW$T$37)
   12478                      .dwattr DW$426, DW_AT_external(0x01)
   12479                      .dwattr DW$426, DW_AT_type(*DW$T$54)
   12480                      .dwattr DW$442, DW_AT_external(0x01)
   12481                      .dwattr DW$439, DW_AT_external(0x01)
   12482                      .dwattr DW$439, DW_AT_type(*DW$T$37)
   12483                      .dwattr DW$458, DW_AT_external(0x01)
   12484                      .dwattr DW$458, DW_AT_type(*DW$T$54)
   12485                      .dwattr DW$496, DW_AT_external(0x01)
   12486                      .dwattr DW$450, DW_AT_external(0x01)
   12487                      .dwattr DW$450, DW_AT_type(*DW$T$54)
   12488                      .dwattr DW$564, DW_AT_external(0x01)
   12489                      .dwattr DW$560, DW_AT_external(0x01)
   12490                      .dwattr DW$560, DW_AT_type(*DW$T$27)
   12491                      .dwattr DW$622, DW_AT_external(0x01)
   12492                      .dwattr DW$622, DW_AT_type(*DW$T$27)
   12493                      .dwattr DW$576, DW_AT_external(0x01)
   12494                      .dwattr DW$626, DW_AT_external(0x01)
   12495                      .dwattr DW$583, DW_AT_external(0x01)
   12496                      .dwattr DW$583, DW_AT_type(*DW$T$54)
   12497                      .dwattr DW$669, DW_AT_external(0x01)
   12498                      .dwattr DW$665, DW_AT_external(0x01)
   12499                      .dwattr DW$652, DW_AT_external(0x01)
   12500                      .dwattr DW$624, DW_AT_external(0x01)
   12501                      .dwattr DW$624, DW_AT_type(*DW$T$27)
   12502                      .dwattr DW$692, DW_AT_external(0x01)
TMS320C2000 COFF Assembler PC v4.1.3 Thu Nov 29 16:03:34 2012

Tools Copyright (c) 1996-2006 Texas Instruments Incorporated
C:\DOCUME~1\ADMINI~1\LOCALS~1\Temp\TI9882                            PAGE  241

   12503                      .dwattr DW$646, DW_AT_external(0x01)
   12504                      .dwattr DW$574, DW_AT_external(0x01)
   12505                      .dwattr DW$574, DW_AT_type(*DW$T$35)
   12506                      .dwattr DW$569, DW_AT_external(0x01)
   12507                      .dwattr DW$595, DW_AT_external(0x01)
   12508                      .dwattr DW$608, DW_AT_external(0x01)
   12509                      .dwattr DW$608, DW_AT_type(*DW$T$37)
   12510                      .dwattr DW$615, DW_AT_external(0x01)
   12511                      .dwattr DW$615, DW_AT_type(*DW$T$37)
   12512                      .dwattr DW$683, DW_AT_external(0x01)
   12513                      .dwattr DW$683, DW_AT_type(*DW$T$6)
   12514                      .dwattr DW$628, DW_AT_external(0x01)
   12515                      .dwattr DW$634, DW_AT_external(0x01)
   12516                      .dwattr DW$639, DW_AT_external(0x01)
   12517                      .dwattr DW$662, DW_AT_external(0x01)
   12518                      .dwattr DW$762, DW_AT_external(0x01)
   12519                      .dwattr DW$762, DW_AT_type(*DW$T$54)
   12520                      .dwattr DW$785, DW_AT_external(0x01)
   12521                      .dwattr DW$785, DW_AT_type(*DW$T$27)
   12522                      .dwattr DW$797, DW_AT_type(*DW$T$37)
   12523                      .dwattr DW$774, DW_AT_external(0x01)
   12524                      .dwattr DW$808, DW_AT_external(0x01)
   12525                      .dwattr DW$808, DW_AT_type(*DW$T$37)
   12526                      .dwattr DW$788, DW_AT_external(0x01)
   12527                      .dwattr DW$693, DW_AT_external(0x01)
   12528                      .dwattr DW$831, DW_AT_external(0x01)
   12529                      .dwattr DW$497, DW_AT_external(0x01)
   12530                      .dwattr DW$498, DW_AT_external(0x01)
   12531                      .dwattr DW$498, DW_AT_type(*DW$T$37)
   12532                      .dwattr DW$256, DW_AT_external(0x01)
   12533                      .dwattr DW$256, DW_AT_type(*DW$T$54)
   12534                      .dwattr DW$249, DW_AT_external(0x01)
   12535                      .dwattr DW$733, DW_AT_external(0x01)
   12536                      .dwattr DW$279, DW_AT_external(0x01)
   12537                      .dwattr DW$279, DW_AT_type(*DW$T$54)
   12538                      .dwattr DW$398, DW_AT_external(0x01)
   12539                      .dwattr DW$387, DW_AT_external(0x01)
   12540                      .dwattr DW$382, DW_AT_external(0x01)
   12541                      .dwattr DW$505, DW_AT_external(0x01)
   12542                      .dwattr DW$505, DW_AT_type(*DW$T$54)
   12543                      .dwattr DW$504, DW_AT_external(0x01)
   12544                      .dwattr DW$530, DW_AT_external(0x01)
   12545                      .dwattr DW$499, DW_AT_external(0x01)
   12546                      .dwattr DW$752, DW_AT_external(0x01)
   12547                      .dwattr DW$734, DW_AT_external(0x01)
   12548                      .dwattr DW$734, DW_AT_type(*DW$T$54)
   12549                      .dwattr DW$759, DW_AT_external(0x01)
   12550                      .dwattr DW$747, DW_AT_external(0x01)
   12551                      .dwattr DW$819, DW_AT_external(0x01)
   12552                      .dwattr DW$819, DW_AT_type(*DW$T$54)
   12553                      .dwattr DW$CU, DW_AT_language(DW_LANG_C)
   12554              
   12555              ;***************************************************************
   12556              ;* DWARF CIE ENTRIES                                           *
   12557              ;***************************************************************
TMS320C2000 COFF Assembler PC v4.1.3 Thu Nov 29 16:03:34 2012

Tools Copyright (c) 1996-2006 Texas Instruments Incorporated
C:\DOCUME~1\ADMINI~1\LOCALS~1\Temp\TI9882                            PAGE  242

   12558              
   12559              DW$CIE  .dwcie 1, 40
   12560                      .dwcfa  0x0c, 20, 0
   12561                      .dwcfa  0x07, 0
   12562                      .dwcfa  0x07, 1
   12563                      .dwcfa  0x07, 2
   12564                      .dwcfa  0x07, 3
   12565                      .dwcfa  0x07, 4
   12566                      .dwcfa  0x07, 5
   12567                      .dwcfa  0x08, 6
   12568                      .dwcfa  0x08, 7
   12569                      .dwcfa  0x08, 8
   12570                      .dwcfa  0x08, 9
   12571                      .dwcfa  0x08, 10
   12572                      .dwcfa  0x08, 11
   12573                      .dwcfa  0x07, 12
   12574                      .dwcfa  0x07, 13
   12575                      .dwcfa  0x07, 14
   12576                      .dwcfa  0x07, 15
   12577                      .dwcfa  0x07, 16
   12578                      .dwcfa  0x07, 17
   12579                      .dwcfa  0x07, 18
   12580                      .dwcfa  0x07, 19
   12581                      .dwcfa  0x07, 20
   12582                      .dwcfa  0x07, 21
   12583                      .dwcfa  0x07, 22
   12584                      .dwcfa  0x07, 23
   12585                      .dwcfa  0x07, 24
   12586                      .dwcfa  0x07, 25
   12587                      .dwcfa  0x07, 26
   12588                      .dwcfa  0x08, 27
   12589                      .dwcfa  0x07, 28
   12590                      .dwcfa  0x07, 29
   12591                      .dwcfa  0x07, 30
   12592                      .dwcfa  0x07, 31
   12593                      .dwcfa  0x07, 32
   12594                      .dwcfa  0x07, 33
   12595                      .dwcfa  0x07, 34
   12596                      .dwcfa  0x07, 35
   12597                      .dwcfa  0x07, 36
   12598                      .dwcfa  0x07, 37
   12599                      .dwcfa  0x07, 38
   12600                      .dwcfa  0x07, 39
   12601                      .dwcfa  0x07, 40
   12602              
   12603              ;***************************************************************
   12604              ;* DWARF REGISTER MAP                                          *
   12605              ;***************************************************************
   12606              
   12607              DW$1130 .dwtag  DW_TAG_assign_register, DW_AT_name("AL")
   12608                      .dwattr DW$1130, DW_AT_location[DW_OP_reg0]
   12609              DW$1131 .dwtag  DW_TAG_assign_register, DW_AT_name("AH")
   12610                      .dwattr DW$1131, DW_AT_location[DW_OP_reg1]
   12611              DW$1132 .dwtag  DW_TAG_assign_register, DW_AT_name("PL")
   12612                      .dwattr DW$1132, DW_AT_location[DW_OP_reg2]
TMS320C2000 COFF Assembler PC v4.1.3 Thu Nov 29 16:03:34 2012

Tools Copyright (c) 1996-2006 Texas Instruments Incorporated
C:\DOCUME~1\ADMINI~1\LOCALS~1\Temp\TI9882                            PAGE  243

   12613              DW$1133 .dwtag  DW_TAG_assign_register, DW_AT_name("PH")
   12614                      .dwattr DW$1133, DW_AT_location[DW_OP_reg3]
   12615              DW$1134 .dwtag  DW_TAG_assign_register, DW_AT_name("AR0")
   12616                      .dwattr DW$1134, DW_AT_location[DW_OP_reg4]
   12617              DW$1135 .dwtag  DW_TAG_assign_register, DW_AT_name("XAR0")
   12618                      .dwattr DW$1135, DW_AT_location[DW_OP_reg5]
   12619              DW$1136 .dwtag  DW_TAG_assign_register, DW_AT_name("AR1")
   12620                      .dwattr DW$1136, DW_AT_location[DW_OP_reg6]
   12621              DW$1137 .dwtag  DW_TAG_assign_register, DW_AT_name("XAR1")
   12622                      .dwattr DW$1137, DW_AT_location[DW_OP_reg7]
   12623              DW$1138 .dwtag  DW_TAG_assign_register, DW_AT_name("AR2")
   12624                      .dwattr DW$1138, DW_AT_location[DW_OP_reg8]
   12625              DW$1139 .dwtag  DW_TAG_assign_register, DW_AT_name("XAR2")
   12626                      .dwattr DW$1139, DW_AT_location[DW_OP_reg9]
   12627              DW$1140 .dwtag  DW_TAG_assign_register, DW_AT_name("AR3")
   12628                      .dwattr DW$1140, DW_AT_location[DW_OP_reg10]
   12629              DW$1141 .dwtag  DW_TAG_assign_register, DW_AT_name("XAR3")
   12630                      .dwattr DW$1141, DW_AT_location[DW_OP_reg11]
   12631              DW$1142 .dwtag  DW_TAG_assign_register, DW_AT_name("AR4")
   12632                      .dwattr DW$1142, DW_AT_location[DW_OP_reg12]
   12633              DW$1143 .dwtag  DW_TAG_assign_register, DW_AT_name("XAR4")
   12634                      .dwattr DW$1143, DW_AT_location[DW_OP_reg13]
   12635              DW$1144 .dwtag  DW_TAG_assign_register, DW_AT_name("AR5")
   12636                      .dwattr DW$1144, DW_AT_location[DW_OP_reg14]
   12637              DW$1145 .dwtag  DW_TAG_assign_register, DW_AT_name("XAR5")
   12638                      .dwattr DW$1145, DW_AT_location[DW_OP_reg15]
   12639              DW$1146 .dwtag  DW_TAG_assign_register, DW_AT_name("AR6")
   12640                      .dwattr DW$1146, DW_AT_location[DW_OP_reg16]
   12641              DW$1147 .dwtag  DW_TAG_assign_register, DW_AT_name("XAR6")
   12642                      .dwattr DW$1147, DW_AT_location[DW_OP_reg17]
   12643              DW$1148 .dwtag  DW_TAG_assign_register, DW_AT_name("AR7")
   12644                      .dwattr DW$1148, DW_AT_location[DW_OP_reg18]
   12645              DW$1149 .dwtag  DW_TAG_assign_register, DW_AT_name("XAR7")
   12646                      .dwattr DW$1149, DW_AT_location[DW_OP_reg19]
   12647              DW$1150 .dwtag  DW_TAG_assign_register, DW_AT_name("SP")
   12648                      .dwattr DW$1150, DW_AT_location[DW_OP_reg20]
   12649              DW$1151 .dwtag  DW_TAG_assign_register, DW_AT_name("XT")
   12650                      .dwattr DW$1151, DW_AT_location[DW_OP_reg21]
   12651              DW$1152 .dwtag  DW_TAG_assign_register, DW_AT_name("T")
   12652                      .dwattr DW$1152, DW_AT_location[DW_OP_reg22]
   12653              DW$1153 .dwtag  DW_TAG_assign_register, DW_AT_name("ST0")
   12654                      .dwattr DW$1153, DW_AT_location[DW_OP_reg23]
   12655              DW$1154 .dwtag  DW_TAG_assign_register, DW_AT_name("ST1")
   12656                      .dwattr DW$1154, DW_AT_location[DW_OP_reg24]
   12657              DW$1155 .dwtag  DW_TAG_assign_register, DW_AT_name("PC")
   12658                      .dwattr DW$1155, DW_AT_location[DW_OP_reg25]
   12659              DW$1156 .dwtag  DW_TAG_assign_register, DW_AT_name("RPC")
   12660                      .dwattr DW$1156, DW_AT_location[DW_OP_reg26]
   12661              DW$1157 .dwtag  DW_TAG_assign_register, DW_AT_name("FP")
   12662                      .dwattr DW$1157, DW_AT_location[DW_OP_reg27]
   12663              DW$1158 .dwtag  DW_TAG_assign_register, DW_AT_name("DP")
   12664                      .dwattr DW$1158, DW_AT_location[DW_OP_reg28]
   12665              DW$1159 .dwtag  DW_TAG_assign_register, DW_AT_name("SXM")
   12666                      .dwattr DW$1159, DW_AT_location[DW_OP_reg29]
   12667              DW$1160 .dwtag  DW_TAG_assign_register, DW_AT_name("PM")
TMS320C2000 COFF Assembler PC v4.1.3 Thu Nov 29 16:03:34 2012

Tools Copyright (c) 1996-2006 Texas Instruments Incorporated
C:\DOCUME~1\ADMINI~1\LOCALS~1\Temp\TI9882                            PAGE  244

   12668                      .dwattr DW$1160, DW_AT_location[DW_OP_reg30]
   12669              DW$1161 .dwtag  DW_TAG_assign_register, DW_AT_name("OVM")
   12670                      .dwattr DW$1161, DW_AT_location[DW_OP_reg31]
   12671              DW$1162 .dwtag  DW_TAG_assign_register, DW_AT_name("PAGE0")
   12672                      .dwattr DW$1162, DW_AT_location[DW_OP_regx 0x20]
   12673              DW$1163 .dwtag  DW_TAG_assign_register, DW_AT_name("AMODE")
   12674                      .dwattr DW$1163, DW_AT_location[DW_OP_regx 0x21]
   12675              DW$1164 .dwtag  DW_TAG_assign_register, DW_AT_name("IFR")
   12676                      .dwattr DW$1164, DW_AT_location[DW_OP_regx 0x22]
   12677              DW$1165 .dwtag  DW_TAG_assign_register, DW_AT_name("IER")
   12678                      .dwattr DW$1165, DW_AT_location[DW_OP_regx 0x23]
   12679              DW$1166 .dwtag  DW_TAG_assign_register, DW_AT_name("IER")
   12680                      .dwattr DW$1166, DW_AT_location[DW_OP_regx 0x24]
   12681              DW$1167 .dwtag  DW_TAG_assign_register, DW_AT_name("PSEUDO")
   12682                      .dwattr DW$1167, DW_AT_location[DW_OP_regx 0x25]
   12683              DW$1168 .dwtag  DW_TAG_assign_register, DW_AT_name("PSEUDOH")
   12684                      .dwattr DW$1168, DW_AT_location[DW_OP_regx 0x26]
   12685              DW$1169 .dwtag  DW_TAG_assign_register, DW_AT_name("VOL")
   12686                      .dwattr DW$1169, DW_AT_location[DW_OP_regx 0x27]
   12687              DW$1170 .dwtag  DW_TAG_assign_register, DW_AT_name("CIE_RETA")
   12688                      .dwattr DW$1170, DW_AT_location[DW_OP_regx 0x28]
   12689                      .dwendtag DW$CU
   12690              

No Assembly Errors, No Assembly Warnings
