TMS320C2000 COFF Assembler PC v4.1.3 Thu Aug 04 16:21:37 2011

Tools Copyright (c) 1996-2006 Texas Instruments Incorporated
C:\DOCUME~1\ADMINI~1\LOCALS~1\Temp\TI8402                            PAGE    1

       1              ;***************************************************************
       2              ;* TMS320C2000 C/C++ Codegen                         PC v4.1.3 *
       3              ;* Date/Time created: Thu Aug 04 16:21:36 2011                 *
       4              ;***************************************************************
       5                      .compiler_opts --mem_model:code=flat --mem_model:data=large --silicon_version=28 
       6        0002  FP      .set    XAR2
       7              
       8              DW$CU   .dwtag  DW_TAG_compile_unit
       9                      .dwattr DW$CU, DW_AT_name("app_support.c")
      10                      .dwattr DW$CU, DW_AT_producer("TMS320C2000 C/C++ Codegen PC v4.1.3 Copyright (c) 1996-2006 Texas Inst
      11                      .dwattr DW$CU, DW_AT_stmt_list(0x00)
      12                      .dwattr DW$CU, DW_AT_TI_VERSION(0x01)
      13              ;**************************************************************
      14              ;* CINIT RECORDS                                              *
      15              ;**************************************************************
      16 00000000               .sect   ".cinit"
      17                      .align  1
      18 00000000 FFFE          .field          -2,16
      19 00000001 0000-         .field          _m_os_pmem+0,32
         00000002 0000 
      20 00000003 0000          .field          0,32                    ; _m_os_pmem @ 0
         00000004 0000 
      21              
      22 00000005               .sect   ".cinit"
      23                      .align  1
      24 00000005 FFFE          .field          -2,16
      25 00000006 0002-         .field          _m_mem_lock+0,32
         00000007 0000 
      26 00000008 0000          .field          0,32                    ; _m_mem_lock @ 0
         00000009 0000 
      27              
      28 0000000a               .sect   ".cinit"
      29                      .align  1
      30 0000000a FFFE          .field          -2,16
      31 0000000b 0004-         .field          _m_link_list_lock+0,32
         0000000c 0000 
      32 0000000d 0000          .field          0,32                    ; _m_link_list_lock @ 0
         0000000e 0000 
      33              
      34 0000000f               .sect   ".cinit"
      35                      .align  1
      36 0000000f FFFE          .field          -2,16
      37 00000010 0006-         .field          _m_timer_lock+0,32
         00000011 0000 
      38 00000012 0000          .field          0,32                    ; _m_timer_lock @ 0
         00000013 0000 
      39              
      40 00000014               .sect   ".cinit"
      41                      .align  1
      42 00000014 FFFE          .field          -2,16
      43 00000015 0008-         .field          _m_timer_array_jiffies+0,32
         00000016 0000 
      44 00000017 0000          .field          0,32                    ; _m_timer_array_jiffies @ 0
         00000018 0000 
      45              
TMS320C2000 COFF Assembler PC v4.1.3 Thu Aug 04 16:21:37 2011

Tools Copyright (c) 1996-2006 Texas Instruments Incorporated
C:\DOCUME~1\ADMINI~1\LOCALS~1\Temp\TI8402                            PAGE    2

      46 00000019               .sect   ".cinit"
      47                      .align  1
      48 00000019 FFFE          .field          -2,16
      49 0000001a 000A-         .field          _m_plink_free+0,32
         0000001b 0000 
      50 0000001c 0000          .field          0,32                    ; _m_plink_free @ 0
         0000001d 0000 
      51              
      52 0000001e               .sect   ".cinit"
      53                      .align  1
      54 0000001e FFFF          .field          -IR_1,16
      55 0000001f 000C-         .field          _m_mem_maneger+0,32
         00000020 0000 
      56 00000021 0000          .field          0,16                    ; _m_mem_maneger._real_size @ 0
      57        0001  IR_1:   .set    1
      58              
      59 00000022               .sect   ".cinit"
      60                      .align  1
      61 00000022 FFFF          .field          -IR_2,16
      62 00000023 0040-         .field          _g_link_list_maneger_tcb+0,32
         00000024 0000 
      63 00000025 0000          .field          0,16                    ; _g_link_list_maneger_tcb._ture_size @ 0
      64        0001  IR_2:   .set    1
      65              
      66 00000026               .sect   ".cinit"
      67                      .align  1
      68 00000026 FFFF          .field          -IR_3,16
      69 00000027 0100-         .field          _m_timer_array+0,32
         00000028 0000 
      70 00000029 0000          .field          0,16                    ; _m_timer_array._ture_size @ 0
      71        0001  IR_3:   .set    1
      72              
      73              
      74              DW$1    .dwtag  DW_TAG_subprogram, DW_AT_name("os_unlock"), DW_AT_symbol_name("_os_unlock")
      75                      .dwattr DW$1, DW_AT_declaration(0x01)
      76                      .dwattr DW$1, DW_AT_external(0x01)
      77              DW$2    .dwtag  DW_TAG_formal_parameter, DW_AT_type(*DW$T$65)
      78                      .dwendtag DW$1
      79              
      80              
      81              DW$3    .dwtag  DW_TAG_subprogram, DW_AT_name("os_lock"), DW_AT_symbol_name("_os_lock")
      82                      .dwattr DW$3, DW_AT_declaration(0x01)
      83                      .dwattr DW$3, DW_AT_external(0x01)
      84              DW$4    .dwtag  DW_TAG_formal_parameter, DW_AT_type(*DW$T$65)
      85                      .dwendtag DW$3
      86              
      87              
      88              DW$5    .dwtag  DW_TAG_subprogram, DW_AT_name("OSTimeDly"), DW_AT_symbol_name("_OSTimeDly")
      89                      .dwattr DW$5, DW_AT_declaration(0x01)
      90                      .dwattr DW$5, DW_AT_external(0x01)
      91              DW$6    .dwtag  DW_TAG_formal_parameter, DW_AT_type(*DW$T$20)
      92                      .dwendtag DW$5
      93              
      94              
      95              DW$7    .dwtag  DW_TAG_subprogram, DW_AT_name("os_lock_creat"), DW_AT_symbol_name("_os_lock_creat")
TMS320C2000 COFF Assembler PC v4.1.3 Thu Aug 04 16:21:37 2011

Tools Copyright (c) 1996-2006 Texas Instruments Incorporated
C:\DOCUME~1\ADMINI~1\LOCALS~1\Temp\TI8402                            PAGE    3

      96                      .dwattr DW$7, DW_AT_type(*DW$T$6)
      97                      .dwattr DW$7, DW_AT_declaration(0x01)
      98                      .dwattr DW$7, DW_AT_external(0x01)
      99              DW$8    .dwtag  DW_TAG_formal_parameter, DW_AT_type(*DW$T$112)
     100                      .dwendtag DW$7
     101              
     102              
     103              DW$9    .dwtag  DW_TAG_subprogram, DW_AT_name("atoi"), DW_AT_symbol_name("_atoi")
     104                      .dwattr DW$9, DW_AT_type(*DW$T$10)
     105                      .dwattr DW$9, DW_AT_declaration(0x01)
     106                      .dwattr DW$9, DW_AT_external(0x01)
     107              DW$10   .dwtag  DW_TAG_formal_parameter, DW_AT_type(*DW$T$141)
     108                      .dwendtag DW$9
     109              
     110              
     111              DW$11   .dwtag  DW_TAG_subprogram, DW_AT_name("memcmp"), DW_AT_symbol_name("_memcmp")
     112                      .dwattr DW$11, DW_AT_type(*DW$T$10)
     113                      .dwattr DW$11, DW_AT_declaration(0x01)
     114                      .dwattr DW$11, DW_AT_external(0x01)
     115              DW$12   .dwtag  DW_TAG_formal_parameter, DW_AT_type(*DW$T$52)
     116              DW$13   .dwtag  DW_TAG_formal_parameter, DW_AT_type(*DW$T$52)
     117              DW$14   .dwtag  DW_TAG_formal_parameter, DW_AT_type(*DW$T$54)
     118                      .dwendtag DW$11
     119              
     120              
     121              DW$15   .dwtag  DW_TAG_subprogram, DW_AT_name("os_task_assign_pro_build"), DW_AT_symbol_name("_os_task_assign
     122                      .dwattr DW$15, DW_AT_type(*DW$T$115)
     123                      .dwattr DW$15, DW_AT_declaration(0x01)
     124                      .dwattr DW$15, DW_AT_external(0x01)
     125              DW$16   .dwtag  DW_TAG_formal_parameter, DW_AT_type(*DW$T$38)
     126              DW$17   .dwtag  DW_TAG_formal_parameter, DW_AT_type(*DW$T$6)
     127              DW$18   .dwtag  DW_TAG_formal_parameter, DW_AT_type(*DW$T$23)
     128                      .dwendtag DW$15
     129              
     130              
     131              DW$19   .dwtag  DW_TAG_subprogram, DW_AT_name("os_task_name_set"), DW_AT_symbol_name("_os_task_name_set")
     132                      .dwattr DW$19, DW_AT_type(*DW$T$6)
     133                      .dwattr DW$19, DW_AT_declaration(0x01)
     134                      .dwattr DW$19, DW_AT_external(0x01)
     135              DW$20   .dwtag  DW_TAG_formal_parameter, DW_AT_type(*DW$T$6)
     136              DW$21   .dwtag  DW_TAG_formal_parameter, DW_AT_type(*DW$T$82)
     137                      .dwendtag DW$19
     138              
     139                      .global _m_os_pmem
     140 00000000       _m_os_pmem:     .usect  ".ebss",2,1,1
     141              DW$22   .dwtag  DW_TAG_variable, DW_AT_name("m_os_pmem"), DW_AT_symbol_name("_m_os_pmem")
     142                      .dwattr DW$22, DW_AT_location[DW_OP_addr _m_os_pmem]
     143                      .dwattr DW$22, DW_AT_type(*DW$T$197)
     144                      .dwattr DW$22, DW_AT_external(0x01)
     145                      .global _m_mem_lock
     146 00000002       _m_mem_lock:    .usect  ".ebss",2,1,1
     147              DW$23   .dwtag  DW_TAG_variable, DW_AT_name("m_mem_lock"), DW_AT_symbol_name("_m_mem_lock")
     148                      .dwattr DW$23, DW_AT_location[DW_OP_addr _m_mem_lock]
     149                      .dwattr DW$23, DW_AT_type(*DW$T$65)
     150                      .dwattr DW$23, DW_AT_external(0x01)
TMS320C2000 COFF Assembler PC v4.1.3 Thu Aug 04 16:21:37 2011

Tools Copyright (c) 1996-2006 Texas Instruments Incorporated
C:\DOCUME~1\ADMINI~1\LOCALS~1\Temp\TI8402                            PAGE    4

     151                      .global _m_link_list_lock
     152 00000004       _m_link_list_lock:      .usect  ".ebss",2,1,1
     153              DW$24   .dwtag  DW_TAG_variable, DW_AT_name("m_link_list_lock"), DW_AT_symbol_name("_m_link_list_lock")
     154                      .dwattr DW$24, DW_AT_location[DW_OP_addr _m_link_list_lock]
     155                      .dwattr DW$24, DW_AT_type(*DW$T$65)
     156                      .dwattr DW$24, DW_AT_external(0x01)
     157                      .global _m_timer_lock
     158 00000006       _m_timer_lock:  .usect  ".ebss",2,1,1
     159              DW$25   .dwtag  DW_TAG_variable, DW_AT_name("m_timer_lock"), DW_AT_symbol_name("_m_timer_lock")
     160                      .dwattr DW$25, DW_AT_location[DW_OP_addr _m_timer_lock]
     161                      .dwattr DW$25, DW_AT_type(*DW$T$65)
     162                      .dwattr DW$25, DW_AT_external(0x01)
     163                      .global _m_timer_array_jiffies
     164 00000008       _m_timer_array_jiffies: .usect  ".ebss",2,1,1
     165              DW$26   .dwtag  DW_TAG_variable, DW_AT_name("m_timer_array_jiffies"), DW_AT_symbol_name("_m_timer_array_jiffi
     166                      .dwattr DW$26, DW_AT_location[DW_OP_addr _m_timer_array_jiffies]
     167                      .dwattr DW$26, DW_AT_type(*DW$T$169)
     168                      .dwattr DW$26, DW_AT_external(0x01)
     169                      .global _m_plink_free
     170 0000000a       _m_plink_free:  .usect  ".ebss",2,1,1
     171              DW$27   .dwtag  DW_TAG_variable, DW_AT_name("m_plink_free"), DW_AT_symbol_name("_m_plink_free")
     172                      .dwattr DW$27, DW_AT_location[DW_OP_addr _m_plink_free]
     173                      .dwattr DW$27, DW_AT_type(*DW$T$35)
     174                      .dwattr DW$27, DW_AT_external(0x01)
     175              
     176              DW$28   .dwtag  DW_TAG_subprogram, DW_AT_name("strcpy"), DW_AT_symbol_name("_strcpy")
     177                      .dwattr DW$28, DW_AT_type(*DW$T$82)
     178                      .dwattr DW$28, DW_AT_declaration(0x01)
     179                      .dwattr DW$28, DW_AT_external(0x01)
     180              DW$29   .dwtag  DW_TAG_formal_parameter, DW_AT_type(*DW$T$82)
     181              DW$30   .dwtag  DW_TAG_formal_parameter, DW_AT_type(*DW$T$141)
     182                      .dwendtag DW$28
     183              
     184              
     185              DW$31   .dwtag  DW_TAG_subprogram, DW_AT_name("strcat"), DW_AT_symbol_name("_strcat")
     186                      .dwattr DW$31, DW_AT_type(*DW$T$82)
     187                      .dwattr DW$31, DW_AT_declaration(0x01)
     188                      .dwattr DW$31, DW_AT_external(0x01)
     189              DW$32   .dwtag  DW_TAG_formal_parameter, DW_AT_type(*DW$T$82)
     190              DW$33   .dwtag  DW_TAG_formal_parameter, DW_AT_type(*DW$T$141)
     191                      .dwendtag DW$31
     192              
     193              
     194              DW$34   .dwtag  DW_TAG_subprogram, DW_AT_name("memcpy"), DW_AT_symbol_name("_memcpy")
     195                      .dwattr DW$34, DW_AT_type(*DW$T$3)
     196                      .dwattr DW$34, DW_AT_declaration(0x01)
     197                      .dwattr DW$34, DW_AT_external(0x01)
     198              DW$35   .dwtag  DW_TAG_formal_parameter, DW_AT_type(*DW$T$3)
     199              DW$36   .dwtag  DW_TAG_formal_parameter, DW_AT_type(*DW$T$52)
     200              DW$37   .dwtag  DW_TAG_formal_parameter, DW_AT_type(*DW$T$13)
     201                      .dwendtag DW$34
     202              
     203              
     204              DW$38   .dwtag  DW_TAG_subprogram, DW_AT_name("strlen"), DW_AT_symbol_name("_strlen")
     205                      .dwattr DW$38, DW_AT_type(*DW$T$54)
TMS320C2000 COFF Assembler PC v4.1.3 Thu Aug 04 16:21:37 2011

Tools Copyright (c) 1996-2006 Texas Instruments Incorporated
C:\DOCUME~1\ADMINI~1\LOCALS~1\Temp\TI8402                            PAGE    5

     206                      .dwattr DW$38, DW_AT_declaration(0x01)
     207                      .dwattr DW$38, DW_AT_external(0x01)
     208              DW$39   .dwtag  DW_TAG_formal_parameter, DW_AT_type(*DW$T$141)
     209                      .dwendtag DW$38
     210              
     211              
     212              DW$40   .dwtag  DW_TAG_subprogram, DW_AT_name("memset"), DW_AT_symbol_name("_memset")
     213                      .dwattr DW$40, DW_AT_type(*DW$T$3)
     214                      .dwattr DW$40, DW_AT_declaration(0x01)
     215                      .dwattr DW$40, DW_AT_external(0x01)
     216              DW$41   .dwtag  DW_TAG_formal_parameter, DW_AT_type(*DW$T$3)
     217              DW$42   .dwtag  DW_TAG_formal_parameter, DW_AT_type(*DW$T$10)
     218              DW$43   .dwtag  DW_TAG_formal_parameter, DW_AT_type(*DW$T$54)
     219                      .dwendtag DW$40
     220              
     221                      .global _m_mem_maneger
     222 0000000c       _m_mem_maneger: .usect  ".ebss",10,1,1
     223              DW$44   .dwtag  DW_TAG_variable, DW_AT_name("m_mem_maneger"), DW_AT_symbol_name("_m_mem_maneger")
     224                      .dwattr DW$44, DW_AT_location[DW_OP_addr _m_mem_maneger]
     225                      .dwattr DW$44, DW_AT_type(*DW$T$205)
     226                      .dwattr DW$44, DW_AT_external(0x01)
     227                      .global _g_link_list_maneger_tcb
     228 00000040       _g_link_list_maneger_tcb:       .usect  ".ebss",62,1,1
     229              DW$45   .dwtag  DW_TAG_variable, DW_AT_name("g_link_list_maneger_tcb"), DW_AT_symbol_name("_g_link_list_maneg
     230                      .dwattr DW$45, DW_AT_location[DW_OP_addr _g_link_list_maneger_tcb]
     231                      .dwattr DW$45, DW_AT_type(*DW$T$201)
     232                      .dwattr DW$45, DW_AT_external(0x01)
     233                      .global _m_link_member
     234 00000080       _m_link_member: .usect  ".ebss",120,1,1
     235              DW$46   .dwtag  DW_TAG_variable, DW_AT_name("m_link_member"), DW_AT_symbol_name("_m_link_member")
     236                      .dwattr DW$46, DW_AT_location[DW_OP_addr _m_link_member]
     237                      .dwattr DW$46, DW_AT_type(*DW$T$192)
     238                      .dwattr DW$46, DW_AT_external(0x01)
     239                      .global _m_timer_array
     240 00000100       _m_timer_array: .usect  ".ebss",152,1,1
     241              DW$47   .dwtag  DW_TAG_variable, DW_AT_name("m_timer_array"), DW_AT_symbol_name("_m_timer_array")
     242                      .dwattr DW$47, DW_AT_location[DW_OP_addr _m_timer_array]
     243                      .dwattr DW$47, DW_AT_type(*DW$T$203)
     244                      .dwattr DW$47, DW_AT_external(0x01)
     245                      .global _m_mem_pdest
     246 000001c0       _m_mem_pdest:   .usect  ".ebss",500,1,0
     247              DW$48   .dwtag  DW_TAG_variable, DW_AT_name("m_mem_pdest"), DW_AT_symbol_name("_m_mem_pdest")
     248                      .dwattr DW$48, DW_AT_location[DW_OP_addr _m_mem_pdest]
     249                      .dwattr DW$48, DW_AT_type(*DW$T$133)
     250                      .dwattr DW$48, DW_AT_external(0x01)
     251                      .global _m_mem_ctl
     252 000003c0       _m_mem_ctl:     .usect  ".ebss",501,1,0
     253              DW$49   .dwtag  DW_TAG_variable, DW_AT_name("m_mem_ctl"), DW_AT_symbol_name("_m_mem_ctl")
     254                      .dwattr DW$49, DW_AT_location[DW_OP_addr _m_mem_ctl]
     255                      .dwattr DW$49, DW_AT_type(*DW$T$139)
     256                      .dwattr DW$49, DW_AT_external(0x01)
     257                      .global _m_malloc_mem
     258 000005b5       _m_malloc_mem:  .usect  ".ebss",62000,1,0
     259              DW$50   .dwtag  DW_TAG_variable, DW_AT_name("m_malloc_mem"), DW_AT_symbol_name("_m_malloc_mem")
     260                      .dwattr DW$50, DW_AT_location[DW_OP_addr _m_malloc_mem]
TMS320C2000 COFF Assembler PC v4.1.3 Thu Aug 04 16:21:37 2011

Tools Copyright (c) 1996-2006 Texas Instruments Incorporated
C:\DOCUME~1\ADMINI~1\LOCALS~1\Temp\TI8402                            PAGE    6

     261                      .dwattr DW$50, DW_AT_type(*DW$T$136)
     262                      .dwattr DW$50, DW_AT_external(0x01)
     263              ;       C:\CCStudio_v3.3\C2000\cgtools\bin\ac2000.exe -@C:\DOCUME~1\ADMINI~1\LOCALS~1\Temp\TI8404 
     264 00000000               .sect   ".text"
     265                      .global _my_dichotomy_algorithm
     266              
     267              DW$51   .dwtag  DW_TAG_subprogram, DW_AT_name("my_dichotomy_algorithm"), DW_AT_symbol_name("_my_dichotomy_alg
     268                      .dwattr DW$51, DW_AT_low_pc(_my_dichotomy_algorithm)
     269                      .dwattr DW$51, DW_AT_high_pc(0x00)
     270                      .dwattr DW$51, DW_AT_begin_file("src\algorithm.c")
     271                      .dwattr DW$51, DW_AT_begin_line(0x20)
     272                      .dwattr DW$51, DW_AT_begin_column(0x07)
     273                      .dwpsn  "src\algorithm.c",34,1
     274              
     275                      .dwfde DW$CIE
     276              
     277              ;***************************************************************
     278              ;* FNAME: _my_dichotomy_algorithm       FR SIZE:  10           *
     279              ;*                                                             *
     280              ;* FUNCTION ENVIRONMENT                                        *
     281              ;*                                                             *
     282              ;* FUNCTION PROPERTIES                                         *
     283              ;*                            0 Parameter,  9 Auto,  0 SOE     *
     284              ;***************************************************************
     285              
     286              _my_dichotomy_algorithm:
     287                      .dwcfa  0x1d, -2
     288                      .dwcfa  0x1c, 26, 0
     289                      .dwcfa  0x09, 40, 26
     290 00000000 FE0A          ADDB      SP,#10
     291                      .dwcfa  0x1d, -12
     292              ;* AR4   assigned to _head_data
     293              DW$52   .dwtag  DW_TAG_formal_parameter, DW_AT_name("head_data"), DW_AT_symbol_name("_head_data")
     294                      .dwattr DW$52, DW_AT_type(*DW$T$57)
     295                      .dwattr DW$52, DW_AT_location[DW_OP_reg12]
     296              ;* AL    assigned to _array_len
     297              DW$53   .dwtag  DW_TAG_formal_parameter, DW_AT_name("array_len"), DW_AT_symbol_name("_array_len")
     298                      .dwattr DW$53, DW_AT_type(*DW$T$23)
     299                      .dwattr DW$53, DW_AT_location[DW_OP_reg0]
     300              ;* AH    assigned to _data_len
     301              DW$54   .dwtag  DW_TAG_formal_parameter, DW_AT_name("data_len"), DW_AT_symbol_name("_data_len")
     302                      .dwattr DW$54, DW_AT_type(*DW$T$23)
     303                      .dwattr DW$54, DW_AT_location[DW_OP_reg1]
     304              ;* AR5   assigned to _match_data
     305              DW$55   .dwtag  DW_TAG_formal_parameter, DW_AT_name("match_data"), DW_AT_symbol_name("_match_data")
     306                      .dwattr DW$55, DW_AT_type(*DW$T$23)
     307                      .dwattr DW$55, DW_AT_location[DW_OP_reg14]
     308              DW$56   .dwtag  DW_TAG_variable, DW_AT_name("head_data"), DW_AT_symbol_name("_head_data")
     309                      .dwattr DW$56, DW_AT_type(*DW$T$57)
     310                      .dwattr DW$56, DW_AT_location[DW_OP_breg20 -2]
     311              DW$57   .dwtag  DW_TAG_variable, DW_AT_name("array_len"), DW_AT_symbol_name("_array_len")
     312                      .dwattr DW$57, DW_AT_type(*DW$T$23)
     313                      .dwattr DW$57, DW_AT_location[DW_OP_breg20 -3]
     314              DW$58   .dwtag  DW_TAG_variable, DW_AT_name("data_len"), DW_AT_symbol_name("_data_len")
     315                      .dwattr DW$58, DW_AT_type(*DW$T$23)
TMS320C2000 COFF Assembler PC v4.1.3 Thu Aug 04 16:21:37 2011

Tools Copyright (c) 1996-2006 Texas Instruments Incorporated
C:\DOCUME~1\ADMINI~1\LOCALS~1\Temp\TI8402                            PAGE    7

     316                      .dwattr DW$58, DW_AT_location[DW_OP_breg20 -4]
     317              DW$59   .dwtag  DW_TAG_variable, DW_AT_name("match_data"), DW_AT_symbol_name("_match_data")
     318                      .dwattr DW$59, DW_AT_type(*DW$T$23)
     319                      .dwattr DW$59, DW_AT_location[DW_OP_breg20 -5]
     320              DW$60   .dwtag  DW_TAG_variable, DW_AT_name("cur_pos"), DW_AT_symbol_name("_cur_pos")
     321                      .dwattr DW$60, DW_AT_type(*DW$T$57)
     322                      .dwattr DW$60, DW_AT_location[DW_OP_breg20 -8]
     323              DW$61   .dwtag  DW_TAG_variable, DW_AT_name("sum_len"), DW_AT_symbol_name("_sum_len")
     324                      .dwattr DW$61, DW_AT_type(*DW$T$23)
     325                      .dwattr DW$61, DW_AT_location[DW_OP_breg20 -9]
     326 00000001 7D45          MOV       *-SP[5],AR5           ; |34| 
     327 00000002 9744          MOV       *-SP[4],AH            ; |34| 
     328 00000003 9643          MOV       *-SP[3],AL            ; |34| 
     329 00000004 A842          MOVL      *-SP[2],XAR4          ; |34| 
     330                      .dwpsn  "src\algorithm.c",36,12
     331 00000005 9243          MOV       AL,*-SP[3]            ; |36| 
     332 00000006 9649          MOV       *-SP[9],AL            ; |36| 
     333                      .dwpsn  "src\algorithm.c",37,10
     334              L1:    
     335              DW$L$_my_dichotomy_algorithm$2$B:
     336                      .dwpsn  "src\algorithm.c",39,3
     337 00000007 9243          MOV       AL,*-SP[3]            ; |39| 
     338 00000008 FFC0          LSR       AL,1                  ; |39| 
     339 00000009 2DA9          MOV       T,AL                  ; |39| 
     340 0000000a 3344          MPY       P,T,*-SP[4]           ; |39| 
     341 0000000b 0642          MOVL      ACC,*-SP[2]           ; |39| 
     342 0000000c 0DAB          ADDU      ACC,PL                ; |39| 
     343 0000000d 1E48          MOVL      *-SP[8],ACC           ; |39| 
     344                      .dwpsn  "src\algorithm.c",40,3
     345 0000000e 8A48          MOVL      XAR4,*-SP[8]          ; |40| 
     346 0000000f 9245          MOV       AL,*-SP[5]            ; |40| 
     347 00000010 54C4          CMP       AL,*+XAR4[0]          ; |40| 
     348 00000011 ED03          BF        L2,NEQ                ; |40| 
     349                      ; branchcc occurs ; |40| 
     350              DW$L$_my_dichotomy_algorithm$2$E:
     351                      .dwpsn  "src\algorithm.c",42,4
     352 00000012 8A48          MOVL      XAR4,*-SP[8]          ; |42| 
     353 00000013 6F19          B         L5,UNC                ; |42| 
     354                      ; branch occurs ; |42| 
     355              L2:    
     356              DW$L$_my_dichotomy_algorithm$4$B:
     357                      .dwpsn  "src\algorithm.c",44,3
     358 00000014 9243          MOV       AL,*-SP[3]            ; |44| 
     359 00000015 EC16          BF        L4,EQ                 ; |44| 
     360                      ; branchcc occurs ; |44| 
     361 00000016       DW$L$_my_dichotomy_algorithm$4$E:
     362 00000016       DW$L$_my_dichotomy_algorithm$5$B:
     363 00000016 FFC0          LSR       AL,1                  ; |44| 
     364 00000017 EC14          BF        L4,EQ                 ; |44| 
     365                      ; branchcc occurs ; |44| 
     366              DW$L$_my_dichotomy_algorithm$5$E:
     367              DW$L$_my_dichotomy_algorithm$6$B:
     368                      .dwpsn  "src\algorithm.c",46,4
     369                      .dwpsn  "src\algorithm.c",48,3
     370 00000018 8A48          MOVL      XAR4,*-SP[8]          ; |48| 
TMS320C2000 COFF Assembler PC v4.1.3 Thu Aug 04 16:21:37 2011

Tools Copyright (c) 1996-2006 Texas Instruments Incorporated
C:\DOCUME~1\ADMINI~1\LOCALS~1\Temp\TI8402                            PAGE    8

     371 00000019 9245          MOV       AL,*-SP[5]            ; |48| 
     372 0000001a 54C4          CMP       AL,*+XAR4[0]          ; |48| 
     373 0000001b 690B          B         L3,LOS                ; |48| 
     374                      ; branchcc occurs ; |48| 
     375              DW$L$_my_dichotomy_algorithm$6$E:
     376              DW$L$_my_dichotomy_algorithm$7$B:
     377                      .dwpsn  "src\algorithm.c",50,4
     378 0000001c 0648          MOVL      ACC,*-SP[8]           ; |50| 
     379 0000001d 1E42          MOVL      *-SP[2],ACC           ; |50| 
     380                      .dwpsn  "src\algorithm.c",51,4
     381 0000001e 9243          MOV       AL,*-SP[3]            ; |51| 
     382 0000001f 9349          MOV       AH,*-SP[9]            ; |51| 
     383 00000020 FFC0          LSR       AL,1                  ; |51| 
     384 00000021 9FA9          SUB       AH,AL                 ; |51| 
     385 00000022 9743          MOV       *-SP[3],AH            ; |51| 
     386                      .dwpsn  "src\algorithm.c",52,4
     387 00000023 9243          MOV       AL,*-SP[3]            ; |52| 
     388 00000024 9649          MOV       *-SP[9],AL            ; |52| 
     389                      .dwpsn  "src\algorithm.c",53,3
     390 00000025 6FE2          B         L1,UNC                ; |53| 
     391                      ; branch occurs ; |53| 
     392              DW$L$_my_dichotomy_algorithm$7$E:
     393              L3:    
     394              DW$L$_my_dichotomy_algorithm$8$B:
     395                      .dwpsn  "src\algorithm.c",56,4
     396 00000026 9243          MOV       AL,*-SP[3]            ; |56| 
     397 00000027 FFC0          LSR       AL,1                  ; |56| 
     398 00000028 9643          MOV       *-SP[3],AL            ; |56| 
     399                      .dwpsn  "src\algorithm.c",57,4
     400 00000029 9649          MOV       *-SP[9],AL            ; |57| 
     401                      .dwpsn  "src\algorithm.c",37,10
     402 0000002a 6FDD          B         L1,UNC                ; |37| 
     403                      ; branch occurs ; |37| 
     404              DW$L$_my_dichotomy_algorithm$8$E:
     405              L4:    
     406                      .dwpsn  "src\algorithm.c",60,2
     407 0000002b D400          MOVB      XAR4,#0
     408              L5:    
     409                      .dwpsn  "src\algorithm.c",61,1
     410 0000002c FE8A          SUBB      SP,#10                ; |60| 
     411                      .dwcfa  0x1d, -2
     412 0000002d 0006          LRETR
     413                      ; return occurs
     414              
     415              DW$62   .dwtag  DW_TAG_loop
     416                      .dwattr DW$62, DW_AT_name("C:\DOCUME~1\ADMINI~1\LOCALS~1\Temp\TI8402:L1:1:1312446096")
     417                      .dwattr DW$62, DW_AT_begin_file("src\algorithm.c")
     418                      .dwattr DW$62, DW_AT_begin_line(0x25)
     419                      .dwattr DW$62, DW_AT_end_line(0x3b)
     420              DW$63   .dwtag  DW_TAG_loop_range
     421                      .dwattr DW$63, DW_AT_low_pc(DW$L$_my_dichotomy_algorithm$2$B)
     422                      .dwattr DW$63, DW_AT_high_pc(DW$L$_my_dichotomy_algorithm$2$E)
     423              DW$64   .dwtag  DW_TAG_loop_range
     424                      .dwattr DW$64, DW_AT_low_pc(DW$L$_my_dichotomy_algorithm$4$B)
     425                      .dwattr DW$64, DW_AT_high_pc(DW$L$_my_dichotomy_algorithm$4$E)
TMS320C2000 COFF Assembler PC v4.1.3 Thu Aug 04 16:21:37 2011

Tools Copyright (c) 1996-2006 Texas Instruments Incorporated
C:\DOCUME~1\ADMINI~1\LOCALS~1\Temp\TI8402                            PAGE    9

     426              DW$65   .dwtag  DW_TAG_loop_range
     427                      .dwattr DW$65, DW_AT_low_pc(DW$L$_my_dichotomy_algorithm$5$B)
     428                      .dwattr DW$65, DW_AT_high_pc(DW$L$_my_dichotomy_algorithm$5$E)
     429              DW$66   .dwtag  DW_TAG_loop_range
     430                      .dwattr DW$66, DW_AT_low_pc(DW$L$_my_dichotomy_algorithm$6$B)
     431                      .dwattr DW$66, DW_AT_high_pc(DW$L$_my_dichotomy_algorithm$6$E)
     432              DW$67   .dwtag  DW_TAG_loop_range
     433                      .dwattr DW$67, DW_AT_low_pc(DW$L$_my_dichotomy_algorithm$8$B)
     434                      .dwattr DW$67, DW_AT_high_pc(DW$L$_my_dichotomy_algorithm$8$E)
     435              DW$68   .dwtag  DW_TAG_loop_range
     436                      .dwattr DW$68, DW_AT_low_pc(DW$L$_my_dichotomy_algorithm$7$B)
     437                      .dwattr DW$68, DW_AT_high_pc(DW$L$_my_dichotomy_algorithm$7$E)
     438                      .dwendtag DW$62
     439              
     440                      .dwattr DW$51, DW_AT_end_file("src\algorithm.c")
     441                      .dwattr DW$51, DW_AT_end_line(0x3d)
     442                      .dwattr DW$51, DW_AT_end_column(0x01)
     443                      .dwendentry
     444                      .dwendtag DW$51
     445              
     446 0000002e               .sect   ".text"
     447                      .global _my_sort_algorithm
     448              
     449              DW$69   .dwtag  DW_TAG_subprogram, DW_AT_name("my_sort_algorithm"), DW_AT_symbol_name("_my_sort_algorithm")
     450                      .dwattr DW$69, DW_AT_low_pc(_my_sort_algorithm)
     451                      .dwattr DW$69, DW_AT_high_pc(0x00)
     452                      .dwattr DW$69, DW_AT_begin_file("src\algorithm.c")
     453                      .dwattr DW$69, DW_AT_begin_line(0x49)
     454                      .dwattr DW$69, DW_AT_begin_column(0x06)
     455                      .dwpsn  "src\algorithm.c",74,1
     456              
     457                      .dwfde DW$CIE
     458              
     459              ;***************************************************************
     460              ;* FNAME: _my_sort_algorithm            FR SIZE:   4           *
     461              ;*                                                             *
     462              ;* FUNCTION ENVIRONMENT                                        *
     463              ;*                                                             *
     464              ;* FUNCTION PROPERTIES                                         *
     465              ;*                            0 Parameter,  4 Auto,  0 SOE     *
     466              ;***************************************************************
     467              
     468              _my_sort_algorithm:
     469                      .dwcfa  0x1d, -2
     470                      .dwcfa  0x1c, 26, 0
     471                      .dwcfa  0x09, 40, 26
     472 0000002e FE04          ADDB      SP,#4
     473                      .dwcfa  0x1d, -6
     474              ;* AR4   assigned to _head_data
     475              DW$70   .dwtag  DW_TAG_formal_parameter, DW_AT_name("head_data"), DW_AT_symbol_name("_head_data")
     476                      .dwattr DW$70, DW_AT_type(*DW$T$57)
     477                      .dwattr DW$70, DW_AT_location[DW_OP_reg12]
     478              ;* AL    assigned to _array_len
     479              DW$71   .dwtag  DW_TAG_formal_parameter, DW_AT_name("array_len"), DW_AT_symbol_name("_array_len")
     480                      .dwattr DW$71, DW_AT_type(*DW$T$23)
TMS320C2000 COFF Assembler PC v4.1.3 Thu Aug 04 16:21:37 2011

Tools Copyright (c) 1996-2006 Texas Instruments Incorporated
C:\DOCUME~1\ADMINI~1\LOCALS~1\Temp\TI8402                            PAGE   10

     481                      .dwattr DW$71, DW_AT_location[DW_OP_reg0]
     482              ;* AH    assigned to _data_len
     483              DW$72   .dwtag  DW_TAG_formal_parameter, DW_AT_name("data_len"), DW_AT_symbol_name("_data_len")
     484                      .dwattr DW$72, DW_AT_type(*DW$T$23)
     485                      .dwattr DW$72, DW_AT_location[DW_OP_reg1]
     486              DW$73   .dwtag  DW_TAG_variable, DW_AT_name("head_data"), DW_AT_symbol_name("_head_data")
     487                      .dwattr DW$73, DW_AT_type(*DW$T$57)
     488                      .dwattr DW$73, DW_AT_location[DW_OP_breg20 -2]
     489              DW$74   .dwtag  DW_TAG_variable, DW_AT_name("array_len"), DW_AT_symbol_name("_array_len")
     490                      .dwattr DW$74, DW_AT_type(*DW$T$23)
     491                      .dwattr DW$74, DW_AT_location[DW_OP_breg20 -3]
     492              DW$75   .dwtag  DW_TAG_variable, DW_AT_name("data_len"), DW_AT_symbol_name("_data_len")
     493                      .dwattr DW$75, DW_AT_type(*DW$T$23)
     494                      .dwattr DW$75, DW_AT_location[DW_OP_breg20 -4]
     495 0000002f 9744          MOV       *-SP[4],AH            ; |74| 
     496 00000030 9643          MOV       *-SP[3],AL            ; |74| 
     497 00000031 A842          MOVL      *-SP[2],XAR4          ; |74| 
     498                      .dwpsn  "src\algorithm.c",75,2
     499                      .dwpsn  "src\algorithm.c",76,1
     500 00000032 FE84          SUBB      SP,#4
     501                      .dwcfa  0x1d, -2
     502 00000033 0006          LRETR
     503                      ; return occurs
     504                      .dwattr DW$69, DW_AT_end_file("src\algorithm.c")
     505                      .dwattr DW$69, DW_AT_end_line(0x4c)
     506                      .dwattr DW$69, DW_AT_end_column(0x01)
     507                      .dwendentry
     508                      .dwendtag DW$69
     509              
     510 00000034               .sect   ".text"
     511                      .global _shift_filtering_data_algorithm_creat
     512              
     513              DW$76   .dwtag  DW_TAG_subprogram, DW_AT_name("shift_filtering_data_algorithm_creat"), DW_AT_symbol_name("_sh
     514                      .dwattr DW$76, DW_AT_low_pc(_shift_filtering_data_algorithm_creat)
     515                      .dwattr DW$76, DW_AT_high_pc(0x00)
     516                      .dwattr DW$76, DW_AT_begin_file("src\algorithm.c")
     517                      .dwattr DW$76, DW_AT_begin_line(0x5a)
     518                      .dwattr DW$76, DW_AT_begin_column(0x06)
     519                      .dwpsn  "src\algorithm.c",96,1
     520              
     521                      .dwfde DW$CIE
     522              
     523              ;***************************************************************
     524              ;* FNAME: _shift_filtering_data_algorithm_creat FR SIZE:   6           *
     525              ;*                                                             *
     526              ;* FUNCTION ENVIRONMENT                                        *
     527              ;*                                                             *
     528              ;* FUNCTION PROPERTIES                                         *
     529              ;*                            0 Parameter,  6 Auto,  0 SOE     *
     530              ;***************************************************************
     531              
     532              _shift_filtering_data_algorithm_creat:
     533                      .dwcfa  0x1d, -2
     534                      .dwcfa  0x1c, 26, 0
     535                      .dwcfa  0x09, 40, 26
TMS320C2000 COFF Assembler PC v4.1.3 Thu Aug 04 16:21:37 2011

Tools Copyright (c) 1996-2006 Texas Instruments Incorporated
C:\DOCUME~1\ADMINI~1\LOCALS~1\Temp\TI8402                            PAGE   11

     536 00000034 FE06          ADDB      SP,#6
     537                      .dwcfa  0x1d, -8
     538              ;* AR4   assigned to _buf
     539              DW$77   .dwtag  DW_TAG_formal_parameter, DW_AT_name("buf"), DW_AT_symbol_name("_buf")
     540                      .dwattr DW$77, DW_AT_type(*DW$T$3)
     541                      .dwattr DW$77, DW_AT_location[DW_OP_reg12]
     542              DW$78   .dwtag  DW_TAG_formal_parameter, DW_AT_name("buf_len"), DW_AT_symbol_name("_buf_len")
     543                      .dwattr DW$78, DW_AT_type(*DW$T$23)
     544                      .dwattr DW$78, DW_AT_location[DW_OP_breg20 -9]
     545              DW$79   .dwtag  DW_TAG_formal_parameter, DW_AT_name("data_type"), DW_AT_symbol_name("_data_type")
     546                      .dwattr DW$79, DW_AT_type(*DW$T$6)
     547                      .dwattr DW$79, DW_AT_location[DW_OP_breg20 -10]
     548              ;* AL    assigned to _err
     549              DW$80   .dwtag  DW_TAG_formal_parameter, DW_AT_name("err"), DW_AT_symbol_name("_err")
     550                      .dwattr DW$80, DW_AT_type(*DW$T$16)
     551                      .dwattr DW$80, DW_AT_location[DW_OP_reg0]
     552              DW$81   .dwtag  DW_TAG_formal_parameter, DW_AT_name("times"), DW_AT_symbol_name("_times")
     553                      .dwattr DW$81, DW_AT_type(*DW$T$23)
     554                      .dwattr DW$81, DW_AT_location[DW_OP_breg20 -11]
     555              ;* AR5   assigned to _filtering_data_ctl
     556              DW$82   .dwtag  DW_TAG_formal_parameter, DW_AT_name("filtering_data_ctl"), DW_AT_symbol_name("_filtering_data
     557                      .dwattr DW$82, DW_AT_type(*DW$T$70)
     558                      .dwattr DW$82, DW_AT_location[DW_OP_reg14]
     559              DW$83   .dwtag  DW_TAG_variable, DW_AT_name("buf"), DW_AT_symbol_name("_buf")
     560                      .dwattr DW$83, DW_AT_type(*DW$T$3)
     561                      .dwattr DW$83, DW_AT_location[DW_OP_breg20 -2]
     562              DW$84   .dwtag  DW_TAG_variable, DW_AT_name("err"), DW_AT_symbol_name("_err")
     563                      .dwattr DW$84, DW_AT_type(*DW$T$16)
     564                      .dwattr DW$84, DW_AT_location[DW_OP_breg20 -4]
     565              DW$85   .dwtag  DW_TAG_variable, DW_AT_name("filtering_data_ctl"), DW_AT_symbol_name("_filtering_data_ctl")
     566                      .dwattr DW$85, DW_AT_type(*DW$T$70)
     567                      .dwattr DW$85, DW_AT_location[DW_OP_breg20 -6]
     568 00000035 A046          MOVL      *-SP[6],XAR5          ; |96| 
     569 00000036 1E44          MOVL      *-SP[4],ACC           ; |96| 
     570 00000037 A842          MOVL      *-SP[2],XAR4          ; |96| 
     571                      .dwpsn  "src\algorithm.c",97,2
     572 00000038 8A46          MOVL      XAR4,*-SP[6]          ; |97| 
     573 00000039 0642          MOVL      ACC,*-SP[2]           ; |97| 
     574 0000003a 1EC4          MOVL      *+XAR4[0],ACC         ; |97| 
     575                      .dwpsn  "src\algorithm.c",98,2
     576 0000003b 8A46          MOVL      XAR4,*-SP[6]          ; |98| 
     577 0000003c 9249          MOV       AL,*-SP[9]            ; |98| 
     578 0000003d 96D4          MOV       *+XAR4[2],AL          ; |98| 
     579                      .dwpsn  "src\algorithm.c",99,2
     580 0000003e 8A46          MOVL      XAR4,*-SP[6]          ; |99| 
     581 0000003f 924A          MOV       AL,*-SP[10]           ; |99| 
     582 00000040 96DC          MOV       *+XAR4[3],AL          ; |99| 
     583                      .dwpsn  "src\algorithm.c",100,2
     584 00000041 8A46          MOVL      XAR4,*-SP[6]          ; |100| 
     585 00000042 D008          MOVB      XAR0,#8               ; |100| 
     586 00000043 0644          MOVL      ACC,*-SP[4]           ; |100| 
     587 00000044 1E94          MOVL      *+XAR4[AR0],ACC       ; |100| 
     588                      .dwpsn  "src\algorithm.c",101,2
     589 00000045 8A46          MOVL      XAR4,*-SP[6]          ; |101| 
     590 00000046 924B          MOV       AL,*-SP[11]           ; |101| 
TMS320C2000 COFF Assembler PC v4.1.3 Thu Aug 04 16:21:37 2011

Tools Copyright (c) 1996-2006 Texas Instruments Incorporated
C:\DOCUME~1\ADMINI~1\LOCALS~1\Temp\TI8402                            PAGE   12

     591 00000047 96E4          MOV       *+XAR4[4],AL          ; |101| 
     592                      .dwpsn  "src\algorithm.c",102,2
     593 00000048 8A46          MOVL      XAR4,*-SP[6]          ; |102| 
     594 00000049 2BF4          MOV       *+XAR4[6],#0          ; |102| 
     595                      .dwpsn  "src\algorithm.c",103,2
     596 0000004a 8A46          MOVL      XAR4,*-SP[6]          ; |103| 
     597 0000004b D00A          MOVB      XAR0,#10              ; |103| 
     598 0000004c 2B94          MOV       *+XAR4[AR0],#0        ; |103| 
     599                      .dwpsn  "src\algorithm.c",104,2
     600 0000004d 8A46          MOVL      XAR4,*-SP[6]          ; |104| 
     601 0000004e D00B          MOVB      XAR0,#11              ; |104| 
     602 0000004f 2B94          MOV       *+XAR4[AR0],#0        ; |104| 
     603                      .dwpsn  "src\algorithm.c",105,2
     604 00000050 8A46          MOVL      XAR4,*-SP[6]          ; |105| 
     605 00000051 9A00          MOV       AL,#0
     606 00000052 9B00          MOV       AH,#0
     607 00000053 D00C          MOVB      XAR0,#12              ; |105| 
     608 00000054 1E94          MOVL      *+XAR4[AR0],ACC       ; |105| 
     609                      .dwpsn  "src\algorithm.c",106,2
     610 00000055 8A46          MOVL      XAR4,*-SP[6]          ; |106| 
     611 00000056 2BEC          MOV       *+XAR4[5],#0          ; |106| 
     612                      .dwpsn  "src\algorithm.c",107,2
     613                      .dwpsn  "src\algorithm.c",108,1
     614 00000057 FE86          SUBB      SP,#6
     615                      .dwcfa  0x1d, -2
     616 00000058 0006          LRETR
     617                      ; return occurs
     618                      .dwattr DW$76, DW_AT_end_file("src\algorithm.c")
     619                      .dwattr DW$76, DW_AT_end_line(0x6c)
     620                      .dwattr DW$76, DW_AT_end_column(0x01)
     621                      .dwendentry
     622                      .dwendtag DW$76
     623              
     624 00000059               .sect   ".text"
     625                      .global _shift_filtering_data_obtain
     626              
     627              DW$86   .dwtag  DW_TAG_subprogram, DW_AT_name("shift_filtering_data_obtain"), DW_AT_symbol_name("_shift_filte
     628                      .dwattr DW$86, DW_AT_low_pc(_shift_filtering_data_obtain)
     629                      .dwattr DW$86, DW_AT_high_pc(0x00)
     630                      .dwattr DW$86, DW_AT_begin_file("src\algorithm.c")
     631                      .dwattr DW$86, DW_AT_begin_line(0x75)
     632                      .dwattr DW$86, DW_AT_begin_column(0x07)
     633                      .dwpsn  "src\algorithm.c",118,1
     634              
     635                      .dwfde DW$CIE
     636              
     637              ;***************************************************************
     638              ;* FNAME: _shift_filtering_data_obtain  FR SIZE:  14           *
     639              ;*                                                             *
     640              ;* FUNCTION ENVIRONMENT                                        *
     641              ;*                                                             *
     642              ;* FUNCTION PROPERTIES                                         *
     643              ;*                            2 Parameter,  9 Auto,  2 SOE     *
     644              ;***************************************************************
     645              
TMS320C2000 COFF Assembler PC v4.1.3 Thu Aug 04 16:21:37 2011

Tools Copyright (c) 1996-2006 Texas Instruments Incorporated
C:\DOCUME~1\ADMINI~1\LOCALS~1\Temp\TI8402                            PAGE   13

     646              _shift_filtering_data_obtain:
     647                      .dwcfa  0x1d, -2
     648                      .dwcfa  0x1c, 26, 0
     649                      .dwcfa  0x09, 40, 26
     650 00000059 B2BD          MOVL      *SP++,XAR1
     651                      .dwcfa  0x80, 7, 2
     652                      .dwcfa  0x1d, -4
     653 0000005a FE0C          ADDB      SP,#12
     654                      .dwcfa  0x1d, -16
     655              ;* AR4   assigned to _filtering_data_ctl
     656              DW$87   .dwtag  DW_TAG_formal_parameter, DW_AT_name("filtering_data_ctl"), DW_AT_symbol_name("_filtering_data
     657                      .dwattr DW$87, DW_AT_type(*DW$T$70)
     658                      .dwattr DW$87, DW_AT_location[DW_OP_reg12]
     659              ;* AL    assigned to _f_indata
     660              DW$88   .dwtag  DW_TAG_formal_parameter, DW_AT_name("f_indata"), DW_AT_symbol_name("_f_indata")
     661                      .dwattr DW$88, DW_AT_type(*DW$T$16)
     662                      .dwattr DW$88, DW_AT_location[DW_OP_reg0]
     663              DW$89   .dwtag  DW_TAG_variable, DW_AT_name("filtering_data_ctl"), DW_AT_symbol_name("_filtering_data_ctl")
     664                      .dwattr DW$89, DW_AT_type(*DW$T$70)
     665                      .dwattr DW$89, DW_AT_location[DW_OP_breg20 -4]
     666              DW$90   .dwtag  DW_TAG_variable, DW_AT_name("f_indata"), DW_AT_symbol_name("_f_indata")
     667                      .dwattr DW$90, DW_AT_type(*DW$T$16)
     668                      .dwattr DW$90, DW_AT_location[DW_OP_breg20 -6]
     669              DW$91   .dwtag  DW_TAG_variable, DW_AT_name("pbuf"), DW_AT_symbol_name("_pbuf")
     670                      .dwattr DW$91, DW_AT_type(*DW$T$93)
     671                      .dwattr DW$91, DW_AT_location[DW_OP_breg20 -8]
     672              DW$92   .dwtag  DW_TAG_variable, DW_AT_name("f_outdata"), DW_AT_symbol_name("_f_outdata")
     673                      .dwattr DW$92, DW_AT_type(*DW$T$16)
     674                      .dwattr DW$92, DW_AT_location[DW_OP_breg20 -10]
     675              DW$93   .dwtag  DW_TAG_variable, DW_AT_name("offset"), DW_AT_symbol_name("_offset")
     676                      .dwattr DW$93, DW_AT_type(*DW$T$8)
     677                      .dwattr DW$93, DW_AT_location[DW_OP_breg20 -11]
     678 0000005b 1E46          MOVL      *-SP[6],ACC           ; |118| 
     679 0000005c A844          MOVL      *-SP[4],XAR4          ; |118| 
     680                      .dwpsn  "src\algorithm.c",119,8
     681 0000005d 8A44          MOVL      XAR4,*-SP[4]          ; |119| 
     682 0000005e 06C4          MOVL      ACC,*+XAR4[0]         ; |119| 
     683 0000005f 1E48          MOVL      *-SP[8],ACC           ; |119| 
     684                      .dwpsn  "src\algorithm.c",122,2
     685 00000060 8A44          MOVL      XAR4,*-SP[4]          ; |122| 
     686 00000061 92D4          MOV       AL,*+XAR4[2]          ; |122| 
     687 00000062 8A44          MOVL      XAR4,*-SP[4]          ; |122| 
     688 00000063 54F4          CMP       AL,*+XAR4[6]          ; |122| 
     689 00000064 56C0          BF        L13,NEQ               ; |122| 
         00000065 0087 
     690                      ; branchcc occurs ; |122| 
     691                      .dwpsn  "src\algorithm.c",124,3
     692 00000066 8A44          MOVL      XAR4,*-SP[4]          ; |124| 
     693 00000067 D00A          MOVB      XAR0,#10              ; |124| 
     694 00000068 0E94          MOVU      ACC,*+XAR4[AR0]
     695 00000069 8A48          MOVL      XAR4,*-SP[8]          ; |124| 
     696 0000006a FF30          LSL       ACC,1                 ; |124| 
     697 0000006b 5601          ADDL      XAR4,ACC
         0000006c 00A4 
     698 0000006d 06C4          MOVL      ACC,*+XAR4[0]         ; |124| 
TMS320C2000 COFF Assembler PC v4.1.3 Thu Aug 04 16:21:37 2011

Tools Copyright (c) 1996-2006 Texas Instruments Incorporated
C:\DOCUME~1\ADMINI~1\LOCALS~1\Temp\TI8402                            PAGE   14

     699 0000006e 1E4A          MOVL      *-SP[10],ACC          ; |124| 
     700                      .dwpsn  "src\algorithm.c",125,3
     701 0000006f 8A44          MOVL      XAR4,*-SP[4]          ; |125| 
     702 00000070 D00C          MOVB      XAR0,#12              ; |125| 
     703 00000071 0694          MOVL      ACC,*+XAR4[AR0]       ; |125| 
     704 00000072 1E42          MOVL      *-SP[2],ACC           ; |125| 
     705 00000073 0646          MOVL      ACC,*-SP[6]           ; |125| 
     706 00000074 7640!         LCR       #FS$$SUB              ; |125| 
         00000075 0000 
     707                      ; call occurs [#FS$$SUB] ; |125| 
     708 00000076 1EA6          MOVL      XAR6,ACC              ; |125| 
     709 00000077 9A00          MOV       AL,#0
     710 00000078 9B00          MOV       AH,#0
     711 00000079 1E42          MOVL      *-SP[2],ACC           ; |125| 
     712 0000007a 06A6          MOVL      ACC,XAR6              ; |125| 
     713 0000007b 7640!         LCR       #FS$$CMP              ; |125| 
         0000007c 0000 
     714                      ; call occurs [#FS$$CMP] ; |125| 
     715 0000007d 5200          CMPB      AL,#0                 ; |125| 
     716 0000007e 6509          B         L6,LEQ                ; |125| 
     717                      ; branchcc occurs ; |125| 
     718 0000007f 8A44          MOVL      XAR4,*-SP[4]          ; |125| 
     719 00000080 D00C          MOVB      XAR0,#12              ; |125| 
     720 00000081 0694          MOVL      ACC,*+XAR4[AR0]       ; |125| 
     721 00000082 1E42          MOVL      *-SP[2],ACC           ; |125| 
     722 00000083 0646          MOVL      ACC,*-SP[6]           ; |125| 
     723 00000084 7640!         LCR       #FS$$SUB              ; |125| 
         00000085 0000 
     724                      ; call occurs [#FS$$SUB] ; |125| 
     725 00000086 6F0A          B         L7,UNC                ; |125| 
     726                      ; branch occurs ; |125| 
     727 00000087       L6:    
     728 00000087 8A44          MOVL      XAR4,*-SP[4]          ; |125| 
     729 00000088 D00C          MOVB      XAR0,#12              ; |125| 
     730 00000089 0694          MOVL      ACC,*+XAR4[AR0]       ; |125| 
     731 0000008a 1E42          MOVL      *-SP[2],ACC           ; |125| 
     732 0000008b 0646          MOVL      ACC,*-SP[6]           ; |125| 
     733 0000008c 7640!         LCR       #FS$$SUB              ; |125| 
         0000008d 0000 
     734                      ; call occurs [#FS$$SUB] ; |125| 
     735 0000008e 7640!         LCR       #FS$$NEG              ; |125| 
         0000008f 0000 
     736                      ; call occurs [#FS$$NEG] ; |125| 
     737 00000090       L7:    
     738 00000090 8A44          MOVL      XAR4,*-SP[4]          ; |125| 
     739 00000091 D008          MOVB      XAR0,#8               ; |125| 
     740 00000092 C494          MOVL      XAR6,*+XAR4[AR0]      ; |125| 
     741 00000093 C242          MOVL      *-SP[2],XAR6          ; |125| 
     742 00000094 7640!         LCR       #FS$$CMP              ; |125| 
         00000095 0000 
     743                      ; call occurs [#FS$$CMP] ; |125| 
     744 00000096 5200          CMPB      AL,#0                 ; |125| 
     745 00000097 633E          B         L12,GEQ               ; |125| 
     746                      ; branchcc occurs ; |125| 
     747                      .dwpsn  "src\algorithm.c",127,4
TMS320C2000 COFF Assembler PC v4.1.3 Thu Aug 04 16:21:37 2011

Tools Copyright (c) 1996-2006 Texas Instruments Incorporated
C:\DOCUME~1\ADMINI~1\LOCALS~1\Temp\TI8402                            PAGE   15

     748 00000098 8A44          MOVL      XAR4,*-SP[4]          ; |127| 
     749 00000099 2BEC          MOV       *+XAR4[5],#0          ; |127| 
     750                      .dwpsn  "src\algorithm.c",128,4
     751 0000009a 8A44          MOVL      XAR4,*-SP[4]          ; |128| 
     752 0000009b D00A          MOVB      XAR0,#10              ; |128| 
     753 0000009c 0E94          MOVU      ACC,*+XAR4[AR0]
     754 0000009d 8A48          MOVL      XAR4,*-SP[8]          ; |128| 
     755 0000009e FF30          LSL       ACC,1                 ; |128| 
     756 0000009f 5601          ADDL      XAR4,ACC
         000000a0 00A4 
     757 000000a1 0646          MOVL      ACC,*-SP[6]           ; |128| 
     758 000000a2 1EC4          MOVL      *+XAR4[0],ACC         ; |128| 
     759                      .dwpsn  "src\algorithm.c",129,4
     760 000000a3 8A44          MOVL      XAR4,*-SP[4]          ; |129| 
     761 000000a4 9294          MOV       AL,*+XAR4[AR0]        ; |129| 
     762 000000a5 8A44          MOVL      XAR4,*-SP[4]          ; |129| 
     763 000000a6 9C01          ADDB      AL,#1                 ; |129| 
     764 000000a7 54D4          CMP       AL,*+XAR4[2]          ; |129| 
     765 000000a8 6804          B         L8,LO                 ; |129| 
     766                      ; branchcc occurs ; |129| 
     767 000000a9 8A44          MOVL      XAR4,*-SP[4]          ; |129| 
     768 000000aa 2B94          MOV       *+XAR4[AR0],#0        ; |129| 
     769 000000ab 6F04          B         L9,UNC                ; |129| 
     770                      ; branch occurs ; |129| 
     771 000000ac       L8:    
     772 000000ac 8A44          MOVL      XAR4,*-SP[4]          ; |129| 
     773 000000ad DC0A          ADDB      XAR4,#10              ; |129| 
     774 000000ae 0AC4          INC       *+XAR4[0]             ; |129| 
     775              L9:    
     776                      .dwpsn  "src\algorithm.c",132,4
     777 000000af 8A44          MOVL      XAR4,*-SP[4]          ; |132| 
     778 000000b0 D00B          MOVB      XAR0,#11              ; |132| 
     779 000000b1 9294          MOV       AL,*+XAR4[AR0]        ; |132| 
     780 000000b2 8A44          MOVL      XAR4,*-SP[4]          ; |132| 
     781 000000b3 9C01          ADDB      AL,#1                 ; |132| 
     782 000000b4 54D4          CMP       AL,*+XAR4[2]          ; |132| 
     783 000000b5 6804          B         L10,LO                ; |132| 
     784                      ; branchcc occurs ; |132| 
     785 000000b6 8A44          MOVL      XAR4,*-SP[4]          ; |132| 
     786 000000b7 2B94          MOV       *+XAR4[AR0],#0        ; |132| 
     787 000000b8 6F04          B         L11,UNC               ; |132| 
     788                      ; branch occurs ; |132| 
     789 000000b9       L10:    
     790 000000b9 8A44          MOVL      XAR4,*-SP[4]          ; |132| 
     791 000000ba DC0B          ADDB      XAR4,#11              ; |132| 
     792 000000bb 0AC4          INC       *+XAR4[0]             ; |132| 
     793              L11:    
     794                      .dwpsn  "src\algorithm.c",135,4
     795 000000bc 064A          MOVL      ACC,*-SP[10]          ; |135| 
     796 000000bd 1E42          MOVL      *-SP[2],ACC           ; |135| 
     797 000000be 0646          MOVL      ACC,*-SP[6]           ; |135| 
     798 000000bf 7640!         LCR       #FS$$SUB              ; |135| 
         000000c0 0000 
     799                      ; call occurs [#FS$$SUB] ; |135| 
     800 000000c1 8A44          MOVL      XAR4,*-SP[4]          ; |135| 
TMS320C2000 COFF Assembler PC v4.1.3 Thu Aug 04 16:21:37 2011

Tools Copyright (c) 1996-2006 Texas Instruments Incorporated
C:\DOCUME~1\ADMINI~1\LOCALS~1\Temp\TI8402                            PAGE   16

     801 000000c2 8BA9          MOVL      XAR1,ACC              ; |135| 
     802 000000c3 92F4          MOV       AL,*+XAR4[6]          ; |135| 
     803 000000c4 7640!         LCR       #U$$TOFS              ; |135| 
         000000c5 0000 
     804                      ; call occurs [#U$$TOFS] ; |135| 
     805 000000c6 1E42          MOVL      *-SP[2],ACC           ; |135| 
     806 000000c7 B2A9          MOVL      ACC,XAR1              ; |135| 
     807 000000c8 7640!         LCR       #FS$$DIV              ; |135| 
         000000c9 0000 
     808                      ; call occurs [#FS$$DIV] ; |135| 
     809 000000ca 1E42          MOVL      *-SP[2],ACC           ; |135| 
     810 000000cb 8A44          MOVL      XAR4,*-SP[4]          ; |135| 
     811 000000cc D00C          MOVB      XAR0,#12              ; |135| 
     812 000000cd 0694          MOVL      ACC,*+XAR4[AR0]       ; |135| 
     813 000000ce 7640!         LCR       #FS$$ADD              ; |135| 
         000000cf 0000 
     814                      ; call occurs [#FS$$ADD] ; |135| 
     815 000000d0 8A44          MOVL      XAR4,*-SP[4]          ; |135| 
     816 000000d1 D00C          MOVB      XAR0,#12              ; |135| 
     817 000000d2 1E94          MOVL      *+XAR4[AR0],ACC       ; |135| 
     818                      .dwpsn  "src\algorithm.c",137,3
     819 000000d3 FFEF          B         L19,UNC               ; |137| 
         000000d4 008B 
     820                      ; branch occurs ; |137| 
     821              L12:    
     822                      .dwpsn  "src\algorithm.c",138,9
     823 000000d5 8A44          MOVL      XAR4,*-SP[4]          ; |138| 
     824 000000d6 0AEC          INC       *+XAR4[5]             ; |138| 
     825 000000d7 92EC          MOV       AL,*+XAR4[5]          ; |138| 
     826 000000d8 8A44          MOVL      XAR4,*-SP[4]          ; |138| 
     827 000000d9 54E4          CMP       AL,*+XAR4[4]          ; |138| 
     828 000000da FFE9          B         L19,LOS               ; |138| 
         000000db 0084 
     829                      ; branchcc occurs ; |138| 
     830                      .dwpsn  "src\algorithm.c",140,4
     831 000000dc 8A44          MOVL      XAR4,*-SP[4]          ; |140| 
     832 000000dd 2BF4          MOV       *+XAR4[6],#0          ; |140| 
     833                      .dwpsn  "src\algorithm.c",141,4
     834 000000de 8A44          MOVL      XAR4,*-SP[4]          ; |141| 
     835 000000df D00A          MOVB      XAR0,#10              ; |141| 
     836 000000e0 2B94          MOV       *+XAR4[AR0],#0        ; |141| 
     837                      .dwpsn  "src\algorithm.c",142,4
     838 000000e1 8A44          MOVL      XAR4,*-SP[4]          ; |142| 
     839 000000e2 D00B          MOVB      XAR0,#11              ; |142| 
     840 000000e3 2B94          MOV       *+XAR4[AR0],#0        ; |142| 
     841                      .dwpsn  "src\algorithm.c",143,4
     842 000000e4 8A44          MOVL      XAR4,*-SP[4]          ; |143| 
     843 000000e5 D00C          MOVB      XAR0,#12              ; |143| 
     844 000000e6 0646          MOVL      ACC,*-SP[6]           ; |143| 
     845 000000e7 1E94          MOVL      *+XAR4[AR0],ACC       ; |143| 
     846                      .dwpsn  "src\algorithm.c",144,4
     847 000000e8 8A44          MOVL      XAR4,*-SP[4]          ; |144| 
     848 000000e9 2BEC          MOV       *+XAR4[5],#0          ; |144| 
     849                      .dwpsn  "src\algorithm.c",146,2
     850 000000ea 6F74          B         L19,UNC               ; |146| 
TMS320C2000 COFF Assembler PC v4.1.3 Thu Aug 04 16:21:37 2011

Tools Copyright (c) 1996-2006 Texas Instruments Incorporated
C:\DOCUME~1\ADMINI~1\LOCALS~1\Temp\TI8402                            PAGE   17

     851                      ; branch occurs ; |146| 
     852              L13:    
     853                      .dwpsn  "src\algorithm.c",149,3
     854 000000eb 8A44          MOVL      XAR4,*-SP[4]          ; |149| 
     855 000000ec D00C          MOVB      XAR0,#12              ; |149| 
     856 000000ed 0694          MOVL      ACC,*+XAR4[AR0]       ; |149| 
     857 000000ee 1E42          MOVL      *-SP[2],ACC           ; |149| 
     858 000000ef 0646          MOVL      ACC,*-SP[6]           ; |149| 
     859 000000f0 7640!         LCR       #FS$$SUB              ; |149| 
         000000f1 0000 
     860                      ; call occurs [#FS$$SUB] ; |149| 
     861 000000f2 1EA6          MOVL      XAR6,ACC              ; |149| 
     862 000000f3 9A00          MOV       AL,#0
     863 000000f4 9B00          MOV       AH,#0
     864 000000f5 1E42          MOVL      *-SP[2],ACC           ; |149| 
     865 000000f6 06A6          MOVL      ACC,XAR6              ; |149| 
     866 000000f7 7640!         LCR       #FS$$CMP              ; |149| 
         000000f8 0000 
     867                      ; call occurs [#FS$$CMP] ; |149| 
     868 000000f9 5200          CMPB      AL,#0                 ; |149| 
     869 000000fa 6509          B         L14,LEQ               ; |149| 
     870                      ; branchcc occurs ; |149| 
     871 000000fb 8A44          MOVL      XAR4,*-SP[4]          ; |149| 
     872 000000fc D00C          MOVB      XAR0,#12              ; |149| 
     873 000000fd 0694          MOVL      ACC,*+XAR4[AR0]       ; |149| 
     874 000000fe 1E42          MOVL      *-SP[2],ACC           ; |149| 
     875 000000ff 0646          MOVL      ACC,*-SP[6]           ; |149| 
     876 00000100 7640!         LCR       #FS$$SUB              ; |149| 
         00000101 0000 
     877                      ; call occurs [#FS$$SUB] ; |149| 
     878 00000102 6F0A          B         L15,UNC               ; |149| 
     879                      ; branch occurs ; |149| 
     880 00000103       L14:    
     881 00000103 8A44          MOVL      XAR4,*-SP[4]          ; |149| 
     882 00000104 D00C          MOVB      XAR0,#12              ; |149| 
     883 00000105 0694          MOVL      ACC,*+XAR4[AR0]       ; |149| 
     884 00000106 1E42          MOVL      *-SP[2],ACC           ; |149| 
     885 00000107 0646          MOVL      ACC,*-SP[6]           ; |149| 
     886 00000108 7640!         LCR       #FS$$SUB              ; |149| 
         00000109 0000 
     887                      ; call occurs [#FS$$SUB] ; |149| 
     888 0000010a 7640!         LCR       #FS$$NEG              ; |149| 
         0000010b 0000 
     889                      ; call occurs [#FS$$NEG] ; |149| 
     890 0000010c       L15:    
     891 0000010c 8A44          MOVL      XAR4,*-SP[4]          ; |149| 
     892 0000010d D008          MOVB      XAR0,#8               ; |149| 
     893 0000010e C494          MOVL      XAR6,*+XAR4[AR0]      ; |149| 
     894 0000010f C242          MOVL      *-SP[2],XAR6          ; |149| 
     895 00000110 7640!         LCR       #FS$$CMP              ; |149| 
         00000111 0000 
     896                      ; call occurs [#FS$$CMP] ; |149| 
     897 00000112 5200          CMPB      AL,#0                 ; |149| 
     898 00000113 6337          B         L18,GEQ               ; |149| 
     899                      ; branchcc occurs ; |149| 
TMS320C2000 COFF Assembler PC v4.1.3 Thu Aug 04 16:21:37 2011

Tools Copyright (c) 1996-2006 Texas Instruments Incorporated
C:\DOCUME~1\ADMINI~1\LOCALS~1\Temp\TI8402                            PAGE   18

     900                      .dwpsn  "src\algorithm.c",151,4
     901 00000114 8A44          MOVL      XAR4,*-SP[4]          ; |151| 
     902 00000115 D00B          MOVB      XAR0,#11              ; |151| 
     903 00000116 0E94          MOVU      ACC,*+XAR4[AR0]
     904 00000117 8A48          MOVL      XAR4,*-SP[8]          ; |151| 
     905 00000118 FF30          LSL       ACC,1                 ; |151| 
     906 00000119 5601          ADDL      XAR4,ACC
         0000011a 00A4 
     907 0000011b 0646          MOVL      ACC,*-SP[6]           ; |151| 
     908 0000011c 1EC4          MOVL      *+XAR4[0],ACC         ; |151| 
     909                      .dwpsn  "src\algorithm.c",152,4
     910 0000011d 8A44          MOVL      XAR4,*-SP[4]          ; |152| 
     911 0000011e 0AF4          INC       *+XAR4[6]             ; |152| 
     912                      .dwpsn  "src\algorithm.c",153,4
     913 0000011f 8A44          MOVL      XAR4,*-SP[4]          ; |153| 
     914 00000120 DC0B          ADDB      XAR4,#11              ; |153| 
     915 00000121 0AC4          INC       *+XAR4[0]             ; |153| 
     916                      .dwpsn  "src\algorithm.c",154,4
     917 00000122 8A44          MOVL      XAR4,*-SP[4]          ; |154| 
     918 00000123 9B00          MOV       AH,#0
     919 00000124 9A00          MOV       AL,#0
     920 00000125 D00C          MOVB      XAR0,#12              ; |154| 
     921 00000126 1E94          MOVL      *+XAR4[AR0],ACC       ; |154| 
     922                      .dwpsn  "src\algorithm.c",155,10
     923 00000127 2B4B          MOV       *-SP[11],#0           ; |155| 
     924 00000128 6F10          B         L17,UNC               ; |155| 
     925                      ; branch occurs ; |155| 
     926              L16:    
     927              DW$L$_shift_filtering_data_obtain$20$B:
     928                      .dwpsn  "src\algorithm.c",157,5
     929 00000129 8A48          MOVL      XAR4,*-SP[8]          ; |157| 
     930 0000012a 8B44          MOVL      XAR1,*-SP[4]          ; |157| 
     931 0000012b 3B01          SETC      SXM
     932 0000012c 5603          MOV       ACC,*-SP[11] << 1     ; |157| 
         0000012d 014B 
     933 0000012e 5601          ADDL      XAR4,ACC
         0000012f 00A4 
     934 00000130 D90C          ADDB      XAR1,#12              ; |157| 
     935 00000131 06C4          MOVL      ACC,*+XAR4[0]         ; |157| 
     936 00000132 1E42          MOVL      *-SP[2],ACC           ; |157| 
     937 00000133 06C1          MOVL      ACC,*+XAR1[0]         ; |157| 
     938 00000134 7640!         LCR       #FS$$ADD              ; |157| 
         00000135 0000 
     939                      ; call occurs [#FS$$ADD] ; |157| 
     940 00000136 1EC1          MOVL      *+XAR1[0],ACC         ; |157| 
     941                      .dwpsn  "src\algorithm.c",155,59
     942 00000137 0A4B          INC       *-SP[11]              ; |155| 
     943              DW$L$_shift_filtering_data_obtain$20$E:
     944              L17:    
     945              DW$L$_shift_filtering_data_obtain$21$B:
     946                      .dwpsn  "src\algorithm.c",155,21
     947 00000138 8A44          MOVL      XAR4,*-SP[4]          ; |155| 
     948 00000139 92F4          MOV       AL,*+XAR4[6]          ; |155| 
     949 0000013a 544B          CMP       AL,*-SP[11]           ; |155| 
     950 0000013b 66EE          B         L16,HI                ; |155| 
TMS320C2000 COFF Assembler PC v4.1.3 Thu Aug 04 16:21:37 2011

Tools Copyright (c) 1996-2006 Texas Instruments Incorporated
C:\DOCUME~1\ADMINI~1\LOCALS~1\Temp\TI8402                            PAGE   19

     951                      ; branchcc occurs ; |155| 
     952              DW$L$_shift_filtering_data_obtain$21$E:
     953                      .dwpsn  "src\algorithm.c",159,4
     954 0000013c 8A44          MOVL      XAR4,*-SP[4]          ; |159| 
     955 0000013d 92F4          MOV       AL,*+XAR4[6]          ; |159| 
     956 0000013e 7640!         LCR       #U$$TOFS              ; |159| 
         0000013f 0000 
     957                      ; call occurs [#U$$TOFS] ; |159| 
     958 00000140 1E42          MOVL      *-SP[2],ACC           ; |159| 
     959 00000141 8A44          MOVL      XAR4,*-SP[4]          ; |159| 
     960 00000142 D00C          MOVB      XAR0,#12              ; |159| 
     961 00000143 0694          MOVL      ACC,*+XAR4[AR0]       ; |159| 
     962 00000144 7640!         LCR       #FS$$DIV              ; |159| 
         00000145 0000 
     963                      ; call occurs [#FS$$DIV] ; |159| 
     964 00000146 8A44          MOVL      XAR4,*-SP[4]          ; |159| 
     965 00000147 D00C          MOVB      XAR0,#12              ; |159| 
     966 00000148 1E94          MOVL      *+XAR4[AR0],ACC       ; |159| 
     967                      .dwpsn  "src\algorithm.c",161,3
     968 00000149 6F15          B         L19,UNC               ; |161| 
     969                      ; branch occurs ; |161| 
     970              L18:    
     971                      .dwpsn  "src\algorithm.c",162,9
     972 0000014a 8A44          MOVL      XAR4,*-SP[4]          ; |162| 
     973 0000014b 0AEC          INC       *+XAR4[5]             ; |162| 
     974 0000014c 92EC          MOV       AL,*+XAR4[5]          ; |162| 
     975 0000014d 8A44          MOVL      XAR4,*-SP[4]          ; |162| 
     976 0000014e 54E4          CMP       AL,*+XAR4[4]          ; |162| 
     977 0000014f 690F          B         L19,LOS               ; |162| 
     978                      ; branchcc occurs ; |162| 
     979                      .dwpsn  "src\algorithm.c",164,4
     980 00000150 8A44          MOVL      XAR4,*-SP[4]          ; |164| 
     981 00000151 2BF4          MOV       *+XAR4[6],#0          ; |164| 
     982                      .dwpsn  "src\algorithm.c",165,4
     983 00000152 8A44          MOVL      XAR4,*-SP[4]          ; |165| 
     984 00000153 D00A          MOVB      XAR0,#10              ; |165| 
     985 00000154 2B94          MOV       *+XAR4[AR0],#0        ; |165| 
     986                      .dwpsn  "src\algorithm.c",166,4
     987 00000155 8A44          MOVL      XAR4,*-SP[4]          ; |166| 
     988 00000156 D00B          MOVB      XAR0,#11              ; |166| 
     989 00000157 2B94          MOV       *+XAR4[AR0],#0        ; |166| 
     990                      .dwpsn  "src\algorithm.c",167,4
     991 00000158 8A44          MOVL      XAR4,*-SP[4]          ; |167| 
     992 00000159 D00C          MOVB      XAR0,#12              ; |167| 
     993 0000015a 0646          MOVL      ACC,*-SP[6]           ; |167| 
     994 0000015b 1E94          MOVL      *+XAR4[AR0],ACC       ; |167| 
     995                      .dwpsn  "src\algorithm.c",168,4
     996 0000015c 8A44          MOVL      XAR4,*-SP[4]          ; |168| 
     997 0000015d 2BEC          MOV       *+XAR4[5],#0          ; |168| 
     998              L19:    
     999                      .dwpsn  "src\algorithm.c",171,2
    1000 0000015e 8A44          MOVL      XAR4,*-SP[4]          ; |171| 
    1001 0000015f D00C          MOVB      XAR0,#12              ; |171| 
    1002 00000160 0694          MOVL      ACC,*+XAR4[AR0]       ; |171| 
    1003                      .dwpsn  "src\algorithm.c",172,1
TMS320C2000 COFF Assembler PC v4.1.3 Thu Aug 04 16:21:37 2011

Tools Copyright (c) 1996-2006 Texas Instruments Incorporated
C:\DOCUME~1\ADMINI~1\LOCALS~1\Temp\TI8402                            PAGE   20

    1004 00000161 FE8C          SUBB      SP,#12                ; |171| 
    1005                      .dwcfa  0x1d, -4
    1006 00000162 8BBE          MOVL      XAR1,*--SP            ; |171| 
    1007                      .dwcfa  0x1d, -2
    1008                      .dwcfa  0xc0, 7
    1009 00000163 0006          LRETR
    1010                      ; return occurs
    1011              
    1012              DW$94   .dwtag  DW_TAG_loop
    1013                      .dwattr DW$94, DW_AT_name("C:\DOCUME~1\ADMINI~1\LOCALS~1\Temp\TI8402:L17:1:1312446096")
    1014                      .dwattr DW$94, DW_AT_begin_file("src\algorithm.c")
    1015                      .dwattr DW$94, DW_AT_begin_line(0x9b)
    1016                      .dwattr DW$94, DW_AT_end_line(0x9d)
    1017              DW$95   .dwtag  DW_TAG_loop_range
    1018                      .dwattr DW$95, DW_AT_low_pc(DW$L$_shift_filtering_data_obtain$21$B)
    1019                      .dwattr DW$95, DW_AT_high_pc(DW$L$_shift_filtering_data_obtain$21$E)
    1020              DW$96   .dwtag  DW_TAG_loop_range
    1021                      .dwattr DW$96, DW_AT_low_pc(DW$L$_shift_filtering_data_obtain$20$B)
    1022                      .dwattr DW$96, DW_AT_high_pc(DW$L$_shift_filtering_data_obtain$20$E)
    1023                      .dwendtag DW$94
    1024              
    1025                      .dwattr DW$86, DW_AT_end_file("src\algorithm.c")
    1026                      .dwattr DW$86, DW_AT_end_line(0xac)
    1027                      .dwattr DW$86, DW_AT_end_column(0x01)
    1028                      .dwendentry
    1029                      .dwendtag DW$86
    1030              
    1031 00000164               .sect   ".text"
    1032                      .global _fifo_buffer_init
    1033              
    1034              DW$97   .dwtag  DW_TAG_subprogram, DW_AT_name("fifo_buffer_init"), DW_AT_symbol_name("_fifo_buffer_init")
    1035                      .dwattr DW$97, DW_AT_low_pc(_fifo_buffer_init)
    1036                      .dwattr DW$97, DW_AT_high_pc(0x00)
    1037                      .dwattr DW$97, DW_AT_begin_file("src\fifo.c")
    1038                      .dwattr DW$97, DW_AT_begin_line(0x4a)
    1039                      .dwattr DW$97, DW_AT_begin_column(0x07)
    1040                      .dwpsn  "src\fifo.c",75,1
    1041              
    1042                      .dwfde DW$CIE
    1043              
    1044              ;***************************************************************
    1045              ;* FNAME: _fifo_buffer_init             FR SIZE:   6           *
    1046              ;*                                                             *
    1047              ;* FUNCTION ENVIRONMENT                                        *
    1048              ;*                                                             *
    1049              ;* FUNCTION PROPERTIES                                         *
    1050              ;*                            0 Parameter,  6 Auto,  0 SOE     *
    1051              ;***************************************************************
    1052              
    1053              _fifo_buffer_init:
    1054                      .dwcfa  0x1d, -2
    1055                      .dwcfa  0x1c, 26, 0
    1056                      .dwcfa  0x09, 40, 26
    1057 00000164 FE06          ADDB      SP,#6
    1058                      .dwcfa  0x1d, -8
TMS320C2000 COFF Assembler PC v4.1.3 Thu Aug 04 16:21:37 2011

Tools Copyright (c) 1996-2006 Texas Instruments Incorporated
C:\DOCUME~1\ADMINI~1\LOCALS~1\Temp\TI8402                            PAGE   21

    1059              ;* AR4   assigned to _self
    1060              DW$98   .dwtag  DW_TAG_formal_parameter, DW_AT_name("self"), DW_AT_symbol_name("_self")
    1061                      .dwattr DW$98, DW_AT_type(*DW$T$73)
    1062                      .dwattr DW$98, DW_AT_location[DW_OP_reg12]
    1063              ;* AL    assigned to _buffer_size
    1064              DW$99   .dwtag  DW_TAG_formal_parameter, DW_AT_name("buffer_size"), DW_AT_symbol_name("_buffer_size")
    1065                      .dwattr DW$99, DW_AT_type(*DW$T$23)
    1066                      .dwattr DW$99, DW_AT_location[DW_OP_reg0]
    1067              ;* AR5   assigned to _buf_ptr
    1068              DW$100  .dwtag  DW_TAG_formal_parameter, DW_AT_name("buf_ptr"), DW_AT_symbol_name("_buf_ptr")
    1069                      .dwattr DW$100, DW_AT_type(*DW$T$25)
    1070                      .dwattr DW$100, DW_AT_location[DW_OP_reg14]
    1071              DW$101  .dwtag  DW_TAG_variable, DW_AT_name("self"), DW_AT_symbol_name("_self")
    1072                      .dwattr DW$101, DW_AT_type(*DW$T$73)
    1073                      .dwattr DW$101, DW_AT_location[DW_OP_breg20 -2]
    1074              DW$102  .dwtag  DW_TAG_variable, DW_AT_name("buffer_size"), DW_AT_symbol_name("_buffer_size")
    1075                      .dwattr DW$102, DW_AT_type(*DW$T$23)
    1076                      .dwattr DW$102, DW_AT_location[DW_OP_breg20 -3]
    1077              DW$103  .dwtag  DW_TAG_variable, DW_AT_name("buf_ptr"), DW_AT_symbol_name("_buf_ptr")
    1078                      .dwattr DW$103, DW_AT_type(*DW$T$25)
    1079                      .dwattr DW$103, DW_AT_location[DW_OP_breg20 -6]
    1080 00000165 A046          MOVL      *-SP[6],XAR5          ; |75| 
    1081 00000166 9643          MOV       *-SP[3],AL            ; |75| 
    1082 00000167 A842          MOVL      *-SP[2],XAR4          ; |75| 
    1083                      .dwpsn  "src\fifo.c",76,2
    1084 00000168 8A42          MOVL      XAR4,*-SP[2]          ; |76| 
    1085 00000169 9243          MOV       AL,*-SP[3]            ; |76| 
    1086 0000016a 96D4          MOV       *+XAR4[2],AL          ; |76| 
    1087                      .dwpsn  "src\fifo.c",77,2
    1088 0000016b 8A42          MOVL      XAR4,*-SP[2]          ; |77| 
    1089 0000016c 0646          MOVL      ACC,*-SP[6]           ; |77| 
    1090 0000016d 1EE4          MOVL      *+XAR4[4],ACC         ; |77| 
    1091                      .dwpsn  "src\fifo.c",78,2
    1092 0000016e 8A42          MOVL      XAR4,*-SP[2]          ; |78| 
    1093 0000016f 2BCC          MOV       *+XAR4[1],#0          ; |78| 
    1094                      .dwpsn  "src\fifo.c",79,2
    1095 00000170 8A42          MOVL      XAR4,*-SP[2]          ; |79| 
    1096 00000171 2BC4          MOV       *+XAR4[0],#0          ; |79| 
    1097                      .dwpsn  "src\fifo.c",80,2
    1098                      .dwpsn  "src\fifo.c",81,1
    1099 00000172 FE86          SUBB      SP,#6
    1100                      .dwcfa  0x1d, -2
    1101 00000173 0006          LRETR
    1102                      ; return occurs
    1103                      .dwattr DW$97, DW_AT_end_file("src\fifo.c")
    1104                      .dwattr DW$97, DW_AT_end_line(0x51)
    1105                      .dwattr DW$97, DW_AT_end_column(0x01)
    1106                      .dwendentry
    1107                      .dwendtag DW$97
    1108              
    1109 00000174               .sect   ".text"
    1110                      .global _fifo_buffer_shift
    1111              
    1112              DW$104  .dwtag  DW_TAG_subprogram, DW_AT_name("fifo_buffer_shift"), DW_AT_symbol_name("_fifo_buffer_shift")
    1113                      .dwattr DW$104, DW_AT_low_pc(_fifo_buffer_shift)
TMS320C2000 COFF Assembler PC v4.1.3 Thu Aug 04 16:21:37 2011

Tools Copyright (c) 1996-2006 Texas Instruments Incorporated
C:\DOCUME~1\ADMINI~1\LOCALS~1\Temp\TI8402                            PAGE   22

    1114                      .dwattr DW$104, DW_AT_high_pc(0x00)
    1115                      .dwattr DW$104, DW_AT_begin_file("src\fifo.c")
    1116                      .dwattr DW$104, DW_AT_begin_line(0x5c)
    1117                      .dwattr DW$104, DW_AT_begin_column(0x0a)
    1118                      .dwpsn  "src\fifo.c",93,1
    1119              
    1120                      .dwfde DW$CIE
    1121              
    1122              ;***************************************************************
    1123              ;* FNAME: _fifo_buffer_shift            FR SIZE:   4           *
    1124              ;*                                                             *
    1125              ;* FUNCTION ENVIRONMENT                                        *
    1126              ;*                                                             *
    1127              ;* FUNCTION PROPERTIES                                         *
    1128              ;*                            0 Parameter,  3 Auto,  0 SOE     *
    1129              ;***************************************************************
    1130              
    1131              _fifo_buffer_shift:
    1132                      .dwcfa  0x1d, -2
    1133                      .dwcfa  0x1c, 26, 0
    1134                      .dwcfa  0x09, 40, 26
    1135 00000174 FE04          ADDB      SP,#4
    1136                      .dwcfa  0x1d, -6
    1137              ;* AR4   assigned to _self
    1138              DW$105  .dwtag  DW_TAG_formal_parameter, DW_AT_name("self"), DW_AT_symbol_name("_self")
    1139                      .dwattr DW$105, DW_AT_type(*DW$T$73)
    1140                      .dwattr DW$105, DW_AT_location[DW_OP_reg12]
    1141              ;* AL    assigned to _pos
    1142              DW$106  .dwtag  DW_TAG_formal_parameter, DW_AT_name("pos"), DW_AT_symbol_name("_pos")
    1143                      .dwattr DW$106, DW_AT_type(*DW$T$23)
    1144                      .dwattr DW$106, DW_AT_location[DW_OP_reg0]
    1145              DW$107  .dwtag  DW_TAG_variable, DW_AT_name("self"), DW_AT_symbol_name("_self")
    1146                      .dwattr DW$107, DW_AT_type(*DW$T$73)
    1147                      .dwattr DW$107, DW_AT_location[DW_OP_breg20 -2]
    1148              DW$108  .dwtag  DW_TAG_variable, DW_AT_name("pos"), DW_AT_symbol_name("_pos")
    1149                      .dwattr DW$108, DW_AT_type(*DW$T$23)
    1150                      .dwattr DW$108, DW_AT_location[DW_OP_breg20 -3]
    1151 00000175 9643          MOV       *-SP[3],AL            ; |93| 
    1152 00000176 A842          MOVL      *-SP[2],XAR4          ; |93| 
    1153                      .dwpsn  "src\fifo.c",94,2
    1154 00000177 8A42          MOVL      XAR4,*-SP[2]          ; |94| 
    1155 00000178 9243          MOV       AL,*-SP[3]            ; |94| 
    1156 00000179 9C01          ADDB      AL,#1                 ; |94| 
    1157 0000017a 54D4          CMP       AL,*+XAR4[2]          ; |94| 
    1158 0000017b ED03          BF        L20,NEQ               ; |94| 
    1159                      ; branchcc occurs ; |94| 
    1160                      .dwpsn  "src\fifo.c",96,3
    1161 0000017c 9A00          MOVB      AL,#0
    1162 0000017d 6F03          B         L21,UNC               ; |96| 
    1163                      ; branch occurs ; |96| 
    1164              L20:    
    1165                      .dwpsn  "src\fifo.c",100,3
    1166 0000017e 9243          MOV       AL,*-SP[3]            ; |100| 
    1167 0000017f 9C01          ADDB      AL,#1                 ; |100| 
    1168              L21:    
TMS320C2000 COFF Assembler PC v4.1.3 Thu Aug 04 16:21:37 2011

Tools Copyright (c) 1996-2006 Texas Instruments Incorporated
C:\DOCUME~1\ADMINI~1\LOCALS~1\Temp\TI8402                            PAGE   23

    1169                      .dwpsn  "src\fifo.c",102,1
    1170 00000180 FE84          SUBB      SP,#4                 ; |100| 
    1171                      .dwcfa  0x1d, -2
    1172 00000181 0006          LRETR
    1173                      ; return occurs
    1174                      .dwattr DW$104, DW_AT_end_file("src\fifo.c")
    1175                      .dwattr DW$104, DW_AT_end_line(0x66)
    1176                      .dwattr DW$104, DW_AT_end_column(0x01)
    1177                      .dwendentry
    1178                      .dwendtag DW$104
    1179              
    1180 00000182               .sect   ".text"
    1181                      .global _fifo_buffer_push
    1182              
    1183              DW$109  .dwtag  DW_TAG_subprogram, DW_AT_name("fifo_buffer_push"), DW_AT_symbol_name("_fifo_buffer_push")
    1184                      .dwattr DW$109, DW_AT_low_pc(_fifo_buffer_push)
    1185                      .dwattr DW$109, DW_AT_high_pc(0x00)
    1186                      .dwattr DW$109, DW_AT_begin_file("src\fifo.c")
    1187                      .dwattr DW$109, DW_AT_begin_line(0x70)
    1188                      .dwattr DW$109, DW_AT_begin_column(0x06)
    1189                      .dwpsn  "src\fifo.c",113,1
    1190              
    1191                      .dwfde DW$CIE
    1192              
    1193              ;***************************************************************
    1194              ;* FNAME: _fifo_buffer_push             FR SIZE:   6           *
    1195              ;*                                                             *
    1196              ;* FUNCTION ENVIRONMENT                                        *
    1197              ;*                                                             *
    1198              ;* FUNCTION PROPERTIES                                         *
    1199              ;*                            0 Parameter,  6 Auto,  0 SOE     *
    1200              ;***************************************************************
    1201              
    1202              _fifo_buffer_push:
    1203                      .dwcfa  0x1d, -2
    1204                      .dwcfa  0x1c, 26, 0
    1205                      .dwcfa  0x09, 40, 26
    1206 00000182 FE06          ADDB      SP,#6
    1207                      .dwcfa  0x1d, -8
    1208              ;* AR4   assigned to _self
    1209              DW$110  .dwtag  DW_TAG_formal_parameter, DW_AT_name("self"), DW_AT_symbol_name("_self")
    1210                      .dwattr DW$110, DW_AT_type(*DW$T$73)
    1211                      .dwattr DW$110, DW_AT_location[DW_OP_reg12]
    1212              ;* AR5   assigned to _data
    1213              DW$111  .dwtag  DW_TAG_formal_parameter, DW_AT_name("data"), DW_AT_symbol_name("_data")
    1214                      .dwattr DW$111, DW_AT_type(*DW$T$25)
    1215                      .dwattr DW$111, DW_AT_location[DW_OP_reg14]
    1216              ;* AL    assigned to _size
    1217              DW$112  .dwtag  DW_TAG_formal_parameter, DW_AT_name("size"), DW_AT_symbol_name("_size")
    1218                      .dwattr DW$112, DW_AT_type(*DW$T$23)
    1219                      .dwattr DW$112, DW_AT_location[DW_OP_reg0]
    1220              DW$113  .dwtag  DW_TAG_variable, DW_AT_name("self"), DW_AT_symbol_name("_self")
    1221                      .dwattr DW$113, DW_AT_type(*DW$T$73)
    1222                      .dwattr DW$113, DW_AT_location[DW_OP_breg20 -2]
    1223              DW$114  .dwtag  DW_TAG_variable, DW_AT_name("data"), DW_AT_symbol_name("_data")
TMS320C2000 COFF Assembler PC v4.1.3 Thu Aug 04 16:21:37 2011

Tools Copyright (c) 1996-2006 Texas Instruments Incorporated
C:\DOCUME~1\ADMINI~1\LOCALS~1\Temp\TI8402                            PAGE   24

    1224                      .dwattr DW$114, DW_AT_type(*DW$T$25)
    1225                      .dwattr DW$114, DW_AT_location[DW_OP_breg20 -4]
    1226              DW$115  .dwtag  DW_TAG_variable, DW_AT_name("size"), DW_AT_symbol_name("_size")
    1227                      .dwattr DW$115, DW_AT_type(*DW$T$23)
    1228                      .dwattr DW$115, DW_AT_location[DW_OP_breg20 -5]
    1229              DW$116  .dwtag  DW_TAG_variable, DW_AT_name("cur_size"), DW_AT_symbol_name("_cur_size")
    1230                      .dwattr DW$116, DW_AT_type(*DW$T$11)
    1231                      .dwattr DW$116, DW_AT_location[DW_OP_breg20 -6]
    1232 00000183 9645          MOV       *-SP[5],AL            ; |113| 
    1233 00000184 A044          MOVL      *-SP[4],XAR5          ; |113| 
    1234 00000185 A842          MOVL      *-SP[2],XAR4          ; |113| 
    1235                      .dwpsn  "src\fifo.c",115,8
    1236 00000186 2B46          MOV       *-SP[6],#0            ; |115| 
    1237                      .dwpsn  "src\fifo.c",115,21
    1238 00000187 9245          MOV       AL,*-SP[5]            ; |115| 
    1239 00000188 5446          CMP       AL,*-SP[6]            ; |115| 
    1240 00000189 6920          B         L24,LOS               ; |115| 
    1241                      ; branchcc occurs ; |115| 
    1242              L22:    
    1243              DW$L$_fifo_buffer_push$2$B:
    1244                      .dwpsn  "src\fifo.c",117,3
    1245 0000018a 5846          MOVZ      AR0,*-SP[6]           ; |117| 
    1246 0000018b 8A44          MOVL      XAR4,*-SP[4]          ; |117| 
    1247 0000018c 9294          MOV       AL,*+XAR4[AR0]        ; |117| 
    1248 0000018d 8A42          MOVL      XAR4,*-SP[2]          ; |117| 
    1249 0000018e 58CC          MOVZ      AR0,*+XAR4[1]         ; |117| 
    1250 0000018f 8A42          MOVL      XAR4,*-SP[2]          ; |117| 
    1251 00000190 8AE4          MOVL      XAR4,*+XAR4[4]        ; |117| 
    1252 00000191 9694          MOV       *+XAR4[AR0],AL        ; |117| 
    1253                      .dwpsn  "src\fifo.c",118,3
    1254 00000192 8A42          MOVL      XAR4,*-SP[2]          ; |118| 
    1255 00000193 92CC          MOV       AL,*+XAR4[1]          ; |118| 
    1256 00000194 8A42          MOVL      XAR4,*-SP[2]          ; |118| 
    1257 00000195 7640'         LCR       #_fifo_buffer_shift   ; |118| 
         00000196 0174 
    1258                      ; call occurs [#_fifo_buffer_shift] ; |118| 
    1259 00000197 8A42          MOVL      XAR4,*-SP[2]          ; |118| 
    1260 00000198 96CC          MOV       *+XAR4[1],AL          ; |118| 
    1261                      .dwpsn  "src\fifo.c",120,3
    1262 00000199 8A42          MOVL      XAR4,*-SP[2]          ; |120| 
    1263 0000019a 92C4          MOV       AL,*+XAR4[0]          ; |120| 
    1264 0000019b 8A42          MOVL      XAR4,*-SP[2]          ; |120| 
    1265 0000019c 54CC          CMP       AL,*+XAR4[1]          ; |120| 
    1266 0000019d ED08          BF        L23,NEQ               ; |120| 
    1267                      ; branchcc occurs ; |120| 
    1268              DW$L$_fifo_buffer_push$2$E:
    1269              DW$L$_fifo_buffer_push$3$B:
    1270                      .dwpsn  "src\fifo.c",122,4
    1271 0000019e 8A42          MOVL      XAR4,*-SP[2]          ; |122| 
    1272 0000019f 92C4          MOV       AL,*+XAR4[0]          ; |122| 
    1273 000001a0 8A42          MOVL      XAR4,*-SP[2]          ; |122| 
    1274 000001a1 7640'         LCR       #_fifo_buffer_shift   ; |122| 
         000001a2 0174 
    1275                      ; call occurs [#_fifo_buffer_shift] ; |122| 
    1276 000001a3 8A42          MOVL      XAR4,*-SP[2]          ; |122| 
TMS320C2000 COFF Assembler PC v4.1.3 Thu Aug 04 16:21:37 2011

Tools Copyright (c) 1996-2006 Texas Instruments Incorporated
C:\DOCUME~1\ADMINI~1\LOCALS~1\Temp\TI8402                            PAGE   25

    1277 000001a4 96C4          MOV       *+XAR4[0],AL          ; |122| 
    1278              DW$L$_fifo_buffer_push$3$E:
    1279              L23:    
    1280              DW$L$_fifo_buffer_push$4$B:
    1281                      .dwpsn  "src\fifo.c",115,37
    1282 000001a5 0A46          INC       *-SP[6]               ; |115| 
    1283                      .dwpsn  "src\fifo.c",115,21
    1284 000001a6 9245          MOV       AL,*-SP[5]            ; |115| 
    1285 000001a7 5446          CMP       AL,*-SP[6]            ; |115| 
    1286 000001a8 66E2          B         L22,HI                ; |115| 
    1287                      ; branchcc occurs ; |115| 
    1288              DW$L$_fifo_buffer_push$4$E:
    1289                      .dwpsn  "src\fifo.c",125,2
    1290              L24:    
    1291                      .dwpsn  "src\fifo.c",126,1
    1292 000001a9 FE86          SUBB      SP,#6
    1293                      .dwcfa  0x1d, -2
    1294 000001aa 0006          LRETR
    1295                      ; return occurs
    1296              
    1297              DW$117  .dwtag  DW_TAG_loop
    1298                      .dwattr DW$117, DW_AT_name("C:\DOCUME~1\ADMINI~1\LOCALS~1\Temp\TI8402:L22:1:1312446096")
    1299                      .dwattr DW$117, DW_AT_begin_file("src\fifo.c")
    1300                      .dwattr DW$117, DW_AT_begin_line(0x73)
    1301                      .dwattr DW$117, DW_AT_end_line(0x7c)
    1302              DW$118  .dwtag  DW_TAG_loop_range
    1303                      .dwattr DW$118, DW_AT_low_pc(DW$L$_fifo_buffer_push$2$B)
    1304                      .dwattr DW$118, DW_AT_high_pc(DW$L$_fifo_buffer_push$2$E)
    1305              DW$119  .dwtag  DW_TAG_loop_range
    1306                      .dwattr DW$119, DW_AT_low_pc(DW$L$_fifo_buffer_push$3$B)
    1307                      .dwattr DW$119, DW_AT_high_pc(DW$L$_fifo_buffer_push$3$E)
    1308              DW$120  .dwtag  DW_TAG_loop_range
    1309                      .dwattr DW$120, DW_AT_low_pc(DW$L$_fifo_buffer_push$4$B)
    1310                      .dwattr DW$120, DW_AT_high_pc(DW$L$_fifo_buffer_push$4$E)
    1311                      .dwendtag DW$117
    1312              
    1313                      .dwattr DW$109, DW_AT_end_file("src\fifo.c")
    1314                      .dwattr DW$109, DW_AT_end_line(0x7e)
    1315                      .dwattr DW$109, DW_AT_end_column(0x01)
    1316                      .dwendentry
    1317                      .dwendtag DW$109
    1318              
    1319 000001ab               .sect   ".text"
    1320                      .global _fifo_buffer_pop
    1321              
    1322              DW$121  .dwtag  DW_TAG_subprogram, DW_AT_name("fifo_buffer_pop"), DW_AT_symbol_name("_fifo_buffer_pop")
    1323                      .dwattr DW$121, DW_AT_low_pc(_fifo_buffer_pop)
    1324                      .dwattr DW$121, DW_AT_high_pc(0x00)
    1325                      .dwattr DW$121, DW_AT_begin_file("src\fifo.c")
    1326                      .dwattr DW$121, DW_AT_begin_line(0x88)
    1327                      .dwattr DW$121, DW_AT_begin_column(0x08)
    1328                      .dwpsn  "src\fifo.c",137,1
    1329              
    1330                      .dwfde DW$CIE
    1331              
TMS320C2000 COFF Assembler PC v4.1.3 Thu Aug 04 16:21:37 2011

Tools Copyright (c) 1996-2006 Texas Instruments Incorporated
C:\DOCUME~1\ADMINI~1\LOCALS~1\Temp\TI8402                            PAGE   26

    1332              ;***************************************************************
    1333              ;* FNAME: _fifo_buffer_pop              FR SIZE:   6           *
    1334              ;*                                                             *
    1335              ;* FUNCTION ENVIRONMENT                                        *
    1336              ;*                                                             *
    1337              ;* FUNCTION PROPERTIES                                         *
    1338              ;*                            0 Parameter,  6 Auto,  0 SOE     *
    1339              ;***************************************************************
    1340              
    1341              _fifo_buffer_pop:
    1342                      .dwcfa  0x1d, -2
    1343                      .dwcfa  0x1c, 26, 0
    1344                      .dwcfa  0x09, 40, 26
    1345 000001ab FE06          ADDB      SP,#6
    1346                      .dwcfa  0x1d, -8
    1347              ;* AR4   assigned to _self
    1348              DW$122  .dwtag  DW_TAG_formal_parameter, DW_AT_name("self"), DW_AT_symbol_name("_self")
    1349                      .dwattr DW$122, DW_AT_type(*DW$T$73)
    1350                      .dwattr DW$122, DW_AT_location[DW_OP_reg12]
    1351              ;* AR5   assigned to _data
    1352              DW$123  .dwtag  DW_TAG_formal_parameter, DW_AT_name("data"), DW_AT_symbol_name("_data")
    1353                      .dwattr DW$123, DW_AT_type(*DW$T$25)
    1354                      .dwattr DW$123, DW_AT_location[DW_OP_reg14]
    1355              ;* AL    assigned to _size
    1356              DW$124  .dwtag  DW_TAG_formal_parameter, DW_AT_name("size"), DW_AT_symbol_name("_size")
    1357                      .dwattr DW$124, DW_AT_type(*DW$T$23)
    1358                      .dwattr DW$124, DW_AT_location[DW_OP_reg0]
    1359              DW$125  .dwtag  DW_TAG_variable, DW_AT_name("self"), DW_AT_symbol_name("_self")
    1360                      .dwattr DW$125, DW_AT_type(*DW$T$73)
    1361                      .dwattr DW$125, DW_AT_location[DW_OP_breg20 -2]
    1362              DW$126  .dwtag  DW_TAG_variable, DW_AT_name("data"), DW_AT_symbol_name("_data")
    1363                      .dwattr DW$126, DW_AT_type(*DW$T$25)
    1364                      .dwattr DW$126, DW_AT_location[DW_OP_breg20 -4]
    1365              DW$127  .dwtag  DW_TAG_variable, DW_AT_name("size"), DW_AT_symbol_name("_size")
    1366                      .dwattr DW$127, DW_AT_type(*DW$T$23)
    1367                      .dwattr DW$127, DW_AT_location[DW_OP_breg20 -5]
    1368              DW$128  .dwtag  DW_TAG_variable, DW_AT_name("cur_size"), DW_AT_symbol_name("_cur_size")
    1369                      .dwattr DW$128, DW_AT_type(*DW$T$11)
    1370                      .dwattr DW$128, DW_AT_location[DW_OP_breg20 -6]
    1371 000001ac 9645          MOV       *-SP[5],AL            ; |137| 
    1372 000001ad A044          MOVL      *-SP[4],XAR5          ; |137| 
    1373 000001ae A842          MOVL      *-SP[2],XAR4          ; |137| 
    1374                      .dwpsn  "src\fifo.c",139,8
    1375 000001af 2B46          MOV       *-SP[6],#0            ; |139| 
    1376                      .dwpsn  "src\fifo.c",139,21
    1377 000001b0 9245          MOV       AL,*-SP[5]            ; |139| 
    1378 000001b1 5446          CMP       AL,*-SP[6]            ; |139| 
    1379 000001b2 6914          B         L26,LOS               ; |139| 
    1380                      ; branchcc occurs ; |139| 
    1381              L25:    
    1382              DW$L$_fifo_buffer_pop$2$B:
    1383                      .dwpsn  "src\fifo.c",141,3
    1384 000001b3 8A42          MOVL      XAR4,*-SP[2]          ; |141| 
    1385 000001b4 58C4          MOVZ      AR0,*+XAR4[0]         ; |141| 
    1386 000001b5 8A42          MOVL      XAR4,*-SP[2]          ; |141| 
TMS320C2000 COFF Assembler PC v4.1.3 Thu Aug 04 16:21:37 2011

Tools Copyright (c) 1996-2006 Texas Instruments Incorporated
C:\DOCUME~1\ADMINI~1\LOCALS~1\Temp\TI8402                            PAGE   27

    1387 000001b6 8AE4          MOVL      XAR4,*+XAR4[4]        ; |141| 
    1388 000001b7 9294          MOV       AL,*+XAR4[AR0]        ; |141| 
    1389 000001b8 5846          MOVZ      AR0,*-SP[6]           ; |141| 
    1390 000001b9 8A44          MOVL      XAR4,*-SP[4]          ; |141| 
    1391 000001ba 9694          MOV       *+XAR4[AR0],AL        ; |141| 
    1392                      .dwpsn  "src\fifo.c",142,3
    1393 000001bb 8A42          MOVL      XAR4,*-SP[2]          ; |142| 
    1394 000001bc 92C4          MOV       AL,*+XAR4[0]          ; |142| 
    1395 000001bd 8A42          MOVL      XAR4,*-SP[2]          ; |142| 
    1396 000001be 7640'         LCR       #_fifo_buffer_shift   ; |142| 
         000001bf 0174 
    1397                      ; call occurs [#_fifo_buffer_shift] ; |142| 
    1398 000001c0 8A42          MOVL      XAR4,*-SP[2]          ; |142| 
    1399 000001c1 96C4          MOV       *+XAR4[0],AL          ; |142| 
    1400                      .dwpsn  "src\fifo.c",139,37
    1401 000001c2 0A46          INC       *-SP[6]               ; |139| 
    1402                      .dwpsn  "src\fifo.c",139,21
    1403 000001c3 9245          MOV       AL,*-SP[5]            ; |139| 
    1404 000001c4 5446          CMP       AL,*-SP[6]            ; |139| 
    1405 000001c5 66EE          B         L25,HI                ; |139| 
    1406                      ; branchcc occurs ; |139| 
    1407              DW$L$_fifo_buffer_pop$2$E:
    1408                      .dwpsn  "src\fifo.c",144,2
    1409              L26:    
    1410                      .dwpsn  "src\fifo.c",145,1
    1411 000001c6 FE86          SUBB      SP,#6
    1412                      .dwcfa  0x1d, -2
    1413 000001c7 0006          LRETR
    1414                      ; return occurs
    1415              
    1416              DW$129  .dwtag  DW_TAG_loop
    1417                      .dwattr DW$129, DW_AT_name("C:\DOCUME~1\ADMINI~1\LOCALS~1\Temp\TI8402:L25:1:1312446096")
    1418                      .dwattr DW$129, DW_AT_begin_file("src\fifo.c")
    1419                      .dwattr DW$129, DW_AT_begin_line(0x8b)
    1420                      .dwattr DW$129, DW_AT_end_line(0x8f)
    1421              DW$130  .dwtag  DW_TAG_loop_range
    1422                      .dwattr DW$130, DW_AT_low_pc(DW$L$_fifo_buffer_pop$2$B)
    1423                      .dwattr DW$130, DW_AT_high_pc(DW$L$_fifo_buffer_pop$2$E)
    1424                      .dwendtag DW$129
    1425              
    1426                      .dwattr DW$121, DW_AT_end_file("src\fifo.c")
    1427                      .dwattr DW$121, DW_AT_end_line(0x91)
    1428                      .dwattr DW$121, DW_AT_end_column(0x01)
    1429                      .dwendentry
    1430                      .dwendtag DW$121
    1431              
    1432 000001c8               .sect   ".text"
    1433                      .global _fifo_buffer_get_size
    1434              
    1435              DW$131  .dwtag  DW_TAG_subprogram, DW_AT_name("fifo_buffer_get_size"), DW_AT_symbol_name("_fifo_buffer_get_si
    1436                      .dwattr DW$131, DW_AT_low_pc(_fifo_buffer_get_size)
    1437                      .dwattr DW$131, DW_AT_high_pc(0x00)
    1438                      .dwattr DW$131, DW_AT_begin_file("src\fifo.c")
    1439                      .dwattr DW$131, DW_AT_begin_line(0x99)
    1440                      .dwattr DW$131, DW_AT_begin_column(0x09)
TMS320C2000 COFF Assembler PC v4.1.3 Thu Aug 04 16:21:37 2011

Tools Copyright (c) 1996-2006 Texas Instruments Incorporated
C:\DOCUME~1\ADMINI~1\LOCALS~1\Temp\TI8402                            PAGE   28

    1441                      .dwpsn  "src\fifo.c",154,1
    1442              
    1443                      .dwfde DW$CIE
    1444              
    1445              ;***************************************************************
    1446              ;* FNAME: _fifo_buffer_get_size         FR SIZE:   2           *
    1447              ;*                                                             *
    1448              ;* FUNCTION ENVIRONMENT                                        *
    1449              ;*                                                             *
    1450              ;* FUNCTION PROPERTIES                                         *
    1451              ;*                            0 Parameter,  2 Auto,  0 SOE     *
    1452              ;***************************************************************
    1453              
    1454              _fifo_buffer_get_size:
    1455                      .dwcfa  0x1d, -2
    1456                      .dwcfa  0x1c, 26, 0
    1457                      .dwcfa  0x09, 40, 26
    1458 000001c8 FE02          ADDB      SP,#2
    1459                      .dwcfa  0x1d, -4
    1460              ;* AR4   assigned to _self
    1461              DW$132  .dwtag  DW_TAG_formal_parameter, DW_AT_name("self"), DW_AT_symbol_name("_self")
    1462                      .dwattr DW$132, DW_AT_type(*DW$T$73)
    1463                      .dwattr DW$132, DW_AT_location[DW_OP_reg12]
    1464              DW$133  .dwtag  DW_TAG_variable, DW_AT_name("self"), DW_AT_symbol_name("_self")
    1465                      .dwattr DW$133, DW_AT_type(*DW$T$73)
    1466                      .dwattr DW$133, DW_AT_location[DW_OP_breg20 -2]
    1467 000001c9 A842          MOVL      *-SP[2],XAR4          ; |154| 
    1468                      .dwpsn  "src\fifo.c",155,2
    1469 000001ca 8A42          MOVL      XAR4,*-SP[2]          ; |155| 
    1470 000001cb 92C4          MOV       AL,*+XAR4[0]          ; |155| 
    1471 000001cc 8A42          MOVL      XAR4,*-SP[2]          ; |155| 
    1472 000001cd 54CC          CMP       AL,*+XAR4[1]          ; |155| 
    1473 000001ce 6606          B         L27,HI                ; |155| 
    1474                      ; branchcc occurs ; |155| 
    1475                      .dwpsn  "src\fifo.c",157,3
    1476 000001cf 8342          MOVL      XAR5,*-SP[2]          ; |157| 
    1477 000001d0 8A42          MOVL      XAR4,*-SP[2]          ; |157| 
    1478 000001d1 92CD          MOV       AL,*+XAR5[1]          ; |157| 
    1479 000001d2 9EC4          SUB       AL,*+XAR4[0]          ; |157| 
    1480 000001d3 6F07          B         L28,UNC               ; |157| 
    1481                      ; branch occurs ; |157| 
    1482              L27:    
    1483                      .dwpsn  "src\fifo.c",161,3
    1484 000001d4 8342          MOVL      XAR5,*-SP[2]          ; |161| 
    1485 000001d5 8A42          MOVL      XAR4,*-SP[2]          ; |161| 
    1486 000001d6 92D5          MOV       AL,*+XAR5[2]          ; |161| 
    1487 000001d7 9EC4          SUB       AL,*+XAR4[0]          ; |161| 
    1488 000001d8 8A42          MOVL      XAR4,*-SP[2]          ; |161| 
    1489 000001d9 94CC          ADD       AL,*+XAR4[1]          ; |161| 
    1490              L28:    
    1491                      .dwpsn  "src\fifo.c",163,1
    1492 000001da FE82          SUBB      SP,#2                 ; |161| 
    1493                      .dwcfa  0x1d, -2
    1494 000001db 0006          LRETR
    1495                      ; return occurs
TMS320C2000 COFF Assembler PC v4.1.3 Thu Aug 04 16:21:37 2011

Tools Copyright (c) 1996-2006 Texas Instruments Incorporated
C:\DOCUME~1\ADMINI~1\LOCALS~1\Temp\TI8402                            PAGE   29

    1496                      .dwattr DW$131, DW_AT_end_file("src\fifo.c")
    1497                      .dwattr DW$131, DW_AT_end_line(0xa3)
    1498                      .dwattr DW$131, DW_AT_end_column(0x01)
    1499                      .dwendentry
    1500                      .dwendtag DW$131
    1501              
    1502 000001dc               .sect   ".text"
    1503                      .global _fifo_buffer_empty
    1504              
    1505              DW$134  .dwtag  DW_TAG_subprogram, DW_AT_name("fifo_buffer_empty"), DW_AT_symbol_name("_fifo_buffer_empty")
    1506                      .dwattr DW$134, DW_AT_low_pc(_fifo_buffer_empty)
    1507                      .dwattr DW$134, DW_AT_high_pc(0x00)
    1508                      .dwattr DW$134, DW_AT_begin_file("src\fifo.c")
    1509                      .dwattr DW$134, DW_AT_begin_line(0xab)
    1510                      .dwattr DW$134, DW_AT_begin_column(0x06)
    1511                      .dwpsn  "src\fifo.c",172,1
    1512              
    1513                      .dwfde DW$CIE
    1514              
    1515              ;***************************************************************
    1516              ;* FNAME: _fifo_buffer_empty            FR SIZE:   2           *
    1517              ;*                                                             *
    1518              ;* FUNCTION ENVIRONMENT                                        *
    1519              ;*                                                             *
    1520              ;* FUNCTION PROPERTIES                                         *
    1521              ;*                            0 Parameter,  2 Auto,  0 SOE     *
    1522              ;***************************************************************
    1523              
    1524              _fifo_buffer_empty:
    1525                      .dwcfa  0x1d, -2
    1526                      .dwcfa  0x1c, 26, 0
    1527                      .dwcfa  0x09, 40, 26
    1528 000001dc FE02          ADDB      SP,#2
    1529                      .dwcfa  0x1d, -4
    1530              ;* AR4   assigned to _self
    1531              DW$135  .dwtag  DW_TAG_formal_parameter, DW_AT_name("self"), DW_AT_symbol_name("_self")
    1532                      .dwattr DW$135, DW_AT_type(*DW$T$73)
    1533                      .dwattr DW$135, DW_AT_location[DW_OP_reg12]
    1534              DW$136  .dwtag  DW_TAG_variable, DW_AT_name("self"), DW_AT_symbol_name("_self")
    1535                      .dwattr DW$136, DW_AT_type(*DW$T$73)
    1536                      .dwattr DW$136, DW_AT_location[DW_OP_breg20 -2]
    1537 000001dd A842          MOVL      *-SP[2],XAR4          ; |172| 
    1538                      .dwpsn  "src\fifo.c",173,2
    1539 000001de 8A42          MOVL      XAR4,*-SP[2]          ; |173| 
    1540 000001df 2BC4          MOV       *+XAR4[0],#0          ; |173| 
    1541                      .dwpsn  "src\fifo.c",174,2
    1542 000001e0 8A42          MOVL      XAR4,*-SP[2]          ; |174| 
    1543 000001e1 2BCC          MOV       *+XAR4[1],#0          ; |174| 
    1544                      .dwpsn  "src\fifo.c",175,2
    1545                      .dwpsn  "src\fifo.c",176,1
    1546 000001e2 FE82          SUBB      SP,#2
    1547                      .dwcfa  0x1d, -2
    1548 000001e3 0006          LRETR
    1549                      ; return occurs
    1550                      .dwattr DW$134, DW_AT_end_file("src\fifo.c")
TMS320C2000 COFF Assembler PC v4.1.3 Thu Aug 04 16:21:37 2011

Tools Copyright (c) 1996-2006 Texas Instruments Incorporated
C:\DOCUME~1\ADMINI~1\LOCALS~1\Temp\TI8402                            PAGE   30

    1551                      .dwattr DW$134, DW_AT_end_line(0xb0)
    1552                      .dwattr DW$134, DW_AT_end_column(0x01)
    1553                      .dwendentry
    1554                      .dwendtag DW$134
    1555              
    1556 000001e4               .sect   ".text"
    1557                      .global _global_memcpy
    1558              
    1559              DW$137  .dwtag  DW_TAG_subprogram, DW_AT_name("global_memcpy"), DW_AT_symbol_name("_global_memcpy")
    1560                      .dwattr DW$137, DW_AT_low_pc(_global_memcpy)
    1561                      .dwattr DW$137, DW_AT_high_pc(0x00)
    1562                      .dwattr DW$137, DW_AT_begin_file("src\global.c")
    1563                      .dwattr DW$137, DW_AT_begin_line(0x88)
    1564                      .dwattr DW$137, DW_AT_begin_column(0x06)
    1565                      .dwpsn  "src\global.c",137,1
    1566              
    1567                      .dwfde DW$CIE
    1568              
    1569              ;***************************************************************
    1570              ;* FNAME: _global_memcpy                FR SIZE:   6           *
    1571              ;*                                                             *
    1572              ;* FUNCTION ENVIRONMENT                                        *
    1573              ;*                                                             *
    1574              ;* FUNCTION PROPERTIES                                         *
    1575              ;*                            0 Parameter,  5 Auto,  0 SOE     *
    1576              ;***************************************************************
    1577              
    1578              _global_memcpy:
    1579                      .dwcfa  0x1d, -2
    1580                      .dwcfa  0x1c, 26, 0
    1581                      .dwcfa  0x09, 40, 26
    1582 000001e4 FE06          ADDB      SP,#6
    1583                      .dwcfa  0x1d, -8
    1584              ;* AR4   assigned to _pur_add
    1585              DW$138  .dwtag  DW_TAG_formal_parameter, DW_AT_name("pur_add"), DW_AT_symbol_name("_pur_add")
    1586                      .dwattr DW$138, DW_AT_type(*DW$T$3)
    1587                      .dwattr DW$138, DW_AT_location[DW_OP_reg12]
    1588              ;* AR5   assigned to _src_ptr
    1589              DW$139  .dwtag  DW_TAG_formal_parameter, DW_AT_name("src_ptr"), DW_AT_symbol_name("_src_ptr")
    1590                      .dwattr DW$139, DW_AT_type(*DW$T$3)
    1591                      .dwattr DW$139, DW_AT_location[DW_OP_reg14]
    1592              ;* AL    assigned to _lenth
    1593              DW$140  .dwtag  DW_TAG_formal_parameter, DW_AT_name("lenth"), DW_AT_symbol_name("_lenth")
    1594                      .dwattr DW$140, DW_AT_type(*DW$T$23)
    1595                      .dwattr DW$140, DW_AT_location[DW_OP_reg0]
    1596              DW$141  .dwtag  DW_TAG_variable, DW_AT_name("pur_add"), DW_AT_symbol_name("_pur_add")
    1597                      .dwattr DW$141, DW_AT_type(*DW$T$3)
    1598                      .dwattr DW$141, DW_AT_location[DW_OP_breg20 -2]
    1599              DW$142  .dwtag  DW_TAG_variable, DW_AT_name("src_ptr"), DW_AT_symbol_name("_src_ptr")
    1600                      .dwattr DW$142, DW_AT_type(*DW$T$3)
    1601                      .dwattr DW$142, DW_AT_location[DW_OP_breg20 -4]
    1602              DW$143  .dwtag  DW_TAG_variable, DW_AT_name("lenth"), DW_AT_symbol_name("_lenth")
    1603                      .dwattr DW$143, DW_AT_type(*DW$T$23)
    1604                      .dwattr DW$143, DW_AT_location[DW_OP_breg20 -5]
    1605 000001e5 9645          MOV       *-SP[5],AL            ; |137| 
TMS320C2000 COFF Assembler PC v4.1.3 Thu Aug 04 16:21:37 2011

Tools Copyright (c) 1996-2006 Texas Instruments Incorporated
C:\DOCUME~1\ADMINI~1\LOCALS~1\Temp\TI8402                            PAGE   31

    1606 000001e6 A044          MOVL      *-SP[4],XAR5          ; |137| 
    1607 000001e7 A842          MOVL      *-SP[2],XAR4          ; |137| 
    1608                      .dwpsn  "src\global.c",138,2
    1609 000001e8 8A42          MOVL      XAR4,*-SP[2]          ; |138| 
    1610 000001e9 8344          MOVL      XAR5,*-SP[4]          ; |138| 
    1611 000001ea 0E45          MOVU      ACC,*-SP[5]
    1612 000001eb 7640!         LCR       #___memcpy_ff         ; |138| 
         000001ec 0000 
    1613                      ; call occurs [#___memcpy_ff] ; |138| 
    1614                      .dwpsn  "src\global.c",139,2
    1615                      .dwpsn  "src\global.c",140,1
    1616 000001ed FE86          SUBB      SP,#6
    1617                      .dwcfa  0x1d, -2
    1618 000001ee 0006          LRETR
    1619                      ; return occurs
    1620                      .dwattr DW$137, DW_AT_end_file("src\global.c")
    1621                      .dwattr DW$137, DW_AT_end_line(0x8c)
    1622                      .dwattr DW$137, DW_AT_end_column(0x01)
    1623                      .dwendentry
    1624                      .dwendtag DW$137
    1625              
    1626 000001ef               .sect   ".text"
    1627                      .global _global_memset
    1628              
    1629              DW$144  .dwtag  DW_TAG_subprogram, DW_AT_name("global_memset"), DW_AT_symbol_name("_global_memset")
    1630                      .dwattr DW$144, DW_AT_low_pc(_global_memset)
    1631                      .dwattr DW$144, DW_AT_high_pc(0x00)
    1632                      .dwattr DW$144, DW_AT_begin_file("src\global.c")
    1633                      .dwattr DW$144, DW_AT_begin_line(0x8d)
    1634                      .dwattr DW$144, DW_AT_begin_column(0x06)
    1635                      .dwpsn  "src\global.c",142,1
    1636              
    1637                      .dwfde DW$CIE
    1638              
    1639              ;***************************************************************
    1640              ;* FNAME: _global_memset                FR SIZE:   4           *
    1641              ;*                                                             *
    1642              ;* FUNCTION ENVIRONMENT                                        *
    1643              ;*                                                             *
    1644              ;* FUNCTION PROPERTIES                                         *
    1645              ;*                            0 Parameter,  4 Auto,  0 SOE     *
    1646              ;***************************************************************
    1647              
    1648              _global_memset:
    1649                      .dwcfa  0x1d, -2
    1650                      .dwcfa  0x1c, 26, 0
    1651                      .dwcfa  0x09, 40, 26
    1652 000001ef FE04          ADDB      SP,#4
    1653                      .dwcfa  0x1d, -6
    1654              ;* AR4   assigned to _pur_add
    1655              DW$145  .dwtag  DW_TAG_formal_parameter, DW_AT_name("pur_add"), DW_AT_symbol_name("_pur_add")
    1656                      .dwattr DW$145, DW_AT_type(*DW$T$3)
    1657                      .dwattr DW$145, DW_AT_location[DW_OP_reg12]
    1658              ;* AL    assigned to _pad_data
    1659              DW$146  .dwtag  DW_TAG_formal_parameter, DW_AT_name("pad_data"), DW_AT_symbol_name("_pad_data")
TMS320C2000 COFF Assembler PC v4.1.3 Thu Aug 04 16:21:37 2011

Tools Copyright (c) 1996-2006 Texas Instruments Incorporated
C:\DOCUME~1\ADMINI~1\LOCALS~1\Temp\TI8402                            PAGE   32

    1660                      .dwattr DW$146, DW_AT_type(*DW$T$6)
    1661                      .dwattr DW$146, DW_AT_location[DW_OP_reg0]
    1662              ;* AH    assigned to _lenth
    1663              DW$147  .dwtag  DW_TAG_formal_parameter, DW_AT_name("lenth"), DW_AT_symbol_name("_lenth")
    1664                      .dwattr DW$147, DW_AT_type(*DW$T$23)
    1665                      .dwattr DW$147, DW_AT_location[DW_OP_reg1]
    1666              DW$148  .dwtag  DW_TAG_variable, DW_AT_name("pur_add"), DW_AT_symbol_name("_pur_add")
    1667                      .dwattr DW$148, DW_AT_type(*DW$T$3)
    1668                      .dwattr DW$148, DW_AT_location[DW_OP_breg20 -2]
    1669              DW$149  .dwtag  DW_TAG_variable, DW_AT_name("pad_data"), DW_AT_symbol_name("_pad_data")
    1670                      .dwattr DW$149, DW_AT_type(*DW$T$6)
    1671                      .dwattr DW$149, DW_AT_location[DW_OP_breg20 -3]
    1672              DW$150  .dwtag  DW_TAG_variable, DW_AT_name("lenth"), DW_AT_symbol_name("_lenth")
    1673                      .dwattr DW$150, DW_AT_type(*DW$T$23)
    1674                      .dwattr DW$150, DW_AT_location[DW_OP_breg20 -4]
    1675 000001f0 9744          MOV       *-SP[4],AH            ; |142| 
    1676 000001f1 9643          MOV       *-SP[3],AL            ; |142| 
    1677 000001f2 A842          MOVL      *-SP[2],XAR4          ; |142| 
    1678                      .dwpsn  "src\global.c",143,2
    1679 000001f3 5D43          MOVZ      AR5,*-SP[3]           ; |143| 
    1680 000001f4 8A42          MOVL      XAR4,*-SP[2]          ; |143| 
    1681 000001f5 0E44          MOVU      ACC,*-SP[4]
    1682 000001f6 7640!         LCR       #_memset              ; |143| 
         000001f7 0000 
    1683                      ; call occurs [#_memset] ; |143| 
    1684                      .dwpsn  "src\global.c",144,2
    1685                      .dwpsn  "src\global.c",145,1
    1686 000001f8 FE84          SUBB      SP,#4
    1687                      .dwcfa  0x1d, -2
    1688 000001f9 0006          LRETR
    1689                      ; return occurs
    1690                      .dwattr DW$144, DW_AT_end_file("src\global.c")
    1691                      .dwattr DW$144, DW_AT_end_line(0x91)
    1692                      .dwattr DW$144, DW_AT_end_column(0x01)
    1693                      .dwendentry
    1694                      .dwendtag DW$144
    1695              
    1696 000001fa               .sect   ".text"
    1697                      .global _global_memcmp
    1698              
    1699              DW$151  .dwtag  DW_TAG_subprogram, DW_AT_name("global_memcmp"), DW_AT_symbol_name("_global_memcmp")
    1700                      .dwattr DW$151, DW_AT_low_pc(_global_memcmp)
    1701                      .dwattr DW$151, DW_AT_high_pc(0x00)
    1702                      .dwattr DW$151, DW_AT_begin_file("src\global.c")
    1703                      .dwattr DW$151, DW_AT_begin_line(0x92)
    1704                      .dwattr DW$151, DW_AT_begin_column(0x06)
    1705                      .dwpsn  "src\global.c",147,1
    1706              
    1707                      .dwfde DW$CIE
    1708              
    1709              ;***************************************************************
    1710              ;* FNAME: _global_memcmp                FR SIZE:   6           *
    1711              ;*                                                             *
    1712              ;* FUNCTION ENVIRONMENT                                        *
    1713              ;*                                                             *
TMS320C2000 COFF Assembler PC v4.1.3 Thu Aug 04 16:21:37 2011

Tools Copyright (c) 1996-2006 Texas Instruments Incorporated
C:\DOCUME~1\ADMINI~1\LOCALS~1\Temp\TI8402                            PAGE   33

    1714              ;* FUNCTION PROPERTIES                                         *
    1715              ;*                            0 Parameter,  6 Auto,  0 SOE     *
    1716              ;***************************************************************
    1717              
    1718              _global_memcmp:
    1719                      .dwcfa  0x1d, -2
    1720                      .dwcfa  0x1c, 26, 0
    1721                      .dwcfa  0x09, 40, 26
    1722 000001fa FE06          ADDB      SP,#6
    1723                      .dwcfa  0x1d, -8
    1724              ;* AR4   assigned to _pur_add
    1725              DW$152  .dwtag  DW_TAG_formal_parameter, DW_AT_name("pur_add"), DW_AT_symbol_name("_pur_add")
    1726                      .dwattr DW$152, DW_AT_type(*DW$T$3)
    1727                      .dwattr DW$152, DW_AT_location[DW_OP_reg12]
    1728              ;* AR5   assigned to _src_ptr
    1729              DW$153  .dwtag  DW_TAG_formal_parameter, DW_AT_name("src_ptr"), DW_AT_symbol_name("_src_ptr")
    1730                      .dwattr DW$153, DW_AT_type(*DW$T$3)
    1731                      .dwattr DW$153, DW_AT_location[DW_OP_reg14]
    1732              ;* AL    assigned to _lenth
    1733              DW$154  .dwtag  DW_TAG_formal_parameter, DW_AT_name("lenth"), DW_AT_symbol_name("_lenth")
    1734                      .dwattr DW$154, DW_AT_type(*DW$T$23)
    1735                      .dwattr DW$154, DW_AT_location[DW_OP_reg0]
    1736              DW$155  .dwtag  DW_TAG_variable, DW_AT_name("pur_add"), DW_AT_symbol_name("_pur_add")
    1737                      .dwattr DW$155, DW_AT_type(*DW$T$3)
    1738                      .dwattr DW$155, DW_AT_location[DW_OP_breg20 -2]
    1739              DW$156  .dwtag  DW_TAG_variable, DW_AT_name("src_ptr"), DW_AT_symbol_name("_src_ptr")
    1740                      .dwattr DW$156, DW_AT_type(*DW$T$3)
    1741                      .dwattr DW$156, DW_AT_location[DW_OP_breg20 -4]
    1742              DW$157  .dwtag  DW_TAG_variable, DW_AT_name("lenth"), DW_AT_symbol_name("_lenth")
    1743                      .dwattr DW$157, DW_AT_type(*DW$T$23)
    1744                      .dwattr DW$157, DW_AT_location[DW_OP_breg20 -5]
    1745              DW$158  .dwtag  DW_TAG_variable, DW_AT_name("ret"), DW_AT_symbol_name("_ret")
    1746                      .dwattr DW$158, DW_AT_type(*DW$T$10)
    1747                      .dwattr DW$158, DW_AT_location[DW_OP_breg20 -6]
    1748 000001fb 9645          MOV       *-SP[5],AL            ; |147| 
    1749 000001fc A044          MOVL      *-SP[4],XAR5          ; |147| 
    1750 000001fd A842          MOVL      *-SP[2],XAR4          ; |147| 
    1751                      .dwpsn  "src\global.c",149,2
    1752 000001fe 8A42          MOVL      XAR4,*-SP[2]          ; |149| 
    1753 000001ff 8344          MOVL      XAR5,*-SP[4]          ; |149| 
    1754 00000200 0E45          MOVU      ACC,*-SP[5]
    1755 00000201 7640!         LCR       #_memcmp              ; |149| 
         00000202 0000 
    1756                      ; call occurs [#_memcmp] ; |149| 
    1757 00000203 9646          MOV       *-SP[6],AL            ; |149| 
    1758                      .dwpsn  "src\global.c",150,2
    1759 00000204 5200          CMPB      AL,#0                 ; |150| 
    1760 00000205 ED03          BF        L29,NEQ               ; |150| 
    1761                      ; branchcc occurs ; |150| 
    1762 00000206 9A01          MOVB      AL,#1                 ; |150| 
    1763 00000207 6F02          B         L30,UNC               ; |150| 
    1764                      ; branch occurs ; |150| 
    1765 00000208       L29:    
    1766 00000208 9A00          MOVB      AL,#0
    1767              L30:    
TMS320C2000 COFF Assembler PC v4.1.3 Thu Aug 04 16:21:37 2011

Tools Copyright (c) 1996-2006 Texas Instruments Incorporated
C:\DOCUME~1\ADMINI~1\LOCALS~1\Temp\TI8402                            PAGE   34

    1768                      .dwpsn  "src\global.c",151,1
    1769 00000209 FE86          SUBB      SP,#6                 ; |150| 
    1770                      .dwcfa  0x1d, -2
    1771 0000020a 0006          LRETR
    1772                      ; return occurs
    1773                      .dwattr DW$151, DW_AT_end_file("src\global.c")
    1774                      .dwattr DW$151, DW_AT_end_line(0x97)
    1775                      .dwattr DW$151, DW_AT_end_column(0x01)
    1776                      .dwendentry
    1777                      .dwendtag DW$151
    1778              
    1779 0000020b               .sect   ".text"
    1780                      .global _global_strlen
    1781              
    1782              DW$159  .dwtag  DW_TAG_subprogram, DW_AT_name("global_strlen"), DW_AT_symbol_name("_global_strlen")
    1783                      .dwattr DW$159, DW_AT_low_pc(_global_strlen)
    1784                      .dwattr DW$159, DW_AT_high_pc(0x00)
    1785                      .dwattr DW$159, DW_AT_begin_file("src\global.c")
    1786                      .dwattr DW$159, DW_AT_begin_line(0x98)
    1787                      .dwattr DW$159, DW_AT_begin_column(0x09)
    1788                      .dwpsn  "src\global.c",153,1
    1789              
    1790                      .dwfde DW$CIE
    1791              
    1792              ;***************************************************************
    1793              ;* FNAME: _global_strlen                FR SIZE:   2           *
    1794              ;*                                                             *
    1795              ;* FUNCTION ENVIRONMENT                                        *
    1796              ;*                                                             *
    1797              ;* FUNCTION PROPERTIES                                         *
    1798              ;*                            0 Parameter,  2 Auto,  0 SOE     *
    1799              ;***************************************************************
    1800              
    1801              _global_strlen:
    1802                      .dwcfa  0x1d, -2
    1803                      .dwcfa  0x1c, 26, 0
    1804                      .dwcfa  0x09, 40, 26
    1805 0000020b FE02          ADDB      SP,#2
    1806                      .dwcfa  0x1d, -4
    1807              ;* AR4   assigned to _psrc
    1808              DW$160  .dwtag  DW_TAG_formal_parameter, DW_AT_name("psrc"), DW_AT_symbol_name("_psrc")
    1809                      .dwattr DW$160, DW_AT_type(*DW$T$82)
    1810                      .dwattr DW$160, DW_AT_location[DW_OP_reg12]
    1811              DW$161  .dwtag  DW_TAG_variable, DW_AT_name("psrc"), DW_AT_symbol_name("_psrc")
    1812                      .dwattr DW$161, DW_AT_type(*DW$T$82)
    1813                      .dwattr DW$161, DW_AT_location[DW_OP_breg20 -2]
    1814 0000020c A842          MOVL      *-SP[2],XAR4          ; |153| 
    1815                      .dwpsn  "src\global.c",154,2
    1816 0000020d 8A42          MOVL      XAR4,*-SP[2]          ; |154| 
    1817 0000020e 7640!         LCR       #_strlen              ; |154| 
         0000020f 0000 
    1818                      ; call occurs [#_strlen] ; |154| 
    1819                      .dwpsn  "src\global.c",155,1
    1820 00000210 FE82          SUBB      SP,#2                 ; |154| 
    1821                      .dwcfa  0x1d, -2
TMS320C2000 COFF Assembler PC v4.1.3 Thu Aug 04 16:21:37 2011

Tools Copyright (c) 1996-2006 Texas Instruments Incorporated
C:\DOCUME~1\ADMINI~1\LOCALS~1\Temp\TI8402                            PAGE   35

    1822 00000211 0006          LRETR
    1823                      ; return occurs
    1824                      .dwattr DW$159, DW_AT_end_file("src\global.c")
    1825                      .dwattr DW$159, DW_AT_end_line(0x9b)
    1826                      .dwattr DW$159, DW_AT_end_column(0x01)
    1827                      .dwendentry
    1828                      .dwendtag DW$159
    1829              
    1830 00000212               .sect   ".text"
    1831                      .global _global_strcat
    1832              
    1833              DW$162  .dwtag  DW_TAG_subprogram, DW_AT_name("global_strcat"), DW_AT_symbol_name("_global_strcat")
    1834                      .dwattr DW$162, DW_AT_low_pc(_global_strcat)
    1835                      .dwattr DW$162, DW_AT_high_pc(0x00)
    1836                      .dwattr DW$162, DW_AT_begin_file("src\global.c")
    1837                      .dwattr DW$162, DW_AT_begin_line(0x9d)
    1838                      .dwattr DW$162, DW_AT_begin_column(0x06)
    1839                      .dwpsn  "src\global.c",158,1
    1840              
    1841                      .dwfde DW$CIE
    1842              
    1843              ;***************************************************************
    1844              ;* FNAME: _global_strcat                FR SIZE:   4           *
    1845              ;*                                                             *
    1846              ;* FUNCTION ENVIRONMENT                                        *
    1847              ;*                                                             *
    1848              ;* FUNCTION PROPERTIES                                         *
    1849              ;*                            0 Parameter,  4 Auto,  0 SOE     *
    1850              ;***************************************************************
    1851              
    1852              _global_strcat:
    1853                      .dwcfa  0x1d, -2
    1854                      .dwcfa  0x1c, 26, 0
    1855                      .dwcfa  0x09, 40, 26
    1856 00000212 FE04          ADDB      SP,#4
    1857                      .dwcfa  0x1d, -6
    1858              ;* AR4   assigned to _pstr1
    1859              DW$163  .dwtag  DW_TAG_formal_parameter, DW_AT_name("pstr1"), DW_AT_symbol_name("_pstr1")
    1860                      .dwattr DW$163, DW_AT_type(*DW$T$82)
    1861                      .dwattr DW$163, DW_AT_location[DW_OP_reg12]
    1862              ;* AR5   assigned to _pstr2
    1863              DW$164  .dwtag  DW_TAG_formal_parameter, DW_AT_name("pstr2"), DW_AT_symbol_name("_pstr2")
    1864                      .dwattr DW$164, DW_AT_type(*DW$T$82)
    1865                      .dwattr DW$164, DW_AT_location[DW_OP_reg14]
    1866              DW$165  .dwtag  DW_TAG_variable, DW_AT_name("pstr1"), DW_AT_symbol_name("_pstr1")
    1867                      .dwattr DW$165, DW_AT_type(*DW$T$82)
    1868                      .dwattr DW$165, DW_AT_location[DW_OP_breg20 -2]
    1869              DW$166  .dwtag  DW_TAG_variable, DW_AT_name("pstr2"), DW_AT_symbol_name("_pstr2")
    1870                      .dwattr DW$166, DW_AT_type(*DW$T$82)
    1871                      .dwattr DW$166, DW_AT_location[DW_OP_breg20 -4]
    1872 00000213 A044          MOVL      *-SP[4],XAR5          ; |158| 
    1873 00000214 A842          MOVL      *-SP[2],XAR4          ; |158| 
    1874                      .dwpsn  "src\global.c",159,2
    1875 00000215 8A42          MOVL      XAR4,*-SP[2]          ; |159| 
    1876 00000216 8344          MOVL      XAR5,*-SP[4]          ; |159| 
TMS320C2000 COFF Assembler PC v4.1.3 Thu Aug 04 16:21:37 2011

Tools Copyright (c) 1996-2006 Texas Instruments Incorporated
C:\DOCUME~1\ADMINI~1\LOCALS~1\Temp\TI8402                            PAGE   36

    1877 00000217 7640!         LCR       #_strcat              ; |159| 
         00000218 0000 
    1878                      ; call occurs [#_strcat] ; |159| 
    1879                      .dwpsn  "src\global.c",160,2
    1880                      .dwpsn  "src\global.c",161,1
    1881 00000219 FE84          SUBB      SP,#4
    1882                      .dwcfa  0x1d, -2
    1883 0000021a 0006          LRETR
    1884                      ; return occurs
    1885                      .dwattr DW$162, DW_AT_end_file("src\global.c")
    1886                      .dwattr DW$162, DW_AT_end_line(0xa1)
    1887                      .dwattr DW$162, DW_AT_end_column(0x01)
    1888                      .dwendentry
    1889                      .dwendtag DW$162
    1890              
    1891 0000021b               .sect   ".text"
    1892                      .global _global_strcpy
    1893              
    1894              DW$167  .dwtag  DW_TAG_subprogram, DW_AT_name("global_strcpy"), DW_AT_symbol_name("_global_strcpy")
    1895                      .dwattr DW$167, DW_AT_low_pc(_global_strcpy)
    1896                      .dwattr DW$167, DW_AT_high_pc(0x00)
    1897                      .dwattr DW$167, DW_AT_begin_file("src\global.c")
    1898                      .dwattr DW$167, DW_AT_begin_line(0xa2)
    1899                      .dwattr DW$167, DW_AT_begin_column(0x07)
    1900                      .dwpsn  "src\global.c",163,1
    1901              
    1902                      .dwfde DW$CIE
    1903              
    1904              ;***************************************************************
    1905              ;* FNAME: _global_strcpy                FR SIZE:   4           *
    1906              ;*                                                             *
    1907              ;* FUNCTION ENVIRONMENT                                        *
    1908              ;*                                                             *
    1909              ;* FUNCTION PROPERTIES                                         *
    1910              ;*                            0 Parameter,  4 Auto,  0 SOE     *
    1911              ;***************************************************************
    1912              
    1913              _global_strcpy:
    1914                      .dwcfa  0x1d, -2
    1915                      .dwcfa  0x1c, 26, 0
    1916                      .dwcfa  0x09, 40, 26
    1917 0000021b FE04          ADDB      SP,#4
    1918                      .dwcfa  0x1d, -6
    1919              ;* AR4   assigned to _pdest
    1920              DW$168  .dwtag  DW_TAG_formal_parameter, DW_AT_name("pdest"), DW_AT_symbol_name("_pdest")
    1921                      .dwattr DW$168, DW_AT_type(*DW$T$82)
    1922                      .dwattr DW$168, DW_AT_location[DW_OP_reg12]
    1923              ;* AR5   assigned to _psrc
    1924              DW$169  .dwtag  DW_TAG_formal_parameter, DW_AT_name("psrc"), DW_AT_symbol_name("_psrc")
    1925                      .dwattr DW$169, DW_AT_type(*DW$T$82)
    1926                      .dwattr DW$169, DW_AT_location[DW_OP_reg14]
    1927              DW$170  .dwtag  DW_TAG_variable, DW_AT_name("pdest"), DW_AT_symbol_name("_pdest")
    1928                      .dwattr DW$170, DW_AT_type(*DW$T$82)
    1929                      .dwattr DW$170, DW_AT_location[DW_OP_breg20 -2]
    1930              DW$171  .dwtag  DW_TAG_variable, DW_AT_name("psrc"), DW_AT_symbol_name("_psrc")
TMS320C2000 COFF Assembler PC v4.1.3 Thu Aug 04 16:21:37 2011

Tools Copyright (c) 1996-2006 Texas Instruments Incorporated
C:\DOCUME~1\ADMINI~1\LOCALS~1\Temp\TI8402                            PAGE   37

    1931                      .dwattr DW$171, DW_AT_type(*DW$T$82)
    1932                      .dwattr DW$171, DW_AT_location[DW_OP_breg20 -4]
    1933 0000021c A044          MOVL      *-SP[4],XAR5          ; |163| 
    1934 0000021d A842          MOVL      *-SP[2],XAR4          ; |163| 
    1935                      .dwpsn  "src\global.c",164,2
    1936 0000021e 8A42          MOVL      XAR4,*-SP[2]          ; |164| 
    1937 0000021f 8344          MOVL      XAR5,*-SP[4]          ; |164| 
    1938 00000220 7640!         LCR       #_strcpy              ; |164| 
         00000221 0000 
    1939                      ; call occurs [#_strcpy] ; |164| 
    1940                      .dwpsn  "src\global.c",165,1
    1941 00000222 FE84          SUBB      SP,#4                 ; |164| 
    1942                      .dwcfa  0x1d, -2
    1943 00000223 0006          LRETR
    1944                      ; return occurs
    1945                      .dwattr DW$167, DW_AT_end_file("src\global.c")
    1946                      .dwattr DW$167, DW_AT_end_line(0xa5)
    1947                      .dwattr DW$167, DW_AT_end_column(0x01)
    1948                      .dwendentry
    1949                      .dwendtag DW$167
    1950              
    1951 00000224               .sect   ".text"
    1952                      .global _global_string_locate_first
    1953              
    1954              DW$172  .dwtag  DW_TAG_subprogram, DW_AT_name("global_string_locate_first"), DW_AT_symbol_name("_global_strin
    1955                      .dwattr DW$172, DW_AT_low_pc(_global_string_locate_first)
    1956                      .dwattr DW$172, DW_AT_high_pc(0x00)
    1957                      .dwattr DW$172, DW_AT_begin_file("src\global.c")
    1958                      .dwattr DW$172, DW_AT_begin_line(0xae)
    1959                      .dwattr DW$172, DW_AT_begin_column(0x07)
    1960                      .dwpsn  "src\global.c",175,1
    1961              
    1962                      .dwfde DW$CIE
    1963              
    1964              ;***************************************************************
    1965              ;* FNAME: _global_string_locate_first   FR SIZE:   8           *
    1966              ;*                                                             *
    1967              ;* FUNCTION ENVIRONMENT                                        *
    1968              ;*                                                             *
    1969              ;* FUNCTION PROPERTIES                                         *
    1970              ;*                            0 Parameter,  7 Auto,  0 SOE     *
    1971              ;***************************************************************
    1972              
    1973              _global_string_locate_first:
    1974                      .dwcfa  0x1d, -2
    1975                      .dwcfa  0x1c, 26, 0
    1976                      .dwcfa  0x09, 40, 26
    1977 00000224 FE08          ADDB      SP,#8
    1978                      .dwcfa  0x1d, -10
    1979              ;* AR4   assigned to _psrc
    1980              DW$173  .dwtag  DW_TAG_formal_parameter, DW_AT_name("psrc"), DW_AT_symbol_name("_psrc")
    1981                      .dwattr DW$173, DW_AT_type(*DW$T$82)
    1982                      .dwattr DW$173, DW_AT_location[DW_OP_reg12]
    1983              ;* AR5   assigned to _psearch
    1984              DW$174  .dwtag  DW_TAG_formal_parameter, DW_AT_name("psearch"), DW_AT_symbol_name("_psearch")
TMS320C2000 COFF Assembler PC v4.1.3 Thu Aug 04 16:21:37 2011

Tools Copyright (c) 1996-2006 Texas Instruments Incorporated
C:\DOCUME~1\ADMINI~1\LOCALS~1\Temp\TI8402                            PAGE   38

    1985                      .dwattr DW$174, DW_AT_type(*DW$T$82)
    1986                      .dwattr DW$174, DW_AT_location[DW_OP_reg14]
    1987              DW$175  .dwtag  DW_TAG_variable, DW_AT_name("psrc"), DW_AT_symbol_name("_psrc")
    1988                      .dwattr DW$175, DW_AT_type(*DW$T$82)
    1989                      .dwattr DW$175, DW_AT_location[DW_OP_breg20 -2]
    1990              DW$176  .dwtag  DW_TAG_variable, DW_AT_name("psearch"), DW_AT_symbol_name("_psearch")
    1991                      .dwattr DW$176, DW_AT_type(*DW$T$82)
    1992                      .dwattr DW$176, DW_AT_location[DW_OP_breg20 -4]
    1993              DW$177  .dwtag  DW_TAG_variable, DW_AT_name("offset"), DW_AT_symbol_name("_offset")
    1994                      .dwattr DW$177, DW_AT_type(*DW$T$23)
    1995                      .dwattr DW$177, DW_AT_location[DW_OP_breg20 -5]
    1996              DW$178  .dwtag  DW_TAG_variable, DW_AT_name("psearch_lenth"), DW_AT_symbol_name("_psearch_lenth")
    1997                      .dwattr DW$178, DW_AT_type(*DW$T$23)
    1998                      .dwattr DW$178, DW_AT_location[DW_OP_breg20 -6]
    1999              DW$179  .dwtag  DW_TAG_variable, DW_AT_name("psrc_lenth"), DW_AT_symbol_name("_psrc_lenth")
    2000                      .dwattr DW$179, DW_AT_type(*DW$T$23)
    2001                      .dwattr DW$179, DW_AT_location[DW_OP_breg20 -7]
    2002 00000225 A044          MOVL      *-SP[4],XAR5          ; |175| 
    2003 00000226 A842          MOVL      *-SP[2],XAR4          ; |175| 
    2004                      .dwpsn  "src\global.c",177,10
    2005 00000227 8A44          MOVL      XAR4,*-SP[4]          ; |177| 
    2006 00000228 7640'         LCR       #_global_strlen       ; |177| 
         00000229 020B 
    2007                      ; call occurs [#_global_strlen] ; |177| 
    2008 0000022a 9646          MOV       *-SP[6],AL            ; |177| 
    2009                      .dwpsn  "src\global.c",178,10
    2010 0000022b 8A42          MOVL      XAR4,*-SP[2]          ; |178| 
    2011 0000022c 7640'         LCR       #_global_strlen       ; |178| 
         0000022d 020B 
    2012                      ; call occurs [#_global_strlen] ; |178| 
    2013 0000022e 9647          MOV       *-SP[7],AL            ; |178| 
    2014                      .dwpsn  "src\global.c",179,8
    2015 0000022f 2B45          MOV       *-SP[5],#0            ; |179| 
    2016                      .dwpsn  "src\global.c",179,19
    2017 00000230 9247          MOV       AL,*-SP[7]            ; |179| 
    2018 00000231 5445          CMP       AL,*-SP[5]            ; |179| 
    2019 00000232 6914          B         L33,LOS               ; |179| 
    2020                      ; branchcc occurs ; |179| 
    2021              L31:    
    2022              DW$L$_global_string_locate_first$2$B:
    2023                      .dwpsn  "src\global.c",181,3
    2024 00000233 8845          MOVZ      AR6,*-SP[5]           ; |181| 
    2025 00000234 0642          MOVL      ACC,*-SP[2]           ; |181| 
    2026 00000235 8344          MOVL      XAR5,*-SP[4]          ; |181| 
    2027 00000236 0DA6          ADDU      ACC,AR6               ; |181| 
    2028 00000237 8AA9          MOVL      XAR4,ACC              ; |181| 
    2029 00000238 9246          MOV       AL,*-SP[6]            ; |181| 
    2030 00000239 7640'         LCR       #_global_memcmp       ; |181| 
         0000023a 01FA 
    2031                      ; call occurs [#_global_memcmp] ; |181| 
    2032 0000023b 5200          CMPB      AL,#0                 ; |181| 
    2033 0000023c EC06          BF        L32,EQ                ; |181| 
    2034                      ; branchcc occurs ; |181| 
    2035              DW$L$_global_string_locate_first$2$E:
    2036                      .dwpsn  "src\global.c",185,4
TMS320C2000 COFF Assembler PC v4.1.3 Thu Aug 04 16:21:37 2011

Tools Copyright (c) 1996-2006 Texas Instruments Incorporated
C:\DOCUME~1\ADMINI~1\LOCALS~1\Temp\TI8402                            PAGE   39

    2037 0000023d 8845          MOVZ      AR6,*-SP[5]           ; |185| 
    2038 0000023e 0642          MOVL      ACC,*-SP[2]           ; |185| 
    2039 0000023f 0DA6          ADDU      ACC,AR6               ; |185| 
    2040 00000240 8AA9          MOVL      XAR4,ACC              ; |185| 
    2041 00000241 6F06          B         L34,UNC               ; |185| 
    2042                      ; branch occurs ; |185| 
    2043              L32:    
    2044              DW$L$_global_string_locate_first$4$B:
    2045                      .dwpsn  "src\global.c",179,39
    2046 00000242 0A45          INC       *-SP[5]               ; |179| 
    2047                      .dwpsn  "src\global.c",179,19
    2048 00000243 9247          MOV       AL,*-SP[7]            ; |179| 
    2049 00000244 5445          CMP       AL,*-SP[5]            ; |179| 
    2050 00000245 66EE          B         L31,HI                ; |179| 
    2051                      ; branchcc occurs ; |179| 
    2052              DW$L$_global_string_locate_first$4$E:
    2053              L33:    
    2054                      .dwpsn  "src\global.c",188,2
    2055 00000246 D400          MOVB      XAR4,#0
    2056              L34:    
    2057                      .dwpsn  "src\global.c",189,1
    2058 00000247 FE88          SUBB      SP,#8                 ; |188| 
    2059                      .dwcfa  0x1d, -2
    2060 00000248 0006          LRETR
    2061                      ; return occurs
    2062              
    2063              DW$180  .dwtag  DW_TAG_loop
    2064                      .dwattr DW$180, DW_AT_name("C:\DOCUME~1\ADMINI~1\LOCALS~1\Temp\TI8402:L31:1:1312446096")
    2065                      .dwattr DW$180, DW_AT_begin_file("src\global.c")
    2066                      .dwattr DW$180, DW_AT_begin_line(0xb3)
    2067                      .dwattr DW$180, DW_AT_end_line(0xbb)
    2068              DW$181  .dwtag  DW_TAG_loop_range
    2069                      .dwattr DW$181, DW_AT_low_pc(DW$L$_global_string_locate_first$2$B)
    2070                      .dwattr DW$181, DW_AT_high_pc(DW$L$_global_string_locate_first$2$E)
    2071              DW$182  .dwtag  DW_TAG_loop_range
    2072                      .dwattr DW$182, DW_AT_low_pc(DW$L$_global_string_locate_first$4$B)
    2073                      .dwattr DW$182, DW_AT_high_pc(DW$L$_global_string_locate_first$4$E)
    2074                      .dwendtag DW$180
    2075              
    2076                      .dwattr DW$172, DW_AT_end_file("src\global.c")
    2077                      .dwattr DW$172, DW_AT_end_line(0xbd)
    2078                      .dwattr DW$172, DW_AT_end_column(0x01)
    2079                      .dwendentry
    2080                      .dwendtag DW$172
    2081              
    2082 00000249               .sect   ".text"
    2083                      .global _global_string_locate
    2084              
    2085              DW$183  .dwtag  DW_TAG_subprogram, DW_AT_name("global_string_locate"), DW_AT_symbol_name("_global_string_loca
    2086                      .dwattr DW$183, DW_AT_low_pc(_global_string_locate)
    2087                      .dwattr DW$183, DW_AT_high_pc(0x00)
    2088                      .dwattr DW$183, DW_AT_begin_file("src\global.c")
    2089                      .dwattr DW$183, DW_AT_begin_line(0xc8)
    2090                      .dwattr DW$183, DW_AT_begin_column(0x09)
    2091                      .dwpsn  "src\global.c",201,1
TMS320C2000 COFF Assembler PC v4.1.3 Thu Aug 04 16:21:37 2011

Tools Copyright (c) 1996-2006 Texas Instruments Incorporated
C:\DOCUME~1\ADMINI~1\LOCALS~1\Temp\TI8402                            PAGE   40

    2092              
    2093                      .dwfde DW$CIE
    2094              
    2095              ;***************************************************************
    2096              ;* FNAME: _global_string_locate         FR SIZE:   8           *
    2097              ;*                                                             *
    2098              ;* FUNCTION ENVIRONMENT                                        *
    2099              ;*                                                             *
    2100              ;* FUNCTION PROPERTIES                                         *
    2101              ;*                            0 Parameter,  7 Auto,  0 SOE     *
    2102              ;***************************************************************
    2103              
    2104              _global_string_locate:
    2105                      .dwcfa  0x1d, -2
    2106                      .dwcfa  0x1c, 26, 0
    2107                      .dwcfa  0x09, 40, 26
    2108 00000249 FE08          ADDB      SP,#8
    2109                      .dwcfa  0x1d, -10
    2110              ;* AR4   assigned to _phead
    2111              DW$184  .dwtag  DW_TAG_formal_parameter, DW_AT_name("phead"), DW_AT_symbol_name("_phead")
    2112                      .dwattr DW$184, DW_AT_type(*DW$T$82)
    2113                      .dwattr DW$184, DW_AT_location[DW_OP_reg12]
    2114              ;* AR5   assigned to _pend
    2115              DW$185  .dwtag  DW_TAG_formal_parameter, DW_AT_name("pend"), DW_AT_symbol_name("_pend")
    2116                      .dwattr DW$185, DW_AT_type(*DW$T$82)
    2117                      .dwattr DW$185, DW_AT_location[DW_OP_reg14]
    2118              DW$186  .dwtag  DW_TAG_formal_parameter, DW_AT_name("psearch"), DW_AT_symbol_name("_psearch")
    2119                      .dwattr DW$186, DW_AT_type(*DW$T$82)
    2120                      .dwattr DW$186, DW_AT_location[DW_OP_breg20 -12]
    2121              DW$187  .dwtag  DW_TAG_formal_parameter, DW_AT_name("paddr"), DW_AT_symbol_name("_paddr")
    2122                      .dwattr DW$187, DW_AT_type(*DW$T$154)
    2123                      .dwattr DW$187, DW_AT_location[DW_OP_breg20 -14]
    2124              DW$188  .dwtag  DW_TAG_variable, DW_AT_name("phead"), DW_AT_symbol_name("_phead")
    2125                      .dwattr DW$188, DW_AT_type(*DW$T$82)
    2126                      .dwattr DW$188, DW_AT_location[DW_OP_breg20 -2]
    2127              DW$189  .dwtag  DW_TAG_variable, DW_AT_name("pend"), DW_AT_symbol_name("_pend")
    2128                      .dwattr DW$189, DW_AT_type(*DW$T$82)
    2129                      .dwattr DW$189, DW_AT_location[DW_OP_breg20 -4]
    2130              DW$190  .dwtag  DW_TAG_variable, DW_AT_name("pch"), DW_AT_symbol_name("_pch")
    2131                      .dwattr DW$190, DW_AT_type(*DW$T$82)
    2132                      .dwattr DW$190, DW_AT_location[DW_OP_breg20 -6]
    2133              DW$191  .dwtag  DW_TAG_variable, DW_AT_name("num"), DW_AT_symbol_name("_num")
    2134                      .dwattr DW$191, DW_AT_type(*DW$T$23)
    2135                      .dwattr DW$191, DW_AT_location[DW_OP_breg20 -7]
    2136 0000024a A044          MOVL      *-SP[4],XAR5          ; |201| 
    2137 0000024b A842          MOVL      *-SP[2],XAR4          ; |201| 
    2138                      .dwpsn  "src\global.c",203,10
    2139 0000024c 2B47          MOV       *-SP[7],#0            ; |203| 
    2140                      .dwpsn  "src\global.c",204,10
    2141              L35:    
    2142              DW$L$_global_string_locate$2$B:
    2143                      .dwpsn  "src\global.c",206,3
    2144 0000024d 8A42          MOVL      XAR4,*-SP[2]          ; |206| 
    2145 0000024e 834C          MOVL      XAR5,*-SP[12]         ; |206| 
    2146 0000024f 7640'         LCR       #_global_string_locate_first ; |206| 
TMS320C2000 COFF Assembler PC v4.1.3 Thu Aug 04 16:21:37 2011

Tools Copyright (c) 1996-2006 Texas Instruments Incorporated
C:\DOCUME~1\ADMINI~1\LOCALS~1\Temp\TI8402                            PAGE   41

         00000250 0224 
    2147                      ; call occurs [#_global_string_locate_first] ; |206| 
    2148 00000251 A846          MOVL      *-SP[6],XAR4          ; |206| 
    2149                      .dwpsn  "src\global.c",207,3
    2150 00000252 C446          MOVL      XAR6,*-SP[6]          ; |207| 
    2151 00000253 0644          MOVL      ACC,*-SP[4]           ; |207| 
    2152 00000254 0FA6          CMPL      ACC,XAR6              ; |207| 
    2153 00000255 690F          B         L36,LOS               ; |207| 
    2154                      ; branchcc occurs ; |207| 
    2155 00000256       DW$L$_global_string_locate$2$E:
    2156 00000256       DW$L$_global_string_locate$3$B:
    2157 00000256 0646          MOVL      ACC,*-SP[6]           ; |207| 
    2158 00000257 EC0D          BF        L36,EQ                ; |207| 
    2159                      ; branchcc occurs ; |207| 
    2160              DW$L$_global_string_locate$3$E:
    2161              DW$L$_global_string_locate$4$B:
    2162                      .dwpsn  "src\global.c",209,4
    2163 00000258 8A4E          MOVL      XAR4,*-SP[14]         ; |209| 
    2164 00000259 0E47          MOVU      ACC,*-SP[7]
    2165 0000025a FF30          LSL       ACC,1                 ; |209| 
    2166 0000025b 5601          ADDL      XAR4,ACC
         0000025c 00A4 
    2167 0000025d 0646          MOVL      ACC,*-SP[6]           ; |209| 
    2168 0000025e 1EC4          MOVL      *+XAR4[0],ACC         ; |209| 
    2169                      .dwpsn  "src\global.c",210,4
    2170 0000025f 0646          MOVL      ACC,*-SP[6]           ; |210| 
    2171 00000260 0901          ADDB      ACC,#1                ; |210| 
    2172 00000261 1E42          MOVL      *-SP[2],ACC           ; |210| 
    2173                      .dwpsn  "src\global.c",211,4
    2174 00000262 0A47          INC       *-SP[7]               ; |211| 
    2175                      .dwpsn  "src\global.c",212,3
    2176 00000263 6FEA          B         L35,UNC               ; |212| 
    2177                      ; branch occurs ; |212| 
    2178              DW$L$_global_string_locate$4$E:
    2179              L36:    
    2180                      .dwpsn  "src\global.c",218,2
    2181 00000264 9247          MOV       AL,*-SP[7]            ; |218| 
    2182                      .dwpsn  "src\global.c",219,1
    2183 00000265 FE88          SUBB      SP,#8                 ; |218| 
    2184                      .dwcfa  0x1d, -2
    2185 00000266 0006          LRETR
    2186                      ; return occurs
    2187              
    2188              DW$192  .dwtag  DW_TAG_loop
    2189                      .dwattr DW$192, DW_AT_name("C:\DOCUME~1\ADMINI~1\LOCALS~1\Temp\TI8402:L35:1:1312446096")
    2190                      .dwattr DW$192, DW_AT_begin_file("src\global.c")
    2191                      .dwattr DW$192, DW_AT_begin_line(0xcc)
    2192                      .dwattr DW$192, DW_AT_end_line(0xd9)
    2193              DW$193  .dwtag  DW_TAG_loop_range
    2194                      .dwattr DW$193, DW_AT_low_pc(DW$L$_global_string_locate$2$B)
    2195                      .dwattr DW$193, DW_AT_high_pc(DW$L$_global_string_locate$2$E)
    2196              DW$194  .dwtag  DW_TAG_loop_range
    2197                      .dwattr DW$194, DW_AT_low_pc(DW$L$_global_string_locate$3$B)
    2198                      .dwattr DW$194, DW_AT_high_pc(DW$L$_global_string_locate$3$E)
    2199              DW$195  .dwtag  DW_TAG_loop_range
TMS320C2000 COFF Assembler PC v4.1.3 Thu Aug 04 16:21:37 2011

Tools Copyright (c) 1996-2006 Texas Instruments Incorporated
C:\DOCUME~1\ADMINI~1\LOCALS~1\Temp\TI8402                            PAGE   42

    2200                      .dwattr DW$195, DW_AT_low_pc(DW$L$_global_string_locate$4$B)
    2201                      .dwattr DW$195, DW_AT_high_pc(DW$L$_global_string_locate$4$E)
    2202                      .dwendtag DW$192
    2203              
    2204                      .dwattr DW$183, DW_AT_end_file("src\global.c")
    2205                      .dwattr DW$183, DW_AT_end_line(0xdb)
    2206                      .dwattr DW$183, DW_AT_end_column(0x01)
    2207                      .dwendentry
    2208                      .dwendtag DW$183
    2209              
    2210 00000267               .sect   ".text"
    2211                      .global _global_string_locate_end
    2212              
    2213              DW$196  .dwtag  DW_TAG_subprogram, DW_AT_name("global_string_locate_end"), DW_AT_symbol_name("_global_string_
    2214                      .dwattr DW$196, DW_AT_low_pc(_global_string_locate_end)
    2215                      .dwattr DW$196, DW_AT_high_pc(0x00)
    2216                      .dwattr DW$196, DW_AT_begin_file("src\global.c")
    2217                      .dwattr DW$196, DW_AT_begin_line(0xe6)
    2218                      .dwattr DW$196, DW_AT_begin_column(0x07)
    2219                      .dwpsn  "src\global.c",231,1
    2220              
    2221                      .dwfde DW$CIE
    2222              
    2223              ;***************************************************************
    2224              ;* FNAME: _global_string_locate_end     FR SIZE:   8           *
    2225              ;*                                                             *
    2226              ;* FUNCTION ENVIRONMENT                                        *
    2227              ;*                                                             *
    2228              ;* FUNCTION PROPERTIES                                         *
    2229              ;*                            0 Parameter,  8 Auto,  0 SOE     *
    2230              ;***************************************************************
    2231              
    2232              _global_string_locate_end:
    2233                      .dwcfa  0x1d, -2
    2234                      .dwcfa  0x1c, 26, 0
    2235                      .dwcfa  0x09, 40, 26
    2236 00000267 FE08          ADDB      SP,#8
    2237                      .dwcfa  0x1d, -10
    2238              ;* AR4   assigned to _phead
    2239              DW$197  .dwtag  DW_TAG_formal_parameter, DW_AT_name("phead"), DW_AT_symbol_name("_phead")
    2240                      .dwattr DW$197, DW_AT_type(*DW$T$82)
    2241                      .dwattr DW$197, DW_AT_location[DW_OP_reg12]
    2242              ;* AR5   assigned to _pend
    2243              DW$198  .dwtag  DW_TAG_formal_parameter, DW_AT_name("pend"), DW_AT_symbol_name("_pend")
    2244                      .dwattr DW$198, DW_AT_type(*DW$T$82)
    2245                      .dwattr DW$198, DW_AT_location[DW_OP_reg14]
    2246              DW$199  .dwtag  DW_TAG_formal_parameter, DW_AT_name("psearch"), DW_AT_symbol_name("_psearch")
    2247                      .dwattr DW$199, DW_AT_type(*DW$T$82)
    2248                      .dwattr DW$199, DW_AT_location[DW_OP_breg20 -12]
    2249              DW$200  .dwtag  DW_TAG_variable, DW_AT_name("phead"), DW_AT_symbol_name("_phead")
    2250                      .dwattr DW$200, DW_AT_type(*DW$T$82)
    2251                      .dwattr DW$200, DW_AT_location[DW_OP_breg20 -2]
    2252              DW$201  .dwtag  DW_TAG_variable, DW_AT_name("pend"), DW_AT_symbol_name("_pend")
    2253                      .dwattr DW$201, DW_AT_type(*DW$T$82)
    2254                      .dwattr DW$201, DW_AT_location[DW_OP_breg20 -4]
TMS320C2000 COFF Assembler PC v4.1.3 Thu Aug 04 16:21:37 2011

Tools Copyright (c) 1996-2006 Texas Instruments Incorporated
C:\DOCUME~1\ADMINI~1\LOCALS~1\Temp\TI8402                            PAGE   43

    2255              DW$202  .dwtag  DW_TAG_variable, DW_AT_name("pch"), DW_AT_symbol_name("_pch")
    2256                      .dwattr DW$202, DW_AT_type(*DW$T$82)
    2257                      .dwattr DW$202, DW_AT_location[DW_OP_breg20 -6]
    2258              DW$203  .dwtag  DW_TAG_variable, DW_AT_name("pret"), DW_AT_symbol_name("_pret")
    2259                      .dwattr DW$203, DW_AT_type(*DW$T$82)
    2260                      .dwattr DW$203, DW_AT_location[DW_OP_breg20 -8]
    2261 00000268 A044          MOVL      *-SP[4],XAR5          ; |231| 
    2262 00000269 A842          MOVL      *-SP[2],XAR4          ; |231| 
    2263                      .dwpsn  "src\global.c",233,7
    2264 0000026a 0200          MOVB      ACC,#0
    2265 0000026b 1E48          MOVL      *-SP[8],ACC           ; |233| 
    2266                      .dwpsn  "src\global.c",234,10
    2267              L37:    
    2268              DW$L$_global_string_locate_end$2$B:
    2269                      .dwpsn  "src\global.c",236,3
    2270 0000026c 8A42          MOVL      XAR4,*-SP[2]          ; |236| 
    2271 0000026d 834C          MOVL      XAR5,*-SP[12]         ; |236| 
    2272 0000026e 7640'         LCR       #_global_string_locate_first ; |236| 
         0000026f 0224 
    2273                      ; call occurs [#_global_string_locate_first] ; |236| 
    2274 00000270 A846          MOVL      *-SP[6],XAR4          ; |236| 
    2275                      .dwpsn  "src\global.c",237,3
    2276 00000271 C446          MOVL      XAR6,*-SP[6]          ; |237| 
    2277 00000272 0644          MOVL      ACC,*-SP[4]           ; |237| 
    2278 00000273 0FA6          CMPL      ACC,XAR6              ; |237| 
    2279 00000274 6910          B         L40,LOS               ; |237| 
    2280                      ; branchcc occurs ; |237| 
    2281 00000275       DW$L$_global_string_locate_end$2$E:
    2282 00000275       DW$L$_global_string_locate_end$3$B:
    2283 00000275 0646          MOVL      ACC,*-SP[6]           ; |237| 
    2284 00000276 EC0E          BF        L40,EQ                ; |237| 
    2285                      ; branchcc occurs ; |237| 
    2286              DW$L$_global_string_locate_end$3$E:
    2287              DW$L$_global_string_locate_end$4$B:
    2288                      .dwpsn  "src\global.c",239,4
    2289 00000277 C448          MOVL      XAR6,*-SP[8]          ; |239| 
    2290 00000278 0646          MOVL      ACC,*-SP[6]           ; |239| 
    2291 00000279 0FA6          CMPL      ACC,XAR6              ; |239| 
    2292 0000027a 6904          B         L38,LOS               ; |239| 
    2293                      ; branchcc occurs ; |239| 
    2294 0000027b       DW$L$_global_string_locate_end$4$E:
    2295 0000027b       DW$L$_global_string_locate_end$5$B:
    2296 0000027b 0646          MOVL      ACC,*-SP[6]           ; |239| 
    2297 0000027c 1E48          MOVL      *-SP[8],ACC           ; |239| 
    2298 0000027d 6F03          B         L39,UNC               ; |239| 
    2299                      ; branch occurs ; |239| 
    2300 0000027e       DW$L$_global_string_locate_end$5$E:
    2301 0000027e       L38:    
    2302 0000027e       DW$L$_global_string_locate_end$6$B:
    2303 0000027e 0648          MOVL      ACC,*-SP[8]           ; |239| 
    2304 0000027f 1E48          MOVL      *-SP[8],ACC           ; |239| 
    2305              DW$L$_global_string_locate_end$6$E:
    2306              L39:    
    2307              DW$L$_global_string_locate_end$7$B:
    2308                      .dwpsn  "src\global.c",240,4
TMS320C2000 COFF Assembler PC v4.1.3 Thu Aug 04 16:21:37 2011

Tools Copyright (c) 1996-2006 Texas Instruments Incorporated
C:\DOCUME~1\ADMINI~1\LOCALS~1\Temp\TI8402                            PAGE   44

    2309 00000280 0646          MOVL      ACC,*-SP[6]           ; |240| 
    2310 00000281 0901          ADDB      ACC,#1                ; |240| 
    2311 00000282 1E42          MOVL      *-SP[2],ACC           ; |240| 
    2312                      .dwpsn  "src\global.c",241,3
    2313 00000283 6FE9          B         L37,UNC               ; |241| 
    2314                      ; branch occurs ; |241| 
    2315              DW$L$_global_string_locate_end$7$E:
    2316              L40:    
    2317                      .dwpsn  "src\global.c",247,2
    2318 00000284 8A48          MOVL      XAR4,*-SP[8]          ; |247| 
    2319                      .dwpsn  "src\global.c",248,1
    2320 00000285 FE88          SUBB      SP,#8                 ; |247| 
    2321                      .dwcfa  0x1d, -2
    2322 00000286 0006          LRETR
    2323                      ; return occurs
    2324              
    2325              DW$204  .dwtag  DW_TAG_loop
    2326                      .dwattr DW$204, DW_AT_name("C:\DOCUME~1\ADMINI~1\LOCALS~1\Temp\TI8402:L37:1:1312446096")
    2327                      .dwattr DW$204, DW_AT_begin_file("src\global.c")
    2328                      .dwattr DW$204, DW_AT_begin_line(0xea)
    2329                      .dwattr DW$204, DW_AT_end_line(0xf6)
    2330              DW$205  .dwtag  DW_TAG_loop_range
    2331                      .dwattr DW$205, DW_AT_low_pc(DW$L$_global_string_locate_end$2$B)
    2332                      .dwattr DW$205, DW_AT_high_pc(DW$L$_global_string_locate_end$2$E)
    2333              DW$206  .dwtag  DW_TAG_loop_range
    2334                      .dwattr DW$206, DW_AT_low_pc(DW$L$_global_string_locate_end$3$B)
    2335                      .dwattr DW$206, DW_AT_high_pc(DW$L$_global_string_locate_end$3$E)
    2336              DW$207  .dwtag  DW_TAG_loop_range
    2337                      .dwattr DW$207, DW_AT_low_pc(DW$L$_global_string_locate_end$4$B)
    2338                      .dwattr DW$207, DW_AT_high_pc(DW$L$_global_string_locate_end$4$E)
    2339              DW$208  .dwtag  DW_TAG_loop_range
    2340                      .dwattr DW$208, DW_AT_low_pc(DW$L$_global_string_locate_end$5$B)
    2341                      .dwattr DW$208, DW_AT_high_pc(DW$L$_global_string_locate_end$5$E)
    2342              DW$209  .dwtag  DW_TAG_loop_range
    2343                      .dwattr DW$209, DW_AT_low_pc(DW$L$_global_string_locate_end$6$B)
    2344                      .dwattr DW$209, DW_AT_high_pc(DW$L$_global_string_locate_end$6$E)
    2345              DW$210  .dwtag  DW_TAG_loop_range
    2346                      .dwattr DW$210, DW_AT_low_pc(DW$L$_global_string_locate_end$7$B)
    2347                      .dwattr DW$210, DW_AT_high_pc(DW$L$_global_string_locate_end$7$E)
    2348                      .dwendtag DW$204
    2349              
    2350                      .dwattr DW$196, DW_AT_end_file("src\global.c")
    2351                      .dwattr DW$196, DW_AT_end_line(0xf8)
    2352                      .dwattr DW$196, DW_AT_end_column(0x01)
    2353                      .dwendentry
    2354                      .dwendtag DW$196
    2355              
    2356 00000287               .sect   ".text"
    2357                      .global _global_string_reversal
    2358              
    2359              DW$211  .dwtag  DW_TAG_subprogram, DW_AT_name("global_string_reversal"), DW_AT_symbol_name("_global_string_re
    2360                      .dwattr DW$211, DW_AT_low_pc(_global_string_reversal)
    2361                      .dwattr DW$211, DW_AT_high_pc(0x00)
    2362                      .dwattr DW$211, DW_AT_begin_file("src\global.c")
    2363                      .dwattr DW$211, DW_AT_begin_line(0xff)
TMS320C2000 COFF Assembler PC v4.1.3 Thu Aug 04 16:21:37 2011

Tools Copyright (c) 1996-2006 Texas Instruments Incorporated
C:\DOCUME~1\ADMINI~1\LOCALS~1\Temp\TI8402                            PAGE   45

    2364                      .dwattr DW$211, DW_AT_begin_column(0x06)
    2365                      .dwpsn  "src\global.c",256,1
    2366              
    2367                      .dwfde DW$CIE
    2368              
    2369              ;***************************************************************
    2370              ;* FNAME: _global_string_reversal       FR SIZE:   8           *
    2371              ;*                                                             *
    2372              ;* FUNCTION ENVIRONMENT                                        *
    2373              ;*                                                             *
    2374              ;* FUNCTION PROPERTIES                                         *
    2375              ;*                            0 Parameter,  7 Auto,  0 SOE     *
    2376              ;***************************************************************
    2377              
    2378              _global_string_reversal:
    2379                      .dwcfa  0x1d, -2
    2380                      .dwcfa  0x1c, 26, 0
    2381                      .dwcfa  0x09, 40, 26
    2382 00000287 FE08          ADDB      SP,#8
    2383                      .dwcfa  0x1d, -10
    2384              ;* AR4   assigned to _psrc
    2385              DW$212  .dwtag  DW_TAG_formal_parameter, DW_AT_name("psrc"), DW_AT_symbol_name("_psrc")
    2386                      .dwattr DW$212, DW_AT_type(*DW$T$82)
    2387                      .dwattr DW$212, DW_AT_location[DW_OP_reg12]
    2388              DW$213  .dwtag  DW_TAG_variable, DW_AT_name("psrc"), DW_AT_symbol_name("_psrc")
    2389                      .dwattr DW$213, DW_AT_type(*DW$T$82)
    2390                      .dwattr DW$213, DW_AT_location[DW_OP_breg20 -2]
    2391              DW$214  .dwtag  DW_TAG_variable, DW_AT_name("pshadow_1"), DW_AT_symbol_name("_pshadow_1")
    2392                      .dwattr DW$214, DW_AT_type(*DW$T$82)
    2393                      .dwattr DW$214, DW_AT_location[DW_OP_breg20 -4]
    2394              DW$215  .dwtag  DW_TAG_variable, DW_AT_name("pshadow_2"), DW_AT_symbol_name("_pshadow_2")
    2395                      .dwattr DW$215, DW_AT_type(*DW$T$82)
    2396                      .dwattr DW$215, DW_AT_location[DW_OP_breg20 -6]
    2397              DW$216  .dwtag  DW_TAG_variable, DW_AT_name("temp"), DW_AT_symbol_name("_temp")
    2398                      .dwattr DW$216, DW_AT_type(*DW$T$81)
    2399                      .dwattr DW$216, DW_AT_location[DW_OP_breg20 -7]
    2400 00000288 A842          MOVL      *-SP[2],XAR4          ; |256| 
    2401                      .dwpsn  "src\global.c",257,8
    2402 00000289 0642          MOVL      ACC,*-SP[2]           ; |257| 
    2403 0000028a 1E44          MOVL      *-SP[4],ACC           ; |257| 
    2404                      .dwpsn  "src\global.c",260,2
    2405 0000028b 8A42          MOVL      XAR4,*-SP[2]          ; |260| 
    2406 0000028c 7640'         LCR       #_global_strlen       ; |260| 
         0000028d 020B 
    2407                      ; call occurs [#_global_strlen] ; |260| 
    2408 0000028e 9CFF          ADDB      AL,#-1
    2409 0000028f 88A9          MOVZ      AR6,AL                ; |260| 
    2410 00000290 0642          MOVL      ACC,*-SP[2]           ; |260| 
    2411 00000291 0DA6          ADDU      ACC,AR6               ; |260| 
    2412 00000292 1E46          MOVL      *-SP[6],ACC           ; |260| 
    2413                      .dwpsn  "src\global.c",261,10
    2414 00000293 C444          MOVL      XAR6,*-SP[4]          ; |261| 
    2415 00000294 0646          MOVL      ACC,*-SP[6]           ; |261| 
    2416 00000295 0FA6          CMPL      ACC,XAR6              ; |261| 
    2417 00000296 6919          B         L43,LOS               ; |261| 
TMS320C2000 COFF Assembler PC v4.1.3 Thu Aug 04 16:21:37 2011

Tools Copyright (c) 1996-2006 Texas Instruments Incorporated
C:\DOCUME~1\ADMINI~1\LOCALS~1\Temp\TI8402                            PAGE   46

    2418                      ; branchcc occurs ; |261| 
    2419              L41:    
    2420              DW$L$_global_string_reversal$2$B:
    2421                      .dwpsn  "src\global.c",263,3
    2422 00000297 8A46          MOVL      XAR4,*-SP[6]          ; |263| 
    2423 00000298 92C4          MOV       AL,*+XAR4[0]          ; |263| 
    2424 00000299 8A44          MOVL      XAR4,*-SP[4]          ; |263| 
    2425 0000029a 54C4          CMP       AL,*+XAR4[0]          ; |263| 
    2426 0000029b EC0B          BF        L42,EQ                ; |263| 
    2427                      ; branchcc occurs ; |263| 
    2428              DW$L$_global_string_reversal$2$E:
    2429              DW$L$_global_string_reversal$3$B:
    2430                      .dwpsn  "src\global.c",265,4
    2431 0000029c 8A44          MOVL      XAR4,*-SP[4]          ; |265| 
    2432 0000029d 92C4          MOV       AL,*+XAR4[0]          ; |265| 
    2433 0000029e 9647          MOV       *-SP[7],AL            ; |265| 
    2434                      .dwpsn  "src\global.c",266,4
    2435 0000029f 8A46          MOVL      XAR4,*-SP[6]          ; |266| 
    2436 000002a0 92C4          MOV       AL,*+XAR4[0]          ; |266| 
    2437 000002a1 8A44          MOVL      XAR4,*-SP[4]          ; |266| 
    2438 000002a2 96C4          MOV       *+XAR4[0],AL          ; |266| 
    2439                      .dwpsn  "src\global.c",267,4
    2440 000002a3 8A46          MOVL      XAR4,*-SP[6]          ; |267| 
    2441 000002a4 9247          MOV       AL,*-SP[7]            ; |267| 
    2442 000002a5 96C4          MOV       *+XAR4[0],AL          ; |267| 
    2443              DW$L$_global_string_reversal$3$E:
    2444              L42:    
    2445              DW$L$_global_string_reversal$4$B:
    2446                      .dwpsn  "src\global.c",269,3
    2447 000002a6 0201          MOVB      ACC,#1
    2448 000002a7 5601          ADDL      *-SP[4],ACC           ; |269| 
         000002a8 0044 
    2449                      .dwpsn  "src\global.c",270,3
    2450 000002a9 5641          SUBL      *-SP[6],ACC           ; |270| 
         000002aa 0046 
    2451                      .dwpsn  "src\global.c",261,10
    2452 000002ab C444          MOVL      XAR6,*-SP[4]          ; |261| 
    2453 000002ac 0646          MOVL      ACC,*-SP[6]           ; |261| 
    2454 000002ad 0FA6          CMPL      ACC,XAR6              ; |261| 
    2455 000002ae 66E9          B         L41,HI                ; |261| 
    2456                      ; branchcc occurs ; |261| 
    2457              DW$L$_global_string_reversal$4$E:
    2458              L43:    
    2459                      .dwpsn  "src\global.c",272,1
    2460 000002af FE88          SUBB      SP,#8
    2461                      .dwcfa  0x1d, -2
    2462 000002b0 0006          LRETR
    2463                      ; return occurs
    2464              
    2465              DW$217  .dwtag  DW_TAG_loop
    2466                      .dwattr DW$217, DW_AT_name("C:\DOCUME~1\ADMINI~1\LOCALS~1\Temp\TI8402:L41:1:1312446096")
    2467                      .dwattr DW$217, DW_AT_begin_file("src\global.c")
    2468                      .dwattr DW$217, DW_AT_begin_line(0x105)
    2469                      .dwattr DW$217, DW_AT_end_line(0x10f)
    2470              DW$218  .dwtag  DW_TAG_loop_range
TMS320C2000 COFF Assembler PC v4.1.3 Thu Aug 04 16:21:37 2011

Tools Copyright (c) 1996-2006 Texas Instruments Incorporated
C:\DOCUME~1\ADMINI~1\LOCALS~1\Temp\TI8402                            PAGE   47

    2471                      .dwattr DW$218, DW_AT_low_pc(DW$L$_global_string_reversal$2$B)
    2472                      .dwattr DW$218, DW_AT_high_pc(DW$L$_global_string_reversal$2$E)
    2473              DW$219  .dwtag  DW_TAG_loop_range
    2474                      .dwattr DW$219, DW_AT_low_pc(DW$L$_global_string_reversal$3$B)
    2475                      .dwattr DW$219, DW_AT_high_pc(DW$L$_global_string_reversal$3$E)
    2476              DW$220  .dwtag  DW_TAG_loop_range
    2477                      .dwattr DW$220, DW_AT_low_pc(DW$L$_global_string_reversal$4$B)
    2478                      .dwattr DW$220, DW_AT_high_pc(DW$L$_global_string_reversal$4$E)
    2479                      .dwendtag DW$217
    2480              
    2481                      .dwattr DW$211, DW_AT_end_file("src\global.c")
    2482                      .dwattr DW$211, DW_AT_end_line(0x110)
    2483                      .dwattr DW$211, DW_AT_end_column(0x01)
    2484                      .dwendentry
    2485                      .dwendtag DW$211
    2486              
    2487 000002b1               .sect   ".text"
    2488                      .global _global_itoa
    2489              
    2490              DW$221  .dwtag  DW_TAG_subprogram, DW_AT_name("global_itoa"), DW_AT_symbol_name("_global_itoa")
    2491                      .dwattr DW$221, DW_AT_low_pc(_global_itoa)
    2492                      .dwattr DW$221, DW_AT_high_pc(0x00)
    2493                      .dwattr DW$221, DW_AT_begin_file("src\global.c")
    2494                      .dwattr DW$221, DW_AT_begin_line(0x117)
    2495                      .dwattr DW$221, DW_AT_begin_column(0x09)
    2496                      .dwpsn  "src\global.c",280,1
    2497              
    2498                      .dwfde DW$CIE
    2499              
    2500              ;***************************************************************
    2501              ;* FNAME: _global_itoa                  FR SIZE:   6           *
    2502              ;*                                                             *
    2503              ;* FUNCTION ENVIRONMENT                                        *
    2504              ;*                                                             *
    2505              ;* FUNCTION PROPERTIES                                         *
    2506              ;*                            0 Parameter,  6 Auto,  0 SOE     *
    2507              ;***************************************************************
    2508              
    2509              _global_itoa:
    2510                      .dwcfa  0x1d, -2
    2511                      .dwcfa  0x1c, 26, 0
    2512                      .dwcfa  0x09, 40, 26
    2513 000002b1 FE06          ADDB      SP,#6
    2514                      .dwcfa  0x1d, -8
    2515              ;* AL    assigned to _isrc
    2516              DW$222  .dwtag  DW_TAG_formal_parameter, DW_AT_name("isrc"), DW_AT_symbol_name("_isrc")
    2517                      .dwattr DW$222, DW_AT_type(*DW$T$10)
    2518                      .dwattr DW$222, DW_AT_location[DW_OP_reg0]
    2519              ;* AR4   assigned to _pdes
    2520              DW$223  .dwtag  DW_TAG_formal_parameter, DW_AT_name("pdes"), DW_AT_symbol_name("_pdes")
    2521                      .dwattr DW$223, DW_AT_type(*DW$T$82)
    2522                      .dwattr DW$223, DW_AT_location[DW_OP_reg12]
    2523              DW$224  .dwtag  DW_TAG_variable, DW_AT_name("isrc"), DW_AT_symbol_name("_isrc")
    2524                      .dwattr DW$224, DW_AT_type(*DW$T$10)
    2525                      .dwattr DW$224, DW_AT_location[DW_OP_breg20 -1]
TMS320C2000 COFF Assembler PC v4.1.3 Thu Aug 04 16:21:37 2011

Tools Copyright (c) 1996-2006 Texas Instruments Incorporated
C:\DOCUME~1\ADMINI~1\LOCALS~1\Temp\TI8402                            PAGE   48

    2526              DW$225  .dwtag  DW_TAG_variable, DW_AT_name("pdes"), DW_AT_symbol_name("_pdes")
    2527                      .dwattr DW$225, DW_AT_type(*DW$T$82)
    2528                      .dwattr DW$225, DW_AT_location[DW_OP_breg20 -4]
    2529              DW$226  .dwtag  DW_TAG_variable, DW_AT_name("itemp"), DW_AT_symbol_name("_itemp")
    2530                      .dwattr DW$226, DW_AT_type(*DW$T$10)
    2531                      .dwattr DW$226, DW_AT_location[DW_OP_breg20 -5]
    2532              DW$227  .dwtag  DW_TAG_variable, DW_AT_name("offset"), DW_AT_symbol_name("_offset")
    2533                      .dwattr DW$227, DW_AT_type(*DW$T$10)
    2534                      .dwattr DW$227, DW_AT_location[DW_OP_breg20 -6]
    2535 000002b2 A844          MOVL      *-SP[4],XAR4          ; |280| 
    2536 000002b3 9641          MOV       *-SP[1],AL            ; |280| 
    2537                      .dwpsn  "src\global.c",281,6
    2538 000002b4 9645          MOV       *-SP[5],AL            ; |281| 
    2539                      .dwpsn  "src\global.c",282,6
    2540 000002b5 2B46          MOV       *-SP[6],#0            ; |282| 
    2541                      .dwpsn  "src\global.c",283,2
    2542 000002b6 9245          MOV       AL,*-SP[5]            ; |283| 
    2543 000002b7 6304          B         L44,GEQ               ; |283| 
    2544                      ; branchcc occurs ; |283| 
    2545                      .dwpsn  "src\global.c",285,3
    2546 000002b8 9241          MOV       AL,*-SP[1]            ; |285| 
    2547 000002b9 FF5C          NEG       AL                    ; |285| 
    2548 000002ba 9641          MOV       *-SP[1],AL            ; |285| 
    2549              L44:    
    2550              DW$L$_global_itoa$3$B:
    2551                      .dwpsn  "src\global.c",289,3
    2552 000002bb 9241          MOV       AL,*-SP[1]            ; |289| 
    2553 000002bc 9B0A          MOVB      AH,#10                ; |289| 
    2554 000002bd 00C0!         FFC       XAR7,#I$$MOD          ; |289| 
         000002be 0000 
    2555                      ; call occurs [#I$$MOD] ; |289| 
    2556 000002bf 3B01          SETC      SXM
    2557 000002c0 9B30          MOVB      AH,#48                ; |289| 
    2558 000002c1 95A9          ADD       AH,AL                 ; |289| 
    2559 000002c2 88A8          MOVZ      AR6,AH                ; |289| 
    2560 000002c3 8546          MOV       ACC,*-SP[6]           ; |289| 
    2561 000002c4 0A46          INC       *-SP[6]               ; |289| 
    2562 000002c5 8A44          MOVL      XAR4,*-SP[4]          ; |289| 
    2563 000002c6 5601          ADDL      XAR4,ACC
         000002c7 00A4 
    2564 000002c8 7EC4          MOV       *+XAR4[0],AR6         ; |289| 
    2565                      .dwpsn  "src\global.c",290,3
    2566 000002c9 9241          MOV       AL,*-SP[1]            ; |290| 
    2567 000002ca 9B0A          MOVB      AH,#10                ; |290| 
    2568 000002cb 00C0!         FFC       XAR7,#I$$DIV          ; |290| 
         000002cc 0000 
    2569                      ; call occurs [#I$$DIV] ; |290| 
    2570 000002cd 9641          MOV       *-SP[1],AL            ; |290| 
    2571                      .dwpsn  "src\global.c",292,10
    2572 000002ce 5200          CMPB      AL,#0                 ; |292| 
    2573 000002cf 62EC          B         L44,GT                ; |292| 
    2574                      ; branchcc occurs ; |292| 
    2575              DW$L$_global_itoa$3$E:
    2576                      .dwpsn  "src\global.c",293,2
    2577 000002d0 9245          MOV       AL,*-SP[5]            ; |293| 
TMS320C2000 COFF Assembler PC v4.1.3 Thu Aug 04 16:21:37 2011

Tools Copyright (c) 1996-2006 Texas Instruments Incorporated
C:\DOCUME~1\ADMINI~1\LOCALS~1\Temp\TI8402                            PAGE   49

    2578 000002d1 6309          B         L45,GEQ               ; |293| 
    2579                      ; branchcc occurs ; |293| 
    2580                      .dwpsn  "src\global.c",295,3
    2581 000002d2 3B01          SETC      SXM
    2582 000002d3 8546          MOV       ACC,*-SP[6]           ; |295| 
    2583 000002d4 0A46          INC       *-SP[6]               ; |295| 
    2584 000002d5 8A44          MOVL      XAR4,*-SP[4]          ; |295| 
    2585 000002d6 5601          ADDL      XAR4,ACC
         000002d7 00A4 
    2586 000002d8 28C4          MOV       *+XAR4[0],#45         ; |295| 
         000002d9 002D 
    2587              L45:    
    2588                      .dwpsn  "src\global.c",297,2
    2589 000002da 8A44          MOVL      XAR4,*-SP[4]          ; |297| 
    2590 000002db 3B01          SETC      SXM
    2591 000002dc 8546          MOV       ACC,*-SP[6]           ; |297| 
    2592 000002dd 5601          ADDL      XAR4,ACC
         000002de 00A4 
    2593 000002df 2BC4          MOV       *+XAR4[0],#0          ; |297| 
    2594                      .dwpsn  "src\global.c",298,2
    2595 000002e0 8A44          MOVL      XAR4,*-SP[4]          ; |298| 
    2596 000002e1 7640'         LCR       #_global_string_reversal ; |298| 
         000002e2 0287 
    2597                      ; call occurs [#_global_string_reversal] ; |298| 
    2598                      .dwpsn  "src\global.c",299,2
    2599 000002e3 8A44          MOVL      XAR4,*-SP[4]          ; |299| 
    2600 000002e4 7640'         LCR       #_global_strlen       ; |299| 
         000002e5 020B 
    2601                      ; call occurs [#_global_strlen] ; |299| 
    2602                      .dwpsn  "src\global.c",300,1
    2603 000002e6 FE86          SUBB      SP,#6                 ; |299| 
    2604                      .dwcfa  0x1d, -2
    2605 000002e7 0006          LRETR
    2606                      ; return occurs
    2607              
    2608              DW$228  .dwtag  DW_TAG_loop
    2609                      .dwattr DW$228, DW_AT_name("C:\DOCUME~1\ADMINI~1\LOCALS~1\Temp\TI8402:L44:1:1312446096")
    2610                      .dwattr DW$228, DW_AT_begin_file("src\global.c")
    2611                      .dwattr DW$228, DW_AT_begin_line(0x11f)
    2612                      .dwattr DW$228, DW_AT_end_line(0x124)
    2613              DW$229  .dwtag  DW_TAG_loop_range
    2614                      .dwattr DW$229, DW_AT_low_pc(DW$L$_global_itoa$3$B)
    2615                      .dwattr DW$229, DW_AT_high_pc(DW$L$_global_itoa$3$E)
    2616                      .dwendtag DW$228
    2617              
    2618                      .dwattr DW$221, DW_AT_end_file("src\global.c")
    2619                      .dwattr DW$221, DW_AT_end_line(0x12c)
    2620                      .dwattr DW$221, DW_AT_end_column(0x01)
    2621                      .dwendentry
    2622                      .dwendtag DW$221
    2623              
    2624 000002e8               .sect   ".text"
    2625                      .global _global_ltoa
    2626              
    2627              DW$230  .dwtag  DW_TAG_subprogram, DW_AT_name("global_ltoa"), DW_AT_symbol_name("_global_ltoa")
TMS320C2000 COFF Assembler PC v4.1.3 Thu Aug 04 16:21:37 2011

Tools Copyright (c) 1996-2006 Texas Instruments Incorporated
C:\DOCUME~1\ADMINI~1\LOCALS~1\Temp\TI8402                            PAGE   50

    2628                      .dwattr DW$230, DW_AT_low_pc(_global_ltoa)
    2629                      .dwattr DW$230, DW_AT_high_pc(0x00)
    2630                      .dwattr DW$230, DW_AT_begin_file("src\global.c")
    2631                      .dwattr DW$230, DW_AT_begin_line(0x133)
    2632                      .dwattr DW$230, DW_AT_begin_column(0x09)
    2633                      .dwpsn  "src\global.c",308,1
    2634              
    2635                      .dwfde DW$CIE
    2636              
    2637              ;***************************************************************
    2638              ;* FNAME: _global_ltoa                  FR SIZE:  10           *
    2639              ;*                                                             *
    2640              ;* FUNCTION ENVIRONMENT                                        *
    2641              ;*                                                             *
    2642              ;* FUNCTION PROPERTIES                                         *
    2643              ;*                            2 Parameter,  7 Auto,  0 SOE     *
    2644              ;***************************************************************
    2645              
    2646              _global_ltoa:
    2647                      .dwcfa  0x1d, -2
    2648                      .dwcfa  0x1c, 26, 0
    2649                      .dwcfa  0x09, 40, 26
    2650 000002e8 FE0A          ADDB      SP,#10
    2651                      .dwcfa  0x1d, -12
    2652              ;* AL    assigned to _isrc
    2653              DW$231  .dwtag  DW_TAG_formal_parameter, DW_AT_name("isrc"), DW_AT_symbol_name("_isrc")
    2654                      .dwattr DW$231, DW_AT_type(*DW$T$12)
    2655                      .dwattr DW$231, DW_AT_location[DW_OP_reg0]
    2656              ;* AR4   assigned to _pdes
    2657              DW$232  .dwtag  DW_TAG_formal_parameter, DW_AT_name("pdes"), DW_AT_symbol_name("_pdes")
    2658                      .dwattr DW$232, DW_AT_type(*DW$T$82)
    2659                      .dwattr DW$232, DW_AT_location[DW_OP_reg12]
    2660              DW$233  .dwtag  DW_TAG_variable, DW_AT_name("isrc"), DW_AT_symbol_name("_isrc")
    2661                      .dwattr DW$233, DW_AT_type(*DW$T$12)
    2662                      .dwattr DW$233, DW_AT_location[DW_OP_breg20 -4]
    2663              DW$234  .dwtag  DW_TAG_variable, DW_AT_name("pdes"), DW_AT_symbol_name("_pdes")
    2664                      .dwattr DW$234, DW_AT_type(*DW$T$82)
    2665                      .dwattr DW$234, DW_AT_location[DW_OP_breg20 -6]
    2666              DW$235  .dwtag  DW_TAG_variable, DW_AT_name("itemp"), DW_AT_symbol_name("_itemp")
    2667                      .dwattr DW$235, DW_AT_type(*DW$T$12)
    2668                      .dwattr DW$235, DW_AT_location[DW_OP_breg20 -8]
    2669              DW$236  .dwtag  DW_TAG_variable, DW_AT_name("offset"), DW_AT_symbol_name("_offset")
    2670                      .dwattr DW$236, DW_AT_type(*DW$T$10)
    2671                      .dwattr DW$236, DW_AT_location[DW_OP_breg20 -9]
    2672 000002e9 A846          MOVL      *-SP[6],XAR4          ; |308| 
    2673 000002ea 1E44          MOVL      *-SP[4],ACC           ; |308| 
    2674                      .dwpsn  "src\global.c",309,8
    2675 000002eb 0644          MOVL      ACC,*-SP[4]           ; |309| 
    2676 000002ec 1E48          MOVL      *-SP[8],ACC           ; |309| 
    2677                      .dwpsn  "src\global.c",310,6
    2678 000002ed 2B49          MOV       *-SP[9],#0            ; |310| 
    2679                      .dwpsn  "src\global.c",311,2
    2680 000002ee 0648          MOVL      ACC,*-SP[8]           ; |311| 
    2681 000002ef 6304          B         L46,GEQ               ; |311| 
    2682                      ; branchcc occurs ; |311| 
TMS320C2000 COFF Assembler PC v4.1.3 Thu Aug 04 16:21:37 2011

Tools Copyright (c) 1996-2006 Texas Instruments Incorporated
C:\DOCUME~1\ADMINI~1\LOCALS~1\Temp\TI8402                            PAGE   51

    2683                      .dwpsn  "src\global.c",313,3
    2684 000002f0 0644          MOVL      ACC,*-SP[4]           ; |313| 
    2685 000002f1 FF54          NEG       ACC                   ; |313| 
    2686 000002f2 1E44          MOVL      *-SP[4],ACC           ; |313| 
    2687              L46:    
    2688              DW$L$_global_ltoa$3$B:
    2689                      .dwpsn  "src\global.c",317,3
    2690 000002f3 020A          MOVB      ACC,#10
    2691 000002f4 1E42          MOVL      *-SP[2],ACC           ; |317| 
    2692 000002f5 0644          MOVL      ACC,*-SP[4]           ; |317| 
    2693 000002f6 00C0!         FFC       XAR7,#L$$MOD          ; |317| 
         000002f7 0000 
    2694                      ; call occurs [#L$$MOD] ; |317| 
    2695 000002f8 3B01          SETC      SXM
    2696 000002f9 2BAA          MOV       PH,#0
    2697 000002fa 28AB          MOV       PL,#48
         000002fb 0030 
    2698 000002fc 5601          ADDL      P,ACC
         000002fd 00AB 
    2699 000002fe 8549          MOV       ACC,*-SP[9]           ; |317| 
    2700 000002ff 0A49          INC       *-SP[9]               ; |317| 
    2701 00000300 8A46          MOVL      XAR4,*-SP[6]          ; |317| 
    2702 00000301 5601          ADDL      XAR4,ACC
         00000302 00A4 
    2703 00000303 3FC4          MOV       *+XAR4[0],P           ; |317| 
    2704                      .dwpsn  "src\global.c",318,3
    2705 00000304 020A          MOVB      ACC,#10
    2706 00000305 1E42          MOVL      *-SP[2],ACC           ; |318| 
    2707 00000306 0644          MOVL      ACC,*-SP[4]           ; |318| 
    2708 00000307 00C0!         FFC       XAR7,#L$$DIV          ; |318| 
         00000308 0000 
    2709                      ; call occurs [#L$$DIV] ; |318| 
    2710 00000309 1E44          MOVL      *-SP[4],ACC           ; |318| 
    2711                      .dwpsn  "src\global.c",320,10
    2712 0000030a 0644          MOVL      ACC,*-SP[4]           ; |320| 
    2713 0000030b 62E8          B         L46,GT                ; |320| 
    2714                      ; branchcc occurs ; |320| 
    2715              DW$L$_global_ltoa$3$E:
    2716                      .dwpsn  "src\global.c",321,2
    2717 0000030c 0648          MOVL      ACC,*-SP[8]           ; |321| 
    2718 0000030d 6309          B         L47,GEQ               ; |321| 
    2719                      ; branchcc occurs ; |321| 
    2720                      .dwpsn  "src\global.c",323,3
    2721 0000030e 3B01          SETC      SXM
    2722 0000030f 8549          MOV       ACC,*-SP[9]           ; |323| 
    2723 00000310 0A49          INC       *-SP[9]               ; |323| 
    2724 00000311 8A46          MOVL      XAR4,*-SP[6]          ; |323| 
    2725 00000312 5601          ADDL      XAR4,ACC
         00000313 00A4 
    2726 00000314 28C4          MOV       *+XAR4[0],#45         ; |323| 
         00000315 002D 
    2727              L47:    
    2728                      .dwpsn  "src\global.c",325,2
    2729 00000316 8A46          MOVL      XAR4,*-SP[6]          ; |325| 
    2730 00000317 3B01          SETC      SXM
TMS320C2000 COFF Assembler PC v4.1.3 Thu Aug 04 16:21:37 2011

Tools Copyright (c) 1996-2006 Texas Instruments Incorporated
C:\DOCUME~1\ADMINI~1\LOCALS~1\Temp\TI8402                            PAGE   52

    2731 00000318 8549          MOV       ACC,*-SP[9]           ; |325| 
    2732 00000319 5601          ADDL      XAR4,ACC
         0000031a 00A4 
    2733 0000031b 2BC4          MOV       *+XAR4[0],#0          ; |325| 
    2734                      .dwpsn  "src\global.c",326,2
    2735 0000031c 8A46          MOVL      XAR4,*-SP[6]          ; |326| 
    2736 0000031d 7640'         LCR       #_global_string_reversal ; |326| 
         0000031e 0287 
    2737                      ; call occurs [#_global_string_reversal] ; |326| 
    2738                      .dwpsn  "src\global.c",327,2
    2739 0000031f 8A46          MOVL      XAR4,*-SP[6]          ; |327| 
    2740 00000320 7640'         LCR       #_global_strlen       ; |327| 
         00000321 020B 
    2741                      ; call occurs [#_global_strlen] ; |327| 
    2742                      .dwpsn  "src\global.c",328,1
    2743 00000322 FE8A          SUBB      SP,#10                ; |327| 
    2744                      .dwcfa  0x1d, -2
    2745 00000323 0006          LRETR
    2746                      ; return occurs
    2747              
    2748              DW$237  .dwtag  DW_TAG_loop
    2749                      .dwattr DW$237, DW_AT_name("C:\DOCUME~1\ADMINI~1\LOCALS~1\Temp\TI8402:L46:1:1312446096")
    2750                      .dwattr DW$237, DW_AT_begin_file("src\global.c")
    2751                      .dwattr DW$237, DW_AT_begin_line(0x13b)
    2752                      .dwattr DW$237, DW_AT_end_line(0x140)
    2753              DW$238  .dwtag  DW_TAG_loop_range
    2754                      .dwattr DW$238, DW_AT_low_pc(DW$L$_global_ltoa$3$B)
    2755                      .dwattr DW$238, DW_AT_high_pc(DW$L$_global_ltoa$3$E)
    2756                      .dwendtag DW$237
    2757              
    2758                      .dwattr DW$230, DW_AT_end_file("src\global.c")
    2759                      .dwattr DW$230, DW_AT_end_line(0x148)
    2760                      .dwattr DW$230, DW_AT_end_column(0x01)
    2761                      .dwendentry
    2762                      .dwendtag DW$230
    2763              
    2764 00000324               .sect   ".text"
    2765                      .global _global_ftoa
    2766              
    2767              DW$239  .dwtag  DW_TAG_subprogram, DW_AT_name("global_ftoa"), DW_AT_symbol_name("_global_ftoa")
    2768                      .dwattr DW$239, DW_AT_low_pc(_global_ftoa)
    2769                      .dwattr DW$239, DW_AT_high_pc(0x00)
    2770                      .dwattr DW$239, DW_AT_begin_file("src\global.c")
    2771                      .dwattr DW$239, DW_AT_begin_line(0x150)
    2772                      .dwattr DW$239, DW_AT_begin_column(0x09)
    2773                      .dwpsn  "src\global.c",337,1
    2774              
    2775                      .dwfde DW$CIE
    2776              
    2777              ;***************************************************************
    2778              ;* FNAME: _global_ftoa                  FR SIZE:  22           *
    2779              ;*                                                             *
    2780              ;* FUNCTION ENVIRONMENT                                        *
    2781              ;*                                                             *
    2782              ;* FUNCTION PROPERTIES                                         *
TMS320C2000 COFF Assembler PC v4.1.3 Thu Aug 04 16:21:37 2011

Tools Copyright (c) 1996-2006 Texas Instruments Incorporated
C:\DOCUME~1\ADMINI~1\LOCALS~1\Temp\TI8402                            PAGE   53

    2783              ;*                            2 Parameter, 20 Auto,  0 SOE     *
    2784              ;***************************************************************
    2785              
    2786              _global_ftoa:
    2787                      .dwcfa  0x1d, -2
    2788                      .dwcfa  0x1c, 26, 0
    2789                      .dwcfa  0x09, 40, 26
    2790 00000324 FE16          ADDB      SP,#22
    2791                      .dwcfa  0x1d, -24
    2792              ;* AL    assigned to _fsrc
    2793              DW$240  .dwtag  DW_TAG_formal_parameter, DW_AT_name("fsrc"), DW_AT_symbol_name("_fsrc")
    2794                      .dwattr DW$240, DW_AT_type(*DW$T$16)
    2795                      .dwattr DW$240, DW_AT_location[DW_OP_reg0]
    2796              ;* AR4   assigned to _pdes
    2797              DW$241  .dwtag  DW_TAG_formal_parameter, DW_AT_name("pdes"), DW_AT_symbol_name("_pdes")
    2798                      .dwattr DW$241, DW_AT_type(*DW$T$82)
    2799                      .dwattr DW$241, DW_AT_location[DW_OP_reg12]
    2800              ;* AR5   assigned to _point_bit
    2801              DW$242  .dwtag  DW_TAG_formal_parameter, DW_AT_name("point_bit"), DW_AT_symbol_name("_point_bit")
    2802                      .dwattr DW$242, DW_AT_type(*DW$T$23)
    2803                      .dwattr DW$242, DW_AT_location[DW_OP_reg14]
    2804              DW$243  .dwtag  DW_TAG_variable, DW_AT_name("fsrc"), DW_AT_symbol_name("_fsrc")
    2805                      .dwattr DW$243, DW_AT_type(*DW$T$16)
    2806                      .dwattr DW$243, DW_AT_location[DW_OP_breg20 -4]
    2807              DW$244  .dwtag  DW_TAG_variable, DW_AT_name("pdes"), DW_AT_symbol_name("_pdes")
    2808                      .dwattr DW$244, DW_AT_type(*DW$T$82)
    2809                      .dwattr DW$244, DW_AT_location[DW_OP_breg20 -6]
    2810              DW$245  .dwtag  DW_TAG_variable, DW_AT_name("point_bit"), DW_AT_symbol_name("_point_bit")
    2811                      .dwattr DW$245, DW_AT_type(*DW$T$23)
    2812                      .dwattr DW$245, DW_AT_location[DW_OP_breg20 -7]
    2813              DW$246  .dwtag  DW_TAG_variable, DW_AT_name("ltemp"), DW_AT_symbol_name("_ltemp")
    2814                      .dwattr DW$246, DW_AT_type(*DW$T$12)
    2815                      .dwattr DW$246, DW_AT_location[DW_OP_breg20 -10]
    2816              DW$247  .dwtag  DW_TAG_variable, DW_AT_name("lmul"), DW_AT_symbol_name("_lmul")
    2817                      .dwattr DW$247, DW_AT_type(*DW$T$12)
    2818                      .dwattr DW$247, DW_AT_location[DW_OP_breg20 -12]
    2819              DW$248  .dwtag  DW_TAG_variable, DW_AT_name("fpoint"), DW_AT_symbol_name("_fpoint")
    2820                      .dwattr DW$248, DW_AT_type(*DW$T$16)
    2821                      .dwattr DW$248, DW_AT_location[DW_OP_breg20 -14]
    2822              DW$249  .dwtag  DW_TAG_variable, DW_AT_name("point"), DW_AT_symbol_name("_point")
    2823                      .dwattr DW$249, DW_AT_type(*DW$T$183)
    2824                      .dwattr DW$249, DW_AT_location[DW_OP_breg20 -22]
    2825 00000325 7D47          MOV       *-SP[7],AR5           ; |337| 
    2826 00000326 A846          MOVL      *-SP[6],XAR4          ; |337| 
    2827 00000327 1E44          MOVL      *-SP[4],ACC           ; |337| 
    2828                      .dwpsn  "src\global.c",341,2
    2829 00000328 5DAD          MOVZ      AR5,SP                ; |341| 
    2830 00000329 5CAD          MOVZ      AR4,SP                ; |341| 
    2831 0000032a 0644          MOVL      ACC,*-SP[4]           ; |341| 
    2832 0000032b DD8E          SUBB      XAR5,#14              ; |341| 
    2833 0000032c DC8A          SUBB      XAR4,#10              ; |341| 
    2834 0000032d 7640'         LCR       #_global_float_putoff_point ; |341| 
         0000032e 0565 
    2835                      ; call occurs [#_global_float_putoff_point] ; |341| 
    2836                      .dwpsn  "src\global.c",342,2
TMS320C2000 COFF Assembler PC v4.1.3 Thu Aug 04 16:21:37 2011

Tools Copyright (c) 1996-2006 Texas Instruments Incorporated
C:\DOCUME~1\ADMINI~1\LOCALS~1\Temp\TI8402                            PAGE   54

    2837 0000032f 064A          MOVL      ACC,*-SP[10]          ; |342| 
    2838 00000330 ED12          BF        L48,NEQ               ; |342| 
    2839                      ; branchcc occurs ; |342| 
    2840 00000331 9A00          MOV       AL,#0
    2841 00000332 9B00          MOV       AH,#0
    2842 00000333 1E42          MOVL      *-SP[2],ACC           ; |342| 
    2843 00000334 0644          MOVL      ACC,*-SP[4]           ; |342| 
    2844 00000335 7640!         LCR       #FS$$CMP              ; |342| 
         00000336 0000 
    2845                      ; call occurs [#FS$$CMP] ; |342| 
    2846 00000337 5200          CMPB      AL,#0                 ; |342| 
    2847 00000338 630A          B         L48,GEQ               ; |342| 
    2848                      ; branchcc occurs ; |342| 
    2849                      .dwpsn  "src\global.c",344,3
    2850 00000339 8A46          MOVL      XAR4,*-SP[6]          ; |344| 
    2851 0000033a 28C4          MOV       *+XAR4[0],#45         ; |344| 
         0000033b 002D 
    2852                      .dwpsn  "src\global.c",345,3
    2853 0000033c 8A46          MOVL      XAR4,*-SP[6]          ; |345| 
    2854 0000033d 28CC          MOV       *+XAR4[1],#48         ; |345| 
         0000033e 0030 
    2855                      .dwpsn  "src\global.c",346,3
    2856 0000033f 8A46          MOVL      XAR4,*-SP[6]          ; |346| 
    2857 00000340 2BD4          MOV       *+XAR4[2],#0          ; |346| 
    2858                      .dwpsn  "src\global.c",347,2
    2859 00000341 6F05          B         L49,UNC               ; |347| 
    2860                      ; branch occurs ; |347| 
    2861              L48:    
    2862                      .dwpsn  "src\global.c",348,7
    2863 00000342 8A46          MOVL      XAR4,*-SP[6]          ; |348| 
    2864 00000343 064A          MOVL      ACC,*-SP[10]          ; |348| 
    2865 00000344 7640'         LCR       #_global_ltoa         ; |348| 
         00000345 02E8 
    2866                      ; call occurs [#_global_ltoa] ; |348| 
    2867              L49:    
    2868                      .dwpsn  "src\global.c",349,2
    2869 00000346 9A00          MOV       AL,#0
    2870 00000347 9B00          MOV       AH,#0
    2871 00000348 1E42          MOVL      *-SP[2],ACC           ; |349| 
    2872 00000349 064E          MOVL      ACC,*-SP[14]          ; |349| 
    2873 0000034a 7640!         LCR       #FS$$CMP              ; |349| 
         0000034b 0000 
    2874                      ; call occurs [#FS$$CMP] ; |349| 
    2875 0000034c 5200          CMPB      AL,#0                 ; |349| 
    2876 0000034d 6503          B         L50,LEQ               ; |349| 
    2877                      ; branchcc occurs ; |349| 
    2878 0000034e 064E          MOVL      ACC,*-SP[14]          ; |349| 
    2879 0000034f 6F04          B         L51,UNC               ; |349| 
    2880                      ; branch occurs ; |349| 
    2881 00000350       L50:    
    2882 00000350 064E          MOVL      ACC,*-SP[14]          ; |349| 
    2883 00000351 7640!         LCR       #FS$$NEG              ; |349| 
         00000352 0000 
    2884                      ; call occurs [#FS$$NEG] ; |349| 
    2885 00000353       L51:    
TMS320C2000 COFF Assembler PC v4.1.3 Thu Aug 04 16:21:37 2011

Tools Copyright (c) 1996-2006 Texas Instruments Incorporated
C:\DOCUME~1\ADMINI~1\LOCALS~1\Temp\TI8402                            PAGE   55

    2886 00000353 1E4E          MOVL      *-SP[14],ACC          ; |349| 
    2887                      .dwpsn  "src\global.c",350,2
    2888 00000354 9A00          MOV       AL,#0
    2889 00000355 9B00          MOV       AH,#0
    2890 00000356 1E42          MOVL      *-SP[2],ACC           ; |350| 
    2891 00000357 064E          MOVL      ACC,*-SP[14]          ; |350| 
    2892 00000358 7640!         LCR       #FS$$CMP              ; |350| 
         00000359 0000 
    2893                      ; call occurs [#FS$$CMP] ; |350| 
    2894 0000035a 5200          CMPB      AL,#0                 ; |350| 
    2895 0000035b 6570          B         L63,LEQ               ; |350| 
    2896                      ; branchcc occurs ; |350| 
    2897                      .dwpsn  "src\global.c",352,3
    2898 0000035c 9247          MOV       AL,*-SP[7]            ; |352| 
    2899 0000035d 5206          CMPB      AL,#6                 ; |352| 
    2900 0000035e 6903          B         L52,LOS               ; |352| 
    2901                      ; branchcc occurs ; |352| 
    2902 0000035f 2847          MOV       *-SP[7],#6            ; |352| 
         00000360 0006 
    2903              L52:    
    2904                      .dwpsn  "src\global.c",353,3
    2905 00000361 0201          MOVB      ACC,#1
    2906 00000362 1E4C          MOVL      *-SP[12],ACC          ; |353| 
    2907                      .dwpsn  "src\global.c",354,11
    2908 00000363 9247          MOV       AL,*-SP[7]            ; |354| 
    2909 00000364 EC0C          BF        L54,EQ                ; |354| 
    2910                      ; branchcc occurs ; |354| 
    2911              L53:    
    2912              DW$L$_global_ftoa$12$B:
    2913                      .dwpsn  "src\global.c",356,4
    2914 00000365 C54C          MOVL      XAR7,*-SP[12]         ; |356| 
    2915 00000366 06A7          MOVL      ACC,XAR7              ; |356| 
    2916 00000367 FF32          LSL       ACC,3                 ; |356| 
    2917 00000368 1EA6          MOVL      XAR6,ACC              ; |356| 
    2918 00000369 06A7          MOVL      ACC,XAR7              ; |356| 
    2919 0000036a FF30          LSL       ACC,1                 ; |356| 
    2920 0000036b 07A6          ADDL      ACC,XAR6
    2921 0000036c 1E4C          MOVL      *-SP[12],ACC          ; |356| 
    2922                      .dwpsn  "src\global.c",357,4
    2923 0000036d 0B47          DEC       *-SP[7]               ; |357| 
    2924                      .dwpsn  "src\global.c",354,11
    2925 0000036e 9247          MOV       AL,*-SP[7]            ; |354| 
    2926 0000036f EDF6          BF        L53,NEQ               ; |354| 
    2927                      ; branchcc occurs ; |354| 
    2928              DW$L$_global_ftoa$12$E:
    2929              L54:    
    2930                      .dwpsn  "src\global.c",359,3
    2931 00000370 064C          MOVL      ACC,*-SP[12]          ; |359| 
    2932 00000371 7640!         LCR       #L$$TOFS              ; |359| 
         00000372 0000 
    2933                      ; call occurs [#L$$TOFS] ; |359| 
    2934 00000373 1E42          MOVL      *-SP[2],ACC           ; |359| 
    2935 00000374 064E          MOVL      ACC,*-SP[14]          ; |359| 
    2936 00000375 7640!         LCR       #FS$$MPY              ; |359| 
         00000376 0000 
TMS320C2000 COFF Assembler PC v4.1.3 Thu Aug 04 16:21:37 2011

Tools Copyright (c) 1996-2006 Texas Instruments Incorporated
C:\DOCUME~1\ADMINI~1\LOCALS~1\Temp\TI8402                            PAGE   56

    2937                      ; call occurs [#FS$$MPY] ; |359| 
    2938 00000377 7640!         LCR       #FS$$TOL              ; |359| 
         00000378 0000 
    2939                      ; call occurs [#FS$$TOL] ; |359| 
    2940 00000379 1E4A          MOVL      *-SP[10],ACC          ; |359| 
    2941                      .dwpsn  "src\global.c",360,3
    2942 0000037a 064A          MOVL      ACC,*-SP[10]          ; |360| 
    2943 0000037b 6503          B         L55,LEQ               ; |360| 
    2944                      ; branchcc occurs ; |360| 
    2945 0000037c 064A          MOVL      ACC,*-SP[10]          ; |360| 
    2946 0000037d 6F03          B         L56,UNC               ; |360| 
    2947                      ; branch occurs ; |360| 
    2948 0000037e       L55:    
    2949 0000037e 064A          MOVL      ACC,*-SP[10]          ; |360| 
    2950 0000037f FF54          NEG       ACC                   ; |360| 
    2951 00000380       L56:    
    2952 00000380 1E4A          MOVL      *-SP[10],ACC          ; |360| 
    2953                      .dwpsn  "src\global.c",361,3
    2954 00000381 5CAD          MOVZ      AR4,SP                ; |361| 
    2955 00000382 064A          MOVL      ACC,*-SP[10]          ; |361| 
    2956 00000383 DC96          SUBB      XAR4,#22              ; |361| 
    2957 00000384 7640'         LCR       #_global_ltoa         ; |361| 
         00000385 02E8 
    2958                      ; call occurs [#_global_ltoa] ; |361| 
    2959                      .dwpsn  "src\global.c",362,3
    2960 00000386 6F09          B         L58,UNC               ; |362| 
    2961                      ; branch occurs ; |362| 
    2962              L57:    
    2963              DW$L$_global_ftoa$17$B:
    2964                      .dwpsn  "src\global.c",364,4
    2965 00000387 5CAD          MOVZ      AR4,SP                ; |364| 
    2966 00000388 DC96          SUBB      XAR4,#22              ; |364| 
    2967 00000389 7640'         LCR       #_global_strlen       ; |364| 
         0000038a 020B 
    2968                      ; call occurs [#_global_strlen] ; |364| 
    2969 0000038b 5CAD          MOVZ      AR4,SP                ; |364| 
    2970 0000038c 58A9          MOVZ      AR0,AL                ; |364| 
    2971 0000038d DC97          SUBB      XAR4,#23              ; |364| 
    2972 0000038e 2B94          MOV       *+XAR4[AR0],#0        ; |364| 
    2973              DW$L$_global_ftoa$17$E:
    2974              L58:    
    2975              DW$L$_global_ftoa$18$B:
    2976                      .dwpsn  "src\global.c",362,11
    2977 0000038f 5CAD          MOVZ      AR4,SP                ; |362| 
    2978 00000390 DC96          SUBB      XAR4,#22              ; |362| 
    2979 00000391 7640'         LCR       #_global_strlen       ; |362| 
         00000392 020B 
    2980                      ; call occurs [#_global_strlen] ; |362| 
    2981 00000393 5CAD          MOVZ      AR4,SP                ; |362| 
    2982 00000394 58A9          MOVZ      AR0,AL                ; |362| 
    2983 00000395 DC97          SUBB      XAR4,#23              ; |362| 
    2984 00000396 9294          MOV       AL,*+XAR4[AR0]        ; |362| 
    2985 00000397 5230          CMPB      AL,#48                ; |362| 
    2986 00000398 ECEF          BF        L57,EQ                ; |362| 
    2987                      ; branchcc occurs ; |362| 
TMS320C2000 COFF Assembler PC v4.1.3 Thu Aug 04 16:21:37 2011

Tools Copyright (c) 1996-2006 Texas Instruments Incorporated
C:\DOCUME~1\ADMINI~1\LOCALS~1\Temp\TI8402                            PAGE   57

    2988              DW$L$_global_ftoa$18$E:
    2989                      .dwpsn  "src\global.c",366,3
    2990 00000399 8A46          MOVL      XAR4,*-SP[6]          ; |366| 
    2991 0000039a 8F40+         MOVL      XAR5,#FSL1            ; |366| 
         0000039b 0000 
    2992 0000039c 7640'         LCR       #_global_strcat       ; |366| 
         0000039d 0212 
    2993                      ; call occurs [#_global_strcat] ; |366| 
    2994                      .dwpsn  "src\global.c",367,3
    2995 0000039e 020A          MOVB      ACC,#10
    2996 0000039f 1E42          MOVL      *-SP[2],ACC           ; |367| 
    2997 000003a0 064C          MOVL      ACC,*-SP[12]          ; |367| 
    2998 000003a1 00C0!         FFC       XAR7,#L$$DIV          ; |367| 
         000003a2 0000 
    2999                      ; call occurs [#L$$DIV] ; |367| 
    3000 000003a3 1E4C          MOVL      *-SP[12],ACC          ; |367| 
    3001                      .dwpsn  "src\global.c",368,11
    3002 000003a4 064C          MOVL      ACC,*-SP[12]          ; |368| 
    3003 000003a5 0F4A          CMPL      ACC,*-SP[10]          ; |368| 
    3004 000003a6 650F          B         L60,LEQ               ; |368| 
    3005                      ; branchcc occurs ; |368| 
    3006              L59:    
    3007              DW$L$_global_ftoa$20$B:
    3008                      .dwpsn  "src\global.c",370,4
    3009 000003a7 8A46          MOVL      XAR4,*-SP[6]          ; |370| 
    3010 000003a8 8F40+         MOVL      XAR5,#FSL2            ; |370| 
         000003a9 0002 
    3011 000003aa 7640'         LCR       #_global_strcat       ; |370| 
         000003ab 0212 
    3012                      ; call occurs [#_global_strcat] ; |370| 
    3013                      .dwpsn  "src\global.c",371,4
    3014 000003ac 020A          MOVB      ACC,#10
    3015 000003ad 1E42          MOVL      *-SP[2],ACC           ; |371| 
    3016 000003ae 064C          MOVL      ACC,*-SP[12]          ; |371| 
    3017 000003af 00C0!         FFC       XAR7,#L$$DIV          ; |371| 
         000003b0 0000 
    3018                      ; call occurs [#L$$DIV] ; |371| 
    3019 000003b1 1E4C          MOVL      *-SP[12],ACC          ; |371| 
    3020                      .dwpsn  "src\global.c",368,11
    3021 000003b2 064C          MOVL      ACC,*-SP[12]          ; |368| 
    3022 000003b3 0F4A          CMPL      ACC,*-SP[10]          ; |368| 
    3023 000003b4 62F3          B         L59,GT                ; |368| 
    3024                      ; branchcc occurs ; |368| 
    3025              DW$L$_global_ftoa$20$E:
    3026              L60:    
    3027                      .dwpsn  "src\global.c",373,3
    3028 000003b5 5DAD          MOVZ      AR5,SP                ; |373| 
    3029 000003b6 8A46          MOVL      XAR4,*-SP[6]          ; |373| 
    3030 000003b7 DD96          SUBB      XAR5,#22              ; |373| 
    3031 000003b8 7640'         LCR       #_global_strcat       ; |373| 
         000003b9 0212 
    3032                      ; call occurs [#_global_strcat] ; |373| 
    3033                      .dwpsn  "src\global.c",374,3
    3034 000003ba 6F06          B         L62,UNC               ; |374| 
    3035                      ; branch occurs ; |374| 
TMS320C2000 COFF Assembler PC v4.1.3 Thu Aug 04 16:21:37 2011

Tools Copyright (c) 1996-2006 Texas Instruments Incorporated
C:\DOCUME~1\ADMINI~1\LOCALS~1\Temp\TI8402                            PAGE   58

    3036              L61:    
    3037              DW$L$_global_ftoa$22$B:
    3038                      .dwpsn  "src\global.c",376,4
    3039 000003bb 8A46          MOVL      XAR4,*-SP[6]          ; |376| 
    3040 000003bc 8F40+         MOVL      XAR5,#FSL2            ; |376| 
         000003bd 0002 
    3041 000003be 7640'         LCR       #_global_strcat       ; |376| 
         000003bf 0212 
    3042                      ; call occurs [#_global_strcat] ; |376| 
    3043              DW$L$_global_ftoa$22$E:
    3044              L62:    
    3045              DW$L$_global_ftoa$23$B:
    3046                      .dwpsn  "src\global.c",374,11
    3047 000003c0 8A46          MOVL      XAR4,*-SP[6]          ; |374| 
    3048 000003c1 7640'         LCR       #_global_strlen       ; |374| 
         000003c2 020B 
    3049                      ; call occurs [#_global_strlen] ; |374| 
    3050 000003c3 88A9          MOVZ      AR6,AL                ; |374| 
    3051 000003c4 0646          MOVL      ACC,*-SP[6]           ; |374| 
    3052 000003c5 0DA6          ADDU      ACC,AR6               ; |374| 
    3053 000003c6 1901          SUBB      ACC,#1                ; |374| 
    3054 000003c7 8AA9          MOVL      XAR4,ACC              ; |374| 
    3055 000003c8 92C4          MOV       AL,*+XAR4[0]          ; |374| 
    3056 000003c9 522E          CMPB      AL,#46                ; |374| 
    3057 000003ca ECF1          BF        L61,EQ                ; |374| 
    3058                      ; branchcc occurs ; |374| 
    3059              DW$L$_global_ftoa$23$E:
    3060              L63:    
    3061                      .dwpsn  "src\global.c",379,2
    3062 000003cb 8A46          MOVL      XAR4,*-SP[6]          ; |379| 
    3063 000003cc 7640'         LCR       #_global_strlen       ; |379| 
         000003cd 020B 
    3064                      ; call occurs [#_global_strlen] ; |379| 
    3065                      .dwpsn  "src\global.c",380,1
    3066 000003ce FE96          SUBB      SP,#22                ; |379| 
    3067                      .dwcfa  0x1d, -2
    3068 000003cf 0006          LRETR
    3069                      ; return occurs
    3070              
    3071              DW$250  .dwtag  DW_TAG_loop
    3072                      .dwattr DW$250, DW_AT_name("C:\DOCUME~1\ADMINI~1\LOCALS~1\Temp\TI8402:L62:1:1312446096")
    3073                      .dwattr DW$250, DW_AT_begin_file("src\global.c")
    3074                      .dwattr DW$250, DW_AT_begin_line(0x176)
    3075                      .dwattr DW$250, DW_AT_end_line(0x178)
    3076              DW$251  .dwtag  DW_TAG_loop_range
    3077                      .dwattr DW$251, DW_AT_low_pc(DW$L$_global_ftoa$23$B)
    3078                      .dwattr DW$251, DW_AT_high_pc(DW$L$_global_ftoa$23$E)
    3079              DW$252  .dwtag  DW_TAG_loop_range
    3080                      .dwattr DW$252, DW_AT_low_pc(DW$L$_global_ftoa$22$B)
    3081                      .dwattr DW$252, DW_AT_high_pc(DW$L$_global_ftoa$22$E)
    3082                      .dwendtag DW$250
    3083              
    3084              
    3085              DW$253  .dwtag  DW_TAG_loop
    3086                      .dwattr DW$253, DW_AT_name("C:\DOCUME~1\ADMINI~1\LOCALS~1\Temp\TI8402:L59:1:1312446096")
TMS320C2000 COFF Assembler PC v4.1.3 Thu Aug 04 16:21:37 2011

Tools Copyright (c) 1996-2006 Texas Instruments Incorporated
C:\DOCUME~1\ADMINI~1\LOCALS~1\Temp\TI8402                            PAGE   59

    3087                      .dwattr DW$253, DW_AT_begin_file("src\global.c")
    3088                      .dwattr DW$253, DW_AT_begin_line(0x170)
    3089                      .dwattr DW$253, DW_AT_end_line(0x174)
    3090              DW$254  .dwtag  DW_TAG_loop_range
    3091                      .dwattr DW$254, DW_AT_low_pc(DW$L$_global_ftoa$20$B)
    3092                      .dwattr DW$254, DW_AT_high_pc(DW$L$_global_ftoa$20$E)
    3093                      .dwendtag DW$253
    3094              
    3095              
    3096              DW$255  .dwtag  DW_TAG_loop
    3097                      .dwattr DW$255, DW_AT_name("C:\DOCUME~1\ADMINI~1\LOCALS~1\Temp\TI8402:L58:1:1312446096")
    3098                      .dwattr DW$255, DW_AT_begin_file("src\global.c")
    3099                      .dwattr DW$255, DW_AT_begin_line(0x16a)
    3100                      .dwattr DW$255, DW_AT_end_line(0x16c)
    3101              DW$256  .dwtag  DW_TAG_loop_range
    3102                      .dwattr DW$256, DW_AT_low_pc(DW$L$_global_ftoa$18$B)
    3103                      .dwattr DW$256, DW_AT_high_pc(DW$L$_global_ftoa$18$E)
    3104              DW$257  .dwtag  DW_TAG_loop_range
    3105                      .dwattr DW$257, DW_AT_low_pc(DW$L$_global_ftoa$17$B)
    3106                      .dwattr DW$257, DW_AT_high_pc(DW$L$_global_ftoa$17$E)
    3107                      .dwendtag DW$255
    3108              
    3109              
    3110              DW$258  .dwtag  DW_TAG_loop
    3111                      .dwattr DW$258, DW_AT_name("C:\DOCUME~1\ADMINI~1\LOCALS~1\Temp\TI8402:L53:1:1312446096")
    3112                      .dwattr DW$258, DW_AT_begin_file("src\global.c")
    3113                      .dwattr DW$258, DW_AT_begin_line(0x162)
    3114                      .dwattr DW$258, DW_AT_end_line(0x166)
    3115              DW$259  .dwtag  DW_TAG_loop_range
    3116                      .dwattr DW$259, DW_AT_low_pc(DW$L$_global_ftoa$12$B)
    3117                      .dwattr DW$259, DW_AT_high_pc(DW$L$_global_ftoa$12$E)
    3118                      .dwendtag DW$258
    3119              
    3120                      .dwattr DW$239, DW_AT_end_file("src\global.c")
    3121                      .dwattr DW$239, DW_AT_end_line(0x17c)
    3122                      .dwattr DW$239, DW_AT_end_column(0x01)
    3123                      .dwendentry
    3124                      .dwendtag DW$239
    3125              
    3126 000003d0               .sect   ".text"
    3127                      .global _global_atoi
    3128              
    3129              DW$260  .dwtag  DW_TAG_subprogram, DW_AT_name("global_atoi"), DW_AT_symbol_name("_global_atoi")
    3130                      .dwattr DW$260, DW_AT_low_pc(_global_atoi)
    3131                      .dwattr DW$260, DW_AT_high_pc(0x00)
    3132                      .dwattr DW$260, DW_AT_begin_file("src\global.c")
    3133                      .dwattr DW$260, DW_AT_begin_line(0x184)
    3134                      .dwattr DW$260, DW_AT_begin_column(0x06)
    3135                      .dwpsn  "src\global.c",389,1
    3136              
    3137                      .dwfde DW$CIE
    3138              
    3139              ;***************************************************************
    3140              ;* FNAME: _global_atoi                  FR SIZE:   2           *
    3141              ;*                                                             *
TMS320C2000 COFF Assembler PC v4.1.3 Thu Aug 04 16:21:37 2011

Tools Copyright (c) 1996-2006 Texas Instruments Incorporated
C:\DOCUME~1\ADMINI~1\LOCALS~1\Temp\TI8402                            PAGE   60

    3142              ;* FUNCTION ENVIRONMENT                                        *
    3143              ;*                                                             *
    3144              ;* FUNCTION PROPERTIES                                         *
    3145              ;*                            0 Parameter,  2 Auto,  0 SOE     *
    3146              ;***************************************************************
    3147              
    3148              _global_atoi:
    3149                      .dwcfa  0x1d, -2
    3150                      .dwcfa  0x1c, 26, 0
    3151                      .dwcfa  0x09, 40, 26
    3152 000003d0 FE02          ADDB      SP,#2
    3153                      .dwcfa  0x1d, -4
    3154              ;* AR4   assigned to _pdes
    3155              DW$261  .dwtag  DW_TAG_formal_parameter, DW_AT_name("pdes"), DW_AT_symbol_name("_pdes")
    3156                      .dwattr DW$261, DW_AT_type(*DW$T$82)
    3157                      .dwattr DW$261, DW_AT_location[DW_OP_reg12]
    3158              DW$262  .dwtag  DW_TAG_variable, DW_AT_name("pdes"), DW_AT_symbol_name("_pdes")
    3159                      .dwattr DW$262, DW_AT_type(*DW$T$82)
    3160                      .dwattr DW$262, DW_AT_location[DW_OP_breg20 -2]
    3161 000003d1 A842          MOVL      *-SP[2],XAR4          ; |389| 
    3162                      .dwpsn  "src\global.c",390,2
    3163 000003d2 8A42          MOVL      XAR4,*-SP[2]          ; |390| 
    3164 000003d3 7640!         LCR       #_atoi                ; |390| 
         000003d4 0000 
    3165                      ; call occurs [#_atoi] ; |390| 
    3166 000003d5 3B01          SETC      SXM
    3167 000003d6 85A9          MOV       ACC,AL                ; |390| 
    3168                      .dwpsn  "src\global.c",391,1
    3169 000003d7 FE82          SUBB      SP,#2                 ; |390| 
    3170                      .dwcfa  0x1d, -2
    3171 000003d8 0006          LRETR
    3172                      ; return occurs
    3173                      .dwattr DW$260, DW_AT_end_file("src\global.c")
    3174                      .dwattr DW$260, DW_AT_end_line(0x187)
    3175                      .dwattr DW$260, DW_AT_end_column(0x01)
    3176                      .dwendentry
    3177                      .dwendtag DW$260
    3178              
    3179 000003d9               .sect   ".text"
    3180                      .global _global_atof
    3181              
    3182              DW$263  .dwtag  DW_TAG_subprogram, DW_AT_name("global_atof"), DW_AT_symbol_name("_global_atof")
    3183                      .dwattr DW$263, DW_AT_low_pc(_global_atof)
    3184                      .dwattr DW$263, DW_AT_high_pc(0x00)
    3185                      .dwattr DW$263, DW_AT_begin_file("src\global.c")
    3186                      .dwattr DW$263, DW_AT_begin_line(0x18e)
    3187                      .dwattr DW$263, DW_AT_begin_column(0x08)
    3188                      .dwpsn  "src\global.c",399,1
    3189              
    3190                      .dwfde DW$CIE
    3191              
    3192              ;***************************************************************
    3193              ;* FNAME: _global_atof                  FR SIZE:  14           *
    3194              ;*                                                             *
    3195              ;* FUNCTION ENVIRONMENT                                        *
TMS320C2000 COFF Assembler PC v4.1.3 Thu Aug 04 16:21:37 2011

Tools Copyright (c) 1996-2006 Texas Instruments Incorporated
C:\DOCUME~1\ADMINI~1\LOCALS~1\Temp\TI8402                            PAGE   61

    3196              ;*                                                             *
    3197              ;* FUNCTION PROPERTIES                                         *
    3198              ;*                            2 Parameter,  9 Auto,  2 SOE     *
    3199              ;***************************************************************
    3200              
    3201              _global_atof:
    3202                      .dwcfa  0x1d, -2
    3203                      .dwcfa  0x1c, 26, 0
    3204                      .dwcfa  0x09, 40, 26
    3205 000003d9 B2BD          MOVL      *SP++,XAR1
    3206                      .dwcfa  0x80, 7, 2
    3207                      .dwcfa  0x1d, -4
    3208 000003da FE0C          ADDB      SP,#12
    3209                      .dwcfa  0x1d, -16
    3210              ;* AR4   assigned to _pdes
    3211              DW$264  .dwtag  DW_TAG_formal_parameter, DW_AT_name("pdes"), DW_AT_symbol_name("_pdes")
    3212                      .dwattr DW$264, DW_AT_type(*DW$T$82)
    3213                      .dwattr DW$264, DW_AT_location[DW_OP_reg12]
    3214              DW$265  .dwtag  DW_TAG_variable, DW_AT_name("pdes"), DW_AT_symbol_name("_pdes")
    3215                      .dwattr DW$265, DW_AT_type(*DW$T$82)
    3216                      .dwattr DW$265, DW_AT_location[DW_OP_breg20 -4]
    3217              DW$266  .dwtag  DW_TAG_variable, DW_AT_name("itemp"), DW_AT_symbol_name("_itemp")
    3218                      .dwattr DW$266, DW_AT_type(*DW$T$16)
    3219                      .dwattr DW$266, DW_AT_location[DW_OP_breg20 -6]
    3220              DW$267  .dwtag  DW_TAG_variable, DW_AT_name("offset"), DW_AT_symbol_name("_offset")
    3221                      .dwattr DW$267, DW_AT_type(*DW$T$23)
    3222                      .dwattr DW$267, DW_AT_location[DW_OP_breg20 -7]
    3223              DW$268  .dwtag  DW_TAG_variable, DW_AT_name("Mdata"), DW_AT_symbol_name("_Mdata")
    3224                      .dwattr DW$268, DW_AT_type(*DW$T$16)
    3225                      .dwattr DW$268, DW_AT_location[DW_OP_breg20 -10]
    3226              DW$269  .dwtag  DW_TAG_variable, DW_AT_name("string_size"), DW_AT_symbol_name("_string_size")
    3227                      .dwattr DW$269, DW_AT_type(*DW$T$23)
    3228                      .dwattr DW$269, DW_AT_location[DW_OP_breg20 -11]
    3229 000003db A844          MOVL      *-SP[4],XAR4          ; |399| 
    3230                      .dwpsn  "src\global.c",400,9
    3231 000003dc 9B00          MOV       AH,#0
    3232 000003dd 9A00          MOV       AL,#0
    3233 000003de 1E46          MOVL      *-SP[6],ACC           ; |400| 
    3234                      .dwpsn  "src\global.c",402,10
    3235 000003df 9A00          MOV       AL,#0
    3236 000003e0 28A8          MOV       AH,#16672
         000003e1 4120 
    3237 000003e2 1E4A          MOVL      *-SP[10],ACC          ; |402| 
    3238                      .dwpsn  "src\global.c",403,10
    3239 000003e3 8A44          MOVL      XAR4,*-SP[4]          ; |403| 
    3240 000003e4 7640'         LCR       #_global_strlen       ; |403| 
         000003e5 020B 
    3241                      ; call occurs [#_global_strlen] ; |403| 
    3242 000003e6 964B          MOV       *-SP[11],AL           ; |403| 
    3243                      .dwpsn  "src\global.c",404,8
    3244 000003e7 8A44          MOVL      XAR4,*-SP[4]          ; |404| 
    3245 000003e8 92C4          MOV       AL,*+XAR4[0]          ; |404| 
    3246 000003e9 522D          CMPB      AL,#45                ; |404| 
    3247 000003ea ED03          BF        L64,NEQ               ; |404| 
    3248                      ; branchcc occurs ; |404| 
TMS320C2000 COFF Assembler PC v4.1.3 Thu Aug 04 16:21:37 2011

Tools Copyright (c) 1996-2006 Texas Instruments Incorporated
C:\DOCUME~1\ADMINI~1\LOCALS~1\Temp\TI8402                            PAGE   62

    3249 000003eb 9A01          MOVB      AL,#1                 ; |404| 
    3250 000003ec 6F02          B         L65,UNC               ; |404| 
    3251                      ; branch occurs ; |404| 
    3252 000003ed       L64:    
    3253 000003ed 9A00          MOVB      AL,#0
    3254 000003ee       L65:    
    3255 000003ee 9647          MOV       *-SP[7],AL            ; |404| 
    3256                      .dwpsn  "src\global.c",404,47
    3257 000003ef 924B          MOV       AL,*-SP[11]           ; |404| 
    3258 000003f0 5447          CMP       AL,*-SP[7]            ; |404| 
    3259 000003f1 6959          B         L74,LOS               ; |404| 
    3260                      ; branchcc occurs ; |404| 
    3261              L66:    
    3262              DW$L$_global_atof$5$B:
    3263                      .dwpsn  "src\global.c",406,3
    3264 000003f2 5847          MOVZ      AR0,*-SP[7]           ; |406| 
    3265 000003f3 8A44          MOVL      XAR4,*-SP[4]          ; |406| 
    3266 000003f4 9294          MOV       AL,*+XAR4[AR0]        ; |406| 
    3267 000003f5 522E          CMPB      AL,#46                ; |406| 
    3268 000003f6 ED07          BF        L67,NEQ               ; |406| 
    3269                      ; branchcc occurs ; |406| 
    3270              DW$L$_global_atof$5$E:
    3271              DW$L$_global_atof$6$B:
    3272                      .dwpsn  "src\global.c",408,4
    3273 000003f7 28A9          MOV       AL,#52429
         000003f8 CCCD 
    3274 000003f9 28A8          MOV       AH,#15820
         000003fa 3DCC 
    3275 000003fb 1E4A          MOVL      *-SP[10],ACC          ; |408| 
    3276                      .dwpsn  "src\global.c",409,4
    3277 000003fc 6F4A          B         L73,UNC               ; |409| 
    3278                      ; branch occurs ; |409| 
    3279              DW$L$_global_atof$6$E:
    3280              L67:    
    3281              DW$L$_global_atof$7$B:
    3282                      .dwpsn  "src\global.c",411,3
    3283 000003fd 9A00          MOV       AL,#0
    3284 000003fe 28A8          MOV       AH,#16672
         000003ff 4120 
    3285 00000400 1E42          MOVL      *-SP[2],ACC           ; |411| 
    3286 00000401 064A          MOVL      ACC,*-SP[10]          ; |411| 
    3287 00000402 7640!         LCR       #FS$$CMP              ; |411| 
         00000403 0000 
    3288                      ; call occurs [#FS$$CMP] ; |411| 
    3289 00000404 5200          CMPB      AL,#0                 ; |411| 
    3290 00000405 ED1F          BF        L70,NEQ               ; |411| 
    3291                      ; branchcc occurs ; |411| 
    3292              DW$L$_global_atof$7$E:
    3293              DW$L$_global_atof$8$B:
    3294                      .dwpsn  "src\global.c",413,4
    3295 00000406 9A00          MOV       AL,#0
    3296 00000407 28A8          MOV       AH,#16672
         00000408 4120 
    3297 00000409 1E42          MOVL      *-SP[2],ACC           ; |413| 
    3298 0000040a 0646          MOVL      ACC,*-SP[6]           ; |413| 
TMS320C2000 COFF Assembler PC v4.1.3 Thu Aug 04 16:21:37 2011

Tools Copyright (c) 1996-2006 Texas Instruments Incorporated
C:\DOCUME~1\ADMINI~1\LOCALS~1\Temp\TI8402                            PAGE   63

    3299 0000040b 7640!         LCR       #FS$$MPY              ; |413| 
         0000040c 0000 
    3300                      ; call occurs [#FS$$MPY] ; |413| 
    3301 0000040d 5847          MOVZ      AR0,*-SP[7]           ; |413| 
    3302 0000040e 8A44          MOVL      XAR4,*-SP[4]          ; |413| 
    3303 0000040f 8BA9          MOVL      XAR1,ACC              ; |413| 
    3304 00000410 9294          MOV       AL,*+XAR4[AR0]        ; |413| 
    3305 00000411 5230          CMPB      AL,#48                ; |413| 
    3306 00000412 6409          B         L68,LT                ; |413| 
    3307                      ; branchcc occurs ; |413| 
    3308 00000413       DW$L$_global_atof$8$E:
    3309 00000413       DW$L$_global_atof$9$B:
    3310 00000413 8A44          MOVL      XAR4,*-SP[4]          ; |413| 
    3311 00000414 9294          MOV       AL,*+XAR4[AR0]        ; |413| 
    3312 00000415 5239          CMPB      AL,#57                ; |413| 
    3313 00000416 6205          B         L68,GT                ; |413| 
    3314                      ; branchcc occurs ; |413| 
    3315 00000417       DW$L$_global_atof$9$E:
    3316 00000417       DW$L$_global_atof$10$B:
    3317 00000417 8A44          MOVL      XAR4,*-SP[4]          ; |413| 
    3318 00000418 9294          MOV       AL,*+XAR4[AR0]        ; |413| 
    3319 00000419 9CD0          ADDB      AL,#-48
    3320 0000041a 6F02          B         L69,UNC               ; |413| 
    3321                      ; branch occurs ; |413| 
    3322 0000041b       DW$L$_global_atof$10$E:
    3323 0000041b       L68:    
    3324 0000041b       DW$L$_global_atof$11$B:
    3325 0000041b 9A30          MOVB      AL,#48                ; |413| 
    3326 0000041c       DW$L$_global_atof$11$E:
    3327 0000041c       L69:    
    3328 0000041c       DW$L$_global_atof$12$B:
    3329 0000041c 7640!         LCR       #I$$TOFS              ; |413| 
         0000041d 0000 
    3330                      ; call occurs [#I$$TOFS] ; |413| 
    3331 0000041e 1E42          MOVL      *-SP[2],ACC           ; |413| 
    3332 0000041f B2A9          MOVL      ACC,XAR1              ; |413| 
    3333 00000420 7640!         LCR       #FS$$ADD              ; |413| 
         00000421 0000 
    3334                      ; call occurs [#FS$$ADD] ; |413| 
    3335 00000422 1E46          MOVL      *-SP[6],ACC           ; |413| 
    3336                      .dwpsn  "src\global.c",414,3
    3337 00000423 6F23          B         L73,UNC               ; |414| 
    3338                      ; branch occurs ; |414| 
    3339              DW$L$_global_atof$12$E:
    3340              L70:    
    3341              DW$L$_global_atof$13$B:
    3342                      .dwpsn  "src\global.c",417,4
    3343 00000424 5847          MOVZ      AR0,*-SP[7]           ; |417| 
    3344 00000425 8A44          MOVL      XAR4,*-SP[4]          ; |417| 
    3345 00000426 9294          MOV       AL,*+XAR4[AR0]        ; |417| 
    3346 00000427 5230          CMPB      AL,#48                ; |417| 
    3347 00000428 6409          B         L71,LT                ; |417| 
    3348                      ; branchcc occurs ; |417| 
    3349 00000429       DW$L$_global_atof$13$E:
    3350 00000429       DW$L$_global_atof$14$B:
TMS320C2000 COFF Assembler PC v4.1.3 Thu Aug 04 16:21:37 2011

Tools Copyright (c) 1996-2006 Texas Instruments Incorporated
C:\DOCUME~1\ADMINI~1\LOCALS~1\Temp\TI8402                            PAGE   64

    3351 00000429 8A44          MOVL      XAR4,*-SP[4]          ; |417| 
    3352 0000042a 9294          MOV       AL,*+XAR4[AR0]        ; |417| 
    3353 0000042b 5239          CMPB      AL,#57                ; |417| 
    3354 0000042c 6205          B         L71,GT                ; |417| 
    3355                      ; branchcc occurs ; |417| 
    3356 0000042d       DW$L$_global_atof$14$E:
    3357 0000042d       DW$L$_global_atof$15$B:
    3358 0000042d 8A44          MOVL      XAR4,*-SP[4]          ; |417| 
    3359 0000042e 9294          MOV       AL,*+XAR4[AR0]        ; |417| 
    3360 0000042f 9CD0          ADDB      AL,#-48
    3361 00000430 6F02          B         L72,UNC               ; |417| 
    3362                      ; branch occurs ; |417| 
    3363 00000431       DW$L$_global_atof$15$E:
    3364 00000431       L71:    
    3365 00000431       DW$L$_global_atof$16$B:
    3366 00000431 9A30          MOVB      AL,#48                ; |417| 
    3367 00000432       DW$L$_global_atof$16$E:
    3368 00000432       L72:    
    3369 00000432       DW$L$_global_atof$17$B:
    3370 00000432 7640!         LCR       #I$$TOFS              ; |417| 
         00000433 0000 
    3371                      ; call occurs [#I$$TOFS] ; |417| 
    3372 00000434 C44A          MOVL      XAR6,*-SP[10]         ; |417| 
    3373 00000435 C242          MOVL      *-SP[2],XAR6          ; |417| 
    3374 00000436 7640!         LCR       #FS$$MPY              ; |417| 
         00000437 0000 
    3375                      ; call occurs [#FS$$MPY] ; |417| 
    3376 00000438 1E42          MOVL      *-SP[2],ACC           ; |417| 
    3377 00000439 0646          MOVL      ACC,*-SP[6]           ; |417| 
    3378 0000043a 7640!         LCR       #FS$$ADD              ; |417| 
         0000043b 0000 
    3379                      ; call occurs [#FS$$ADD] ; |417| 
    3380 0000043c 1E46          MOVL      *-SP[6],ACC           ; |417| 
    3381                      .dwpsn  "src\global.c",418,4
    3382 0000043d 28A9          MOV       AL,#52429
         0000043e CCCD 
    3383 0000043f 28A8          MOV       AH,#15820
         00000440 3DCC 
    3384 00000441 1E42          MOVL      *-SP[2],ACC           ; |418| 
    3385 00000442 064A          MOVL      ACC,*-SP[10]          ; |418| 
    3386 00000443 7640!         LCR       #FS$$MPY              ; |418| 
         00000444 0000 
    3387                      ; call occurs [#FS$$MPY] ; |418| 
    3388 00000445 1E4A          MOVL      *-SP[10],ACC          ; |418| 
    3389              DW$L$_global_atof$17$E:
    3390              L73:    
    3391              DW$L$_global_atof$18$B:
    3392                      .dwpsn  "src\global.c",404,68
    3393 00000446 0A47          INC       *-SP[7]               ; |404| 
    3394                      .dwpsn  "src\global.c",404,47
    3395 00000447 924B          MOV       AL,*-SP[11]           ; |404| 
    3396 00000448 5447          CMP       AL,*-SP[7]            ; |404| 
    3397 00000449 66A9          B         L66,HI                ; |404| 
    3398                      ; branchcc occurs ; |404| 
    3399              DW$L$_global_atof$18$E:
TMS320C2000 COFF Assembler PC v4.1.3 Thu Aug 04 16:21:37 2011

Tools Copyright (c) 1996-2006 Texas Instruments Incorporated
C:\DOCUME~1\ADMINI~1\LOCALS~1\Temp\TI8402                            PAGE   65

    3400              L74:    
    3401                      .dwpsn  "src\global.c",421,2
    3402 0000044a 8A44          MOVL      XAR4,*-SP[4]          ; |421| 
    3403 0000044b 92C4          MOV       AL,*+XAR4[0]          ; |421| 
    3404 0000044c 522D          CMPB      AL,#45                ; |421| 
    3405 0000044d ED05          BF        L75,NEQ               ; |421| 
    3406                      ; branchcc occurs ; |421| 
    3407                      .dwpsn  "src\global.c",423,3
    3408 0000044e 0646          MOVL      ACC,*-SP[6]           ; |423| 
    3409 0000044f 7640!         LCR       #FS$$NEG              ; |423| 
         00000450 0000 
    3410                      ; call occurs [#FS$$NEG] ; |423| 
    3411 00000451 1E46          MOVL      *-SP[6],ACC           ; |423| 
    3412              L75:    
    3413                      .dwpsn  "src\global.c",425,2
    3414 00000452 0646          MOVL      ACC,*-SP[6]           ; |425| 
    3415                      .dwpsn  "src\global.c",426,1
    3416 00000453 FE8C          SUBB      SP,#12                ; |425| 
    3417                      .dwcfa  0x1d, -4
    3418 00000454 8BBE          MOVL      XAR1,*--SP            ; |425| 
    3419                      .dwcfa  0x1d, -2
    3420                      .dwcfa  0xc0, 7
    3421 00000455 0006          LRETR
    3422                      ; return occurs
    3423              
    3424              DW$270  .dwtag  DW_TAG_loop
    3425                      .dwattr DW$270, DW_AT_name("C:\DOCUME~1\ADMINI~1\LOCALS~1\Temp\TI8402:L66:1:1312446096")
    3426                      .dwattr DW$270, DW_AT_begin_file("src\global.c")
    3427                      .dwattr DW$270, DW_AT_begin_line(0x194)
    3428                      .dwattr DW$270, DW_AT_end_line(0x1a4)
    3429              DW$271  .dwtag  DW_TAG_loop_range
    3430                      .dwattr DW$271, DW_AT_low_pc(DW$L$_global_atof$5$B)
    3431                      .dwattr DW$271, DW_AT_high_pc(DW$L$_global_atof$5$E)
    3432              DW$272  .dwtag  DW_TAG_loop_range
    3433                      .dwattr DW$272, DW_AT_low_pc(DW$L$_global_atof$13$B)
    3434                      .dwattr DW$272, DW_AT_high_pc(DW$L$_global_atof$13$E)
    3435              DW$273  .dwtag  DW_TAG_loop_range
    3436                      .dwattr DW$273, DW_AT_low_pc(DW$L$_global_atof$14$B)
    3437                      .dwattr DW$273, DW_AT_high_pc(DW$L$_global_atof$14$E)
    3438              DW$274  .dwtag  DW_TAG_loop_range
    3439                      .dwattr DW$274, DW_AT_low_pc(DW$L$_global_atof$15$B)
    3440                      .dwattr DW$274, DW_AT_high_pc(DW$L$_global_atof$15$E)
    3441              DW$275  .dwtag  DW_TAG_loop_range
    3442                      .dwattr DW$275, DW_AT_low_pc(DW$L$_global_atof$16$B)
    3443                      .dwattr DW$275, DW_AT_high_pc(DW$L$_global_atof$16$E)
    3444              DW$276  .dwtag  DW_TAG_loop_range
    3445                      .dwattr DW$276, DW_AT_low_pc(DW$L$_global_atof$7$B)
    3446                      .dwattr DW$276, DW_AT_high_pc(DW$L$_global_atof$7$E)
    3447              DW$277  .dwtag  DW_TAG_loop_range
    3448                      .dwattr DW$277, DW_AT_low_pc(DW$L$_global_atof$8$B)
    3449                      .dwattr DW$277, DW_AT_high_pc(DW$L$_global_atof$8$E)
    3450              DW$278  .dwtag  DW_TAG_loop_range
    3451                      .dwattr DW$278, DW_AT_low_pc(DW$L$_global_atof$9$B)
    3452                      .dwattr DW$278, DW_AT_high_pc(DW$L$_global_atof$9$E)
    3453              DW$279  .dwtag  DW_TAG_loop_range
TMS320C2000 COFF Assembler PC v4.1.3 Thu Aug 04 16:21:37 2011

Tools Copyright (c) 1996-2006 Texas Instruments Incorporated
C:\DOCUME~1\ADMINI~1\LOCALS~1\Temp\TI8402                            PAGE   66

    3454                      .dwattr DW$279, DW_AT_low_pc(DW$L$_global_atof$10$B)
    3455                      .dwattr DW$279, DW_AT_high_pc(DW$L$_global_atof$10$E)
    3456              DW$280  .dwtag  DW_TAG_loop_range
    3457                      .dwattr DW$280, DW_AT_low_pc(DW$L$_global_atof$11$B)
    3458                      .dwattr DW$280, DW_AT_high_pc(DW$L$_global_atof$11$E)
    3459              DW$281  .dwtag  DW_TAG_loop_range
    3460                      .dwattr DW$281, DW_AT_low_pc(DW$L$_global_atof$6$B)
    3461                      .dwattr DW$281, DW_AT_high_pc(DW$L$_global_atof$6$E)
    3462              DW$282  .dwtag  DW_TAG_loop_range
    3463                      .dwattr DW$282, DW_AT_low_pc(DW$L$_global_atof$12$B)
    3464                      .dwattr DW$282, DW_AT_high_pc(DW$L$_global_atof$12$E)
    3465              DW$283  .dwtag  DW_TAG_loop_range
    3466                      .dwattr DW$283, DW_AT_low_pc(DW$L$_global_atof$17$B)
    3467                      .dwattr DW$283, DW_AT_high_pc(DW$L$_global_atof$17$E)
    3468              DW$284  .dwtag  DW_TAG_loop_range
    3469                      .dwattr DW$284, DW_AT_low_pc(DW$L$_global_atof$18$B)
    3470                      .dwattr DW$284, DW_AT_high_pc(DW$L$_global_atof$18$E)
    3471                      .dwendtag DW$270
    3472              
    3473                      .dwattr DW$263, DW_AT_end_file("src\global.c")
    3474                      .dwattr DW$263, DW_AT_end_line(0x1aa)
    3475                      .dwattr DW$263, DW_AT_end_column(0x01)
    3476                      .dwendentry
    3477                      .dwendtag DW$263
    3478              
    3479 00000456               .sect   ".text"
    3480                      .global _global_debounce_times_mod
    3481              
    3482              DW$285  .dwtag  DW_TAG_subprogram, DW_AT_name("global_debounce_times_mod"), DW_AT_symbol_name("_global_deboun
    3483                      .dwattr DW$285, DW_AT_low_pc(_global_debounce_times_mod)
    3484                      .dwattr DW$285, DW_AT_high_pc(0x00)
    3485                      .dwattr DW$285, DW_AT_begin_file("src\global.c")
    3486                      .dwattr DW$285, DW_AT_begin_line(0x1b2)
    3487                      .dwattr DW$285, DW_AT_begin_column(0x06)
    3488                      .dwpsn  "src\global.c",435,1
    3489              
    3490                      .dwfde DW$CIE
    3491              
    3492              ;***************************************************************
    3493              ;* FNAME: _global_debounce_times_mod    FR SIZE:   4           *
    3494              ;*                                                             *
    3495              ;* FUNCTION ENVIRONMENT                                        *
    3496              ;*                                                             *
    3497              ;* FUNCTION PROPERTIES                                         *
    3498              ;*                            0 Parameter,  3 Auto,  0 SOE     *
    3499              ;***************************************************************
    3500              
    3501              _global_debounce_times_mod:
    3502                      .dwcfa  0x1d, -2
    3503                      .dwcfa  0x1c, 26, 0
    3504                      .dwcfa  0x09, 40, 26
    3505 00000456 FE04          ADDB      SP,#4
    3506                      .dwcfa  0x1d, -6
    3507              ;* AR4   assigned to _debounce_ptr
    3508              DW$286  .dwtag  DW_TAG_formal_parameter, DW_AT_name("debounce_ptr"), DW_AT_symbol_name("_debounce_ptr")
TMS320C2000 COFF Assembler PC v4.1.3 Thu Aug 04 16:21:37 2011

Tools Copyright (c) 1996-2006 Texas Instruments Incorporated
C:\DOCUME~1\ADMINI~1\LOCALS~1\Temp\TI8402                            PAGE   67

    3509                      .dwattr DW$286, DW_AT_type(*DW$T$88)
    3510                      .dwattr DW$286, DW_AT_location[DW_OP_reg12]
    3511              ;* AL    assigned to _times
    3512              DW$287  .dwtag  DW_TAG_formal_parameter, DW_AT_name("times"), DW_AT_symbol_name("_times")
    3513                      .dwattr DW$287, DW_AT_type(*DW$T$6)
    3514                      .dwattr DW$287, DW_AT_location[DW_OP_reg0]
    3515              DW$288  .dwtag  DW_TAG_variable, DW_AT_name("debounce_ptr"), DW_AT_symbol_name("_debounce_ptr")
    3516                      .dwattr DW$288, DW_AT_type(*DW$T$88)
    3517                      .dwattr DW$288, DW_AT_location[DW_OP_breg20 -2]
    3518              DW$289  .dwtag  DW_TAG_variable, DW_AT_name("times"), DW_AT_symbol_name("_times")
    3519                      .dwattr DW$289, DW_AT_type(*DW$T$6)
    3520                      .dwattr DW$289, DW_AT_location[DW_OP_breg20 -3]
    3521 00000457 9643          MOV       *-SP[3],AL            ; |435| 
    3522 00000458 A842          MOVL      *-SP[2],XAR4          ; |435| 
    3523                      .dwpsn  "src\global.c",436,2
    3524 00000459 9243          MOV       AL,*-SP[3]            ; |436| 
    3525 0000045a 8A42          MOVL      XAR4,*-SP[2]          ; |436| 
    3526 0000045b 96EC          MOV       *+XAR4[5],AL          ; |436| 
    3527                      .dwpsn  "src\global.c",437,2
    3528                      .dwpsn  "src\global.c",438,1
    3529 0000045c FE84          SUBB      SP,#4
    3530                      .dwcfa  0x1d, -2
    3531 0000045d 0006          LRETR
    3532                      ; return occurs
    3533                      .dwattr DW$285, DW_AT_end_file("src\global.c")
    3534                      .dwattr DW$285, DW_AT_end_line(0x1b6)
    3535                      .dwattr DW$285, DW_AT_end_column(0x01)
    3536                      .dwendentry
    3537                      .dwendtag DW$285
    3538              
    3539 0000045e               .sect   ".text"
    3540                      .global _global_debounce_support
    3541              
    3542              DW$290  .dwtag  DW_TAG_subprogram, DW_AT_name("global_debounce_support"), DW_AT_symbol_name("_global_debounce
    3543                      .dwattr DW$290, DW_AT_low_pc(_global_debounce_support)
    3544                      .dwattr DW$290, DW_AT_high_pc(0x00)
    3545                      .dwattr DW$290, DW_AT_begin_file("src\global.c")
    3546                      .dwattr DW$290, DW_AT_begin_line(0x1be)
    3547                      .dwattr DW$290, DW_AT_begin_column(0x07)
    3548                      .dwpsn  "src\global.c",447,1
    3549              
    3550                      .dwfde DW$CIE
    3551              
    3552              ;***************************************************************
    3553              ;* FNAME: _global_debounce_support      FR SIZE:   4           *
    3554              ;*                                                             *
    3555              ;* FUNCTION ENVIRONMENT                                        *
    3556              ;*                                                             *
    3557              ;* FUNCTION PROPERTIES                                         *
    3558              ;*                            0 Parameter,  4 Auto,  0 SOE     *
    3559              ;***************************************************************
    3560              
    3561              _global_debounce_support:
    3562                      .dwcfa  0x1d, -2
    3563                      .dwcfa  0x1c, 26, 0
TMS320C2000 COFF Assembler PC v4.1.3 Thu Aug 04 16:21:37 2011

Tools Copyright (c) 1996-2006 Texas Instruments Incorporated
C:\DOCUME~1\ADMINI~1\LOCALS~1\Temp\TI8402                            PAGE   68

    3564                      .dwcfa  0x09, 40, 26
    3565 0000045e FE04          ADDB      SP,#4
    3566                      .dwcfa  0x1d, -6
    3567              ;* AR4   assigned to _in_data
    3568              DW$291  .dwtag  DW_TAG_formal_parameter, DW_AT_name("in_data"), DW_AT_symbol_name("_in_data")
    3569                      .dwattr DW$291, DW_AT_type(*DW$T$25)
    3570                      .dwattr DW$291, DW_AT_location[DW_OP_reg12]
    3571              ;* AR5   assigned to _debounce_ptr
    3572              DW$292  .dwtag  DW_TAG_formal_parameter, DW_AT_name("debounce_ptr"), DW_AT_symbol_name("_debounce_ptr")
    3573                      .dwattr DW$292, DW_AT_type(*DW$T$88)
    3574                      .dwattr DW$292, DW_AT_location[DW_OP_reg14]
    3575              DW$293  .dwtag  DW_TAG_variable, DW_AT_name("in_data"), DW_AT_symbol_name("_in_data")
    3576                      .dwattr DW$293, DW_AT_type(*DW$T$25)
    3577                      .dwattr DW$293, DW_AT_location[DW_OP_breg20 -2]
    3578              DW$294  .dwtag  DW_TAG_variable, DW_AT_name("debounce_ptr"), DW_AT_symbol_name("_debounce_ptr")
    3579                      .dwattr DW$294, DW_AT_type(*DW$T$88)
    3580                      .dwattr DW$294, DW_AT_location[DW_OP_breg20 -4]
    3581 0000045f A044          MOVL      *-SP[4],XAR5          ; |447| 
    3582 00000460 A842          MOVL      *-SP[2],XAR4          ; |447| 
    3583                      .dwpsn  "src\global.c",448,2
    3584 00000461 8A44          MOVL      XAR4,*-SP[4]          ; |448| 
    3585 00000462 92F4          MOV       AL,*+XAR4[6]          ; |448| 
    3586 00000463 ED14          BF        L77,NEQ               ; |448| 
    3587                      ; branchcc occurs ; |448| 
    3588                      .dwpsn  "src\global.c",450,3
    3589 00000464 8A44          MOVL      XAR4,*-SP[4]          ; |450| 
    3590 00000465 8342          MOVL      XAR5,*-SP[2]          ; |450| 
    3591 00000466 92E4          MOV       AL,*+XAR4[4]          ; |450| 
    3592 00000467 8A44          MOVL      XAR4,*-SP[4]          ; |450| 
    3593 00000468 7640'         LCR       #_global_memcpy       ; |450| 
         00000469 01E4 
    3594                      ; call occurs [#_global_memcpy] ; |450| 
    3595                      .dwpsn  "src\global.c",451,3
    3596 0000046a 8A44          MOVL      XAR4,*-SP[4]          ; |451| 
    3597 0000046b 0AF4          INC       *+XAR4[6]             ; |451| 
    3598                      .dwpsn  "src\global.c",452,3
    3599 0000046c 8A44          MOVL      XAR4,*-SP[4]          ; |452| 
    3600 0000046d 92EC          MOV       AL,*+XAR4[5]          ; |452| 
    3601 0000046e 8A44          MOVL      XAR4,*-SP[4]          ; |452| 
    3602 0000046f 54F4          CMP       AL,*+XAR4[6]          ; |452| 
    3603 00000470 6705          B         L76,HIS               ; |452| 
    3604                      ; branchcc occurs ; |452| 
    3605                      .dwpsn  "src\global.c",454,4
    3606 00000471 8A44          MOVL      XAR4,*-SP[4]          ; |454| 
    3607 00000472 2BF4          MOV       *+XAR4[6],#0          ; |454| 
    3608                      .dwpsn  "src\global.c",455,4
    3609 00000473 9A01          MOVB      AL,#1                 ; |455| 
    3610 00000474 6F19          B         L80,UNC               ; |455| 
    3611                      ; branch occurs ; |455| 
    3612              L76:    
    3613                      .dwpsn  "src\global.c",457,3
    3614 00000475 9A00          MOVB      AL,#0
    3615 00000476 6F17          B         L80,UNC               ; |457| 
    3616                      ; branch occurs ; |457| 
    3617              L77:    
TMS320C2000 COFF Assembler PC v4.1.3 Thu Aug 04 16:21:37 2011

Tools Copyright (c) 1996-2006 Texas Instruments Incorporated
C:\DOCUME~1\ADMINI~1\LOCALS~1\Temp\TI8402                            PAGE   69

    3618                      .dwpsn  "src\global.c",459,2
    3619 00000477 8A44          MOVL      XAR4,*-SP[4]          ; |459| 
    3620 00000478 0AF4          INC       *+XAR4[6]             ; |459| 
    3621                      .dwpsn  "src\global.c",460,2
    3622 00000479 8A44          MOVL      XAR4,*-SP[4]          ; |460| 
    3623 0000047a D008          MOVB      XAR0,#8               ; |460| 
    3624 0000047b C594          MOVL      XAR7,*+XAR4[AR0]      ; |460| 
    3625 0000047c 8342          MOVL      XAR5,*-SP[2]          ; |460| 
    3626 0000047d 8A44          MOVL      XAR4,*-SP[4]          ; |460| 
    3627 0000047e 3E67          LCR       *XAR7                 ; |460| 
    3628                      ; call occurs [XAR7] ; |460| 
    3629 0000047f 5200          CMPB      AL,#0                 ; |460| 
    3630 00000480 EC0A          BF        L78,EQ                ; |460| 
    3631                      ; branchcc occurs ; |460| 
    3632                      .dwpsn  "src\global.c",462,3
    3633 00000481 8A44          MOVL      XAR4,*-SP[4]          ; |462| 
    3634 00000482 92EC          MOV       AL,*+XAR4[5]          ; |462| 
    3635 00000483 8A44          MOVL      XAR4,*-SP[4]          ; |462| 
    3636 00000484 54F4          CMP       AL,*+XAR4[6]          ; |462| 
    3637 00000485 6707          B         L79,HIS               ; |462| 
    3638                      ; branchcc occurs ; |462| 
    3639                      .dwpsn  "src\global.c",464,4
    3640 00000486 8A44          MOVL      XAR4,*-SP[4]          ; |464| 
    3641 00000487 2BF4          MOV       *+XAR4[6],#0          ; |464| 
    3642                      .dwpsn  "src\global.c",465,4
    3643 00000488 9A01          MOVB      AL,#1                 ; |465| 
    3644 00000489 6F04          B         L80,UNC               ; |465| 
    3645                      ; branch occurs ; |465| 
    3646              L78:    
    3647                      .dwpsn  "src\global.c",470,3
    3648 0000048a 8A44          MOVL      XAR4,*-SP[4]          ; |470| 
    3649 0000048b 2BF4          MOV       *+XAR4[6],#0          ; |470| 
    3650              L79:    
    3651                      .dwpsn  "src\global.c",472,2
    3652 0000048c 9A00          MOVB      AL,#0
    3653              L80:    
    3654                      .dwpsn  "src\global.c",473,1
    3655 0000048d FE84          SUBB      SP,#4                 ; |472| 
    3656                      .dwcfa  0x1d, -2
    3657 0000048e 0006          LRETR
    3658                      ; return occurs
    3659                      .dwattr DW$290, DW_AT_end_file("src\global.c")
    3660                      .dwattr DW$290, DW_AT_end_line(0x1d9)
    3661                      .dwattr DW$290, DW_AT_end_column(0x01)
    3662                      .dwendentry
    3663                      .dwendtag DW$290
    3664              
    3665 0000048f               .sect   ".text"
    3666                      .global _global_sum_array
    3667              
    3668              DW$295  .dwtag  DW_TAG_subprogram, DW_AT_name("global_sum_array"), DW_AT_symbol_name("_global_sum_array")
    3669                      .dwattr DW$295, DW_AT_low_pc(_global_sum_array)
    3670                      .dwattr DW$295, DW_AT_high_pc(0x00)
    3671                      .dwattr DW$295, DW_AT_begin_file("src\global.c")
    3672                      .dwattr DW$295, DW_AT_begin_line(0x1e3)
TMS320C2000 COFF Assembler PC v4.1.3 Thu Aug 04 16:21:37 2011

Tools Copyright (c) 1996-2006 Texas Instruments Incorporated
C:\DOCUME~1\ADMINI~1\LOCALS~1\Temp\TI8402                            PAGE   70

    3673                      .dwattr DW$295, DW_AT_begin_column(0x0a)
    3674                      .dwpsn  "src\global.c",484,1
    3675              
    3676                      .dwfde DW$CIE
    3677              
    3678              ;***************************************************************
    3679              ;* FNAME: _global_sum_array             FR SIZE:  12           *
    3680              ;*                                                             *
    3681              ;* FUNCTION ENVIRONMENT                                        *
    3682              ;*                                                             *
    3683              ;* FUNCTION PROPERTIES                                         *
    3684              ;*                            2 Parameter,  9 Auto,  0 SOE     *
    3685              ;***************************************************************
    3686              
    3687              _global_sum_array:
    3688                      .dwcfa  0x1d, -2
    3689                      .dwcfa  0x1c, 26, 0
    3690                      .dwcfa  0x09, 40, 26
    3691 0000048f FE0C          ADDB      SP,#12
    3692                      .dwcfa  0x1d, -14
    3693              ;* AR4   assigned to _Phead
    3694              DW$296  .dwtag  DW_TAG_formal_parameter, DW_AT_name("Phead"), DW_AT_symbol_name("_Phead")
    3695                      .dwattr DW$296, DW_AT_type(*DW$T$3)
    3696                      .dwattr DW$296, DW_AT_location[DW_OP_reg12]
    3697              ;* AL    assigned to _size
    3698              DW$297  .dwtag  DW_TAG_formal_parameter, DW_AT_name("size"), DW_AT_symbol_name("_size")
    3699                      .dwattr DW$297, DW_AT_type(*DW$T$23)
    3700                      .dwattr DW$297, DW_AT_location[DW_OP_reg0]
    3701              ;* AH    assigned to _data_type
    3702              DW$298  .dwtag  DW_TAG_formal_parameter, DW_AT_name("data_type"), DW_AT_symbol_name("_data_type")
    3703                      .dwattr DW$298, DW_AT_type(*DW$T$23)
    3704                      .dwattr DW$298, DW_AT_location[DW_OP_reg1]
    3705              DW$299  .dwtag  DW_TAG_variable, DW_AT_name("Phead"), DW_AT_symbol_name("_Phead")
    3706                      .dwattr DW$299, DW_AT_type(*DW$T$3)
    3707                      .dwattr DW$299, DW_AT_location[DW_OP_breg20 -4]
    3708              DW$300  .dwtag  DW_TAG_variable, DW_AT_name("size"), DW_AT_symbol_name("_size")
    3709                      .dwattr DW$300, DW_AT_type(*DW$T$23)
    3710                      .dwattr DW$300, DW_AT_location[DW_OP_breg20 -5]
    3711              DW$301  .dwtag  DW_TAG_variable, DW_AT_name("data_type"), DW_AT_symbol_name("_data_type")
    3712                      .dwattr DW$301, DW_AT_type(*DW$T$23)
    3713                      .dwattr DW$301, DW_AT_location[DW_OP_breg20 -6]
    3714              DW$302  .dwtag  DW_TAG_variable, DW_AT_name("sum"), DW_AT_symbol_name("_sum")
    3715                      .dwattr DW$302, DW_AT_type(*DW$T$23)
    3716                      .dwattr DW$302, DW_AT_location[DW_OP_breg20 -7]
    3717              DW$303  .dwtag  DW_TAG_variable, DW_AT_name("fsum"), DW_AT_symbol_name("_fsum")
    3718                      .dwattr DW$303, DW_AT_type(*DW$T$16)
    3719                      .dwattr DW$303, DW_AT_location[DW_OP_breg20 -10]
    3720              DW$304  .dwtag  DW_TAG_variable, DW_AT_name("index"), DW_AT_symbol_name("_index")
    3721                      .dwattr DW$304, DW_AT_type(*DW$T$23)
    3722                      .dwattr DW$304, DW_AT_location[DW_OP_breg20 -11]
    3723 00000490 9746          MOV       *-SP[6],AH            ; |484| 
    3724 00000491 9645          MOV       *-SP[5],AL            ; |484| 
    3725 00000492 A844          MOVL      *-SP[4],XAR4          ; |484| 
    3726                      .dwpsn  "src\global.c",485,11
    3727 00000493 2B47          MOV       *-SP[7],#0            ; |485| 
TMS320C2000 COFF Assembler PC v4.1.3 Thu Aug 04 16:21:37 2011

Tools Copyright (c) 1996-2006 Texas Instruments Incorporated
C:\DOCUME~1\ADMINI~1\LOCALS~1\Temp\TI8402                            PAGE   71

    3728                      .dwpsn  "src\global.c",486,12
    3729 00000494 9B00          MOV       AH,#0
    3730 00000495 9A00          MOV       AL,#0
    3731 00000496 1E4A          MOVL      *-SP[10],ACC          ; |486| 
    3732                      .dwpsn  "src\global.c",488,8
    3733 00000497 2B4B          MOV       *-SP[11],#0           ; |488| 
    3734                      .dwpsn  "src\global.c",488,18
    3735 00000498 9245          MOV       AL,*-SP[5]            ; |488| 
    3736 00000499 544B          CMP       AL,*-SP[11]           ; |488| 
    3737 0000049a 6924          B         L87,LOS               ; |488| 
    3738                      ; branchcc occurs ; |488| 
    3739              L81:    
    3740              DW$L$_global_sum_array$2$B:
    3741                      .dwpsn  "src\global.c",490,3
    3742 0000049b 9246          MOV       AL,*-SP[6]            ; |490| 
    3743 0000049c EC03          BF        L82,EQ                ; |490| 
    3744                      ; branchcc occurs ; |490| 
    3745 0000049d       DW$L$_global_sum_array$2$E:
    3746 0000049d       DW$L$_global_sum_array$3$B:
    3747 0000049d 5201          CMPB      AL,#1                 ; |490| 
    3748 0000049e ED06          BF        L83,NEQ               ; |490| 
    3749                      ; branchcc occurs ; |490| 
    3750              DW$L$_global_sum_array$3$E:
    3751              L82:    
    3752              DW$L$_global_sum_array$4$B:
    3753                      .dwpsn  "src\global.c",492,4
    3754 0000049f 584B          MOVZ      AR0,*-SP[11]          ; |492| 
    3755 000004a0 8A44          MOVL      XAR4,*-SP[4]          ; |492| 
    3756 000004a1 9294          MOV       AL,*+XAR4[AR0]        ; |492| 
    3757 000004a2 7247          ADD       *-SP[7],AL            ; |492| 
    3758                      .dwpsn  "src\global.c",493,3
    3759 000004a3 6F17          B         L86,UNC               ; |493| 
    3760                      ; branch occurs ; |493| 
    3761              DW$L$_global_sum_array$4$E:
    3762              L83:    
    3763              DW$L$_global_sum_array$5$B:
    3764                      .dwpsn  "src\global.c",494,8
    3765 000004a4 5202          CMPB      AL,#2                 ; |494| 
    3766 000004a5 EC03          BF        L84,EQ                ; |494| 
    3767                      ; branchcc occurs ; |494| 
    3768 000004a6       DW$L$_global_sum_array$5$E:
    3769 000004a6       DW$L$_global_sum_array$6$B:
    3770 000004a6 5203          CMPB      AL,#3                 ; |494| 
    3771 000004a7 ED06          BF        L85,NEQ               ; |494| 
    3772                      ; branchcc occurs ; |494| 
    3773              DW$L$_global_sum_array$6$E:
    3774              L84:    
    3775              DW$L$_global_sum_array$7$B:
    3776                      .dwpsn  "src\global.c",496,4
    3777 000004a8 584B          MOVZ      AR0,*-SP[11]          ; |496| 
    3778 000004a9 8A44          MOVL      XAR4,*-SP[4]          ; |496| 
    3779 000004aa 9294          MOV       AL,*+XAR4[AR0]        ; |496| 
    3780 000004ab 7247          ADD       *-SP[7],AL            ; |496| 
    3781                      .dwpsn  "src\global.c",497,3
    3782 000004ac 6F0E          B         L86,UNC               ; |497| 
TMS320C2000 COFF Assembler PC v4.1.3 Thu Aug 04 16:21:37 2011

Tools Copyright (c) 1996-2006 Texas Instruments Incorporated
C:\DOCUME~1\ADMINI~1\LOCALS~1\Temp\TI8402                            PAGE   72

    3783                      ; branch occurs ; |497| 
    3784              DW$L$_global_sum_array$7$E:
    3785              L85:    
    3786              DW$L$_global_sum_array$8$B:
    3787                      .dwpsn  "src\global.c",498,8
    3788 000004ad 5206          CMPB      AL,#6                 ; |498| 
    3789 000004ae ED0C          BF        L86,NEQ               ; |498| 
    3790                      ; branchcc occurs ; |498| 
    3791              DW$L$_global_sum_array$8$E:
    3792              DW$L$_global_sum_array$9$B:
    3793                      .dwpsn  "src\global.c",500,4
    3794 000004af 8A44          MOVL      XAR4,*-SP[4]          ; |500| 
    3795 000004b0 0E4B          MOVU      ACC,*-SP[11]
    3796 000004b1 FF30          LSL       ACC,1                 ; |500| 
    3797 000004b2 5601          ADDL      XAR4,ACC
         000004b3 00A4 
    3798 000004b4 06C4          MOVL      ACC,*+XAR4[0]         ; |500| 
    3799 000004b5 1E42          MOVL      *-SP[2],ACC           ; |500| 
    3800 000004b6 064A          MOVL      ACC,*-SP[10]          ; |500| 
    3801 000004b7 7640!         LCR       #FS$$ADD              ; |500| 
         000004b8 0000 
    3802                      ; call occurs [#FS$$ADD] ; |500| 
    3803 000004b9 1E4A          MOVL      *-SP[10],ACC          ; |500| 
    3804              DW$L$_global_sum_array$9$E:
    3805              L86:    
    3806              DW$L$_global_sum_array$10$B:
    3807                      .dwpsn  "src\global.c",488,31
    3808 000004ba 0A4B          INC       *-SP[11]              ; |488| 
    3809                      .dwpsn  "src\global.c",488,18
    3810 000004bb 9245          MOV       AL,*-SP[5]            ; |488| 
    3811 000004bc 544B          CMP       AL,*-SP[11]           ; |488| 
    3812 000004bd 66DE          B         L81,HI                ; |488| 
    3813                      ; branchcc occurs ; |488| 
    3814              DW$L$_global_sum_array$10$E:
    3815              L87:    
    3816                      .dwpsn  "src\global.c",503,2
    3817 000004be 9246          MOV       AL,*-SP[6]            ; |503| 
    3818 000004bf 5206          CMPB      AL,#6                 ; |503| 
    3819 000004c0 ED05          BF        L88,NEQ               ; |503| 
    3820                      ; branchcc occurs ; |503| 
    3821                      .dwpsn  "src\global.c",503,31
    3822 000004c1 064A          MOVL      ACC,*-SP[10]          ; |503| 
    3823 000004c2 7640!         LCR       #FS$$TOU              ; |503| 
         000004c3 0000 
    3824                      ; call occurs [#FS$$TOU] ; |503| 
    3825 000004c4 6F02          B         L89,UNC               ; |503| 
    3826                      ; branch occurs ; |503| 
    3827              L88:    
    3828                      .dwpsn  "src\global.c",504,2
    3829 000004c5 9247          MOV       AL,*-SP[7]            ; |504| 
    3830              L89:    
    3831                      .dwpsn  "src\global.c",505,1
    3832 000004c6 FE8C          SUBB      SP,#12                ; |504| 
    3833                      .dwcfa  0x1d, -2
    3834 000004c7 0006          LRETR
TMS320C2000 COFF Assembler PC v4.1.3 Thu Aug 04 16:21:37 2011

Tools Copyright (c) 1996-2006 Texas Instruments Incorporated
C:\DOCUME~1\ADMINI~1\LOCALS~1\Temp\TI8402                            PAGE   73

    3835                      ; return occurs
    3836              
    3837              DW$305  .dwtag  DW_TAG_loop
    3838                      .dwattr DW$305, DW_AT_name("C:\DOCUME~1\ADMINI~1\LOCALS~1\Temp\TI8402:L81:1:1312446096")
    3839                      .dwattr DW$305, DW_AT_begin_file("src\global.c")
    3840                      .dwattr DW$305, DW_AT_begin_line(0x1e8)
    3841                      .dwattr DW$305, DW_AT_end_line(0x1f6)
    3842              DW$306  .dwtag  DW_TAG_loop_range
    3843                      .dwattr DW$306, DW_AT_low_pc(DW$L$_global_sum_array$2$B)
    3844                      .dwattr DW$306, DW_AT_high_pc(DW$L$_global_sum_array$2$E)
    3845              DW$307  .dwtag  DW_TAG_loop_range
    3846                      .dwattr DW$307, DW_AT_low_pc(DW$L$_global_sum_array$5$B)
    3847                      .dwattr DW$307, DW_AT_high_pc(DW$L$_global_sum_array$5$E)
    3848              DW$308  .dwtag  DW_TAG_loop_range
    3849                      .dwattr DW$308, DW_AT_low_pc(DW$L$_global_sum_array$6$B)
    3850                      .dwattr DW$308, DW_AT_high_pc(DW$L$_global_sum_array$6$E)
    3851              DW$309  .dwtag  DW_TAG_loop_range
    3852                      .dwattr DW$309, DW_AT_low_pc(DW$L$_global_sum_array$3$B)
    3853                      .dwattr DW$309, DW_AT_high_pc(DW$L$_global_sum_array$3$E)
    3854              DW$310  .dwtag  DW_TAG_loop_range
    3855                      .dwattr DW$310, DW_AT_low_pc(DW$L$_global_sum_array$4$B)
    3856                      .dwattr DW$310, DW_AT_high_pc(DW$L$_global_sum_array$4$E)
    3857              DW$311  .dwtag  DW_TAG_loop_range
    3858                      .dwattr DW$311, DW_AT_low_pc(DW$L$_global_sum_array$7$B)
    3859                      .dwattr DW$311, DW_AT_high_pc(DW$L$_global_sum_array$7$E)
    3860              DW$312  .dwtag  DW_TAG_loop_range
    3861                      .dwattr DW$312, DW_AT_low_pc(DW$L$_global_sum_array$8$B)
    3862                      .dwattr DW$312, DW_AT_high_pc(DW$L$_global_sum_array$8$E)
    3863              DW$313  .dwtag  DW_TAG_loop_range
    3864                      .dwattr DW$313, DW_AT_low_pc(DW$L$_global_sum_array$9$B)
    3865                      .dwattr DW$313, DW_AT_high_pc(DW$L$_global_sum_array$9$E)
    3866              DW$314  .dwtag  DW_TAG_loop_range
    3867                      .dwattr DW$314, DW_AT_low_pc(DW$L$_global_sum_array$10$B)
    3868                      .dwattr DW$314, DW_AT_high_pc(DW$L$_global_sum_array$10$E)
    3869                      .dwendtag DW$305
    3870              
    3871                      .dwattr DW$295, DW_AT_end_file("src\global.c")
    3872                      .dwattr DW$295, DW_AT_end_line(0x1f9)
    3873                      .dwattr DW$295, DW_AT_end_column(0x01)
    3874                      .dwendentry
    3875                      .dwendtag DW$295
    3876              
    3877 000004c8               .sect   ".text"
    3878                      .global _global_udelay
    3879              
    3880              DW$315  .dwtag  DW_TAG_subprogram, DW_AT_name("global_udelay"), DW_AT_symbol_name("_global_udelay")
    3881                      .dwattr DW$315, DW_AT_low_pc(_global_udelay)
    3882                      .dwattr DW$315, DW_AT_high_pc(0x00)
    3883                      .dwattr DW$315, DW_AT_begin_file("src\global.c")
    3884                      .dwattr DW$315, DW_AT_begin_line(0x203)
    3885                      .dwattr DW$315, DW_AT_begin_column(0x06)
    3886                      .dwpsn  "src\global.c",516,1
    3887              
    3888                      .dwfde DW$CIE
    3889              
TMS320C2000 COFF Assembler PC v4.1.3 Thu Aug 04 16:21:37 2011

Tools Copyright (c) 1996-2006 Texas Instruments Incorporated
C:\DOCUME~1\ADMINI~1\LOCALS~1\Temp\TI8402                            PAGE   74

    3890              ;***************************************************************
    3891              ;* FNAME: _global_udelay                FR SIZE:   4           *
    3892              ;*                                                             *
    3893              ;* FUNCTION ENVIRONMENT                                        *
    3894              ;*                                                             *
    3895              ;* FUNCTION PROPERTIES                                         *
    3896              ;*                            0 Parameter,  3 Auto,  0 SOE     *
    3897              ;***************************************************************
    3898              
    3899              _global_udelay:
    3900                      .dwcfa  0x1d, -2
    3901                      .dwcfa  0x1c, 26, 0
    3902                      .dwcfa  0x09, 40, 26
    3903 000004c8 FE04          ADDB      SP,#4
    3904                      .dwcfa  0x1d, -6
    3905              ;* AL    assigned to _us
    3906              DW$316  .dwtag  DW_TAG_formal_parameter, DW_AT_name("us"), DW_AT_symbol_name("_us")
    3907                      .dwattr DW$316, DW_AT_type(*DW$T$23)
    3908                      .dwattr DW$316, DW_AT_location[DW_OP_reg0]
    3909              DW$317  .dwtag  DW_TAG_variable, DW_AT_name("us"), DW_AT_symbol_name("_us")
    3910                      .dwattr DW$317, DW_AT_type(*DW$T$23)
    3911                      .dwattr DW$317, DW_AT_location[DW_OP_breg20 -1]
    3912              DW$318  .dwtag  DW_TAG_variable, DW_AT_name("t_index"), DW_AT_symbol_name("_t_index")
    3913                      .dwattr DW$318, DW_AT_type(*DW$T$148)
    3914                      .dwattr DW$318, DW_AT_location[DW_OP_breg20 -2]
    3915              DW$319  .dwtag  DW_TAG_variable, DW_AT_name("h_index"), DW_AT_symbol_name("_h_index")
    3916                      .dwattr DW$319, DW_AT_type(*DW$T$148)
    3917                      .dwattr DW$319, DW_AT_location[DW_OP_breg20 -3]
    3918 000004c9 9641          MOV       *-SP[1],AL            ; |516| 
    3919                      .dwpsn  "src\global.c",518,8
    3920 000004ca 2B42          MOV       *-SP[2],#0            ; |518| 
    3921                      .dwpsn  "src\global.c",518,20
    3922 000004cb 9241          MOV       AL,*-SP[1]            ; |518| 
    3923 000004cc 5442          CMP       AL,*-SP[2]            ; |518| 
    3924 000004cd 690E          B         L93,LOS               ; |518| 
    3925                      ; branchcc occurs ; |518| 
    3926              L90:    
    3927              DW$L$_global_udelay$2$B:
    3928                      .dwpsn  "src\global.c",520,9
    3929 000004ce 2B43          MOV       *-SP[3],#0            ; |520| 
    3930                      .dwpsn  "src\global.c",520,21
    3931 000004cf 9243          MOV       AL,*-SP[3]            ; |520| 
    3932 000004d0 5232          CMPB      AL,#50                ; |520| 
    3933 000004d1 6306          B         L92,GEQ               ; |520| 
    3934                      ; branchcc occurs ; |520| 
    3935              DW$L$_global_udelay$2$E:
    3936              L91:    
    3937              DW$L$_global_udelay$3$B:
    3938                      .dwpsn  "src\global.c",522,4
    3939 000004d2 7700          nop
    3940                      .dwpsn  "src\global.c",520,38
    3941 000004d3 0A43          INC       *-SP[3]               ; |520| 
    3942                      .dwpsn  "src\global.c",520,21
    3943 000004d4 9243          MOV       AL,*-SP[3]            ; |520| 
    3944 000004d5 5232          CMPB      AL,#50                ; |520| 
TMS320C2000 COFF Assembler PC v4.1.3 Thu Aug 04 16:21:37 2011

Tools Copyright (c) 1996-2006 Texas Instruments Incorporated
C:\DOCUME~1\ADMINI~1\LOCALS~1\Temp\TI8402                            PAGE   75

    3945 000004d6 64FC          B         L91,LT                ; |520| 
    3946                      ; branchcc occurs ; |520| 
    3947              DW$L$_global_udelay$3$E:
    3948              L92:    
    3949              DW$L$_global_udelay$4$B:
    3950                      .dwpsn  "src\global.c",518,33
    3951 000004d7 0A42          INC       *-SP[2]               ; |518| 
    3952                      .dwpsn  "src\global.c",518,20
    3953 000004d8 9241          MOV       AL,*-SP[1]            ; |518| 
    3954 000004d9 5442          CMP       AL,*-SP[2]            ; |518| 
    3955 000004da 66F4          B         L90,HI                ; |518| 
    3956                      ; branchcc occurs ; |518| 
    3957              DW$L$_global_udelay$4$E:
    3958                      .dwpsn  "src\global.c",525,2
    3959              L93:    
    3960                      .dwpsn  "src\global.c",526,1
    3961 000004db FE84          SUBB      SP,#4
    3962                      .dwcfa  0x1d, -2
    3963 000004dc FF69          SPM       #0
    3964 000004dd 0006          LRETR
    3965                      ; return occurs
    3966              
    3967              DW$320  .dwtag  DW_TAG_loop
    3968                      .dwattr DW$320, DW_AT_name("C:\DOCUME~1\ADMINI~1\LOCALS~1\Temp\TI8402:L90:1:1312446096")
    3969                      .dwattr DW$320, DW_AT_begin_file("src\global.c")
    3970                      .dwattr DW$320, DW_AT_begin_line(0x206)
    3971                      .dwattr DW$320, DW_AT_end_line(0x20c)
    3972              DW$321  .dwtag  DW_TAG_loop_range
    3973                      .dwattr DW$321, DW_AT_low_pc(DW$L$_global_udelay$2$B)
    3974                      .dwattr DW$321, DW_AT_high_pc(DW$L$_global_udelay$2$E)
    3975              DW$322  .dwtag  DW_TAG_loop_range
    3976                      .dwattr DW$322, DW_AT_low_pc(DW$L$_global_udelay$4$B)
    3977                      .dwattr DW$322, DW_AT_high_pc(DW$L$_global_udelay$4$E)
    3978              
    3979              DW$323  .dwtag  DW_TAG_loop
    3980                      .dwattr DW$323, DW_AT_name("C:\DOCUME~1\ADMINI~1\LOCALS~1\Temp\TI8402:L91:2:1312446096")
    3981                      .dwattr DW$323, DW_AT_begin_file("src\global.c")
    3982                      .dwattr DW$323, DW_AT_begin_line(0x208)
    3983                      .dwattr DW$323, DW_AT_end_line(0x20b)
    3984              DW$324  .dwtag  DW_TAG_loop_range
    3985                      .dwattr DW$324, DW_AT_low_pc(DW$L$_global_udelay$3$B)
    3986                      .dwattr DW$324, DW_AT_high_pc(DW$L$_global_udelay$3$E)
    3987                      .dwendtag DW$323
    3988              
    3989                      .dwendtag DW$320
    3990              
    3991                      .dwattr DW$315, DW_AT_end_file("src\global.c")
    3992                      .dwattr DW$315, DW_AT_end_line(0x20e)
    3993                      .dwattr DW$315, DW_AT_end_column(0x01)
    3994                      .dwendentry
    3995                      .dwendtag DW$315
    3996              
    3997 000004de               .sect   ".text"
    3998                      .global _hex_convert_bcd
    3999              
TMS320C2000 COFF Assembler PC v4.1.3 Thu Aug 04 16:21:37 2011

Tools Copyright (c) 1996-2006 Texas Instruments Incorporated
C:\DOCUME~1\ADMINI~1\LOCALS~1\Temp\TI8402                            PAGE   76

    4000              DW$325  .dwtag  DW_TAG_subprogram, DW_AT_name("hex_convert_bcd"), DW_AT_symbol_name("_hex_convert_bcd")
    4001                      .dwattr DW$325, DW_AT_low_pc(_hex_convert_bcd)
    4002                      .dwattr DW$325, DW_AT_high_pc(0x00)
    4003                      .dwattr DW$325, DW_AT_begin_file("src\global.c")
    4004                      .dwattr DW$325, DW_AT_begin_line(0x217)
    4005                      .dwattr DW$325, DW_AT_begin_column(0x07)
    4006                      .dwpsn  "src\global.c",536,1
    4007              
    4008                      .dwfde DW$CIE
    4009              
    4010              ;***************************************************************
    4011              ;* FNAME: _hex_convert_bcd              FR SIZE:   6           *
    4012              ;*                                                             *
    4013              ;* FUNCTION ENVIRONMENT                                        *
    4014              ;*                                                             *
    4015              ;* FUNCTION PROPERTIES                                         *
    4016              ;*                            0 Parameter,  5 Auto,  0 SOE     *
    4017              ;***************************************************************
    4018              
    4019              _hex_convert_bcd:
    4020                      .dwcfa  0x1d, -2
    4021                      .dwcfa  0x1c, 26, 0
    4022                      .dwcfa  0x09, 40, 26
    4023 000004de FE06          ADDB      SP,#6
    4024                      .dwcfa  0x1d, -8
    4025              ;* AL    assigned to _src
    4026              DW$326  .dwtag  DW_TAG_formal_parameter, DW_AT_name("src"), DW_AT_symbol_name("_src")
    4027                      .dwattr DW$326, DW_AT_type(*DW$T$6)
    4028                      .dwattr DW$326, DW_AT_location[DW_OP_reg0]
    4029              ;* AR4   assigned to _bcd_src
    4030              DW$327  .dwtag  DW_TAG_formal_parameter, DW_AT_name("bcd_src"), DW_AT_symbol_name("_bcd_src")
    4031                      .dwattr DW$327, DW_AT_type(*DW$T$25)
    4032                      .dwattr DW$327, DW_AT_location[DW_OP_reg12]
    4033              DW$328  .dwtag  DW_TAG_variable, DW_AT_name("src"), DW_AT_symbol_name("_src")
    4034                      .dwattr DW$328, DW_AT_type(*DW$T$6)
    4035                      .dwattr DW$328, DW_AT_location[DW_OP_breg20 -1]
    4036              DW$329  .dwtag  DW_TAG_variable, DW_AT_name("bcd_src"), DW_AT_symbol_name("_bcd_src")
    4037                      .dwattr DW$329, DW_AT_type(*DW$T$25)
    4038                      .dwattr DW$329, DW_AT_location[DW_OP_breg20 -4]
    4039              DW$330  .dwtag  DW_TAG_variable, DW_AT_name("tmp"), DW_AT_symbol_name("_tmp")
    4040                      .dwattr DW$330, DW_AT_type(*DW$T$6)
    4041                      .dwattr DW$330, DW_AT_location[DW_OP_breg20 -5]
    4042 000004df A844          MOVL      *-SP[4],XAR4          ; |536| 
    4043 000004e0 9641          MOV       *-SP[1],AL            ; |536| 
    4044                      .dwpsn  "src\global.c",537,10
    4045 000004e1 2B45          MOV       *-SP[5],#0            ; |537| 
    4046                      .dwpsn  "src\global.c",538,10
    4047 000004e2 9241          MOV       AL,*-SP[1]            ; |538| 
    4048 000004e3 520A          CMPB      AL,#10                ; |538| 
    4049 000004e4 6808          B         L95,LO                ; |538| 
    4050                      ; branchcc occurs ; |538| 
    4051              L94:    
    4052              DW$L$_hex_convert_bcd$2$B:
    4053                      .dwpsn  "src\global.c",540,3
    4054 000004e5 9A0A          MOVB      AL,#10                ; |540| 
TMS320C2000 COFF Assembler PC v4.1.3 Thu Aug 04 16:21:37 2011

Tools Copyright (c) 1996-2006 Texas Instruments Incorporated
C:\DOCUME~1\ADMINI~1\LOCALS~1\Temp\TI8402                            PAGE   77

    4055 000004e6 7441          SUB       *-SP[1],AL            ; |540| 
    4056                      .dwpsn  "src\global.c",541,3
    4057 000004e7 0845          ADD       *-SP[5],#16           ; |541| 
         000004e8 0010 
    4058                      .dwpsn  "src\global.c",538,10
    4059 000004e9 9241          MOV       AL,*-SP[1]            ; |538| 
    4060 000004ea 520A          CMPB      AL,#10                ; |538| 
    4061 000004eb 67FA          B         L94,HIS               ; |538| 
    4062                      ; branchcc occurs ; |538| 
    4063              DW$L$_hex_convert_bcd$2$E:
    4064              L95:    
    4065                      .dwpsn  "src\global.c",543,2
    4066 000004ec 7245          ADD       *-SP[5],AL            ; |543| 
    4067                      .dwpsn  "src\global.c",544,2
    4068 000004ed 8A44          MOVL      XAR4,*-SP[4]          ; |544| 
    4069 000004ee 9245          MOV       AL,*-SP[5]            ; |544| 
    4070 000004ef 96C4          MOV       *+XAR4[0],AL          ; |544| 
    4071                      .dwpsn  "src\global.c",545,2
    4072                      .dwpsn  "src\global.c",546,1
    4073 000004f0 FE86          SUBB      SP,#6
    4074                      .dwcfa  0x1d, -2
    4075 000004f1 0006          LRETR
    4076                      ; return occurs
    4077              
    4078              DW$331  .dwtag  DW_TAG_loop
    4079                      .dwattr DW$331, DW_AT_name("C:\DOCUME~1\ADMINI~1\LOCALS~1\Temp\TI8402:L94:1:1312446096")
    4080                      .dwattr DW$331, DW_AT_begin_file("src\global.c")
    4081                      .dwattr DW$331, DW_AT_begin_line(0x21a)
    4082                      .dwattr DW$331, DW_AT_end_line(0x21e)
    4083              DW$332  .dwtag  DW_TAG_loop_range
    4084                      .dwattr DW$332, DW_AT_low_pc(DW$L$_hex_convert_bcd$2$B)
    4085                      .dwattr DW$332, DW_AT_high_pc(DW$L$_hex_convert_bcd$2$E)
    4086                      .dwendtag DW$331
    4087              
    4088                      .dwattr DW$325, DW_AT_end_file("src\global.c")
    4089                      .dwattr DW$325, DW_AT_end_line(0x222)
    4090                      .dwattr DW$325, DW_AT_end_column(0x01)
    4091                      .dwendentry
    4092                      .dwendtag DW$325
    4093              
    4094 000004f2               .sect   ".text"
    4095                      .global _bcd_convert_hex
    4096              
    4097              DW$333  .dwtag  DW_TAG_subprogram, DW_AT_name("bcd_convert_hex"), DW_AT_symbol_name("_bcd_convert_hex")
    4098                      .dwattr DW$333, DW_AT_low_pc(_bcd_convert_hex)
    4099                      .dwattr DW$333, DW_AT_high_pc(0x00)
    4100                      .dwattr DW$333, DW_AT_begin_file("src\global.c")
    4101                      .dwattr DW$333, DW_AT_begin_line(0x223)
    4102                      .dwattr DW$333, DW_AT_begin_column(0x07)
    4103                      .dwpsn  "src\global.c",548,1
    4104              
    4105                      .dwfde DW$CIE
    4106              
    4107              ;***************************************************************
    4108              ;* FNAME: _bcd_convert_hex              FR SIZE:   6           *
TMS320C2000 COFF Assembler PC v4.1.3 Thu Aug 04 16:21:37 2011

Tools Copyright (c) 1996-2006 Texas Instruments Incorporated
C:\DOCUME~1\ADMINI~1\LOCALS~1\Temp\TI8402                            PAGE   78

    4109              ;*                                                             *
    4110              ;* FUNCTION ENVIRONMENT                                        *
    4111              ;*                                                             *
    4112              ;* FUNCTION PROPERTIES                                         *
    4113              ;*                            0 Parameter,  5 Auto,  0 SOE     *
    4114              ;***************************************************************
    4115              
    4116              _bcd_convert_hex:
    4117                      .dwcfa  0x1d, -2
    4118                      .dwcfa  0x1c, 26, 0
    4119                      .dwcfa  0x09, 40, 26
    4120 000004f2 FE06          ADDB      SP,#6
    4121                      .dwcfa  0x1d, -8
    4122              ;* AL    assigned to _bcd_src
    4123              DW$334  .dwtag  DW_TAG_formal_parameter, DW_AT_name("bcd_src"), DW_AT_symbol_name("_bcd_src")
    4124                      .dwattr DW$334, DW_AT_type(*DW$T$6)
    4125                      .dwattr DW$334, DW_AT_location[DW_OP_reg0]
    4126              ;* AR4   assigned to _pur_ptr
    4127              DW$335  .dwtag  DW_TAG_formal_parameter, DW_AT_name("pur_ptr"), DW_AT_symbol_name("_pur_ptr")
    4128                      .dwattr DW$335, DW_AT_type(*DW$T$25)
    4129                      .dwattr DW$335, DW_AT_location[DW_OP_reg12]
    4130              DW$336  .dwtag  DW_TAG_variable, DW_AT_name("bcd_src"), DW_AT_symbol_name("_bcd_src")
    4131                      .dwattr DW$336, DW_AT_type(*DW$T$6)
    4132                      .dwattr DW$336, DW_AT_location[DW_OP_breg20 -1]
    4133              DW$337  .dwtag  DW_TAG_variable, DW_AT_name("pur_ptr"), DW_AT_symbol_name("_pur_ptr")
    4134                      .dwattr DW$337, DW_AT_type(*DW$T$25)
    4135                      .dwattr DW$337, DW_AT_location[DW_OP_breg20 -4]
    4136              DW$338  .dwtag  DW_TAG_variable, DW_AT_name("tmp"), DW_AT_symbol_name("_tmp")
    4137                      .dwattr DW$338, DW_AT_type(*DW$T$6)
    4138                      .dwattr DW$338, DW_AT_location[DW_OP_breg20 -5]
    4139 000004f3 A844          MOVL      *-SP[4],XAR4          ; |548| 
    4140 000004f4 9641          MOV       *-SP[1],AL            ; |548| 
    4141                      .dwpsn  "src\global.c",549,10
    4142 000004f5 2B45          MOV       *-SP[5],#0            ; |549| 
    4143                      .dwpsn  "src\global.c",550,10
    4144 000004f6 9241          MOV       AL,*-SP[1]            ; |550| 
    4145 000004f7 5210          CMPB      AL,#16                ; |550| 
    4146 000004f8 6808          B         L97,LO                ; |550| 
    4147                      ; branchcc occurs ; |550| 
    4148              L96:    
    4149              DW$L$_bcd_convert_hex$2$B:
    4150                      .dwpsn  "src\global.c",552,3
    4151 000004f9 9A10          MOVB      AL,#16                ; |552| 
    4152 000004fa 7441          SUB       *-SP[1],AL            ; |552| 
    4153                      .dwpsn  "src\global.c",553,3
    4154 000004fb 0845          ADD       *-SP[5],#10           ; |553| 
         000004fc 000A 
    4155                      .dwpsn  "src\global.c",550,10
    4156 000004fd 9241          MOV       AL,*-SP[1]            ; |550| 
    4157 000004fe 5210          CMPB      AL,#16                ; |550| 
    4158 000004ff 67FA          B         L96,HIS               ; |550| 
    4159                      ; branchcc occurs ; |550| 
    4160              DW$L$_bcd_convert_hex$2$E:
    4161              L97:    
    4162                      .dwpsn  "src\global.c",555,2
TMS320C2000 COFF Assembler PC v4.1.3 Thu Aug 04 16:21:37 2011

Tools Copyright (c) 1996-2006 Texas Instruments Incorporated
C:\DOCUME~1\ADMINI~1\LOCALS~1\Temp\TI8402                            PAGE   79

    4163 00000500 7245          ADD       *-SP[5],AL            ; |555| 
    4164                      .dwpsn  "src\global.c",556,2
    4165 00000501 8A44          MOVL      XAR4,*-SP[4]          ; |556| 
    4166 00000502 9245          MOV       AL,*-SP[5]            ; |556| 
    4167 00000503 96C4          MOV       *+XAR4[0],AL          ; |556| 
    4168                      .dwpsn  "src\global.c",557,2
    4169                      .dwpsn  "src\global.c",558,1
    4170 00000504 FE86          SUBB      SP,#6
    4171                      .dwcfa  0x1d, -2
    4172 00000505 0006          LRETR
    4173                      ; return occurs
    4174              
    4175              DW$339  .dwtag  DW_TAG_loop
    4176                      .dwattr DW$339, DW_AT_name("C:\DOCUME~1\ADMINI~1\LOCALS~1\Temp\TI8402:L96:1:1312446096")
    4177                      .dwattr DW$339, DW_AT_begin_file("src\global.c")
    4178                      .dwattr DW$339, DW_AT_begin_line(0x226)
    4179                      .dwattr DW$339, DW_AT_end_line(0x22a)
    4180              DW$340  .dwtag  DW_TAG_loop_range
    4181                      .dwattr DW$340, DW_AT_low_pc(DW$L$_bcd_convert_hex$2$B)
    4182                      .dwattr DW$340, DW_AT_high_pc(DW$L$_bcd_convert_hex$2$E)
    4183                      .dwendtag DW$339
    4184              
    4185                      .dwattr DW$333, DW_AT_end_file("src\global.c")
    4186                      .dwattr DW$333, DW_AT_end_line(0x22e)
    4187                      .dwattr DW$333, DW_AT_end_column(0x01)
    4188                      .dwendentry
    4189                      .dwendtag DW$333
    4190              
    4191 00000506               .sect   ".text"
    4192                      .global _global_NtoC
    4193              
    4194              DW$341  .dwtag  DW_TAG_subprogram, DW_AT_name("global_NtoC"), DW_AT_symbol_name("_global_NtoC")
    4195                      .dwattr DW$341, DW_AT_low_pc(_global_NtoC)
    4196                      .dwattr DW$341, DW_AT_high_pc(0x00)
    4197                      .dwattr DW$341, DW_AT_begin_file("src\global.c")
    4198                      .dwattr DW$341, DW_AT_begin_line(0x236)
    4199                      .dwattr DW$341, DW_AT_begin_column(0x06)
    4200                      .dwpsn  "src\global.c",567,1
    4201              
    4202                      .dwfde DW$CIE
    4203              
    4204              ;***************************************************************
    4205              ;* FNAME: _global_NtoC                  FR SIZE:   2           *
    4206              ;*                                                             *
    4207              ;* FUNCTION ENVIRONMENT                                        *
    4208              ;*                                                             *
    4209              ;* FUNCTION PROPERTIES                                         *
    4210              ;*                            0 Parameter,  1 Auto,  0 SOE     *
    4211              ;***************************************************************
    4212              
    4213              _global_NtoC:
    4214                      .dwcfa  0x1d, -2
    4215                      .dwcfa  0x1c, 26, 0
    4216                      .dwcfa  0x09, 40, 26
    4217 00000506 FE02          ADDB      SP,#2
TMS320C2000 COFF Assembler PC v4.1.3 Thu Aug 04 16:21:37 2011

Tools Copyright (c) 1996-2006 Texas Instruments Incorporated
C:\DOCUME~1\ADMINI~1\LOCALS~1\Temp\TI8402                            PAGE   80

    4218                      .dwcfa  0x1d, -4
    4219              ;* AL    assigned to _num
    4220              DW$342  .dwtag  DW_TAG_formal_parameter, DW_AT_name("num"), DW_AT_symbol_name("_num")
    4221                      .dwattr DW$342, DW_AT_type(*DW$T$6)
    4222                      .dwattr DW$342, DW_AT_location[DW_OP_reg0]
    4223              DW$343  .dwtag  DW_TAG_variable, DW_AT_name("num"), DW_AT_symbol_name("_num")
    4224                      .dwattr DW$343, DW_AT_type(*DW$T$6)
    4225                      .dwattr DW$343, DW_AT_location[DW_OP_breg20 -1]
    4226 00000507 9641          MOV       *-SP[1],AL            ; |567| 
    4227                      .dwpsn  "src\global.c",568,2
    4228 00000508 5209          CMPB      AL,#9                 ; |568| 
    4229 00000509 6903          B         L98,LOS               ; |568| 
    4230                      ; branchcc occurs ; |568| 
    4231                      .dwpsn  "src\global.c",570,3
    4232 0000050a 9AFF          MOVB      AL,#255               ; |570| 
    4233 0000050b 6F02          B         L99,UNC               ; |570| 
    4234                      ; branch occurs ; |570| 
    4235              L98:    
    4236                      .dwpsn  "src\global.c",572,2
    4237 0000050c 9C30          ADDB      AL,#48                ; |572| 
    4238              L99:    
    4239                      .dwpsn  "src\global.c",573,1
    4240 0000050d FE82          SUBB      SP,#2                 ; |572| 
    4241                      .dwcfa  0x1d, -2
    4242 0000050e 0006          LRETR
    4243                      ; return occurs
    4244                      .dwattr DW$341, DW_AT_end_file("src\global.c")
    4245                      .dwattr DW$341, DW_AT_end_line(0x23d)
    4246                      .dwattr DW$341, DW_AT_end_column(0x01)
    4247                      .dwendentry
    4248                      .dwendtag DW$341
    4249              
    4250 0000050f               .sect   ".text"
    4251                      .global _global_CtoN
    4252              
    4253              DW$344  .dwtag  DW_TAG_subprogram, DW_AT_name("global_CtoN"), DW_AT_symbol_name("_global_CtoN")
    4254                      .dwattr DW$344, DW_AT_low_pc(_global_CtoN)
    4255                      .dwattr DW$344, DW_AT_high_pc(0x00)
    4256                      .dwattr DW$344, DW_AT_begin_file("src\global.c")
    4257                      .dwattr DW$344, DW_AT_begin_line(0x245)
    4258                      .dwattr DW$344, DW_AT_begin_column(0x09)
    4259                      .dwpsn  "src\global.c",582,1
    4260              
    4261                      .dwfde DW$CIE
    4262              
    4263              ;***************************************************************
    4264              ;* FNAME: _global_CtoN                  FR SIZE:   2           *
    4265              ;*                                                             *
    4266              ;* FUNCTION ENVIRONMENT                                        *
    4267              ;*                                                             *
    4268              ;* FUNCTION PROPERTIES                                         *
    4269              ;*                            0 Parameter,  1 Auto,  0 SOE     *
    4270              ;***************************************************************
    4271              
    4272              _global_CtoN:
TMS320C2000 COFF Assembler PC v4.1.3 Thu Aug 04 16:21:37 2011

Tools Copyright (c) 1996-2006 Texas Instruments Incorporated
C:\DOCUME~1\ADMINI~1\LOCALS~1\Temp\TI8402                            PAGE   81

    4273                      .dwcfa  0x1d, -2
    4274                      .dwcfa  0x1c, 26, 0
    4275                      .dwcfa  0x09, 40, 26
    4276 0000050f FE02          ADDB      SP,#2
    4277                      .dwcfa  0x1d, -4
    4278              ;* AL    assigned to _num
    4279              DW$345  .dwtag  DW_TAG_formal_parameter, DW_AT_name("num"), DW_AT_symbol_name("_num")
    4280                      .dwattr DW$345, DW_AT_type(*DW$T$81)
    4281                      .dwattr DW$345, DW_AT_location[DW_OP_reg0]
    4282              DW$346  .dwtag  DW_TAG_variable, DW_AT_name("num"), DW_AT_symbol_name("_num")
    4283                      .dwattr DW$346, DW_AT_type(*DW$T$81)
    4284                      .dwattr DW$346, DW_AT_location[DW_OP_breg20 -1]
    4285 00000510 9641          MOV       *-SP[1],AL            ; |582| 
    4286                      .dwpsn  "src\global.c",583,2
    4287 00000511 5230          CMPB      AL,#48                ; |583| 
    4288 00000512 6405          B         L100,LT               ; |583| 
    4289                      ; branchcc occurs ; |583| 
    4290 00000513 5239          CMPB      AL,#57                ; |583| 
    4291 00000514 6203          B         L100,GT               ; |583| 
    4292                      ; branchcc occurs ; |583| 
    4293                      .dwpsn  "src\global.c",585,3
    4294 00000515 9CD0          ADDB      AL,#-48
    4295 00000516 6F02          B         L101,UNC              ; |585| 
    4296                      ; branch occurs ; |585| 
    4297              L100:    
    4298                      .dwpsn  "src\global.c",587,2
    4299 00000517 9AFF          MOVB      AL,#255               ; |587| 
    4300              L101:    
    4301                      .dwpsn  "src\global.c",588,1
    4302 00000518 FE82          SUBB      SP,#2                 ; |587| 
    4303                      .dwcfa  0x1d, -2
    4304 00000519 0006          LRETR
    4305                      ; return occurs
    4306                      .dwattr DW$344, DW_AT_end_file("src\global.c")
    4307                      .dwattr DW$344, DW_AT_end_line(0x24c)
    4308                      .dwattr DW$344, DW_AT_end_column(0x01)
    4309                      .dwendentry
    4310                      .dwendtag DW$344
    4311              
    4312 0000051a               .sect   ".text"
    4313                      .global _global_decide_num
    4314              
    4315              DW$347  .dwtag  DW_TAG_subprogram, DW_AT_name("global_decide_num"), DW_AT_symbol_name("_global_decide_num")
    4316                      .dwattr DW$347, DW_AT_low_pc(_global_decide_num)
    4317                      .dwattr DW$347, DW_AT_high_pc(0x00)
    4318                      .dwattr DW$347, DW_AT_begin_file("src\global.c")
    4319                      .dwattr DW$347, DW_AT_begin_line(0x254)
    4320                      .dwattr DW$347, DW_AT_begin_column(0x07)
    4321                      .dwpsn  "src\global.c",597,1
    4322              
    4323                      .dwfde DW$CIE
    4324              
    4325              ;***************************************************************
    4326              ;* FNAME: _global_decide_num            FR SIZE:   2           *
    4327              ;*                                                             *
TMS320C2000 COFF Assembler PC v4.1.3 Thu Aug 04 16:21:37 2011

Tools Copyright (c) 1996-2006 Texas Instruments Incorporated
C:\DOCUME~1\ADMINI~1\LOCALS~1\Temp\TI8402                            PAGE   82

    4328              ;* FUNCTION ENVIRONMENT                                        *
    4329              ;*                                                             *
    4330              ;* FUNCTION PROPERTIES                                         *
    4331              ;*                            0 Parameter,  1 Auto,  0 SOE     *
    4332              ;***************************************************************
    4333              
    4334              _global_decide_num:
    4335                      .dwcfa  0x1d, -2
    4336                      .dwcfa  0x1c, 26, 0
    4337                      .dwcfa  0x09, 40, 26
    4338 0000051a FE02          ADDB      SP,#2
    4339                      .dwcfa  0x1d, -4
    4340              ;* AL    assigned to _asc
    4341              DW$348  .dwtag  DW_TAG_formal_parameter, DW_AT_name("asc"), DW_AT_symbol_name("_asc")
    4342                      .dwattr DW$348, DW_AT_type(*DW$T$81)
    4343                      .dwattr DW$348, DW_AT_location[DW_OP_reg0]
    4344              DW$349  .dwtag  DW_TAG_variable, DW_AT_name("asc"), DW_AT_symbol_name("_asc")
    4345                      .dwattr DW$349, DW_AT_type(*DW$T$81)
    4346                      .dwattr DW$349, DW_AT_location[DW_OP_breg20 -1]
    4347 0000051b 9641          MOV       *-SP[1],AL            ; |597| 
    4348                      .dwpsn  "src\global.c",598,2
    4349 0000051c 9A00          MOVB      AL,#0
    4350 0000051d 9341          MOV       AH,*-SP[1]            ; |598| 
    4351 0000051e 5330          CMPB      AH,#48                ; |598| 
    4352 0000051f 6404          B         L102,LT               ; |598| 
    4353                      ; branchcc occurs ; |598| 
    4354 00000520 5339          CMPB      AH,#57                ; |598| 
    4355 00000521 6202          B         L102,GT               ; |598| 
    4356                      ; branchcc occurs ; |598| 
    4357 00000522 9A01          MOVB      AL,#1                 ; |598| 
    4358              L102:    
    4359                      .dwpsn  "src\global.c",599,1
    4360 00000523 FE82          SUBB      SP,#2                 ; |598| 
    4361                      .dwcfa  0x1d, -2
    4362 00000524 0006          LRETR
    4363                      ; return occurs
    4364                      .dwattr DW$347, DW_AT_end_file("src\global.c")
    4365                      .dwattr DW$347, DW_AT_end_line(0x257)
    4366                      .dwattr DW$347, DW_AT_end_column(0x01)
    4367                      .dwendentry
    4368                      .dwendtag DW$347
    4369              
    4370 00000525               .sect   ".text"
    4371                      .global _global_decide_letter
    4372              
    4373              DW$350  .dwtag  DW_TAG_subprogram, DW_AT_name("global_decide_letter"), DW_AT_symbol_name("_global_decide_lett
    4374                      .dwattr DW$350, DW_AT_low_pc(_global_decide_letter)
    4375                      .dwattr DW$350, DW_AT_high_pc(0x00)
    4376                      .dwattr DW$350, DW_AT_begin_file("src\global.c")
    4377                      .dwattr DW$350, DW_AT_begin_line(0x262)
    4378                      .dwattr DW$350, DW_AT_begin_column(0x09)
    4379                      .dwpsn  "src\global.c",611,1
    4380              
    4381                      .dwfde DW$CIE
    4382              
TMS320C2000 COFF Assembler PC v4.1.3 Thu Aug 04 16:21:37 2011

Tools Copyright (c) 1996-2006 Texas Instruments Incorporated
C:\DOCUME~1\ADMINI~1\LOCALS~1\Temp\TI8402                            PAGE   83

    4383              ;***************************************************************
    4384              ;* FNAME: _global_decide_letter         FR SIZE:   2           *
    4385              ;*                                                             *
    4386              ;* FUNCTION ENVIRONMENT                                        *
    4387              ;*                                                             *
    4388              ;* FUNCTION PROPERTIES                                         *
    4389              ;*                            0 Parameter,  2 Auto,  0 SOE     *
    4390              ;***************************************************************
    4391              
    4392              _global_decide_letter:
    4393                      .dwcfa  0x1d, -2
    4394                      .dwcfa  0x1c, 26, 0
    4395                      .dwcfa  0x09, 40, 26
    4396 00000525 FE02          ADDB      SP,#2
    4397                      .dwcfa  0x1d, -4
    4398              ;* AL    assigned to _asc
    4399              DW$351  .dwtag  DW_TAG_formal_parameter, DW_AT_name("asc"), DW_AT_symbol_name("_asc")
    4400                      .dwattr DW$351, DW_AT_type(*DW$T$81)
    4401                      .dwattr DW$351, DW_AT_location[DW_OP_reg0]
    4402              DW$352  .dwtag  DW_TAG_variable, DW_AT_name("asc"), DW_AT_symbol_name("_asc")
    4403                      .dwattr DW$352, DW_AT_type(*DW$T$81)
    4404                      .dwattr DW$352, DW_AT_location[DW_OP_breg20 -1]
    4405              DW$353  .dwtag  DW_TAG_variable, DW_AT_name("ret"), DW_AT_symbol_name("_ret")
    4406                      .dwattr DW$353, DW_AT_type(*DW$T$23)
    4407                      .dwattr DW$353, DW_AT_location[DW_OP_breg20 -2]
    4408 00000526 9641          MOV       *-SP[1],AL            ; |611| 
    4409                      .dwpsn  "src\global.c",612,10
    4410 00000527 2B42          MOV       *-SP[2],#0            ; |612| 
    4411                      .dwpsn  "src\global.c",613,2
    4412 00000528 9241          MOV       AL,*-SP[1]            ; |613| 
    4413 00000529 5241          CMPB      AL,#65                ; |613| 
    4414 0000052a 6406          B         L103,LT               ; |613| 
    4415                      ; branchcc occurs ; |613| 
    4416 0000052b 525A          CMPB      AL,#90                ; |613| 
    4417 0000052c 6204          B         L103,GT               ; |613| 
    4418                      ; branchcc occurs ; |613| 
    4419                      .dwpsn  "src\global.c",615,3
    4420 0000052d 2842          MOV       *-SP[2],#2            ; |615| 
         0000052e 0002 
    4421                      .dwpsn  "src\global.c",616,2
    4422 0000052f 6F09          B         L105,UNC              ; |616| 
    4423                      ; branch occurs ; |616| 
    4424              L103:    
    4425                      .dwpsn  "src\global.c",617,8
    4426 00000530 5261          CMPB      AL,#97                ; |617| 
    4427 00000531 6406          B         L104,LT               ; |617| 
    4428                      ; branchcc occurs ; |617| 
    4429 00000532 527A          CMPB      AL,#122               ; |617| 
    4430 00000533 6204          B         L104,GT               ; |617| 
    4431                      ; branchcc occurs ; |617| 
    4432                      .dwpsn  "src\global.c",619,3
    4433 00000534 2842          MOV       *-SP[2],#1            ; |619| 
         00000535 0001 
    4434                      .dwpsn  "src\global.c",620,2
    4435 00000536 6F02          B         L105,UNC              ; |620| 
TMS320C2000 COFF Assembler PC v4.1.3 Thu Aug 04 16:21:37 2011

Tools Copyright (c) 1996-2006 Texas Instruments Incorporated
C:\DOCUME~1\ADMINI~1\LOCALS~1\Temp\TI8402                            PAGE   84

    4436                      ; branch occurs ; |620| 
    4437              L104:    
    4438                      .dwpsn  "src\global.c",623,3
    4439 00000537 2B42          MOV       *-SP[2],#0            ; |623| 
    4440              L105:    
    4441                      .dwpsn  "src\global.c",625,2
    4442 00000538 9242          MOV       AL,*-SP[2]            ; |625| 
    4443                      .dwpsn  "src\global.c",626,1
    4444 00000539 FE82          SUBB      SP,#2                 ; |625| 
    4445                      .dwcfa  0x1d, -2
    4446 0000053a 0006          LRETR
    4447                      ; return occurs
    4448                      .dwattr DW$350, DW_AT_end_file("src\global.c")
    4449                      .dwattr DW$350, DW_AT_end_line(0x272)
    4450                      .dwattr DW$350, DW_AT_end_column(0x01)
    4451                      .dwendentry
    4452                      .dwendtag DW$350
    4453              
    4454 0000053b               .sect   ".text"
    4455                      .global _global_switch_letter_module
    4456              
    4457              DW$354  .dwtag  DW_TAG_subprogram, DW_AT_name("global_switch_letter_module"), DW_AT_symbol_name("_global_swit
    4458                      .dwattr DW$354, DW_AT_low_pc(_global_switch_letter_module)
    4459                      .dwattr DW$354, DW_AT_high_pc(0x00)
    4460                      .dwattr DW$354, DW_AT_begin_file("src\global.c")
    4461                      .dwattr DW$354, DW_AT_begin_line(0x27b)
    4462                      .dwattr DW$354, DW_AT_begin_column(0x09)
    4463                      .dwpsn  "src\global.c",636,1
    4464              
    4465                      .dwfde DW$CIE
    4466              
    4467              ;***************************************************************
    4468              ;* FNAME: _global_switch_letter_module  FR SIZE:   4           *
    4469              ;*                                                             *
    4470              ;* FUNCTION ENVIRONMENT                                        *
    4471              ;*                                                             *
    4472              ;* FUNCTION PROPERTIES                                         *
    4473              ;*                            0 Parameter,  3 Auto,  0 SOE     *
    4474              ;***************************************************************
    4475              
    4476              _global_switch_letter_module:
    4477                      .dwcfa  0x1d, -2
    4478                      .dwcfa  0x1c, 26, 0
    4479                      .dwcfa  0x09, 40, 26
    4480 0000053b FE04          ADDB      SP,#4
    4481                      .dwcfa  0x1d, -6
    4482              ;* AL    assigned to _asc
    4483              DW$355  .dwtag  DW_TAG_formal_parameter, DW_AT_name("asc"), DW_AT_symbol_name("_asc")
    4484                      .dwattr DW$355, DW_AT_type(*DW$T$81)
    4485                      .dwattr DW$355, DW_AT_location[DW_OP_reg0]
    4486              DW$356  .dwtag  DW_TAG_variable, DW_AT_name("asc"), DW_AT_symbol_name("_asc")
    4487                      .dwattr DW$356, DW_AT_type(*DW$T$81)
    4488                      .dwattr DW$356, DW_AT_location[DW_OP_breg20 -1]
    4489              DW$357  .dwtag  DW_TAG_variable, DW_AT_name("type"), DW_AT_symbol_name("_type")
    4490                      .dwattr DW$357, DW_AT_type(*DW$T$23)
TMS320C2000 COFF Assembler PC v4.1.3 Thu Aug 04 16:21:37 2011

Tools Copyright (c) 1996-2006 Texas Instruments Incorporated
C:\DOCUME~1\ADMINI~1\LOCALS~1\Temp\TI8402                            PAGE   85

    4491                      .dwattr DW$357, DW_AT_location[DW_OP_breg20 -2]
    4492              DW$358  .dwtag  DW_TAG_variable, DW_AT_name("gap"), DW_AT_symbol_name("_gap")
    4493                      .dwattr DW$358, DW_AT_type(*DW$T$6)
    4494                      .dwattr DW$358, DW_AT_location[DW_OP_breg20 -3]
    4495 0000053c 9641          MOV       *-SP[1],AL            ; |636| 
    4496                      .dwpsn  "src\global.c",638,10
    4497 0000053d 2843          MOV       *-SP[3],#32           ; |638| 
         0000053e 0020 
    4498                      .dwpsn  "src\global.c",639,2
    4499 0000053f 9241          MOV       AL,*-SP[1]            ; |639| 
    4500 00000540 7640'         LCR       #_global_decide_letter ; |639| 
         00000541 0525 
    4501                      ; call occurs [#_global_decide_letter] ; |639| 
    4502 00000542 9642          MOV       *-SP[2],AL            ; |639| 
    4503                      .dwpsn  "src\global.c",640,2
    4504 00000543 5202          CMPB      AL,#2                 ; |640| 
    4505 00000544 ED04          BF        L106,NEQ              ; |640| 
    4506                      ; branchcc occurs ; |640| 
    4507                      .dwpsn  "src\global.c",642,3
    4508 00000545 9241          MOV       AL,*-SP[1]            ; |642| 
    4509 00000546 9443          ADD       AL,*-SP[3]            ; |642| 
    4510 00000547 6F07          B         L108,UNC              ; |642| 
    4511                      ; branch occurs ; |642| 
    4512              L106:    
    4513                      .dwpsn  "src\global.c",644,7
    4514 00000548 5201          CMPB      AL,#1                 ; |644| 
    4515 00000549 ED04          BF        L107,NEQ              ; |644| 
    4516                      ; branchcc occurs ; |644| 
    4517                      .dwpsn  "src\global.c",646,3
    4518 0000054a 9241          MOV       AL,*-SP[1]            ; |646| 
    4519 0000054b 9E43          SUB       AL,*-SP[3]            ; |646| 
    4520 0000054c 6F02          B         L108,UNC              ; |646| 
    4521                      ; branch occurs ; |646| 
    4522              L107:    
    4523                      .dwpsn  "src\global.c",648,2
    4524 0000054d 9241          MOV       AL,*-SP[1]            ; |648| 
    4525              L108:    
    4526                      .dwpsn  "src\global.c",649,1
    4527 0000054e FE84          SUBB      SP,#4                 ; |648| 
    4528                      .dwcfa  0x1d, -2
    4529 0000054f 0006          LRETR
    4530                      ; return occurs
    4531                      .dwattr DW$354, DW_AT_end_file("src\global.c")
    4532                      .dwattr DW$354, DW_AT_end_line(0x289)
    4533                      .dwattr DW$354, DW_AT_end_column(0x01)
    4534                      .dwendentry
    4535                      .dwendtag DW$354
    4536              
    4537 00000550               .sect   ".text"
    4538                      .global _global_adjust_letter_module
    4539              
    4540              DW$359  .dwtag  DW_TAG_subprogram, DW_AT_name("global_adjust_letter_module"), DW_AT_symbol_name("_global_adju
    4541                      .dwattr DW$359, DW_AT_low_pc(_global_adjust_letter_module)
    4542                      .dwattr DW$359, DW_AT_high_pc(0x00)
    4543                      .dwattr DW$359, DW_AT_begin_file("src\global.c")
TMS320C2000 COFF Assembler PC v4.1.3 Thu Aug 04 16:21:37 2011

Tools Copyright (c) 1996-2006 Texas Instruments Incorporated
C:\DOCUME~1\ADMINI~1\LOCALS~1\Temp\TI8402                            PAGE   86

    4544                      .dwattr DW$359, DW_AT_begin_line(0x291)
    4545                      .dwattr DW$359, DW_AT_begin_column(0x09)
    4546                      .dwpsn  "src\global.c",658,1
    4547              
    4548                      .dwfde DW$CIE
    4549              
    4550              ;***************************************************************
    4551              ;* FNAME: _global_adjust_letter_module  FR SIZE:   2           *
    4552              ;*                                                             *
    4553              ;* FUNCTION ENVIRONMENT                                        *
    4554              ;*                                                             *
    4555              ;* FUNCTION PROPERTIES                                         *
    4556              ;*                            0 Parameter,  2 Auto,  0 SOE     *
    4557              ;***************************************************************
    4558              
    4559              _global_adjust_letter_module:
    4560                      .dwcfa  0x1d, -2
    4561                      .dwcfa  0x1c, 26, 0
    4562                      .dwcfa  0x09, 40, 26
    4563 00000550 FE02          ADDB      SP,#2
    4564                      .dwcfa  0x1d, -4
    4565              ;* AL    assigned to _asc
    4566              DW$360  .dwtag  DW_TAG_formal_parameter, DW_AT_name("asc"), DW_AT_symbol_name("_asc")
    4567                      .dwattr DW$360, DW_AT_type(*DW$T$81)
    4568                      .dwattr DW$360, DW_AT_location[DW_OP_reg0]
    4569              ;* AH    assigned to _type
    4570              DW$361  .dwtag  DW_TAG_formal_parameter, DW_AT_name("type"), DW_AT_symbol_name("_type")
    4571                      .dwattr DW$361, DW_AT_type(*DW$T$6)
    4572                      .dwattr DW$361, DW_AT_location[DW_OP_reg1]
    4573              DW$362  .dwtag  DW_TAG_variable, DW_AT_name("asc"), DW_AT_symbol_name("_asc")
    4574                      .dwattr DW$362, DW_AT_type(*DW$T$81)
    4575                      .dwattr DW$362, DW_AT_location[DW_OP_breg20 -1]
    4576              DW$363  .dwtag  DW_TAG_variable, DW_AT_name("type"), DW_AT_symbol_name("_type")
    4577                      .dwattr DW$363, DW_AT_type(*DW$T$6)
    4578                      .dwattr DW$363, DW_AT_location[DW_OP_breg20 -2]
    4579 00000551 9742          MOV       *-SP[2],AH            ; |658| 
    4580 00000552 9641          MOV       *-SP[1],AL            ; |658| 
    4581                      .dwpsn  "src\global.c",659,2
    4582 00000553 7640'         LCR       #_global_decide_letter ; |659| 
         00000554 0525 
    4583                      ; call occurs [#_global_decide_letter] ; |659| 
    4584 00000555 5200          CMPB      AL,#0                 ; |659| 
    4585 00000556 ED03          BF        L109,NEQ              ; |659| 
    4586                      ; branchcc occurs ; |659| 
    4587                      .dwpsn  "src\global.c",661,3
    4588 00000557 9241          MOV       AL,*-SP[1]            ; |661| 
    4589 00000558 6F0B          B         L111,UNC              ; |661| 
    4590                      ; branch occurs ; |661| 
    4591              L109:    
    4592                      .dwpsn  "src\global.c",663,2
    4593 00000559 9241          MOV       AL,*-SP[1]            ; |663| 
    4594 0000055a 7640'         LCR       #_global_decide_letter ; |663| 
         0000055b 0525 
    4595                      ; call occurs [#_global_decide_letter] ; |663| 
    4596 0000055c 5442          CMP       AL,*-SP[2]            ; |663| 
TMS320C2000 COFF Assembler PC v4.1.3 Thu Aug 04 16:21:37 2011

Tools Copyright (c) 1996-2006 Texas Instruments Incorporated
C:\DOCUME~1\ADMINI~1\LOCALS~1\Temp\TI8402                            PAGE   87

    4597 0000055d ED03          BF        L110,NEQ              ; |663| 
    4598                      ; branchcc occurs ; |663| 
    4599                      .dwpsn  "src\global.c",665,3
    4600 0000055e 9241          MOV       AL,*-SP[1]            ; |665| 
    4601 0000055f 6F04          B         L111,UNC              ; |665| 
    4602                      ; branch occurs ; |665| 
    4603              L110:    
    4604                      .dwpsn  "src\global.c",667,2
    4605 00000560 9241          MOV       AL,*-SP[1]            ; |667| 
    4606 00000561 7640'         LCR       #_global_switch_letter_module ; |667| 
         00000562 053B 
    4607                      ; call occurs [#_global_switch_letter_module] ; |667| 
    4608              L111:    
    4609                      .dwpsn  "src\global.c",668,1
    4610 00000563 FE82          SUBB      SP,#2                 ; |667| 
    4611                      .dwcfa  0x1d, -2
    4612 00000564 0006          LRETR
    4613                      ; return occurs
    4614                      .dwattr DW$359, DW_AT_end_file("src\global.c")
    4615                      .dwattr DW$359, DW_AT_end_line(0x29c)
    4616                      .dwattr DW$359, DW_AT_end_column(0x01)
    4617                      .dwendentry
    4618                      .dwendtag DW$359
    4619              
    4620 00000565               .sect   ".text"
    4621                      .global _global_float_putoff_point
    4622              
    4623              DW$364  .dwtag  DW_TAG_subprogram, DW_AT_name("global_float_putoff_point"), DW_AT_symbol_name("_global_float_
    4624                      .dwattr DW$364, DW_AT_low_pc(_global_float_putoff_point)
    4625                      .dwattr DW$364, DW_AT_high_pc(0x00)
    4626                      .dwattr DW$364, DW_AT_begin_file("src\global.c")
    4627                      .dwattr DW$364, DW_AT_begin_line(0x2a5)
    4628                      .dwattr DW$364, DW_AT_begin_column(0x06)
    4629                      .dwpsn  "src\global.c",678,1
    4630              
    4631                      .dwfde DW$CIE
    4632              
    4633              ;***************************************************************
    4634              ;* FNAME: _global_float_putoff_point    FR SIZE:   8           *
    4635              ;*                                                             *
    4636              ;* FUNCTION ENVIRONMENT                                        *
    4637              ;*                                                             *
    4638              ;* FUNCTION PROPERTIES                                         *
    4639              ;*                            2 Parameter,  6 Auto,  0 SOE     *
    4640              ;***************************************************************
    4641              
    4642              _global_float_putoff_point:
    4643                      .dwcfa  0x1d, -2
    4644                      .dwcfa  0x1c, 26, 0
    4645                      .dwcfa  0x09, 40, 26
    4646 00000565 FE08          ADDB      SP,#8
    4647                      .dwcfa  0x1d, -10
    4648              ;* AL    assigned to _fsrc
    4649              DW$365  .dwtag  DW_TAG_formal_parameter, DW_AT_name("fsrc"), DW_AT_symbol_name("_fsrc")
    4650                      .dwattr DW$365, DW_AT_type(*DW$T$16)
TMS320C2000 COFF Assembler PC v4.1.3 Thu Aug 04 16:21:37 2011

Tools Copyright (c) 1996-2006 Texas Instruments Incorporated
C:\DOCUME~1\ADMINI~1\LOCALS~1\Temp\TI8402                            PAGE   88

    4651                      .dwattr DW$365, DW_AT_location[DW_OP_reg0]
    4652              ;* AR4   assigned to _plong
    4653              DW$366  .dwtag  DW_TAG_formal_parameter, DW_AT_name("plong"), DW_AT_symbol_name("_plong")
    4654                      .dwattr DW$366, DW_AT_type(*DW$T$92)
    4655                      .dwattr DW$366, DW_AT_location[DW_OP_reg12]
    4656              ;* AR5   assigned to _ppoint
    4657              DW$367  .dwtag  DW_TAG_formal_parameter, DW_AT_name("ppoint"), DW_AT_symbol_name("_ppoint")
    4658                      .dwattr DW$367, DW_AT_type(*DW$T$93)
    4659                      .dwattr DW$367, DW_AT_location[DW_OP_reg14]
    4660              DW$368  .dwtag  DW_TAG_variable, DW_AT_name("fsrc"), DW_AT_symbol_name("_fsrc")
    4661                      .dwattr DW$368, DW_AT_type(*DW$T$16)
    4662                      .dwattr DW$368, DW_AT_location[DW_OP_breg20 -4]
    4663              DW$369  .dwtag  DW_TAG_variable, DW_AT_name("plong"), DW_AT_symbol_name("_plong")
    4664                      .dwattr DW$369, DW_AT_type(*DW$T$92)
    4665                      .dwattr DW$369, DW_AT_location[DW_OP_breg20 -6]
    4666              DW$370  .dwtag  DW_TAG_variable, DW_AT_name("ppoint"), DW_AT_symbol_name("_ppoint")
    4667                      .dwattr DW$370, DW_AT_type(*DW$T$93)
    4668                      .dwattr DW$370, DW_AT_location[DW_OP_breg20 -8]
    4669 00000566 A048          MOVL      *-SP[8],XAR5          ; |678| 
    4670 00000567 A846          MOVL      *-SP[6],XAR4          ; |678| 
    4671 00000568 1E44          MOVL      *-SP[4],ACC           ; |678| 
    4672                      .dwpsn  "src\global.c",679,2
    4673 00000569 0644          MOVL      ACC,*-SP[4]           ; |679| 
    4674 0000056a 7640!         LCR       #FS$$TOL              ; |679| 
         0000056b 0000 
    4675                      ; call occurs [#FS$$TOL] ; |679| 
    4676 0000056c 8A46          MOVL      XAR4,*-SP[6]          ; |679| 
    4677 0000056d 1EC4          MOVL      *+XAR4[0],ACC         ; |679| 
    4678                      .dwpsn  "src\global.c",680,2
    4679 0000056e 8A46          MOVL      XAR4,*-SP[6]          ; |680| 
    4680 0000056f 06C4          MOVL      ACC,*+XAR4[0]         ; |680| 
    4681 00000570 7640!         LCR       #L$$TOFS              ; |680| 
         00000571 0000 
    4682                      ; call occurs [#L$$TOFS] ; |680| 
    4683 00000572 1E42          MOVL      *-SP[2],ACC           ; |680| 
    4684 00000573 0644          MOVL      ACC,*-SP[4]           ; |680| 
    4685 00000574 7640!         LCR       #FS$$SUB              ; |680| 
         00000575 0000 
    4686                      ; call occurs [#FS$$SUB] ; |680| 
    4687 00000576 8A48          MOVL      XAR4,*-SP[8]          ; |680| 
    4688 00000577 1EC4          MOVL      *+XAR4[0],ACC         ; |680| 
    4689                      .dwpsn  "src\global.c",681,2
    4690                      .dwpsn  "src\global.c",682,1
    4691 00000578 FE88          SUBB      SP,#8
    4692                      .dwcfa  0x1d, -2
    4693 00000579 0006          LRETR
    4694                      ; return occurs
    4695                      .dwattr DW$364, DW_AT_end_file("src\global.c")
    4696                      .dwattr DW$364, DW_AT_end_line(0x2aa)
    4697                      .dwattr DW$364, DW_AT_end_column(0x01)
    4698                      .dwendentry
    4699                      .dwendtag DW$364
    4700              
    4701 0000057a               .sect   ".text"
    4702                      .global _global_round_off_float
TMS320C2000 COFF Assembler PC v4.1.3 Thu Aug 04 16:21:37 2011

Tools Copyright (c) 1996-2006 Texas Instruments Incorporated
C:\DOCUME~1\ADMINI~1\LOCALS~1\Temp\TI8402                            PAGE   89

    4703              
    4704              DW$371  .dwtag  DW_TAG_subprogram, DW_AT_name("global_round_off_float"), DW_AT_symbol_name("_global_round_off
    4705                      .dwattr DW$371, DW_AT_low_pc(_global_round_off_float)
    4706                      .dwattr DW$371, DW_AT_high_pc(0x00)
    4707                      .dwattr DW$371, DW_AT_begin_file("src\global.c")
    4708                      .dwattr DW$371, DW_AT_begin_line(0x2b2)
    4709                      .dwattr DW$371, DW_AT_begin_column(0x08)
    4710                      .dwpsn  "src\global.c",691,1
    4711              
    4712                      .dwfde DW$CIE
    4713              
    4714              ;***************************************************************
    4715              ;* FNAME: _global_round_off_float       FR SIZE:   8           *
    4716              ;*                                                             *
    4717              ;* FUNCTION ENVIRONMENT                                        *
    4718              ;*                                                             *
    4719              ;* FUNCTION PROPERTIES                                         *
    4720              ;*                            2 Parameter,  6 Auto,  0 SOE     *
    4721              ;***************************************************************
    4722              
    4723              _global_round_off_float:
    4724                      .dwcfa  0x1d, -2
    4725                      .dwcfa  0x1c, 26, 0
    4726                      .dwcfa  0x09, 40, 26
    4727 0000057a FE08          ADDB      SP,#8
    4728                      .dwcfa  0x1d, -10
    4729              ;* AL    assigned to _src
    4730              DW$372  .dwtag  DW_TAG_formal_parameter, DW_AT_name("src"), DW_AT_symbol_name("_src")
    4731                      .dwattr DW$372, DW_AT_type(*DW$T$16)
    4732                      .dwattr DW$372, DW_AT_location[DW_OP_reg0]
    4733              DW$373  .dwtag  DW_TAG_variable, DW_AT_name("src"), DW_AT_symbol_name("_src")
    4734                      .dwattr DW$373, DW_AT_type(*DW$T$16)
    4735                      .dwattr DW$373, DW_AT_location[DW_OP_breg20 -4]
    4736              DW$374  .dwtag  DW_TAG_variable, DW_AT_name("ltemp"), DW_AT_symbol_name("_ltemp")
    4737                      .dwattr DW$374, DW_AT_type(*DW$T$12)
    4738                      .dwattr DW$374, DW_AT_location[DW_OP_breg20 -6]
    4739              DW$375  .dwtag  DW_TAG_variable, DW_AT_name("fpoint"), DW_AT_symbol_name("_fpoint")
    4740                      .dwattr DW$375, DW_AT_type(*DW$T$16)
    4741                      .dwattr DW$375, DW_AT_location[DW_OP_breg20 -8]
    4742 0000057b 1E44          MOVL      *-SP[4],ACC           ; |691| 
    4743                      .dwpsn  "src\global.c",694,2
    4744 0000057c 9A00          MOV       AL,#0
    4745 0000057d 9B00          MOV       AH,#0
    4746 0000057e 1E42          MOVL      *-SP[2],ACC           ; |694| 
    4747 0000057f 0644          MOVL      ACC,*-SP[4]           ; |694| 
    4748 00000580 7640!         LCR       #FS$$CMP              ; |694| 
         00000581 0000 
    4749                      ; call occurs [#FS$$CMP] ; |694| 
    4750 00000582 5200          CMPB      AL,#0                 ; |694| 
    4751 00000583 6503          B         L112,LEQ              ; |694| 
    4752                      ; branchcc occurs ; |694| 
    4753 00000584 0644          MOVL      ACC,*-SP[4]           ; |694| 
    4754 00000585 6F04          B         L113,UNC              ; |694| 
    4755                      ; branch occurs ; |694| 
    4756 00000586       L112:    
TMS320C2000 COFF Assembler PC v4.1.3 Thu Aug 04 16:21:37 2011

Tools Copyright (c) 1996-2006 Texas Instruments Incorporated
C:\DOCUME~1\ADMINI~1\LOCALS~1\Temp\TI8402                            PAGE   90

    4757 00000586 0644          MOVL      ACC,*-SP[4]           ; |694| 
    4758 00000587 7640!         LCR       #FS$$NEG              ; |694| 
         00000588 0000 
    4759                      ; call occurs [#FS$$NEG] ; |694| 
    4760 00000589       L113:    
    4761 00000589 5DAD          MOVZ      AR5,SP                ; |694| 
    4762 0000058a 5CAD          MOVZ      AR4,SP                ; |694| 
    4763 0000058b DD88          SUBB      XAR5,#8               ; |694| 
    4764 0000058c DC86          SUBB      XAR4,#6               ; |694| 
    4765 0000058d 7640'         LCR       #_global_float_putoff_point ; |694| 
         0000058e 0565 
    4766                      ; call occurs [#_global_float_putoff_point] ; |694| 
    4767                      .dwpsn  "src\global.c",695,2
    4768 0000058f 28A9          MOV       AL,#52429
         00000590 CCCD 
    4769 00000591 28A8          MOV       AH,#16076
         00000592 3ECC 
    4770 00000593 1E42          MOVL      *-SP[2],ACC           ; |695| 
    4771 00000594 0648          MOVL      ACC,*-SP[8]           ; |695| 
    4772 00000595 7640!         LCR       #FS$$CMP              ; |695| 
         00000596 0000 
    4773                      ; call occurs [#FS$$CMP] ; |695| 
    4774 00000597 5200          CMPB      AL,#0                 ; |695| 
    4775 00000598 6505          B         L114,LEQ              ; |695| 
    4776                      ; branchcc occurs ; |695| 
    4777 00000599 FF2F          MOV       ACC,#32512 << 15
         0000059a 7F00 
    4778 0000059b 1E48          MOVL      *-SP[8],ACC           ; |695| 
    4779 0000059c 6F04          B         L115,UNC              ; |695| 
    4780                      ; branch occurs ; |695| 
    4781 0000059d       L114:    
    4782 0000059d 9A00          MOV       AL,#0
    4783 0000059e 9B00          MOV       AH,#0
    4784 0000059f 1E48          MOVL      *-SP[8],ACC           ; |695| 
    4785              L115:    
    4786                      .dwpsn  "src\global.c",696,2
    4787 000005a0 9A00          MOV       AL,#0
    4788 000005a1 9B00          MOV       AH,#0
    4789 000005a2 1E42          MOVL      *-SP[2],ACC           ; |696| 
    4790 000005a3 0644          MOVL      ACC,*-SP[4]           ; |696| 
    4791 000005a4 7640!         LCR       #FS$$CMP              ; |696| 
         000005a5 0000 
    4792                      ; call occurs [#FS$$CMP] ; |696| 
    4793 000005a6 5200          CMPB      AL,#0                 ; |696| 
    4794 000005a7 6509          B         L116,LEQ              ; |696| 
    4795                      ; branchcc occurs ; |696| 
    4796 000005a8 0646          MOVL      ACC,*-SP[6]           ; |696| 
    4797 000005a9 7640!         LCR       #L$$TOFS              ; |696| 
         000005aa 0000 
    4798                      ; call occurs [#L$$TOFS] ; |696| 
    4799 000005ab C448          MOVL      XAR6,*-SP[8]          ; |696| 
    4800 000005ac C242          MOVL      *-SP[2],XAR6          ; |696| 
    4801 000005ad 7640!         LCR       #FS$$ADD              ; |696| 
         000005ae 0000 
    4802                      ; call occurs [#FS$$ADD] ; |696| 
TMS320C2000 COFF Assembler PC v4.1.3 Thu Aug 04 16:21:37 2011

Tools Copyright (c) 1996-2006 Texas Instruments Incorporated
C:\DOCUME~1\ADMINI~1\LOCALS~1\Temp\TI8402                            PAGE   91

    4803 000005af 6F0A          B         L117,UNC              ; |696| 
    4804                      ; branch occurs ; |696| 
    4805 000005b0       L116:    
    4806 000005b0 0646          MOVL      ACC,*-SP[6]           ; |696| 
    4807 000005b1 7640!         LCR       #L$$TOFS              ; |696| 
         000005b2 0000 
    4808                      ; call occurs [#L$$TOFS] ; |696| 
    4809 000005b3 C448          MOVL      XAR6,*-SP[8]          ; |696| 
    4810 000005b4 C242          MOVL      *-SP[2],XAR6          ; |696| 
    4811 000005b5 7640!         LCR       #FS$$ADD              ; |696| 
         000005b6 0000 
    4812                      ; call occurs [#FS$$ADD] ; |696| 
    4813 000005b7 7640!         LCR       #FS$$NEG              ; |696| 
         000005b8 0000 
    4814                      ; call occurs [#FS$$NEG] ; |696| 
    4815              L117:    
    4816                      .dwpsn  "src\global.c",697,1
    4817 000005b9 FE88          SUBB      SP,#8                 ; |696| 
    4818                      .dwcfa  0x1d, -2
    4819 000005ba 0006          LRETR
    4820                      ; return occurs
    4821                      .dwattr DW$371, DW_AT_end_file("src\global.c")
    4822                      .dwattr DW$371, DW_AT_end_line(0x2b9)
    4823                      .dwattr DW$371, DW_AT_end_column(0x01)
    4824                      .dwendentry
    4825                      .dwendtag DW$371
    4826              
    4827 000005bb               .sect   ".text"
    4828                      .global _global_string_filter
    4829              
    4830              DW$376  .dwtag  DW_TAG_subprogram, DW_AT_name("global_string_filter"), DW_AT_symbol_name("_global_string_filt
    4831                      .dwattr DW$376, DW_AT_low_pc(_global_string_filter)
    4832                      .dwattr DW$376, DW_AT_high_pc(0x00)
    4833                      .dwattr DW$376, DW_AT_begin_file("src\global.c")
    4834                      .dwattr DW$376, DW_AT_begin_line(0x2c1)
    4835                      .dwattr DW$376, DW_AT_begin_column(0x07)
    4836                      .dwpsn  "src\global.c",706,1
    4837              
    4838                      .dwfde DW$CIE
    4839              
    4840              ;***************************************************************
    4841              ;* FNAME: _global_string_filter         FR SIZE:   8           *
    4842              ;*                                                             *
    4843              ;* FUNCTION ENVIRONMENT                                        *
    4844              ;*                                                             *
    4845              ;* FUNCTION PROPERTIES                                         *
    4846              ;*                            0 Parameter,  8 Auto,  0 SOE     *
    4847              ;***************************************************************
    4848              
    4849              _global_string_filter:
    4850                      .dwcfa  0x1d, -2
    4851                      .dwcfa  0x1c, 26, 0
    4852                      .dwcfa  0x09, 40, 26
    4853 000005bb FE08          ADDB      SP,#8
    4854                      .dwcfa  0x1d, -10
TMS320C2000 COFF Assembler PC v4.1.3 Thu Aug 04 16:21:37 2011

Tools Copyright (c) 1996-2006 Texas Instruments Incorporated
C:\DOCUME~1\ADMINI~1\LOCALS~1\Temp\TI8402                            PAGE   92

    4855              ;* AR4   assigned to _psrc
    4856              DW$377  .dwtag  DW_TAG_formal_parameter, DW_AT_name("psrc"), DW_AT_symbol_name("_psrc")
    4857                      .dwattr DW$377, DW_AT_type(*DW$T$82)
    4858                      .dwattr DW$377, DW_AT_location[DW_OP_reg12]
    4859              ;* AL    assigned to _ch
    4860              DW$378  .dwtag  DW_TAG_formal_parameter, DW_AT_name("ch"), DW_AT_symbol_name("_ch")
    4861                      .dwattr DW$378, DW_AT_type(*DW$T$81)
    4862                      .dwattr DW$378, DW_AT_location[DW_OP_reg0]
    4863              DW$379  .dwtag  DW_TAG_variable, DW_AT_name("psrc"), DW_AT_symbol_name("_psrc")
    4864                      .dwattr DW$379, DW_AT_type(*DW$T$82)
    4865                      .dwattr DW$379, DW_AT_location[DW_OP_breg20 -2]
    4866              DW$380  .dwtag  DW_TAG_variable, DW_AT_name("ch"), DW_AT_symbol_name("_ch")
    4867                      .dwattr DW$380, DW_AT_type(*DW$T$81)
    4868                      .dwattr DW$380, DW_AT_location[DW_OP_breg20 -3]
    4869              DW$381  .dwtag  DW_TAG_variable, DW_AT_name("offset"), DW_AT_symbol_name("_offset")
    4870                      .dwattr DW$381, DW_AT_type(*DW$T$23)
    4871                      .dwattr DW$381, DW_AT_location[DW_OP_breg20 -4]
    4872              DW$382  .dwtag  DW_TAG_variable, DW_AT_name("shoffset"), DW_AT_symbol_name("_shoffset")
    4873                      .dwattr DW$382, DW_AT_type(*DW$T$23)
    4874                      .dwattr DW$382, DW_AT_location[DW_OP_breg20 -5]
    4875              DW$383  .dwtag  DW_TAG_variable, DW_AT_name("strlen"), DW_AT_symbol_name("_strlen")
    4876                      .dwattr DW$383, DW_AT_type(*DW$T$23)
    4877                      .dwattr DW$383, DW_AT_location[DW_OP_breg20 -6]
    4878              DW$384  .dwtag  DW_TAG_variable, DW_AT_name("pshadow"), DW_AT_symbol_name("_pshadow")
    4879                      .dwattr DW$384, DW_AT_type(*DW$T$82)
    4880                      .dwattr DW$384, DW_AT_location[DW_OP_breg20 -8]
    4881 000005bc 9643          MOV       *-SP[3],AL            ; |706| 
    4882 000005bd A842          MOVL      *-SP[2],XAR4          ; |706| 
    4883                      .dwpsn  "src\global.c",708,10
    4884 000005be 8A42          MOVL      XAR4,*-SP[2]          ; |708| 
    4885 000005bf 7640'         LCR       #_global_strlen       ; |708| 
         000005c0 020B 
    4886                      ; call occurs [#_global_strlen] ; |708| 
    4887 000005c1 9646          MOV       *-SP[6],AL            ; |708| 
    4888                      .dwpsn  "src\global.c",709,8
    4889 000005c2 9C02          ADDB      AL,#2                 ; |709| 
    4890 000005c3 7640'         LCR       #_app_malloc          ; |709| 
         000005c4 0997 
    4891                      ; call occurs [#_app_malloc] ; |709| 
    4892 000005c5 A848          MOVL      *-SP[8],XAR4          ; |709| 
    4893                      .dwpsn  "src\global.c",710,2
    4894 000005c6 0648          MOVL      ACC,*-SP[8]           ; |710| 
    4895 000005c7 EC22          BF        L121,EQ               ; |710| 
    4896                      ; branchcc occurs ; |710| 
    4897                      .dwpsn  "src\global.c",710,18
    4898                      .dwpsn  "src\global.c",711,2
    4899 000005c8 9346          MOV       AH,*-SP[6]            ; |711| 
    4900 000005c9 8A48          MOVL      XAR4,*-SP[8]          ; |711| 
    4901 000005ca 9D02          ADDB      AH,#2                 ; |711| 
    4902 000005cb 9A00          MOVB      AL,#0
    4903 000005cc 7640'         LCR       #_global_memset       ; |711| 
         000005cd 01EF 
    4904                      ; call occurs [#_global_memset] ; |711| 
    4905                      .dwpsn  "src\global.c",712,2
    4906 000005ce 2B45          MOV       *-SP[5],#0            ; |712| 
TMS320C2000 COFF Assembler PC v4.1.3 Thu Aug 04 16:21:37 2011

Tools Copyright (c) 1996-2006 Texas Instruments Incorporated
C:\DOCUME~1\ADMINI~1\LOCALS~1\Temp\TI8402                            PAGE   93

    4907                      .dwpsn  "src\global.c",713,8
    4908 000005cf 2B44          MOV       *-SP[4],#0            ; |713| 
    4909                      .dwpsn  "src\global.c",713,19
    4910 000005d0 9246          MOV       AL,*-SP[6]            ; |713| 
    4911 000005d1 5444          CMP       AL,*-SP[4]            ; |713| 
    4912 000005d2 6910          B         L120,LOS              ; |713| 
    4913                      ; branchcc occurs ; |713| 
    4914              L118:    
    4915              DW$L$_global_string_filter$3$B:
    4916                      .dwpsn  "src\global.c",715,3
    4917 000005d3 5844          MOVZ      AR0,*-SP[4]           ; |715| 
    4918 000005d4 8A42          MOVL      XAR4,*-SP[2]          ; |715| 
    4919 000005d5 9243          MOV       AL,*-SP[3]            ; |715| 
    4920 000005d6 5494          CMP       AL,*+XAR4[AR0]        ; |715| 
    4921 000005d7 EC07          BF        L119,EQ               ; |715| 
    4922                      ; branchcc occurs ; |715| 
    4923              DW$L$_global_string_filter$3$E:
    4924              DW$L$_global_string_filter$4$B:
    4925                      .dwpsn  "src\global.c",717,4
    4926 000005d8 8A42          MOVL      XAR4,*-SP[2]          ; |717| 
    4927 000005d9 9294          MOV       AL,*+XAR4[AR0]        ; |717| 
    4928 000005da 5845          MOVZ      AR0,*-SP[5]           ; |717| 
    4929 000005db 8A48          MOVL      XAR4,*-SP[8]          ; |717| 
    4930 000005dc 9694          MOV       *+XAR4[AR0],AL        ; |717| 
    4931                      .dwpsn  "src\global.c",718,4
    4932 000005dd 0A45          INC       *-SP[5]               ; |718| 
    4933              DW$L$_global_string_filter$4$E:
    4934              L119:    
    4935              DW$L$_global_string_filter$5$B:
    4936                      .dwpsn  "src\global.c",713,35
    4937 000005de 0A44          INC       *-SP[4]               ; |713| 
    4938                      .dwpsn  "src\global.c",713,19
    4939 000005df 9246          MOV       AL,*-SP[6]            ; |713| 
    4940 000005e0 5444          CMP       AL,*-SP[4]            ; |713| 
    4941 000005e1 66F2          B         L118,HI               ; |713| 
    4942                      ; branchcc occurs ; |713| 
    4943              DW$L$_global_string_filter$5$E:
    4944              L120:    
    4945                      .dwpsn  "src\global.c",721,2
    4946 000005e2 8A42          MOVL      XAR4,*-SP[2]          ; |721| 
    4947 000005e3 8348          MOVL      XAR5,*-SP[8]          ; |721| 
    4948 000005e4 7640'         LCR       #_global_memcpy       ; |721| 
         000005e5 01E4 
    4949                      ; call occurs [#_global_memcpy] ; |721| 
    4950                      .dwpsn  "src\global.c",722,2
    4951 000005e6 8A48          MOVL      XAR4,*-SP[8]          ; |722| 
    4952 000005e7 7640'         LCR       #_app_free            ; |722| 
         000005e8 09EA 
    4953                      ; call occurs [#_app_free] ; |722| 
    4954                      .dwpsn  "src\global.c",723,2
    4955              L121:    
    4956                      .dwpsn  "src\global.c",724,1
    4957 000005e9 FE88          SUBB      SP,#8
    4958                      .dwcfa  0x1d, -2
    4959 000005ea 0006          LRETR
TMS320C2000 COFF Assembler PC v4.1.3 Thu Aug 04 16:21:37 2011

Tools Copyright (c) 1996-2006 Texas Instruments Incorporated
C:\DOCUME~1\ADMINI~1\LOCALS~1\Temp\TI8402                            PAGE   94

    4960                      ; return occurs
    4961              
    4962              DW$385  .dwtag  DW_TAG_loop
    4963                      .dwattr DW$385, DW_AT_name("C:\DOCUME~1\ADMINI~1\LOCALS~1\Temp\TI8402:L118:1:1312446096")
    4964                      .dwattr DW$385, DW_AT_begin_file("src\global.c")
    4965                      .dwattr DW$385, DW_AT_begin_line(0x2c9)
    4966                      .dwattr DW$385, DW_AT_end_line(0x2d0)
    4967              DW$386  .dwtag  DW_TAG_loop_range
    4968                      .dwattr DW$386, DW_AT_low_pc(DW$L$_global_string_filter$3$B)
    4969                      .dwattr DW$386, DW_AT_high_pc(DW$L$_global_string_filter$3$E)
    4970              DW$387  .dwtag  DW_TAG_loop_range
    4971                      .dwattr DW$387, DW_AT_low_pc(DW$L$_global_string_filter$4$B)
    4972                      .dwattr DW$387, DW_AT_high_pc(DW$L$_global_string_filter$4$E)
    4973              DW$388  .dwtag  DW_TAG_loop_range
    4974                      .dwattr DW$388, DW_AT_low_pc(DW$L$_global_string_filter$5$B)
    4975                      .dwattr DW$388, DW_AT_high_pc(DW$L$_global_string_filter$5$E)
    4976                      .dwendtag DW$385
    4977              
    4978                      .dwattr DW$376, DW_AT_end_file("src\global.c")
    4979                      .dwattr DW$376, DW_AT_end_line(0x2d4)
    4980                      .dwattr DW$376, DW_AT_end_column(0x01)
    4981                      .dwendentry
    4982                      .dwendtag DW$376
    4983              
    4984 000005eb               .sect   ".text"
    4985                      .global _global_ASC_code_search_end
    4986              
    4987              DW$389  .dwtag  DW_TAG_subprogram, DW_AT_name("global_ASC_code_search_end"), DW_AT_symbol_name("_global_ASC_c
    4988                      .dwattr DW$389, DW_AT_low_pc(_global_ASC_code_search_end)
    4989                      .dwattr DW$389, DW_AT_high_pc(0x00)
    4990                      .dwattr DW$389, DW_AT_begin_file("src\global.c")
    4991                      .dwattr DW$389, DW_AT_begin_line(0x2dd)
    4992                      .dwattr DW$389, DW_AT_begin_column(0x07)
    4993                      .dwpsn  "src\global.c",734,1
    4994              
    4995                      .dwfde DW$CIE
    4996              
    4997              ;***************************************************************
    4998              ;* FNAME: _global_ASC_code_search_end   FR SIZE:   8           *
    4999              ;*                                                             *
    5000              ;* FUNCTION ENVIRONMENT                                        *
    5001              ;*                                                             *
    5002              ;* FUNCTION PROPERTIES                                         *
    5003              ;*                            0 Parameter,  8 Auto,  0 SOE     *
    5004              ;***************************************************************
    5005              
    5006              _global_ASC_code_search_end:
    5007                      .dwcfa  0x1d, -2
    5008                      .dwcfa  0x1c, 26, 0
    5009                      .dwcfa  0x09, 40, 26
    5010 000005eb FE08          ADDB      SP,#8
    5011                      .dwcfa  0x1d, -10
    5012              ;* AR4   assigned to _src
    5013              DW$390  .dwtag  DW_TAG_formal_parameter, DW_AT_name("src"), DW_AT_symbol_name("_src")
    5014                      .dwattr DW$390, DW_AT_type(*DW$T$82)
TMS320C2000 COFF Assembler PC v4.1.3 Thu Aug 04 16:21:37 2011

Tools Copyright (c) 1996-2006 Texas Instruments Incorporated
C:\DOCUME~1\ADMINI~1\LOCALS~1\Temp\TI8402                            PAGE   95

    5015                      .dwattr DW$390, DW_AT_location[DW_OP_reg12]
    5016              ;* AL    assigned to _size
    5017              DW$391  .dwtag  DW_TAG_formal_parameter, DW_AT_name("size"), DW_AT_symbol_name("_size")
    5018                      .dwattr DW$391, DW_AT_type(*DW$T$23)
    5019                      .dwattr DW$391, DW_AT_location[DW_OP_reg0]
    5020              DW$392  .dwtag  DW_TAG_variable, DW_AT_name("src"), DW_AT_symbol_name("_src")
    5021                      .dwattr DW$392, DW_AT_type(*DW$T$82)
    5022                      .dwattr DW$392, DW_AT_location[DW_OP_breg20 -2]
    5023              DW$393  .dwtag  DW_TAG_variable, DW_AT_name("size"), DW_AT_symbol_name("_size")
    5024                      .dwattr DW$393, DW_AT_type(*DW$T$23)
    5025                      .dwattr DW$393, DW_AT_location[DW_OP_breg20 -3]
    5026              DW$394  .dwtag  DW_TAG_variable, DW_AT_name("len"), DW_AT_symbol_name("_len")
    5027                      .dwattr DW$394, DW_AT_type(*DW$T$23)
    5028                      .dwattr DW$394, DW_AT_location[DW_OP_breg20 -4]
    5029              DW$395  .dwtag  DW_TAG_variable, DW_AT_name("offset"), DW_AT_symbol_name("_offset")
    5030                      .dwattr DW$395, DW_AT_type(*DW$T$23)
    5031                      .dwattr DW$395, DW_AT_location[DW_OP_breg20 -5]
    5032              DW$396  .dwtag  DW_TAG_variable, DW_AT_name("pch"), DW_AT_symbol_name("_pch")
    5033                      .dwattr DW$396, DW_AT_type(*DW$T$82)
    5034                      .dwattr DW$396, DW_AT_location[DW_OP_breg20 -8]
    5035 000005ec 9643          MOV       *-SP[3],AL            ; |734| 
    5036 000005ed A842          MOVL      *-SP[2],XAR4          ; |734| 
    5037                      .dwpsn  "src\global.c",736,10
    5038 000005ee 2B45          MOV       *-SP[5],#0            ; |736| 
    5039                      .dwpsn  "src\global.c",738,2
    5040 000005ef 8A42          MOVL      XAR4,*-SP[2]          ; |738| 
    5041 000005f0 7640'         LCR       #_global_strlen       ; |738| 
         000005f1 020B 
    5042                      ; call occurs [#_global_strlen] ; |738| 
    5043 000005f2 9644          MOV       *-SP[4],AL            ; |738| 
    5044                      .dwpsn  "src\global.c",739,2
    5045 000005f3 9243          MOV       AL,*-SP[3]            ; |739| 
    5046 000005f4 5444          CMP       AL,*-SP[4]            ; |739| 
    5047 000005f5 671D          B         L125,HIS              ; |739| 
    5048                      ; branchcc occurs ; |739| 
    5049                      .dwpsn  "src\global.c",741,11
    5050              L122:    
    5051              DW$L$_global_ASC_code_search_end$3$B:
    5052                      .dwpsn  "src\global.c",743,4
    5053 000005f6 5845          MOVZ      AR0,*-SP[5]           ; |743| 
    5054 000005f7 8A42          MOVL      XAR4,*-SP[2]          ; |743| 
    5055 000005f8 9294          MOV       AL,*+XAR4[AR0]        ; |743| 
    5056 000005f9 90FF          ANDB      AL,#0xff              ; |743| 
    5057 000005fa 5281          CMPB      AL,#129               ; |743| 
    5058 000005fb 640A          B         L123,LT               ; |743| 
    5059                      ; branchcc occurs ; |743| 
    5060              DW$L$_global_ASC_code_search_end$3$E:
    5061              DW$L$_global_ASC_code_search_end$4$B:
    5062                      .dwpsn  "src\global.c",745,5
    5063 000005fc 9243          MOV       AL,*-SP[3]            ; |745| 
    5064 000005fd 9345          MOV       AH,*-SP[5]            ; |745| 
    5065 000005fe 9CFF          ADDB      AL,#-1
    5066 000005ff 9D02          ADDB      AH,#2                 ; |745| 
    5067 00000600 55A9          CMP       AH,AL                 ; |745| 
    5068 00000601 660C          B         L124,HI               ; |745| 
TMS320C2000 COFF Assembler PC v4.1.3 Thu Aug 04 16:21:37 2011

Tools Copyright (c) 1996-2006 Texas Instruments Incorporated
C:\DOCUME~1\ADMINI~1\LOCALS~1\Temp\TI8402                            PAGE   96

    5069                      ; branchcc occurs ; |745| 
    5070              DW$L$_global_ASC_code_search_end$4$E:
    5071              DW$L$_global_ASC_code_search_end$5$B:
    5072                      .dwpsn  "src\global.c",745,41
    5073                      .dwpsn  "src\global.c",746,5
    5074 00000602 0845          ADD       *-SP[5],#2            ; |746| 
         00000603 0002 
    5075                      .dwpsn  "src\global.c",747,4
    5076 00000604 6FF2          B         L122,UNC              ; |747| 
    5077                      ; branch occurs ; |747| 
    5078              DW$L$_global_ASC_code_search_end$5$E:
    5079              L123:    
    5080              DW$L$_global_ASC_code_search_end$6$B:
    5081                      .dwpsn  "src\global.c",750,5
    5082 00000605 9243          MOV       AL,*-SP[3]            ; |750| 
    5083 00000606 9345          MOV       AH,*-SP[5]            ; |750| 
    5084 00000607 9CFF          ADDB      AL,#-1
    5085 00000608 9D01          ADDB      AH,#1                 ; |750| 
    5086 00000609 55A9          CMP       AH,AL                 ; |750| 
    5087 0000060a 6603          B         L124,HI               ; |750| 
    5088                      ; branchcc occurs ; |750| 
    5089              DW$L$_global_ASC_code_search_end$6$E:
    5090              DW$L$_global_ASC_code_search_end$7$B:
    5091                      .dwpsn  "src\global.c",750,41
    5092                      .dwpsn  "src\global.c",751,5
    5093 0000060b 0A45          INC       *-SP[5]               ; |751| 
    5094                      .dwpsn  "src\global.c",741,11
    5095 0000060c 6FEA          B         L122,UNC              ; |741| 
    5096                      ; branch occurs ; |741| 
    5097              DW$L$_global_ASC_code_search_end$7$E:
    5098              L124:    
    5099                      .dwpsn  "src\global.c",754,3
    5100 0000060d 8845          MOVZ      AR6,*-SP[5]           ; |754| 
    5101 0000060e 0642          MOVL      ACC,*-SP[2]           ; |754| 
    5102 0000060f 0DA6          ADDU      ACC,AR6               ; |754| 
    5103 00000610 1E48          MOVL      *-SP[8],ACC           ; |754| 
    5104                      .dwpsn  "src\global.c",755,2
    5105 00000611 6F09          B         L126,UNC              ; |755| 
    5106                      ; branch occurs ; |755| 
    5107              L125:    
    5108                      .dwpsn  "src\global.c",758,3
    5109 00000612 8A42          MOVL      XAR4,*-SP[2]          ; |758| 
    5110 00000613 7640'         LCR       #_global_strlen       ; |758| 
         00000614 020B 
    5111                      ; call occurs [#_global_strlen] ; |758| 
    5112 00000615 88A9          MOVZ      AR6,AL                ; |758| 
    5113 00000616 0642          MOVL      ACC,*-SP[2]           ; |758| 
    5114 00000617 0DA6          ADDU      ACC,AR6               ; |758| 
    5115 00000618 1901          SUBB      ACC,#1                ; |758| 
    5116 00000619 1E48          MOVL      *-SP[8],ACC           ; |758| 
    5117              L126:    
    5118                      .dwpsn  "src\global.c",760,2
    5119 0000061a 8A48          MOVL      XAR4,*-SP[8]          ; |760| 
    5120                      .dwpsn  "src\global.c",761,1
    5121 0000061b FE88          SUBB      SP,#8                 ; |760| 
TMS320C2000 COFF Assembler PC v4.1.3 Thu Aug 04 16:21:37 2011

Tools Copyright (c) 1996-2006 Texas Instruments Incorporated
C:\DOCUME~1\ADMINI~1\LOCALS~1\Temp\TI8402                            PAGE   97

    5122                      .dwcfa  0x1d, -2
    5123 0000061c 0006          LRETR
    5124                      ; return occurs
    5125              
    5126              DW$397  .dwtag  DW_TAG_loop
    5127                      .dwattr DW$397, DW_AT_name("C:\DOCUME~1\ADMINI~1\LOCALS~1\Temp\TI8402:L122:1:1312446096")
    5128                      .dwattr DW$397, DW_AT_begin_file("src\global.c")
    5129                      .dwattr DW$397, DW_AT_begin_line(0x2e5)
    5130                      .dwattr DW$397, DW_AT_end_line(0x2f1)
    5131              DW$398  .dwtag  DW_TAG_loop_range
    5132                      .dwattr DW$398, DW_AT_low_pc(DW$L$_global_ASC_code_search_end$3$B)
    5133                      .dwattr DW$398, DW_AT_high_pc(DW$L$_global_ASC_code_search_end$3$E)
    5134              DW$399  .dwtag  DW_TAG_loop_range
    5135                      .dwattr DW$399, DW_AT_low_pc(DW$L$_global_ASC_code_search_end$6$B)
    5136                      .dwattr DW$399, DW_AT_high_pc(DW$L$_global_ASC_code_search_end$6$E)
    5137              DW$400  .dwtag  DW_TAG_loop_range
    5138                      .dwattr DW$400, DW_AT_low_pc(DW$L$_global_ASC_code_search_end$4$B)
    5139                      .dwattr DW$400, DW_AT_high_pc(DW$L$_global_ASC_code_search_end$4$E)
    5140              DW$401  .dwtag  DW_TAG_loop_range
    5141                      .dwattr DW$401, DW_AT_low_pc(DW$L$_global_ASC_code_search_end$7$B)
    5142                      .dwattr DW$401, DW_AT_high_pc(DW$L$_global_ASC_code_search_end$7$E)
    5143              DW$402  .dwtag  DW_TAG_loop_range
    5144                      .dwattr DW$402, DW_AT_low_pc(DW$L$_global_ASC_code_search_end$5$B)
    5145                      .dwattr DW$402, DW_AT_high_pc(DW$L$_global_ASC_code_search_end$5$E)
    5146                      .dwendtag DW$397
    5147              
    5148                      .dwattr DW$389, DW_AT_end_file("src\global.c")
    5149                      .dwattr DW$389, DW_AT_end_line(0x2f9)
    5150                      .dwattr DW$389, DW_AT_end_column(0x01)
    5151                      .dwendentry
    5152                      .dwendtag DW$389
    5153              
    5154 0000061d               .sect   ".text"
    5155                      .global _global_sprintf
    5156              
    5157              DW$403  .dwtag  DW_TAG_subprogram, DW_AT_name("global_sprintf"), DW_AT_symbol_name("_global_sprintf")
    5158                      .dwattr DW$403, DW_AT_low_pc(_global_sprintf)
    5159                      .dwattr DW$403, DW_AT_high_pc(0x00)
    5160                      .dwattr DW$403, DW_AT_begin_file("src\global.c")
    5161                      .dwattr DW$403, DW_AT_begin_line(0x308)
    5162                      .dwattr DW$403, DW_AT_begin_column(0x05)
    5163                      .dwpsn  "src\global.c",777,1
    5164              
    5165                      .dwfde DW$CIE
    5166              
    5167              ;***************************************************************
    5168              ;* FNAME: _global_sprintf               FR SIZE:  28           *
    5169              ;*                                                             *
    5170              ;* FUNCTION ENVIRONMENT                                        *
    5171              ;*                                                             *
    5172              ;* FUNCTION PROPERTIES                                         *
    5173              ;*                            0 Parameter, 28 Auto,  0 SOE     *
    5174              ;***************************************************************
    5175              
    5176              _global_sprintf:
TMS320C2000 COFF Assembler PC v4.1.3 Thu Aug 04 16:21:37 2011

Tools Copyright (c) 1996-2006 Texas Instruments Incorporated
C:\DOCUME~1\ADMINI~1\LOCALS~1\Temp\TI8402                            PAGE   98

    5177                      .dwcfa  0x1d, -2
    5178                      .dwcfa  0x1c, 26, 0
    5179                      .dwcfa  0x09, 40, 26
    5180 0000061d FE1C          ADDB      SP,#28
    5181                      .dwcfa  0x1d, -30
    5182              ;* AR4   assigned to _pbuf
    5183              DW$404  .dwtag  DW_TAG_formal_parameter, DW_AT_name("pbuf"), DW_AT_symbol_name("_pbuf")
    5184                      .dwattr DW$404, DW_AT_type(*DW$T$82)
    5185                      .dwattr DW$404, DW_AT_location[DW_OP_reg12]
    5186              ;* AL    assigned to _buf_len
    5187              DW$405  .dwtag  DW_TAG_formal_parameter, DW_AT_name("buf_len"), DW_AT_symbol_name("_buf_len")
    5188                      .dwattr DW$405, DW_AT_type(*DW$T$23)
    5189                      .dwattr DW$405, DW_AT_location[DW_OP_reg0]
    5190              DW$406  .dwtag  DW_TAG_formal_parameter, DW_AT_name("str"), DW_AT_symbol_name("_str")
    5191                      .dwattr DW$406, DW_AT_type(*DW$T$82)
    5192                      .dwattr DW$406, DW_AT_location[DW_OP_breg20 -32]
    5193              DW$407  .dwtag  DW_TAG_unspecified_parameters
    5194              DW$408  .dwtag  DW_TAG_variable, DW_AT_name("pbuf"), DW_AT_symbol_name("_pbuf")
    5195                      .dwattr DW$408, DW_AT_type(*DW$T$82)
    5196                      .dwattr DW$408, DW_AT_location[DW_OP_breg20 -2]
    5197              DW$409  .dwtag  DW_TAG_variable, DW_AT_name("buf_len"), DW_AT_symbol_name("_buf_len")
    5198                      .dwattr DW$409, DW_AT_type(*DW$T$23)
    5199                      .dwattr DW$409, DW_AT_location[DW_OP_breg20 -3]
    5200              DW$410  .dwtag  DW_TAG_variable, DW_AT_name("arp"), DW_AT_symbol_name("_arp")
    5201                      .dwattr DW$410, DW_AT_type(*DW$T$180)
    5202                      .dwattr DW$410, DW_AT_location[DW_OP_breg20 -6]
    5203              DW$411  .dwtag  DW_TAG_variable, DW_AT_name("c"), DW_AT_symbol_name("_c")
    5204                      .dwattr DW$411, DW_AT_type(*DW$T$81)
    5205                      .dwattr DW$411, DW_AT_location[DW_OP_breg20 -7]
    5206              DW$412  .dwtag  DW_TAG_variable, DW_AT_name("d"), DW_AT_symbol_name("_d")
    5207                      .dwattr DW$412, DW_AT_type(*DW$T$81)
    5208                      .dwattr DW$412, DW_AT_location[DW_OP_breg20 -8]
    5209              DW$413  .dwtag  DW_TAG_variable, DW_AT_name("s"), DW_AT_symbol_name("_s")
    5210                      .dwattr DW$413, DW_AT_type(*DW$T$185)
    5211                      .dwattr DW$413, DW_AT_location[DW_OP_breg20 -24]
    5212              DW$414  .dwtag  DW_TAG_variable, DW_AT_name("p"), DW_AT_symbol_name("_p")
    5213                      .dwattr DW$414, DW_AT_type(*DW$T$82)
    5214                      .dwattr DW$414, DW_AT_location[DW_OP_breg20 -26]
    5215              DW$415  .dwtag  DW_TAG_variable, DW_AT_name("offset"), DW_AT_symbol_name("_offset")
    5216                      .dwattr DW$415, DW_AT_type(*DW$T$23)
    5217                      .dwattr DW$415, DW_AT_location[DW_OP_breg20 -27]
    5218              DW$416  .dwtag  DW_TAG_variable, DW_AT_name("len"), DW_AT_symbol_name("_len")
    5219                      .dwattr DW$416, DW_AT_type(*DW$T$23)
    5220                      .dwattr DW$416, DW_AT_location[DW_OP_breg20 -28]
    5221 0000061e 9643          MOV       *-SP[3],AL            ; |777| 
    5222 0000061f A842          MOVL      *-SP[2],XAR4          ; |777| 
    5223                      .dwpsn  "src\global.c",782,2
    5224 00000620 2B5B          MOV       *-SP[27],#0           ; |782| 
    5225                      .dwpsn  "src\global.c",783,2
    5226 00000621 0B43          DEC       *-SP[3]               ; |783| 
    5227                      .dwpsn  "src\global.c",784,2
    5228 00000622 5CAD          MOVZ      AR4,SP                ; |784| 
    5229 00000623 DCA0          SUBB      XAR4,#32              ; |784| 
    5230 00000624 A846          MOVL      *-SP[6],XAR4          ; |784| 
    5231                      .dwpsn  "src\global.c",785,2
TMS320C2000 COFF Assembler PC v4.1.3 Thu Aug 04 16:21:37 2011

Tools Copyright (c) 1996-2006 Texas Instruments Incorporated
C:\DOCUME~1\ADMINI~1\LOCALS~1\Temp\TI8402                            PAGE   99

    5232 00000625 8A42          MOVL      XAR4,*-SP[2]          ; |785| 
    5233 00000626 9A00          MOVB      AL,#0
    5234 00000627 9343          MOV       AH,*-SP[3]            ; |785| 
    5235 00000628 7640'         LCR       #_global_memset       ; |785| 
         00000629 01EF 
    5236                      ; call occurs [#_global_memset] ; |785| 
    5237                      .dwpsn  "src\global.c",786,10
    5238              L127:    
    5239              DW$L$_global_sprintf$2$B:
    5240                      .dwpsn  "src\global.c",788,3
    5241 0000062a 8A60          MOVL      XAR4,*-SP[32]         ; |788| 
    5242 0000062b 9284          MOV       AL,*XAR4++            ; |788| 
    5243 0000062c A860          MOVL      *-SP[32],XAR4         ; |788| 
    5244 0000062d 9647          MOV       *-SP[7],AL            ; |788| 
    5245                      .dwpsn  "src\global.c",789,3
    5246 0000062e 56C1          BF        L143,EQ               ; |789| 
         0000062f 00B1 
    5247                      ; branchcc occurs ; |789| 
    5248              DW$L$_global_sprintf$2$E:
    5249              DW$L$_global_sprintf$3$B:
    5250                      .dwpsn  "src\global.c",789,17
    5251                      .dwpsn  "src\global.c",790,3
    5252 00000630 5225          CMPB      AL,#37                ; |790| 
    5253 00000631 EC07          BF        L128,EQ               ; |790| 
    5254                      ; branchcc occurs ; |790| 
    5255              DW$L$_global_sprintf$3$E:
    5256              DW$L$_global_sprintf$4$B:
    5257                      .dwpsn  "src\global.c",792,4
    5258 00000632 585B          MOVZ      AR0,*-SP[27]          ; |792| 
    5259 00000633 8A42          MOVL      XAR4,*-SP[2]          ; |792| 
    5260 00000634 9247          MOV       AL,*-SP[7]            ; |792| 
    5261 00000635 0A5B          INC       *-SP[27]              ; |792| 
    5262 00000636 9694          MOV       *+XAR4[AR0],AL        ; |792| 
    5263                      .dwpsn  "src\global.c",793,4
    5264 00000637 6FF3          B         L127,UNC              ; |793| 
    5265                      ; branch occurs ; |793| 
    5266              DW$L$_global_sprintf$4$E:
    5267              L128:    
    5268              DW$L$_global_sprintf$5$B:
    5269                      .dwpsn  "src\global.c",795,3
    5270 00000638 8A60          MOVL      XAR4,*-SP[32]         ; |795| 
    5271 00000639 9284          MOV       AL,*XAR4++            ; |795| 
    5272 0000063a A860          MOVL      *-SP[32],XAR4         ; |795| 
    5273 0000063b 9647          MOV       *-SP[7],AL            ; |795| 
    5274                      .dwpsn  "src\global.c",796,3
    5275 0000063c 56C1          BF        L143,EQ               ; |796| 
         0000063d 00A3 
    5276                      ; branchcc occurs ; |796| 
    5277              DW$L$_global_sprintf$5$E:
    5278              DW$L$_global_sprintf$6$B:
    5279                      .dwpsn  "src\global.c",796,13
    5280                      .dwpsn  "src\global.c",797,3
    5281 0000063e 5261          CMPB      AL,#97                ; |797| 
    5282 0000063f 6404          B         L129,LT               ; |797| 
    5283                      ; branchcc occurs ; |797| 
TMS320C2000 COFF Assembler PC v4.1.3 Thu Aug 04 16:21:37 2011

Tools Copyright (c) 1996-2006 Texas Instruments Incorporated
C:\DOCUME~1\ADMINI~1\LOCALS~1\Temp\TI8402                            PAGE  100

    5284 00000640       DW$L$_global_sprintf$6$E:
    5285 00000640       DW$L$_global_sprintf$7$B:
    5286 00000640 527A          CMPB      AL,#122               ; |797| 
    5287 00000641 6202          B         L129,GT               ; |797| 
    5288                      ; branchcc occurs ; |797| 
    5289 00000642       DW$L$_global_sprintf$7$E:
    5290 00000642       DW$L$_global_sprintf$8$B:
    5291 00000642 9CE0          ADDB      AL,#-32
    5292 00000643       DW$L$_global_sprintf$8$E:
    5293 00000643       L129:    
    5294 00000643       DW$L$_global_sprintf$9$B:
    5295 00000643 9648          MOV       *-SP[8],AL            ; |797| 
    5296                      .dwpsn  "src\global.c",798,3
    5297 00000644 FFEF          B         L141,UNC              ; |798| 
         00000645 0088 
    5298                      ; branch occurs ; |798| 
    5299              DW$L$_global_sprintf$9$E:
    5300              L130:    
    5301              DW$L$_global_sprintf$11$B:
    5302                      .dwpsn  "src\global.c",801,4
    5303 00000646 0646          MOVL      ACC,*-SP[6]           ; |801| 
    5304 00000647 9001          ANDB      AL,#0x01              ; |801| 
    5305 00000648 9B00          MOVB      AH,#0
    5306 00000649 FF58          TEST      ACC                   ; |801| 
    5307 0000064a EC03          BF        L131,EQ               ; |801| 
    5308                      ; branchcc occurs ; |801| 
    5309 0000064b       DW$L$_global_sprintf$11$E:
    5310 0000064b       DW$L$_global_sprintf$12$B:
    5311 0000064b 0202          MOVB      ACC,#2
    5312 0000064c 6F02          B         L132,UNC              ; |801| 
    5313                      ; branch occurs ; |801| 
    5314 0000064d       DW$L$_global_sprintf$12$E:
    5315 0000064d       L131:    
    5316 0000064d       DW$L$_global_sprintf$13$B:
    5317 0000064d 0201          MOVB      ACC,#1
    5318 0000064e       DW$L$_global_sprintf$13$E:
    5319 0000064e       L132:    
    5320 0000064e       DW$L$_global_sprintf$14$B:
    5321 0000064e 0901          ADDB      ACC,#1                ; |801| 
    5322 0000064f 5641          SUBL      *-SP[6],ACC           ; |801| 
         00000650 0046 
    5323 00000651 8A46          MOVL      XAR4,*-SP[6]          ; |801| 
    5324 00000652 06C4          MOVL      ACC,*+XAR4[0]         ; |801| 
    5325 00000653 1E5A          MOVL      *-SP[26],ACC          ; |801| 
    5326                      .dwpsn  "src\global.c",802,4
    5327 00000654 8A5A          MOVL      XAR4,*-SP[26]         ; |802| 
    5328 00000655 7640'         LCR       #_global_strlen       ; |802| 
         00000656 020B 
    5329                      ; call occurs [#_global_strlen] ; |802| 
    5330 00000657 965C          MOV       *-SP[28],AL           ; |802| 
    5331                      .dwpsn  "src\global.c",803,4
    5332 00000658 925B          MOV       AL,*-SP[27]           ; |803| 
    5333 00000659 945C          ADD       AL,*-SP[28]           ; |803| 
    5334 0000065a 5443          CMP       AL,*-SP[3]            ; |803| 
    5335 0000065b 67CF          B         L127,HIS              ; |803| 
TMS320C2000 COFF Assembler PC v4.1.3 Thu Aug 04 16:21:37 2011

Tools Copyright (c) 1996-2006 Texas Instruments Incorporated
C:\DOCUME~1\ADMINI~1\LOCALS~1\Temp\TI8402                            PAGE  101

    5336                      ; branchcc occurs ; |803| 
    5337              DW$L$_global_sprintf$14$E:
    5338              DW$L$_global_sprintf$15$B:
    5339                      .dwpsn  "src\global.c",805,5
    5340 0000065c 885B          MOVZ      AR6,*-SP[27]          ; |805| 
    5341 0000065d 0642          MOVL      ACC,*-SP[2]           ; |805| 
    5342 0000065e 835A          MOVL      XAR5,*-SP[26]         ; |805| 
    5343 0000065f 0DA6          ADDU      ACC,AR6               ; |805| 
    5344 00000660 8AA9          MOVL      XAR4,ACC              ; |805| 
    5345 00000661 7640'         LCR       #_global_strcpy       ; |805| 
         00000662 021B 
    5346                      ; call occurs [#_global_strcpy] ; |805| 
    5347                      .dwpsn  "src\global.c",806,5
    5348 00000663 925C          MOV       AL,*-SP[28]           ; |806| 
    5349 00000664 725B          ADD       *-SP[27],AL           ; |806| 
    5350                      .dwpsn  "src\global.c",808,4
    5351 00000665 6FC5          B         L127,UNC              ; |808| 
    5352                      ; branch occurs ; |808| 
    5353              DW$L$_global_sprintf$15$E:
    5354              L133:    
    5355              DW$L$_global_sprintf$16$B:
    5356                      .dwpsn  "src\global.c",810,4
    5357 00000666 285C          MOV       *-SP[28],#1           ; |810| 
         00000667 0001 
    5358                      .dwpsn  "src\global.c",811,4
    5359 00000668 925B          MOV       AL,*-SP[27]           ; |811| 
    5360 00000669 945C          ADD       AL,*-SP[28]           ; |811| 
    5361 0000066a 5443          CMP       AL,*-SP[3]            ; |811| 
    5362 0000066b 67BF          B         L127,HIS              ; |811| 
    5363                      ; branchcc occurs ; |811| 
    5364              DW$L$_global_sprintf$16$E:
    5365              DW$L$_global_sprintf$17$B:
    5366                      .dwpsn  "src\global.c",813,5
    5367 0000066c 0201          MOVB      ACC,#1
    5368 0000066d 8342          MOVL      XAR5,*-SP[2]          ; |813| 
    5369 0000066e 5641          SUBL      *-SP[6],ACC           ; |813| 
         0000066f 0046 
    5370 00000670 8A46          MOVL      XAR4,*-SP[6]          ; |813| 
    5371 00000671 585B          MOVZ      AR0,*-SP[27]          ; |813| 
    5372 00000672 0A5B          INC       *-SP[27]              ; |813| 
    5373 00000673 92C4          MOV       AL,*+XAR4[0]          ; |813| 
    5374 00000674 9695          MOV       *+XAR5[AR0],AL        ; |813| 
    5375                      .dwpsn  "src\global.c",815,4
    5376 00000675 6FB5          B         L127,UNC              ; |815| 
    5377                      ; branch occurs ; |815| 
    5378              DW$L$_global_sprintf$17$E:
    5379              L134:    
    5380              DW$L$_global_sprintf$18$B:
    5381                      .dwpsn  "src\global.c",817,4
    5382 00000676 0646          MOVL      ACC,*-SP[6]           ; |817| 
    5383 00000677 9001          ANDB      AL,#0x01              ; |817| 
    5384 00000678 9B00          MOVB      AH,#0
    5385 00000679 FF58          TEST      ACC                   ; |817| 
    5386 0000067a EC03          BF        L135,EQ               ; |817| 
    5387                      ; branchcc occurs ; |817| 
TMS320C2000 COFF Assembler PC v4.1.3 Thu Aug 04 16:21:37 2011

Tools Copyright (c) 1996-2006 Texas Instruments Incorporated
C:\DOCUME~1\ADMINI~1\LOCALS~1\Temp\TI8402                            PAGE  102

    5388 0000067b       DW$L$_global_sprintf$18$E:
    5389 0000067b       DW$L$_global_sprintf$19$B:
    5390 0000067b 0202          MOVB      ACC,#2
    5391 0000067c 6F02          B         L136,UNC              ; |817| 
    5392                      ; branch occurs ; |817| 
    5393 0000067d       DW$L$_global_sprintf$19$E:
    5394 0000067d       L135:    
    5395 0000067d       DW$L$_global_sprintf$20$B:
    5396 0000067d 0201          MOVB      ACC,#1
    5397 0000067e       DW$L$_global_sprintf$20$E:
    5398 0000067e       L136:    
    5399 0000067e       DW$L$_global_sprintf$21$B:
    5400 0000067e 0901          ADDB      ACC,#1                ; |817| 
    5401 0000067f 5641          SUBL      *-SP[6],ACC           ; |817| 
         00000680 0046 
    5402 00000681 8A46          MOVL      XAR4,*-SP[6]          ; |817| 
    5403 00000682 06C4          MOVL      ACC,*+XAR4[0]         ; |817| 
    5404 00000683 5CAD          MOVZ      AR4,SP                ; |817| 
    5405 00000684 D503          MOVB      XAR5,#3               ; |817| 
    5406 00000685 DC98          SUBB      XAR4,#24              ; |817| 
    5407 00000686 7640'         LCR       #_global_ftoa         ; |817| 
         00000687 0324 
    5408                      ; call occurs [#_global_ftoa] ; |817| 
    5409 00000688 965C          MOV       *-SP[28],AL           ; |817| 
    5410                      .dwpsn  "src\global.c",818,4
    5411 00000689 925B          MOV       AL,*-SP[27]           ; |818| 
    5412 0000068a 945C          ADD       AL,*-SP[28]           ; |818| 
    5413 0000068b 5443          CMP       AL,*-SP[3]            ; |818| 
    5414 0000068c 679E          B         L127,HIS              ; |818| 
    5415                      ; branchcc occurs ; |818| 
    5416              DW$L$_global_sprintf$21$E:
    5417              DW$L$_global_sprintf$22$B:
    5418                      .dwpsn  "src\global.c",820,5
    5419 0000068d 5DAD          MOVZ      AR5,SP                ; |820| 
    5420 0000068e 8A42          MOVL      XAR4,*-SP[2]          ; |820| 
    5421 0000068f DD98          SUBB      XAR5,#24              ; |820| 
    5422 00000690 7640'         LCR       #_global_strcat       ; |820| 
         00000691 0212 
    5423                      ; call occurs [#_global_strcat] ; |820| 
    5424                      .dwpsn  "src\global.c",821,5
    5425 00000692 925C          MOV       AL,*-SP[28]           ; |821| 
    5426 00000693 725B          ADD       *-SP[27],AL           ; |821| 
    5427                      .dwpsn  "src\global.c",823,4
    5428 00000694 6F96          B         L127,UNC              ; |823| 
    5429                      ; branch occurs ; |823| 
    5430              DW$L$_global_sprintf$22$E:
    5431              L137:    
    5432              DW$L$_global_sprintf$23$B:
    5433                      .dwpsn  "src\global.c",825,4
    5434 00000695 0646          MOVL      ACC,*-SP[6]           ; |825| 
    5435 00000696 9001          ANDB      AL,#0x01              ; |825| 
    5436 00000697 9B00          MOVB      AH,#0
    5437 00000698 FF58          TEST      ACC                   ; |825| 
    5438 00000699 EC03          BF        L138,EQ               ; |825| 
    5439                      ; branchcc occurs ; |825| 
TMS320C2000 COFF Assembler PC v4.1.3 Thu Aug 04 16:21:37 2011

Tools Copyright (c) 1996-2006 Texas Instruments Incorporated
C:\DOCUME~1\ADMINI~1\LOCALS~1\Temp\TI8402                            PAGE  103

    5440 0000069a       DW$L$_global_sprintf$23$E:
    5441 0000069a       DW$L$_global_sprintf$24$B:
    5442 0000069a 0202          MOVB      ACC,#2
    5443 0000069b 6F02          B         L139,UNC              ; |825| 
    5444                      ; branch occurs ; |825| 
    5445 0000069c       DW$L$_global_sprintf$24$E:
    5446 0000069c       L138:    
    5447 0000069c       DW$L$_global_sprintf$25$B:
    5448 0000069c 0201          MOVB      ACC,#1
    5449 0000069d       DW$L$_global_sprintf$25$E:
    5450 0000069d       L139:    
    5451 0000069d       DW$L$_global_sprintf$26$B:
    5452 0000069d 0901          ADDB      ACC,#1                ; |825| 
    5453 0000069e 5641          SUBL      *-SP[6],ACC           ; |825| 
         0000069f 0046 
    5454 000006a0 8A46          MOVL      XAR4,*-SP[6]          ; |825| 
    5455 000006a1 06C4          MOVL      ACC,*+XAR4[0]         ; |825| 
    5456 000006a2 5CAD          MOVZ      AR4,SP                ; |825| 
    5457 000006a3 DC98          SUBB      XAR4,#24              ; |825| 
    5458 000006a4 7640'         LCR       #_global_ltoa         ; |825| 
         000006a5 02E8 
    5459                      ; call occurs [#_global_ltoa] ; |825| 
    5460 000006a6 965C          MOV       *-SP[28],AL           ; |825| 
    5461                      .dwpsn  "src\global.c",826,4
    5462 000006a7 925B          MOV       AL,*-SP[27]           ; |826| 
    5463 000006a8 945C          ADD       AL,*-SP[28]           ; |826| 
    5464 000006a9 5443          CMP       AL,*-SP[3]            ; |826| 
    5465 000006aa 6780          B         L127,HIS              ; |826| 
    5466                      ; branchcc occurs ; |826| 
    5467              DW$L$_global_sprintf$26$E:
    5468              DW$L$_global_sprintf$27$B:
    5469                      .dwpsn  "src\global.c",828,5
    5470 000006ab 5DAD          MOVZ      AR5,SP                ; |828| 
    5471 000006ac 8A42          MOVL      XAR4,*-SP[2]          ; |828| 
    5472 000006ad DD98          SUBB      XAR5,#24              ; |828| 
    5473 000006ae 7640'         LCR       #_global_strcat       ; |828| 
         000006af 0212 
    5474                      ; call occurs [#_global_strcat] ; |828| 
    5475                      .dwpsn  "src\global.c",829,5
    5476 000006b0 925C          MOV       AL,*-SP[28]           ; |829| 
    5477 000006b1 725B          ADD       *-SP[27],AL           ; |829| 
    5478                      .dwpsn  "src\global.c",831,4
    5479 000006b2 FFEF          B         L127,UNC              ; |831| 
         000006b3 FF78 
    5480                      ; branch occurs ; |831| 
    5481              DW$L$_global_sprintf$27$E:
    5482              L140:    
    5483              DW$L$_global_sprintf$28$B:
    5484                      .dwpsn  "src\global.c",834,4
    5485 000006b4 0201          MOVB      ACC,#1
    5486 000006b5 5641          SUBL      *-SP[6],ACC           ; |834| 
         000006b6 0046 
    5487 000006b7 8A46          MOVL      XAR4,*-SP[6]          ; |834| 
    5488 000006b8 92C4          MOV       AL,*+XAR4[0]          ; |834| 
    5489 000006b9 5CAD          MOVZ      AR4,SP                ; |834| 
TMS320C2000 COFF Assembler PC v4.1.3 Thu Aug 04 16:21:37 2011

Tools Copyright (c) 1996-2006 Texas Instruments Incorporated
C:\DOCUME~1\ADMINI~1\LOCALS~1\Temp\TI8402                            PAGE  104

    5490 000006ba DC98          SUBB      XAR4,#24              ; |834| 
    5491 000006bb 7640'         LCR       #_global_itoa         ; |834| 
         000006bc 02B1 
    5492                      ; call occurs [#_global_itoa] ; |834| 
    5493 000006bd 965C          MOV       *-SP[28],AL           ; |834| 
    5494                      .dwpsn  "src\global.c",835,4
    5495 000006be 925B          MOV       AL,*-SP[27]           ; |835| 
    5496 000006bf 945C          ADD       AL,*-SP[28]           ; |835| 
    5497 000006c0 5443          CMP       AL,*-SP[3]            ; |835| 
    5498 000006c1 FFE7          B         L127,HIS              ; |835| 
         000006c2 FF69 
    5499                      ; branchcc occurs ; |835| 
    5500              DW$L$_global_sprintf$28$E:
    5501              DW$L$_global_sprintf$29$B:
    5502                      .dwpsn  "src\global.c",837,5
    5503 000006c3 5DAD          MOVZ      AR5,SP                ; |837| 
    5504 000006c4 8A42          MOVL      XAR4,*-SP[2]          ; |837| 
    5505 000006c5 DD98          SUBB      XAR5,#24              ; |837| 
    5506 000006c6 7640'         LCR       #_global_strcat       ; |837| 
         000006c7 0212 
    5507                      ; call occurs [#_global_strcat] ; |837| 
    5508                      .dwpsn  "src\global.c",838,5
    5509 000006c8 925C          MOV       AL,*-SP[28]           ; |838| 
    5510 000006c9 725B          ADD       *-SP[27],AL           ; |838| 
    5511                      .dwpsn  "src\global.c",840,4
    5512 000006ca FFEF          B         L127,UNC              ; |840| 
         000006cb FF60 
    5513                      ; branch occurs ; |840| 
    5514              DW$L$_global_sprintf$29$E:
    5515              L141:    
    5516              DW$L$_global_sprintf$31$B:
    5517                      .dwpsn  "src\global.c",798,3
    5518 000006cc 524C          CMPB      AL,#76                ; |798| 
    5519 000006cd 620B          B         L142,GT               ; |798| 
    5520                      ; branchcc occurs ; |798| 
    5521 000006ce       DW$L$_global_sprintf$31$E:
    5522 000006ce       DW$L$_global_sprintf$32$B:
    5523 000006ce 524C          CMPB      AL,#76                ; |798| 
    5524 000006cf ECC6          BF        L137,EQ               ; |798| 
    5525                      ; branchcc occurs ; |798| 
    5526 000006d0       DW$L$_global_sprintf$32$E:
    5527 000006d0       DW$L$_global_sprintf$33$B:
    5528 000006d0 5243          CMPB      AL,#67                ; |798| 
    5529 000006d1 EC95          BF        L133,EQ               ; |798| 
    5530                      ; branchcc occurs ; |798| 
    5531 000006d2       DW$L$_global_sprintf$33$E:
    5532 000006d2       DW$L$_global_sprintf$34$B:
    5533 000006d2 5244          CMPB      AL,#68                ; |798| 
    5534 000006d3 ECE1          BF        L140,EQ               ; |798| 
    5535                      ; branchcc occurs ; |798| 
    5536 000006d4       DW$L$_global_sprintf$34$E:
    5537 000006d4       DW$L$_global_sprintf$35$B:
    5538 000006d4 5246          CMPB      AL,#70                ; |798| 
    5539 000006d5 ECA1          BF        L134,EQ               ; |798| 
    5540                      ; branchcc occurs ; |798| 
TMS320C2000 COFF Assembler PC v4.1.3 Thu Aug 04 16:21:37 2011

Tools Copyright (c) 1996-2006 Texas Instruments Incorporated
C:\DOCUME~1\ADMINI~1\LOCALS~1\Temp\TI8402                            PAGE  105

    5541 000006d6       DW$L$_global_sprintf$35$E:
    5542 000006d6       DW$L$_global_sprintf$36$B:
    5543 000006d6 FFEF          B         L127,UNC              ; |798| 
         000006d7 FF54 
    5544                      ; branch occurs ; |798| 
    5545 000006d8       DW$L$_global_sprintf$36$E:
    5546 000006d8       L142:    
    5547 000006d8       DW$L$_global_sprintf$37$B:
    5548 000006d8 5253          CMPB      AL,#83                ; |798| 
    5549 000006d9 56C1          BF        L130,EQ               ; |798| 
         000006da FF6D 
    5550                      ; branchcc occurs ; |798| 
    5551 000006db       DW$L$_global_sprintf$37$E:
    5552 000006db       DW$L$_global_sprintf$38$B:
    5553 000006db 5255          CMPB      AL,#85                ; |798| 
    5554 000006dc ECD8          BF        L140,EQ               ; |798| 
    5555                      ; branchcc occurs ; |798| 
    5556 000006dd       DW$L$_global_sprintf$38$E:
    5557 000006dd       DW$L$_global_sprintf$39$B:
    5558 000006dd FFEF          B         L127,UNC              ; |798| 
         000006de FF4D 
    5559                      ; branch occurs ; |798| 
    5560              DW$L$_global_sprintf$39$E:
    5561              L143:    
    5562                      .dwpsn  "src\global.c",846,2
    5563 000006df 925B          MOV       AL,*-SP[27]           ; |846| 
    5564                      .dwpsn  "src\global.c",847,1
    5565 000006e0 FE9C          SUBB      SP,#28                ; |846| 
    5566                      .dwcfa  0x1d, -2
    5567 000006e1 0006          LRETR
    5568                      ; return occurs
    5569              
    5570              DW$417  .dwtag  DW_TAG_loop
    5571                      .dwattr DW$417, DW_AT_name("C:\DOCUME~1\ADMINI~1\LOCALS~1\Temp\TI8402:L127:1:1312446096")
    5572                      .dwattr DW$417, DW_AT_begin_file("src\global.c")
    5573                      .dwattr DW$417, DW_AT_begin_line(0x312)
    5574                      .dwattr DW$417, DW_AT_end_line(0x34c)
    5575              DW$418  .dwtag  DW_TAG_loop_range
    5576                      .dwattr DW$418, DW_AT_low_pc(DW$L$_global_sprintf$2$B)
    5577                      .dwattr DW$418, DW_AT_high_pc(DW$L$_global_sprintf$2$E)
    5578              DW$419  .dwtag  DW_TAG_loop_range
    5579                      .dwattr DW$419, DW_AT_low_pc(DW$L$_global_sprintf$38$B)
    5580                      .dwattr DW$419, DW_AT_high_pc(DW$L$_global_sprintf$38$E)
    5581              DW$420  .dwtag  DW_TAG_loop_range
    5582                      .dwattr DW$420, DW_AT_low_pc(DW$L$_global_sprintf$23$B)
    5583                      .dwattr DW$420, DW_AT_high_pc(DW$L$_global_sprintf$23$E)
    5584              DW$421  .dwtag  DW_TAG_loop_range
    5585                      .dwattr DW$421, DW_AT_low_pc(DW$L$_global_sprintf$24$B)
    5586                      .dwattr DW$421, DW_AT_high_pc(DW$L$_global_sprintf$24$E)
    5587              DW$422  .dwtag  DW_TAG_loop_range
    5588                      .dwattr DW$422, DW_AT_low_pc(DW$L$_global_sprintf$25$B)
    5589                      .dwattr DW$422, DW_AT_high_pc(DW$L$_global_sprintf$25$E)
    5590              DW$423  .dwtag  DW_TAG_loop_range
    5591                      .dwattr DW$423, DW_AT_low_pc(DW$L$_global_sprintf$34$B)
    5592                      .dwattr DW$423, DW_AT_high_pc(DW$L$_global_sprintf$34$E)
TMS320C2000 COFF Assembler PC v4.1.3 Thu Aug 04 16:21:37 2011

Tools Copyright (c) 1996-2006 Texas Instruments Incorporated
C:\DOCUME~1\ADMINI~1\LOCALS~1\Temp\TI8402                            PAGE  106

    5593              DW$424  .dwtag  DW_TAG_loop_range
    5594                      .dwattr DW$424, DW_AT_low_pc(DW$L$_global_sprintf$35$B)
    5595                      .dwattr DW$424, DW_AT_high_pc(DW$L$_global_sprintf$35$E)
    5596              DW$425  .dwtag  DW_TAG_loop_range
    5597                      .dwattr DW$425, DW_AT_low_pc(DW$L$_global_sprintf$18$B)
    5598                      .dwattr DW$425, DW_AT_high_pc(DW$L$_global_sprintf$18$E)
    5599              DW$426  .dwtag  DW_TAG_loop_range
    5600                      .dwattr DW$426, DW_AT_low_pc(DW$L$_global_sprintf$19$B)
    5601                      .dwattr DW$426, DW_AT_high_pc(DW$L$_global_sprintf$19$E)
    5602              DW$427  .dwtag  DW_TAG_loop_range
    5603                      .dwattr DW$427, DW_AT_low_pc(DW$L$_global_sprintf$20$B)
    5604                      .dwattr DW$427, DW_AT_high_pc(DW$L$_global_sprintf$20$E)
    5605              DW$428  .dwtag  DW_TAG_loop_range
    5606                      .dwattr DW$428, DW_AT_low_pc(DW$L$_global_sprintf$32$B)
    5607                      .dwattr DW$428, DW_AT_high_pc(DW$L$_global_sprintf$32$E)
    5608              DW$429  .dwtag  DW_TAG_loop_range
    5609                      .dwattr DW$429, DW_AT_low_pc(DW$L$_global_sprintf$33$B)
    5610                      .dwattr DW$429, DW_AT_high_pc(DW$L$_global_sprintf$33$E)
    5611              DW$430  .dwtag  DW_TAG_loop_range
    5612                      .dwattr DW$430, DW_AT_low_pc(DW$L$_global_sprintf$5$B)
    5613                      .dwattr DW$430, DW_AT_high_pc(DW$L$_global_sprintf$5$E)
    5614              DW$431  .dwtag  DW_TAG_loop_range
    5615                      .dwattr DW$431, DW_AT_low_pc(DW$L$_global_sprintf$6$B)
    5616                      .dwattr DW$431, DW_AT_high_pc(DW$L$_global_sprintf$6$E)
    5617              DW$432  .dwtag  DW_TAG_loop_range
    5618                      .dwattr DW$432, DW_AT_low_pc(DW$L$_global_sprintf$7$B)
    5619                      .dwattr DW$432, DW_AT_high_pc(DW$L$_global_sprintf$7$E)
    5620              DW$433  .dwtag  DW_TAG_loop_range
    5621                      .dwattr DW$433, DW_AT_low_pc(DW$L$_global_sprintf$8$B)
    5622                      .dwattr DW$433, DW_AT_high_pc(DW$L$_global_sprintf$8$E)
    5623              DW$434  .dwtag  DW_TAG_loop_range
    5624                      .dwattr DW$434, DW_AT_low_pc(DW$L$_global_sprintf$9$B)
    5625                      .dwattr DW$434, DW_AT_high_pc(DW$L$_global_sprintf$9$E)
    5626              DW$435  .dwtag  DW_TAG_loop_range
    5627                      .dwattr DW$435, DW_AT_low_pc(DW$L$_global_sprintf$31$B)
    5628                      .dwattr DW$435, DW_AT_high_pc(DW$L$_global_sprintf$31$E)
    5629              DW$436  .dwtag  DW_TAG_loop_range
    5630                      .dwattr DW$436, DW_AT_low_pc(DW$L$_global_sprintf$37$B)
    5631                      .dwattr DW$436, DW_AT_high_pc(DW$L$_global_sprintf$37$E)
    5632              DW$437  .dwtag  DW_TAG_loop_range
    5633                      .dwattr DW$437, DW_AT_low_pc(DW$L$_global_sprintf$11$B)
    5634                      .dwattr DW$437, DW_AT_high_pc(DW$L$_global_sprintf$11$E)
    5635              DW$438  .dwtag  DW_TAG_loop_range
    5636                      .dwattr DW$438, DW_AT_low_pc(DW$L$_global_sprintf$12$B)
    5637                      .dwattr DW$438, DW_AT_high_pc(DW$L$_global_sprintf$12$E)
    5638              DW$439  .dwtag  DW_TAG_loop_range
    5639                      .dwattr DW$439, DW_AT_low_pc(DW$L$_global_sprintf$13$B)
    5640                      .dwattr DW$439, DW_AT_high_pc(DW$L$_global_sprintf$13$E)
    5641              DW$440  .dwtag  DW_TAG_loop_range
    5642                      .dwattr DW$440, DW_AT_low_pc(DW$L$_global_sprintf$3$B)
    5643                      .dwattr DW$440, DW_AT_high_pc(DW$L$_global_sprintf$3$E)
    5644              DW$441  .dwtag  DW_TAG_loop_range
    5645                      .dwattr DW$441, DW_AT_low_pc(DW$L$_global_sprintf$39$B)
    5646                      .dwattr DW$441, DW_AT_high_pc(DW$L$_global_sprintf$39$E)
    5647              DW$442  .dwtag  DW_TAG_loop_range
TMS320C2000 COFF Assembler PC v4.1.3 Thu Aug 04 16:21:37 2011

Tools Copyright (c) 1996-2006 Texas Instruments Incorporated
C:\DOCUME~1\ADMINI~1\LOCALS~1\Temp\TI8402                            PAGE  107

    5648                      .dwattr DW$442, DW_AT_low_pc(DW$L$_global_sprintf$36$B)
    5649                      .dwattr DW$442, DW_AT_high_pc(DW$L$_global_sprintf$36$E)
    5650              DW$443  .dwtag  DW_TAG_loop_range
    5651                      .dwattr DW$443, DW_AT_low_pc(DW$L$_global_sprintf$29$B)
    5652                      .dwattr DW$443, DW_AT_high_pc(DW$L$_global_sprintf$29$E)
    5653              DW$444  .dwtag  DW_TAG_loop_range
    5654                      .dwattr DW$444, DW_AT_low_pc(DW$L$_global_sprintf$28$B)
    5655                      .dwattr DW$444, DW_AT_high_pc(DW$L$_global_sprintf$28$E)
    5656              DW$445  .dwtag  DW_TAG_loop_range
    5657                      .dwattr DW$445, DW_AT_low_pc(DW$L$_global_sprintf$27$B)
    5658                      .dwattr DW$445, DW_AT_high_pc(DW$L$_global_sprintf$27$E)
    5659              DW$446  .dwtag  DW_TAG_loop_range
    5660                      .dwattr DW$446, DW_AT_low_pc(DW$L$_global_sprintf$26$B)
    5661                      .dwattr DW$446, DW_AT_high_pc(DW$L$_global_sprintf$26$E)
    5662              DW$447  .dwtag  DW_TAG_loop_range
    5663                      .dwattr DW$447, DW_AT_low_pc(DW$L$_global_sprintf$22$B)
    5664                      .dwattr DW$447, DW_AT_high_pc(DW$L$_global_sprintf$22$E)
    5665              DW$448  .dwtag  DW_TAG_loop_range
    5666                      .dwattr DW$448, DW_AT_low_pc(DW$L$_global_sprintf$21$B)
    5667                      .dwattr DW$448, DW_AT_high_pc(DW$L$_global_sprintf$21$E)
    5668              DW$449  .dwtag  DW_TAG_loop_range
    5669                      .dwattr DW$449, DW_AT_low_pc(DW$L$_global_sprintf$17$B)
    5670                      .dwattr DW$449, DW_AT_high_pc(DW$L$_global_sprintf$17$E)
    5671              DW$450  .dwtag  DW_TAG_loop_range
    5672                      .dwattr DW$450, DW_AT_low_pc(DW$L$_global_sprintf$16$B)
    5673                      .dwattr DW$450, DW_AT_high_pc(DW$L$_global_sprintf$16$E)
    5674              DW$451  .dwtag  DW_TAG_loop_range
    5675                      .dwattr DW$451, DW_AT_low_pc(DW$L$_global_sprintf$15$B)
    5676                      .dwattr DW$451, DW_AT_high_pc(DW$L$_global_sprintf$15$E)
    5677              DW$452  .dwtag  DW_TAG_loop_range
    5678                      .dwattr DW$452, DW_AT_low_pc(DW$L$_global_sprintf$14$B)
    5679                      .dwattr DW$452, DW_AT_high_pc(DW$L$_global_sprintf$14$E)
    5680              DW$453  .dwtag  DW_TAG_loop_range
    5681                      .dwattr DW$453, DW_AT_low_pc(DW$L$_global_sprintf$4$B)
    5682                      .dwattr DW$453, DW_AT_high_pc(DW$L$_global_sprintf$4$E)
    5683                      .dwendtag DW$417
    5684              
    5685                      .dwattr DW$403, DW_AT_end_file("src\global.c")
    5686                      .dwattr DW$403, DW_AT_end_line(0x34f)
    5687                      .dwattr DW$403, DW_AT_end_column(0x01)
    5688                      .dwendentry
    5689                      .dwendtag DW$403
    5690              
    5691 000006e2               .sect   ".text"
    5692                      .global _link_list_lock
    5693              
    5694              DW$454  .dwtag  DW_TAG_subprogram, DW_AT_name("link_list_lock"), DW_AT_symbol_name("_link_list_lock")
    5695                      .dwattr DW$454, DW_AT_low_pc(_link_list_lock)
    5696                      .dwattr DW$454, DW_AT_high_pc(0x00)
    5697                      .dwattr DW$454, DW_AT_begin_file("src\link_list_maneger.c")
    5698                      .dwattr DW$454, DW_AT_begin_line(0x1a)
    5699                      .dwattr DW$454, DW_AT_begin_column(0x06)
    5700                      .dwpsn  "src\link_list_maneger.c",27,1
    5701              
    5702                      .dwfde DW$CIE
TMS320C2000 COFF Assembler PC v4.1.3 Thu Aug 04 16:21:37 2011

Tools Copyright (c) 1996-2006 Texas Instruments Incorporated
C:\DOCUME~1\ADMINI~1\LOCALS~1\Temp\TI8402                            PAGE  108

    5703              
    5704              ;***************************************************************
    5705              ;* FNAME: _link_list_lock               FR SIZE:   0           *
    5706              ;*                                                             *
    5707              ;* FUNCTION ENVIRONMENT                                        *
    5708              ;*                                                             *
    5709              ;* FUNCTION PROPERTIES                                         *
    5710              ;*                            0 Parameter,  0 Auto,  0 SOE     *
    5711              ;***************************************************************
    5712              
    5713              _link_list_lock:
    5714                      .dwcfa  0x1d, -2
    5715                      .dwcfa  0x1c, 26, 0
    5716                      .dwcfa  0x09, 40, 26
    5717                      .dwpsn  "src\link_list_maneger.c",28,2
    5718 000006e2 761F-         MOVW      DP,#_m_link_list_lock
         000006e3 0000 
    5719 000006e4 8A04-         MOVL      XAR4,@_m_link_list_lock ; |28| 
    5720 000006e5 7640!         LCR       #_os_lock             ; |28| 
         000006e6 0000 
    5721                      ; call occurs [#_os_lock] ; |28| 
    5722                      .dwpsn  "src\link_list_maneger.c",29,2
    5723                      .dwpsn  "src\link_list_maneger.c",30,1
    5724 000006e7 0006          LRETR
    5725                      ; return occurs
    5726                      .dwattr DW$454, DW_AT_end_file("src\link_list_maneger.c")
    5727                      .dwattr DW$454, DW_AT_end_line(0x1e)
    5728                      .dwattr DW$454, DW_AT_end_column(0x01)
    5729                      .dwendentry
    5730                      .dwendtag DW$454
    5731              
    5732 000006e8               .sect   ".text"
    5733                      .global _link_list_unlock
    5734              
    5735              DW$455  .dwtag  DW_TAG_subprogram, DW_AT_name("link_list_unlock"), DW_AT_symbol_name("_link_list_unlock")
    5736                      .dwattr DW$455, DW_AT_low_pc(_link_list_unlock)
    5737                      .dwattr DW$455, DW_AT_high_pc(0x00)
    5738                      .dwattr DW$455, DW_AT_begin_file("src\link_list_maneger.c")
    5739                      .dwattr DW$455, DW_AT_begin_line(0x1f)
    5740                      .dwattr DW$455, DW_AT_begin_column(0x06)
    5741                      .dwpsn  "src\link_list_maneger.c",32,1
    5742              
    5743                      .dwfde DW$CIE
    5744              
    5745              ;***************************************************************
    5746              ;* FNAME: _link_list_unlock             FR SIZE:   0           *
    5747              ;*                                                             *
    5748              ;* FUNCTION ENVIRONMENT                                        *
    5749              ;*                                                             *
    5750              ;* FUNCTION PROPERTIES                                         *
    5751              ;*                            0 Parameter,  0 Auto,  0 SOE     *
    5752              ;***************************************************************
    5753              
    5754              _link_list_unlock:
    5755                      .dwcfa  0x1d, -2
TMS320C2000 COFF Assembler PC v4.1.3 Thu Aug 04 16:21:37 2011

Tools Copyright (c) 1996-2006 Texas Instruments Incorporated
C:\DOCUME~1\ADMINI~1\LOCALS~1\Temp\TI8402                            PAGE  109

    5756                      .dwcfa  0x1c, 26, 0
    5757                      .dwcfa  0x09, 40, 26
    5758                      .dwpsn  "src\link_list_maneger.c",33,2
    5759 000006e8 761F-         MOVW      DP,#_m_link_list_lock
         000006e9 0000 
    5760 000006ea 8A04-         MOVL      XAR4,@_m_link_list_lock ; |33| 
    5761 000006eb 7640!         LCR       #_os_unlock           ; |33| 
         000006ec 0000 
    5762                      ; call occurs [#_os_unlock] ; |33| 
    5763                      .dwpsn  "src\link_list_maneger.c",34,2
    5764                      .dwpsn  "src\link_list_maneger.c",35,1
    5765 000006ed 0006          LRETR
    5766                      ; return occurs
    5767                      .dwattr DW$455, DW_AT_end_file("src\link_list_maneger.c")
    5768                      .dwattr DW$455, DW_AT_end_line(0x23)
    5769                      .dwattr DW$455, DW_AT_end_column(0x01)
    5770                      .dwendentry
    5771                      .dwendtag DW$455
    5772              
    5773 000006ee               .sect   ".text"
    5774                      .global _link_list_lock_creat
    5775              
    5776              DW$456  .dwtag  DW_TAG_subprogram, DW_AT_name("link_list_lock_creat"), DW_AT_symbol_name("_link_list_lock_cre
    5777                      .dwattr DW$456, DW_AT_low_pc(_link_list_lock_creat)
    5778                      .dwattr DW$456, DW_AT_high_pc(0x00)
    5779                      .dwattr DW$456, DW_AT_begin_file("src\link_list_maneger.c")
    5780                      .dwattr DW$456, DW_AT_begin_line(0x24)
    5781                      .dwattr DW$456, DW_AT_begin_column(0x06)
    5782                      .dwpsn  "src\link_list_maneger.c",37,1
    5783              
    5784                      .dwfde DW$CIE
    5785              
    5786              ;***************************************************************
    5787              ;* FNAME: _link_list_lock_creat         FR SIZE:   0           *
    5788              ;*                                                             *
    5789              ;* FUNCTION ENVIRONMENT                                        *
    5790              ;*                                                             *
    5791              ;* FUNCTION PROPERTIES                                         *
    5792              ;*                            0 Parameter,  0 Auto,  0 SOE     *
    5793              ;***************************************************************
    5794              
    5795              _link_list_lock_creat:
    5796                      .dwcfa  0x1d, -2
    5797                      .dwcfa  0x1c, 26, 0
    5798                      .dwcfa  0x09, 40, 26
    5799                      .dwpsn  "src\link_list_maneger.c",38,2
    5800 000006ee 8F00-         MOVL      XAR4,#_m_link_list_lock ; |38| 
         000006ef 0004 
    5801 000006f0 7640!         LCR       #_os_lock_creat       ; |38| 
         000006f1 0000 
    5802                      ; call occurs [#_os_lock_creat] ; |38| 
    5803                      .dwpsn  "src\link_list_maneger.c",39,2
    5804                      .dwpsn  "src\link_list_maneger.c",40,1
    5805 000006f2 0006          LRETR
    5806                      ; return occurs
TMS320C2000 COFF Assembler PC v4.1.3 Thu Aug 04 16:21:37 2011

Tools Copyright (c) 1996-2006 Texas Instruments Incorporated
C:\DOCUME~1\ADMINI~1\LOCALS~1\Temp\TI8402                            PAGE  110

    5807                      .dwattr DW$456, DW_AT_end_file("src\link_list_maneger.c")
    5808                      .dwattr DW$456, DW_AT_end_line(0x28)
    5809                      .dwattr DW$456, DW_AT_end_column(0x01)
    5810                      .dwendentry
    5811                      .dwendtag DW$456
    5812              
    5813 000006f3               .sect   ".text"
    5814                      .global _link_list_tcb_req
    5815              
    5816              DW$457  .dwtag  DW_TAG_subprogram, DW_AT_name("link_list_tcb_req"), DW_AT_symbol_name("_link_list_tcb_req")
    5817                      .dwattr DW$457, DW_AT_low_pc(_link_list_tcb_req)
    5818                      .dwattr DW$457, DW_AT_high_pc(0x00)
    5819                      .dwattr DW$457, DW_AT_begin_file("src\link_list_maneger.c")
    5820                      .dwattr DW$457, DW_AT_begin_line(0x31)
    5821                      .dwattr DW$457, DW_AT_begin_column(0x13)
    5822                      .dwpsn  "src\link_list_maneger.c",50,1
    5823              
    5824                      .dwfde DW$CIE
    5825              
    5826              ;***************************************************************
    5827              ;* FNAME: _link_list_tcb_req            FR SIZE:   4           *
    5828              ;*                                                             *
    5829              ;* FUNCTION ENVIRONMENT                                        *
    5830              ;*                                                             *
    5831              ;* FUNCTION PROPERTIES                                         *
    5832              ;*                            0 Parameter,  4 Auto,  0 SOE     *
    5833              ;***************************************************************
    5834              
    5835              _link_list_tcb_req:
    5836                      .dwcfa  0x1d, -2
    5837                      .dwcfa  0x1c, 26, 0
    5838                      .dwcfa  0x09, 40, 26
    5839 000006f3 FE04          ADDB      SP,#4
    5840                      .dwcfa  0x1d, -6
    5841              DW$458  .dwtag  DW_TAG_variable, DW_AT_name("index"), DW_AT_symbol_name("_index")
    5842                      .dwattr DW$458, DW_AT_type(*DW$T$23)
    5843                      .dwattr DW$458, DW_AT_location[DW_OP_breg20 -1]
    5844              DW$459  .dwtag  DW_TAG_variable, DW_AT_name("lptr"), DW_AT_symbol_name("_lptr")
    5845                      .dwattr DW$459, DW_AT_type(*DW$T$101)
    5846                      .dwattr DW$459, DW_AT_location[DW_OP_breg20 -4]
    5847                      .dwpsn  "src\link_list_maneger.c",53,2
    5848 000006f4 7640'         LCR       #_link_list_lock      ; |53| 
         000006f5 06E2 
    5849                      ; call occurs [#_link_list_lock] ; |53| 
    5850                      .dwpsn  "src\link_list_maneger.c",54,8
    5851 000006f6 2B41          MOV       *-SP[1],#0            ; |54| 
    5852                      .dwpsn  "src\link_list_maneger.c",54,18
    5853 000006f7 9241          MOV       AL,*-SP[1]            ; |54| 
    5854 000006f8 520A          CMPB      AL,#10                ; |54| 
    5855 000006f9 6725          B         L146,HIS              ; |54| 
    5856                      ; branchcc occurs ; |54| 
    5857              L144:    
    5858              DW$L$_link_list_tcb_req$2$B:
    5859                      .dwpsn  "src\link_list_maneger.c",56,3
    5860 000006fa 28AC          MOV       T,#6                  ; |56| 
TMS320C2000 COFF Assembler PC v4.1.3 Thu Aug 04 16:21:37 2011

Tools Copyright (c) 1996-2006 Texas Instruments Incorporated
C:\DOCUME~1\ADMINI~1\LOCALS~1\Temp\TI8402                            PAGE  111

         000006fb 0006 
    5861 000006fc 8F00-         MOVL      XAR4,#_g_link_list_maneger_tcb+2 ; |56| 
         000006fd 0042 
    5862 000006fe 3041          MPYXU     ACC,T,*-SP[1]         ; |56| 
    5863 000006ff 5601          ADDL      XAR4,ACC
         00000700 00A4 
    5864 00000701 92C4          MOV       AL,*+XAR4[0]          ; |56| 
    5865 00000702 ED18          BF        L145,NEQ              ; |56| 
    5866                      ; branchcc occurs ; |56| 
    5867              DW$L$_link_list_tcb_req$2$E:
    5868                      .dwpsn  "src\link_list_maneger.c",58,4
    5869                      .dwpsn  "src\link_list_maneger.c",60,3
    5870 00000703 28AC          MOV       T,#6                  ; |60| 
         00000704 0006 
    5871 00000705 8F00-         MOVL      XAR4,#_g_link_list_maneger_tcb+2 ; |60| 
         00000706 0042 
    5872 00000707 3041          MPYXU     ACC,T,*-SP[1]         ; |60| 
    5873 00000708 5601          ADDL      XAR4,ACC
         00000709 00A4 
    5874 0000070a A844          MOVL      *-SP[4],XAR4          ; |60| 
    5875                      .dwpsn  "src\link_list_maneger.c",61,3
    5876 0000070b 8A44          MOVL      XAR4,*-SP[4]          ; |61| 
    5877 0000070c 28C4          MOV       *+XAR4[0],#1          ; |61| 
         0000070d 0001 
    5878                      .dwpsn  "src\link_list_maneger.c",62,3
    5879 0000070e 8A44          MOVL      XAR4,*-SP[4]          ; |62| 
    5880 0000070f 0200          MOVB      ACC,#0
    5881 00000710 1ED4          MOVL      *+XAR4[2],ACC         ; |62| 
    5882                      .dwpsn  "src\link_list_maneger.c",63,3
    5883 00000711 8A44          MOVL      XAR4,*-SP[4]          ; |63| 
    5884 00000712 1EE4          MOVL      *+XAR4[4],ACC         ; |63| 
    5885                      .dwpsn  "src\link_list_maneger.c",64,3
    5886 00000713 761F-         MOVW      DP,#_g_link_list_maneger_tcb
         00000714 0001 
    5887 00000715 0A00-         INC       @_g_link_list_maneger_tcb ; |64| 
    5888                      .dwpsn  "src\link_list_maneger.c",65,3
    5889 00000716 7640'         LCR       #_link_list_unlock    ; |65| 
         00000717 06E8 
    5890                      ; call occurs [#_link_list_unlock] ; |65| 
    5891                      .dwpsn  "src\link_list_maneger.c",66,3
    5892 00000718 8A44          MOVL      XAR4,*-SP[4]          ; |66| 
    5893 00000719 6F08          B         L147,UNC              ; |66| 
    5894                      ; branch occurs ; |66| 
    5895              L145:    
    5896              DW$L$_link_list_tcb_req$4$B:
    5897                      .dwpsn  "src\link_list_maneger.c",54,45
    5898 0000071a 0A41          INC       *-SP[1]               ; |54| 
    5899                      .dwpsn  "src\link_list_maneger.c",54,18
    5900 0000071b 9241          MOV       AL,*-SP[1]            ; |54| 
    5901 0000071c 520A          CMPB      AL,#10                ; |54| 
    5902 0000071d 68DD          B         L144,LO               ; |54| 
    5903                      ; branchcc occurs ; |54| 
    5904              DW$L$_link_list_tcb_req$4$E:
    5905              L146:    
    5906                      .dwpsn  "src\link_list_maneger.c",68,2
TMS320C2000 COFF Assembler PC v4.1.3 Thu Aug 04 16:21:37 2011

Tools Copyright (c) 1996-2006 Texas Instruments Incorporated
C:\DOCUME~1\ADMINI~1\LOCALS~1\Temp\TI8402                            PAGE  112

    5907 0000071e 7640'         LCR       #_link_list_unlock    ; |68| 
         0000071f 06E8 
    5908                      ; call occurs [#_link_list_unlock] ; |68| 
    5909                      .dwpsn  "src\link_list_maneger.c",69,2
    5910 00000720 D400          MOVB      XAR4,#0
    5911              L147:    
    5912                      .dwpsn  "src\link_list_maneger.c",70,1
    5913 00000721 FE84          SUBB      SP,#4                 ; |69| 
    5914                      .dwcfa  0x1d, -2
    5915 00000722 0006          LRETR
    5916                      ; return occurs
    5917              
    5918              DW$460  .dwtag  DW_TAG_loop
    5919                      .dwattr DW$460, DW_AT_name("C:\DOCUME~1\ADMINI~1\LOCALS~1\Temp\TI8402:L144:1:1312446096")
    5920                      .dwattr DW$460, DW_AT_begin_file("src\link_list_maneger.c")
    5921                      .dwattr DW$460, DW_AT_begin_line(0x36)
    5922                      .dwattr DW$460, DW_AT_end_line(0x43)
    5923              DW$461  .dwtag  DW_TAG_loop_range
    5924                      .dwattr DW$461, DW_AT_low_pc(DW$L$_link_list_tcb_req$2$B)
    5925                      .dwattr DW$461, DW_AT_high_pc(DW$L$_link_list_tcb_req$2$E)
    5926              DW$462  .dwtag  DW_TAG_loop_range
    5927                      .dwattr DW$462, DW_AT_low_pc(DW$L$_link_list_tcb_req$4$B)
    5928                      .dwattr DW$462, DW_AT_high_pc(DW$L$_link_list_tcb_req$4$E)
    5929                      .dwendtag DW$460
    5930              
    5931                      .dwattr DW$457, DW_AT_end_file("src\link_list_maneger.c")
    5932                      .dwattr DW$457, DW_AT_end_line(0x46)
    5933                      .dwattr DW$457, DW_AT_end_column(0x01)
    5934                      .dwendentry
    5935                      .dwendtag DW$457
    5936              
    5937 00000723               .sect   ".text"
    5938                      .global _link_list_tcb_delete
    5939              
    5940              DW$463  .dwtag  DW_TAG_subprogram, DW_AT_name("link_list_tcb_delete"), DW_AT_symbol_name("_link_list_tcb_dele
    5941                      .dwattr DW$463, DW_AT_low_pc(_link_list_tcb_delete)
    5942                      .dwattr DW$463, DW_AT_high_pc(0x00)
    5943                      .dwattr DW$463, DW_AT_begin_file("src\link_list_maneger.c")
    5944                      .dwattr DW$463, DW_AT_begin_line(0x4f)
    5945                      .dwattr DW$463, DW_AT_begin_column(0x06)
    5946                      .dwpsn  "src\link_list_maneger.c",80,1
    5947              
    5948                      .dwfde DW$CIE
    5949              
    5950              ;***************************************************************
    5951              ;* FNAME: _link_list_tcb_delete         FR SIZE:   4           *
    5952              ;*                                                             *
    5953              ;* FUNCTION ENVIRONMENT                                        *
    5954              ;*                                                             *
    5955              ;* FUNCTION PROPERTIES                                         *
    5956              ;*                            0 Parameter,  3 Auto,  0 SOE     *
    5957              ;***************************************************************
    5958              
    5959              _link_list_tcb_delete:
    5960                      .dwcfa  0x1d, -2
TMS320C2000 COFF Assembler PC v4.1.3 Thu Aug 04 16:21:37 2011

Tools Copyright (c) 1996-2006 Texas Instruments Incorporated
C:\DOCUME~1\ADMINI~1\LOCALS~1\Temp\TI8402                            PAGE  113

    5961                      .dwcfa  0x1c, 26, 0
    5962                      .dwcfa  0x09, 40, 26
    5963 00000723 FE04          ADDB      SP,#4
    5964                      .dwcfa  0x1d, -6
    5965              ;* AR4   assigned to _lptr
    5966              DW$464  .dwtag  DW_TAG_formal_parameter, DW_AT_name("lptr"), DW_AT_symbol_name("_lptr")
    5967                      .dwattr DW$464, DW_AT_type(*DW$T$101)
    5968                      .dwattr DW$464, DW_AT_location[DW_OP_reg12]
    5969              DW$465  .dwtag  DW_TAG_variable, DW_AT_name("lptr"), DW_AT_symbol_name("_lptr")
    5970                      .dwattr DW$465, DW_AT_type(*DW$T$101)
    5971                      .dwattr DW$465, DW_AT_location[DW_OP_breg20 -2]
    5972              DW$466  .dwtag  DW_TAG_variable, DW_AT_name("index"), DW_AT_symbol_name("_index")
    5973                      .dwattr DW$466, DW_AT_type(*DW$T$23)
    5974                      .dwattr DW$466, DW_AT_location[DW_OP_breg20 -3]
    5975 00000724 A842          MOVL      *-SP[2],XAR4          ; |80| 
    5976                      .dwpsn  "src\link_list_maneger.c",82,8
    5977 00000725 2B43          MOV       *-SP[3],#0            ; |82| 
    5978                      .dwpsn  "src\link_list_maneger.c",82,18
    5979 00000726 9243          MOV       AL,*-SP[3]            ; |82| 
    5980 00000727 520A          CMPB      AL,#10                ; |82| 
    5981 00000728 671B          B         L150,HIS              ; |82| 
    5982                      ; branchcc occurs ; |82| 
    5983              L148:    
    5984              DW$L$_link_list_tcb_delete$2$B:
    5985                      .dwpsn  "src\link_list_maneger.c",84,3
    5986 00000729 28AC          MOV       T,#6                  ; |84| 
         0000072a 0006 
    5987 0000072b 8F00-         MOVL      XAR4,#_g_link_list_maneger_tcb+2 ; |84| 
         0000072c 0042 
    5988 0000072d 3043          MPYXU     ACC,T,*-SP[3]         ; |84| 
    5989 0000072e 5601          ADDL      XAR4,ACC
         0000072f 00A4 
    5990 00000730 0642          MOVL      ACC,*-SP[2]           ; |84| 
    5991 00000731 0FA4          CMPL      ACC,XAR4              ; |84| 
    5992 00000732 ED0D          BF        L149,NEQ              ; |84| 
    5993                      ; branchcc occurs ; |84| 
    5994              DW$L$_link_list_tcb_delete$2$E:
    5995                      .dwpsn  "src\link_list_maneger.c",86,4
    5996                      .dwpsn  "src\link_list_maneger.c",88,3
    5997 00000733 8A42          MOVL      XAR4,*-SP[2]          ; |88| 
    5998 00000734 2BC4          MOV       *+XAR4[0],#0          ; |88| 
    5999                      .dwpsn  "src\link_list_maneger.c",89,3
    6000 00000735 8A42          MOVL      XAR4,*-SP[2]          ; |89| 
    6001 00000736 0200          MOVB      ACC,#0
    6002 00000737 1ED4          MOVL      *+XAR4[2],ACC         ; |89| 
    6003                      .dwpsn  "src\link_list_maneger.c",90,3
    6004 00000738 8A42          MOVL      XAR4,*-SP[2]          ; |90| 
    6005 00000739 1EE4          MOVL      *+XAR4[4],ACC         ; |90| 
    6006                      .dwpsn  "src\link_list_maneger.c",91,3
    6007 0000073a 761F-         MOVW      DP,#_g_link_list_maneger_tcb
         0000073b 0001 
    6008 0000073c 0B00-         DEC       @_g_link_list_maneger_tcb ; |91| 
    6009                      .dwpsn  "src\link_list_maneger.c",92,3
    6010 0000073d 9A01          MOVB      AL,#1                 ; |92| 
    6011 0000073e 6F06          B         L151,UNC              ; |92| 
TMS320C2000 COFF Assembler PC v4.1.3 Thu Aug 04 16:21:37 2011

Tools Copyright (c) 1996-2006 Texas Instruments Incorporated
C:\DOCUME~1\ADMINI~1\LOCALS~1\Temp\TI8402                            PAGE  114

    6012                      ; branch occurs ; |92| 
    6013              L149:    
    6014              DW$L$_link_list_tcb_delete$4$B:
    6015                      .dwpsn  "src\link_list_maneger.c",82,45
    6016 0000073f 0A43          INC       *-SP[3]               ; |82| 
    6017                      .dwpsn  "src\link_list_maneger.c",82,18
    6018 00000740 9243          MOV       AL,*-SP[3]            ; |82| 
    6019 00000741 520A          CMPB      AL,#10                ; |82| 
    6020 00000742 68E7          B         L148,LO               ; |82| 
    6021                      ; branchcc occurs ; |82| 
    6022              DW$L$_link_list_tcb_delete$4$E:
    6023              L150:    
    6024                      .dwpsn  "src\link_list_maneger.c",94,2
    6025 00000743 9A00          MOVB      AL,#0
    6026              L151:    
    6027                      .dwpsn  "src\link_list_maneger.c",95,1
    6028 00000744 FE84          SUBB      SP,#4                 ; |94| 
    6029                      .dwcfa  0x1d, -2
    6030 00000745 0006          LRETR
    6031                      ; return occurs
    6032              
    6033              DW$467  .dwtag  DW_TAG_loop
    6034                      .dwattr DW$467, DW_AT_name("C:\DOCUME~1\ADMINI~1\LOCALS~1\Temp\TI8402:L148:1:1312446096")
    6035                      .dwattr DW$467, DW_AT_begin_file("src\link_list_maneger.c")
    6036                      .dwattr DW$467, DW_AT_begin_line(0x52)
    6037                      .dwattr DW$467, DW_AT_end_line(0x5d)
    6038              DW$468  .dwtag  DW_TAG_loop_range
    6039                      .dwattr DW$468, DW_AT_low_pc(DW$L$_link_list_tcb_delete$2$B)
    6040                      .dwattr DW$468, DW_AT_high_pc(DW$L$_link_list_tcb_delete$2$E)
    6041              DW$469  .dwtag  DW_TAG_loop_range
    6042                      .dwattr DW$469, DW_AT_low_pc(DW$L$_link_list_tcb_delete$4$B)
    6043                      .dwattr DW$469, DW_AT_high_pc(DW$L$_link_list_tcb_delete$4$E)
    6044                      .dwendtag DW$467
    6045              
    6046                      .dwattr DW$463, DW_AT_end_file("src\link_list_maneger.c")
    6047                      .dwattr DW$463, DW_AT_end_line(0x5f)
    6048                      .dwattr DW$463, DW_AT_end_column(0x01)
    6049                      .dwendentry
    6050                      .dwendtag DW$463
    6051              
    6052 00000746               .sect   ".text"
    6053              
    6054              DW$470  .dwtag  DW_TAG_subprogram, DW_AT_name("link_list_member_obtain"), DW_AT_symbol_name("_link_list_membe
    6055                      .dwattr DW$470, DW_AT_low_pc(_link_list_member_obtain)
    6056                      .dwattr DW$470, DW_AT_high_pc(0x00)
    6057                      .dwattr DW$470, DW_AT_begin_file("src\link_list_maneger.c")
    6058                      .dwattr DW$470, DW_AT_begin_line(0x6b)
    6059                      .dwattr DW$470, DW_AT_begin_column(0x15)
    6060                      .dwpsn  "src\link_list_maneger.c",108,1
    6061              
    6062                      .dwfde DW$CIE
    6063              
    6064              ;***************************************************************
    6065              ;* FNAME: _link_list_member_obtain      FR SIZE:   2           *
    6066              ;*                                                             *
TMS320C2000 COFF Assembler PC v4.1.3 Thu Aug 04 16:21:37 2011

Tools Copyright (c) 1996-2006 Texas Instruments Incorporated
C:\DOCUME~1\ADMINI~1\LOCALS~1\Temp\TI8402                            PAGE  115

    6067              ;* FUNCTION ENVIRONMENT                                        *
    6068              ;*                                                             *
    6069              ;* FUNCTION PROPERTIES                                         *
    6070              ;*                            0 Parameter,  2 Auto,  0 SOE     *
    6071              ;***************************************************************
    6072              
    6073              _link_list_member_obtain:
    6074                      .dwcfa  0x1d, -2
    6075                      .dwcfa  0x1c, 26, 0
    6076                      .dwcfa  0x09, 40, 26
    6077 00000746 FE02          ADDB      SP,#2
    6078                      .dwcfa  0x1d, -4
    6079              DW$471  .dwtag  DW_TAG_variable, DW_AT_name("pret"), DW_AT_symbol_name("_pret")
    6080                      .dwattr DW$471, DW_AT_type(*DW$T$35)
    6081                      .dwattr DW$471, DW_AT_location[DW_OP_breg20 -2]
    6082                      .dwpsn  "src\link_list_maneger.c",110,2
    6083 00000747 761F-         MOVW      DP,#_m_plink_free
         00000748 0000 
    6084 00000749 8A0A-         MOVL      XAR4,@_m_plink_free   ; |110| 
    6085 0000074a 06E4          MOVL      ACC,*+XAR4[4]         ; |110| 
    6086 0000074b EC07          BF        L152,EQ               ; |110| 
    6087                      ; branchcc occurs ; |110| 
    6088                      .dwpsn  "src\link_list_maneger.c",112,3
    6089 0000074c 060A-         MOVL      ACC,@_m_plink_free    ; |112| 
    6090 0000074d 1E42          MOVL      *-SP[2],ACC           ; |112| 
    6091                      .dwpsn  "src\link_list_maneger.c",113,3
    6092 0000074e 8A0A-         MOVL      XAR4,@_m_plink_free   ; |113| 
    6093 0000074f 06E4          MOVL      ACC,*+XAR4[4]         ; |113| 
    6094 00000750 1E0A-         MOVL      @_m_plink_free,ACC    ; |113| 
    6095                      .dwpsn  "src\link_list_maneger.c",114,2
    6096 00000751 6F03          B         L153,UNC              ; |114| 
    6097                      ; branch occurs ; |114| 
    6098              L152:    
    6099                      .dwpsn  "src\link_list_maneger.c",117,3
    6100 00000752 0200          MOVB      ACC,#0
    6101 00000753 1E42          MOVL      *-SP[2],ACC           ; |117| 
    6102              L153:    
    6103                      .dwpsn  "src\link_list_maneger.c",119,2
    6104 00000754 8A42          MOVL      XAR4,*-SP[2]          ; |119| 
    6105                      .dwpsn  "src\link_list_maneger.c",120,1
    6106 00000755 FE82          SUBB      SP,#2                 ; |119| 
    6107                      .dwcfa  0x1d, -2
    6108 00000756 0006          LRETR
    6109                      ; return occurs
    6110                      .dwattr DW$470, DW_AT_end_file("src\link_list_maneger.c")
    6111                      .dwattr DW$470, DW_AT_end_line(0x78)
    6112                      .dwattr DW$470, DW_AT_end_column(0x01)
    6113                      .dwendentry
    6114                      .dwendtag DW$470
    6115              
    6116 00000757               .sect   ".text"
    6117              
    6118              DW$472  .dwtag  DW_TAG_subprogram, DW_AT_name("link_list_member_free"), DW_AT_symbol_name("_link_list_member_
    6119                      .dwattr DW$472, DW_AT_low_pc(_link_list_member_free)
    6120                      .dwattr DW$472, DW_AT_high_pc(0x00)
TMS320C2000 COFF Assembler PC v4.1.3 Thu Aug 04 16:21:37 2011

Tools Copyright (c) 1996-2006 Texas Instruments Incorporated
C:\DOCUME~1\ADMINI~1\LOCALS~1\Temp\TI8402                            PAGE  116

    6121                      .dwattr DW$472, DW_AT_begin_file("src\link_list_maneger.c")
    6122                      .dwattr DW$472, DW_AT_begin_line(0x79)
    6123                      .dwattr DW$472, DW_AT_begin_column(0x0d)
    6124                      .dwpsn  "src\link_list_maneger.c",122,1
    6125              
    6126                      .dwfde DW$CIE
    6127              
    6128              ;***************************************************************
    6129              ;* FNAME: _link_list_member_free        FR SIZE:   4           *
    6130              ;*                                                             *
    6131              ;* FUNCTION ENVIRONMENT                                        *
    6132              ;*                                                             *
    6133              ;* FUNCTION PROPERTIES                                         *
    6134              ;*                            0 Parameter,  4 Auto,  0 SOE     *
    6135              ;***************************************************************
    6136              
    6137              _link_list_member_free:
    6138                      .dwcfa  0x1d, -2
    6139                      .dwcfa  0x1c, 26, 0
    6140                      .dwcfa  0x09, 40, 26
    6141 00000757 FE04          ADDB      SP,#4
    6142                      .dwcfa  0x1d, -6
    6143              ;* AR4   assigned to _pmem
    6144              DW$473  .dwtag  DW_TAG_formal_parameter, DW_AT_name("pmem"), DW_AT_symbol_name("_pmem")
    6145                      .dwattr DW$473, DW_AT_type(*DW$T$35)
    6146                      .dwattr DW$473, DW_AT_location[DW_OP_reg12]
    6147              DW$474  .dwtag  DW_TAG_variable, DW_AT_name("pmem"), DW_AT_symbol_name("_pmem")
    6148                      .dwattr DW$474, DW_AT_type(*DW$T$35)
    6149                      .dwattr DW$474, DW_AT_location[DW_OP_breg20 -2]
    6150              DW$475  .dwtag  DW_TAG_variable, DW_AT_name("ptmp"), DW_AT_symbol_name("_ptmp")
    6151                      .dwattr DW$475, DW_AT_type(*DW$T$35)
    6152                      .dwattr DW$475, DW_AT_location[DW_OP_breg20 -4]
    6153 00000758 A842          MOVL      *-SP[2],XAR4          ; |122| 
    6154                      .dwpsn  "src\link_list_maneger.c",124,2
    6155 00000759 761F-         MOVW      DP,#_m_plink_free
         0000075a 0000 
    6156 0000075b 060A-         MOVL      ACC,@_m_plink_free    ; |124| 
    6157 0000075c 1E44          MOVL      *-SP[4],ACC           ; |124| 
    6158                      .dwpsn  "src\link_list_maneger.c",125,2
    6159 0000075d 0642          MOVL      ACC,*-SP[2]           ; |125| 
    6160 0000075e 1E0A-         MOVL      @_m_plink_free,ACC    ; |125| 
    6161                      .dwpsn  "src\link_list_maneger.c",126,2
    6162 0000075f 8A0A-         MOVL      XAR4,@_m_plink_free   ; |126| 
    6163 00000760 0644          MOVL      ACC,*-SP[4]           ; |126| 
    6164 00000761 1EE4          MOVL      *+XAR4[4],ACC         ; |126| 
    6165                      .dwpsn  "src\link_list_maneger.c",127,2
    6166                      .dwpsn  "src\link_list_maneger.c",128,1
    6167 00000762 FE84          SUBB      SP,#4
    6168                      .dwcfa  0x1d, -2
    6169 00000763 0006          LRETR
    6170                      ; return occurs
    6171                      .dwattr DW$472, DW_AT_end_file("src\link_list_maneger.c")
    6172                      .dwattr DW$472, DW_AT_end_line(0x80)
    6173                      .dwattr DW$472, DW_AT_end_column(0x01)
    6174                      .dwendentry
TMS320C2000 COFF Assembler PC v4.1.3 Thu Aug 04 16:21:37 2011

Tools Copyright (c) 1996-2006 Texas Instruments Incorporated
C:\DOCUME~1\ADMINI~1\LOCALS~1\Temp\TI8402                            PAGE  117

    6175                      .dwendtag DW$472
    6176              
    6177 00000764               .sect   ".text"
    6178              
    6179              DW$476  .dwtag  DW_TAG_subprogram, DW_AT_name("link_list_member_init"), DW_AT_symbol_name("_link_list_member_
    6180                      .dwattr DW$476, DW_AT_low_pc(_link_list_member_init)
    6181                      .dwattr DW$476, DW_AT_high_pc(0x00)
    6182                      .dwattr DW$476, DW_AT_begin_file("src\link_list_maneger.c")
    6183                      .dwattr DW$476, DW_AT_begin_line(0x81)
    6184                      .dwattr DW$476, DW_AT_begin_column(0x0d)
    6185                      .dwpsn  "src\link_list_maneger.c",130,1
    6186              
    6187                      .dwfde DW$CIE
    6188              
    6189              ;***************************************************************
    6190              ;* FNAME: _link_list_member_init        FR SIZE:   6           *
    6191              ;*                                                             *
    6192              ;* FUNCTION ENVIRONMENT                                        *
    6193              ;*                                                             *
    6194              ;* FUNCTION PROPERTIES                                         *
    6195              ;*                            0 Parameter,  6 Auto,  0 SOE     *
    6196              ;***************************************************************
    6197              
    6198              _link_list_member_init:
    6199                      .dwcfa  0x1d, -2
    6200                      .dwcfa  0x1c, 26, 0
    6201                      .dwcfa  0x09, 40, 26
    6202 00000764 FE06          ADDB      SP,#6
    6203                      .dwcfa  0x1d, -8
    6204              DW$477  .dwtag  DW_TAG_variable, DW_AT_name("offset"), DW_AT_symbol_name("_offset")
    6205                      .dwattr DW$477, DW_AT_type(*DW$T$23)
    6206                      .dwattr DW$477, DW_AT_location[DW_OP_breg20 -1]
    6207              DW$478  .dwtag  DW_TAG_variable, DW_AT_name("plist"), DW_AT_symbol_name("_plist")
    6208                      .dwattr DW$478, DW_AT_type(*DW$T$35)
    6209                      .dwattr DW$478, DW_AT_location[DW_OP_breg20 -4]
    6210              DW$479  .dwtag  DW_TAG_variable, DW_AT_name("pnext"), DW_AT_symbol_name("_pnext")
    6211                      .dwattr DW$479, DW_AT_type(*DW$T$35)
    6212                      .dwattr DW$479, DW_AT_location[DW_OP_breg20 -6]
    6213                      .dwpsn  "src\link_list_maneger.c",131,10
    6214 00000765 2B41          MOV       *-SP[1],#0            ; |131| 
    6215                      .dwpsn  "src\link_list_maneger.c",132,14
    6216 00000766 8F00-         MOVL      XAR4,#_m_link_member  ; |132| 
         00000767 0080 
    6217 00000768 A844          MOVL      *-SP[4],XAR4          ; |132| 
    6218                      .dwpsn  "src\link_list_maneger.c",134,2
    6219 00000769 761F-         MOVW      DP,#_m_plink_free
         0000076a 0000 
    6220 0000076b 0644          MOVL      ACC,*-SP[4]           ; |134| 
    6221 0000076c 1E0A-         MOVL      @_m_plink_free,ACC    ; |134| 
    6222                      .dwpsn  "src\link_list_maneger.c",135,8
    6223 0000076d 2B41          MOV       *-SP[1],#0            ; |135| 
    6224                      .dwpsn  "src\link_list_maneger.c",135,19
    6225 0000076e 9241          MOV       AL,*-SP[1]            ; |135| 
    6226 0000076f 5213          CMPB      AL,#19                ; |135| 
    6227 00000770 670D          B         L155,HIS              ; |135| 
TMS320C2000 COFF Assembler PC v4.1.3 Thu Aug 04 16:21:37 2011

Tools Copyright (c) 1996-2006 Texas Instruments Incorporated
C:\DOCUME~1\ADMINI~1\LOCALS~1\Temp\TI8402                            PAGE  118

    6228                      ; branchcc occurs ; |135| 
    6229              L154:    
    6230              DW$L$_link_list_member_init$2$B:
    6231                      .dwpsn  "src\link_list_maneger.c",137,3
    6232 00000771 0644          MOVL      ACC,*-SP[4]           ; |137| 
    6233 00000772 0906          ADDB      ACC,#6                ; |137| 
    6234 00000773 1E46          MOVL      *-SP[6],ACC           ; |137| 
    6235                      .dwpsn  "src\link_list_maneger.c",138,3
    6236 00000774 8A44          MOVL      XAR4,*-SP[4]          ; |138| 
    6237 00000775 0646          MOVL      ACC,*-SP[6]           ; |138| 
    6238 00000776 1EE4          MOVL      *+XAR4[4],ACC         ; |138| 
    6239                      .dwpsn  "src\link_list_maneger.c",139,3
    6240 00000777 0646          MOVL      ACC,*-SP[6]           ; |139| 
    6241 00000778 1E44          MOVL      *-SP[4],ACC           ; |139| 
    6242                      .dwpsn  "src\link_list_maneger.c",135,53
    6243 00000779 0A41          INC       *-SP[1]               ; |135| 
    6244                      .dwpsn  "src\link_list_maneger.c",135,19
    6245 0000077a 9241          MOV       AL,*-SP[1]            ; |135| 
    6246 0000077b 5213          CMPB      AL,#19                ; |135| 
    6247 0000077c 68F5          B         L154,LO               ; |135| 
    6248                      ; branchcc occurs ; |135| 
    6249              DW$L$_link_list_member_init$2$E:
    6250                      .dwpsn  "src\link_list_maneger.c",141,2
    6251              L155:    
    6252                      .dwpsn  "src\link_list_maneger.c",142,1
    6253 0000077d FE86          SUBB      SP,#6
    6254                      .dwcfa  0x1d, -2
    6255 0000077e 0006          LRETR
    6256                      ; return occurs
    6257              
    6258              DW$480  .dwtag  DW_TAG_loop
    6259                      .dwattr DW$480, DW_AT_name("C:\DOCUME~1\ADMINI~1\LOCALS~1\Temp\TI8402:L154:1:1312446096")
    6260                      .dwattr DW$480, DW_AT_begin_file("src\link_list_maneger.c")
    6261                      .dwattr DW$480, DW_AT_begin_line(0x87)
    6262                      .dwattr DW$480, DW_AT_end_line(0x8c)
    6263              DW$481  .dwtag  DW_TAG_loop_range
    6264                      .dwattr DW$481, DW_AT_low_pc(DW$L$_link_list_member_init$2$B)
    6265                      .dwattr DW$481, DW_AT_high_pc(DW$L$_link_list_member_init$2$E)
    6266                      .dwendtag DW$480
    6267              
    6268                      .dwattr DW$476, DW_AT_end_file("src\link_list_maneger.c")
    6269                      .dwattr DW$476, DW_AT_end_line(0x8e)
    6270                      .dwattr DW$476, DW_AT_end_column(0x01)
    6271                      .dwendentry
    6272                      .dwendtag DW$476
    6273              
    6274 0000077f               .sect   ".text"
    6275              
    6276              DW$482  .dwtag  DW_TAG_subprogram, DW_AT_name("link_list_alloc_space"), DW_AT_symbol_name("_link_list_alloc_s
    6277                      .dwattr DW$482, DW_AT_low_pc(_link_list_alloc_space)
    6278                      .dwattr DW$482, DW_AT_high_pc(0x00)
    6279                      .dwattr DW$482, DW_AT_begin_file("src\link_list_maneger.c")
    6280                      .dwattr DW$482, DW_AT_begin_line(0x97)
    6281                      .dwattr DW$482, DW_AT_begin_column(0x16)
    6282                      .dwpsn  "src\link_list_maneger.c",152,1
TMS320C2000 COFF Assembler PC v4.1.3 Thu Aug 04 16:21:37 2011

Tools Copyright (c) 1996-2006 Texas Instruments Incorporated
C:\DOCUME~1\ADMINI~1\LOCALS~1\Temp\TI8402                            PAGE  119

    6283              
    6284                      .dwfde DW$CIE
    6285              
    6286              ;***************************************************************
    6287              ;* FNAME: _link_list_alloc_space        FR SIZE:   6           *
    6288              ;*                                                             *
    6289              ;* FUNCTION ENVIRONMENT                                        *
    6290              ;*                                                             *
    6291              ;* FUNCTION PROPERTIES                                         *
    6292              ;*                            0 Parameter,  6 Auto,  0 SOE     *
    6293              ;***************************************************************
    6294              
    6295              _link_list_alloc_space:
    6296                      .dwcfa  0x1d, -2
    6297                      .dwcfa  0x1c, 26, 0
    6298                      .dwcfa  0x09, 40, 26
    6299 0000077f FE06          ADDB      SP,#6
    6300                      .dwcfa  0x1d, -8
    6301              ;* AL    assigned to _alloc_size
    6302              DW$483  .dwtag  DW_TAG_formal_parameter, DW_AT_name("alloc_size"), DW_AT_symbol_name("_alloc_size")
    6303                      .dwattr DW$483, DW_AT_type(*DW$T$23)
    6304                      .dwattr DW$483, DW_AT_location[DW_OP_reg0]
    6305              DW$484  .dwtag  DW_TAG_variable, DW_AT_name("alloc_size"), DW_AT_symbol_name("_alloc_size")
    6306                      .dwattr DW$484, DW_AT_type(*DW$T$23)
    6307                      .dwattr DW$484, DW_AT_location[DW_OP_breg20 -1]
    6308              DW$485  .dwtag  DW_TAG_variable, DW_AT_name("lptr"), DW_AT_symbol_name("_lptr")
    6309                      .dwattr DW$485, DW_AT_type(*DW$T$3)
    6310                      .dwattr DW$485, DW_AT_location[DW_OP_breg20 -4]
    6311              DW$486  .dwtag  DW_TAG_variable, DW_AT_name("list_member"), DW_AT_symbol_name("_list_member")
    6312                      .dwattr DW$486, DW_AT_type(*DW$T$35)
    6313                      .dwattr DW$486, DW_AT_location[DW_OP_breg20 -6]
    6314 00000780 9641          MOV       *-SP[1],AL            ; |152| 
    6315                      .dwpsn  "src\link_list_maneger.c",153,7
    6316 00000781 0200          MOVB      ACC,#0
    6317 00000782 1E44          MOVL      *-SP[4],ACC           ; |153| 
    6318                      .dwpsn  "src\link_list_maneger.c",154,14
    6319 00000783 1E46          MOVL      *-SP[6],ACC           ; |154| 
    6320                      .dwpsn  "src\link_list_maneger.c",155,2
    6321 00000784 9241          MOV       AL,*-SP[1]            ; |155| 
    6322 00000785 7640'         LCR       #_app_malloc          ; |155| 
         00000786 0997 
    6323                      ; call occurs [#_app_malloc] ; |155| 
    6324 00000787 A844          MOVL      *-SP[4],XAR4          ; |155| 
    6325                      .dwpsn  "src\link_list_maneger.c",156,2
    6326 00000788 7640'         LCR       #_link_list_member_obtain ; |156| 
         00000789 0746 
    6327                      ; call occurs [#_link_list_member_obtain] ; |156| 
    6328 0000078a A846          MOVL      *-SP[6],XAR4          ; |156| 
    6329                      .dwpsn  "src\link_list_maneger.c",157,2
    6330 0000078b 8A46          MOVL      XAR4,*-SP[6]          ; |157| 
    6331 0000078c 0644          MOVL      ACC,*-SP[4]           ; |157| 
    6332 0000078d 1ED4          MOVL      *+XAR4[2],ACC         ; |157| 
    6333                      .dwpsn  "src\link_list_maneger.c",158,2
    6334 0000078e 0644          MOVL      ACC,*-SP[4]           ; |158| 
    6335 0000078f EC05          BF        L156,EQ               ; |158| 
TMS320C2000 COFF Assembler PC v4.1.3 Thu Aug 04 16:21:37 2011

Tools Copyright (c) 1996-2006 Texas Instruments Incorporated
C:\DOCUME~1\ADMINI~1\LOCALS~1\Temp\TI8402                            PAGE  120

    6336                      ; branchcc occurs ; |158| 
    6337 00000790 0646          MOVL      ACC,*-SP[6]           ; |158| 
    6338 00000791 EC03          BF        L156,EQ               ; |158| 
    6339                      ; branchcc occurs ; |158| 
    6340 00000792 8A46          MOVL      XAR4,*-SP[6]          ; |158| 
    6341 00000793 6F02          B         L157,UNC              ; |158| 
    6342                      ; branch occurs ; |158| 
    6343 00000794       L156:    
    6344 00000794 D400          MOVB      XAR4,#0
    6345              L157:    
    6346                      .dwpsn  "src\link_list_maneger.c",159,1
    6347 00000795 FE86          SUBB      SP,#6                 ; |158| 
    6348                      .dwcfa  0x1d, -2
    6349 00000796 0006          LRETR
    6350                      ; return occurs
    6351                      .dwattr DW$482, DW_AT_end_file("src\link_list_maneger.c")
    6352                      .dwattr DW$482, DW_AT_end_line(0x9f)
    6353                      .dwattr DW$482, DW_AT_end_column(0x01)
    6354                      .dwendentry
    6355                      .dwendtag DW$482
    6356              
    6357 00000797               .sect   ".text"
    6358              
    6359              DW$487  .dwtag  DW_TAG_subprogram, DW_AT_name("link_list_free_space"), DW_AT_symbol_name("_link_list_free_spa
    6360                      .dwattr DW$487, DW_AT_low_pc(_link_list_free_space)
    6361                      .dwattr DW$487, DW_AT_high_pc(0x00)
    6362                      .dwattr DW$487, DW_AT_begin_file("src\link_list_maneger.c")
    6363                      .dwattr DW$487, DW_AT_begin_line(0xa8)
    6364                      .dwattr DW$487, DW_AT_begin_column(0x0d)
    6365                      .dwpsn  "src\link_list_maneger.c",169,1
    6366              
    6367                      .dwfde DW$CIE
    6368              
    6369              ;***************************************************************
    6370              ;* FNAME: _link_list_free_space         FR SIZE:   2           *
    6371              ;*                                                             *
    6372              ;* FUNCTION ENVIRONMENT                                        *
    6373              ;*                                                             *
    6374              ;* FUNCTION PROPERTIES                                         *
    6375              ;*                            0 Parameter,  2 Auto,  0 SOE     *
    6376              ;***************************************************************
    6377              
    6378              _link_list_free_space:
    6379                      .dwcfa  0x1d, -2
    6380                      .dwcfa  0x1c, 26, 0
    6381                      .dwcfa  0x09, 40, 26
    6382 00000797 FE02          ADDB      SP,#2
    6383                      .dwcfa  0x1d, -4
    6384              ;* AR4   assigned to _list_member
    6385              DW$488  .dwtag  DW_TAG_formal_parameter, DW_AT_name("list_member"), DW_AT_symbol_name("_list_member")
    6386                      .dwattr DW$488, DW_AT_type(*DW$T$35)
    6387                      .dwattr DW$488, DW_AT_location[DW_OP_reg12]
    6388              DW$489  .dwtag  DW_TAG_variable, DW_AT_name("list_member"), DW_AT_symbol_name("_list_member")
    6389                      .dwattr DW$489, DW_AT_type(*DW$T$35)
    6390                      .dwattr DW$489, DW_AT_location[DW_OP_breg20 -2]
TMS320C2000 COFF Assembler PC v4.1.3 Thu Aug 04 16:21:37 2011

Tools Copyright (c) 1996-2006 Texas Instruments Incorporated
C:\DOCUME~1\ADMINI~1\LOCALS~1\Temp\TI8402                            PAGE  121

    6391 00000798 A842          MOVL      *-SP[2],XAR4          ; |169| 
    6392                      .dwpsn  "src\link_list_maneger.c",170,2
    6393 00000799 8A42          MOVL      XAR4,*-SP[2]          ; |170| 
    6394 0000079a 8AD4          MOVL      XAR4,*+XAR4[2]        ; |170| 
    6395 0000079b 7640'         LCR       #_app_free            ; |170| 
         0000079c 09EA 
    6396                      ; call occurs [#_app_free] ; |170| 
    6397                      .dwpsn  "src\link_list_maneger.c",171,2
    6398 0000079d 8A42          MOVL      XAR4,*-SP[2]          ; |171| 
    6399 0000079e 7640'         LCR       #_link_list_member_free ; |171| 
         0000079f 0757 
    6400                      ; call occurs [#_link_list_member_free] ; |171| 
    6401                      .dwpsn  "src\link_list_maneger.c",172,2
    6402 000007a0 9A01          MOVB      AL,#1                 ; |172| 
    6403                      .dwpsn  "src\link_list_maneger.c",173,1
    6404 000007a1 FE82          SUBB      SP,#2                 ; |172| 
    6405                      .dwcfa  0x1d, -2
    6406 000007a2 0006          LRETR
    6407                      ; return occurs
    6408                      .dwattr DW$487, DW_AT_end_file("src\link_list_maneger.c")
    6409                      .dwattr DW$487, DW_AT_end_line(0xad)
    6410                      .dwattr DW$487, DW_AT_end_column(0x01)
    6411                      .dwendentry
    6412                      .dwendtag DW$487
    6413              
    6414 000007a3               .sect   ".text"
    6415              
    6416              DW$490  .dwtag  DW_TAG_subprogram, DW_AT_name("link_list_add_member"), DW_AT_symbol_name("_link_list_add_memb
    6417                      .dwattr DW$490, DW_AT_low_pc(_link_list_add_member)
    6418                      .dwattr DW$490, DW_AT_high_pc(0x00)
    6419                      .dwattr DW$490, DW_AT_begin_file("src\link_list_maneger.c")
    6420                      .dwattr DW$490, DW_AT_begin_line(0xb8)
    6421                      .dwattr DW$490, DW_AT_begin_column(0x0d)
    6422                      .dwpsn  "src\link_list_maneger.c",187,1
    6423              
    6424                      .dwfde DW$CIE
    6425              
    6426              ;***************************************************************
    6427              ;* FNAME: _link_list_add_member         FR SIZE:   6           *
    6428              ;*                                                             *
    6429              ;* FUNCTION ENVIRONMENT                                        *
    6430              ;*                                                             *
    6431              ;* FUNCTION PROPERTIES                                         *
    6432              ;*                            0 Parameter,  5 Auto,  0 SOE     *
    6433              ;***************************************************************
    6434              
    6435              _link_list_add_member:
    6436                      .dwcfa  0x1d, -2
    6437                      .dwcfa  0x1c, 26, 0
    6438                      .dwcfa  0x09, 40, 26
    6439 000007a3 FE06          ADDB      SP,#6
    6440                      .dwcfa  0x1d, -8
    6441              ;* AR4   assigned to _link_list_tcb
    6442              DW$491  .dwtag  DW_TAG_formal_parameter, DW_AT_name("link_list_tcb"), DW_AT_symbol_name("_link_list_tcb")
    6443                      .dwattr DW$491, DW_AT_type(*DW$T$101)
TMS320C2000 COFF Assembler PC v4.1.3 Thu Aug 04 16:21:37 2011

Tools Copyright (c) 1996-2006 Texas Instruments Incorporated
C:\DOCUME~1\ADMINI~1\LOCALS~1\Temp\TI8402                            PAGE  122

    6444                      .dwattr DW$491, DW_AT_location[DW_OP_reg12]
    6445              ;* AR5   assigned to _cur_list_member
    6446              DW$492  .dwtag  DW_TAG_formal_parameter, DW_AT_name("cur_list_member"), DW_AT_symbol_name("_cur_list_member")
    6447                      .dwattr DW$492, DW_AT_type(*DW$T$35)
    6448                      .dwattr DW$492, DW_AT_location[DW_OP_reg14]
    6449              ;* AL    assigned to _link_direction
    6450              DW$493  .dwtag  DW_TAG_formal_parameter, DW_AT_name("link_direction"), DW_AT_symbol_name("_link_direction")
    6451                      .dwattr DW$493, DW_AT_type(*DW$T$23)
    6452                      .dwattr DW$493, DW_AT_location[DW_OP_reg0]
    6453              DW$494  .dwtag  DW_TAG_variable, DW_AT_name("link_list_tcb"), DW_AT_symbol_name("_link_list_tcb")
    6454                      .dwattr DW$494, DW_AT_type(*DW$T$101)
    6455                      .dwattr DW$494, DW_AT_location[DW_OP_breg20 -2]
    6456              DW$495  .dwtag  DW_TAG_variable, DW_AT_name("cur_list_member"), DW_AT_symbol_name("_cur_list_member")
    6457                      .dwattr DW$495, DW_AT_type(*DW$T$35)
    6458                      .dwattr DW$495, DW_AT_location[DW_OP_breg20 -4]
    6459              DW$496  .dwtag  DW_TAG_variable, DW_AT_name("link_direction"), DW_AT_symbol_name("_link_direction")
    6460                      .dwattr DW$496, DW_AT_type(*DW$T$23)
    6461                      .dwattr DW$496, DW_AT_location[DW_OP_breg20 -5]
    6462 000007a4 9645          MOV       *-SP[5],AL            ; |187| 
    6463 000007a5 A044          MOVL      *-SP[4],XAR5          ; |187| 
    6464 000007a6 A842          MOVL      *-SP[2],XAR4          ; |187| 
    6465                      .dwpsn  "src\link_list_maneger.c",188,2
    6466 000007a7 9245          MOV       AL,*-SP[5]            ; |188| 
    6467 000007a8 ED16          BF        L158,NEQ              ; |188| 
    6468                      ; branchcc occurs ; |188| 
    6469                      .dwpsn  "src\link_list_maneger.c",190,3
    6470 000007a9 8A44          MOVL      XAR4,*-SP[4]          ; |190| 
    6471 000007aa 0200          MOVB      ACC,#0
    6472 000007ab 1EE4          MOVL      *+XAR4[4],ACC         ; |190| 
    6473                      .dwpsn  "src\link_list_maneger.c",191,3
    6474 000007ac 8A42          MOVL      XAR4,*-SP[2]          ; |191| 
    6475 000007ad 06D4          MOVL      ACC,*+XAR4[2]         ; |191| 
    6476 000007ae 8A44          MOVL      XAR4,*-SP[4]          ; |191| 
    6477 000007af 1EC4          MOVL      *+XAR4[0],ACC         ; |191| 
    6478                      .dwpsn  "src\link_list_maneger.c",192,3
    6479 000007b0 8A42          MOVL      XAR4,*-SP[2]          ; |192| 
    6480 000007b1 8AD4          MOVL      XAR4,*+XAR4[2]        ; |192| 
    6481 000007b2 0644          MOVL      ACC,*-SP[4]           ; |192| 
    6482 000007b3 1EE4          MOVL      *+XAR4[4],ACC         ; |192| 
    6483                      .dwpsn  "src\link_list_maneger.c",193,3
    6484 000007b4 8A42          MOVL      XAR4,*-SP[2]          ; |193| 
    6485 000007b5 0644          MOVL      ACC,*-SP[4]           ; |193| 
    6486 000007b6 1ED4          MOVL      *+XAR4[2],ACC         ; |193| 
    6487                      .dwpsn  "src\link_list_maneger.c",194,3
    6488 000007b7 8A42          MOVL      XAR4,*-SP[2]          ; |194| 
    6489 000007b8 06E4          MOVL      ACC,*+XAR4[4]         ; |194| 
    6490 000007b9 ED1C          BF        L159,NEQ              ; |194| 
    6491                      ; branchcc occurs ; |194| 
    6492                      .dwpsn  "src\link_list_maneger.c",195,4
    6493 000007ba 0644          MOVL      ACC,*-SP[4]           ; |195| 
    6494 000007bb 8A42          MOVL      XAR4,*-SP[2]          ; |195| 
    6495 000007bc 1EE4          MOVL      *+XAR4[4],ACC         ; |195| 
    6496                      .dwpsn  "src\link_list_maneger.c",196,2
    6497 000007bd 6F18          B         L159,UNC              ; |196| 
    6498                      ; branch occurs ; |196| 
TMS320C2000 COFF Assembler PC v4.1.3 Thu Aug 04 16:21:37 2011

Tools Copyright (c) 1996-2006 Texas Instruments Incorporated
C:\DOCUME~1\ADMINI~1\LOCALS~1\Temp\TI8402                            PAGE  123

    6499              L158:    
    6500                      .dwpsn  "src\link_list_maneger.c",197,7
    6501 000007be 1BA9          CMP       AL,#65535             ; |197| 
         000007bf FFFF 
    6502 000007c0 ED15          BF        L159,NEQ              ; |197| 
    6503                      ; branchcc occurs ; |197| 
    6504                      .dwpsn  "src\link_list_maneger.c",199,3
    6505 000007c1 8A44          MOVL      XAR4,*-SP[4]          ; |199| 
    6506 000007c2 0200          MOVB      ACC,#0
    6507 000007c3 1EC4          MOVL      *+XAR4[0],ACC         ; |199| 
    6508                      .dwpsn  "src\link_list_maneger.c",200,3
    6509 000007c4 8A42          MOVL      XAR4,*-SP[2]          ; |200| 
    6510 000007c5 06E4          MOVL      ACC,*+XAR4[4]         ; |200| 
    6511 000007c6 8A44          MOVL      XAR4,*-SP[4]          ; |200| 
    6512 000007c7 1EE4          MOVL      *+XAR4[4],ACC         ; |200| 
    6513                      .dwpsn  "src\link_list_maneger.c",201,3
    6514 000007c8 8A42          MOVL      XAR4,*-SP[2]          ; |201| 
    6515 000007c9 8AE4          MOVL      XAR4,*+XAR4[4]        ; |201| 
    6516 000007ca 0644          MOVL      ACC,*-SP[4]           ; |201| 
    6517 000007cb 1EC4          MOVL      *+XAR4[0],ACC         ; |201| 
    6518                      .dwpsn  "src\link_list_maneger.c",202,3
    6519 000007cc 8A42          MOVL      XAR4,*-SP[2]          ; |202| 
    6520 000007cd 0644          MOVL      ACC,*-SP[4]           ; |202| 
    6521 000007ce 1EE4          MOVL      *+XAR4[4],ACC         ; |202| 
    6522                      .dwpsn  "src\link_list_maneger.c",203,3
    6523 000007cf 8A42          MOVL      XAR4,*-SP[2]          ; |203| 
    6524 000007d0 06D4          MOVL      ACC,*+XAR4[2]         ; |203| 
    6525 000007d1 ED04          BF        L159,NEQ              ; |203| 
    6526                      ; branchcc occurs ; |203| 
    6527                      .dwpsn  "src\link_list_maneger.c",204,4
    6528 000007d2 0644          MOVL      ACC,*-SP[4]           ; |204| 
    6529 000007d3 8A42          MOVL      XAR4,*-SP[2]          ; |204| 
    6530 000007d4 1ED4          MOVL      *+XAR4[2],ACC         ; |204| 
    6531                      .dwpsn  "src\link_list_maneger.c",206,2
    6532              L159:    
    6533                      .dwpsn  "src\link_list_maneger.c",207,1
    6534 000007d5 FE86          SUBB      SP,#6
    6535                      .dwcfa  0x1d, -2
    6536 000007d6 0006          LRETR
    6537                      ; return occurs
    6538                      .dwattr DW$490, DW_AT_end_file("src\link_list_maneger.c")
    6539                      .dwattr DW$490, DW_AT_end_line(0xcf)
    6540                      .dwattr DW$490, DW_AT_end_column(0x01)
    6541                      .dwendentry
    6542                      .dwendtag DW$490
    6543              
    6544 000007d7               .sect   ".text"
    6545              
    6546              DW$497  .dwtag  DW_TAG_subprogram, DW_AT_name("link_list_delete_member"), DW_AT_symbol_name("_link_list_delet
    6547                      .dwattr DW$497, DW_AT_low_pc(_link_list_delete_member)
    6548                      .dwattr DW$497, DW_AT_high_pc(0x00)
    6549                      .dwattr DW$497, DW_AT_begin_file("src\link_list_maneger.c")
    6550                      .dwattr DW$497, DW_AT_begin_line(0xd8)
    6551                      .dwattr DW$497, DW_AT_begin_column(0x0d)
    6552                      .dwpsn  "src\link_list_maneger.c",218,1
TMS320C2000 COFF Assembler PC v4.1.3 Thu Aug 04 16:21:37 2011

Tools Copyright (c) 1996-2006 Texas Instruments Incorporated
C:\DOCUME~1\ADMINI~1\LOCALS~1\Temp\TI8402                            PAGE  124

    6553              
    6554                      .dwfde DW$CIE
    6555              
    6556              ;***************************************************************
    6557              ;* FNAME: _link_list_delete_member      FR SIZE:   4           *
    6558              ;*                                                             *
    6559              ;* FUNCTION ENVIRONMENT                                        *
    6560              ;*                                                             *
    6561              ;* FUNCTION PROPERTIES                                         *
    6562              ;*                            0 Parameter,  4 Auto,  0 SOE     *
    6563              ;***************************************************************
    6564              
    6565              _link_list_delete_member:
    6566                      .dwcfa  0x1d, -2
    6567                      .dwcfa  0x1c, 26, 0
    6568                      .dwcfa  0x09, 40, 26
    6569 000007d7 FE04          ADDB      SP,#4
    6570                      .dwcfa  0x1d, -6
    6571              ;* AR4   assigned to _link_list_tcb
    6572              DW$498  .dwtag  DW_TAG_formal_parameter, DW_AT_name("link_list_tcb"), DW_AT_symbol_name("_link_list_tcb")
    6573                      .dwattr DW$498, DW_AT_type(*DW$T$101)
    6574                      .dwattr DW$498, DW_AT_location[DW_OP_reg12]
    6575              ;* AR5   assigned to _cur_list_member
    6576              DW$499  .dwtag  DW_TAG_formal_parameter, DW_AT_name("cur_list_member"), DW_AT_symbol_name("_cur_list_member")
    6577                      .dwattr DW$499, DW_AT_type(*DW$T$35)
    6578                      .dwattr DW$499, DW_AT_location[DW_OP_reg14]
    6579              DW$500  .dwtag  DW_TAG_variable, DW_AT_name("link_list_tcb"), DW_AT_symbol_name("_link_list_tcb")
    6580                      .dwattr DW$500, DW_AT_type(*DW$T$101)
    6581                      .dwattr DW$500, DW_AT_location[DW_OP_breg20 -2]
    6582              DW$501  .dwtag  DW_TAG_variable, DW_AT_name("cur_list_member"), DW_AT_symbol_name("_cur_list_member")
    6583                      .dwattr DW$501, DW_AT_type(*DW$T$35)
    6584                      .dwattr DW$501, DW_AT_location[DW_OP_breg20 -4]
    6585 000007d8 A044          MOVL      *-SP[4],XAR5          ; |218| 
    6586 000007d9 A842          MOVL      *-SP[2],XAR4          ; |218| 
    6587                      .dwpsn  "src\link_list_maneger.c",219,2
    6588 000007da 8A44          MOVL      XAR4,*-SP[4]          ; |219| 
    6589 000007db 06E4          MOVL      ACC,*+XAR4[4]         ; |219| 
    6590 000007dc ED05          BF        L160,NEQ              ; |219| 
    6591                      ; branchcc occurs ; |219| 
    6592                      .dwpsn  "src\link_list_maneger.c",221,3
    6593 000007dd 8A44          MOVL      XAR4,*-SP[4]          ; |221| 
    6594 000007de 06C4          MOVL      ACC,*+XAR4[0]         ; |221| 
    6595 000007df 8A42          MOVL      XAR4,*-SP[2]          ; |221| 
    6596 000007e0 1ED4          MOVL      *+XAR4[2],ACC         ; |221| 
    6597              L160:    
    6598                      .dwpsn  "src\link_list_maneger.c",223,2
    6599 000007e1 8A44          MOVL      XAR4,*-SP[4]          ; |223| 
    6600 000007e2 06C4          MOVL      ACC,*+XAR4[0]         ; |223| 
    6601 000007e3 ED05          BF        L161,NEQ              ; |223| 
    6602                      ; branchcc occurs ; |223| 
    6603                      .dwpsn  "src\link_list_maneger.c",225,3
    6604 000007e4 8A44          MOVL      XAR4,*-SP[4]          ; |225| 
    6605 000007e5 06E4          MOVL      ACC,*+XAR4[4]         ; |225| 
    6606 000007e6 8A42          MOVL      XAR4,*-SP[2]          ; |225| 
    6607 000007e7 1EE4          MOVL      *+XAR4[4],ACC         ; |225| 
TMS320C2000 COFF Assembler PC v4.1.3 Thu Aug 04 16:21:37 2011

Tools Copyright (c) 1996-2006 Texas Instruments Incorporated
C:\DOCUME~1\ADMINI~1\LOCALS~1\Temp\TI8402                            PAGE  125

    6608              L161:    
    6609                      .dwpsn  "src\link_list_maneger.c",227,2
    6610 000007e8 8A44          MOVL      XAR4,*-SP[4]          ; |227| 
    6611 000007e9 06E4          MOVL      ACC,*+XAR4[4]         ; |227| 
    6612 000007ea 8A44          MOVL      XAR4,*-SP[4]          ; |227| 
    6613 000007eb 8AC4          MOVL      XAR4,*+XAR4[0]        ; |227| 
    6614 000007ec 1EE4          MOVL      *+XAR4[4],ACC         ; |227| 
    6615                      .dwpsn  "src\link_list_maneger.c",229,2
    6616 000007ed 8A44          MOVL      XAR4,*-SP[4]          ; |229| 
    6617 000007ee 06C4          MOVL      ACC,*+XAR4[0]         ; |229| 
    6618 000007ef 8A44          MOVL      XAR4,*-SP[4]          ; |229| 
    6619 000007f0 8AE4          MOVL      XAR4,*+XAR4[4]        ; |229| 
    6620 000007f1 1EC4          MOVL      *+XAR4[0],ACC         ; |229| 
    6621                      .dwpsn  "src\link_list_maneger.c",231,2
    6622                      .dwpsn  "src\link_list_maneger.c",232,1
    6623 000007f2 FE84          SUBB      SP,#4
    6624                      .dwcfa  0x1d, -2
    6625 000007f3 0006          LRETR
    6626                      ; return occurs
    6627                      .dwattr DW$497, DW_AT_end_file("src\link_list_maneger.c")
    6628                      .dwattr DW$497, DW_AT_end_line(0xe8)
    6629                      .dwattr DW$497, DW_AT_end_column(0x01)
    6630                      .dwendentry
    6631                      .dwendtag DW$497
    6632              
    6633 000007f4               .sect   ".text"
    6634                      .global _link_list_offset_obtain
    6635              
    6636              DW$502  .dwtag  DW_TAG_subprogram, DW_AT_name("link_list_offset_obtain"), DW_AT_symbol_name("_link_list_offse
    6637                      .dwattr DW$502, DW_AT_low_pc(_link_list_offset_obtain)
    6638                      .dwattr DW$502, DW_AT_high_pc(0x00)
    6639                      .dwattr DW$502, DW_AT_begin_file("src\link_list_maneger.c")
    6640                      .dwattr DW$502, DW_AT_begin_line(0xf0)
    6641                      .dwattr DW$502, DW_AT_begin_column(0x09)
    6642                      .dwpsn  "src\link_list_maneger.c",243,1
    6643              
    6644                      .dwfde DW$CIE
    6645              
    6646              ;***************************************************************
    6647              ;* FNAME: _link_list_offset_obtain      FR SIZE:  10           *
    6648              ;*                                                             *
    6649              ;* FUNCTION ENVIRONMENT                                        *
    6650              ;*                                                             *
    6651              ;* FUNCTION PROPERTIES                                         *
    6652              ;*                            0 Parameter, 10 Auto,  0 SOE     *
    6653              ;***************************************************************
    6654              
    6655              _link_list_offset_obtain:
    6656                      .dwcfa  0x1d, -2
    6657                      .dwcfa  0x1c, 26, 0
    6658                      .dwcfa  0x09, 40, 26
    6659 000007f4 FE0A          ADDB      SP,#10
    6660                      .dwcfa  0x1d, -12
    6661              ;* AR4   assigned to _link_list_tcb
    6662              DW$503  .dwtag  DW_TAG_formal_parameter, DW_AT_name("link_list_tcb"), DW_AT_symbol_name("_link_list_tcb")
TMS320C2000 COFF Assembler PC v4.1.3 Thu Aug 04 16:21:37 2011

Tools Copyright (c) 1996-2006 Texas Instruments Incorporated
C:\DOCUME~1\ADMINI~1\LOCALS~1\Temp\TI8402                            PAGE  126

    6663                      .dwattr DW$503, DW_AT_type(*DW$T$101)
    6664                      .dwattr DW$503, DW_AT_location[DW_OP_reg12]
    6665              ;* AL    assigned to _link_direction
    6666              DW$504  .dwtag  DW_TAG_formal_parameter, DW_AT_name("link_direction"), DW_AT_symbol_name("_link_direction")
    6667                      .dwattr DW$504, DW_AT_type(*DW$T$23)
    6668                      .dwattr DW$504, DW_AT_location[DW_OP_reg0]
    6669              ;* AR5   assigned to _cur_list_member
    6670              DW$505  .dwtag  DW_TAG_formal_parameter, DW_AT_name("cur_list_member"), DW_AT_symbol_name("_cur_list_member")
    6671                      .dwattr DW$505, DW_AT_type(*DW$T$35)
    6672                      .dwattr DW$505, DW_AT_location[DW_OP_reg14]
    6673              DW$506  .dwtag  DW_TAG_variable, DW_AT_name("link_list_tcb"), DW_AT_symbol_name("_link_list_tcb")
    6674                      .dwattr DW$506, DW_AT_type(*DW$T$101)
    6675                      .dwattr DW$506, DW_AT_location[DW_OP_breg20 -2]
    6676              DW$507  .dwtag  DW_TAG_variable, DW_AT_name("link_direction"), DW_AT_symbol_name("_link_direction")
    6677                      .dwattr DW$507, DW_AT_type(*DW$T$23)
    6678                      .dwattr DW$507, DW_AT_location[DW_OP_breg20 -3]
    6679              DW$508  .dwtag  DW_TAG_variable, DW_AT_name("cur_list_member"), DW_AT_symbol_name("_cur_list_member")
    6680                      .dwattr DW$508, DW_AT_type(*DW$T$35)
    6681                      .dwattr DW$508, DW_AT_location[DW_OP_breg20 -6]
    6682              DW$509  .dwtag  DW_TAG_variable, DW_AT_name("offset"), DW_AT_symbol_name("_offset")
    6683                      .dwattr DW$509, DW_AT_type(*DW$T$23)
    6684                      .dwattr DW$509, DW_AT_location[DW_OP_breg20 -7]
    6685              DW$510  .dwtag  DW_TAG_variable, DW_AT_name("lptr"), DW_AT_symbol_name("_lptr")
    6686                      .dwattr DW$510, DW_AT_type(*DW$T$35)
    6687                      .dwattr DW$510, DW_AT_location[DW_OP_breg20 -10]
    6688 000007f5 A046          MOVL      *-SP[6],XAR5          ; |243| 
    6689 000007f6 9643          MOV       *-SP[3],AL            ; |243| 
    6690 000007f7 A842          MOVL      *-SP[2],XAR4          ; |243| 
    6691                      .dwpsn  "src\link_list_maneger.c",244,12
    6692 000007f8 2B47          MOV       *-SP[7],#0            ; |244| 
    6693                      .dwpsn  "src\link_list_maneger.c",246,2
    6694 000007f9 9243          MOV       AL,*-SP[3]            ; |246| 
    6695 000007fa ED15          BF        L165,NEQ              ; |246| 
    6696                      ; branchcc occurs ; |246| 
    6697                      .dwpsn  "src\link_list_maneger.c",248,3
    6698 000007fb 8A42          MOVL      XAR4,*-SP[2]          ; |248| 
    6699 000007fc 06D4          MOVL      ACC,*+XAR4[2]         ; |248| 
    6700 000007fd 1E4A          MOVL      *-SP[10],ACC          ; |248| 
    6701                      .dwpsn  "src\link_list_maneger.c",249,3
    6702 000007fe 064A          MOVL      ACC,*-SP[10]          ; |249| 
    6703 000007ff EC0D          BF        L164,EQ               ; |249| 
    6704                      ; branchcc occurs ; |249| 
    6705              L162:    
    6706              DW$L$_link_list_offset_obtain$3$B:
    6707                      .dwpsn  "src\link_list_maneger.c",251,4
    6708 00000800 C44A          MOVL      XAR6,*-SP[10]         ; |251| 
    6709 00000801 0646          MOVL      ACC,*-SP[6]           ; |251| 
    6710 00000802 0FA6          CMPL      ACC,XAR6              ; |251| 
    6711 00000803 ED03          BF        L163,NEQ              ; |251| 
    6712                      ; branchcc occurs ; |251| 
    6713              DW$L$_link_list_offset_obtain$3$E:
    6714                      .dwpsn  "src\link_list_maneger.c",253,5
    6715 00000804 9247          MOV       AL,*-SP[7]            ; |253| 
    6716 00000805 6F1D          B         L169,UNC              ; |253| 
    6717                      ; branch occurs ; |253| 
TMS320C2000 COFF Assembler PC v4.1.3 Thu Aug 04 16:21:37 2011

Tools Copyright (c) 1996-2006 Texas Instruments Incorporated
C:\DOCUME~1\ADMINI~1\LOCALS~1\Temp\TI8402                            PAGE  127

    6718              L163:    
    6719              DW$L$_link_list_offset_obtain$5$B:
    6720                      .dwpsn  "src\link_list_maneger.c",255,4
    6721 00000806 0A47          INC       *-SP[7]               ; |255| 
    6722                      .dwpsn  "src\link_list_maneger.c",256,4
    6723 00000807 8A4A          MOVL      XAR4,*-SP[10]         ; |256| 
    6724 00000808 06C4          MOVL      ACC,*+XAR4[0]         ; |256| 
    6725 00000809 1E4A          MOVL      *-SP[10],ACC          ; |256| 
    6726                      .dwpsn  "src\link_list_maneger.c",257,3
    6727 0000080a 064A          MOVL      ACC,*-SP[10]          ; |257| 
    6728 0000080b EDF5          BF        L162,NEQ              ; |257| 
    6729                      ; branchcc occurs ; |257| 
    6730              DW$L$_link_list_offset_obtain$5$E:
    6731              L164:    
    6732                      .dwpsn  "src\link_list_maneger.c",258,3
    6733 0000080c 28A9          MOV       AL,#65535             ; |258| 
         0000080d FFFF 
    6734 0000080e 6F14          B         L169,UNC              ; |258| 
    6735                      ; branch occurs ; |258| 
    6736              L165:    
    6737                      .dwpsn  "src\link_list_maneger.c",262,3
    6738 0000080f 8A42          MOVL      XAR4,*-SP[2]          ; |262| 
    6739 00000810 06E4          MOVL      ACC,*+XAR4[4]         ; |262| 
    6740 00000811 1E4A          MOVL      *-SP[10],ACC          ; |262| 
    6741                      .dwpsn  "src\link_list_maneger.c",263,3
    6742 00000812 064A          MOVL      ACC,*-SP[10]          ; |263| 
    6743 00000813 EC0D          BF        L168,EQ               ; |263| 
    6744                      ; branchcc occurs ; |263| 
    6745              L166:    
    6746              DW$L$_link_list_offset_obtain$9$B:
    6747                      .dwpsn  "src\link_list_maneger.c",265,4
    6748 00000814 C44A          MOVL      XAR6,*-SP[10]         ; |265| 
    6749 00000815 0646          MOVL      ACC,*-SP[6]           ; |265| 
    6750 00000816 0FA6          CMPL      ACC,XAR6              ; |265| 
    6751 00000817 ED03          BF        L167,NEQ              ; |265| 
    6752                      ; branchcc occurs ; |265| 
    6753              DW$L$_link_list_offset_obtain$9$E:
    6754                      .dwpsn  "src\link_list_maneger.c",267,5
    6755 00000818 9247          MOV       AL,*-SP[7]            ; |267| 
    6756 00000819 6F09          B         L169,UNC              ; |267| 
    6757                      ; branch occurs ; |267| 
    6758              L167:    
    6759              DW$L$_link_list_offset_obtain$11$B:
    6760                      .dwpsn  "src\link_list_maneger.c",269,4
    6761 0000081a 0A47          INC       *-SP[7]               ; |269| 
    6762                      .dwpsn  "src\link_list_maneger.c",270,4
    6763 0000081b 8A4A          MOVL      XAR4,*-SP[10]         ; |270| 
    6764 0000081c 06E4          MOVL      ACC,*+XAR4[4]         ; |270| 
    6765 0000081d 1E4A          MOVL      *-SP[10],ACC          ; |270| 
    6766                      .dwpsn  "src\link_list_maneger.c",271,3
    6767 0000081e 064A          MOVL      ACC,*-SP[10]          ; |271| 
    6768 0000081f EDF5          BF        L166,NEQ              ; |271| 
    6769                      ; branchcc occurs ; |271| 
    6770              DW$L$_link_list_offset_obtain$11$E:
    6771              L168:    
TMS320C2000 COFF Assembler PC v4.1.3 Thu Aug 04 16:21:37 2011

Tools Copyright (c) 1996-2006 Texas Instruments Incorporated
C:\DOCUME~1\ADMINI~1\LOCALS~1\Temp\TI8402                            PAGE  128

    6772                      .dwpsn  "src\link_list_maneger.c",272,3
    6773 00000820 28A9          MOV       AL,#65535             ; |272| 
         00000821 FFFF 
    6774              L169:    
    6775                      .dwpsn  "src\link_list_maneger.c",274,1
    6776 00000822 FE8A          SUBB      SP,#10                ; |272| 
    6777                      .dwcfa  0x1d, -2
    6778 00000823 0006          LRETR
    6779                      ; return occurs
    6780              
    6781              DW$511  .dwtag  DW_TAG_loop
    6782                      .dwattr DW$511, DW_AT_name("C:\DOCUME~1\ADMINI~1\LOCALS~1\Temp\TI8402:L166:1:1312446096")
    6783                      .dwattr DW$511, DW_AT_begin_file("src\link_list_maneger.c")
    6784                      .dwattr DW$511, DW_AT_begin_line(0x107)
    6785                      .dwattr DW$511, DW_AT_end_line(0x10f)
    6786              DW$512  .dwtag  DW_TAG_loop_range
    6787                      .dwattr DW$512, DW_AT_low_pc(DW$L$_link_list_offset_obtain$9$B)
    6788                      .dwattr DW$512, DW_AT_high_pc(DW$L$_link_list_offset_obtain$9$E)
    6789              DW$513  .dwtag  DW_TAG_loop_range
    6790                      .dwattr DW$513, DW_AT_low_pc(DW$L$_link_list_offset_obtain$11$B)
    6791                      .dwattr DW$513, DW_AT_high_pc(DW$L$_link_list_offset_obtain$11$E)
    6792                      .dwendtag DW$511
    6793              
    6794              
    6795              DW$514  .dwtag  DW_TAG_loop
    6796                      .dwattr DW$514, DW_AT_name("C:\DOCUME~1\ADMINI~1\LOCALS~1\Temp\TI8402:L162:1:1312446096")
    6797                      .dwattr DW$514, DW_AT_begin_file("src\link_list_maneger.c")
    6798                      .dwattr DW$514, DW_AT_begin_line(0xf9)
    6799                      .dwattr DW$514, DW_AT_end_line(0x101)
    6800              DW$515  .dwtag  DW_TAG_loop_range
    6801                      .dwattr DW$515, DW_AT_low_pc(DW$L$_link_list_offset_obtain$3$B)
    6802                      .dwattr DW$515, DW_AT_high_pc(DW$L$_link_list_offset_obtain$3$E)
    6803              DW$516  .dwtag  DW_TAG_loop_range
    6804                      .dwattr DW$516, DW_AT_low_pc(DW$L$_link_list_offset_obtain$5$B)
    6805                      .dwattr DW$516, DW_AT_high_pc(DW$L$_link_list_offset_obtain$5$E)
    6806                      .dwendtag DW$514
    6807              
    6808                      .dwattr DW$502, DW_AT_end_file("src\link_list_maneger.c")
    6809                      .dwattr DW$502, DW_AT_end_line(0x112)
    6810                      .dwattr DW$502, DW_AT_end_column(0x01)
    6811                      .dwendentry
    6812                      .dwendtag DW$502
    6813              
    6814 00000824               .sect   ".text"
    6815                      .global _link_list_match
    6816              
    6817              DW$517  .dwtag  DW_TAG_subprogram, DW_AT_name("link_list_match"), DW_AT_symbol_name("_link_list_match")
    6818                      .dwattr DW$517, DW_AT_low_pc(_link_list_match)
    6819                      .dwattr DW$517, DW_AT_high_pc(0x00)
    6820                      .dwattr DW$517, DW_AT_begin_file("src\link_list_maneger.c")
    6821                      .dwattr DW$517, DW_AT_begin_line(0x11b)
    6822                      .dwattr DW$517, DW_AT_begin_column(0x06)
    6823                      .dwpsn  "src\link_list_maneger.c",284,1
    6824              
    6825                      .dwfde DW$CIE
TMS320C2000 COFF Assembler PC v4.1.3 Thu Aug 04 16:21:37 2011

Tools Copyright (c) 1996-2006 Texas Instruments Incorporated
C:\DOCUME~1\ADMINI~1\LOCALS~1\Temp\TI8402                            PAGE  129

    6826              
    6827              ;***************************************************************
    6828              ;* FNAME: _link_list_match              FR SIZE:   6           *
    6829              ;*                                                             *
    6830              ;* FUNCTION ENVIRONMENT                                        *
    6831              ;*                                                             *
    6832              ;* FUNCTION PROPERTIES                                         *
    6833              ;*                            0 Parameter,  6 Auto,  0 SOE     *
    6834              ;***************************************************************
    6835              
    6836              _link_list_match:
    6837                      .dwcfa  0x1d, -2
    6838                      .dwcfa  0x1c, 26, 0
    6839                      .dwcfa  0x09, 40, 26
    6840 00000824 FE06          ADDB      SP,#6
    6841                      .dwcfa  0x1d, -8
    6842              ;* AR4   assigned to _link_list_tcb
    6843              DW$518  .dwtag  DW_TAG_formal_parameter, DW_AT_name("link_list_tcb"), DW_AT_symbol_name("_link_list_tcb")
    6844                      .dwattr DW$518, DW_AT_type(*DW$T$101)
    6845                      .dwattr DW$518, DW_AT_location[DW_OP_reg12]
    6846              ;* AR5   assigned to _plink
    6847              DW$519  .dwtag  DW_TAG_formal_parameter, DW_AT_name("plink"), DW_AT_symbol_name("_plink")
    6848                      .dwattr DW$519, DW_AT_type(*DW$T$35)
    6849                      .dwattr DW$519, DW_AT_location[DW_OP_reg14]
    6850              DW$520  .dwtag  DW_TAG_variable, DW_AT_name("link_list_tcb"), DW_AT_symbol_name("_link_list_tcb")
    6851                      .dwattr DW$520, DW_AT_type(*DW$T$101)
    6852                      .dwattr DW$520, DW_AT_location[DW_OP_breg20 -2]
    6853              DW$521  .dwtag  DW_TAG_variable, DW_AT_name("plink"), DW_AT_symbol_name("_plink")
    6854                      .dwattr DW$521, DW_AT_type(*DW$T$35)
    6855                      .dwattr DW$521, DW_AT_location[DW_OP_breg20 -4]
    6856              DW$522  .dwtag  DW_TAG_variable, DW_AT_name("lptr"), DW_AT_symbol_name("_lptr")
    6857                      .dwattr DW$522, DW_AT_type(*DW$T$35)
    6858                      .dwattr DW$522, DW_AT_location[DW_OP_breg20 -6]
    6859 00000825 A044          MOVL      *-SP[4],XAR5          ; |284| 
    6860 00000826 A842          MOVL      *-SP[2],XAR4          ; |284| 
    6861                      .dwpsn  "src\link_list_maneger.c",286,2
    6862 00000827 8A42          MOVL      XAR4,*-SP[2]          ; |286| 
    6863 00000828 06E4          MOVL      ACC,*+XAR4[4]         ; |286| 
    6864 00000829 1E46          MOVL      *-SP[6],ACC           ; |286| 
    6865                      .dwpsn  "src\link_list_maneger.c",287,2
    6866 0000082a 0646          MOVL      ACC,*-SP[6]           ; |287| 
    6867 0000082b EC0C          BF        L172,EQ               ; |287| 
    6868                      ; branchcc occurs ; |287| 
    6869              L170:    
    6870              DW$L$_link_list_match$2$B:
    6871                      .dwpsn  "src\link_list_maneger.c",289,3
    6872 0000082c C446          MOVL      XAR6,*-SP[6]          ; |289| 
    6873 0000082d 0644          MOVL      ACC,*-SP[4]           ; |289| 
    6874 0000082e 0FA6          CMPL      ACC,XAR6              ; |289| 
    6875 0000082f ED03          BF        L171,NEQ              ; |289| 
    6876                      ; branchcc occurs ; |289| 
    6877              DW$L$_link_list_match$2$E:
    6878                      .dwpsn  "src\link_list_maneger.c",291,4
    6879 00000830 9A01          MOVB      AL,#1                 ; |291| 
    6880 00000831 6F07          B         L173,UNC              ; |291| 
TMS320C2000 COFF Assembler PC v4.1.3 Thu Aug 04 16:21:37 2011

Tools Copyright (c) 1996-2006 Texas Instruments Incorporated
C:\DOCUME~1\ADMINI~1\LOCALS~1\Temp\TI8402                            PAGE  130

    6881                      ; branch occurs ; |291| 
    6882              L171:    
    6883              DW$L$_link_list_match$4$B:
    6884                      .dwpsn  "src\link_list_maneger.c",293,3
    6885 00000832 8A46          MOVL      XAR4,*-SP[6]          ; |293| 
    6886 00000833 06E4          MOVL      ACC,*+XAR4[4]         ; |293| 
    6887 00000834 1E46          MOVL      *-SP[6],ACC           ; |293| 
    6888                      .dwpsn  "src\link_list_maneger.c",294,2
    6889 00000835 0646          MOVL      ACC,*-SP[6]           ; |294| 
    6890 00000836 EDF6          BF        L170,NEQ              ; |294| 
    6891                      ; branchcc occurs ; |294| 
    6892              DW$L$_link_list_match$4$E:
    6893              L172:    
    6894                      .dwpsn  "src\link_list_maneger.c",295,2
    6895 00000837 9A00          MOVB      AL,#0
    6896              L173:    
    6897                      .dwpsn  "src\link_list_maneger.c",296,1
    6898 00000838 FE86          SUBB      SP,#6                 ; |295| 
    6899                      .dwcfa  0x1d, -2
    6900 00000839 0006          LRETR
    6901                      ; return occurs
    6902              
    6903              DW$523  .dwtag  DW_TAG_loop
    6904                      .dwattr DW$523, DW_AT_name("C:\DOCUME~1\ADMINI~1\LOCALS~1\Temp\TI8402:L170:1:1312446096")
    6905                      .dwattr DW$523, DW_AT_begin_file("src\link_list_maneger.c")
    6906                      .dwattr DW$523, DW_AT_begin_line(0x11f)
    6907                      .dwattr DW$523, DW_AT_end_line(0x126)
    6908              DW$524  .dwtag  DW_TAG_loop_range
    6909                      .dwattr DW$524, DW_AT_low_pc(DW$L$_link_list_match$2$B)
    6910                      .dwattr DW$524, DW_AT_high_pc(DW$L$_link_list_match$2$E)
    6911              DW$525  .dwtag  DW_TAG_loop_range
    6912                      .dwattr DW$525, DW_AT_low_pc(DW$L$_link_list_match$4$B)
    6913                      .dwattr DW$525, DW_AT_high_pc(DW$L$_link_list_match$4$E)
    6914                      .dwendtag DW$523
    6915              
    6916                      .dwattr DW$517, DW_AT_end_file("src\link_list_maneger.c")
    6917                      .dwattr DW$517, DW_AT_end_line(0x128)
    6918                      .dwattr DW$517, DW_AT_end_column(0x01)
    6919                      .dwendentry
    6920                      .dwendtag DW$517
    6921              
    6922 0000083a               .sect   ".text"
    6923                      .global _link_list_memeber_create
    6924              
    6925              DW$526  .dwtag  DW_TAG_subprogram, DW_AT_name("link_list_memeber_create"), DW_AT_symbol_name("_link_list_meme
    6926                      .dwattr DW$526, DW_AT_low_pc(_link_list_memeber_create)
    6927                      .dwattr DW$526, DW_AT_high_pc(0x00)
    6928                      .dwattr DW$526, DW_AT_begin_file("src\link_list_maneger.c")
    6929                      .dwattr DW$526, DW_AT_begin_line(0x132)
    6930                      .dwattr DW$526, DW_AT_begin_column(0x0f)
    6931                      .dwpsn  "src\link_list_maneger.c",309,1
    6932              
    6933                      .dwfde DW$CIE
    6934              
    6935              ;***************************************************************
TMS320C2000 COFF Assembler PC v4.1.3 Thu Aug 04 16:21:37 2011

Tools Copyright (c) 1996-2006 Texas Instruments Incorporated
C:\DOCUME~1\ADMINI~1\LOCALS~1\Temp\TI8402                            PAGE  131

    6936              ;* FNAME: _link_list_memeber_create     FR SIZE:   6           *
    6937              ;*                                                             *
    6938              ;* FUNCTION ENVIRONMENT                                        *
    6939              ;*                                                             *
    6940              ;* FUNCTION PROPERTIES                                         *
    6941              ;*                            0 Parameter,  6 Auto,  0 SOE     *
    6942              ;***************************************************************
    6943              
    6944              _link_list_memeber_create:
    6945                      .dwcfa  0x1d, -2
    6946                      .dwcfa  0x1c, 26, 0
    6947                      .dwcfa  0x09, 40, 26
    6948 0000083a FE06          ADDB      SP,#6
    6949                      .dwcfa  0x1d, -8
    6950              ;* AR4   assigned to _link_list_tcb
    6951              DW$527  .dwtag  DW_TAG_formal_parameter, DW_AT_name("link_list_tcb"), DW_AT_symbol_name("_link_list_tcb")
    6952                      .dwattr DW$527, DW_AT_type(*DW$T$101)
    6953                      .dwattr DW$527, DW_AT_location[DW_OP_reg12]
    6954              ;* AL    assigned to _link_direction
    6955              DW$528  .dwtag  DW_TAG_formal_parameter, DW_AT_name("link_direction"), DW_AT_symbol_name("_link_direction")
    6956                      .dwattr DW$528, DW_AT_type(*DW$T$23)
    6957                      .dwattr DW$528, DW_AT_location[DW_OP_reg0]
    6958              ;* AH    assigned to _body_lenth
    6959              DW$529  .dwtag  DW_TAG_formal_parameter, DW_AT_name("body_lenth"), DW_AT_symbol_name("_body_lenth")
    6960                      .dwattr DW$529, DW_AT_type(*DW$T$23)
    6961                      .dwattr DW$529, DW_AT_location[DW_OP_reg1]
    6962              DW$530  .dwtag  DW_TAG_variable, DW_AT_name("link_list_tcb"), DW_AT_symbol_name("_link_list_tcb")
    6963                      .dwattr DW$530, DW_AT_type(*DW$T$101)
    6964                      .dwattr DW$530, DW_AT_location[DW_OP_breg20 -2]
    6965              DW$531  .dwtag  DW_TAG_variable, DW_AT_name("link_direction"), DW_AT_symbol_name("_link_direction")
    6966                      .dwattr DW$531, DW_AT_type(*DW$T$23)
    6967                      .dwattr DW$531, DW_AT_location[DW_OP_breg20 -3]
    6968              DW$532  .dwtag  DW_TAG_variable, DW_AT_name("body_lenth"), DW_AT_symbol_name("_body_lenth")
    6969                      .dwattr DW$532, DW_AT_type(*DW$T$23)
    6970                      .dwattr DW$532, DW_AT_location[DW_OP_breg20 -4]
    6971              DW$533  .dwtag  DW_TAG_variable, DW_AT_name("cur_list_member"), DW_AT_symbol_name("_cur_list_member")
    6972                      .dwattr DW$533, DW_AT_type(*DW$T$35)
    6973                      .dwattr DW$533, DW_AT_location[DW_OP_breg20 -6]
    6974 0000083b 9744          MOV       *-SP[4],AH            ; |309| 
    6975 0000083c 9643          MOV       *-SP[3],AL            ; |309| 
    6976 0000083d A842          MOVL      *-SP[2],XAR4          ; |309| 
    6977                      .dwpsn  "src\link_list_maneger.c",311,2
    6978 0000083e 7640'         LCR       #_link_list_lock      ; |311| 
         0000083f 06E2 
    6979                      ; call occurs [#_link_list_lock] ; |311| 
    6980                      .dwpsn  "src\link_list_maneger.c",312,2
    6981 00000840 9244          MOV       AL,*-SP[4]            ; |312| 
    6982 00000841 7640'         LCR       #_link_list_alloc_space ; |312| 
         00000842 077F 
    6983                      ; call occurs [#_link_list_alloc_space] ; |312| 
    6984 00000843 A846          MOVL      *-SP[6],XAR4          ; |312| 
    6985                      .dwpsn  "src\link_list_maneger.c",313,2
    6986 00000844 0646          MOVL      ACC,*-SP[6]           ; |313| 
    6987 00000845 EC0A          BF        L174,EQ               ; |313| 
    6988                      ; branchcc occurs ; |313| 
TMS320C2000 COFF Assembler PC v4.1.3 Thu Aug 04 16:21:37 2011

Tools Copyright (c) 1996-2006 Texas Instruments Incorporated
C:\DOCUME~1\ADMINI~1\LOCALS~1\Temp\TI8402                            PAGE  132

    6989                      .dwpsn  "src\link_list_maneger.c",315,3
    6990 00000846 8A42          MOVL      XAR4,*-SP[2]          ; |315| 
    6991 00000847 8346          MOVL      XAR5,*-SP[6]          ; |315| 
    6992 00000848 9243          MOV       AL,*-SP[3]            ; |315| 
    6993 00000849 7640'         LCR       #_link_list_add_member ; |315| 
         0000084a 07A3 
    6994                      ; call occurs [#_link_list_add_member] ; |315| 
    6995                      .dwpsn  "src\link_list_maneger.c",316,3
    6996 0000084b 7640'         LCR       #_link_list_unlock    ; |316| 
         0000084c 06E8 
    6997                      ; call occurs [#_link_list_unlock] ; |316| 
    6998                      .dwpsn  "src\link_list_maneger.c",317,3
    6999 0000084d 8A46          MOVL      XAR4,*-SP[6]          ; |317| 
    7000 0000084e 6F04          B         L175,UNC              ; |317| 
    7001                      ; branch occurs ; |317| 
    7002              L174:    
    7003                      .dwpsn  "src\link_list_maneger.c",319,2
    7004 0000084f 7640'         LCR       #_link_list_unlock    ; |319| 
         00000850 06E8 
    7005                      ; call occurs [#_link_list_unlock] ; |319| 
    7006                      .dwpsn  "src\link_list_maneger.c",320,2
    7007 00000851 D400          MOVB      XAR4,#0
    7008              L175:    
    7009                      .dwpsn  "src\link_list_maneger.c",321,1
    7010 00000852 FE86          SUBB      SP,#6                 ; |320| 
    7011                      .dwcfa  0x1d, -2
    7012 00000853 0006          LRETR
    7013                      ; return occurs
    7014                      .dwattr DW$526, DW_AT_end_file("src\link_list_maneger.c")
    7015                      .dwattr DW$526, DW_AT_end_line(0x141)
    7016                      .dwattr DW$526, DW_AT_end_column(0x01)
    7017                      .dwendentry
    7018                      .dwendtag DW$526
    7019              
    7020 00000854               .sect   ".text"
    7021                      .global _link_list_memeber_destory
    7022              
    7023              DW$534  .dwtag  DW_TAG_subprogram, DW_AT_name("link_list_memeber_destory"), DW_AT_symbol_name("_link_list_mem
    7024                      .dwattr DW$534, DW_AT_low_pc(_link_list_memeber_destory)
    7025                      .dwattr DW$534, DW_AT_high_pc(0x00)
    7026                      .dwattr DW$534, DW_AT_begin_file("src\link_list_maneger.c")
    7027                      .dwattr DW$534, DW_AT_begin_line(0x14b)
    7028                      .dwattr DW$534, DW_AT_begin_column(0x06)
    7029                      .dwpsn  "src\link_list_maneger.c",332,1
    7030              
    7031                      .dwfde DW$CIE
    7032              
    7033              ;***************************************************************
    7034              ;* FNAME: _link_list_memeber_destory    FR SIZE:   4           *
    7035              ;*                                                             *
    7036              ;* FUNCTION ENVIRONMENT                                        *
    7037              ;*                                                             *
    7038              ;* FUNCTION PROPERTIES                                         *
    7039              ;*                            0 Parameter,  4 Auto,  0 SOE     *
    7040              ;***************************************************************
TMS320C2000 COFF Assembler PC v4.1.3 Thu Aug 04 16:21:37 2011

Tools Copyright (c) 1996-2006 Texas Instruments Incorporated
C:\DOCUME~1\ADMINI~1\LOCALS~1\Temp\TI8402                            PAGE  133

    7041              
    7042              _link_list_memeber_destory:
    7043                      .dwcfa  0x1d, -2
    7044                      .dwcfa  0x1c, 26, 0
    7045                      .dwcfa  0x09, 40, 26
    7046 00000854 FE04          ADDB      SP,#4
    7047                      .dwcfa  0x1d, -6
    7048              ;* AR4   assigned to _link_list_tcb
    7049              DW$535  .dwtag  DW_TAG_formal_parameter, DW_AT_name("link_list_tcb"), DW_AT_symbol_name("_link_list_tcb")
    7050                      .dwattr DW$535, DW_AT_type(*DW$T$101)
    7051                      .dwattr DW$535, DW_AT_location[DW_OP_reg12]
    7052              ;* AR5   assigned to _cur_list_member
    7053              DW$536  .dwtag  DW_TAG_formal_parameter, DW_AT_name("cur_list_member"), DW_AT_symbol_name("_cur_list_member")
    7054                      .dwattr DW$536, DW_AT_type(*DW$T$35)
    7055                      .dwattr DW$536, DW_AT_location[DW_OP_reg14]
    7056              DW$537  .dwtag  DW_TAG_variable, DW_AT_name("link_list_tcb"), DW_AT_symbol_name("_link_list_tcb")
    7057                      .dwattr DW$537, DW_AT_type(*DW$T$101)
    7058                      .dwattr DW$537, DW_AT_location[DW_OP_breg20 -2]
    7059              DW$538  .dwtag  DW_TAG_variable, DW_AT_name("cur_list_member"), DW_AT_symbol_name("_cur_list_member")
    7060                      .dwattr DW$538, DW_AT_type(*DW$T$35)
    7061                      .dwattr DW$538, DW_AT_location[DW_OP_breg20 -4]
    7062 00000855 A044          MOVL      *-SP[4],XAR5          ; |332| 
    7063 00000856 A842          MOVL      *-SP[2],XAR4          ; |332| 
    7064                      .dwpsn  "src\link_list_maneger.c",333,2
    7065 00000857 7640'         LCR       #_link_list_lock      ; |333| 
         00000858 06E2 
    7066                      ; call occurs [#_link_list_lock] ; |333| 
    7067                      .dwpsn  "src\link_list_maneger.c",334,2
    7068 00000859 8A42          MOVL      XAR4,*-SP[2]          ; |334| 
    7069 0000085a 8344          MOVL      XAR5,*-SP[4]          ; |334| 
    7070 0000085b 7640'         LCR       #_link_list_match     ; |334| 
         0000085c 0824 
    7071                      ; call occurs [#_link_list_match] ; |334| 
    7072 0000085d 5201          CMPB      AL,#1                 ; |334| 
    7073 0000085e ED08          BF        L176,NEQ              ; |334| 
    7074                      ; branchcc occurs ; |334| 
    7075                      .dwpsn  "src\link_list_maneger.c",338,3
    7076 0000085f 8A42          MOVL      XAR4,*-SP[2]          ; |338| 
    7077 00000860 8344          MOVL      XAR5,*-SP[4]          ; |338| 
    7078 00000861 7640'         LCR       #_link_list_delete_member ; |338| 
         00000862 07D7 
    7079                      ; call occurs [#_link_list_delete_member] ; |338| 
    7080                      .dwpsn  "src\link_list_maneger.c",339,3
    7081 00000863 8A44          MOVL      XAR4,*-SP[4]          ; |339| 
    7082 00000864 7640'         LCR       #_link_list_free_space ; |339| 
         00000865 0797 
    7083                      ; call occurs [#_link_list_free_space] ; |339| 
    7084              L176:    
    7085                      .dwpsn  "src\link_list_maneger.c",341,2
    7086 00000866 7640'         LCR       #_link_list_unlock    ; |341| 
         00000867 06E8 
    7087                      ; call occurs [#_link_list_unlock] ; |341| 
    7088                      .dwpsn  "src\link_list_maneger.c",342,2
    7089                      .dwpsn  "src\link_list_maneger.c",343,1
    7090 00000868 FE84          SUBB      SP,#4
TMS320C2000 COFF Assembler PC v4.1.3 Thu Aug 04 16:21:37 2011

Tools Copyright (c) 1996-2006 Texas Instruments Incorporated
C:\DOCUME~1\ADMINI~1\LOCALS~1\Temp\TI8402                            PAGE  134

    7091                      .dwcfa  0x1d, -2
    7092 00000869 0006          LRETR
    7093                      ; return occurs
    7094                      .dwattr DW$534, DW_AT_end_file("src\link_list_maneger.c")
    7095                      .dwattr DW$534, DW_AT_end_line(0x157)
    7096                      .dwattr DW$534, DW_AT_end_column(0x01)
    7097                      .dwendentry
    7098                      .dwendtag DW$534
    7099              
    7100 0000086a               .sect   ".text"
    7101                      .global _link_list_maneger_init
    7102              
    7103              DW$539  .dwtag  DW_TAG_subprogram, DW_AT_name("link_list_maneger_init"), DW_AT_symbol_name("_link_list_manege
    7104                      .dwattr DW$539, DW_AT_low_pc(_link_list_maneger_init)
    7105                      .dwattr DW$539, DW_AT_high_pc(0x00)
    7106                      .dwattr DW$539, DW_AT_begin_file("src\link_list_maneger.c")
    7107                      .dwattr DW$539, DW_AT_begin_line(0x160)
    7108                      .dwattr DW$539, DW_AT_begin_column(0x06)
    7109                      .dwpsn  "src\link_list_maneger.c",353,1
    7110              
    7111                      .dwfde DW$CIE
    7112              
    7113              ;***************************************************************
    7114              ;* FNAME: _link_list_maneger_init       FR SIZE:   0           *
    7115              ;*                                                             *
    7116              ;* FUNCTION ENVIRONMENT                                        *
    7117              ;*                                                             *
    7118              ;* FUNCTION PROPERTIES                                         *
    7119              ;*                            0 Parameter,  0 Auto,  0 SOE     *
    7120              ;***************************************************************
    7121              
    7122              _link_list_maneger_init:
    7123                      .dwcfa  0x1d, -2
    7124                      .dwcfa  0x1c, 26, 0
    7125                      .dwcfa  0x09, 40, 26
    7126                      .dwpsn  "src\link_list_maneger.c",354,2
    7127 0000086a 9A00          MOVB      AL,#0
    7128 0000086b 8F00-         MOVL      XAR4,#_g_link_list_maneger_tcb ; |354| 
         0000086c 0040 
    7129 0000086d 9B3E          MOVB      AH,#62                ; |354| 
    7130 0000086e 7640'         LCR       #_global_memset       ; |354| 
         0000086f 01EF 
    7131                      ; call occurs [#_global_memset] ; |354| 
    7132                      .dwpsn  "src\link_list_maneger.c",358,2
    7133 00000870 7640'         LCR       #_link_list_member_init ; |358| 
         00000871 0764 
    7134                      ; call occurs [#_link_list_member_init] ; |358| 
    7135                      .dwpsn  "src\link_list_maneger.c",359,2
    7136 00000872 7640'         LCR       #_link_list_lock_creat ; |359| 
         00000873 06EE 
    7137                      ; call occurs [#_link_list_lock_creat] ; |359| 
    7138                      .dwpsn  "src\link_list_maneger.c",360,2
    7139                      .dwpsn  "src\link_list_maneger.c",361,1
    7140 00000874 0006          LRETR
    7141                      ; return occurs
TMS320C2000 COFF Assembler PC v4.1.3 Thu Aug 04 16:21:37 2011

Tools Copyright (c) 1996-2006 Texas Instruments Incorporated
C:\DOCUME~1\ADMINI~1\LOCALS~1\Temp\TI8402                            PAGE  135

    7142                      .dwattr DW$539, DW_AT_end_file("src\link_list_maneger.c")
    7143                      .dwattr DW$539, DW_AT_end_line(0x169)
    7144                      .dwattr DW$539, DW_AT_end_column(0x01)
    7145                      .dwendentry
    7146                      .dwendtag DW$539
    7147              
    7148 00000875               .sect   ".text"
    7149                      .global _timer_array_lock
    7150              
    7151              DW$540  .dwtag  DW_TAG_subprogram, DW_AT_name("timer_array_lock"), DW_AT_symbol_name("_timer_array_lock")
    7152                      .dwattr DW$540, DW_AT_low_pc(_timer_array_lock)
    7153                      .dwattr DW$540, DW_AT_high_pc(0x00)
    7154                      .dwattr DW$540, DW_AT_begin_file("src\timer_array.c")
    7155                      .dwattr DW$540, DW_AT_begin_line(0xf9)
    7156                      .dwattr DW$540, DW_AT_begin_column(0x06)
    7157                      .dwpsn  "src\timer_array.c",250,1
    7158              
    7159                      .dwfde DW$CIE
    7160              
    7161              ;***************************************************************
    7162              ;* FNAME: _timer_array_lock             FR SIZE:   0           *
    7163              ;*                                                             *
    7164              ;* FUNCTION ENVIRONMENT                                        *
    7165              ;*                                                             *
    7166              ;* FUNCTION PROPERTIES                                         *
    7167              ;*                            0 Parameter,  0 Auto,  0 SOE     *
    7168              ;***************************************************************
    7169              
    7170              _timer_array_lock:
    7171                      .dwcfa  0x1d, -2
    7172                      .dwcfa  0x1c, 26, 0
    7173                      .dwcfa  0x09, 40, 26
    7174                      .dwpsn  "src\timer_array.c",251,2
    7175 00000875 761F-         MOVW      DP,#_m_timer_lock
         00000876 0000 
    7176 00000877 8A06-         MOVL      XAR4,@_m_timer_lock   ; |251| 
    7177 00000878 7640!         LCR       #_os_lock             ; |251| 
         00000879 0000 
    7178                      ; call occurs [#_os_lock] ; |251| 
    7179                      .dwpsn  "src\timer_array.c",252,2
    7180                      .dwpsn  "src\timer_array.c",253,1
    7181 0000087a 0006          LRETR
    7182                      ; return occurs
    7183                      .dwattr DW$540, DW_AT_end_file("src\timer_array.c")
    7184                      .dwattr DW$540, DW_AT_end_line(0xfd)
    7185                      .dwattr DW$540, DW_AT_end_column(0x01)
    7186                      .dwendentry
    7187                      .dwendtag DW$540
    7188              
    7189 0000087b               .sect   ".text"
    7190                      .global _timer_array_unlock
    7191              
    7192              DW$541  .dwtag  DW_TAG_subprogram, DW_AT_name("timer_array_unlock"), DW_AT_symbol_name("_timer_array_unlock")
    7193                      .dwattr DW$541, DW_AT_low_pc(_timer_array_unlock)
    7194                      .dwattr DW$541, DW_AT_high_pc(0x00)
TMS320C2000 COFF Assembler PC v4.1.3 Thu Aug 04 16:21:37 2011

Tools Copyright (c) 1996-2006 Texas Instruments Incorporated
C:\DOCUME~1\ADMINI~1\LOCALS~1\Temp\TI8402                            PAGE  136

    7195                      .dwattr DW$541, DW_AT_begin_file("src\timer_array.c")
    7196                      .dwattr DW$541, DW_AT_begin_line(0xfe)
    7197                      .dwattr DW$541, DW_AT_begin_column(0x06)
    7198                      .dwpsn  "src\timer_array.c",255,1
    7199              
    7200                      .dwfde DW$CIE
    7201              
    7202              ;***************************************************************
    7203              ;* FNAME: _timer_array_unlock           FR SIZE:   0           *
    7204              ;*                                                             *
    7205              ;* FUNCTION ENVIRONMENT                                        *
    7206              ;*                                                             *
    7207              ;* FUNCTION PROPERTIES                                         *
    7208              ;*                            0 Parameter,  0 Auto,  0 SOE     *
    7209              ;***************************************************************
    7210              
    7211              _timer_array_unlock:
    7212                      .dwcfa  0x1d, -2
    7213                      .dwcfa  0x1c, 26, 0
    7214                      .dwcfa  0x09, 40, 26
    7215                      .dwpsn  "src\timer_array.c",256,2
    7216 0000087b 761F-         MOVW      DP,#_m_timer_lock
         0000087c 0000 
    7217 0000087d 8A06-         MOVL      XAR4,@_m_timer_lock   ; |256| 
    7218 0000087e 7640!         LCR       #_os_unlock           ; |256| 
         0000087f 0000 
    7219                      ; call occurs [#_os_unlock] ; |256| 
    7220                      .dwpsn  "src\timer_array.c",257,2
    7221                      .dwpsn  "src\timer_array.c",258,1
    7222 00000880 0006          LRETR
    7223                      ; return occurs
    7224                      .dwattr DW$541, DW_AT_end_file("src\timer_array.c")
    7225                      .dwattr DW$541, DW_AT_end_line(0x102)
    7226                      .dwattr DW$541, DW_AT_end_column(0x01)
    7227                      .dwendentry
    7228                      .dwendtag DW$541
    7229              
    7230 00000881               .sect   ".text"
    7231                      .global _timer_array_lock_creat
    7232              
    7233              DW$542  .dwtag  DW_TAG_subprogram, DW_AT_name("timer_array_lock_creat"), DW_AT_symbol_name("_timer_array_lock
    7234                      .dwattr DW$542, DW_AT_low_pc(_timer_array_lock_creat)
    7235                      .dwattr DW$542, DW_AT_high_pc(0x00)
    7236                      .dwattr DW$542, DW_AT_begin_file("src\timer_array.c")
    7237                      .dwattr DW$542, DW_AT_begin_line(0x103)
    7238                      .dwattr DW$542, DW_AT_begin_column(0x06)
    7239                      .dwpsn  "src\timer_array.c",260,1
    7240              
    7241                      .dwfde DW$CIE
    7242              
    7243              ;***************************************************************
    7244              ;* FNAME: _timer_array_lock_creat       FR SIZE:   0           *
    7245              ;*                                                             *
    7246              ;* FUNCTION ENVIRONMENT                                        *
    7247              ;*                                                             *
TMS320C2000 COFF Assembler PC v4.1.3 Thu Aug 04 16:21:37 2011

Tools Copyright (c) 1996-2006 Texas Instruments Incorporated
C:\DOCUME~1\ADMINI~1\LOCALS~1\Temp\TI8402                            PAGE  137

    7248              ;* FUNCTION PROPERTIES                                         *
    7249              ;*                            0 Parameter,  0 Auto,  0 SOE     *
    7250              ;***************************************************************
    7251              
    7252              _timer_array_lock_creat:
    7253                      .dwcfa  0x1d, -2
    7254                      .dwcfa  0x1c, 26, 0
    7255                      .dwcfa  0x09, 40, 26
    7256                      .dwpsn  "src\timer_array.c",261,2
    7257 00000881 8F00-         MOVL      XAR4,#_m_timer_lock   ; |261| 
         00000882 0006 
    7258 00000883 7640!         LCR       #_os_lock_creat       ; |261| 
         00000884 0000 
    7259                      ; call occurs [#_os_lock_creat] ; |261| 
    7260                      .dwpsn  "src\timer_array.c",262,2
    7261                      .dwpsn  "src\timer_array.c",263,1
    7262 00000885 0006          LRETR
    7263                      ; return occurs
    7264                      .dwattr DW$542, DW_AT_end_file("src\timer_array.c")
    7265                      .dwattr DW$542, DW_AT_end_line(0x107)
    7266                      .dwattr DW$542, DW_AT_end_column(0x01)
    7267                      .dwendentry
    7268                      .dwendtag DW$542
    7269              
    7270 00000886               .sect   ".text"
    7271                      .global _timer_member_create
    7272              
    7273              DW$543  .dwtag  DW_TAG_subprogram, DW_AT_name("timer_member_create"), DW_AT_symbol_name("_timer_member_create
    7274                      .dwattr DW$543, DW_AT_low_pc(_timer_member_create)
    7275                      .dwattr DW$543, DW_AT_high_pc(0x00)
    7276                      .dwattr DW$543, DW_AT_begin_file("src\timer_array.c")
    7277                      .dwattr DW$543, DW_AT_begin_line(0x112)
    7278                      .dwattr DW$543, DW_AT_begin_column(0x0e)
    7279                      .dwpsn  "src\timer_array.c",278,1
    7280              
    7281                      .dwfde DW$CIE
    7282              
    7283              ;***************************************************************
    7284              ;* FNAME: _timer_member_create          FR SIZE:  10           *
    7285              ;*                                                             *
    7286              ;* FUNCTION ENVIRONMENT                                        *
    7287              ;*                                                             *
    7288              ;* FUNCTION PROPERTIES                                         *
    7289              ;*                            0 Parameter, 10 Auto,  0 SOE     *
    7290              ;***************************************************************
    7291              
    7292              _timer_member_create:
    7293                      .dwcfa  0x1d, -2
    7294                      .dwcfa  0x1c, 26, 0
    7295                      .dwcfa  0x09, 40, 26
    7296 00000886 FE0A          ADDB      SP,#10
    7297                      .dwcfa  0x1d, -12
    7298              ;* AL    assigned to _need_jiffies
    7299              DW$544  .dwtag  DW_TAG_formal_parameter, DW_AT_name("need_jiffies"), DW_AT_symbol_name("_need_jiffies")
    7300                      .dwattr DW$544, DW_AT_type(*DW$T$13)
TMS320C2000 COFF Assembler PC v4.1.3 Thu Aug 04 16:21:37 2011

Tools Copyright (c) 1996-2006 Texas Instruments Incorporated
C:\DOCUME~1\ADMINI~1\LOCALS~1\Temp\TI8402                            PAGE  138

    7301                      .dwattr DW$544, DW_AT_location[DW_OP_reg0]
    7302              DW$545  .dwtag  DW_TAG_formal_parameter, DW_AT_name("type"), DW_AT_symbol_name("_type")
    7303                      .dwattr DW$545, DW_AT_type(*DW$T$23)
    7304                      .dwattr DW$545, DW_AT_location[DW_OP_breg20 -13]
    7305              ;* AR4   assigned to _caller
    7306              DW$546  .dwtag  DW_TAG_formal_parameter, DW_AT_name("caller"), DW_AT_symbol_name("_caller")
    7307                      .dwattr DW$546, DW_AT_type(*DW$T$39)
    7308                      .dwattr DW$546, DW_AT_location[DW_OP_reg12]
    7309              ;* AR5   assigned to _p_arg
    7310              DW$547  .dwtag  DW_TAG_formal_parameter, DW_AT_name("p_arg"), DW_AT_symbol_name("_p_arg")
    7311                      .dwattr DW$547, DW_AT_type(*DW$T$3)
    7312                      .dwattr DW$547, DW_AT_location[DW_OP_reg14]
    7313              DW$548  .dwtag  DW_TAG_variable, DW_AT_name("need_jiffies"), DW_AT_symbol_name("_need_jiffies")
    7314                      .dwattr DW$548, DW_AT_type(*DW$T$13)
    7315                      .dwattr DW$548, DW_AT_location[DW_OP_breg20 -2]
    7316              DW$549  .dwtag  DW_TAG_variable, DW_AT_name("caller"), DW_AT_symbol_name("_caller")
    7317                      .dwattr DW$549, DW_AT_type(*DW$T$39)
    7318                      .dwattr DW$549, DW_AT_location[DW_OP_breg20 -4]
    7319              DW$550  .dwtag  DW_TAG_variable, DW_AT_name("p_arg"), DW_AT_symbol_name("_p_arg")
    7320                      .dwattr DW$550, DW_AT_type(*DW$T$3)
    7321                      .dwattr DW$550, DW_AT_location[DW_OP_breg20 -6]
    7322              DW$551  .dwtag  DW_TAG_variable, DW_AT_name("index"), DW_AT_symbol_name("_index")
    7323                      .dwattr DW$551, DW_AT_type(*DW$T$23)
    7324                      .dwattr DW$551, DW_AT_location[DW_OP_breg20 -7]
    7325              DW$552  .dwtag  DW_TAG_variable, DW_AT_name("tmr_pos"), DW_AT_symbol_name("_tmr_pos")
    7326                      .dwattr DW$552, DW_AT_type(*DW$T$108)
    7327                      .dwattr DW$552, DW_AT_location[DW_OP_breg20 -10]
    7328 00000887 A046          MOVL      *-SP[6],XAR5          ; |278| 
    7329 00000888 A844          MOVL      *-SP[4],XAR4          ; |278| 
    7330 00000889 1E42          MOVL      *-SP[2],ACC           ; |278| 
    7331                      .dwpsn  "src\timer_array.c",279,10
    7332 0000088a 2B47          MOV       *-SP[7],#0            ; |279| 
    7333                      .dwpsn  "src\timer_array.c",281,2
    7334 0000088b 7640'         LCR       #_timer_array_lock    ; |281| 
         0000088c 0875 
    7335                      ; call occurs [#_timer_array_lock] ; |281| 
    7336                      .dwpsn  "src\timer_array.c",282,8
    7337 0000088d 2B47          MOV       *-SP[7],#0            ; |282| 
    7338                      .dwpsn  "src\timer_array.c",282,18
    7339 0000088e 9247          MOV       AL,*-SP[7]            ; |282| 
    7340 0000088f 520F          CMPB      AL,#15                ; |282| 
    7341 00000890 6731          B         L179,HIS              ; |282| 
    7342                      ; branchcc occurs ; |282| 
    7343              L177:    
    7344              DW$L$_timer_member_create$2$B:
    7345                      .dwpsn  "src\timer_array.c",284,3
    7346 00000891 28AC          MOV       T,#10                 ; |284| 
         00000892 000A 
    7347 00000893 8F00-         MOVL      XAR4,#_m_timer_array+6 ; |284| 
         00000894 0106 
    7348 00000895 3047          MPYXU     ACC,T,*-SP[7]         ; |284| 
    7349 00000896 5601          ADDL      XAR4,ACC
         00000897 00A4 
    7350 00000898 92C4          MOV       AL,*+XAR4[0]          ; |284| 
    7351 00000899 ED24          BF        L178,NEQ              ; |284| 
TMS320C2000 COFF Assembler PC v4.1.3 Thu Aug 04 16:21:37 2011

Tools Copyright (c) 1996-2006 Texas Instruments Incorporated
C:\DOCUME~1\ADMINI~1\LOCALS~1\Temp\TI8402                            PAGE  139

    7352                      ; branchcc occurs ; |284| 
    7353              DW$L$_timer_member_create$2$E:
    7354                      .dwpsn  "src\timer_array.c",286,4
    7355 0000089a 761F-         MOVW      DP,#_m_timer_array
         0000089b 0004 
    7356 0000089c 0A00-         INC       @_m_timer_array       ; |286| 
    7357                      .dwpsn  "src\timer_array.c",287,4
    7358 0000089d 28AC          MOV       T,#10                 ; |287| 
         0000089e 000A 
    7359 0000089f 8F00-         MOVL      XAR4,#_m_timer_array+2 ; |287| 
         000008a0 0102 
    7360 000008a1 3047          MPYXU     ACC,T,*-SP[7]         ; |287| 
    7361 000008a2 5601          ADDL      XAR4,ACC
         000008a3 00A4 
    7362 000008a4 A84A          MOVL      *-SP[10],XAR4         ; |287| 
    7363                      .dwpsn  "src\timer_array.c",288,4
    7364 000008a5 8A4A          MOVL      XAR4,*-SP[10]         ; |288| 
    7365 000008a6 0642          MOVL      ACC,*-SP[2]           ; |288| 
    7366 000008a7 1EF4          MOVL      *+XAR4[6],ACC         ; |288| 
    7367                      .dwpsn  "src\timer_array.c",289,4
    7368 000008a8 8A4A          MOVL      XAR4,*-SP[10]         ; |289| 
    7369 000008a9 0644          MOVL      ACC,*-SP[4]           ; |289| 
    7370 000008aa 1EC4          MOVL      *+XAR4[0],ACC         ; |289| 
    7371                      .dwpsn  "src\timer_array.c",290,4
    7372 000008ab 8A4A          MOVL      XAR4,*-SP[10]         ; |290| 
    7373 000008ac D008          MOVB      XAR0,#8               ; |290| 
    7374 000008ad 0646          MOVL      ACC,*-SP[6]           ; |290| 
    7375 000008ae 1E94          MOVL      *+XAR4[AR0],ACC       ; |290| 
    7376                      .dwpsn  "src\timer_array.c",291,4
    7377 000008af 8A4A          MOVL      XAR4,*-SP[10]         ; |291| 
    7378 000008b0 924D          MOV       AL,*-SP[13]           ; |291| 
    7379 000008b1 96EC          MOV       *+XAR4[5],AL          ; |291| 
    7380                      .dwpsn  "src\timer_array.c",292,4
    7381 000008b2 8A4A          MOVL      XAR4,*-SP[10]         ; |292| 
    7382 000008b3 28E4          MOV       *+XAR4[4],#4          ; |292| 
         000008b4 0004 
    7383                      .dwpsn  "src\timer_array.c",293,4
    7384 000008b5 8A4A          MOVL      XAR4,*-SP[10]         ; |293| 
    7385 000008b6 0642          MOVL      ACC,*-SP[2]           ; |293| 
    7386 000008b7 7640'         LCR       #_timer_member_mod_expires ; |293| 
         000008b8 08E5 
    7387                      ; call occurs [#_timer_member_mod_expires] ; |293| 
    7388                      .dwpsn  "src\timer_array.c",294,4
    7389 000008b9 7640'         LCR       #_timer_array_unlock  ; |294| 
         000008ba 087B 
    7390                      ; call occurs [#_timer_array_unlock] ; |294| 
    7391                      .dwpsn  "src\timer_array.c",295,4
    7392 000008bb 8A4A          MOVL      XAR4,*-SP[10]         ; |295| 
    7393 000008bc 6F08          B         L180,UNC              ; |295| 
    7394                      ; branch occurs ; |295| 
    7395              L178:    
    7396              DW$L$_timer_member_create$4$B:
    7397                      .dwpsn  "src\timer_array.c",282,38
    7398 000008bd 0A47          INC       *-SP[7]               ; |282| 
    7399                      .dwpsn  "src\timer_array.c",282,18
TMS320C2000 COFF Assembler PC v4.1.3 Thu Aug 04 16:21:37 2011

Tools Copyright (c) 1996-2006 Texas Instruments Incorporated
C:\DOCUME~1\ADMINI~1\LOCALS~1\Temp\TI8402                            PAGE  140

    7400 000008be 9247          MOV       AL,*-SP[7]            ; |282| 
    7401 000008bf 520F          CMPB      AL,#15                ; |282| 
    7402 000008c0 68D1          B         L177,LO               ; |282| 
    7403                      ; branchcc occurs ; |282| 
    7404              DW$L$_timer_member_create$4$E:
    7405              L179:    
    7406                      .dwpsn  "src\timer_array.c",298,2
    7407 000008c1 7640'         LCR       #_timer_array_unlock  ; |298| 
         000008c2 087B 
    7408                      ; call occurs [#_timer_array_unlock] ; |298| 
    7409                      .dwpsn  "src\timer_array.c",300,2
    7410 000008c3 D400          MOVB      XAR4,#0
    7411              L180:    
    7412                      .dwpsn  "src\timer_array.c",301,1
    7413 000008c4 FE8A          SUBB      SP,#10                ; |300| 
    7414                      .dwcfa  0x1d, -2
    7415 000008c5 0006          LRETR
    7416                      ; return occurs
    7417              
    7418              DW$553  .dwtag  DW_TAG_loop
    7419                      .dwattr DW$553, DW_AT_name("C:\DOCUME~1\ADMINI~1\LOCALS~1\Temp\TI8402:L177:1:1312446096")
    7420                      .dwattr DW$553, DW_AT_begin_file("src\timer_array.c")
    7421                      .dwattr DW$553, DW_AT_begin_line(0x11a)
    7422                      .dwattr DW$553, DW_AT_end_line(0x129)
    7423              DW$554  .dwtag  DW_TAG_loop_range
    7424                      .dwattr DW$554, DW_AT_low_pc(DW$L$_timer_member_create$2$B)
    7425                      .dwattr DW$554, DW_AT_high_pc(DW$L$_timer_member_create$2$E)
    7426              DW$555  .dwtag  DW_TAG_loop_range
    7427                      .dwattr DW$555, DW_AT_low_pc(DW$L$_timer_member_create$4$B)
    7428                      .dwattr DW$555, DW_AT_high_pc(DW$L$_timer_member_create$4$E)
    7429                      .dwendtag DW$553
    7430              
    7431                      .dwattr DW$543, DW_AT_end_file("src\timer_array.c")
    7432                      .dwattr DW$543, DW_AT_end_line(0x12d)
    7433                      .dwattr DW$543, DW_AT_end_column(0x01)
    7434                      .dwendentry
    7435                      .dwendtag DW$543
    7436              
    7437 000008c6               .sect   ".text"
    7438                      .global _timer_member_revert_expires
    7439              
    7440              DW$556  .dwtag  DW_TAG_subprogram, DW_AT_name("timer_member_revert_expires"), DW_AT_symbol_name("_timer_membe
    7441                      .dwattr DW$556, DW_AT_low_pc(_timer_member_revert_expires)
    7442                      .dwattr DW$556, DW_AT_high_pc(0x00)
    7443                      .dwattr DW$556, DW_AT_begin_file("src\timer_array.c")
    7444                      .dwattr DW$556, DW_AT_begin_line(0x136)
    7445                      .dwattr DW$556, DW_AT_begin_column(0x06)
    7446                      .dwpsn  "src\timer_array.c",311,1
    7447              
    7448                      .dwfde DW$CIE
    7449              
    7450              ;***************************************************************
    7451              ;* FNAME: _timer_member_revert_expires  FR SIZE:   6           *
    7452              ;*                                                             *
    7453              ;* FUNCTION ENVIRONMENT                                        *
TMS320C2000 COFF Assembler PC v4.1.3 Thu Aug 04 16:21:37 2011

Tools Copyright (c) 1996-2006 Texas Instruments Incorporated
C:\DOCUME~1\ADMINI~1\LOCALS~1\Temp\TI8402                            PAGE  141

    7454              ;*                                                             *
    7455              ;* FUNCTION PROPERTIES                                         *
    7456              ;*                            0 Parameter,  6 Auto,  0 SOE     *
    7457              ;***************************************************************
    7458              
    7459              _timer_member_revert_expires:
    7460                      .dwcfa  0x1d, -2
    7461                      .dwcfa  0x1c, 26, 0
    7462                      .dwcfa  0x09, 40, 26
    7463 000008c6 FE06          ADDB      SP,#6
    7464                      .dwcfa  0x1d, -8
    7465              ;* AL    assigned to _over_jiffies
    7466              DW$557  .dwtag  DW_TAG_formal_parameter, DW_AT_name("over_jiffies"), DW_AT_symbol_name("_over_jiffies")
    7467                      .dwattr DW$557, DW_AT_type(*DW$T$13)
    7468                      .dwattr DW$557, DW_AT_location[DW_OP_reg0]
    7469              DW$558  .dwtag  DW_TAG_variable, DW_AT_name("over_jiffies"), DW_AT_symbol_name("_over_jiffies")
    7470                      .dwattr DW$558, DW_AT_type(*DW$T$13)
    7471                      .dwattr DW$558, DW_AT_location[DW_OP_breg20 -2]
    7472              DW$559  .dwtag  DW_TAG_variable, DW_AT_name("index"), DW_AT_symbol_name("_index")
    7473                      .dwattr DW$559, DW_AT_type(*DW$T$23)
    7474                      .dwattr DW$559, DW_AT_location[DW_OP_breg20 -3]
    7475              DW$560  .dwtag  DW_TAG_variable, DW_AT_name("tmr"), DW_AT_symbol_name("_tmr")
    7476                      .dwattr DW$560, DW_AT_type(*DW$T$108)
    7477                      .dwattr DW$560, DW_AT_location[DW_OP_breg20 -6]
    7478 000008c7 1E42          MOVL      *-SP[2],ACC           ; |311| 
    7479                      .dwpsn  "src\timer_array.c",312,10
    7480 000008c8 2B43          MOV       *-SP[3],#0            ; |312| 
    7481                      .dwpsn  "src\timer_array.c",314,8
    7482 000008c9 2B43          MOV       *-SP[3],#0            ; |314| 
    7483                      .dwpsn  "src\timer_array.c",314,18
    7484 000008ca 9243          MOV       AL,*-SP[3]            ; |314| 
    7485 000008cb 520F          CMPB      AL,#15                ; |314| 
    7486 000008cc 6712          B         L183,HIS              ; |314| 
    7487                      ; branchcc occurs ; |314| 
    7488              L181:    
    7489              DW$L$_timer_member_revert_expires$2$B:
    7490                      .dwpsn  "src\timer_array.c",316,3
    7491 000008cd 28AC          MOV       T,#10                 ; |316| 
         000008ce 000A 
    7492 000008cf 8F00-         MOVL      XAR4,#_m_timer_array+6 ; |316| 
         000008d0 0106 
    7493 000008d1 3043          MPYXU     ACC,T,*-SP[3]         ; |316| 
    7494 000008d2 5601          ADDL      XAR4,ACC
         000008d3 00A4 
    7495 000008d4 92C4          MOV       AL,*+XAR4[0]          ; |316| 
    7496 000008d5 EC05          BF        L182,EQ               ; |316| 
    7497                      ; branchcc occurs ; |316| 
    7498              DW$L$_timer_member_revert_expires$2$E:
    7499              DW$L$_timer_member_revert_expires$3$B:
    7500                      .dwpsn  "src\timer_array.c",318,4
    7501 000008d6 8A46          MOVL      XAR4,*-SP[6]          ; |318| 
    7502 000008d7 0642          MOVL      ACC,*-SP[2]           ; |318| 
    7503 000008d8 5601          ADDL      *+XAR4[2],ACC         ; |318| 
         000008d9 00D4 
    7504              DW$L$_timer_member_revert_expires$3$E:
TMS320C2000 COFF Assembler PC v4.1.3 Thu Aug 04 16:21:37 2011

Tools Copyright (c) 1996-2006 Texas Instruments Incorporated
C:\DOCUME~1\ADMINI~1\LOCALS~1\Temp\TI8402                            PAGE  142

    7505              L182:    
    7506              DW$L$_timer_member_revert_expires$4$B:
    7507                      .dwpsn  "src\timer_array.c",314,38
    7508 000008da 0A43          INC       *-SP[3]               ; |314| 
    7509                      .dwpsn  "src\timer_array.c",314,18
    7510 000008db 9243          MOV       AL,*-SP[3]            ; |314| 
    7511 000008dc 520F          CMPB      AL,#15                ; |314| 
    7512 000008dd 68F0          B         L181,LO               ; |314| 
    7513                      ; branchcc occurs ; |314| 
    7514              DW$L$_timer_member_revert_expires$4$E:
    7515              L183:    
    7516                      .dwpsn  "src\timer_array.c",321,2
    7517 000008de 0642          MOVL      ACC,*-SP[2]           ; |321| 
    7518 000008df 761F-         MOVW      DP,#_m_timer_array_jiffies
         000008e0 0000 
    7519 000008e1 5601-         ADDL      @_m_timer_array_jiffies,ACC ; |321| 
         000008e2 0008 
    7520                      .dwpsn  "src\timer_array.c",322,2
    7521                      .dwpsn  "src\timer_array.c",323,1
    7522 000008e3 FE86          SUBB      SP,#6
    7523                      .dwcfa  0x1d, -2
    7524 000008e4 0006          LRETR
    7525                      ; return occurs
    7526              
    7527              DW$561  .dwtag  DW_TAG_loop
    7528                      .dwattr DW$561, DW_AT_name("C:\DOCUME~1\ADMINI~1\LOCALS~1\Temp\TI8402:L181:1:1312446096")
    7529                      .dwattr DW$561, DW_AT_begin_file("src\timer_array.c")
    7530                      .dwattr DW$561, DW_AT_begin_line(0x13a)
    7531                      .dwattr DW$561, DW_AT_end_line(0x140)
    7532              DW$562  .dwtag  DW_TAG_loop_range
    7533                      .dwattr DW$562, DW_AT_low_pc(DW$L$_timer_member_revert_expires$2$B)
    7534                      .dwattr DW$562, DW_AT_high_pc(DW$L$_timer_member_revert_expires$2$E)
    7535              DW$563  .dwtag  DW_TAG_loop_range
    7536                      .dwattr DW$563, DW_AT_low_pc(DW$L$_timer_member_revert_expires$3$B)
    7537                      .dwattr DW$563, DW_AT_high_pc(DW$L$_timer_member_revert_expires$3$E)
    7538              DW$564  .dwtag  DW_TAG_loop_range
    7539                      .dwattr DW$564, DW_AT_low_pc(DW$L$_timer_member_revert_expires$4$B)
    7540                      .dwattr DW$564, DW_AT_high_pc(DW$L$_timer_member_revert_expires$4$E)
    7541                      .dwendtag DW$561
    7542              
    7543                      .dwattr DW$556, DW_AT_end_file("src\timer_array.c")
    7544                      .dwattr DW$556, DW_AT_end_line(0x143)
    7545                      .dwattr DW$556, DW_AT_end_column(0x01)
    7546                      .dwendentry
    7547                      .dwendtag DW$556
    7548              
    7549 000008e5               .sect   ".text"
    7550                      .global _timer_member_mod_expires
    7551              
    7552              DW$565  .dwtag  DW_TAG_subprogram, DW_AT_name("timer_member_mod_expires"), DW_AT_symbol_name("_timer_member_m
    7553                      .dwattr DW$565, DW_AT_low_pc(_timer_member_mod_expires)
    7554                      .dwattr DW$565, DW_AT_high_pc(0x00)
    7555                      .dwattr DW$565, DW_AT_begin_file("src\timer_array.c")
    7556                      .dwattr DW$565, DW_AT_begin_line(0x14c)
    7557                      .dwattr DW$565, DW_AT_begin_column(0x06)
TMS320C2000 COFF Assembler PC v4.1.3 Thu Aug 04 16:21:37 2011

Tools Copyright (c) 1996-2006 Texas Instruments Incorporated
C:\DOCUME~1\ADMINI~1\LOCALS~1\Temp\TI8402                            PAGE  143

    7558                      .dwpsn  "src\timer_array.c",334,1
    7559              
    7560                      .dwfde DW$CIE
    7561              
    7562              ;***************************************************************
    7563              ;* FNAME: _timer_member_mod_expires     FR SIZE:   4           *
    7564              ;*                                                             *
    7565              ;* FUNCTION ENVIRONMENT                                        *
    7566              ;*                                                             *
    7567              ;* FUNCTION PROPERTIES                                         *
    7568              ;*                            0 Parameter,  4 Auto,  0 SOE     *
    7569              ;***************************************************************
    7570              
    7571              _timer_member_mod_expires:
    7572                      .dwcfa  0x1d, -2
    7573                      .dwcfa  0x1c, 26, 0
    7574                      .dwcfa  0x09, 40, 26
    7575 000008e5 FE04          ADDB      SP,#4
    7576                      .dwcfa  0x1d, -6
    7577              ;* AR4   assigned to _tmr
    7578              DW$566  .dwtag  DW_TAG_formal_parameter, DW_AT_name("tmr"), DW_AT_symbol_name("_tmr")
    7579                      .dwattr DW$566, DW_AT_type(*DW$T$108)
    7580                      .dwattr DW$566, DW_AT_location[DW_OP_reg12]
    7581              ;* AL    assigned to _over_time
    7582              DW$567  .dwtag  DW_TAG_formal_parameter, DW_AT_name("over_time"), DW_AT_symbol_name("_over_time")
    7583                      .dwattr DW$567, DW_AT_type(*DW$T$13)
    7584                      .dwattr DW$567, DW_AT_location[DW_OP_reg0]
    7585              DW$568  .dwtag  DW_TAG_variable, DW_AT_name("tmr"), DW_AT_symbol_name("_tmr")
    7586                      .dwattr DW$568, DW_AT_type(*DW$T$108)
    7587                      .dwattr DW$568, DW_AT_location[DW_OP_breg20 -2]
    7588              DW$569  .dwtag  DW_TAG_variable, DW_AT_name("over_time"), DW_AT_symbol_name("_over_time")
    7589                      .dwattr DW$569, DW_AT_type(*DW$T$13)
    7590                      .dwattr DW$569, DW_AT_location[DW_OP_breg20 -4]
    7591 000008e6 1E44          MOVL      *-SP[4],ACC           ; |334| 
    7592 000008e7 A842          MOVL      *-SP[2],XAR4          ; |334| 
    7593                      .dwpsn  "src\timer_array.c",335,2
    7594 000008e8 8A42          MOVL      XAR4,*-SP[2]          ; |335| 
    7595 000008e9 761F-         MOVW      DP,#_m_timer_array_jiffies
         000008ea 0000 
    7596 000008eb 0644          MOVL      ACC,*-SP[4]           ; |335| 
    7597 000008ec 0708-         ADDL      ACC,@_m_timer_array_jiffies ; |335| 
    7598 000008ed 1ED4          MOVL      *+XAR4[2],ACC         ; |335| 
    7599                      .dwpsn  "src\timer_array.c",336,2
    7600 000008ee 0608-         MOVL      ACC,@_m_timer_array_jiffies ; |336| 
    7601 000008ef 8A42          MOVL      XAR4,*-SP[2]          ; |336| 
    7602 000008f0 0FD4          CMPL      ACC,*+XAR4[2]         ; |336| 
    7603 000008f1 6908          B         L184,LOS              ; |336| 
    7604                      ; branchcc occurs ; |336| 
    7605                      .dwpsn  "src\timer_array.c",338,3
    7606 000008f2 0644          MOVL      ACC,*-SP[4]           ; |338| 
    7607 000008f3 7640'         LCR       #_timer_member_revert_expires ; |338| 
         000008f4 08C6 
    7608                      ; call occurs [#_timer_member_revert_expires] ; |338| 
    7609                      .dwpsn  "src\timer_array.c",339,3
    7610 000008f5 8A42          MOVL      XAR4,*-SP[2]          ; |339| 
TMS320C2000 COFF Assembler PC v4.1.3 Thu Aug 04 16:21:37 2011

Tools Copyright (c) 1996-2006 Texas Instruments Incorporated
C:\DOCUME~1\ADMINI~1\LOCALS~1\Temp\TI8402                            PAGE  144

    7611 000008f6 0644          MOVL      ACC,*-SP[4]           ; |339| 
    7612 000008f7 5641          SUBL      *+XAR4[2],ACC         ; |339| 
         000008f8 00D4 
    7613                      .dwpsn  "src\timer_array.c",341,2
    7614              L184:    
    7615                      .dwpsn  "src\timer_array.c",342,1
    7616 000008f9 FE84          SUBB      SP,#4
    7617                      .dwcfa  0x1d, -2
    7618 000008fa 0006          LRETR
    7619                      ; return occurs
    7620                      .dwattr DW$565, DW_AT_end_file("src\timer_array.c")
    7621                      .dwattr DW$565, DW_AT_end_line(0x156)
    7622                      .dwattr DW$565, DW_AT_end_column(0x01)
    7623                      .dwendentry
    7624                      .dwendtag DW$565
    7625              
    7626 000008fb               .sect   ".text"
    7627                      .global _timer_member_state_set
    7628              
    7629              DW$570  .dwtag  DW_TAG_subprogram, DW_AT_name("timer_member_state_set"), DW_AT_symbol_name("_timer_member_sta
    7630                      .dwattr DW$570, DW_AT_low_pc(_timer_member_state_set)
    7631                      .dwattr DW$570, DW_AT_high_pc(0x00)
    7632                      .dwattr DW$570, DW_AT_begin_file("src\timer_array.c")
    7633                      .dwattr DW$570, DW_AT_begin_line(0x163)
    7634                      .dwattr DW$570, DW_AT_begin_column(0x06)
    7635                      .dwpsn  "src\timer_array.c",356,1
    7636              
    7637                      .dwfde DW$CIE
    7638              
    7639              ;***************************************************************
    7640              ;* FNAME: _timer_member_state_set       FR SIZE:   4           *
    7641              ;*                                                             *
    7642              ;* FUNCTION ENVIRONMENT                                        *
    7643              ;*                                                             *
    7644              ;* FUNCTION PROPERTIES                                         *
    7645              ;*                            0 Parameter,  3 Auto,  0 SOE     *
    7646              ;***************************************************************
    7647              
    7648              _timer_member_state_set:
    7649                      .dwcfa  0x1d, -2
    7650                      .dwcfa  0x1c, 26, 0
    7651                      .dwcfa  0x09, 40, 26
    7652 000008fb FE04          ADDB      SP,#4
    7653                      .dwcfa  0x1d, -6
    7654              ;* AR4   assigned to _tmr
    7655              DW$571  .dwtag  DW_TAG_formal_parameter, DW_AT_name("tmr"), DW_AT_symbol_name("_tmr")
    7656                      .dwattr DW$571, DW_AT_type(*DW$T$108)
    7657                      .dwattr DW$571, DW_AT_location[DW_OP_reg12]
    7658              ;* AL    assigned to _state
    7659              DW$572  .dwtag  DW_TAG_formal_parameter, DW_AT_name("state"), DW_AT_symbol_name("_state")
    7660                      .dwattr DW$572, DW_AT_type(*DW$T$23)
    7661                      .dwattr DW$572, DW_AT_location[DW_OP_reg0]
    7662              DW$573  .dwtag  DW_TAG_variable, DW_AT_name("tmr"), DW_AT_symbol_name("_tmr")
    7663                      .dwattr DW$573, DW_AT_type(*DW$T$108)
    7664                      .dwattr DW$573, DW_AT_location[DW_OP_breg20 -2]
TMS320C2000 COFF Assembler PC v4.1.3 Thu Aug 04 16:21:37 2011

Tools Copyright (c) 1996-2006 Texas Instruments Incorporated
C:\DOCUME~1\ADMINI~1\LOCALS~1\Temp\TI8402                            PAGE  145

    7665              DW$574  .dwtag  DW_TAG_variable, DW_AT_name("state"), DW_AT_symbol_name("_state")
    7666                      .dwattr DW$574, DW_AT_type(*DW$T$23)
    7667                      .dwattr DW$574, DW_AT_location[DW_OP_breg20 -3]
    7668 000008fc 9643          MOV       *-SP[3],AL            ; |356| 
    7669 000008fd A842          MOVL      *-SP[2],XAR4          ; |356| 
    7670                      .dwpsn  "src\timer_array.c",357,2
    7671 000008fe 9243          MOV       AL,*-SP[3]            ; |357| 
    7672 000008ff 5203          CMPB      AL,#3                 ; |357| 
    7673 00000900 ED09          BF        L185,NEQ              ; |357| 
    7674                      ; branchcc occurs ; |357| 
    7675                      .dwpsn  "src\timer_array.c",359,3
    7676 00000901 8A42          MOVL      XAR4,*-SP[2]          ; |359| 
    7677 00000902 92E4          MOV       AL,*+XAR4[4]          ; |359| 
    7678 00000903 5202          CMPB      AL,#2                 ; |359| 
    7679 00000904 ED07          BF        L186,NEQ              ; |359| 
    7680                      ; branchcc occurs ; |359| 
    7681                      .dwpsn  "src\timer_array.c",361,4
    7682 00000905 9243          MOV       AL,*-SP[3]            ; |361| 
    7683 00000906 8A42          MOVL      XAR4,*-SP[2]          ; |361| 
    7684 00000907 96E4          MOV       *+XAR4[4],AL          ; |361| 
    7685                      .dwpsn  "src\timer_array.c",363,2
    7686 00000908 6F03          B         L186,UNC              ; |363| 
    7687                      ; branch occurs ; |363| 
    7688              L185:    
    7689                      .dwpsn  "src\timer_array.c",366,3
    7690 00000909 8A42          MOVL      XAR4,*-SP[2]          ; |366| 
    7691 0000090a 96E4          MOV       *+XAR4[4],AL          ; |366| 
    7692                      .dwpsn  "src\timer_array.c",368,2
    7693              L186:    
    7694                      .dwpsn  "src\timer_array.c",369,1
    7695 0000090b FE84          SUBB      SP,#4
    7696                      .dwcfa  0x1d, -2
    7697 0000090c 0006          LRETR
    7698                      ; return occurs
    7699                      .dwattr DW$570, DW_AT_end_file("src\timer_array.c")
    7700                      .dwattr DW$570, DW_AT_end_line(0x171)
    7701                      .dwattr DW$570, DW_AT_end_column(0x01)
    7702                      .dwendentry
    7703                      .dwendtag DW$570
    7704              
    7705 0000090d               .sect   ".text"
    7706                      .global _timer_jiffies_add
    7707              
    7708              DW$575  .dwtag  DW_TAG_subprogram, DW_AT_name("timer_jiffies_add"), DW_AT_symbol_name("_timer_jiffies_add")
    7709                      .dwattr DW$575, DW_AT_low_pc(_timer_jiffies_add)
    7710                      .dwattr DW$575, DW_AT_high_pc(0x00)
    7711                      .dwattr DW$575, DW_AT_begin_file("src\timer_array.c")
    7712                      .dwattr DW$575, DW_AT_begin_line(0x17b)
    7713                      .dwattr DW$575, DW_AT_begin_column(0x06)
    7714                      .dwpsn  "src\timer_array.c",380,1
    7715              
    7716                      .dwfde DW$CIE
    7717              
    7718              ;***************************************************************
    7719              ;* FNAME: _timer_jiffies_add            FR SIZE:   0           *
TMS320C2000 COFF Assembler PC v4.1.3 Thu Aug 04 16:21:37 2011

Tools Copyright (c) 1996-2006 Texas Instruments Incorporated
C:\DOCUME~1\ADMINI~1\LOCALS~1\Temp\TI8402                            PAGE  146

    7720              ;*                                                             *
    7721              ;* FUNCTION ENVIRONMENT                                        *
    7722              ;*                                                             *
    7723              ;* FUNCTION PROPERTIES                                         *
    7724              ;*                            0 Parameter,  0 Auto,  0 SOE     *
    7725              ;***************************************************************
    7726              
    7727              _timer_jiffies_add:
    7728                      .dwcfa  0x1d, -2
    7729                      .dwcfa  0x1c, 26, 0
    7730                      .dwcfa  0x09, 40, 26
    7731                      .dwpsn  "src\timer_array.c",381,2
    7732 0000090d 0201          MOVB      ACC,#1
    7733 0000090e 761F-         MOVW      DP,#_m_timer_array_jiffies
         0000090f 0000 
    7734 00000910 5601-         ADDL      @_m_timer_array_jiffies,ACC ; |381| 
         00000911 0008 
    7735                      .dwpsn  "src\timer_array.c",382,2
    7736                      .dwpsn  "src\timer_array.c",383,1
    7737 00000912 0006          LRETR
    7738                      ; return occurs
    7739                      .dwattr DW$575, DW_AT_end_file("src\timer_array.c")
    7740                      .dwattr DW$575, DW_AT_end_line(0x17f)
    7741                      .dwattr DW$575, DW_AT_end_column(0x01)
    7742                      .dwendentry
    7743                      .dwendtag DW$575
    7744              
    7745 00000913               .sect   ".text"
    7746                      .global _timer_array_maneger_task
    7747              
    7748              DW$576  .dwtag  DW_TAG_subprogram, DW_AT_name("timer_array_maneger_task"), DW_AT_symbol_name("_timer_array_ma
    7749                      .dwattr DW$576, DW_AT_low_pc(_timer_array_maneger_task)
    7750                      .dwattr DW$576, DW_AT_high_pc(0x00)
    7751                      .dwattr DW$576, DW_AT_begin_file("src\timer_array.c")
    7752                      .dwattr DW$576, DW_AT_begin_line(0x188)
    7753                      .dwattr DW$576, DW_AT_begin_column(0x06)
    7754                      .dwpsn  "src\timer_array.c",393,1
    7755              
    7756                      .dwfde DW$CIE
    7757              
    7758              ;***************************************************************
    7759              ;* FNAME: _timer_array_maneger_task     FR SIZE:   6           *
    7760              ;*                                                             *
    7761              ;* FUNCTION ENVIRONMENT                                        *
    7762              ;*                                                             *
    7763              ;* FUNCTION PROPERTIES                                         *
    7764              ;*                            0 Parameter,  5 Auto,  0 SOE     *
    7765              ;***************************************************************
    7766              
    7767              _timer_array_maneger_task:
    7768                      .dwcfa  0x1d, -2
    7769                      .dwcfa  0x1c, 26, 0
    7770                      .dwcfa  0x09, 40, 26
    7771 00000913 FE06          ADDB      SP,#6
    7772                      .dwcfa  0x1d, -8
TMS320C2000 COFF Assembler PC v4.1.3 Thu Aug 04 16:21:37 2011

Tools Copyright (c) 1996-2006 Texas Instruments Incorporated
C:\DOCUME~1\ADMINI~1\LOCALS~1\Temp\TI8402                            PAGE  147

    7773              ;* AR4   assigned to _p_arg
    7774              DW$577  .dwtag  DW_TAG_formal_parameter, DW_AT_name("p_arg"), DW_AT_symbol_name("_p_arg")
    7775                      .dwattr DW$577, DW_AT_type(*DW$T$3)
    7776                      .dwattr DW$577, DW_AT_location[DW_OP_reg12]
    7777              DW$578  .dwtag  DW_TAG_variable, DW_AT_name("p_arg"), DW_AT_symbol_name("_p_arg")
    7778                      .dwattr DW$578, DW_AT_type(*DW$T$3)
    7779                      .dwattr DW$578, DW_AT_location[DW_OP_breg20 -2]
    7780              DW$579  .dwtag  DW_TAG_variable, DW_AT_name("tmr"), DW_AT_symbol_name("_tmr")
    7781                      .dwattr DW$579, DW_AT_type(*DW$T$108)
    7782                      .dwattr DW$579, DW_AT_location[DW_OP_breg20 -4]
    7783              DW$580  .dwtag  DW_TAG_variable, DW_AT_name("index"), DW_AT_symbol_name("_index")
    7784                      .dwattr DW$580, DW_AT_type(*DW$T$23)
    7785                      .dwattr DW$580, DW_AT_location[DW_OP_breg20 -5]
    7786 00000914 A842          MOVL      *-SP[2],XAR4          ; |393| 
    7787                      .dwpsn  "src\timer_array.c",395,10
    7788 00000915 2B45          MOV       *-SP[5],#0            ; |395| 
    7789                      .dwpsn  "src\timer_array.c",396,10
    7790              L187:    
    7791              DW$L$_timer_array_maneger_task$2$B:
    7792                      .dwpsn  "src\timer_array.c",398,9
    7793 00000916 2B45          MOV       *-SP[5],#0            ; |398| 
    7794                      .dwpsn  "src\timer_array.c",398,20
    7795 00000917 9245          MOV       AL,*-SP[5]            ; |398| 
    7796 00000918 520F          CMPB      AL,#15                ; |398| 
    7797 00000919 6766          B         L194,HIS              ; |398| 
    7798                      ; branchcc occurs ; |398| 
    7799              DW$L$_timer_array_maneger_task$2$E:
    7800              L188:    
    7801              DW$L$_timer_array_maneger_task$3$B:
    7802                      .dwpsn  "src\timer_array.c",400,4
    7803 0000091a 28AC          MOV       T,#10                 ; |400| 
         0000091b 000A 
    7804 0000091c 8F00-         MOVL      XAR4,#_m_timer_array+2 ; |400| 
         0000091d 0102 
    7805 0000091e 3045          MPYXU     ACC,T,*-SP[5]         ; |400| 
    7806 0000091f 5601          ADDL      XAR4,ACC
         00000920 00A4 
    7807 00000921 A844          MOVL      *-SP[4],XAR4          ; |400| 
    7808                      .dwpsn  "src\timer_array.c",401,4
    7809 00000922 8A44          MOVL      XAR4,*-SP[4]          ; |401| 
    7810 00000923 92E4          MOV       AL,*+XAR4[4]          ; |401| 
    7811 00000924 EC57          BF        L193,EQ               ; |401| 
    7812                      ; branchcc occurs ; |401| 
    7813              DW$L$_timer_array_maneger_task$3$E:
    7814              DW$L$_timer_array_maneger_task$4$B:
    7815                      .dwpsn  "src\timer_array.c",402,5
    7816                      .dwpsn  "src\timer_array.c",403,4
    7817 00000925 8A44          MOVL      XAR4,*-SP[4]          ; |403| 
    7818 00000926 92E4          MOV       AL,*+XAR4[4]          ; |403| 
    7819 00000927 5205          CMPB      AL,#5                 ; |403| 
    7820 00000928 ED0E          BF        L189,NEQ              ; |403| 
    7821                      ; branchcc occurs ; |403| 
    7822              DW$L$_timer_array_maneger_task$4$E:
    7823              DW$L$_timer_array_maneger_task$5$B:
    7824                      .dwpsn  "src\timer_array.c",405,5
TMS320C2000 COFF Assembler PC v4.1.3 Thu Aug 04 16:21:37 2011

Tools Copyright (c) 1996-2006 Texas Instruments Incorporated
C:\DOCUME~1\ADMINI~1\LOCALS~1\Temp\TI8402                            PAGE  148

    7825 00000929 7640'         LCR       #_timer_array_lock    ; |405| 
         0000092a 0875 
    7826                      ; call occurs [#_timer_array_lock] ; |405| 
    7827                      .dwpsn  "src\timer_array.c",406,5
    7828 0000092b 8A44          MOVL      XAR4,*-SP[4]          ; |406| 
    7829 0000092c 9A00          MOVB      AL,#0
    7830 0000092d 9B0A          MOVB      AH,#10                ; |406| 
    7831 0000092e 7640'         LCR       #_global_memset       ; |406| 
         0000092f 01EF 
    7832                      ; call occurs [#_global_memset] ; |406| 
    7833                      .dwpsn  "src\timer_array.c",407,5
    7834 00000930 761F-         MOVW      DP,#_m_timer_array
         00000931 0004 
    7835 00000932 0B00-         DEC       @_m_timer_array       ; |407| 
    7836                      .dwpsn  "src\timer_array.c",408,5
    7837 00000933 7640'         LCR       #_timer_array_unlock  ; |408| 
         00000934 087B 
    7838                      ; call occurs [#_timer_array_unlock] ; |408| 
    7839                      .dwpsn  "src\timer_array.c",409,5
    7840 00000935 6F46          B         L193,UNC              ; |409| 
    7841                      ; branch occurs ; |409| 
    7842              DW$L$_timer_array_maneger_task$5$E:
    7843              L189:    
    7844              DW$L$_timer_array_maneger_task$6$B:
    7845                      .dwpsn  "src\timer_array.c",411,4
    7846 00000936 8A44          MOVL      XAR4,*-SP[4]          ; |411| 
    7847 00000937 92E4          MOV       AL,*+XAR4[4]          ; |411| 
    7848 00000938 5201          CMPB      AL,#1                 ; |411| 
    7849 00000939 ED0C          BF        L190,NEQ              ; |411| 
    7850                      ; branchcc occurs ; |411| 
    7851              DW$L$_timer_array_maneger_task$6$E:
    7852              DW$L$_timer_array_maneger_task$7$B:
    7853                      .dwpsn  "src\timer_array.c",413,5
    7854 0000093a 8A44          MOVL      XAR4,*-SP[4]          ; |413| 
    7855 0000093b 28E4          MOV       *+XAR4[4],#2          ; |413| 
         0000093c 0002 
    7856                      .dwpsn  "src\timer_array.c",414,5
    7857 0000093d 8A44          MOVL      XAR4,*-SP[4]          ; |414| 
    7858 0000093e 06D4          MOVL      ACC,*+XAR4[2]         ; |414| 
    7859 0000093f 8A44          MOVL      XAR4,*-SP[4]          ; |414| 
    7860 00000940 761F-         MOVW      DP,#_m_timer_array_jiffies
         00000941 0000 
    7861 00000942 0308-         SUBL      ACC,@_m_timer_array_jiffies ; |414| 
    7862 00000943 1ED4          MOVL      *+XAR4[2],ACC         ; |414| 
    7863                      .dwpsn  "src\timer_array.c",415,5
    7864 00000944 6F37          B         L193,UNC              ; |415| 
    7865                      ; branch occurs ; |415| 
    7866              DW$L$_timer_array_maneger_task$7$E:
    7867              L190:    
    7868              DW$L$_timer_array_maneger_task$8$B:
    7869                      .dwpsn  "src\timer_array.c",417,4
    7870 00000945 8A44          MOVL      XAR4,*-SP[4]          ; |417| 
    7871 00000946 92E4          MOV       AL,*+XAR4[4]          ; |417| 
    7872 00000947 5203          CMPB      AL,#3                 ; |417| 
    7873 00000948 ED0A          BF        L191,NEQ              ; |417| 
TMS320C2000 COFF Assembler PC v4.1.3 Thu Aug 04 16:21:37 2011

Tools Copyright (c) 1996-2006 Texas Instruments Incorporated
C:\DOCUME~1\ADMINI~1\LOCALS~1\Temp\TI8402                            PAGE  149

    7874                      ; branchcc occurs ; |417| 
    7875              DW$L$_timer_array_maneger_task$8$E:
    7876              DW$L$_timer_array_maneger_task$9$B:
    7877                      .dwpsn  "src\timer_array.c",419,5
    7878 00000949 8A44          MOVL      XAR4,*-SP[4]          ; |419| 
    7879 0000094a 06D4          MOVL      ACC,*+XAR4[2]         ; |419| 
    7880 0000094b 8A44          MOVL      XAR4,*-SP[4]          ; |419| 
    7881 0000094c 7640'         LCR       #_timer_member_mod_expires ; |419| 
         0000094d 08E5 
    7882                      ; call occurs [#_timer_member_mod_expires] ; |419| 
    7883                      .dwpsn  "src\timer_array.c",420,5
    7884 0000094e 8A44          MOVL      XAR4,*-SP[4]          ; |420| 
    7885 0000094f 28E4          MOV       *+XAR4[4],#4          ; |420| 
         00000950 0004 
    7886                      .dwpsn  "src\timer_array.c",421,5
    7887 00000951 6F2A          B         L193,UNC              ; |421| 
    7888                      ; branch occurs ; |421| 
    7889              DW$L$_timer_array_maneger_task$9$E:
    7890              L191:    
    7891              DW$L$_timer_array_maneger_task$10$B:
    7892                      .dwpsn  "src\timer_array.c",423,4
    7893 00000952 8A44          MOVL      XAR4,*-SP[4]          ; |423| 
    7894 00000953 761F-         MOVW      DP,#_m_timer_array_jiffies
         00000954 0000 
    7895 00000955 0608-         MOVL      ACC,@_m_timer_array_jiffies ; |423| 
    7896 00000956 0FD4          CMPL      ACC,*+XAR4[2]         ; |423| 
    7897 00000957 6824          B         L193,LO               ; |423| 
    7898                      ; branchcc occurs ; |423| 
    7899 00000958       DW$L$_timer_array_maneger_task$10$E:
    7900 00000958       DW$L$_timer_array_maneger_task$11$B:
    7901 00000958 8A44          MOVL      XAR4,*-SP[4]          ; |423| 
    7902 00000959 92E4          MOV       AL,*+XAR4[4]          ; |423| 
    7903 0000095a 5204          CMPB      AL,#4                 ; |423| 
    7904 0000095b ED20          BF        L193,NEQ              ; |423| 
    7905                      ; branchcc occurs ; |423| 
    7906              DW$L$_timer_array_maneger_task$11$E:
    7907              DW$L$_timer_array_maneger_task$12$B:
    7908                      .dwpsn  "src\timer_array.c",426,5
    7909 0000095c 8A44          MOVL      XAR4,*-SP[4]          ; |426| 
    7910 0000095d 92EC          MOV       AL,*+XAR4[5]          ; |426| 
    7911 0000095e 5201          CMPB      AL,#1                 ; |426| 
    7912 0000095f ED06          BF        L192,NEQ              ; |426| 
    7913                      ; branchcc occurs ; |426| 
    7914              DW$L$_timer_array_maneger_task$12$E:
    7915              DW$L$_timer_array_maneger_task$13$B:
    7916                      .dwpsn  "src\timer_array.c",428,6
    7917 00000960 8A44          MOVL      XAR4,*-SP[4]          ; |428| 
    7918 00000961 06F4          MOVL      ACC,*+XAR4[6]         ; |428| 
    7919 00000962 8A44          MOVL      XAR4,*-SP[4]          ; |428| 
    7920 00000963 7640'         LCR       #_timer_member_mod_expires ; |428| 
         00000964 08E5 
    7921                      ; call occurs [#_timer_member_mod_expires] ; |428| 
    7922              DW$L$_timer_array_maneger_task$13$E:
    7923              L192:    
    7924              DW$L$_timer_array_maneger_task$14$B:
TMS320C2000 COFF Assembler PC v4.1.3 Thu Aug 04 16:21:37 2011

Tools Copyright (c) 1996-2006 Texas Instruments Incorporated
C:\DOCUME~1\ADMINI~1\LOCALS~1\Temp\TI8402                            PAGE  150

    7925                      .dwpsn  "src\timer_array.c",432,5
    7926 00000965 8A44          MOVL      XAR4,*-SP[4]          ; |432| 
    7927 00000966 C5C4          MOVL      XAR7,*+XAR4[0]        ; |432| 
    7928 00000967 8A44          MOVL      XAR4,*-SP[4]          ; |432| 
    7929 00000968 D008          MOVB      XAR0,#8               ; |432| 
    7930 00000969 8A94          MOVL      XAR4,*+XAR4[AR0]      ; |432| 
    7931 0000096a 3E67          LCR       *XAR7                 ; |432| 
    7932                      ; call occurs [XAR7] ; |432| 
    7933                      .dwpsn  "src\timer_array.c",433,5
    7934 0000096b 8A44          MOVL      XAR4,*-SP[4]          ; |433| 
    7935 0000096c 92EC          MOV       AL,*+XAR4[5]          ; |433| 
    7936 0000096d 5202          CMPB      AL,#2                 ; |433| 
    7937 0000096e ED0D          BF        L193,NEQ              ; |433| 
    7938                      ; branchcc occurs ; |433| 
    7939              DW$L$_timer_array_maneger_task$14$E:
    7940              DW$L$_timer_array_maneger_task$15$B:
    7941                      .dwpsn  "src\timer_array.c",435,6
    7942 0000096f 7640'         LCR       #_timer_array_lock    ; |435| 
         00000970 0875 
    7943                      ; call occurs [#_timer_array_lock] ; |435| 
    7944                      .dwpsn  "src\timer_array.c",436,6
    7945 00000971 8A44          MOVL      XAR4,*-SP[4]          ; |436| 
    7946 00000972 9A00          MOVB      AL,#0
    7947 00000973 9B0A          MOVB      AH,#10                ; |436| 
    7948 00000974 7640'         LCR       #_global_memset       ; |436| 
         00000975 01EF 
    7949                      ; call occurs [#_global_memset] ; |436| 
    7950                      .dwpsn  "src\timer_array.c",438,6
    7951 00000976 761F-         MOVW      DP,#_m_timer_array
         00000977 0004 
    7952 00000978 0B00-         DEC       @_m_timer_array       ; |438| 
    7953                      .dwpsn  "src\timer_array.c",439,6
    7954 00000979 7640'         LCR       #_timer_array_unlock  ; |439| 
         0000097a 087B 
    7955                      ; call occurs [#_timer_array_unlock] ; |439| 
    7956              DW$L$_timer_array_maneger_task$15$E:
    7957              L193:    
    7958              DW$L$_timer_array_maneger_task$16$B:
    7959                      .dwpsn  "src\timer_array.c",398,40
    7960 0000097b 0A45          INC       *-SP[5]               ; |398| 
    7961                      .dwpsn  "src\timer_array.c",398,20
    7962 0000097c 9245          MOV       AL,*-SP[5]            ; |398| 
    7963 0000097d 520F          CMPB      AL,#15                ; |398| 
    7964 0000097e 689C          B         L188,LO               ; |398| 
    7965                      ; branchcc occurs ; |398| 
    7966              DW$L$_timer_array_maneger_task$16$E:
    7967              L194:    
    7968              DW$L$_timer_array_maneger_task$17$B:
    7969                      .dwpsn  "src\timer_array.c",443,3
    7970 0000097f 9A02          MOVB      AL,#2                 ; |443| 
    7971 00000980 7640!         LCR       #_OSTimeDly           ; |443| 
         00000981 0000 
    7972                      ; call occurs [#_OSTimeDly] ; |443| 
    7973                      .dwpsn  "src\timer_array.c",396,10
    7974 00000982 6F94          B         L187,UNC              ; |396| 
TMS320C2000 COFF Assembler PC v4.1.3 Thu Aug 04 16:21:37 2011

Tools Copyright (c) 1996-2006 Texas Instruments Incorporated
C:\DOCUME~1\ADMINI~1\LOCALS~1\Temp\TI8402                            PAGE  151

    7975                      ; branch occurs ; |396| 
    7976              DW$L$_timer_array_maneger_task$17$E:
    7977                      .dwcfa  0x1d, -2
    7978              
    7979              DW$581  .dwtag  DW_TAG_loop
    7980                      .dwattr DW$581, DW_AT_name("C:\DOCUME~1\ADMINI~1\LOCALS~1\Temp\TI8402:L187:1:1312446096")
    7981                      .dwattr DW$581, DW_AT_begin_file("src\timer_array.c")
    7982                      .dwattr DW$581, DW_AT_begin_line(0x18c)
    7983                      .dwattr DW$581, DW_AT_end_line(0x1bc)
    7984              DW$582  .dwtag  DW_TAG_loop_range
    7985                      .dwattr DW$582, DW_AT_low_pc(DW$L$_timer_array_maneger_task$2$B)
    7986                      .dwattr DW$582, DW_AT_high_pc(DW$L$_timer_array_maneger_task$2$E)
    7987              DW$583  .dwtag  DW_TAG_loop_range
    7988                      .dwattr DW$583, DW_AT_low_pc(DW$L$_timer_array_maneger_task$17$B)
    7989                      .dwattr DW$583, DW_AT_high_pc(DW$L$_timer_array_maneger_task$17$E)
    7990              
    7991              DW$584  .dwtag  DW_TAG_loop
    7992                      .dwattr DW$584, DW_AT_name("C:\DOCUME~1\ADMINI~1\LOCALS~1\Temp\TI8402:L188:2:1312446096")
    7993                      .dwattr DW$584, DW_AT_begin_file("src\timer_array.c")
    7994                      .dwattr DW$584, DW_AT_begin_line(0x18e)
    7995                      .dwattr DW$584, DW_AT_end_line(0x1ba)
    7996              DW$585  .dwtag  DW_TAG_loop_range
    7997                      .dwattr DW$585, DW_AT_low_pc(DW$L$_timer_array_maneger_task$3$B)
    7998                      .dwattr DW$585, DW_AT_high_pc(DW$L$_timer_array_maneger_task$3$E)
    7999              DW$586  .dwtag  DW_TAG_loop_range
    8000                      .dwattr DW$586, DW_AT_low_pc(DW$L$_timer_array_maneger_task$12$B)
    8001                      .dwattr DW$586, DW_AT_high_pc(DW$L$_timer_array_maneger_task$12$E)
    8002              DW$587  .dwtag  DW_TAG_loop_range
    8003                      .dwattr DW$587, DW_AT_low_pc(DW$L$_timer_array_maneger_task$13$B)
    8004                      .dwattr DW$587, DW_AT_high_pc(DW$L$_timer_array_maneger_task$13$E)
    8005              DW$588  .dwtag  DW_TAG_loop_range
    8006                      .dwattr DW$588, DW_AT_low_pc(DW$L$_timer_array_maneger_task$8$B)
    8007                      .dwattr DW$588, DW_AT_high_pc(DW$L$_timer_array_maneger_task$8$E)
    8008              DW$589  .dwtag  DW_TAG_loop_range
    8009                      .dwattr DW$589, DW_AT_low_pc(DW$L$_timer_array_maneger_task$6$B)
    8010                      .dwattr DW$589, DW_AT_high_pc(DW$L$_timer_array_maneger_task$6$E)
    8011              DW$590  .dwtag  DW_TAG_loop_range
    8012                      .dwattr DW$590, DW_AT_low_pc(DW$L$_timer_array_maneger_task$4$B)
    8013                      .dwattr DW$590, DW_AT_high_pc(DW$L$_timer_array_maneger_task$4$E)
    8014              DW$591  .dwtag  DW_TAG_loop_range
    8015                      .dwattr DW$591, DW_AT_low_pc(DW$L$_timer_array_maneger_task$5$B)
    8016                      .dwattr DW$591, DW_AT_high_pc(DW$L$_timer_array_maneger_task$5$E)
    8017              DW$592  .dwtag  DW_TAG_loop_range
    8018                      .dwattr DW$592, DW_AT_low_pc(DW$L$_timer_array_maneger_task$7$B)
    8019                      .dwattr DW$592, DW_AT_high_pc(DW$L$_timer_array_maneger_task$7$E)
    8020              DW$593  .dwtag  DW_TAG_loop_range
    8021                      .dwattr DW$593, DW_AT_low_pc(DW$L$_timer_array_maneger_task$9$B)
    8022                      .dwattr DW$593, DW_AT_high_pc(DW$L$_timer_array_maneger_task$9$E)
    8023              DW$594  .dwtag  DW_TAG_loop_range
    8024                      .dwattr DW$594, DW_AT_low_pc(DW$L$_timer_array_maneger_task$10$B)
    8025                      .dwattr DW$594, DW_AT_high_pc(DW$L$_timer_array_maneger_task$10$E)
    8026              DW$595  .dwtag  DW_TAG_loop_range
    8027                      .dwattr DW$595, DW_AT_low_pc(DW$L$_timer_array_maneger_task$11$B)
    8028                      .dwattr DW$595, DW_AT_high_pc(DW$L$_timer_array_maneger_task$11$E)
    8029              DW$596  .dwtag  DW_TAG_loop_range
TMS320C2000 COFF Assembler PC v4.1.3 Thu Aug 04 16:21:37 2011

Tools Copyright (c) 1996-2006 Texas Instruments Incorporated
C:\DOCUME~1\ADMINI~1\LOCALS~1\Temp\TI8402                            PAGE  152

    8030                      .dwattr DW$596, DW_AT_low_pc(DW$L$_timer_array_maneger_task$14$B)
    8031                      .dwattr DW$596, DW_AT_high_pc(DW$L$_timer_array_maneger_task$14$E)
    8032              DW$597  .dwtag  DW_TAG_loop_range
    8033                      .dwattr DW$597, DW_AT_low_pc(DW$L$_timer_array_maneger_task$15$B)
    8034                      .dwattr DW$597, DW_AT_high_pc(DW$L$_timer_array_maneger_task$15$E)
    8035              DW$598  .dwtag  DW_TAG_loop_range
    8036                      .dwattr DW$598, DW_AT_low_pc(DW$L$_timer_array_maneger_task$16$B)
    8037                      .dwattr DW$598, DW_AT_high_pc(DW$L$_timer_array_maneger_task$16$E)
    8038                      .dwendtag DW$584
    8039              
    8040                      .dwendtag DW$581
    8041              
    8042                      .dwattr DW$576, DW_AT_end_file("src\timer_array.c")
    8043                      .dwattr DW$576, DW_AT_end_line(0x1bd)
    8044                      .dwattr DW$576, DW_AT_end_column(0x01)
    8045                      .dwendentry
    8046                      .dwendtag DW$576
    8047              
    8048 00000983               .sect   ".text"
    8049                      .global _timer_array_mod_init
    8050              
    8051              DW$599  .dwtag  DW_TAG_subprogram, DW_AT_name("timer_array_mod_init"), DW_AT_symbol_name("_timer_array_mod_in
    8052                      .dwattr DW$599, DW_AT_low_pc(_timer_array_mod_init)
    8053                      .dwattr DW$599, DW_AT_high_pc(0x00)
    8054                      .dwattr DW$599, DW_AT_begin_file("src\timer_array.c")
    8055                      .dwattr DW$599, DW_AT_begin_line(0x1c6)
    8056                      .dwattr DW$599, DW_AT_begin_column(0x06)
    8057                      .dwpsn  "src\timer_array.c",455,1
    8058              
    8059                      .dwfde DW$CIE
    8060              
    8061              ;***************************************************************
    8062              ;* FNAME: _timer_array_mod_init         FR SIZE:   0           *
    8063              ;*                                                             *
    8064              ;* FUNCTION ENVIRONMENT                                        *
    8065              ;*                                                             *
    8066              ;* FUNCTION PROPERTIES                                         *
    8067              ;*                            0 Parameter,  0 Auto,  0 SOE     *
    8068              ;***************************************************************
    8069              
    8070              _timer_array_mod_init:
    8071                      .dwcfa  0x1d, -2
    8072                      .dwcfa  0x1c, 26, 0
    8073                      .dwcfa  0x09, 40, 26
    8074                      .dwpsn  "src\timer_array.c",456,2
    8075 00000983 9A00          MOVB      AL,#0
    8076 00000984 8F00-         MOVL      XAR4,#_m_timer_array  ; |456| 
         00000985 0100 
    8077 00000986 9B98          MOVB      AH,#152               ; |456| 
    8078 00000987 7640'         LCR       #_global_memset       ; |456| 
         00000988 01EF 
    8079                      ; call occurs [#_global_memset] ; |456| 
    8080                      .dwpsn  "src\timer_array.c",457,2
    8081 00000989 7640'         LCR       #_timer_array_lock_creat ; |457| 
         0000098a 0881 
TMS320C2000 COFF Assembler PC v4.1.3 Thu Aug 04 16:21:37 2011

Tools Copyright (c) 1996-2006 Texas Instruments Incorporated
C:\DOCUME~1\ADMINI~1\LOCALS~1\Temp\TI8402                            PAGE  153

    8082                      ; call occurs [#_timer_array_lock_creat] ; |457| 
    8083                      .dwpsn  "src\timer_array.c",458,2
    8084 0000098b 9A29          MOVB      AL,#41                ; |458| 
    8085 0000098c 8F00'         MOVL      XAR4,#_timer_array_maneger_task ; |458| 
         0000098d 0913 
    8086 0000098e 9B02          MOVB      AH,#2                 ; |458| 
    8087 0000098f 7640!         LCR       #_os_task_assign_pro_build ; |458| 
         00000990 0000 
    8088                      ; call occurs [#_os_task_assign_pro_build] ; |458| 
    8089                      .dwpsn  "src\timer_array.c",459,2
    8090 00000991 9A29          MOVB      AL,#41                ; |459| 
    8091 00000992 8F00+         MOVL      XAR4,#FSL3            ; |459| 
         00000993 0004 
    8092 00000994 7640!         LCR       #_os_task_name_set    ; |459| 
         00000995 0000 
    8093                      ; call occurs [#_os_task_name_set] ; |459| 
    8094                      .dwpsn  "src\timer_array.c",460,2
    8095                      .dwpsn  "src\timer_array.c",461,1
    8096 00000996 0006          LRETR
    8097                      ; return occurs
    8098                      .dwattr DW$599, DW_AT_end_file("src\timer_array.c")
    8099                      .dwattr DW$599, DW_AT_end_line(0x1cd)
    8100                      .dwattr DW$599, DW_AT_end_column(0x01)
    8101                      .dwendentry
    8102                      .dwendtag DW$599
    8103              
    8104 00000997               .sect   ".text"
    8105                      .global _app_malloc
    8106              
    8107              DW$600  .dwtag  DW_TAG_subprogram, DW_AT_name("app_malloc"), DW_AT_symbol_name("_app_malloc")
    8108                      .dwattr DW$600, DW_AT_low_pc(_app_malloc)
    8109                      .dwattr DW$600, DW_AT_high_pc(0x00)
    8110                      .dwattr DW$600, DW_AT_begin_file("src\mem_maneger.c")
    8111                      .dwattr DW$600, DW_AT_begin_line(0x24)
    8112                      .dwattr DW$600, DW_AT_begin_column(0x06)
    8113                      .dwpsn  "src\mem_maneger.c",37,1
    8114              
    8115                      .dwfde DW$CIE
    8116              
    8117              ;***************************************************************
    8118              ;* FNAME: _app_malloc                   FR SIZE:   6           *
    8119              ;*                                                             *
    8120              ;* FUNCTION ENVIRONMENT                                        *
    8121              ;*                                                             *
    8122              ;* FUNCTION PROPERTIES                                         *
    8123              ;*                            0 Parameter,  6 Auto,  0 SOE     *
    8124              ;***************************************************************
    8125              
    8126              _app_malloc:
    8127                      .dwcfa  0x1d, -2
    8128                      .dwcfa  0x1c, 26, 0
    8129                      .dwcfa  0x09, 40, 26
    8130 00000997 FE06          ADDB      SP,#6
    8131                      .dwcfa  0x1d, -8
    8132              ;* AL    assigned to _mem_size
TMS320C2000 COFF Assembler PC v4.1.3 Thu Aug 04 16:21:37 2011

Tools Copyright (c) 1996-2006 Texas Instruments Incorporated
C:\DOCUME~1\ADMINI~1\LOCALS~1\Temp\TI8402                            PAGE  154

    8133              DW$601  .dwtag  DW_TAG_formal_parameter, DW_AT_name("mem_size"), DW_AT_symbol_name("_mem_size")
    8134                      .dwattr DW$601, DW_AT_type(*DW$T$23)
    8135                      .dwattr DW$601, DW_AT_location[DW_OP_reg0]
    8136              DW$602  .dwtag  DW_TAG_variable, DW_AT_name("mem_size"), DW_AT_symbol_name("_mem_size")
    8137                      .dwattr DW$602, DW_AT_type(*DW$T$23)
    8138                      .dwattr DW$602, DW_AT_location[DW_OP_breg20 -1]
    8139              DW$603  .dwtag  DW_TAG_variable, DW_AT_name("ptemp"), DW_AT_symbol_name("_ptemp")
    8140                      .dwattr DW$603, DW_AT_type(*DW$T$82)
    8141                      .dwattr DW$603, DW_AT_location[DW_OP_breg20 -4]
    8142              DW$604  .dwtag  DW_TAG_variable, DW_AT_name("offset"), DW_AT_symbol_name("_offset")
    8143                      .dwattr DW$604, DW_AT_type(*DW$T$6)
    8144                      .dwattr DW$604, DW_AT_location[DW_OP_breg20 -5]
    8145              DW$605  .dwtag  DW_TAG_variable, DW_AT_name("nblk"), DW_AT_symbol_name("_nblk")
    8146                      .dwattr DW$605, DW_AT_type(*DW$T$6)
    8147                      .dwattr DW$605, DW_AT_location[DW_OP_breg20 -6]
    8148 00000998 9641          MOV       *-SP[1],AL            ; |37| 
    8149                      .dwpsn  "src\mem_maneger.c",40,10
    8150 00000999 9C7B          ADDB      AL,#123               ; |40| 
    8151 0000099a D47C          MOVB      XAR4,#124             ; |40| 
    8152 0000099b 0EA9          MOVU      ACC,AL
    8153 0000099c F60F          RPT       #15
    8154 0000099d 1FA4  ||     SUBCU     ACC,AR4               ; |40| 
    8155 0000099e 9646          MOV       *-SP[6],AL            ; |40| 
    8156                      .dwpsn  "src\mem_maneger.c",41,2
    8157 0000099f 9241          MOV       AL,*-SP[1]            ; |41| 
    8158 000009a0 ED03          BF        L195,NEQ              ; |41| 
    8159                      ; branchcc occurs ; |41| 
    8160                      .dwpsn  "src\mem_maneger.c",41,19
    8161 000009a1 D400          MOVB      XAR4,#0
    8162 000009a2 6F46          B         L197,UNC              ; |41| 
    8163                      ; branch occurs ; |41| 
    8164              L195:    
    8165                      .dwpsn  "src\mem_maneger.c",42,2
    8166 000009a3 761F-         MOVW      DP,#_m_mem_lock
         000009a4 0000 
    8167 000009a5 8A02-         MOVL      XAR4,@_m_mem_lock     ; |42| 
    8168 000009a6 7640!         LCR       #_os_lock             ; |42| 
         000009a7 0000 
    8169                      ; call occurs [#_os_lock] ; |42| 
    8170                      .dwpsn  "src\mem_maneger.c",43,2
    8171 000009a8 761F-         MOVW      DP,#_m_os_pmem
         000009a9 0000 
    8172 000009aa 8A00-         MOVL      XAR4,@_m_os_pmem      ; |43| 
    8173 000009ab 92FC          MOV       AL,*+XAR4[7]          ; |43| 
    8174 000009ac 5446          CMP       AL,*-SP[6]            ; |43| 
    8175 000009ad 6832          B         L196,LO               ; |43| 
    8176                      ; branchcc occurs ; |43| 
    8177                      .dwpsn  "src\mem_maneger.c",45,3
    8178 000009ae 9346          MOV       AH,*-SP[6]            ; |45| 
    8179 000009af 8F00-         MOVL      XAR4,#_m_mem_pdest    ; |45| 
         000009b0 01C0 
    8180 000009b1 9A46          MOVB      AL,#70                ; |45| 
    8181 000009b2 7640'         LCR       #_global_memset       ; |45| 
         000009b3 01EF 
    8182                      ; call occurs [#_global_memset] ; |45| 
TMS320C2000 COFF Assembler PC v4.1.3 Thu Aug 04 16:21:37 2011

Tools Copyright (c) 1996-2006 Texas Instruments Incorporated
C:\DOCUME~1\ADMINI~1\LOCALS~1\Temp\TI8402                            PAGE  155

    8183                      .dwpsn  "src\mem_maneger.c",48,3
    8184 000009b4 5846          MOVZ      AR0,*-SP[6]           ; |48| 
    8185 000009b5 8F00-         MOVL      XAR4,#_m_mem_pdest    ; |48| 
         000009b6 01C0 
    8186 000009b7 2B94          MOV       *+XAR4[AR0],#0        ; |48| 
    8187                      .dwpsn  "src\mem_maneger.c",49,3
    8188 000009b8 761F-         MOVW      DP,#_m_os_pmem
         000009b9 0000 
    8189 000009ba 8A00-         MOVL      XAR4,@_m_os_pmem      ; |49| 
    8190 000009bb 8AD4          MOVL      XAR4,*+XAR4[2]        ; |49| 
    8191 000009bc 8F40-         MOVL      XAR5,#_m_mem_pdest    ; |49| 
         000009bd 01C0 
    8192 000009be 7640'         LCR       #_global_string_locate_first ; |49| 
         000009bf 0224 
    8193                      ; call occurs [#_global_string_locate_first] ; |49| 
    8194 000009c0 A844          MOVL      *-SP[4],XAR4          ; |49| 
    8195                      .dwpsn  "src\mem_maneger.c",52,3
    8196 000009c1 0644          MOVL      ACC,*-SP[4]           ; |52| 
    8197 000009c2 EC1D          BF        L196,EQ               ; |52| 
    8198                      ; branchcc occurs ; |52| 
    8199                      .dwpsn  "src\mem_maneger.c",54,4
    8200 000009c3 8A44          MOVL      XAR4,*-SP[4]          ; |54| 
    8201 000009c4 28C4          MOV       *+XAR4[0],#77         ; |54| 
         000009c5 004D 
    8202                      .dwpsn  "src\mem_maneger.c",55,4
    8203 000009c6 8A44          MOVL      XAR4,*-SP[4]          ; |55| 
    8204 000009c7 9346          MOV       AH,*-SP[6]            ; |55| 
    8205 000009c8 9DFF          ADDB      AH,#-1
    8206 000009c9 9A53          MOVB      AL,#83                ; |55| 
    8207 000009ca DC01          ADDB      XAR4,#1               ; |55| 
    8208 000009cb 7640'         LCR       #_global_memset       ; |55| 
         000009cc 01EF 
    8209                      ; call occurs [#_global_memset] ; |55| 
    8210                      .dwpsn  "src\mem_maneger.c",58,4
    8211 000009cd 761F-         MOVW      DP,#_m_os_pmem
         000009ce 0000 
    8212 000009cf 8A00-         MOVL      XAR4,@_m_os_pmem      ; |58| 
    8213 000009d0 0644          MOVL      ACC,*-SP[4]           ; |58| 
    8214 000009d1 03D4          SUBL      ACC,*+XAR4[2]         ; |58| 
    8215 000009d2 9645          MOV       *-SP[5],AL            ; |58| 
    8216                      .dwpsn  "src\mem_maneger.c",60,4
    8217 000009d3 8A00-         MOVL      XAR4,@_m_os_pmem      ; |60| 
    8218 000009d4 2D45          MOV       T,*-SP[5]             ; |60| 
    8219 000009d5 33F4          MPY       P,T,*+XAR4[6]         ; |60| 
    8220 000009d6 8A00-         MOVL      XAR4,@_m_os_pmem      ; |60| 
    8221 000009d7 06E4          MOVL      ACC,*+XAR4[4]         ; |60| 
    8222 000009d8 0DAB          ADDU      ACC,PL                ; |60| 
    8223 000009d9 1E44          MOVL      *-SP[4],ACC           ; |60| 
    8224                      .dwpsn  "src\mem_maneger.c",62,4
    8225 000009da 8A02-         MOVL      XAR4,@_m_mem_lock     ; |62| 
    8226 000009db 7640!         LCR       #_os_unlock           ; |62| 
         000009dc 0000 
    8227                      ; call occurs [#_os_unlock] ; |62| 
    8228                      .dwpsn  "src\mem_maneger.c",63,4
    8229 000009dd 8A44          MOVL      XAR4,*-SP[4]          ; |63| 
TMS320C2000 COFF Assembler PC v4.1.3 Thu Aug 04 16:21:37 2011

Tools Copyright (c) 1996-2006 Texas Instruments Incorporated
C:\DOCUME~1\ADMINI~1\LOCALS~1\Temp\TI8402                            PAGE  156

    8230 000009de 6F0A          B         L197,UNC              ; |63| 
    8231                      ; branch occurs ; |63| 
    8232              L196:    
    8233                      .dwpsn  "src\mem_maneger.c",66,2
    8234 000009df 761F-         MOVW      DP,#_m_os_pmem
         000009e0 0000 
    8235 000009e1 8A00-         MOVL      XAR4,@_m_os_pmem      ; |66| 
    8236 000009e2 92FC          MOV       AL,*+XAR4[7]          ; |66| 
    8237 000009e3 9646          MOV       *-SP[6],AL            ; |66| 
    8238                      .dwpsn  "src\mem_maneger.c",68,2
    8239 000009e4 8A02-         MOVL      XAR4,@_m_mem_lock     ; |68| 
    8240 000009e5 7640!         LCR       #_os_unlock           ; |68| 
         000009e6 0000 
    8241                      ; call occurs [#_os_unlock] ; |68| 
    8242                      .dwpsn  "src\mem_maneger.c",69,2
    8243 000009e7 D400          MOVB      XAR4,#0
    8244              L197:    
    8245                      .dwpsn  "src\mem_maneger.c",70,1
    8246 000009e8 FE86          SUBB      SP,#6                 ; |69| 
    8247                      .dwcfa  0x1d, -2
    8248 000009e9 0006          LRETR
    8249                      ; return occurs
    8250                      .dwattr DW$600, DW_AT_end_file("src\mem_maneger.c")
    8251                      .dwattr DW$600, DW_AT_end_line(0x46)
    8252                      .dwattr DW$600, DW_AT_end_column(0x01)
    8253                      .dwendentry
    8254                      .dwendtag DW$600
    8255              
    8256 000009ea               .sect   ".text"
    8257                      .global _app_free
    8258              
    8259              DW$606  .dwtag  DW_TAG_subprogram, DW_AT_name("app_free"), DW_AT_symbol_name("_app_free")
    8260                      .dwattr DW$606, DW_AT_low_pc(_app_free)
    8261                      .dwattr DW$606, DW_AT_high_pc(0x00)
    8262                      .dwattr DW$606, DW_AT_begin_file("src\mem_maneger.c")
    8263                      .dwattr DW$606, DW_AT_begin_line(0x4f)
    8264                      .dwattr DW$606, DW_AT_begin_column(0x06)
    8265                      .dwpsn  "src\mem_maneger.c",80,1
    8266              
    8267                      .dwfde DW$CIE
    8268              
    8269              ;***************************************************************
    8270              ;* FNAME: _app_free                     FR SIZE:   6           *
    8271              ;*                                                             *
    8272              ;* FUNCTION ENVIRONMENT                                        *
    8273              ;*                                                             *
    8274              ;* FUNCTION PROPERTIES                                         *
    8275              ;*                            2 Parameter,  3 Auto,  0 SOE     *
    8276              ;***************************************************************
    8277              
    8278              _app_free:
    8279                      .dwcfa  0x1d, -2
    8280                      .dwcfa  0x1c, 26, 0
    8281                      .dwcfa  0x09, 40, 26
    8282 000009ea FE06          ADDB      SP,#6
TMS320C2000 COFF Assembler PC v4.1.3 Thu Aug 04 16:21:37 2011

Tools Copyright (c) 1996-2006 Texas Instruments Incorporated
C:\DOCUME~1\ADMINI~1\LOCALS~1\Temp\TI8402                            PAGE  157

    8283                      .dwcfa  0x1d, -8
    8284              ;* AR4   assigned to _pmem
    8285              DW$607  .dwtag  DW_TAG_formal_parameter, DW_AT_name("pmem"), DW_AT_symbol_name("_pmem")
    8286                      .dwattr DW$607, DW_AT_type(*DW$T$3)
    8287                      .dwattr DW$607, DW_AT_location[DW_OP_reg12]
    8288              DW$608  .dwtag  DW_TAG_variable, DW_AT_name("pmem"), DW_AT_symbol_name("_pmem")
    8289                      .dwattr DW$608, DW_AT_type(*DW$T$3)
    8290                      .dwattr DW$608, DW_AT_location[DW_OP_breg20 -4]
    8291              DW$609  .dwtag  DW_TAG_variable, DW_AT_name("offset"), DW_AT_symbol_name("_offset")
    8292                      .dwattr DW$609, DW_AT_type(*DW$T$6)
    8293                      .dwattr DW$609, DW_AT_location[DW_OP_breg20 -5]
    8294 000009eb A844          MOVL      *-SP[4],XAR4          ; |80| 
    8295                      .dwpsn  "src\mem_maneger.c",81,10
    8296 000009ec 2B45          MOV       *-SP[5],#0            ; |81| 
    8297                      .dwpsn  "src\mem_maneger.c",82,2
    8298 000009ed C444          MOVL      XAR6,*-SP[4]          ; |82| 
    8299 000009ee 8F00-         MOVL      XAR4,#_m_malloc_mem   ; |82| 
         000009ef 05B5 
    8300 000009f0 A8A9          MOVL      ACC,XAR4              ; |82| 
    8301 000009f1 0FA6          CMPL      ACC,XAR6              ; |82| 
    8302 000009f2 662D          B         L201,HI               ; |82| 
    8303                      ; branchcc occurs ; |82| 
    8304 000009f3 C444          MOVL      XAR6,*-SP[4]          ; |82| 
    8305 000009f4 8F00-         MOVL      XAR4,#_m_malloc_mem+61876 ; |82| 
         000009f5 F769 
    8306 000009f6 A8A9          MOVL      ACC,XAR4              ; |82| 
    8307 000009f7 0FA6          CMPL      ACC,XAR6              ; |82| 
    8308 000009f8 6702          B         L198,HIS              ; |82| 
    8309                      ; branchcc occurs ; |82| 
    8310 000009f9 6F26          B         L201,UNC              ; |82| 
    8311                      ; branch occurs ; |82| 
    8312              L198:    
    8313                      .dwpsn  "src\mem_maneger.c",85,2
    8314 000009fa 761F-         MOVW      DP,#_m_mem_lock
         000009fb 0000 
    8315 000009fc 8A02-         MOVL      XAR4,@_m_mem_lock     ; |85| 
    8316 000009fd 7640!         LCR       #_os_lock             ; |85| 
         000009fe 0000 
    8317                      ; call occurs [#_os_lock] ; |85| 
    8318                      .dwpsn  "src\mem_maneger.c",86,2
    8319 000009ff 761F-         MOVW      DP,#_m_os_pmem
         00000a00 0000 
    8320 00000a01 8A00-         MOVL      XAR4,@_m_os_pmem      ; |86| 
    8321 00000a02 0EF4          MOVU      ACC,*+XAR4[6]
    8322 00000a03 8A00-         MOVL      XAR4,@_m_os_pmem      ; |86| 
    8323 00000a04 1E42          MOVL      *-SP[2],ACC           ; |86| 
    8324 00000a05 0644          MOVL      ACC,*-SP[4]           ; |86| 
    8325 00000a06 03E4          SUBL      ACC,*+XAR4[4]         ; |86| 
    8326 00000a07 00C0!         FFC       XAR7,#L$$DIV          ; |86| 
         00000a08 0000 
    8327                      ; call occurs [#L$$DIV] ; |86| 
    8328 00000a09 9645          MOV       *-SP[5],AL            ; |86| 
    8329                      .dwpsn  "src\mem_maneger.c",88,2
    8330 00000a0a 8A00-         MOVL      XAR4,@_m_os_pmem      ; |88| 
    8331 00000a0b 5845          MOVZ      AR0,*-SP[5]           ; |88| 
TMS320C2000 COFF Assembler PC v4.1.3 Thu Aug 04 16:21:37 2011

Tools Copyright (c) 1996-2006 Texas Instruments Incorporated
C:\DOCUME~1\ADMINI~1\LOCALS~1\Temp\TI8402                            PAGE  158

    8332 00000a0c 8AD4          MOVL      XAR4,*+XAR4[2]        ; |88| 
    8333 00000a0d 2894          MOV       *+XAR4[AR0],#70       ; |88| 
         00000a0e 0046 
    8334                      .dwpsn  "src\mem_maneger.c",89,2
    8335 00000a0f 0A45          INC       *-SP[5]               ; |89| 
    8336                      .dwpsn  "src\mem_maneger.c",90,2
    8337 00000a10 6F06          B         L200,UNC              ; |90| 
    8338                      ; branch occurs ; |90| 
    8339              L199:    
    8340              DW$L$_app_free$6$B:
    8341                      .dwpsn  "src\mem_maneger.c",92,3
    8342 00000a11 8A00-         MOVL      XAR4,@_m_os_pmem      ; |92| 
    8343 00000a12 8AD4          MOVL      XAR4,*+XAR4[2]        ; |92| 
    8344 00000a13 2894          MOV       *+XAR4[AR0],#70       ; |92| 
         00000a14 0046 
    8345                      .dwpsn  "src\mem_maneger.c",93,3
    8346 00000a15 0A45          INC       *-SP[5]               ; |93| 
    8347              DW$L$_app_free$6$E:
    8348              L200:    
    8349              DW$L$_app_free$7$B:
    8350                      .dwpsn  "src\mem_maneger.c",90,9
    8351 00000a16 8A00-         MOVL      XAR4,@_m_os_pmem      ; |90| 
    8352 00000a17 5845          MOVZ      AR0,*-SP[5]           ; |90| 
    8353 00000a18 8AD4          MOVL      XAR4,*+XAR4[2]        ; |90| 
    8354 00000a19 9294          MOV       AL,*+XAR4[AR0]        ; |90| 
    8355 00000a1a 5253          CMPB      AL,#83                ; |90| 
    8356 00000a1b ECF6          BF        L199,EQ               ; |90| 
    8357                      ; branchcc occurs ; |90| 
    8358              DW$L$_app_free$7$E:
    8359                      .dwpsn  "src\mem_maneger.c",95,2
    8360 00000a1c 8A02-         MOVL      XAR4,@_m_mem_lock     ; |95| 
    8361 00000a1d 7640!         LCR       #_os_unlock           ; |95| 
         00000a1e 0000 
    8362                      ; call occurs [#_os_unlock] ; |95| 
    8363                      .dwpsn  "src\mem_maneger.c",96,2
    8364              L201:    
    8365                      .dwpsn  "src\mem_maneger.c",97,1
    8366 00000a1f FE86          SUBB      SP,#6
    8367                      .dwcfa  0x1d, -2
    8368 00000a20 0006          LRETR
    8369                      ; return occurs
    8370              
    8371              DW$610  .dwtag  DW_TAG_loop
    8372                      .dwattr DW$610, DW_AT_name("C:\DOCUME~1\ADMINI~1\LOCALS~1\Temp\TI8402:L200:1:1312446096")
    8373                      .dwattr DW$610, DW_AT_begin_file("src\mem_maneger.c")
    8374                      .dwattr DW$610, DW_AT_begin_line(0x5a)
    8375                      .dwattr DW$610, DW_AT_end_line(0x5d)
    8376              DW$611  .dwtag  DW_TAG_loop_range
    8377                      .dwattr DW$611, DW_AT_low_pc(DW$L$_app_free$7$B)
    8378                      .dwattr DW$611, DW_AT_high_pc(DW$L$_app_free$7$E)
    8379              DW$612  .dwtag  DW_TAG_loop_range
    8380                      .dwattr DW$612, DW_AT_low_pc(DW$L$_app_free$6$B)
    8381                      .dwattr DW$612, DW_AT_high_pc(DW$L$_app_free$6$E)
    8382                      .dwendtag DW$610
    8383              
TMS320C2000 COFF Assembler PC v4.1.3 Thu Aug 04 16:21:37 2011

Tools Copyright (c) 1996-2006 Texas Instruments Incorporated
C:\DOCUME~1\ADMINI~1\LOCALS~1\Temp\TI8402                            PAGE  159

    8384                      .dwattr DW$606, DW_AT_end_file("src\mem_maneger.c")
    8385                      .dwattr DW$606, DW_AT_end_line(0x61)
    8386                      .dwattr DW$606, DW_AT_end_column(0x01)
    8387                      .dwendentry
    8388                      .dwendtag DW$606
    8389              
    8390 00000a21               .sect   ".text"
    8391                      .global _app_release_all_mem
    8392              
    8393              DW$613  .dwtag  DW_TAG_subprogram, DW_AT_name("app_release_all_mem"), DW_AT_symbol_name("_app_release_all_mem
    8394                      .dwattr DW$613, DW_AT_low_pc(_app_release_all_mem)
    8395                      .dwattr DW$613, DW_AT_high_pc(0x00)
    8396                      .dwattr DW$613, DW_AT_begin_file("src\mem_maneger.c")
    8397                      .dwattr DW$613, DW_AT_begin_line(0x6b)
    8398                      .dwattr DW$613, DW_AT_begin_column(0x06)
    8399                      .dwpsn  "src\mem_maneger.c",108,1
    8400              
    8401                      .dwfde DW$CIE
    8402              
    8403              ;***************************************************************
    8404              ;* FNAME: _app_release_all_mem          FR SIZE:   0           *
    8405              ;*                                                             *
    8406              ;* FUNCTION ENVIRONMENT                                        *
    8407              ;*                                                             *
    8408              ;* FUNCTION PROPERTIES                                         *
    8409              ;*                            0 Parameter,  0 Auto,  0 SOE     *
    8410              ;***************************************************************
    8411              
    8412              _app_release_all_mem:
    8413                      .dwcfa  0x1d, -2
    8414                      .dwcfa  0x1c, 26, 0
    8415                      .dwcfa  0x09, 40, 26
    8416                      .dwpsn  "src\mem_maneger.c",109,2
    8417 00000a21 761F-         MOVW      DP,#_m_os_pmem
         00000a22 0000 
    8418 00000a23 0600-         MOVL      ACC,@_m_os_pmem       ; |109| 
    8419 00000a24 EC12          BF        L202,EQ               ; |109| 
    8420                      ; branchcc occurs ; |109| 
    8421                      .dwpsn  "src\mem_maneger.c",109,20
    8422                      .dwpsn  "src\mem_maneger.c",110,2
    8423 00000a25 8A02-         MOVL      XAR4,@_m_mem_lock     ; |110| 
    8424 00000a26 7640!         LCR       #_os_lock             ; |110| 
         00000a27 0000 
    8425                      ; call occurs [#_os_lock] ; |110| 
    8426                      .dwpsn  "src\mem_maneger.c",111,2
    8427 00000a28 761F-         MOVW      DP,#_m_os_pmem
         00000a29 0000 
    8428 00000a2a 8A00-         MOVL      XAR4,@_m_os_pmem      ; |111| 
    8429 00000a2b 8300-         MOVL      XAR5,@_m_os_pmem      ; |111| 
    8430 00000a2c 8AD4          MOVL      XAR4,*+XAR4[2]        ; |111| 
    8431 00000a2d 93FD          MOV       AH,*+XAR5[7]          ; |111| 
    8432 00000a2e 9A46          MOVB      AL,#70                ; |111| 
    8433 00000a2f 7640'         LCR       #_global_memset       ; |111| 
         00000a30 01EF 
    8434                      ; call occurs [#_global_memset] ; |111| 
TMS320C2000 COFF Assembler PC v4.1.3 Thu Aug 04 16:21:37 2011

Tools Copyright (c) 1996-2006 Texas Instruments Incorporated
C:\DOCUME~1\ADMINI~1\LOCALS~1\Temp\TI8402                            PAGE  160

    8435                      .dwpsn  "src\mem_maneger.c",115,2
    8436 00000a31 761F-         MOVW      DP,#_m_mem_lock
         00000a32 0000 
    8437 00000a33 8A02-         MOVL      XAR4,@_m_mem_lock     ; |115| 
    8438 00000a34 7640!         LCR       #_os_unlock           ; |115| 
         00000a35 0000 
    8439                      ; call occurs [#_os_unlock] ; |115| 
    8440                      .dwpsn  "src\mem_maneger.c",116,2
    8441              L202:    
    8442                      .dwpsn  "src\mem_maneger.c",117,1
    8443 00000a36 0006          LRETR
    8444                      ; return occurs
    8445                      .dwattr DW$613, DW_AT_end_file("src\mem_maneger.c")
    8446                      .dwattr DW$613, DW_AT_end_line(0x75)
    8447                      .dwattr DW$613, DW_AT_end_column(0x01)
    8448                      .dwendentry
    8449                      .dwendtag DW$613
    8450              
    8451 00000a37               .sect   ".text"
    8452                      .global _mem_block_create
    8453              
    8454              DW$614  .dwtag  DW_TAG_subprogram, DW_AT_name("mem_block_create"), DW_AT_symbol_name("_mem_block_create")
    8455                      .dwattr DW$614, DW_AT_low_pc(_mem_block_create)
    8456                      .dwattr DW$614, DW_AT_high_pc(0x00)
    8457                      .dwattr DW$614, DW_AT_begin_file("src\mem_maneger.c")
    8458                      .dwattr DW$614, DW_AT_begin_line(0x7f)
    8459                      .dwattr DW$614, DW_AT_begin_column(0x0c)
    8460                      .dwpsn  "src\mem_maneger.c",131,1
    8461              
    8462                      .dwfde DW$CIE
    8463              
    8464              ;***************************************************************
    8465              ;* FNAME: _mem_block_create             FR SIZE:  10           *
    8466              ;*                                                             *
    8467              ;* FUNCTION ENVIRONMENT                                        *
    8468              ;*                                                             *
    8469              ;* FUNCTION PROPERTIES                                         *
    8470              ;*                            0 Parameter, 10 Auto,  0 SOE     *
    8471              ;***************************************************************
    8472              
    8473              _mem_block_create:
    8474                      .dwcfa  0x1d, -2
    8475                      .dwcfa  0x1c, 26, 0
    8476                      .dwcfa  0x09, 40, 26
    8477 00000a37 FE0A          ADDB      SP,#10
    8478                      .dwcfa  0x1d, -12
    8479              ;* AR4   assigned to _addr
    8480              DW$615  .dwtag  DW_TAG_formal_parameter, DW_AT_name("addr"), DW_AT_symbol_name("_addr")
    8481                      .dwattr DW$615, DW_AT_type(*DW$T$25)
    8482                      .dwattr DW$615, DW_AT_location[DW_OP_reg12]
    8483              ;* AR5   assigned to _pmem_ctl
    8484              DW$616  .dwtag  DW_TAG_formal_parameter, DW_AT_name("pmem_ctl"), DW_AT_symbol_name("_pmem_ctl")
    8485                      .dwattr DW$616, DW_AT_type(*DW$T$25)
    8486                      .dwattr DW$616, DW_AT_location[DW_OP_reg14]
    8487              ;* AL    assigned to _nblk
TMS320C2000 COFF Assembler PC v4.1.3 Thu Aug 04 16:21:37 2011

Tools Copyright (c) 1996-2006 Texas Instruments Incorporated
C:\DOCUME~1\ADMINI~1\LOCALS~1\Temp\TI8402                            PAGE  161

    8488              DW$617  .dwtag  DW_TAG_formal_parameter, DW_AT_name("nblk"), DW_AT_symbol_name("_nblk")
    8489                      .dwattr DW$617, DW_AT_type(*DW$T$23)
    8490                      .dwattr DW$617, DW_AT_location[DW_OP_reg0]
    8491              ;* AH    assigned to _blksize
    8492              DW$618  .dwtag  DW_TAG_formal_parameter, DW_AT_name("blksize"), DW_AT_symbol_name("_blksize")
    8493                      .dwattr DW$618, DW_AT_type(*DW$T$23)
    8494                      .dwattr DW$618, DW_AT_location[DW_OP_reg1]
    8495              DW$619  .dwtag  DW_TAG_variable, DW_AT_name("addr"), DW_AT_symbol_name("_addr")
    8496                      .dwattr DW$619, DW_AT_type(*DW$T$25)
    8497                      .dwattr DW$619, DW_AT_location[DW_OP_breg20 -2]
    8498              DW$620  .dwtag  DW_TAG_variable, DW_AT_name("pmem_ctl"), DW_AT_symbol_name("_pmem_ctl")
    8499                      .dwattr DW$620, DW_AT_type(*DW$T$25)
    8500                      .dwattr DW$620, DW_AT_location[DW_OP_breg20 -4]
    8501              DW$621  .dwtag  DW_TAG_variable, DW_AT_name("nblk"), DW_AT_symbol_name("_nblk")
    8502                      .dwattr DW$621, DW_AT_type(*DW$T$23)
    8503                      .dwattr DW$621, DW_AT_location[DW_OP_breg20 -5]
    8504              DW$622  .dwtag  DW_TAG_variable, DW_AT_name("blksize"), DW_AT_symbol_name("_blksize")
    8505                      .dwattr DW$622, DW_AT_type(*DW$T$23)
    8506                      .dwattr DW$622, DW_AT_location[DW_OP_breg20 -6]
    8507              DW$623  .dwtag  DW_TAG_variable, DW_AT_name("index"), DW_AT_symbol_name("_index")
    8508                      .dwattr DW$623, DW_AT_type(*DW$T$23)
    8509                      .dwattr DW$623, DW_AT_location[DW_OP_breg20 -7]
    8510              DW$624  .dwtag  DW_TAG_variable, DW_AT_name("ptemp"), DW_AT_symbol_name("_ptemp")
    8511                      .dwattr DW$624, DW_AT_type(*DW$T$197)
    8512                      .dwattr DW$624, DW_AT_location[DW_OP_breg20 -10]
    8513 00000a38 9746          MOV       *-SP[6],AH            ; |131| 
    8514 00000a39 9645          MOV       *-SP[5],AL            ; |131| 
    8515 00000a3a A044          MOVL      *-SP[4],XAR5          ; |131| 
    8516 00000a3b A842          MOVL      *-SP[2],XAR4          ; |131| 
    8517                      .dwpsn  "src\mem_maneger.c",134,2
    8518 00000a3c 761F-         MOVW      DP,#_m_mem_lock
         00000a3d 0000 
    8519 00000a3e 8A02-         MOVL      XAR4,@_m_mem_lock     ; |134| 
    8520 00000a3f 7640!         LCR       #_os_lock             ; |134| 
         00000a40 0000 
    8521                      ; call occurs [#_os_lock] ; |134| 
    8522                      .dwpsn  "src\mem_maneger.c",135,8
    8523 00000a41 2B47          MOV       *-SP[7],#0            ; |135| 
    8524                      .dwpsn  "src\mem_maneger.c",135,18
    8525 00000a42 9247          MOV       AL,*-SP[7]            ; |135| 
    8526 00000a43 ED2C          BF        L205,NEQ              ; |135| 
    8527                      ; branchcc occurs ; |135| 
    8528              L203:    
    8529              DW$L$_mem_block_create$2$B:
    8530                      .dwpsn  "src\mem_maneger.c",137,3
    8531 00000a44 0E47          MOVU      ACC,*-SP[7]
    8532 00000a45 8F00-         MOVL      XAR4,#_m_mem_maneger+2 ; |137| 
         00000a46 000E 
    8533 00000a47 FF32          LSL       ACC,3                 ; |137| 
    8534 00000a48 5601          ADDL      XAR4,ACC
         00000a49 00A4 
    8535 00000a4a A84A          MOVL      *-SP[10],XAR4         ; |137| 
    8536                      .dwpsn  "src\mem_maneger.c",138,3
    8537 00000a4b 8A4A          MOVL      XAR4,*-SP[10]         ; |138| 
    8538 00000a4c 92C4          MOV       AL,*+XAR4[0]          ; |138| 
TMS320C2000 COFF Assembler PC v4.1.3 Thu Aug 04 16:21:37 2011

Tools Copyright (c) 1996-2006 Texas Instruments Incorporated
C:\DOCUME~1\ADMINI~1\LOCALS~1\Temp\TI8402                            PAGE  162

    8539 00000a4d ED1F          BF        L204,NEQ              ; |138| 
    8540                      ; branchcc occurs ; |138| 
    8541              DW$L$_mem_block_create$2$E:
    8542                      .dwpsn  "src\mem_maneger.c",140,4
    8543 00000a4e 8A4A          MOVL      XAR4,*-SP[10]         ; |140| 
    8544 00000a4f 28C4          MOV       *+XAR4[0],#1          ; |140| 
         00000a50 0001 
    8545                      .dwpsn  "src\mem_maneger.c",141,4
    8546 00000a51 8A4A          MOVL      XAR4,*-SP[10]         ; |141| 
    8547 00000a52 0642          MOVL      ACC,*-SP[2]           ; |141| 
    8548 00000a53 1EE4          MOVL      *+XAR4[4],ACC         ; |141| 
    8549                      .dwpsn  "src\mem_maneger.c",142,4
    8550 00000a54 8A44          MOVL      XAR4,*-SP[4]          ; |142| 
    8551 00000a55 9A46          MOVB      AL,#70                ; |142| 
    8552 00000a56 9345          MOV       AH,*-SP[5]            ; |142| 
    8553 00000a57 7640'         LCR       #_global_memset       ; |142| 
         00000a58 01EF 
    8554                      ; call occurs [#_global_memset] ; |142| 
    8555                      .dwpsn  "src\mem_maneger.c",143,4
    8556 00000a59 5845          MOVZ      AR0,*-SP[5]           ; |143| 
    8557 00000a5a 8A44          MOVL      XAR4,*-SP[4]          ; |143| 
    8558 00000a5b 2B94          MOV       *+XAR4[AR0],#0        ; |143| 
    8559                      .dwpsn  "src\mem_maneger.c",144,4
    8560 00000a5c 8A4A          MOVL      XAR4,*-SP[10]         ; |144| 
    8561 00000a5d 0644          MOVL      ACC,*-SP[4]           ; |144| 
    8562 00000a5e 1ED4          MOVL      *+XAR4[2],ACC         ; |144| 
    8563                      .dwpsn  "src\mem_maneger.c",145,4
    8564 00000a5f 8A4A          MOVL      XAR4,*-SP[10]         ; |145| 
    8565 00000a60 9246          MOV       AL,*-SP[6]            ; |145| 
    8566 00000a61 96F4          MOV       *+XAR4[6],AL          ; |145| 
    8567                      .dwpsn  "src\mem_maneger.c",146,4
    8568 00000a62 8A4A          MOVL      XAR4,*-SP[10]         ; |146| 
    8569 00000a63 9245          MOV       AL,*-SP[5]            ; |146| 
    8570 00000a64 96FC          MOV       *+XAR4[7],AL          ; |146| 
    8571                      .dwpsn  "src\mem_maneger.c",147,4
    8572 00000a65 761F-         MOVW      DP,#_m_mem_lock
         00000a66 0000 
    8573 00000a67 8A02-         MOVL      XAR4,@_m_mem_lock     ; |147| 
    8574 00000a68 7640!         LCR       #_os_unlock           ; |147| 
         00000a69 0000 
    8575                      ; call occurs [#_os_unlock] ; |147| 
    8576                      .dwpsn  "src\mem_maneger.c",148,4
    8577 00000a6a 8A4A          MOVL      XAR4,*-SP[10]         ; |148| 
    8578 00000a6b 6F0A          B         L206,UNC              ; |148| 
    8579                      ; branch occurs ; |148| 
    8580              L204:    
    8581              DW$L$_mem_block_create$4$B:
    8582                      .dwpsn  "src\mem_maneger.c",135,46
    8583 00000a6c 0A47          INC       *-SP[7]               ; |135| 
    8584                      .dwpsn  "src\mem_maneger.c",135,18
    8585 00000a6d 9247          MOV       AL,*-SP[7]            ; |135| 
    8586 00000a6e ECD6          BF        L203,EQ               ; |135| 
    8587                      ; branchcc occurs ; |135| 
    8588              DW$L$_mem_block_create$4$E:
    8589              L205:    
TMS320C2000 COFF Assembler PC v4.1.3 Thu Aug 04 16:21:37 2011

Tools Copyright (c) 1996-2006 Texas Instruments Incorporated
C:\DOCUME~1\ADMINI~1\LOCALS~1\Temp\TI8402                            PAGE  163

    8590                      .dwpsn  "src\mem_maneger.c",151,2
    8591 00000a6f 761F-         MOVW      DP,#_m_mem_lock
         00000a70 0000 
    8592 00000a71 8A02-         MOVL      XAR4,@_m_mem_lock     ; |151| 
    8593 00000a72 7640!         LCR       #_os_unlock           ; |151| 
         00000a73 0000 
    8594                      ; call occurs [#_os_unlock] ; |151| 
    8595                      .dwpsn  "src\mem_maneger.c",152,2
    8596 00000a74 D400          MOVB      XAR4,#0
    8597              L206:    
    8598                      .dwpsn  "src\mem_maneger.c",153,1
    8599 00000a75 FE8A          SUBB      SP,#10                ; |152| 
    8600                      .dwcfa  0x1d, -2
    8601 00000a76 0006          LRETR
    8602                      ; return occurs
    8603              
    8604              DW$625  .dwtag  DW_TAG_loop
    8605                      .dwattr DW$625, DW_AT_name("C:\DOCUME~1\ADMINI~1\LOCALS~1\Temp\TI8402:L203:1:1312446096")
    8606                      .dwattr DW$625, DW_AT_begin_file("src\mem_maneger.c")
    8607                      .dwattr DW$625, DW_AT_begin_line(0x87)
    8608                      .dwattr DW$625, DW_AT_end_line(0x96)
    8609              DW$626  .dwtag  DW_TAG_loop_range
    8610                      .dwattr DW$626, DW_AT_low_pc(DW$L$_mem_block_create$2$B)
    8611                      .dwattr DW$626, DW_AT_high_pc(DW$L$_mem_block_create$2$E)
    8612              DW$627  .dwtag  DW_TAG_loop_range
    8613                      .dwattr DW$627, DW_AT_low_pc(DW$L$_mem_block_create$4$B)
    8614                      .dwattr DW$627, DW_AT_high_pc(DW$L$_mem_block_create$4$E)
    8615                      .dwendtag DW$625
    8616              
    8617                      .dwattr DW$614, DW_AT_end_file("src\mem_maneger.c")
    8618                      .dwattr DW$614, DW_AT_end_line(0x99)
    8619                      .dwattr DW$614, DW_AT_end_column(0x01)
    8620                      .dwendentry
    8621                      .dwendtag DW$614
    8622              
    8623 00000a77               .sect   ".text"
    8624                      .global _mem_maneger_init
    8625              
    8626              DW$628  .dwtag  DW_TAG_subprogram, DW_AT_name("mem_maneger_init"), DW_AT_symbol_name("_mem_maneger_init")
    8627                      .dwattr DW$628, DW_AT_low_pc(_mem_maneger_init)
    8628                      .dwattr DW$628, DW_AT_high_pc(0x00)
    8629                      .dwattr DW$628, DW_AT_begin_file("src\mem_maneger.c")
    8630                      .dwattr DW$628, DW_AT_begin_line(0xa2)
    8631                      .dwattr DW$628, DW_AT_begin_column(0x06)
    8632                      .dwpsn  "src\mem_maneger.c",163,1
    8633              
    8634                      .dwfde DW$CIE
    8635              
    8636              ;***************************************************************
    8637              ;* FNAME: _mem_maneger_init             FR SIZE:   0           *
    8638              ;*                                                             *
    8639              ;* FUNCTION ENVIRONMENT                                        *
    8640              ;*                                                             *
    8641              ;* FUNCTION PROPERTIES                                         *
    8642              ;*                            0 Parameter,  0 Auto,  0 SOE     *
TMS320C2000 COFF Assembler PC v4.1.3 Thu Aug 04 16:21:37 2011

Tools Copyright (c) 1996-2006 Texas Instruments Incorporated
C:\DOCUME~1\ADMINI~1\LOCALS~1\Temp\TI8402                            PAGE  164

    8643              ;***************************************************************
    8644              
    8645              _mem_maneger_init:
    8646                      .dwcfa  0x1d, -2
    8647                      .dwcfa  0x1c, 26, 0
    8648                      .dwcfa  0x09, 40, 26
    8649                      .dwpsn  "src\mem_maneger.c",164,2
    8650 00000a77 9A00          MOVB      AL,#0
    8651 00000a78 8F00-         MOVL      XAR4,#_m_mem_maneger  ; |164| 
         00000a79 000C 
    8652 00000a7a 9B0A          MOVB      AH,#10                ; |164| 
    8653 00000a7b 7640'         LCR       #_global_memset       ; |164| 
         00000a7c 01EF 
    8654                      ; call occurs [#_global_memset] ; |164| 
    8655                      .dwpsn  "src\mem_maneger.c",166,2
    8656 00000a7d 8F00-         MOVL      XAR4,#_m_mem_lock     ; |166| 
         00000a7e 0002 
    8657 00000a7f 7640!         LCR       #_os_lock_creat       ; |166| 
         00000a80 0000 
    8658                      ; call occurs [#_os_lock_creat] ; |166| 
    8659                      .dwpsn  "src\mem_maneger.c",167,2
    8660 00000a81 28A9          MOV       AL,#500               ; |167| 
         00000a82 01F4 
    8661 00000a83 8F40-         MOVL      XAR5,#_m_mem_ctl      ; |167| 
         00000a84 03C0 
    8662 00000a85 8F00-         MOVL      XAR4,#_m_malloc_mem   ; |167| 
         00000a86 05B5 
    8663 00000a87 9B7C          MOVB      AH,#124               ; |167| 
    8664 00000a88 7640'         LCR       #_mem_block_create    ; |167| 
         00000a89 0A37 
    8665                      ; call occurs [#_mem_block_create] ; |167| 
    8666 00000a8a 761F-         MOVW      DP,#_m_os_pmem
         00000a8b 0000 
    8667 00000a8c A800-         MOVL      @_m_os_pmem,XAR4      ; |167| 
    8668                      .dwpsn  "src\mem_maneger.c",171,2
    8669 00000a8d 0600-         MOVL      ACC,@_m_os_pmem       ; |171| 
    8670 00000a8e EC01          BF        L207,EQ               ; |171| 
    8671                      ; branchcc occurs ; |171| 
    8672                      .dwpsn  "src\mem_maneger.c",175,2
    8673              L207:    
    8674                      .dwpsn  "src\mem_maneger.c",176,1
    8675 00000a8f 0006          LRETR
    8676                      ; return occurs
    8677                      .dwattr DW$628, DW_AT_end_file("src\mem_maneger.c")
    8678                      .dwattr DW$628, DW_AT_end_line(0xb0)
    8679                      .dwattr DW$628, DW_AT_end_column(0x01)
    8680                      .dwendentry
    8681                      .dwendtag DW$628
    8682              
    8683              ;***************************************************************
    8684              ;* FAR STRINGS                                                 *
    8685              ;***************************************************************
    8686 00000000               .sect   ".econst"
    8687                      .align  2
    8688 00000000 002E  FSL1:   .string ".",0
TMS320C2000 COFF Assembler PC v4.1.3 Thu Aug 04 16:21:37 2011

Tools Copyright (c) 1996-2006 Texas Instruments Incorporated
C:\DOCUME~1\ADMINI~1\LOCALS~1\Temp\TI8402                            PAGE  165

         00000001 0000 
    8689                      .align  2
    8690 00000002 0030  FSL2:   .string "0",0
         00000003 0000 
    8691                      .align  2
    8692 00000004 0053  FSL3:   .string "Support--Timer array",0
         00000005 0075 
         00000006 0070 
         00000007 0070 
         00000008 006F 
         00000009 0072 
         0000000a 0074 
         0000000b 002D 
         0000000c 002D 
         0000000d 0054 
         0000000e 0069 
         0000000f 006D 
         00000010 0065 
         00000011 0072 
         00000012 0020 
         00000013 0061 
         00000014 0072 
         00000015 0072 
         00000016 0061 
         00000017 0079 
         00000018 0000 
    8693              ;***************************************************************
    8694              ;* UNDEFINED EXTERNAL REFERENCES                               *
    8695              ;***************************************************************
    8696                      .global _os_unlock
    8697                      .global _os_lock
    8698                      .global _OSTimeDly
    8699                      .global _os_lock_creat
    8700                      .global _atoi
    8701                      .global _memcmp
    8702                      .global _os_task_assign_pro_build
    8703                      .global _os_task_name_set
    8704                      .global _strcpy
    8705                      .global _strcat
    8706                      .global _strlen
    8707                      .global _memset
    8708                      .global FS$$SUB
    8709                      .global FS$$CMP
    8710                      .global FS$$NEG
    8711                      .global U$$TOFS
    8712                      .global FS$$DIV
    8713                      .global FS$$ADD
    8714                      .global ___memcpy_ff
    8715                      .global I$$MOD
    8716                      .global I$$DIV
    8717                      .global L$$MOD
    8718                      .global L$$DIV
    8719                      .global L$$TOFS
    8720                      .global FS$$MPY
    8721                      .global FS$$TOL
TMS320C2000 COFF Assembler PC v4.1.3 Thu Aug 04 16:21:37 2011

Tools Copyright (c) 1996-2006 Texas Instruments Incorporated
C:\DOCUME~1\ADMINI~1\LOCALS~1\Temp\TI8402                            PAGE  166

    8722                      .global I$$TOFS
    8723                      .global FS$$TOU
    8724              
    8725              ;***************************************************************
    8726              ;* TYPE INFORMATION                                            *
    8727              ;***************************************************************
    8728              DW$T$3  .dwtag  DW_TAG_pointer_type
    8729                      .dwattr DW$T$3, DW_AT_address_class(0x16)
    8730              
    8731              DW$T$53 .dwtag  DW_TAG_subroutine_type, DW_AT_type(*DW$T$3)
    8732                      .dwattr DW$T$53, DW_AT_language(DW_LANG_C)
    8733              DW$629  .dwtag  DW_TAG_formal_parameter, DW_AT_type(*DW$T$3)
    8734              DW$630  .dwtag  DW_TAG_formal_parameter, DW_AT_type(*DW$T$52)
    8735              DW$631  .dwtag  DW_TAG_formal_parameter, DW_AT_type(*DW$T$13)
    8736                      .dwendtag DW$T$53
    8737              
    8738              
    8739              DW$T$55 .dwtag  DW_TAG_subroutine_type, DW_AT_type(*DW$T$3)
    8740                      .dwattr DW$T$55, DW_AT_language(DW_LANG_C)
    8741              DW$632  .dwtag  DW_TAG_formal_parameter, DW_AT_type(*DW$T$3)
    8742              DW$633  .dwtag  DW_TAG_formal_parameter, DW_AT_type(*DW$T$10)
    8743              DW$634  .dwtag  DW_TAG_formal_parameter, DW_AT_type(*DW$T$54)
    8744                      .dwendtag DW$T$55
    8745              
    8746              
    8747              DW$T$58 .dwtag  DW_TAG_subroutine_type, DW_AT_type(*DW$T$3)
    8748                      .dwattr DW$T$58, DW_AT_language(DW_LANG_C)
    8749              DW$635  .dwtag  DW_TAG_formal_parameter, DW_AT_type(*DW$T$57)
    8750              DW$636  .dwtag  DW_TAG_formal_parameter, DW_AT_type(*DW$T$23)
    8751              DW$637  .dwtag  DW_TAG_formal_parameter, DW_AT_type(*DW$T$23)
    8752              DW$638  .dwtag  DW_TAG_formal_parameter, DW_AT_type(*DW$T$23)
    8753                      .dwendtag DW$T$58
    8754              
    8755              
    8756              DW$T$59 .dwtag  DW_TAG_subroutine_type, DW_AT_type(*DW$T$3)
    8757                      .dwattr DW$T$59, DW_AT_language(DW_LANG_C)
    8758              DW$639  .dwtag  DW_TAG_formal_parameter, DW_AT_type(*DW$T$23)
    8759                      .dwendtag DW$T$59
    8760              
    8761              
    8762              DW$T$37 .dwtag  DW_TAG_subroutine_type
    8763                      .dwattr DW$T$37, DW_AT_language(DW_LANG_C)
    8764              DW$640  .dwtag  DW_TAG_formal_parameter, DW_AT_type(*DW$T$3)
    8765                      .dwendtag DW$T$37
    8766              
    8767              DW$T$38 .dwtag  DW_TAG_pointer_type, DW_AT_type(*DW$T$37)
    8768                      .dwattr DW$T$38, DW_AT_address_class(0x16)
    8769              DW$T$39 .dwtag  DW_TAG_typedef, DW_AT_name("tmr_callblack"), DW_AT_type(*DW$T$38)
    8770                      .dwattr DW$T$39, DW_AT_language(DW_LANG_C)
    8771              DW$T$52 .dwtag  DW_TAG_pointer_type, DW_AT_type(*DW$T$51)
    8772                      .dwattr DW$T$52, DW_AT_address_class(0x16)
    8773              
    8774              DW$T$61 .dwtag  DW_TAG_subroutine_type
    8775                      .dwattr DW$T$61, DW_AT_language(DW_LANG_C)
    8776              DW$641  .dwtag  DW_TAG_formal_parameter, DW_AT_type(*DW$T$20)
TMS320C2000 COFF Assembler PC v4.1.3 Thu Aug 04 16:21:37 2011

Tools Copyright (c) 1996-2006 Texas Instruments Incorporated
C:\DOCUME~1\ADMINI~1\LOCALS~1\Temp\TI8402                            PAGE  167

    8777                      .dwendtag DW$T$61
    8778              
    8779              
    8780              DW$T$66 .dwtag  DW_TAG_subroutine_type
    8781                      .dwattr DW$T$66, DW_AT_language(DW_LANG_C)
    8782              DW$642  .dwtag  DW_TAG_formal_parameter, DW_AT_type(*DW$T$65)
    8783                      .dwendtag DW$T$66
    8784              
    8785              
    8786              DW$T$68 .dwtag  DW_TAG_subroutine_type
    8787                      .dwattr DW$T$68, DW_AT_language(DW_LANG_C)
    8788              DW$643  .dwtag  DW_TAG_formal_parameter, DW_AT_type(*DW$T$57)
    8789              DW$644  .dwtag  DW_TAG_formal_parameter, DW_AT_type(*DW$T$23)
    8790              DW$645  .dwtag  DW_TAG_formal_parameter, DW_AT_type(*DW$T$23)
    8791                      .dwendtag DW$T$68
    8792              
    8793              
    8794              DW$T$71 .dwtag  DW_TAG_subroutine_type
    8795                      .dwattr DW$T$71, DW_AT_language(DW_LANG_C)
    8796              DW$646  .dwtag  DW_TAG_formal_parameter, DW_AT_type(*DW$T$3)
    8797              DW$647  .dwtag  DW_TAG_formal_parameter, DW_AT_type(*DW$T$23)
    8798              DW$648  .dwtag  DW_TAG_formal_parameter, DW_AT_type(*DW$T$6)
    8799              DW$649  .dwtag  DW_TAG_formal_parameter, DW_AT_type(*DW$T$16)
    8800              DW$650  .dwtag  DW_TAG_formal_parameter, DW_AT_type(*DW$T$23)
    8801              DW$651  .dwtag  DW_TAG_formal_parameter, DW_AT_type(*DW$T$70)
    8802                      .dwendtag DW$T$71
    8803              
    8804              
    8805              DW$T$74 .dwtag  DW_TAG_subroutine_type
    8806                      .dwattr DW$T$74, DW_AT_language(DW_LANG_C)
    8807              DW$652  .dwtag  DW_TAG_formal_parameter, DW_AT_type(*DW$T$73)
    8808              DW$653  .dwtag  DW_TAG_formal_parameter, DW_AT_type(*DW$T$23)
    8809              DW$654  .dwtag  DW_TAG_formal_parameter, DW_AT_type(*DW$T$25)
    8810                      .dwendtag DW$T$74
    8811              
    8812              
    8813              DW$T$75 .dwtag  DW_TAG_subroutine_type
    8814                      .dwattr DW$T$75, DW_AT_language(DW_LANG_C)
    8815              DW$655  .dwtag  DW_TAG_formal_parameter, DW_AT_type(*DW$T$73)
    8816              DW$656  .dwtag  DW_TAG_formal_parameter, DW_AT_type(*DW$T$25)
    8817              DW$657  .dwtag  DW_TAG_formal_parameter, DW_AT_type(*DW$T$23)
    8818                      .dwendtag DW$T$75
    8819              
    8820              
    8821              DW$T$76 .dwtag  DW_TAG_subroutine_type
    8822                      .dwattr DW$T$76, DW_AT_language(DW_LANG_C)
    8823              DW$658  .dwtag  DW_TAG_formal_parameter, DW_AT_type(*DW$T$73)
    8824                      .dwendtag DW$T$76
    8825              
    8826              
    8827              DW$T$77 .dwtag  DW_TAG_subroutine_type
    8828                      .dwattr DW$T$77, DW_AT_language(DW_LANG_C)
    8829              DW$659  .dwtag  DW_TAG_formal_parameter, DW_AT_type(*DW$T$3)
    8830              DW$660  .dwtag  DW_TAG_formal_parameter, DW_AT_type(*DW$T$3)
    8831              DW$661  .dwtag  DW_TAG_formal_parameter, DW_AT_type(*DW$T$23)
TMS320C2000 COFF Assembler PC v4.1.3 Thu Aug 04 16:21:37 2011

Tools Copyright (c) 1996-2006 Texas Instruments Incorporated
C:\DOCUME~1\ADMINI~1\LOCALS~1\Temp\TI8402                            PAGE  168

    8832                      .dwendtag DW$T$77
    8833              
    8834              
    8835              DW$T$79 .dwtag  DW_TAG_subroutine_type
    8836                      .dwattr DW$T$79, DW_AT_language(DW_LANG_C)
    8837              DW$662  .dwtag  DW_TAG_formal_parameter, DW_AT_type(*DW$T$3)
    8838              DW$663  .dwtag  DW_TAG_formal_parameter, DW_AT_type(*DW$T$6)
    8839              DW$664  .dwtag  DW_TAG_formal_parameter, DW_AT_type(*DW$T$23)
    8840                      .dwendtag DW$T$79
    8841              
    8842              
    8843              DW$T$83 .dwtag  DW_TAG_subroutine_type
    8844                      .dwattr DW$T$83, DW_AT_language(DW_LANG_C)
    8845              DW$665  .dwtag  DW_TAG_formal_parameter, DW_AT_type(*DW$T$82)
    8846              DW$666  .dwtag  DW_TAG_formal_parameter, DW_AT_type(*DW$T$82)
    8847                      .dwendtag DW$T$83
    8848              
    8849              
    8850              DW$T$85 .dwtag  DW_TAG_subroutine_type
    8851                      .dwattr DW$T$85, DW_AT_language(DW_LANG_C)
    8852              DW$667  .dwtag  DW_TAG_formal_parameter, DW_AT_type(*DW$T$82)
    8853                      .dwendtag DW$T$85
    8854              
    8855              
    8856              DW$T$89 .dwtag  DW_TAG_subroutine_type
    8857                      .dwattr DW$T$89, DW_AT_language(DW_LANG_C)
    8858              DW$668  .dwtag  DW_TAG_formal_parameter, DW_AT_type(*DW$T$88)
    8859              DW$669  .dwtag  DW_TAG_formal_parameter, DW_AT_type(*DW$T$6)
    8860                      .dwendtag DW$T$89
    8861              
    8862              
    8863              DW$T$90 .dwtag  DW_TAG_subroutine_type
    8864                      .dwattr DW$T$90, DW_AT_language(DW_LANG_C)
    8865              DW$670  .dwtag  DW_TAG_formal_parameter, DW_AT_type(*DW$T$23)
    8866                      .dwendtag DW$T$90
    8867              
    8868              
    8869              DW$T$91 .dwtag  DW_TAG_subroutine_type
    8870                      .dwattr DW$T$91, DW_AT_language(DW_LANG_C)
    8871              DW$671  .dwtag  DW_TAG_formal_parameter, DW_AT_type(*DW$T$6)
    8872              DW$672  .dwtag  DW_TAG_formal_parameter, DW_AT_type(*DW$T$25)
    8873                      .dwendtag DW$T$91
    8874              
    8875              
    8876              DW$T$94 .dwtag  DW_TAG_subroutine_type
    8877                      .dwattr DW$T$94, DW_AT_language(DW_LANG_C)
    8878              DW$673  .dwtag  DW_TAG_formal_parameter, DW_AT_type(*DW$T$16)
    8879              DW$674  .dwtag  DW_TAG_formal_parameter, DW_AT_type(*DW$T$92)
    8880              DW$675  .dwtag  DW_TAG_formal_parameter, DW_AT_type(*DW$T$93)
    8881                      .dwendtag DW$T$94
    8882              
    8883              
    8884              DW$T$96 .dwtag  DW_TAG_subroutine_type
    8885                      .dwattr DW$T$96, DW_AT_language(DW_LANG_C)
    8886              DW$676  .dwtag  DW_TAG_formal_parameter, DW_AT_type(*DW$T$82)
TMS320C2000 COFF Assembler PC v4.1.3 Thu Aug 04 16:21:37 2011

Tools Copyright (c) 1996-2006 Texas Instruments Incorporated
C:\DOCUME~1\ADMINI~1\LOCALS~1\Temp\TI8402                            PAGE  169

    8887              DW$677  .dwtag  DW_TAG_formal_parameter, DW_AT_type(*DW$T$81)
    8888                      .dwendtag DW$T$96
    8889              
    8890              
    8891              DW$T$97 .dwtag  DW_TAG_subroutine_type
    8892                      .dwattr DW$T$97, DW_AT_language(DW_LANG_C)
    8893              
    8894              DW$T$99 .dwtag  DW_TAG_subroutine_type
    8895                      .dwattr DW$T$99, DW_AT_language(DW_LANG_C)
    8896              DW$678  .dwtag  DW_TAG_formal_parameter, DW_AT_type(*DW$T$35)
    8897                      .dwendtag DW$T$99
    8898              
    8899              
    8900              DW$T$102        .dwtag  DW_TAG_subroutine_type
    8901                      .dwattr DW$T$102, DW_AT_language(DW_LANG_C)
    8902              DW$679  .dwtag  DW_TAG_formal_parameter, DW_AT_type(*DW$T$101)
    8903              DW$680  .dwtag  DW_TAG_formal_parameter, DW_AT_type(*DW$T$35)
    8904              DW$681  .dwtag  DW_TAG_formal_parameter, DW_AT_type(*DW$T$23)
    8905                      .dwendtag DW$T$102
    8906              
    8907              
    8908              DW$T$104        .dwtag  DW_TAG_subroutine_type
    8909                      .dwattr DW$T$104, DW_AT_language(DW_LANG_C)
    8910              DW$682  .dwtag  DW_TAG_formal_parameter, DW_AT_type(*DW$T$101)
    8911              DW$683  .dwtag  DW_TAG_formal_parameter, DW_AT_type(*DW$T$35)
    8912                      .dwendtag DW$T$104
    8913              
    8914              
    8915              DW$T$106        .dwtag  DW_TAG_subroutine_type
    8916                      .dwattr DW$T$106, DW_AT_language(DW_LANG_C)
    8917              DW$684  .dwtag  DW_TAG_formal_parameter, DW_AT_type(*DW$T$13)
    8918                      .dwendtag DW$T$106
    8919              
    8920              
    8921              DW$T$109        .dwtag  DW_TAG_subroutine_type
    8922                      .dwattr DW$T$109, DW_AT_language(DW_LANG_C)
    8923              DW$685  .dwtag  DW_TAG_formal_parameter, DW_AT_type(*DW$T$108)
    8924              DW$686  .dwtag  DW_TAG_formal_parameter, DW_AT_type(*DW$T$13)
    8925                      .dwendtag DW$T$109
    8926              
    8927              
    8928              DW$T$111        .dwtag  DW_TAG_subroutine_type
    8929                      .dwattr DW$T$111, DW_AT_language(DW_LANG_C)
    8930              DW$687  .dwtag  DW_TAG_formal_parameter, DW_AT_type(*DW$T$108)
    8931              DW$688  .dwtag  DW_TAG_formal_parameter, DW_AT_type(*DW$T$23)
    8932                      .dwendtag DW$T$111
    8933              
    8934              DW$T$6  .dwtag  DW_TAG_base_type, DW_AT_name("unsigned char")
    8935                      .dwattr DW$T$6, DW_AT_encoding(DW_ATE_unsigned_char)
    8936                      .dwattr DW$T$6, DW_AT_byte_size(0x01)
    8937              DW$T$25 .dwtag  DW_TAG_pointer_type, DW_AT_type(*DW$T$6)
    8938                      .dwattr DW$T$25, DW_AT_address_class(0x16)
    8939              
    8940              DW$T$113        .dwtag  DW_TAG_subroutine_type, DW_AT_type(*DW$T$6)
    8941                      .dwattr DW$T$113, DW_AT_language(DW_LANG_C)
TMS320C2000 COFF Assembler PC v4.1.3 Thu Aug 04 16:21:37 2011

Tools Copyright (c) 1996-2006 Texas Instruments Incorporated
C:\DOCUME~1\ADMINI~1\LOCALS~1\Temp\TI8402                            PAGE  170

    8942              DW$689  .dwtag  DW_TAG_formal_parameter, DW_AT_type(*DW$T$112)
    8943                      .dwendtag DW$T$113
    8944              
    8945              DW$T$115        .dwtag  DW_TAG_typedef, DW_AT_name("BOOL"), DW_AT_type(*DW$T$6)
    8946                      .dwattr DW$T$115, DW_AT_language(DW_LANG_C)
    8947              
    8948              DW$T$116        .dwtag  DW_TAG_subroutine_type, DW_AT_type(*DW$T$115)
    8949                      .dwattr DW$T$116, DW_AT_language(DW_LANG_C)
    8950              DW$690  .dwtag  DW_TAG_formal_parameter, DW_AT_type(*DW$T$38)
    8951              DW$691  .dwtag  DW_TAG_formal_parameter, DW_AT_type(*DW$T$6)
    8952              DW$692  .dwtag  DW_TAG_formal_parameter, DW_AT_type(*DW$T$23)
    8953                      .dwendtag DW$T$116
    8954              
    8955              
    8956              DW$T$118        .dwtag  DW_TAG_subroutine_type, DW_AT_type(*DW$T$115)
    8957                      .dwattr DW$T$118, DW_AT_language(DW_LANG_C)
    8958              DW$693  .dwtag  DW_TAG_formal_parameter, DW_AT_type(*DW$T$3)
    8959              DW$694  .dwtag  DW_TAG_formal_parameter, DW_AT_type(*DW$T$3)
    8960              DW$695  .dwtag  DW_TAG_formal_parameter, DW_AT_type(*DW$T$23)
    8961                      .dwendtag DW$T$118
    8962              
    8963              
    8964              DW$T$120        .dwtag  DW_TAG_subroutine_type, DW_AT_type(*DW$T$115)
    8965                      .dwattr DW$T$120, DW_AT_language(DW_LANG_C)
    8966              DW$696  .dwtag  DW_TAG_formal_parameter, DW_AT_type(*DW$T$25)
    8967              DW$697  .dwtag  DW_TAG_formal_parameter, DW_AT_type(*DW$T$88)
    8968                      .dwendtag DW$T$120
    8969              
    8970              
    8971              DW$T$121        .dwtag  DW_TAG_subroutine_type, DW_AT_type(*DW$T$115)
    8972                      .dwattr DW$T$121, DW_AT_language(DW_LANG_C)
    8973              DW$698  .dwtag  DW_TAG_formal_parameter, DW_AT_type(*DW$T$81)
    8974                      .dwendtag DW$T$121
    8975              
    8976              
    8977              DW$T$122        .dwtag  DW_TAG_subroutine_type, DW_AT_type(*DW$T$115)
    8978                      .dwattr DW$T$122, DW_AT_language(DW_LANG_C)
    8979              DW$699  .dwtag  DW_TAG_formal_parameter, DW_AT_type(*DW$T$101)
    8980                      .dwendtag DW$T$122
    8981              
    8982              
    8983              DW$T$123        .dwtag  DW_TAG_subroutine_type, DW_AT_type(*DW$T$115)
    8984                      .dwattr DW$T$123, DW_AT_language(DW_LANG_C)
    8985              DW$700  .dwtag  DW_TAG_formal_parameter, DW_AT_type(*DW$T$35)
    8986                      .dwendtag DW$T$123
    8987              
    8988              
    8989              DW$T$125        .dwtag  DW_TAG_subroutine_type, DW_AT_type(*DW$T$115)
    8990                      .dwattr DW$T$125, DW_AT_language(DW_LANG_C)
    8991              DW$701  .dwtag  DW_TAG_formal_parameter, DW_AT_type(*DW$T$101)
    8992              DW$702  .dwtag  DW_TAG_formal_parameter, DW_AT_type(*DW$T$35)
    8993                      .dwendtag DW$T$125
    8994              
    8995              
    8996              DW$T$127        .dwtag  DW_TAG_subroutine_type, DW_AT_type(*DW$T$6)
TMS320C2000 COFF Assembler PC v4.1.3 Thu Aug 04 16:21:37 2011

Tools Copyright (c) 1996-2006 Texas Instruments Incorporated
C:\DOCUME~1\ADMINI~1\LOCALS~1\Temp\TI8402                            PAGE  171

    8997                      .dwattr DW$T$127, DW_AT_language(DW_LANG_C)
    8998              DW$703  .dwtag  DW_TAG_formal_parameter, DW_AT_type(*DW$T$6)
    8999              DW$704  .dwtag  DW_TAG_formal_parameter, DW_AT_type(*DW$T$82)
    9000                      .dwendtag DW$T$127
    9001              
    9002              
    9003              DW$T$130        .dwtag  DW_TAG_subroutine_type, DW_AT_type(*DW$T$6)
    9004                      .dwattr DW$T$130, DW_AT_language(DW_LANG_C)
    9005              DW$705  .dwtag  DW_TAG_formal_parameter, DW_AT_type(*DW$T$81)
    9006                      .dwendtag DW$T$130
    9007              
    9008              
    9009              DW$T$132        .dwtag  DW_TAG_subroutine_type, DW_AT_type(*DW$T$6)
    9010                      .dwattr DW$T$132, DW_AT_language(DW_LANG_C)
    9011              DW$706  .dwtag  DW_TAG_formal_parameter, DW_AT_type(*DW$T$81)
    9012              DW$707  .dwtag  DW_TAG_formal_parameter, DW_AT_type(*DW$T$6)
    9013                      .dwendtag DW$T$132
    9014              
    9015              
    9016              DW$T$133        .dwtag  DW_TAG_array_type, DW_AT_type(*DW$T$6)
    9017                      .dwattr DW$T$133, DW_AT_language(DW_LANG_C)
    9018                      .dwattr DW$T$133, DW_AT_byte_size(0x1f4)
    9019              DW$708  .dwtag  DW_TAG_subrange_type
    9020                      .dwattr DW$708, DW_AT_upper_bound(0x1f3)
    9021                      .dwendtag DW$T$133
    9022              
    9023              
    9024              DW$T$136        .dwtag  DW_TAG_array_type, DW_AT_type(*DW$T$6)
    9025                      .dwattr DW$T$136, DW_AT_language(DW_LANG_C)
    9026                      .dwattr DW$T$136, DW_AT_byte_size(0xf230)
    9027              DW$709  .dwtag  DW_TAG_subrange_type
    9028                      .dwattr DW$709, DW_AT_upper_bound(0x1f3)
    9029              DW$710  .dwtag  DW_TAG_subrange_type
    9030                      .dwattr DW$710, DW_AT_upper_bound(0x7b)
    9031                      .dwendtag DW$T$136
    9032              
    9033              
    9034              DW$T$139        .dwtag  DW_TAG_array_type, DW_AT_type(*DW$T$6)
    9035                      .dwattr DW$T$139, DW_AT_language(DW_LANG_C)
    9036                      .dwattr DW$T$139, DW_AT_byte_size(0x1f5)
    9037              DW$711  .dwtag  DW_TAG_subrange_type
    9038                      .dwattr DW$711, DW_AT_upper_bound(0x1f4)
    9039                      .dwendtag DW$T$139
    9040              
    9041              DW$T$8  .dwtag  DW_TAG_base_type, DW_AT_name("short")
    9042                      .dwattr DW$T$8, DW_AT_encoding(DW_ATE_signed)
    9043                      .dwattr DW$T$8, DW_AT_byte_size(0x01)
    9044              DW$T$10 .dwtag  DW_TAG_base_type, DW_AT_name("int")
    9045                      .dwattr DW$T$10, DW_AT_encoding(DW_ATE_signed)
    9046                      .dwattr DW$T$10, DW_AT_byte_size(0x01)
    9047              
    9048              DW$T$142        .dwtag  DW_TAG_subroutine_type, DW_AT_type(*DW$T$10)
    9049                      .dwattr DW$T$142, DW_AT_language(DW_LANG_C)
    9050              DW$712  .dwtag  DW_TAG_formal_parameter, DW_AT_type(*DW$T$141)
    9051                      .dwendtag DW$T$142
TMS320C2000 COFF Assembler PC v4.1.3 Thu Aug 04 16:21:37 2011

Tools Copyright (c) 1996-2006 Texas Instruments Incorporated
C:\DOCUME~1\ADMINI~1\LOCALS~1\Temp\TI8402                            PAGE  172

    9052              
    9053              
    9054              DW$T$144        .dwtag  DW_TAG_subroutine_type, DW_AT_type(*DW$T$10)
    9055                      .dwattr DW$T$144, DW_AT_language(DW_LANG_C)
    9056              DW$713  .dwtag  DW_TAG_formal_parameter, DW_AT_type(*DW$T$52)
    9057              DW$714  .dwtag  DW_TAG_formal_parameter, DW_AT_type(*DW$T$52)
    9058              DW$715  .dwtag  DW_TAG_formal_parameter, DW_AT_type(*DW$T$54)
    9059                      .dwendtag DW$T$144
    9060              
    9061              
    9062              DW$T$146        .dwtag  DW_TAG_subroutine_type, DW_AT_type(*DW$T$10)
    9063                      .dwattr DW$T$146, DW_AT_language(DW_LANG_C)
    9064              DW$716  .dwtag  DW_TAG_formal_parameter, DW_AT_type(*DW$T$82)
    9065              DW$717  .dwtag  DW_TAG_formal_parameter, DW_AT_type(*DW$T$23)
    9066              DW$718  .dwtag  DW_TAG_formal_parameter, DW_AT_type(*DW$T$82)
    9067              DW$719  .dwtag  DW_TAG_unspecified_parameters
    9068                      .dwendtag DW$T$146
    9069              
    9070              DW$720  .dwtag  DW_TAG_far_type
    9071                      .dwattr DW$720, DW_AT_type(*DW$T$10)
    9072              DW$T$148        .dwtag  DW_TAG_volatile_type
    9073                      .dwattr DW$T$148, DW_AT_type(*DW$720)
    9074              DW$T$11 .dwtag  DW_TAG_base_type, DW_AT_name("unsigned int")
    9075                      .dwattr DW$T$11, DW_AT_encoding(DW_ATE_unsigned)
    9076                      .dwattr DW$T$11, DW_AT_byte_size(0x01)
    9077              DW$T$20 .dwtag  DW_TAG_typedef, DW_AT_name("INT16U"), DW_AT_type(*DW$T$11)
    9078                      .dwattr DW$T$20, DW_AT_language(DW_LANG_C)
    9079              DW$T$23 .dwtag  DW_TAG_typedef, DW_AT_name("Bsize_t"), DW_AT_type(*DW$T$11)
    9080                      .dwattr DW$T$23, DW_AT_language(DW_LANG_C)
    9081              DW$T$57 .dwtag  DW_TAG_pointer_type, DW_AT_type(*DW$T$23)
    9082                      .dwattr DW$T$57, DW_AT_address_class(0x16)
    9083              
    9084              DW$T$149        .dwtag  DW_TAG_subroutine_type, DW_AT_type(*DW$T$23)
    9085                      .dwattr DW$T$149, DW_AT_language(DW_LANG_C)
    9086              DW$721  .dwtag  DW_TAG_formal_parameter, DW_AT_type(*DW$T$73)
    9087              DW$722  .dwtag  DW_TAG_formal_parameter, DW_AT_type(*DW$T$23)
    9088                      .dwendtag DW$T$149
    9089              
    9090              
    9091              DW$T$151        .dwtag  DW_TAG_subroutine_type, DW_AT_type(*DW$T$23)
    9092                      .dwattr DW$T$151, DW_AT_language(DW_LANG_C)
    9093              DW$723  .dwtag  DW_TAG_formal_parameter, DW_AT_type(*DW$T$73)
    9094                      .dwendtag DW$T$151
    9095              
    9096              
    9097              DW$T$152        .dwtag  DW_TAG_subroutine_type, DW_AT_type(*DW$T$23)
    9098                      .dwattr DW$T$152, DW_AT_language(DW_LANG_C)
    9099              DW$724  .dwtag  DW_TAG_formal_parameter, DW_AT_type(*DW$T$82)
    9100                      .dwendtag DW$T$152
    9101              
    9102              
    9103              DW$T$155        .dwtag  DW_TAG_subroutine_type, DW_AT_type(*DW$T$23)
    9104                      .dwattr DW$T$155, DW_AT_language(DW_LANG_C)
    9105              DW$725  .dwtag  DW_TAG_formal_parameter, DW_AT_type(*DW$T$82)
    9106              DW$726  .dwtag  DW_TAG_formal_parameter, DW_AT_type(*DW$T$82)
TMS320C2000 COFF Assembler PC v4.1.3 Thu Aug 04 16:21:37 2011

Tools Copyright (c) 1996-2006 Texas Instruments Incorporated
C:\DOCUME~1\ADMINI~1\LOCALS~1\Temp\TI8402                            PAGE  173

    9107              DW$727  .dwtag  DW_TAG_formal_parameter, DW_AT_type(*DW$T$82)
    9108              DW$728  .dwtag  DW_TAG_formal_parameter, DW_AT_type(*DW$T$154)
    9109                      .dwendtag DW$T$155
    9110              
    9111              
    9112              DW$T$156        .dwtag  DW_TAG_subroutine_type, DW_AT_type(*DW$T$23)
    9113                      .dwattr DW$T$156, DW_AT_language(DW_LANG_C)
    9114              DW$729  .dwtag  DW_TAG_formal_parameter, DW_AT_type(*DW$T$10)
    9115              DW$730  .dwtag  DW_TAG_formal_parameter, DW_AT_type(*DW$T$82)
    9116                      .dwendtag DW$T$156
    9117              
    9118              
    9119              DW$T$158        .dwtag  DW_TAG_subroutine_type, DW_AT_type(*DW$T$23)
    9120                      .dwattr DW$T$158, DW_AT_language(DW_LANG_C)
    9121              DW$731  .dwtag  DW_TAG_formal_parameter, DW_AT_type(*DW$T$12)
    9122              DW$732  .dwtag  DW_TAG_formal_parameter, DW_AT_type(*DW$T$82)
    9123                      .dwendtag DW$T$158
    9124              
    9125              
    9126              DW$T$160        .dwtag  DW_TAG_subroutine_type, DW_AT_type(*DW$T$23)
    9127                      .dwattr DW$T$160, DW_AT_language(DW_LANG_C)
    9128              DW$733  .dwtag  DW_TAG_formal_parameter, DW_AT_type(*DW$T$16)
    9129              DW$734  .dwtag  DW_TAG_formal_parameter, DW_AT_type(*DW$T$82)
    9130              DW$735  .dwtag  DW_TAG_formal_parameter, DW_AT_type(*DW$T$23)
    9131                      .dwendtag DW$T$160
    9132              
    9133              
    9134              DW$T$162        .dwtag  DW_TAG_subroutine_type, DW_AT_type(*DW$T$23)
    9135                      .dwattr DW$T$162, DW_AT_language(DW_LANG_C)
    9136              DW$736  .dwtag  DW_TAG_formal_parameter, DW_AT_type(*DW$T$3)
    9137              DW$737  .dwtag  DW_TAG_formal_parameter, DW_AT_type(*DW$T$23)
    9138              DW$738  .dwtag  DW_TAG_formal_parameter, DW_AT_type(*DW$T$23)
    9139                      .dwendtag DW$T$162
    9140              
    9141              
    9142              DW$T$163        .dwtag  DW_TAG_subroutine_type, DW_AT_type(*DW$T$23)
    9143                      .dwattr DW$T$163, DW_AT_language(DW_LANG_C)
    9144              DW$739  .dwtag  DW_TAG_formal_parameter, DW_AT_type(*DW$T$81)
    9145                      .dwendtag DW$T$163
    9146              
    9147              
    9148              DW$T$165        .dwtag  DW_TAG_subroutine_type, DW_AT_type(*DW$T$23)
    9149                      .dwattr DW$T$165, DW_AT_language(DW_LANG_C)
    9150              DW$740  .dwtag  DW_TAG_formal_parameter, DW_AT_type(*DW$T$101)
    9151              DW$741  .dwtag  DW_TAG_formal_parameter, DW_AT_type(*DW$T$23)
    9152              DW$742  .dwtag  DW_TAG_formal_parameter, DW_AT_type(*DW$T$35)
    9153                      .dwendtag DW$T$165
    9154              
    9155              DW$T$12 .dwtag  DW_TAG_base_type, DW_AT_name("long")
    9156                      .dwattr DW$T$12, DW_AT_encoding(DW_ATE_signed)
    9157                      .dwattr DW$T$12, DW_AT_byte_size(0x02)
    9158              DW$T$92 .dwtag  DW_TAG_pointer_type, DW_AT_type(*DW$T$12)
    9159                      .dwattr DW$T$92, DW_AT_address_class(0x16)
    9160              
    9161              DW$T$166        .dwtag  DW_TAG_subroutine_type, DW_AT_type(*DW$T$12)
TMS320C2000 COFF Assembler PC v4.1.3 Thu Aug 04 16:21:37 2011

Tools Copyright (c) 1996-2006 Texas Instruments Incorporated
C:\DOCUME~1\ADMINI~1\LOCALS~1\Temp\TI8402                            PAGE  174

    9162                      .dwattr DW$T$166, DW_AT_language(DW_LANG_C)
    9163              DW$743  .dwtag  DW_TAG_formal_parameter, DW_AT_type(*DW$T$82)
    9164                      .dwendtag DW$T$166
    9165              
    9166              DW$T$13 .dwtag  DW_TAG_base_type, DW_AT_name("unsigned long")
    9167                      .dwattr DW$T$13, DW_AT_encoding(DW_ATE_unsigned)
    9168                      .dwattr DW$T$13, DW_AT_byte_size(0x02)
    9169              DW$T$54 .dwtag  DW_TAG_typedef, DW_AT_name("size_t"), DW_AT_type(*DW$T$13)
    9170                      .dwattr DW$T$54, DW_AT_language(DW_LANG_C)
    9171              
    9172              DW$T$167        .dwtag  DW_TAG_subroutine_type, DW_AT_type(*DW$T$54)
    9173                      .dwattr DW$T$167, DW_AT_language(DW_LANG_C)
    9174              DW$744  .dwtag  DW_TAG_formal_parameter, DW_AT_type(*DW$T$141)
    9175                      .dwendtag DW$T$167
    9176              
    9177              DW$T$154        .dwtag  DW_TAG_pointer_type, DW_AT_type(*DW$T$13)
    9178                      .dwattr DW$T$154, DW_AT_address_class(0x16)
    9179              DW$745  .dwtag  DW_TAG_far_type
    9180                      .dwattr DW$745, DW_AT_type(*DW$T$13)
    9181              DW$T$169        .dwtag  DW_TAG_volatile_type
    9182                      .dwattr DW$T$169, DW_AT_type(*DW$745)
    9183              DW$T$16 .dwtag  DW_TAG_base_type, DW_AT_name("float")
    9184                      .dwattr DW$T$16, DW_AT_encoding(DW_ATE_float)
    9185                      .dwattr DW$T$16, DW_AT_byte_size(0x02)
    9186              DW$T$93 .dwtag  DW_TAG_pointer_type, DW_AT_type(*DW$T$16)
    9187                      .dwattr DW$T$93, DW_AT_address_class(0x16)
    9188              
    9189              DW$T$171        .dwtag  DW_TAG_subroutine_type, DW_AT_type(*DW$T$16)
    9190                      .dwattr DW$T$171, DW_AT_language(DW_LANG_C)
    9191              DW$746  .dwtag  DW_TAG_formal_parameter, DW_AT_type(*DW$T$70)
    9192              DW$747  .dwtag  DW_TAG_formal_parameter, DW_AT_type(*DW$T$16)
    9193                      .dwendtag DW$T$171
    9194              
    9195              
    9196              DW$T$172        .dwtag  DW_TAG_subroutine_type, DW_AT_type(*DW$T$16)
    9197                      .dwattr DW$T$172, DW_AT_language(DW_LANG_C)
    9198              DW$748  .dwtag  DW_TAG_formal_parameter, DW_AT_type(*DW$T$82)
    9199                      .dwendtag DW$T$172
    9200              
    9201              
    9202              DW$T$173        .dwtag  DW_TAG_subroutine_type, DW_AT_type(*DW$T$16)
    9203                      .dwattr DW$T$173, DW_AT_language(DW_LANG_C)
    9204              DW$749  .dwtag  DW_TAG_formal_parameter, DW_AT_type(*DW$T$16)
    9205                      .dwendtag DW$T$173
    9206              
    9207              DW$T$65 .dwtag  DW_TAG_pointer_type, DW_AT_type(*DW$T$64)
    9208                      .dwattr DW$T$65, DW_AT_address_class(0x16)
    9209              DW$T$112        .dwtag  DW_TAG_pointer_type, DW_AT_type(*DW$T$65)
    9210                      .dwattr DW$T$112, DW_AT_address_class(0x16)
    9211              DW$T$70 .dwtag  DW_TAG_pointer_type, DW_AT_type(*DW$T$69)
    9212                      .dwattr DW$T$70, DW_AT_address_class(0x16)
    9213              DW$T$73 .dwtag  DW_TAG_pointer_type, DW_AT_type(*DW$T$72)
    9214                      .dwattr DW$T$73, DW_AT_address_class(0x16)
    9215              DW$T$88 .dwtag  DW_TAG_pointer_type, DW_AT_type(*DW$T$87)
    9216                      .dwattr DW$T$88, DW_AT_address_class(0x16)
TMS320C2000 COFF Assembler PC v4.1.3 Thu Aug 04 16:21:37 2011

Tools Copyright (c) 1996-2006 Texas Instruments Incorporated
C:\DOCUME~1\ADMINI~1\LOCALS~1\Temp\TI8402                            PAGE  175

    9217              DW$T$35 .dwtag  DW_TAG_pointer_type, DW_AT_type(*DW$T$34)
    9218                      .dwattr DW$T$35, DW_AT_address_class(0x16)
    9219              
    9220              DW$T$187        .dwtag  DW_TAG_subroutine_type, DW_AT_type(*DW$T$35)
    9221                      .dwattr DW$T$187, DW_AT_language(DW_LANG_C)
    9222              
    9223              DW$T$189        .dwtag  DW_TAG_subroutine_type, DW_AT_type(*DW$T$35)
    9224                      .dwattr DW$T$189, DW_AT_language(DW_LANG_C)
    9225              DW$750  .dwtag  DW_TAG_formal_parameter, DW_AT_type(*DW$T$23)
    9226                      .dwendtag DW$T$189
    9227              
    9228              
    9229              DW$T$191        .dwtag  DW_TAG_subroutine_type, DW_AT_type(*DW$T$35)
    9230                      .dwattr DW$T$191, DW_AT_language(DW_LANG_C)
    9231              DW$751  .dwtag  DW_TAG_formal_parameter, DW_AT_type(*DW$T$101)
    9232              DW$752  .dwtag  DW_TAG_formal_parameter, DW_AT_type(*DW$T$23)
    9233              DW$753  .dwtag  DW_TAG_formal_parameter, DW_AT_type(*DW$T$23)
    9234                      .dwendtag DW$T$191
    9235              
    9236              
    9237              DW$T$192        .dwtag  DW_TAG_array_type, DW_AT_type(*DW$T$34)
    9238                      .dwattr DW$T$192, DW_AT_language(DW_LANG_C)
    9239                      .dwattr DW$T$192, DW_AT_byte_size(0x78)
    9240              DW$754  .dwtag  DW_TAG_subrange_type
    9241                      .dwattr DW$754, DW_AT_upper_bound(0x13)
    9242                      .dwendtag DW$T$192
    9243              
    9244              DW$T$101        .dwtag  DW_TAG_pointer_type, DW_AT_type(*DW$T$42)
    9245                      .dwattr DW$T$101, DW_AT_address_class(0x16)
    9246              
    9247              DW$T$193        .dwtag  DW_TAG_subroutine_type, DW_AT_type(*DW$T$101)
    9248                      .dwattr DW$T$193, DW_AT_language(DW_LANG_C)
    9249              DW$T$108        .dwtag  DW_TAG_pointer_type, DW_AT_type(*DW$T$45)
    9250                      .dwattr DW$T$108, DW_AT_address_class(0x16)
    9251              
    9252              DW$T$195        .dwtag  DW_TAG_subroutine_type, DW_AT_type(*DW$T$108)
    9253                      .dwattr DW$T$195, DW_AT_language(DW_LANG_C)
    9254              DW$755  .dwtag  DW_TAG_formal_parameter, DW_AT_type(*DW$T$13)
    9255              DW$756  .dwtag  DW_TAG_formal_parameter, DW_AT_type(*DW$T$23)
    9256              DW$757  .dwtag  DW_TAG_formal_parameter, DW_AT_type(*DW$T$39)
    9257              DW$758  .dwtag  DW_TAG_formal_parameter, DW_AT_type(*DW$T$3)
    9258                      .dwendtag DW$T$195
    9259              
    9260              DW$T$197        .dwtag  DW_TAG_pointer_type, DW_AT_type(*DW$T$48)
    9261                      .dwattr DW$T$197, DW_AT_address_class(0x16)
    9262              
    9263              DW$T$198        .dwtag  DW_TAG_subroutine_type, DW_AT_type(*DW$T$197)
    9264                      .dwattr DW$T$198, DW_AT_language(DW_LANG_C)
    9265              DW$759  .dwtag  DW_TAG_formal_parameter, DW_AT_type(*DW$T$25)
    9266              DW$760  .dwtag  DW_TAG_formal_parameter, DW_AT_type(*DW$T$25)
    9267              DW$761  .dwtag  DW_TAG_formal_parameter, DW_AT_type(*DW$T$23)
    9268              DW$762  .dwtag  DW_TAG_formal_parameter, DW_AT_type(*DW$T$23)
    9269                      .dwendtag DW$T$198
    9270              
    9271              DW$T$201        .dwtag  DW_TAG_typedef, DW_AT_name("link_list_maneger_t"), DW_AT_type(*DW$T$44)
TMS320C2000 COFF Assembler PC v4.1.3 Thu Aug 04 16:21:37 2011

Tools Copyright (c) 1996-2006 Texas Instruments Incorporated
C:\DOCUME~1\ADMINI~1\LOCALS~1\Temp\TI8402                            PAGE  176

    9272                      .dwattr DW$T$201, DW_AT_language(DW_LANG_C)
    9273              DW$T$203        .dwtag  DW_TAG_typedef, DW_AT_name("tmr_array_t"), DW_AT_type(*DW$T$47)
    9274                      .dwattr DW$T$203, DW_AT_language(DW_LANG_C)
    9275              DW$T$205        .dwtag  DW_TAG_typedef, DW_AT_name("mem_maneger_t"), DW_AT_type(*DW$T$50)
    9276                      .dwattr DW$T$205, DW_AT_language(DW_LANG_C)
    9277              DW$T$81 .dwtag  DW_TAG_base_type, DW_AT_name("signed char")
    9278                      .dwattr DW$T$81, DW_AT_encoding(DW_ATE_signed_char)
    9279                      .dwattr DW$T$81, DW_AT_byte_size(0x01)
    9280              DW$T$82 .dwtag  DW_TAG_pointer_type, DW_AT_type(*DW$T$81)
    9281                      .dwattr DW$T$82, DW_AT_address_class(0x16)
    9282              
    9283              DW$T$174        .dwtag  DW_TAG_subroutine_type, DW_AT_type(*DW$T$82)
    9284                      .dwattr DW$T$174, DW_AT_language(DW_LANG_C)
    9285              DW$763  .dwtag  DW_TAG_formal_parameter, DW_AT_type(*DW$T$82)
    9286              DW$764  .dwtag  DW_TAG_formal_parameter, DW_AT_type(*DW$T$141)
    9287                      .dwendtag DW$T$174
    9288              
    9289              
    9290              DW$T$176        .dwtag  DW_TAG_subroutine_type, DW_AT_type(*DW$T$82)
    9291                      .dwattr DW$T$176, DW_AT_language(DW_LANG_C)
    9292              DW$765  .dwtag  DW_TAG_formal_parameter, DW_AT_type(*DW$T$82)
    9293              DW$766  .dwtag  DW_TAG_formal_parameter, DW_AT_type(*DW$T$82)
    9294                      .dwendtag DW$T$176
    9295              
    9296              
    9297              DW$T$178        .dwtag  DW_TAG_subroutine_type, DW_AT_type(*DW$T$82)
    9298                      .dwattr DW$T$178, DW_AT_language(DW_LANG_C)
    9299              DW$767  .dwtag  DW_TAG_formal_parameter, DW_AT_type(*DW$T$82)
    9300              DW$768  .dwtag  DW_TAG_formal_parameter, DW_AT_type(*DW$T$82)
    9301              DW$769  .dwtag  DW_TAG_formal_parameter, DW_AT_type(*DW$T$82)
    9302                      .dwendtag DW$T$178
    9303              
    9304              
    9305              DW$T$179        .dwtag  DW_TAG_subroutine_type, DW_AT_type(*DW$T$82)
    9306                      .dwattr DW$T$179, DW_AT_language(DW_LANG_C)
    9307              DW$770  .dwtag  DW_TAG_formal_parameter, DW_AT_type(*DW$T$82)
    9308              DW$771  .dwtag  DW_TAG_formal_parameter, DW_AT_type(*DW$T$23)
    9309                      .dwendtag DW$T$179
    9310              
    9311              DW$T$180        .dwtag  DW_TAG_typedef, DW_AT_name("va_list"), DW_AT_type(*DW$T$82)
    9312                      .dwattr DW$T$180, DW_AT_language(DW_LANG_C)
    9313              DW$T$141        .dwtag  DW_TAG_pointer_type, DW_AT_type(*DW$T$140)
    9314                      .dwattr DW$T$141, DW_AT_address_class(0x16)
    9315              
    9316              DW$T$182        .dwtag  DW_TAG_subroutine_type, DW_AT_type(*DW$T$81)
    9317                      .dwattr DW$T$182, DW_AT_language(DW_LANG_C)
    9318              DW$772  .dwtag  DW_TAG_formal_parameter, DW_AT_type(*DW$T$6)
    9319                      .dwendtag DW$T$182
    9320              
    9321              
    9322              DW$T$183        .dwtag  DW_TAG_array_type, DW_AT_type(*DW$T$81)
    9323                      .dwattr DW$T$183, DW_AT_language(DW_LANG_C)
    9324                      .dwattr DW$T$183, DW_AT_byte_size(0x08)
    9325              DW$773  .dwtag  DW_TAG_subrange_type
    9326                      .dwattr DW$773, DW_AT_upper_bound(0x07)
TMS320C2000 COFF Assembler PC v4.1.3 Thu Aug 04 16:21:37 2011

Tools Copyright (c) 1996-2006 Texas Instruments Incorporated
C:\DOCUME~1\ADMINI~1\LOCALS~1\Temp\TI8402                            PAGE  177

    9327                      .dwendtag DW$T$183
    9328              
    9329              
    9330              DW$T$185        .dwtag  DW_TAG_array_type, DW_AT_type(*DW$T$81)
    9331                      .dwattr DW$T$185, DW_AT_language(DW_LANG_C)
    9332                      .dwattr DW$T$185, DW_AT_byte_size(0x10)
    9333              DW$774  .dwtag  DW_TAG_subrange_type
    9334                      .dwattr DW$774, DW_AT_upper_bound(0x0f)
    9335                      .dwendtag DW$T$185
    9336              
    9337              DW$775  .dwtag  DW_TAG_far_type
    9338              DW$T$51 .dwtag  DW_TAG_const_type
    9339                      .dwattr DW$T$51, DW_AT_type(*DW$775)
    9340              DW$T$64 .dwtag  DW_TAG_typedef, DW_AT_name("a_lock_t"), DW_AT_type(*DW$T$63)
    9341                      .dwattr DW$T$64, DW_AT_language(DW_LANG_C)
    9342              DW$T$69 .dwtag  DW_TAG_typedef, DW_AT_name("filtering_data_t"), DW_AT_type(*DW$T$24)
    9343                      .dwattr DW$T$69, DW_AT_language(DW_LANG_C)
    9344              DW$T$72 .dwtag  DW_TAG_typedef, DW_AT_name("fifo_tcb_t"), DW_AT_type(*DW$T$26)
    9345                      .dwattr DW$T$72, DW_AT_language(DW_LANG_C)
    9346              DW$T$87 .dwtag  DW_TAG_typedef, DW_AT_name("debounce_t"), DW_AT_type(*DW$T$31)
    9347                      .dwattr DW$T$87, DW_AT_language(DW_LANG_C)
    9348              DW$T$34 .dwtag  DW_TAG_typedef, DW_AT_name("link_list_t"), DW_AT_type(*DW$T$33)
    9349                      .dwattr DW$T$34, DW_AT_language(DW_LANG_C)
    9350              DW$T$42 .dwtag  DW_TAG_typedef, DW_AT_name("link_list_tcb_t"), DW_AT_type(*DW$T$36)
    9351                      .dwattr DW$T$42, DW_AT_language(DW_LANG_C)
    9352              DW$T$45 .dwtag  DW_TAG_typedef, DW_AT_name("tmr_member_t"), DW_AT_type(*DW$T$40)
    9353                      .dwattr DW$T$45, DW_AT_language(DW_LANG_C)
    9354              DW$T$48 .dwtag  DW_TAG_typedef, DW_AT_name("mem_ctl_t"), DW_AT_type(*DW$T$41)
    9355                      .dwattr DW$T$48, DW_AT_language(DW_LANG_C)
    9356              
    9357              DW$T$44 .dwtag  DW_TAG_structure_type
    9358                      .dwattr DW$T$44, DW_AT_byte_size(0x3e)
    9359              DW$776  .dwtag  DW_TAG_member, DW_AT_type(*DW$T$23)
    9360                      .dwattr DW$776, DW_AT_name("ture_size"), DW_AT_symbol_name("_ture_size")
    9361                      .dwattr DW$776, DW_AT_data_member_location[DW_OP_plus_uconst 0x0]
    9362                      .dwattr DW$776, DW_AT_accessibility(DW_ACCESS_public)
    9363              DW$777  .dwtag  DW_TAG_member, DW_AT_type(*DW$T$43)
    9364                      .dwattr DW$777, DW_AT_name("link_list_member"), DW_AT_symbol_name("_link_list_member")
    9365                      .dwattr DW$777, DW_AT_data_member_location[DW_OP_plus_uconst 0x2]
    9366                      .dwattr DW$777, DW_AT_accessibility(DW_ACCESS_public)
    9367                      .dwendtag DW$T$44
    9368              
    9369              
    9370              DW$T$47 .dwtag  DW_TAG_structure_type
    9371                      .dwattr DW$T$47, DW_AT_byte_size(0x98)
    9372              DW$778  .dwtag  DW_TAG_member, DW_AT_type(*DW$T$23)
    9373                      .dwattr DW$778, DW_AT_name("ture_size"), DW_AT_symbol_name("_ture_size")
    9374                      .dwattr DW$778, DW_AT_data_member_location[DW_OP_plus_uconst 0x0]
    9375                      .dwattr DW$778, DW_AT_accessibility(DW_ACCESS_public)
    9376              DW$779  .dwtag  DW_TAG_member, DW_AT_type(*DW$T$46)
    9377                      .dwattr DW$779, DW_AT_name("tmr_array"), DW_AT_symbol_name("_tmr_array")
    9378                      .dwattr DW$779, DW_AT_data_member_location[DW_OP_plus_uconst 0x2]
    9379                      .dwattr DW$779, DW_AT_accessibility(DW_ACCESS_public)
    9380                      .dwendtag DW$T$47
    9381              
TMS320C2000 COFF Assembler PC v4.1.3 Thu Aug 04 16:21:37 2011

Tools Copyright (c) 1996-2006 Texas Instruments Incorporated
C:\DOCUME~1\ADMINI~1\LOCALS~1\Temp\TI8402                            PAGE  178

    9382              
    9383              DW$T$50 .dwtag  DW_TAG_structure_type
    9384                      .dwattr DW$T$50, DW_AT_byte_size(0x0a)
    9385              DW$780  .dwtag  DW_TAG_member, DW_AT_type(*DW$T$23)
    9386                      .dwattr DW$780, DW_AT_name("real_size"), DW_AT_symbol_name("_real_size")
    9387                      .dwattr DW$780, DW_AT_data_member_location[DW_OP_plus_uconst 0x0]
    9388                      .dwattr DW$780, DW_AT_accessibility(DW_ACCESS_public)
    9389              DW$781  .dwtag  DW_TAG_member, DW_AT_type(*DW$T$49)
    9390                      .dwattr DW$781, DW_AT_name("mem_member"), DW_AT_symbol_name("_mem_member")
    9391                      .dwattr DW$781, DW_AT_data_member_location[DW_OP_plus_uconst 0x2]
    9392                      .dwattr DW$781, DW_AT_accessibility(DW_ACCESS_public)
    9393                      .dwendtag DW$T$50
    9394              
    9395              DW$782  .dwtag  DW_TAG_far_type
    9396                      .dwattr DW$782, DW_AT_type(*DW$T$81)
    9397              DW$T$140        .dwtag  DW_TAG_const_type
    9398                      .dwattr DW$T$140, DW_AT_type(*DW$782)
    9399              DW$T$63 .dwtag  DW_TAG_typedef, DW_AT_name("OS_EVENT"), DW_AT_type(*DW$T$22)
    9400                      .dwattr DW$T$63, DW_AT_language(DW_LANG_C)
    9401              
    9402              DW$T$24 .dwtag  DW_TAG_structure_type
    9403                      .dwattr DW$T$24, DW_AT_byte_size(0x0e)
    9404              DW$783  .dwtag  DW_TAG_member, DW_AT_type(*DW$T$3)
    9405                      .dwattr DW$783, DW_AT_name("buf"), DW_AT_symbol_name("_buf")
    9406                      .dwattr DW$783, DW_AT_data_member_location[DW_OP_plus_uconst 0x0]
    9407                      .dwattr DW$783, DW_AT_accessibility(DW_ACCESS_public)
    9408              DW$784  .dwtag  DW_TAG_member, DW_AT_type(*DW$T$23)
    9409                      .dwattr DW$784, DW_AT_name("buf_len"), DW_AT_symbol_name("_buf_len")
    9410                      .dwattr DW$784, DW_AT_data_member_location[DW_OP_plus_uconst 0x2]
    9411                      .dwattr DW$784, DW_AT_accessibility(DW_ACCESS_public)
    9412              DW$785  .dwtag  DW_TAG_member, DW_AT_type(*DW$T$6)
    9413                      .dwattr DW$785, DW_AT_name("data_type"), DW_AT_symbol_name("_data_type")
    9414                      .dwattr DW$785, DW_AT_data_member_location[DW_OP_plus_uconst 0x3]
    9415                      .dwattr DW$785, DW_AT_accessibility(DW_ACCESS_public)
    9416              DW$786  .dwtag  DW_TAG_member, DW_AT_type(*DW$T$23)
    9417                      .dwattr DW$786, DW_AT_name("times"), DW_AT_symbol_name("_times")
    9418                      .dwattr DW$786, DW_AT_data_member_location[DW_OP_plus_uconst 0x4]
    9419                      .dwattr DW$786, DW_AT_accessibility(DW_ACCESS_public)
    9420              DW$787  .dwtag  DW_TAG_member, DW_AT_type(*DW$T$23)
    9421                      .dwattr DW$787, DW_AT_name("times_cnt"), DW_AT_symbol_name("_times_cnt")
    9422                      .dwattr DW$787, DW_AT_data_member_location[DW_OP_plus_uconst 0x5]
    9423                      .dwattr DW$787, DW_AT_accessibility(DW_ACCESS_public)
    9424              DW$788  .dwtag  DW_TAG_member, DW_AT_type(*DW$T$23)
    9425                      .dwattr DW$788, DW_AT_name("data_cnt"), DW_AT_symbol_name("_data_cnt")
    9426                      .dwattr DW$788, DW_AT_data_member_location[DW_OP_plus_uconst 0x6]
    9427                      .dwattr DW$788, DW_AT_accessibility(DW_ACCESS_public)
    9428              DW$789  .dwtag  DW_TAG_member, DW_AT_type(*DW$T$16)
    9429                      .dwattr DW$789, DW_AT_name("err"), DW_AT_symbol_name("_err")
    9430                      .dwattr DW$789, DW_AT_data_member_location[DW_OP_plus_uconst 0x8]
    9431                      .dwattr DW$789, DW_AT_accessibility(DW_ACCESS_public)
    9432              DW$790  .dwtag  DW_TAG_member, DW_AT_type(*DW$T$23)
    9433                      .dwattr DW$790, DW_AT_name("start_pos"), DW_AT_symbol_name("_start_pos")
    9434                      .dwattr DW$790, DW_AT_data_member_location[DW_OP_plus_uconst 0xa]
    9435                      .dwattr DW$790, DW_AT_accessibility(DW_ACCESS_public)
    9436              DW$791  .dwtag  DW_TAG_member, DW_AT_type(*DW$T$23)
TMS320C2000 COFF Assembler PC v4.1.3 Thu Aug 04 16:21:37 2011

Tools Copyright (c) 1996-2006 Texas Instruments Incorporated
C:\DOCUME~1\ADMINI~1\LOCALS~1\Temp\TI8402                            PAGE  179

    9437                      .dwattr DW$791, DW_AT_name("end_pos"), DW_AT_symbol_name("_end_pos")
    9438                      .dwattr DW$791, DW_AT_data_member_location[DW_OP_plus_uconst 0xb]
    9439                      .dwattr DW$791, DW_AT_accessibility(DW_ACCESS_public)
    9440              DW$792  .dwtag  DW_TAG_member, DW_AT_type(*DW$T$16)
    9441                      .dwattr DW$792, DW_AT_name("average_data"), DW_AT_symbol_name("_average_data")
    9442                      .dwattr DW$792, DW_AT_data_member_location[DW_OP_plus_uconst 0xc]
    9443                      .dwattr DW$792, DW_AT_accessibility(DW_ACCESS_public)
    9444                      .dwendtag DW$T$24
    9445              
    9446              
    9447              DW$T$26 .dwtag  DW_TAG_structure_type
    9448                      .dwattr DW$T$26, DW_AT_byte_size(0x06)
    9449              DW$793  .dwtag  DW_TAG_member, DW_AT_type(*DW$T$23)
    9450                      .dwattr DW$793, DW_AT_name("start_pos"), DW_AT_symbol_name("_start_pos")
    9451                      .dwattr DW$793, DW_AT_data_member_location[DW_OP_plus_uconst 0x0]
    9452                      .dwattr DW$793, DW_AT_accessibility(DW_ACCESS_public)
    9453              DW$794  .dwtag  DW_TAG_member, DW_AT_type(*DW$T$23)
    9454                      .dwattr DW$794, DW_AT_name("end_pos"), DW_AT_symbol_name("_end_pos")
    9455                      .dwattr DW$794, DW_AT_data_member_location[DW_OP_plus_uconst 0x1]
    9456                      .dwattr DW$794, DW_AT_accessibility(DW_ACCESS_public)
    9457              DW$795  .dwtag  DW_TAG_member, DW_AT_type(*DW$T$23)
    9458                      .dwattr DW$795, DW_AT_name("buffer_size"), DW_AT_symbol_name("_buffer_size")
    9459                      .dwattr DW$795, DW_AT_data_member_location[DW_OP_plus_uconst 0x2]
    9460                      .dwattr DW$795, DW_AT_accessibility(DW_ACCESS_public)
    9461              DW$796  .dwtag  DW_TAG_member, DW_AT_type(*DW$T$25)
    9462                      .dwattr DW$796, DW_AT_name("buffer_ptr"), DW_AT_symbol_name("_buffer_ptr")
    9463                      .dwattr DW$796, DW_AT_data_member_location[DW_OP_plus_uconst 0x4]
    9464                      .dwattr DW$796, DW_AT_accessibility(DW_ACCESS_public)
    9465                      .dwendtag DW$T$26
    9466              
    9467              
    9468              DW$T$31 .dwtag  DW_TAG_structure_type
    9469                      .dwattr DW$T$31, DW_AT_byte_size(0x0a)
    9470              DW$797  .dwtag  DW_TAG_member, DW_AT_type(*DW$T$27)
    9471                      .dwattr DW$797, DW_AT_name("shadow_buf"), DW_AT_symbol_name("_shadow_buf")
    9472                      .dwattr DW$797, DW_AT_data_member_location[DW_OP_plus_uconst 0x0]
    9473                      .dwattr DW$797, DW_AT_accessibility(DW_ACCESS_public)
    9474              DW$798  .dwtag  DW_TAG_member, DW_AT_type(*DW$T$6)
    9475                      .dwattr DW$798, DW_AT_name("shadow_buf_size"), DW_AT_symbol_name("_shadow_buf_size")
    9476                      .dwattr DW$798, DW_AT_data_member_location[DW_OP_plus_uconst 0x4]
    9477                      .dwattr DW$798, DW_AT_accessibility(DW_ACCESS_public)
    9478              DW$799  .dwtag  DW_TAG_member, DW_AT_type(*DW$T$6)
    9479                      .dwattr DW$799, DW_AT_name("debounce_times_level"), DW_AT_symbol_name("_debounce_times_level")
    9480                      .dwattr DW$799, DW_AT_data_member_location[DW_OP_plus_uconst 0x5]
    9481                      .dwattr DW$799, DW_AT_accessibility(DW_ACCESS_public)
    9482              DW$800  .dwtag  DW_TAG_member, DW_AT_type(*DW$T$6)
    9483                      .dwattr DW$800, DW_AT_name("current_debounce_times"), DW_AT_symbol_name("_current_debounce_times")
    9484                      .dwattr DW$800, DW_AT_data_member_location[DW_OP_plus_uconst 0x6]
    9485                      .dwattr DW$800, DW_AT_accessibility(DW_ACCESS_public)
    9486              DW$801  .dwtag  DW_TAG_member, DW_AT_type(*DW$T$30)
    9487                      .dwattr DW$801, DW_AT_name("debounce_conditon"), DW_AT_symbol_name("_debounce_conditon")
    9488                      .dwattr DW$801, DW_AT_data_member_location[DW_OP_plus_uconst 0x8]
    9489                      .dwattr DW$801, DW_AT_accessibility(DW_ACCESS_public)
    9490                      .dwendtag DW$T$31
    9491              
TMS320C2000 COFF Assembler PC v4.1.3 Thu Aug 04 16:21:37 2011

Tools Copyright (c) 1996-2006 Texas Instruments Incorporated
C:\DOCUME~1\ADMINI~1\LOCALS~1\Temp\TI8402                            PAGE  180

    9492              
    9493              DW$T$33 .dwtag  DW_TAG_structure_type
    9494                      .dwattr DW$T$33, DW_AT_name("_link_list_t")
    9495                      .dwattr DW$T$33, DW_AT_byte_size(0x06)
    9496              DW$802  .dwtag  DW_TAG_member, DW_AT_type(*DW$T$32)
    9497                      .dwattr DW$802, DW_AT_name("last_member"), DW_AT_symbol_name("_last_member")
    9498                      .dwattr DW$802, DW_AT_data_member_location[DW_OP_plus_uconst 0x0]
    9499                      .dwattr DW$802, DW_AT_accessibility(DW_ACCESS_public)
    9500              DW$803  .dwtag  DW_TAG_member, DW_AT_type(*DW$T$3)
    9501                      .dwattr DW$803, DW_AT_name("cur_member"), DW_AT_symbol_name("_cur_member")
    9502                      .dwattr DW$803, DW_AT_data_member_location[DW_OP_plus_uconst 0x2]
    9503                      .dwattr DW$803, DW_AT_accessibility(DW_ACCESS_public)
    9504              DW$804  .dwtag  DW_TAG_member, DW_AT_type(*DW$T$32)
    9505                      .dwattr DW$804, DW_AT_name("next_member"), DW_AT_symbol_name("_next_member")
    9506                      .dwattr DW$804, DW_AT_data_member_location[DW_OP_plus_uconst 0x4]
    9507                      .dwattr DW$804, DW_AT_accessibility(DW_ACCESS_public)
    9508                      .dwendtag DW$T$33
    9509              
    9510              DW$T$32 .dwtag  DW_TAG_pointer_type, DW_AT_type(*DW$T$33)
    9511                      .dwattr DW$T$32, DW_AT_address_class(0x16)
    9512              
    9513              DW$T$36 .dwtag  DW_TAG_structure_type
    9514                      .dwattr DW$T$36, DW_AT_byte_size(0x06)
    9515              DW$805  .dwtag  DW_TAG_member, DW_AT_type(*DW$T$23)
    9516                      .dwattr DW$805, DW_AT_name("id"), DW_AT_symbol_name("_id")
    9517                      .dwattr DW$805, DW_AT_data_member_location[DW_OP_plus_uconst 0x0]
    9518                      .dwattr DW$805, DW_AT_accessibility(DW_ACCESS_public)
    9519              DW$806  .dwtag  DW_TAG_member, DW_AT_type(*DW$T$35)
    9520                      .dwattr DW$806, DW_AT_name("link_list_end"), DW_AT_symbol_name("_link_list_end")
    9521                      .dwattr DW$806, DW_AT_data_member_location[DW_OP_plus_uconst 0x2]
    9522                      .dwattr DW$806, DW_AT_accessibility(DW_ACCESS_public)
    9523              DW$807  .dwtag  DW_TAG_member, DW_AT_type(*DW$T$35)
    9524                      .dwattr DW$807, DW_AT_name("link_list_head"), DW_AT_symbol_name("_link_list_head")
    9525                      .dwattr DW$807, DW_AT_data_member_location[DW_OP_plus_uconst 0x4]
    9526                      .dwattr DW$807, DW_AT_accessibility(DW_ACCESS_public)
    9527                      .dwendtag DW$T$36
    9528              
    9529              
    9530              DW$T$43 .dwtag  DW_TAG_array_type, DW_AT_type(*DW$T$42)
    9531                      .dwattr DW$T$43, DW_AT_language(DW_LANG_C)
    9532                      .dwattr DW$T$43, DW_AT_byte_size(0x3c)
    9533              DW$808  .dwtag  DW_TAG_subrange_type
    9534                      .dwattr DW$808, DW_AT_upper_bound(0x09)
    9535                      .dwendtag DW$T$43
    9536              
    9537              
    9538              DW$T$40 .dwtag  DW_TAG_structure_type
    9539                      .dwattr DW$T$40, DW_AT_byte_size(0x0a)
    9540              DW$809  .dwtag  DW_TAG_member, DW_AT_type(*DW$T$39)
    9541                      .dwattr DW$809, DW_AT_name("function"), DW_AT_symbol_name("_function")
    9542                      .dwattr DW$809, DW_AT_data_member_location[DW_OP_plus_uconst 0x0]
    9543                      .dwattr DW$809, DW_AT_accessibility(DW_ACCESS_public)
    9544              DW$810  .dwtag  DW_TAG_member, DW_AT_type(*DW$T$13)
    9545                      .dwattr DW$810, DW_AT_name("expires"), DW_AT_symbol_name("_expires")
    9546                      .dwattr DW$810, DW_AT_data_member_location[DW_OP_plus_uconst 0x2]
TMS320C2000 COFF Assembler PC v4.1.3 Thu Aug 04 16:21:37 2011

Tools Copyright (c) 1996-2006 Texas Instruments Incorporated
C:\DOCUME~1\ADMINI~1\LOCALS~1\Temp\TI8402                            PAGE  181

    9547                      .dwattr DW$810, DW_AT_accessibility(DW_ACCESS_public)
    9548              DW$811  .dwtag  DW_TAG_member, DW_AT_type(*DW$T$23)
    9549                      .dwattr DW$811, DW_AT_name("tmr_state"), DW_AT_symbol_name("_tmr_state")
    9550                      .dwattr DW$811, DW_AT_data_member_location[DW_OP_plus_uconst 0x4]
    9551                      .dwattr DW$811, DW_AT_accessibility(DW_ACCESS_public)
    9552              DW$812  .dwtag  DW_TAG_member, DW_AT_type(*DW$T$23)
    9553                      .dwattr DW$812, DW_AT_name("type"), DW_AT_symbol_name("_type")
    9554                      .dwattr DW$812, DW_AT_data_member_location[DW_OP_plus_uconst 0x5]
    9555                      .dwattr DW$812, DW_AT_accessibility(DW_ACCESS_public)
    9556              DW$813  .dwtag  DW_TAG_member, DW_AT_type(*DW$T$13)
    9557                      .dwattr DW$813, DW_AT_name("auto_load_expires"), DW_AT_symbol_name("_auto_load_expires")
    9558                      .dwattr DW$813, DW_AT_data_member_location[DW_OP_plus_uconst 0x6]
    9559                      .dwattr DW$813, DW_AT_accessibility(DW_ACCESS_public)
    9560              DW$814  .dwtag  DW_TAG_member, DW_AT_type(*DW$T$3)
    9561                      .dwattr DW$814, DW_AT_name("p_arg"), DW_AT_symbol_name("_p_arg")
    9562                      .dwattr DW$814, DW_AT_data_member_location[DW_OP_plus_uconst 0x8]
    9563                      .dwattr DW$814, DW_AT_accessibility(DW_ACCESS_public)
    9564                      .dwendtag DW$T$40
    9565              
    9566              
    9567              DW$T$46 .dwtag  DW_TAG_array_type, DW_AT_type(*DW$T$45)
    9568                      .dwattr DW$T$46, DW_AT_language(DW_LANG_C)
    9569                      .dwattr DW$T$46, DW_AT_byte_size(0x96)
    9570              DW$815  .dwtag  DW_TAG_subrange_type
    9571                      .dwattr DW$815, DW_AT_upper_bound(0x0e)
    9572                      .dwendtag DW$T$46
    9573              
    9574              
    9575              DW$T$41 .dwtag  DW_TAG_structure_type
    9576                      .dwattr DW$T$41, DW_AT_byte_size(0x08)
    9577              DW$816  .dwtag  DW_TAG_member, DW_AT_type(*DW$T$6)
    9578                      .dwattr DW$816, DW_AT_name("occupy_flag"), DW_AT_symbol_name("_occupy_flag")
    9579                      .dwattr DW$816, DW_AT_data_member_location[DW_OP_plus_uconst 0x0]
    9580                      .dwattr DW$816, DW_AT_accessibility(DW_ACCESS_public)
    9581              DW$817  .dwtag  DW_TAG_member, DW_AT_type(*DW$T$25)
    9582                      .dwattr DW$817, DW_AT_name("parray"), DW_AT_symbol_name("_parray")
    9583                      .dwattr DW$817, DW_AT_data_member_location[DW_OP_plus_uconst 0x2]
    9584                      .dwattr DW$817, DW_AT_accessibility(DW_ACCESS_public)
    9585              DW$818  .dwtag  DW_TAG_member, DW_AT_type(*DW$T$25)
    9586                      .dwattr DW$818, DW_AT_name("pmem"), DW_AT_symbol_name("_pmem")
    9587                      .dwattr DW$818, DW_AT_data_member_location[DW_OP_plus_uconst 0x4]
    9588                      .dwattr DW$818, DW_AT_accessibility(DW_ACCESS_public)
    9589              DW$819  .dwtag  DW_TAG_member, DW_AT_type(*DW$T$23)
    9590                      .dwattr DW$819, DW_AT_name("blk_size"), DW_AT_symbol_name("_blk_size")
    9591                      .dwattr DW$819, DW_AT_data_member_location[DW_OP_plus_uconst 0x6]
    9592                      .dwattr DW$819, DW_AT_accessibility(DW_ACCESS_public)
    9593              DW$820  .dwtag  DW_TAG_member, DW_AT_type(*DW$T$23)
    9594                      .dwattr DW$820, DW_AT_name("blk_num"), DW_AT_symbol_name("_blk_num")
    9595                      .dwattr DW$820, DW_AT_data_member_location[DW_OP_plus_uconst 0x7]
    9596                      .dwattr DW$820, DW_AT_accessibility(DW_ACCESS_public)
    9597                      .dwendtag DW$T$41
    9598              
    9599              
    9600              DW$T$49 .dwtag  DW_TAG_array_type, DW_AT_type(*DW$T$48)
    9601                      .dwattr DW$T$49, DW_AT_language(DW_LANG_C)
TMS320C2000 COFF Assembler PC v4.1.3 Thu Aug 04 16:21:37 2011

Tools Copyright (c) 1996-2006 Texas Instruments Incorporated
C:\DOCUME~1\ADMINI~1\LOCALS~1\Temp\TI8402                            PAGE  182

    9602                      .dwattr DW$T$49, DW_AT_byte_size(0x08)
    9603              DW$821  .dwtag  DW_TAG_subrange_type
    9604                      .dwattr DW$821, DW_AT_upper_bound(0x00)
    9605                      .dwendtag DW$T$49
    9606              
    9607              
    9608              DW$T$27 .dwtag  DW_TAG_array_type, DW_AT_type(*DW$T$6)
    9609                      .dwattr DW$T$27, DW_AT_language(DW_LANG_C)
    9610                      .dwattr DW$T$27, DW_AT_byte_size(0x04)
    9611              DW$822  .dwtag  DW_TAG_subrange_type
    9612                      .dwattr DW$822, DW_AT_upper_bound(0x03)
    9613                      .dwendtag DW$T$27
    9614              
    9615              DW$T$30 .dwtag  DW_TAG_typedef, DW_AT_name("debounce_conditon_function_t"), DW_AT_type(*DW$T$29)
    9616                      .dwattr DW$T$30, DW_AT_language(DW_LANG_C)
    9617              
    9618              DW$T$22 .dwtag  DW_TAG_structure_type
    9619                      .dwattr DW$T$22, DW_AT_name("os_event")
    9620                      .dwattr DW$T$22, DW_AT_byte_size(0x0e)
    9621              DW$823  .dwtag  DW_TAG_member, DW_AT_type(*DW$T$19)
    9622                      .dwattr DW$823, DW_AT_name("OSEventType"), DW_AT_symbol_name("_OSEventType")
    9623                      .dwattr DW$823, DW_AT_data_member_location[DW_OP_plus_uconst 0x0]
    9624                      .dwattr DW$823, DW_AT_accessibility(DW_ACCESS_public)
    9625              DW$824  .dwtag  DW_TAG_member, DW_AT_type(*DW$T$3)
    9626                      .dwattr DW$824, DW_AT_name("OSEventPtr"), DW_AT_symbol_name("_OSEventPtr")
    9627                      .dwattr DW$824, DW_AT_data_member_location[DW_OP_plus_uconst 0x2]
    9628                      .dwattr DW$824, DW_AT_accessibility(DW_ACCESS_public)
    9629              DW$825  .dwtag  DW_TAG_member, DW_AT_type(*DW$T$20)
    9630                      .dwattr DW$825, DW_AT_name("OSEventCnt"), DW_AT_symbol_name("_OSEventCnt")
    9631                      .dwattr DW$825, DW_AT_data_member_location[DW_OP_plus_uconst 0x4]
    9632                      .dwattr DW$825, DW_AT_accessibility(DW_ACCESS_public)
    9633              DW$826  .dwtag  DW_TAG_member, DW_AT_type(*DW$T$19)
    9634                      .dwattr DW$826, DW_AT_name("OSEventGrp"), DW_AT_symbol_name("_OSEventGrp")
    9635                      .dwattr DW$826, DW_AT_data_member_location[DW_OP_plus_uconst 0x5]
    9636                      .dwattr DW$826, DW_AT_accessibility(DW_ACCESS_public)
    9637              DW$827  .dwtag  DW_TAG_member, DW_AT_type(*DW$T$21)
    9638                      .dwattr DW$827, DW_AT_name("OSEventTbl"), DW_AT_symbol_name("_OSEventTbl")
    9639                      .dwattr DW$827, DW_AT_data_member_location[DW_OP_plus_uconst 0x6]
    9640                      .dwattr DW$827, DW_AT_accessibility(DW_ACCESS_public)
    9641                      .dwendtag DW$T$22
    9642              
    9643              DW$T$19 .dwtag  DW_TAG_typedef, DW_AT_name("INT8U"), DW_AT_type(*DW$T$6)
    9644                      .dwattr DW$T$19, DW_AT_language(DW_LANG_C)
    9645              
    9646              DW$T$21 .dwtag  DW_TAG_array_type, DW_AT_type(*DW$T$19)
    9647                      .dwattr DW$T$21, DW_AT_language(DW_LANG_C)
    9648                      .dwattr DW$T$21, DW_AT_byte_size(0x08)
    9649              DW$828  .dwtag  DW_TAG_subrange_type
    9650                      .dwattr DW$828, DW_AT_upper_bound(0x07)
    9651                      .dwendtag DW$T$21
    9652              
    9653              DW$T$29 .dwtag  DW_TAG_pointer_type, DW_AT_type(*DW$T$28)
    9654                      .dwattr DW$T$29, DW_AT_address_class(0x16)
    9655              
    9656              DW$T$28 .dwtag  DW_TAG_subroutine_type, DW_AT_type(*DW$T$6)
TMS320C2000 COFF Assembler PC v4.1.3 Thu Aug 04 16:21:37 2011

Tools Copyright (c) 1996-2006 Texas Instruments Incorporated
C:\DOCUME~1\ADMINI~1\LOCALS~1\Temp\TI8402                            PAGE  183

    9657                      .dwattr DW$T$28, DW_AT_language(DW_LANG_C)
    9658              DW$829  .dwtag  DW_TAG_formal_parameter, DW_AT_type(*DW$T$25)
    9659              DW$830  .dwtag  DW_TAG_formal_parameter, DW_AT_type(*DW$T$25)
    9660                      .dwendtag DW$T$28
    9661              
    9662              
    9663                      .dwattr DW$606, DW_AT_external(0x01)
    9664                      .dwattr DW$600, DW_AT_external(0x01)
    9665                      .dwattr DW$600, DW_AT_type(*DW$T$3)
    9666                      .dwattr DW$613, DW_AT_external(0x01)
    9667                      .dwattr DW$333, DW_AT_external(0x01)
    9668                      .dwattr DW$134, DW_AT_external(0x01)
    9669                      .dwattr DW$131, DW_AT_external(0x01)
    9670                      .dwattr DW$131, DW_AT_type(*DW$T$23)
    9671                      .dwattr DW$97, DW_AT_external(0x01)
    9672                      .dwattr DW$121, DW_AT_external(0x01)
    9673                      .dwattr DW$109, DW_AT_external(0x01)
    9674                      .dwattr DW$104, DW_AT_external(0x01)
    9675                      .dwattr DW$104, DW_AT_type(*DW$T$23)
    9676                      .dwattr DW$389, DW_AT_external(0x01)
    9677                      .dwattr DW$389, DW_AT_type(*DW$T$82)
    9678                      .dwattr DW$344, DW_AT_external(0x01)
    9679                      .dwattr DW$344, DW_AT_type(*DW$T$6)
    9680                      .dwattr DW$341, DW_AT_external(0x01)
    9681                      .dwattr DW$341, DW_AT_type(*DW$T$81)
    9682                      .dwattr DW$359, DW_AT_external(0x01)
    9683                      .dwattr DW$359, DW_AT_type(*DW$T$6)
    9684                      .dwattr DW$263, DW_AT_external(0x01)
    9685                      .dwattr DW$263, DW_AT_type(*DW$T$16)
    9686                      .dwattr DW$260, DW_AT_external(0x01)
    9687                      .dwattr DW$260, DW_AT_type(*DW$T$12)
    9688                      .dwattr DW$290, DW_AT_external(0x01)
    9689                      .dwattr DW$290, DW_AT_type(*DW$T$115)
    9690                      .dwattr DW$285, DW_AT_external(0x01)
    9691                      .dwattr DW$350, DW_AT_external(0x01)
    9692                      .dwattr DW$350, DW_AT_type(*DW$T$23)
    9693                      .dwattr DW$347, DW_AT_external(0x01)
    9694                      .dwattr DW$347, DW_AT_type(*DW$T$115)
    9695                      .dwattr DW$364, DW_AT_external(0x01)
    9696                      .dwattr DW$239, DW_AT_external(0x01)
    9697                      .dwattr DW$239, DW_AT_type(*DW$T$23)
    9698                      .dwattr DW$221, DW_AT_external(0x01)
    9699                      .dwattr DW$221, DW_AT_type(*DW$T$23)
    9700                      .dwattr DW$230, DW_AT_external(0x01)
    9701                      .dwattr DW$230, DW_AT_type(*DW$T$23)
    9702                      .dwattr DW$151, DW_AT_external(0x01)
    9703                      .dwattr DW$151, DW_AT_type(*DW$T$115)
    9704                      .dwattr DW$137, DW_AT_external(0x01)
    9705                      .dwattr DW$144, DW_AT_external(0x01)
    9706                      .dwattr DW$371, DW_AT_external(0x01)
    9707                      .dwattr DW$371, DW_AT_type(*DW$T$16)
    9708                      .dwattr DW$403, DW_AT_external(0x01)
    9709                      .dwattr DW$403, DW_AT_type(*DW$T$10)
    9710                      .dwattr DW$162, DW_AT_external(0x01)
    9711                      .dwattr DW$167, DW_AT_external(0x01)
TMS320C2000 COFF Assembler PC v4.1.3 Thu Aug 04 16:21:37 2011

Tools Copyright (c) 1996-2006 Texas Instruments Incorporated
C:\DOCUME~1\ADMINI~1\LOCALS~1\Temp\TI8402                            PAGE  184

    9712                      .dwattr DW$167, DW_AT_type(*DW$T$82)
    9713                      .dwattr DW$376, DW_AT_external(0x01)
    9714                      .dwattr DW$183, DW_AT_external(0x01)
    9715                      .dwattr DW$183, DW_AT_type(*DW$T$23)
    9716                      .dwattr DW$196, DW_AT_external(0x01)
    9717                      .dwattr DW$196, DW_AT_type(*DW$T$82)
    9718                      .dwattr DW$172, DW_AT_external(0x01)
    9719                      .dwattr DW$172, DW_AT_type(*DW$T$82)
    9720                      .dwattr DW$211, DW_AT_external(0x01)
    9721                      .dwattr DW$159, DW_AT_external(0x01)
    9722                      .dwattr DW$159, DW_AT_type(*DW$T$23)
    9723                      .dwattr DW$295, DW_AT_external(0x01)
    9724                      .dwattr DW$295, DW_AT_type(*DW$T$23)
    9725                      .dwattr DW$354, DW_AT_external(0x01)
    9726                      .dwattr DW$354, DW_AT_type(*DW$T$6)
    9727                      .dwattr DW$315, DW_AT_external(0x01)
    9728                      .dwattr DW$325, DW_AT_external(0x01)
    9729                      .dwattr DW$482, DW_AT_type(*DW$T$35)
    9730                      .dwattr DW$487, DW_AT_type(*DW$T$115)
    9731                      .dwattr DW$454, DW_AT_external(0x01)
    9732                      .dwattr DW$456, DW_AT_external(0x01)
    9733                      .dwattr DW$539, DW_AT_external(0x01)
    9734                      .dwattr DW$517, DW_AT_external(0x01)
    9735                      .dwattr DW$517, DW_AT_type(*DW$T$115)
    9736                      .dwattr DW$470, DW_AT_type(*DW$T$35)
    9737                      .dwattr DW$526, DW_AT_external(0x01)
    9738                      .dwattr DW$526, DW_AT_type(*DW$T$35)
    9739                      .dwattr DW$534, DW_AT_external(0x01)
    9740                      .dwattr DW$502, DW_AT_external(0x01)
    9741                      .dwattr DW$502, DW_AT_type(*DW$T$23)
    9742                      .dwattr DW$463, DW_AT_external(0x01)
    9743                      .dwattr DW$463, DW_AT_type(*DW$T$115)
    9744                      .dwattr DW$457, DW_AT_external(0x01)
    9745                      .dwattr DW$457, DW_AT_type(*DW$T$101)
    9746                      .dwattr DW$455, DW_AT_external(0x01)
    9747                      .dwattr DW$614, DW_AT_external(0x01)
    9748                      .dwattr DW$614, DW_AT_type(*DW$T$197)
    9749                      .dwattr DW$628, DW_AT_external(0x01)
    9750                      .dwattr DW$51, DW_AT_external(0x01)
    9751                      .dwattr DW$51, DW_AT_type(*DW$T$3)
    9752                      .dwattr DW$69, DW_AT_external(0x01)
    9753                      .dwattr DW$76, DW_AT_external(0x01)
    9754                      .dwattr DW$86, DW_AT_external(0x01)
    9755                      .dwattr DW$86, DW_AT_type(*DW$T$16)
    9756                      .dwattr DW$540, DW_AT_external(0x01)
    9757                      .dwattr DW$542, DW_AT_external(0x01)
    9758                      .dwattr DW$576, DW_AT_external(0x01)
    9759                      .dwattr DW$599, DW_AT_external(0x01)
    9760                      .dwattr DW$541, DW_AT_external(0x01)
    9761                      .dwattr DW$575, DW_AT_external(0x01)
    9762                      .dwattr DW$543, DW_AT_external(0x01)
    9763                      .dwattr DW$543, DW_AT_type(*DW$T$108)
    9764                      .dwattr DW$565, DW_AT_external(0x01)
    9765                      .dwattr DW$556, DW_AT_external(0x01)
    9766                      .dwattr DW$570, DW_AT_external(0x01)
TMS320C2000 COFF Assembler PC v4.1.3 Thu Aug 04 16:21:37 2011

Tools Copyright (c) 1996-2006 Texas Instruments Incorporated
C:\DOCUME~1\ADMINI~1\LOCALS~1\Temp\TI8402                            PAGE  185

    9767                      .dwattr DW$CU, DW_AT_language(DW_LANG_C)
    9768              
    9769              ;***************************************************************
    9770              ;* DWARF CIE ENTRIES                                           *
    9771              ;***************************************************************
    9772              
    9773              DW$CIE  .dwcie 1, 40
    9774                      .dwcfa  0x0c, 20, 0
    9775                      .dwcfa  0x07, 0
    9776                      .dwcfa  0x07, 1
    9777                      .dwcfa  0x07, 2
    9778                      .dwcfa  0x07, 3
    9779                      .dwcfa  0x07, 4
    9780                      .dwcfa  0x07, 5
    9781                      .dwcfa  0x08, 6
    9782                      .dwcfa  0x08, 7
    9783                      .dwcfa  0x08, 8
    9784                      .dwcfa  0x08, 9
    9785                      .dwcfa  0x08, 10
    9786                      .dwcfa  0x08, 11
    9787                      .dwcfa  0x07, 12
    9788                      .dwcfa  0x07, 13
    9789                      .dwcfa  0x07, 14
    9790                      .dwcfa  0x07, 15
    9791                      .dwcfa  0x07, 16
    9792                      .dwcfa  0x07, 17
    9793                      .dwcfa  0x07, 18
    9794                      .dwcfa  0x07, 19
    9795                      .dwcfa  0x07, 20
    9796                      .dwcfa  0x07, 21
    9797                      .dwcfa  0x07, 22
    9798                      .dwcfa  0x07, 23
    9799                      .dwcfa  0x07, 24
    9800                      .dwcfa  0x07, 25
    9801                      .dwcfa  0x07, 26
    9802                      .dwcfa  0x08, 27
    9803                      .dwcfa  0x07, 28
    9804                      .dwcfa  0x07, 29
    9805                      .dwcfa  0x07, 30
    9806                      .dwcfa  0x07, 31
    9807                      .dwcfa  0x07, 32
    9808                      .dwcfa  0x07, 33
    9809                      .dwcfa  0x07, 34
    9810                      .dwcfa  0x07, 35
    9811                      .dwcfa  0x07, 36
    9812                      .dwcfa  0x07, 37
    9813                      .dwcfa  0x07, 38
    9814                      .dwcfa  0x07, 39
    9815                      .dwcfa  0x07, 40
    9816              
    9817              ;***************************************************************
    9818              ;* DWARF REGISTER MAP                                          *
    9819              ;***************************************************************
    9820              
    9821              DW$831  .dwtag  DW_TAG_assign_register, DW_AT_name("AL")
TMS320C2000 COFF Assembler PC v4.1.3 Thu Aug 04 16:21:37 2011

Tools Copyright (c) 1996-2006 Texas Instruments Incorporated
C:\DOCUME~1\ADMINI~1\LOCALS~1\Temp\TI8402                            PAGE  186

    9822                      .dwattr DW$831, DW_AT_location[DW_OP_reg0]
    9823              DW$832  .dwtag  DW_TAG_assign_register, DW_AT_name("AH")
    9824                      .dwattr DW$832, DW_AT_location[DW_OP_reg1]
    9825              DW$833  .dwtag  DW_TAG_assign_register, DW_AT_name("PL")
    9826                      .dwattr DW$833, DW_AT_location[DW_OP_reg2]
    9827              DW$834  .dwtag  DW_TAG_assign_register, DW_AT_name("PH")
    9828                      .dwattr DW$834, DW_AT_location[DW_OP_reg3]
    9829              DW$835  .dwtag  DW_TAG_assign_register, DW_AT_name("AR0")
    9830                      .dwattr DW$835, DW_AT_location[DW_OP_reg4]
    9831              DW$836  .dwtag  DW_TAG_assign_register, DW_AT_name("XAR0")
    9832                      .dwattr DW$836, DW_AT_location[DW_OP_reg5]
    9833              DW$837  .dwtag  DW_TAG_assign_register, DW_AT_name("AR1")
    9834                      .dwattr DW$837, DW_AT_location[DW_OP_reg6]
    9835              DW$838  .dwtag  DW_TAG_assign_register, DW_AT_name("XAR1")
    9836                      .dwattr DW$838, DW_AT_location[DW_OP_reg7]
    9837              DW$839  .dwtag  DW_TAG_assign_register, DW_AT_name("AR2")
    9838                      .dwattr DW$839, DW_AT_location[DW_OP_reg8]
    9839              DW$840  .dwtag  DW_TAG_assign_register, DW_AT_name("XAR2")
    9840                      .dwattr DW$840, DW_AT_location[DW_OP_reg9]
    9841              DW$841  .dwtag  DW_TAG_assign_register, DW_AT_name("AR3")
    9842                      .dwattr DW$841, DW_AT_location[DW_OP_reg10]
    9843              DW$842  .dwtag  DW_TAG_assign_register, DW_AT_name("XAR3")
    9844                      .dwattr DW$842, DW_AT_location[DW_OP_reg11]
    9845              DW$843  .dwtag  DW_TAG_assign_register, DW_AT_name("AR4")
    9846                      .dwattr DW$843, DW_AT_location[DW_OP_reg12]
    9847              DW$844  .dwtag  DW_TAG_assign_register, DW_AT_name("XAR4")
    9848                      .dwattr DW$844, DW_AT_location[DW_OP_reg13]
    9849              DW$845  .dwtag  DW_TAG_assign_register, DW_AT_name("AR5")
    9850                      .dwattr DW$845, DW_AT_location[DW_OP_reg14]
    9851              DW$846  .dwtag  DW_TAG_assign_register, DW_AT_name("XAR5")
    9852                      .dwattr DW$846, DW_AT_location[DW_OP_reg15]
    9853              DW$847  .dwtag  DW_TAG_assign_register, DW_AT_name("AR6")
    9854                      .dwattr DW$847, DW_AT_location[DW_OP_reg16]
    9855              DW$848  .dwtag  DW_TAG_assign_register, DW_AT_name("XAR6")
    9856                      .dwattr DW$848, DW_AT_location[DW_OP_reg17]
    9857              DW$849  .dwtag  DW_TAG_assign_register, DW_AT_name("AR7")
    9858                      .dwattr DW$849, DW_AT_location[DW_OP_reg18]
    9859              DW$850  .dwtag  DW_TAG_assign_register, DW_AT_name("XAR7")
    9860                      .dwattr DW$850, DW_AT_location[DW_OP_reg19]
    9861              DW$851  .dwtag  DW_TAG_assign_register, DW_AT_name("SP")
    9862                      .dwattr DW$851, DW_AT_location[DW_OP_reg20]
    9863              DW$852  .dwtag  DW_TAG_assign_register, DW_AT_name("XT")
    9864                      .dwattr DW$852, DW_AT_location[DW_OP_reg21]
    9865              DW$853  .dwtag  DW_TAG_assign_register, DW_AT_name("T")
    9866                      .dwattr DW$853, DW_AT_location[DW_OP_reg22]
    9867              DW$854  .dwtag  DW_TAG_assign_register, DW_AT_name("ST0")
    9868                      .dwattr DW$854, DW_AT_location[DW_OP_reg23]
    9869              DW$855  .dwtag  DW_TAG_assign_register, DW_AT_name("ST1")
    9870                      .dwattr DW$855, DW_AT_location[DW_OP_reg24]
    9871              DW$856  .dwtag  DW_TAG_assign_register, DW_AT_name("PC")
    9872                      .dwattr DW$856, DW_AT_location[DW_OP_reg25]
    9873              DW$857  .dwtag  DW_TAG_assign_register, DW_AT_name("RPC")
    9874                      .dwattr DW$857, DW_AT_location[DW_OP_reg26]
    9875              DW$858  .dwtag  DW_TAG_assign_register, DW_AT_name("FP")
    9876                      .dwattr DW$858, DW_AT_location[DW_OP_reg27]
TMS320C2000 COFF Assembler PC v4.1.3 Thu Aug 04 16:21:37 2011

Tools Copyright (c) 1996-2006 Texas Instruments Incorporated
C:\DOCUME~1\ADMINI~1\LOCALS~1\Temp\TI8402                            PAGE  187

    9877              DW$859  .dwtag  DW_TAG_assign_register, DW_AT_name("DP")
    9878                      .dwattr DW$859, DW_AT_location[DW_OP_reg28]
    9879              DW$860  .dwtag  DW_TAG_assign_register, DW_AT_name("SXM")
    9880                      .dwattr DW$860, DW_AT_location[DW_OP_reg29]
    9881              DW$861  .dwtag  DW_TAG_assign_register, DW_AT_name("PM")
    9882                      .dwattr DW$861, DW_AT_location[DW_OP_reg30]
    9883              DW$862  .dwtag  DW_TAG_assign_register, DW_AT_name("OVM")
    9884                      .dwattr DW$862, DW_AT_location[DW_OP_reg31]
    9885              DW$863  .dwtag  DW_TAG_assign_register, DW_AT_name("PAGE0")
    9886                      .dwattr DW$863, DW_AT_location[DW_OP_regx 0x20]
    9887              DW$864  .dwtag  DW_TAG_assign_register, DW_AT_name("AMODE")
    9888                      .dwattr DW$864, DW_AT_location[DW_OP_regx 0x21]
    9889              DW$865  .dwtag  DW_TAG_assign_register, DW_AT_name("IFR")
    9890                      .dwattr DW$865, DW_AT_location[DW_OP_regx 0x22]
    9891              DW$866  .dwtag  DW_TAG_assign_register, DW_AT_name("IER")
    9892                      .dwattr DW$866, DW_AT_location[DW_OP_regx 0x23]
    9893              DW$867  .dwtag  DW_TAG_assign_register, DW_AT_name("IER")
    9894                      .dwattr DW$867, DW_AT_location[DW_OP_regx 0x24]
    9895              DW$868  .dwtag  DW_TAG_assign_register, DW_AT_name("PSEUDO")
    9896                      .dwattr DW$868, DW_AT_location[DW_OP_regx 0x25]
    9897              DW$869  .dwtag  DW_TAG_assign_register, DW_AT_name("PSEUDOH")
    9898                      .dwattr DW$869, DW_AT_location[DW_OP_regx 0x26]
    9899              DW$870  .dwtag  DW_TAG_assign_register, DW_AT_name("VOL")
    9900                      .dwattr DW$870, DW_AT_location[DW_OP_regx 0x27]
    9901              DW$871  .dwtag  DW_TAG_assign_register, DW_AT_name("CIE_RETA")
    9902                      .dwattr DW$871, DW_AT_location[DW_OP_regx 0x28]
    9903                      .dwendtag DW$CU
    9904              

No Assembly Errors, No Assembly Warnings
