TMS320C2000 COFF Assembler PC v4.1.3 Fri Sep 10 14:13:16 2010

Tools Copyright (c) 1996-2006 Texas Instruments Incorporated
C:\DOCUME~1\ADMINI~1\LOCALS~1\Temp\TI0163                            PAGE    1

       1              ;***************************************************************
       2              ;* TMS320C2000 C/C++ Codegen                         PC v4.1.3 *
       3              ;* Date/Time created: Fri Sep 10 14:13:16 2010                 *
       4              ;***************************************************************
       5                      .compiler_opts --mem_model:code=flat --mem_model:data=large --silicon_version=28 
       6        0002  FP      .set    XAR2
       7              
       8              DW$CU   .dwtag  DW_TAG_compile_unit
       9                      .dwattr DW$CU, DW_AT_name("ucshell.c")
      10                      .dwattr DW$CU, DW_AT_producer("TMS320C2000 C/C++ Codegen PC v4.1.3 Copyright (c) 1996-2006 Texas Inst
      11                      .dwattr DW$CU, DW_AT_stmt_list(0x00)
      12                      .dwattr DW$CU, DW_AT_TI_VERSION(0x01)
      13              ;**************************************************************
      14              ;* CINIT RECORDS                                              *
      15              ;**************************************************************
      16 00000000               .sect   ".cinit"
      17                      .align  1
      18 00000000 FFFF          .field          -IR_1,16
      19 00000001 0000-         .field          _m_ucshell_flag+0,32
         00000002 0000 
      20 00000003 0000          .field          0,16                    ; _m_ucshell_flag._all_bit @ 0
      21        0001  IR_1:   .set    1
      22              
      23 00000004               .sect   ".cinit"
      24                      .align  1
      25 00000004 FFFF          .field          -1,16
      26 00000005 0001-         .field          _m_ucshell_cmd_task_pro+0,32
         00000006 0000 
      27 00000007 00BE          .field          190,16                  ; _m_ucshell_cmd_task_pro @ 0
      28              
      29 00000008               .sect   ".cinit"
      30                      .align  1
      31 00000008 FFFF          .field          -1,16
      32 00000009 0002-         .field          _m_max_cpu_usage+0,32
         0000000a 0000 
      33 0000000b 0000          .field          0,16                    ; _m_max_cpu_usage @ 0
      34              
      35 0000000c               .sect   ".cinit"
      36                      .align  1
      37 0000000c FFFE          .field          -2,16
      38 0000000d 0004-         .field          _m_ucshell_lock+0,32
         0000000e 0000 
      39 0000000f 0000          .field          0,32                    ; _m_ucshell_lock @ 0
         00000010 0000 
      40              
      41              
      42              DW$1    .dwtag  DW_TAG_subprogram, DW_AT_name("app_module_maneger_exit"), DW_AT_symbol_name("_app_module_mane
      43                      .dwattr DW$1, DW_AT_declaration(0x01)
      44                      .dwattr DW$1, DW_AT_external(0x01)
      45              DW$2    .dwtag  DW_TAG_formal_parameter, DW_AT_type(*DW$T$32)
      46                      .dwendtag DW$1
      47              
      48              
      49              DW$3    .dwtag  DW_TAG_subprogram, DW_AT_name("OSTimeDly"), DW_AT_symbol_name("_OSTimeDly")
      50                      .dwattr DW$3, DW_AT_declaration(0x01)
TMS320C2000 COFF Assembler PC v4.1.3 Fri Sep 10 14:13:16 2010

Tools Copyright (c) 1996-2006 Texas Instruments Incorporated
C:\DOCUME~1\ADMINI~1\LOCALS~1\Temp\TI0163                            PAGE    2

      51                      .dwattr DW$3, DW_AT_external(0x01)
      52              DW$4    .dwtag  DW_TAG_formal_parameter, DW_AT_type(*DW$T$20)
      53                      .dwendtag DW$3
      54              
      55              
      56              DW$5    .dwtag  DW_TAG_subprogram, DW_AT_name("my_memset"), DW_AT_symbol_name("_my_memset")
      57                      .dwattr DW$5, DW_AT_declaration(0x01)
      58                      .dwattr DW$5, DW_AT_external(0x01)
      59              DW$6    .dwtag  DW_TAG_formal_parameter, DW_AT_type(*DW$T$33)
      60              DW$7    .dwtag  DW_TAG_formal_parameter, DW_AT_type(*DW$T$25)
      61              DW$8    .dwtag  DW_TAG_formal_parameter, DW_AT_type(*DW$T$27)
      62                      .dwendtag DW$5
      63              
      64              
      65              DW$9    .dwtag  DW_TAG_subprogram, DW_AT_name("os_unlock"), DW_AT_symbol_name("_os_unlock")
      66                      .dwattr DW$9, DW_AT_declaration(0x01)
      67                      .dwattr DW$9, DW_AT_external(0x01)
      68              DW$10   .dwtag  DW_TAG_formal_parameter, DW_AT_type(*DW$T$60)
      69                      .dwendtag DW$9
      70              
      71              
      72              DW$11   .dwtag  DW_TAG_subprogram, DW_AT_name("log_printf"), DW_AT_symbol_name("_log_printf")
      73                      .dwattr DW$11, DW_AT_declaration(0x01)
      74                      .dwattr DW$11, DW_AT_external(0x01)
      75              DW$12   .dwtag  DW_TAG_formal_parameter, DW_AT_type(*DW$T$50)
      76              DW$13   .dwtag  DW_TAG_formal_parameter, DW_AT_type(*DW$T$65)
      77                      .dwendtag DW$11
      78              
      79              
      80              DW$14   .dwtag  DW_TAG_subprogram, DW_AT_name("os_lock"), DW_AT_symbol_name("_os_lock")
      81                      .dwattr DW$14, DW_AT_declaration(0x01)
      82                      .dwattr DW$14, DW_AT_external(0x01)
      83              DW$15   .dwtag  DW_TAG_formal_parameter, DW_AT_type(*DW$T$60)
      84                      .dwendtag DW$14
      85              
      86              
      87              DW$16   .dwtag  DW_TAG_subprogram, DW_AT_name("atoi"), DW_AT_symbol_name("_atoi")
      88                      .dwattr DW$16, DW_AT_type(*DW$T$10)
      89                      .dwattr DW$16, DW_AT_declaration(0x01)
      90                      .dwattr DW$16, DW_AT_external(0x01)
      91              DW$17   .dwtag  DW_TAG_formal_parameter, DW_AT_type(*DW$T$85)
      92                      .dwendtag DW$16
      93              
      94              
      95              DW$18   .dwtag  DW_TAG_subprogram, DW_AT_name("my_memcp"), DW_AT_symbol_name("_my_memcp")
      96                      .dwattr DW$18, DW_AT_type(*DW$T$88)
      97                      .dwattr DW$18, DW_AT_declaration(0x01)
      98                      .dwattr DW$18, DW_AT_external(0x01)
      99              DW$19   .dwtag  DW_TAG_formal_parameter, DW_AT_type(*DW$T$33)
     100              DW$20   .dwtag  DW_TAG_formal_parameter, DW_AT_type(*DW$T$33)
     101              DW$21   .dwtag  DW_TAG_formal_parameter, DW_AT_type(*DW$T$27)
     102                      .dwendtag DW$18
     103              
     104                      .global _m_ucshell_flag
     105 00000000       _m_ucshell_flag:        .usect  ".ebss",1,1,0
TMS320C2000 COFF Assembler PC v4.1.3 Fri Sep 10 14:13:16 2010

Tools Copyright (c) 1996-2006 Texas Instruments Incorporated
C:\DOCUME~1\ADMINI~1\LOCALS~1\Temp\TI0163                            PAGE    3

     106              DW$22   .dwtag  DW_TAG_variable, DW_AT_name("m_ucshell_flag"), DW_AT_symbol_name("_m_ucshell_flag")
     107                      .dwattr DW$22, DW_AT_location[DW_OP_addr _m_ucshell_flag]
     108                      .dwattr DW$22, DW_AT_type(*DW$T$105)
     109                      .dwattr DW$22, DW_AT_external(0x01)
     110                      .global _m_ucshell_cmd_task_pro
     111 00000001       _m_ucshell_cmd_task_pro:        .usect  ".ebss",1,1,0
     112              DW$23   .dwtag  DW_TAG_variable, DW_AT_name("m_ucshell_cmd_task_pro"), DW_AT_symbol_name("_m_ucshell_cmd_task
     113                      .dwattr DW$23, DW_AT_location[DW_OP_addr _m_ucshell_cmd_task_pro]
     114                      .dwattr DW$23, DW_AT_type(*DW$T$25)
     115                      .dwattr DW$23, DW_AT_external(0x01)
     116              DW$24   .dwtag  DW_TAG_variable, DW_AT_name("m_event_num"), DW_AT_symbol_name("_m_event_num")
     117                      .dwattr DW$24, DW_AT_type(*DW$T$32)
     118                      .dwattr DW$24, DW_AT_declaration(0x01)
     119                      .dwattr DW$24, DW_AT_external(0x01)
     120              DW$25   .dwtag  DW_TAG_variable, DW_AT_name("OSCPUUsage"), DW_AT_symbol_name("_OSCPUUsage")
     121                      .dwattr DW$25, DW_AT_type(*DW$T$19)
     122                      .dwattr DW$25, DW_AT_declaration(0x01)
     123                      .dwattr DW$25, DW_AT_external(0x01)
     124                      .global _m_max_cpu_usage
     125 00000002       _m_max_cpu_usage:       .usect  ".ebss",1,1,0
     126              DW$26   .dwtag  DW_TAG_variable, DW_AT_name("m_max_cpu_usage"), DW_AT_symbol_name("_m_max_cpu_usage")
     127                      .dwattr DW$26, DW_AT_location[DW_OP_addr _m_max_cpu_usage]
     128                      .dwattr DW$26, DW_AT_type(*DW$T$25)
     129                      .dwattr DW$26, DW_AT_external(0x01)
     130              
     131              DW$27   .dwtag  DW_TAG_subprogram, DW_AT_name("os_task_name_set"), DW_AT_symbol_name("_os_task_name_set")
     132                      .dwattr DW$27, DW_AT_type(*DW$T$25)
     133                      .dwattr DW$27, DW_AT_declaration(0x01)
     134                      .dwattr DW$27, DW_AT_external(0x01)
     135              DW$28   .dwtag  DW_TAG_formal_parameter, DW_AT_type(*DW$T$25)
     136              DW$29   .dwtag  DW_TAG_formal_parameter, DW_AT_type(*DW$T$50)
     137                      .dwendtag DW$27
     138              
     139              
     140              DW$30   .dwtag  DW_TAG_subprogram, DW_AT_name("os_task_assign_build"), DW_AT_symbol_name("_os_task_assign_bui
     141                      .dwattr DW$30, DW_AT_type(*DW$T$88)
     142                      .dwattr DW$30, DW_AT_declaration(0x01)
     143                      .dwattr DW$30, DW_AT_external(0x01)
     144              DW$31   .dwtag  DW_TAG_formal_parameter, DW_AT_type(*DW$T$52)
     145              DW$32   .dwtag  DW_TAG_formal_parameter, DW_AT_type(*DW$T$25)
     146                      .dwendtag DW$30
     147              
     148              
     149              DW$33   .dwtag  DW_TAG_subprogram, DW_AT_name("os_task_delete"), DW_AT_symbol_name("_os_task_delete")
     150                      .dwattr DW$33, DW_AT_type(*DW$T$25)
     151                      .dwattr DW$33, DW_AT_declaration(0x01)
     152                      .dwattr DW$33, DW_AT_external(0x01)
     153              DW$34   .dwtag  DW_TAG_formal_parameter, DW_AT_type(*DW$T$25)
     154                      .dwendtag DW$33
     155              
     156              
     157              DW$35   .dwtag  DW_TAG_subprogram, DW_AT_name("os_task_name_get"), DW_AT_symbol_name("_os_task_name_get")
     158                      .dwattr DW$35, DW_AT_type(*DW$T$25)
     159                      .dwattr DW$35, DW_AT_declaration(0x01)
     160                      .dwattr DW$35, DW_AT_external(0x01)
TMS320C2000 COFF Assembler PC v4.1.3 Fri Sep 10 14:13:16 2010

Tools Copyright (c) 1996-2006 Texas Instruments Incorporated
C:\DOCUME~1\ADMINI~1\LOCALS~1\Temp\TI0163                            PAGE    4

     161              DW$36   .dwtag  DW_TAG_formal_parameter, DW_AT_type(*DW$T$25)
     162              DW$37   .dwtag  DW_TAG_formal_parameter, DW_AT_type(*DW$T$50)
     163                      .dwendtag DW$35
     164              
     165              
     166              DW$38   .dwtag  DW_TAG_subprogram, DW_AT_name("log_wait_input_msg"), DW_AT_symbol_name("_log_wait_input_msg")
     167                      .dwattr DW$38, DW_AT_type(*DW$T$32)
     168                      .dwattr DW$38, DW_AT_declaration(0x01)
     169                      .dwattr DW$38, DW_AT_external(0x01)
     170              DW$39   .dwtag  DW_TAG_formal_parameter, DW_AT_type(*DW$T$33)
     171                      .dwendtag DW$38
     172              
     173              
     174              DW$40   .dwtag  DW_TAG_subprogram, DW_AT_name("os_task_random_build"), DW_AT_symbol_name("_os_task_random_bui
     175                      .dwattr DW$40, DW_AT_type(*DW$T$25)
     176                      .dwattr DW$40, DW_AT_declaration(0x01)
     177                      .dwattr DW$40, DW_AT_external(0x01)
     178              DW$41   .dwtag  DW_TAG_formal_parameter, DW_AT_type(*DW$T$52)
     179                      .dwendtag DW$40
     180              
     181              
     182              DW$42   .dwtag  DW_TAG_subprogram, DW_AT_name("global_decide_letter"), DW_AT_symbol_name("_global_decide_lett
     183                      .dwattr DW$42, DW_AT_type(*DW$T$88)
     184                      .dwattr DW$42, DW_AT_declaration(0x01)
     185                      .dwattr DW$42, DW_AT_external(0x01)
     186              DW$43   .dwtag  DW_TAG_formal_parameter, DW_AT_type(*DW$T$23)
     187                      .dwendtag DW$42
     188              
     189              
     190              DW$44   .dwtag  DW_TAG_subprogram, DW_AT_name("global_adjust_letter_module"), DW_AT_symbol_name("_global_adju
     191                      .dwattr DW$44, DW_AT_type(*DW$T$25)
     192                      .dwattr DW$44, DW_AT_declaration(0x01)
     193                      .dwattr DW$44, DW_AT_external(0x01)
     194              DW$45   .dwtag  DW_TAG_formal_parameter, DW_AT_type(*DW$T$23)
     195              DW$46   .dwtag  DW_TAG_formal_parameter, DW_AT_type(*DW$T$25)
     196                      .dwendtag DW$44
     197              
     198              DW$47   .dwtag  DW_TAG_variable, DW_AT_name("m_null_pram"), DW_AT_symbol_name("_m_null_pram")
     199                      .dwattr DW$47, DW_AT_type(*DW$T$25)
     200                      .dwattr DW$47, DW_AT_declaration(0x01)
     201                      .dwattr DW$47, DW_AT_external(0x01)
     202              
     203              DW$48   .dwtag  DW_TAG_subprogram, DW_AT_name("os_lock_creat"), DW_AT_symbol_name("_os_lock_creat")
     204                      .dwattr DW$48, DW_AT_type(*DW$T$25)
     205                      .dwattr DW$48, DW_AT_declaration(0x01)
     206                      .dwattr DW$48, DW_AT_external(0x01)
     207              DW$49   .dwtag  DW_TAG_formal_parameter, DW_AT_type(*DW$T$72)
     208                      .dwendtag DW$48
     209              
     210              
     211              DW$50   .dwtag  DW_TAG_subprogram, DW_AT_name("global_decide_num"), DW_AT_symbol_name("_global_decide_num")
     212                      .dwattr DW$50, DW_AT_type(*DW$T$88)
     213                      .dwattr DW$50, DW_AT_declaration(0x01)
     214                      .dwattr DW$50, DW_AT_external(0x01)
     215              DW$51   .dwtag  DW_TAG_formal_parameter, DW_AT_type(*DW$T$23)
TMS320C2000 COFF Assembler PC v4.1.3 Fri Sep 10 14:13:16 2010

Tools Copyright (c) 1996-2006 Texas Instruments Incorporated
C:\DOCUME~1\ADMINI~1\LOCALS~1\Temp\TI0163                            PAGE    5

     216                      .dwendtag DW$50
     217              
     218                      .global _m_ucshell_lock
     219 00000004       _m_ucshell_lock:        .usect  ".ebss",2,1,1
     220              DW$52   .dwtag  DW_TAG_variable, DW_AT_name("m_ucshell_lock"), DW_AT_symbol_name("_m_ucshell_lock")
     221                      .dwattr DW$52, DW_AT_location[DW_OP_addr _m_ucshell_lock]
     222                      .dwattr DW$52, DW_AT_type(*DW$T$60)
     223                      .dwattr DW$52, DW_AT_external(0x01)
     224              DW$53   .dwtag  DW_TAG_variable, DW_AT_name("m_task_pro_array"), DW_AT_symbol_name("_m_task_pro_array")
     225                      .dwattr DW$53, DW_AT_type(*DW$T$99)
     226                      .dwattr DW$53, DW_AT_declaration(0x01)
     227                      .dwattr DW$53, DW_AT_external(0x01)
     228              DW$54   .dwtag  DW_TAG_variable, DW_AT_name("m_log_pram"), DW_AT_symbol_name("_m_log_pram")
     229                      .dwattr DW$54, DW_AT_type(*DW$T$64)
     230                      .dwattr DW$54, DW_AT_declaration(0x01)
     231                      .dwattr DW$54, DW_AT_external(0x01)
     232                      .global _m_cmd_manege_tab
     233 00000000               .sect   ".econst"
     234                      .align  2
     235 00000000       _m_cmd_manege_tab:
     236 00000000 0030+         .field          FSL1,32         ; _m_cmd_manege_tab[0]._cmd @ 0
         00000001 0000 
     237 00000002 0000'         .field          _ucshell_cmd_exit,32            ; _m_cmd_manege_tab[0]._cmd_run_fun @ 32
         00000003 0000 
     238 00000004 0036+         .field          FSL2,32         ; _m_cmd_manege_tab[0]._cmd_explain @ 64
         00000005 0000 
     239 00000006 0050+         .field          FSL3,32         ; _m_cmd_manege_tab[1]._cmd @ 96
         00000007 0000 
     240 00000008 0239'         .field          _ucshell_cmd_help,32            ; _m_cmd_manege_tab[1]._cmd_run_fun @ 128
         00000009 0000 
     241 0000000a 0056+         .field          FSL4,32         ; _m_cmd_manege_tab[1]._cmd_explain @ 160
         0000000b 0000 
     242 0000000c 006E+         .field          FSL5,32         ; _m_cmd_manege_tab[2]._cmd @ 192
         0000000d 0000 
     243 0000000e 01EA'         .field          _ucshell_cmd_pst,32             ; _m_cmd_manege_tab[2]._cmd_run_fun @ 224
         0000000f 0000 
     244 00000010 0072+         .field          FSL6,32         ; _m_cmd_manege_tab[2]._cmd_explain @ 256
         00000011 0000 
     245 00000012 0090+         .field          FSL7,32         ; _m_cmd_manege_tab[3]._cmd @ 288
         00000013 0000 
     246 00000014 0202'         .field          _ucshell_cmd_psd,32             ; _m_cmd_manege_tab[3]._cmd_run_fun @ 320
         00000015 0000 
     247 00000016 0094+         .field          FSL8,32         ; _m_cmd_manege_tab[3]._cmd_explain @ 352
         00000017 0000 
     248 00000018 00B2+         .field          FSL9,32         ; _m_cmd_manege_tab[4]._cmd @ 384
         00000019 0000 
     249 0000001a 01D2'         .field          _ucshell_cmd_eff,32             ; _m_cmd_manege_tab[4]._cmd_run_fun @ 416
         0000001b 0000 
     250 0000001c 00B6+         .field          FSL10,32                ; _m_cmd_manege_tab[4]._cmd_explain @ 448
         0000001d 0000 
     251 0000001e 00CE+         .field          FSL11,32                ; _m_cmd_manege_tab[5]._cmd @ 480
         0000001f 0000 
     252 00000020 005A'         .field          _ucshell_cmd_rst,32             ; _m_cmd_manege_tab[5]._cmd_run_fun @ 512
         00000021 0000 
     253 00000022 00D6+         .field          FSL12,32                ; _m_cmd_manege_tab[5]._cmd_explain @ 544
TMS320C2000 COFF Assembler PC v4.1.3 Fri Sep 10 14:13:16 2010

Tools Copyright (c) 1996-2006 Texas Instruments Incorporated
C:\DOCUME~1\ADMINI~1\LOCALS~1\Temp\TI0163                            PAGE    6

         00000023 0000 
     254 00000024 00EE+         .field          FSL13,32                ; _m_cmd_manege_tab[6]._cmd @ 576
         00000025 0000 
     255 00000026 021A'         .field          _ucshell_cmd_kill,32            ; _m_cmd_manege_tab[6]._cmd_run_fun @ 608
         00000027 0000 
     256 00000028 00F4+         .field          FSL14,32                ; _m_cmd_manege_tab[6]._cmd_explain @ 640
         00000029 0000 
     257 0000002a 0118+         .field          FSL15,32                ; _m_cmd_manege_tab[7]._cmd @ 672
         0000002b 0000 
     258 0000002c 0061'         .field          _ucshell_cmd_config,32          ; _m_cmd_manege_tab[7]._cmd_run_fun @ 704
         0000002d 0000 
     259 0000002e 0120+         .field          FSL16,32                ; _m_cmd_manege_tab[7]._cmd_explain @ 736
         0000002f 0000 
     260              
     261              DW$55   .dwtag  DW_TAG_variable, DW_AT_name("m_cmd_manege_tab"), DW_AT_symbol_name("_m_cmd_manege_tab")
     262                      .dwattr DW$55, DW_AT_location[DW_OP_addr _m_cmd_manege_tab]
     263                      .dwattr DW$55, DW_AT_type(*DW$T$112)
     264                      .dwattr DW$55, DW_AT_external(0x01)
     265              DW$56   .dwtag  DW_TAG_variable, DW_AT_name("m_driver_manege_tab"), DW_AT_symbol_name("_m_driver_manege_tab")
     266                      .dwattr DW$56, DW_AT_type(*DW$T$109)
     267                      .dwattr DW$56, DW_AT_declaration(0x01)
     268                      .dwattr DW$56, DW_AT_external(0x01)
     269              ;       C:\CCStudio_v3.3\C2000\cgtools\bin\ac2000.exe -@C:\DOCUME~1\ADMINI~1\LOCALS~1\Temp\TI0166 
     270 00000000               .sect   ".text"
     271                      .global _ucshell_cmd_exit
     272              
     273              DW$57   .dwtag  DW_TAG_subprogram, DW_AT_name("ucshell_cmd_exit"), DW_AT_symbol_name("_ucshell_cmd_exit")
     274                      .dwattr DW$57, DW_AT_low_pc(_ucshell_cmd_exit)
     275                      .dwattr DW$57, DW_AT_high_pc(0x00)
     276                      .dwattr DW$57, DW_AT_begin_file("ucshell.c")
     277                      .dwattr DW$57, DW_AT_begin_line(0x1f)
     278                      .dwattr DW$57, DW_AT_begin_column(0x06)
     279                      .dwpsn  "ucshell.c",32,1
     280              
     281                      .dwfde DW$CIE
     282              
     283              ;***************************************************************
     284              ;* FNAME: _ucshell_cmd_exit             FR SIZE:   4           *
     285              ;*                                                             *
     286              ;* FUNCTION ENVIRONMENT                                        *
     287              ;*                                                             *
     288              ;* FUNCTION PROPERTIES                                         *
     289              ;*                            0 Parameter,  4 Auto,  0 SOE     *
     290              ;***************************************************************
     291              
     292              _ucshell_cmd_exit:
     293                      .dwcfa  0x1d, -2
     294                      .dwcfa  0x1c, 26, 0
     295                      .dwcfa  0x09, 40, 26
     296 00000000 FE04          ADDB      SP,#4
     297                      .dwcfa  0x1d, -6
     298              ;* AR4   assigned to _arg
     299              DW$58   .dwtag  DW_TAG_formal_parameter, DW_AT_name("arg"), DW_AT_symbol_name("_arg")
     300                      .dwattr DW$58, DW_AT_type(*DW$T$3)
     301                      .dwattr DW$58, DW_AT_location[DW_OP_reg12]
TMS320C2000 COFF Assembler PC v4.1.3 Fri Sep 10 14:13:16 2010

Tools Copyright (c) 1996-2006 Texas Instruments Incorporated
C:\DOCUME~1\ADMINI~1\LOCALS~1\Temp\TI0163                            PAGE    7

     302              DW$59   .dwtag  DW_TAG_variable, DW_AT_name("arg"), DW_AT_symbol_name("_arg")
     303                      .dwattr DW$59, DW_AT_type(*DW$T$3)
     304                      .dwattr DW$59, DW_AT_location[DW_OP_breg20 -2]
     305              DW$60   .dwtag  DW_TAG_variable, DW_AT_name("pch"), DW_AT_symbol_name("_pch")
     306                      .dwattr DW$60, DW_AT_type(*DW$T$33)
     307                      .dwattr DW$60, DW_AT_location[DW_OP_breg20 -4]
     308 00000001 A842          MOVL      *-SP[2],XAR4          ; |32| 
     309                      .dwpsn  "ucshell.c",33,11
     310 00000002 0642          MOVL      ACC,*-SP[2]           ; |33| 
     311 00000003 1E44          MOVL      *-SP[4],ACC           ; |33| 
     312                      .dwpsn  "ucshell.c",34,2
     313 00000004 6F04          B         L2,UNC                ; |34| 
     314                      ; branch occurs ; |34| 
     315              L1:    
     316              DW$L$_ucshell_cmd_exit$2$B:
     317                      .dwpsn  "ucshell.c",34,23
     318 00000005 0201          MOVB      ACC,#1
     319 00000006 5601          ADDL      *-SP[4],ACC           ; |34| 
         00000007 0044 
     320              DW$L$_ucshell_cmd_exit$2$E:
     321              L2:    
     322              DW$L$_ucshell_cmd_exit$3$B:
     323                      .dwpsn  "ucshell.c",34,10
     324 00000008 8A44          MOVL      XAR4,*-SP[4]          ; |34| 
     325 00000009 92C4          MOV       AL,*+XAR4[0]          ; |34| 
     326 0000000a 5220          CMPB      AL,#32                ; |34| 
     327 0000000b EDFA          BF        L1,NEQ                ; |34| 
     328                      ; branchcc occurs ; |34| 
     329              DW$L$_ucshell_cmd_exit$3$E:
     330                      .dwpsn  "ucshell.c",35,2
     331 0000000c 6F04          B         L4,UNC                ; |35| 
     332                      ; branch occurs ; |35| 
     333              L3:    
     334              DW$L$_ucshell_cmd_exit$5$B:
     335                      .dwpsn  "ucshell.c",35,23
     336 0000000d 0201          MOVB      ACC,#1
     337 0000000e 5601          ADDL      *-SP[4],ACC           ; |35| 
         0000000f 0044 
     338              DW$L$_ucshell_cmd_exit$5$E:
     339              L4:    
     340              DW$L$_ucshell_cmd_exit$6$B:
     341                      .dwpsn  "ucshell.c",35,10
     342 00000010 8A44          MOVL      XAR4,*-SP[4]          ; |35| 
     343 00000011 92C4          MOV       AL,*+XAR4[0]          ; |35| 
     344 00000012 5220          CMPB      AL,#32                ; |35| 
     345 00000013 ECFA          BF        L3,EQ                 ; |35| 
     346                      ; branchcc occurs ; |35| 
     347              DW$L$_ucshell_cmd_exit$6$E:
     348                      .dwpsn  "ucshell.c",36,2
     349 00000014 8A44          MOVL      XAR4,*-SP[4]          ; |36| 
     350 00000015 92C4          MOV       AL,*+XAR4[0]          ; |36| 
     351 00000016 EC42          BF        L10,EQ                ; |36| 
     352                      ; branchcc occurs ; |36| 
     353                      .dwpsn  "ucshell.c",36,19
     354                      .dwpsn  "ucshell.c",37,2
TMS320C2000 COFF Assembler PC v4.1.3 Fri Sep 10 14:13:16 2010

Tools Copyright (c) 1996-2006 Texas Instruments Incorporated
C:\DOCUME~1\ADMINI~1\LOCALS~1\Temp\TI0163                            PAGE    8

     355 00000017 8A44          MOVL      XAR4,*-SP[4]          ; |37| 
     356 00000018 9A04          MOVB      AL,#4                 ; |37| 
     357 00000019 8F40+         MOVL      XAR5,#FSL9            ; |37| 
         0000001a 00B2 
     358 0000001b 7640!         LCR       #_my_memcp            ; |37| 
         0000001c 0000 
     359                      ; call occurs [#_my_memcp] ; |37| 
     360 0000001d 5200          CMPB      AL,#0                 ; |37| 
     361 0000001e EC07          BF        L5,EQ                 ; |37| 
     362                      ; branchcc occurs ; |37| 
     363                      .dwpsn  "ucshell.c",39,3
     364 0000001f 761F-         MOVW      DP,#_m_ucshell_flag
         00000020 0000 
     365 00000021 1800-         AND       @_m_ucshell_flag,#0xfffe ; |39| 
         00000022 FFFE 
     366                      .dwpsn  "ucshell.c",40,3
     367 00000023 2B02-         MOV       @_m_max_cpu_usage,#0  ; |40| 
     368                      .dwpsn  "ucshell.c",41,2
     369 00000024 6F27          B         L8,UNC                ; |41| 
     370                      ; branch occurs ; |41| 
     371              L5:    
     372                      .dwpsn  "ucshell.c",42,7
     373 00000025 8A44          MOVL      XAR4,*-SP[4]          ; |42| 
     374 00000026 9A04          MOVB      AL,#4                 ; |42| 
     375 00000027 8F40+         MOVL      XAR5,#FSL5            ; |42| 
         00000028 006E 
     376 00000029 7640!         LCR       #_my_memcp            ; |42| 
         0000002a 0000 
     377                      ; call occurs [#_my_memcp] ; |42| 
     378 0000002b 5200          CMPB      AL,#0                 ; |42| 
     379 0000002c EC06          BF        L6,EQ                 ; |42| 
     380                      ; branchcc occurs ; |42| 
     381                      .dwpsn  "ucshell.c",44,3
     382 0000002d 761F-         MOVW      DP,#_m_ucshell_flag
         0000002e 0000 
     383 0000002f 1800-         AND       @_m_ucshell_flag,#0xfffd ; |44| 
         00000030 FFFD 
     384                      .dwpsn  "ucshell.c",45,2
     385 00000031 6F1A          B         L8,UNC                ; |45| 
     386                      ; branch occurs ; |45| 
     387              L6:    
     388                      .dwpsn  "ucshell.c",46,7
     389 00000032 8A44          MOVL      XAR4,*-SP[4]          ; |46| 
     390 00000033 9A04          MOVB      AL,#4                 ; |46| 
     391 00000034 8F40+         MOVL      XAR5,#FSL7            ; |46| 
         00000035 0090 
     392 00000036 7640!         LCR       #_my_memcp            ; |46| 
         00000037 0000 
     393                      ; call occurs [#_my_memcp] ; |46| 
     394 00000038 5200          CMPB      AL,#0                 ; |46| 
     395 00000039 EC06          BF        L7,EQ                 ; |46| 
     396                      ; branchcc occurs ; |46| 
     397                      .dwpsn  "ucshell.c",48,3
     398 0000003a 761F-         MOVW      DP,#_m_ucshell_flag
         0000003b 0000 
TMS320C2000 COFF Assembler PC v4.1.3 Fri Sep 10 14:13:16 2010

Tools Copyright (c) 1996-2006 Texas Instruments Incorporated
C:\DOCUME~1\ADMINI~1\LOCALS~1\Temp\TI0163                            PAGE    9

     399 0000003c 1800-         AND       @_m_ucshell_flag,#0xfffb ; |48| 
         0000003d FFFB 
     400                      .dwpsn  "ucshell.c",49,2
     401 0000003e 6F0D          B         L8,UNC                ; |49| 
     402                      ; branch occurs ; |49| 
     403              L7:    
     404                      .dwpsn  "ucshell.c",52,3
     405 0000003f 8F00!         MOVL      XAR4,#_m_null_pram    ; |52| 
         00000040 0000 
     406 00000041 761F!         MOVW      DP,#_m_log_pram+26
         00000042 0000 
     407 00000043 8F40!         MOVL      XAR5,#_m_log_pram     ; |52| 
         00000044 0000 
     408 00000045 A81A!         MOVL      @_m_log_pram+26,XAR4  ; |52| 
     409 00000046 A81C!         MOVL      @_m_log_pram+28,XAR4  ; |52| 
     410 00000047 8F00+         MOVL      XAR4,#FSL17           ; |52| 
         00000048 0152 
     411 00000049 7640!         LCR       #_log_printf          ; |52| 
         0000004a 0000 
     412                      ; call occurs [#_log_printf] ; |52| 
     413              L8:    
     414                      .dwpsn  "ucshell.c",54,2
     415 0000004b 761F-         MOVW      DP,#_m_ucshell_flag
         0000004c 0000 
     416 0000004d 9200-         MOV       AL,@_m_ucshell_flag   ; |54| 
     417 0000004e ED0A          BF        L10,NEQ               ; |54| 
     418                      ; branchcc occurs ; |54| 
     419                      .dwpsn  "ucshell.c",56,3
     420 0000004f 9201-         MOV       AL,@_m_ucshell_cmd_task_pro ; |56| 
     421 00000050 52BE          CMPB      AL,#190               ; |56| 
     422 00000051 EC03          BF        L9,EQ                 ; |56| 
     423                      ; branchcc occurs ; |56| 
     424                      .dwpsn  "ucshell.c",58,4
     425 00000052 7640!         LCR       #_os_task_delete      ; |58| 
         00000053 0000 
     426                      ; call occurs [#_os_task_delete] ; |58| 
     427              L9:    
     428                      .dwpsn  "ucshell.c",60,3
     429 00000054 761F-         MOVW      DP,#_m_ucshell_cmd_task_pro
         00000055 0000 
     430 00000056 2801-         MOV       @_m_ucshell_cmd_task_pro,#190 ; |60| 
         00000057 00BE 
     431                      .dwpsn  "ucshell.c",62,2
     432              L10:    
     433                      .dwpsn  "ucshell.c",63,1
     434 00000058 FE84          SUBB      SP,#4
     435                      .dwcfa  0x1d, -2
     436 00000059 0006          LRETR
     437                      ; return occurs
     438              
     439              DW$61   .dwtag  DW_TAG_loop
     440                      .dwattr DW$61, DW_AT_name("C:\DOCUME~1\ADMINI~1\LOCALS~1\Temp\TI0163:L4:1:1284099196")
     441                      .dwattr DW$61, DW_AT_begin_file("ucshell.c")
     442                      .dwattr DW$61, DW_AT_begin_line(0x23)
     443                      .dwattr DW$61, DW_AT_end_line(0x23)
TMS320C2000 COFF Assembler PC v4.1.3 Fri Sep 10 14:13:16 2010

Tools Copyright (c) 1996-2006 Texas Instruments Incorporated
C:\DOCUME~1\ADMINI~1\LOCALS~1\Temp\TI0163                            PAGE   10

     444              DW$62   .dwtag  DW_TAG_loop_range
     445                      .dwattr DW$62, DW_AT_low_pc(DW$L$_ucshell_cmd_exit$6$B)
     446                      .dwattr DW$62, DW_AT_high_pc(DW$L$_ucshell_cmd_exit$6$E)
     447              DW$63   .dwtag  DW_TAG_loop_range
     448                      .dwattr DW$63, DW_AT_low_pc(DW$L$_ucshell_cmd_exit$5$B)
     449                      .dwattr DW$63, DW_AT_high_pc(DW$L$_ucshell_cmd_exit$5$E)
     450                      .dwendtag DW$61
     451              
     452              
     453              DW$64   .dwtag  DW_TAG_loop
     454                      .dwattr DW$64, DW_AT_name("C:\DOCUME~1\ADMINI~1\LOCALS~1\Temp\TI0163:L2:1:1284099196")
     455                      .dwattr DW$64, DW_AT_begin_file("ucshell.c")
     456                      .dwattr DW$64, DW_AT_begin_line(0x22)
     457                      .dwattr DW$64, DW_AT_end_line(0x22)
     458              DW$65   .dwtag  DW_TAG_loop_range
     459                      .dwattr DW$65, DW_AT_low_pc(DW$L$_ucshell_cmd_exit$3$B)
     460                      .dwattr DW$65, DW_AT_high_pc(DW$L$_ucshell_cmd_exit$3$E)
     461              DW$66   .dwtag  DW_TAG_loop_range
     462                      .dwattr DW$66, DW_AT_low_pc(DW$L$_ucshell_cmd_exit$2$B)
     463                      .dwattr DW$66, DW_AT_high_pc(DW$L$_ucshell_cmd_exit$2$E)
     464                      .dwendtag DW$64
     465              
     466                      .dwattr DW$57, DW_AT_end_file("ucshell.c")
     467                      .dwattr DW$57, DW_AT_end_line(0x3f)
     468                      .dwattr DW$57, DW_AT_end_column(0x01)
     469                      .dwendentry
     470                      .dwendtag DW$57
     471              
     472 0000005a               .sect   ".text"
     473                      .global _ucshell_cmd_rst
     474              
     475              DW$67   .dwtag  DW_TAG_subprogram, DW_AT_name("ucshell_cmd_rst"), DW_AT_symbol_name("_ucshell_cmd_rst")
     476                      .dwattr DW$67, DW_AT_low_pc(_ucshell_cmd_rst)
     477                      .dwattr DW$67, DW_AT_high_pc(0x00)
     478                      .dwattr DW$67, DW_AT_begin_file("ucshell.c")
     479                      .dwattr DW$67, DW_AT_begin_line(0x48)
     480                      .dwattr DW$67, DW_AT_begin_column(0x06)
     481                      .dwpsn  "ucshell.c",73,1
     482              
     483                      .dwfde DW$CIE
     484              
     485              ;***************************************************************
     486              ;* FNAME: _ucshell_cmd_rst              FR SIZE:   2           *
     487              ;*                                                             *
     488              ;* FUNCTION ENVIRONMENT                                        *
     489              ;*                                                             *
     490              ;* FUNCTION PROPERTIES                                         *
     491              ;*                            0 Parameter,  2 Auto,  0 SOE     *
     492              ;***************************************************************
     493              
     494              _ucshell_cmd_rst:
     495                      .dwcfa  0x1d, -2
     496                      .dwcfa  0x1c, 26, 0
     497                      .dwcfa  0x09, 40, 26
     498 0000005a FE02          ADDB      SP,#2
TMS320C2000 COFF Assembler PC v4.1.3 Fri Sep 10 14:13:16 2010

Tools Copyright (c) 1996-2006 Texas Instruments Incorporated
C:\DOCUME~1\ADMINI~1\LOCALS~1\Temp\TI0163                            PAGE   11

     499                      .dwcfa  0x1d, -4
     500              ;* AR4   assigned to _arg
     501              DW$68   .dwtag  DW_TAG_formal_parameter, DW_AT_name("arg"), DW_AT_symbol_name("_arg")
     502                      .dwattr DW$68, DW_AT_type(*DW$T$3)
     503                      .dwattr DW$68, DW_AT_location[DW_OP_reg12]
     504              DW$69   .dwtag  DW_TAG_variable, DW_AT_name("arg"), DW_AT_symbol_name("_arg")
     505                      .dwattr DW$69, DW_AT_type(*DW$T$3)
     506                      .dwattr DW$69, DW_AT_location[DW_OP_breg20 -2]
     507 0000005b A842          MOVL      *-SP[2],XAR4          ; |73| 
     508                      .dwpsn  "ucshell.c",74,2
     509 0000005c 9A00          MOVB      AL,#0
     510 0000005d 7640!         LCR       #_app_module_maneger_exit ; |74| 
         0000005e 0000 
     511                      ; call occurs [#_app_module_maneger_exit] ; |74| 
     512                      .dwpsn  "ucshell.c",75,2
     513                      .dwpsn  "ucshell.c",76,1
     514 0000005f FE82          SUBB      SP,#2
     515                      .dwcfa  0x1d, -2
     516 00000060 0006          LRETR
     517                      ; return occurs
     518                      .dwattr DW$67, DW_AT_end_file("ucshell.c")
     519                      .dwattr DW$67, DW_AT_end_line(0x4c)
     520                      .dwattr DW$67, DW_AT_end_column(0x01)
     521                      .dwendentry
     522                      .dwendtag DW$67
     523              
     524 00000061               .sect   ".text"
     525                      .global _ucshell_cmd_config
     526              
     527              DW$70   .dwtag  DW_TAG_subprogram, DW_AT_name("ucshell_cmd_config"), DW_AT_symbol_name("_ucshell_cmd_config")
     528                      .dwattr DW$70, DW_AT_low_pc(_ucshell_cmd_config)
     529                      .dwattr DW$70, DW_AT_high_pc(0x00)
     530                      .dwattr DW$70, DW_AT_begin_file("ucshell.c")
     531                      .dwattr DW$70, DW_AT_begin_line(0x55)
     532                      .dwattr DW$70, DW_AT_begin_column(0x06)
     533                      .dwpsn  "ucshell.c",86,1
     534              
     535                      .dwfde DW$CIE
     536              
     537              ;***************************************************************
     538              ;* FNAME: _ucshell_cmd_config           FR SIZE:   2           *
     539              ;*                                                             *
     540              ;* FUNCTION ENVIRONMENT                                        *
     541              ;*                                                             *
     542              ;* FUNCTION PROPERTIES                                         *
     543              ;*                            0 Parameter,  2 Auto,  0 SOE     *
     544              ;***************************************************************
     545              
     546              _ucshell_cmd_config:
     547                      .dwcfa  0x1d, -2
     548                      .dwcfa  0x1c, 26, 0
     549                      .dwcfa  0x09, 40, 26
     550 00000061 FE02          ADDB      SP,#2
     551                      .dwcfa  0x1d, -4
     552              ;* AR4   assigned to _arg
TMS320C2000 COFF Assembler PC v4.1.3 Fri Sep 10 14:13:16 2010

Tools Copyright (c) 1996-2006 Texas Instruments Incorporated
C:\DOCUME~1\ADMINI~1\LOCALS~1\Temp\TI0163                            PAGE   12

     553              DW$71   .dwtag  DW_TAG_formal_parameter, DW_AT_name("arg"), DW_AT_symbol_name("_arg")
     554                      .dwattr DW$71, DW_AT_type(*DW$T$3)
     555                      .dwattr DW$71, DW_AT_location[DW_OP_reg12]
     556              DW$72   .dwtag  DW_TAG_variable, DW_AT_name("arg"), DW_AT_symbol_name("_arg")
     557                      .dwattr DW$72, DW_AT_type(*DW$T$3)
     558                      .dwattr DW$72, DW_AT_location[DW_OP_breg20 -2]
     559 00000062 A842          MOVL      *-SP[2],XAR4          ; |86| 
     560                      .dwpsn  "ucshell.c",87,2
     561 00000063 9A02          MOVB      AL,#2                 ; |87| 
     562 00000064 7640!         LCR       #_app_module_maneger_exit ; |87| 
         00000065 0000 
     563                      ; call occurs [#_app_module_maneger_exit] ; |87| 
     564                      .dwpsn  "ucshell.c",88,2
     565                      .dwpsn  "ucshell.c",89,1
     566 00000066 FE82          SUBB      SP,#2
     567                      .dwcfa  0x1d, -2
     568 00000067 0006          LRETR
     569                      ; return occurs
     570                      .dwattr DW$70, DW_AT_end_file("ucshell.c")
     571                      .dwattr DW$70, DW_AT_end_line(0x59)
     572                      .dwattr DW$70, DW_AT_end_column(0x01)
     573                      .dwendentry
     574                      .dwendtag DW$70
     575              
     576 00000068               .sect   ".text"
     577                      .global _ucshell_eff_log
     578              
     579              DW$73   .dwtag  DW_TAG_subprogram, DW_AT_name("ucshell_eff_log"), DW_AT_symbol_name("_ucshell_eff_log")
     580                      .dwattr DW$73, DW_AT_low_pc(_ucshell_eff_log)
     581                      .dwattr DW$73, DW_AT_high_pc(0x00)
     582                      .dwattr DW$73, DW_AT_begin_file("ucshell.c")
     583                      .dwattr DW$73, DW_AT_begin_line(0x62)
     584                      .dwattr DW$73, DW_AT_begin_column(0x06)
     585                      .dwpsn  "ucshell.c",99,1
     586              
     587                      .dwfde DW$CIE
     588              
     589              ;***************************************************************
     590              ;* FNAME: _ucshell_eff_log              FR SIZE:   2           *
     591              ;*                                                             *
     592              ;* FUNCTION ENVIRONMENT                                        *
     593              ;*                                                             *
     594              ;* FUNCTION PROPERTIES                                         *
     595              ;*                            0 Parameter,  1 Auto,  0 SOE     *
     596              ;***************************************************************
     597              
     598              _ucshell_eff_log:
     599                      .dwcfa  0x1d, -2
     600                      .dwcfa  0x1c, 26, 0
     601                      .dwcfa  0x09, 40, 26
     602 00000068 FE02          ADDB      SP,#2
     603                      .dwcfa  0x1d, -4
     604              DW$74   .dwtag  DW_TAG_variable, DW_AT_name("icon"), DW_AT_symbol_name("_icon")
     605                      .dwattr DW$74, DW_AT_type(*DW$T$23)
     606                      .dwattr DW$74, DW_AT_location[DW_OP_breg20 -1]
TMS320C2000 COFF Assembler PC v4.1.3 Fri Sep 10 14:13:16 2010

Tools Copyright (c) 1996-2006 Texas Instruments Incorporated
C:\DOCUME~1\ADMINI~1\LOCALS~1\Temp\TI0163                            PAGE   13

     607                      .dwpsn  "ucshell.c",100,7
     608 00000069 2841          MOV       *-SP[1],#37           ; |100| 
         0000006a 0025 
     609                      .dwpsn  "ucshell.c",101,2
     610 0000006b 761F-         MOVW      DP,#_m_max_cpu_usage
         0000006c 0000 
     611 0000006d 9202-         MOV       AL,@_m_max_cpu_usage  ; |101| 
     612 0000006e 761F!         MOVW      DP,#_OSCPUUsage
         0000006f 0000 
     613 00000070 5400!         CMP       AL,@_OSCPUUsage       ; |101| 
     614 00000071 6705          B         L11,HIS               ; |101| 
     615                      ; branchcc occurs ; |101| 
     616                      .dwpsn  "ucshell.c",103,3
     617 00000072 9200!         MOV       AL,@_OSCPUUsage       ; |103| 
     618 00000073 761F-         MOVW      DP,#_m_max_cpu_usage
         00000074 0000 
     619 00000075 9602-         MOV       @_m_max_cpu_usage,AL  ; |103| 
     620              L11:    
     621                      .dwpsn  "ucshell.c",105,2
     622 00000076 5CAD          MOVZ      AR4,SP                ; |105| 
     623 00000077 761F!         MOVW      DP,#_m_log_pram+26
         00000078 0000 
     624 00000079 DC81          SUBB      XAR4,#1               ; |105| 
     625 0000007a 8F40!         MOVL      XAR5,#_m_log_pram     ; |105| 
         0000007b 0000 
     626 0000007c A81A!         MOVL      @_m_log_pram+26,XAR4  ; |105| 
     627 0000007d 8F00!         MOVL      XAR4,#_OSCPUUsage     ; |105| 
         0000007e 0000 
     628 0000007f A81C!         MOVL      @_m_log_pram+28,XAR4  ; |105| 
     629 00000080 8F00+         MOVL      XAR4,#FSL18           ; |105| 
         00000081 0166 
     630 00000082 7640!         LCR       #_log_printf          ; |105| 
         00000083 0000 
     631                      ; call occurs [#_log_printf] ; |105| 
     632                      .dwpsn  "ucshell.c",106,2
     633 00000084 5CAD          MOVZ      AR4,SP                ; |106| 
     634 00000085 761F!         MOVW      DP,#_m_log_pram+26
         00000086 0000 
     635 00000087 DC81          SUBB      XAR4,#1               ; |106| 
     636 00000088 A81A!         MOVL      @_m_log_pram+26,XAR4  ; |106| 
     637 00000089 8F00-         MOVL      XAR4,#_m_max_cpu_usage ; |106| 
         0000008a 0002 
     638 0000008b A81C!         MOVL      @_m_log_pram+28,XAR4  ; |106| 
     639 0000008c 8F40!         MOVL      XAR5,#_m_log_pram     ; |106| 
         0000008d 0000 
     640 0000008e 8F00+         MOVL      XAR4,#FSL19           ; |106| 
         0000008f 018C 
     641 00000090 7640!         LCR       #_log_printf          ; |106| 
         00000091 0000 
     642                      ; call occurs [#_log_printf] ; |106| 
     643                      .dwpsn  "ucshell.c",107,2
     644                      .dwpsn  "ucshell.c",108,1
     645 00000092 FE82          SUBB      SP,#2
     646                      .dwcfa  0x1d, -2
     647 00000093 0006          LRETR
TMS320C2000 COFF Assembler PC v4.1.3 Fri Sep 10 14:13:16 2010

Tools Copyright (c) 1996-2006 Texas Instruments Incorporated
C:\DOCUME~1\ADMINI~1\LOCALS~1\Temp\TI0163                            PAGE   14

     648                      ; return occurs
     649                      .dwattr DW$73, DW_AT_end_file("ucshell.c")
     650                      .dwattr DW$73, DW_AT_end_line(0x6c)
     651                      .dwattr DW$73, DW_AT_end_column(0x01)
     652                      .dwendentry
     653                      .dwendtag DW$73
     654              
     655 00000094               .sect   ".text"
     656                      .global _ucshell_cmd_pst_log
     657              
     658              DW$75   .dwtag  DW_TAG_subprogram, DW_AT_name("ucshell_cmd_pst_log"), DW_AT_symbol_name("_ucshell_cmd_pst_log
     659                      .dwattr DW$75, DW_AT_low_pc(_ucshell_cmd_pst_log)
     660                      .dwattr DW$75, DW_AT_high_pc(0x00)
     661                      .dwattr DW$75, DW_AT_begin_file("ucshell.c")
     662                      .dwattr DW$75, DW_AT_begin_line(0x76)
     663                      .dwattr DW$75, DW_AT_begin_column(0x06)
     664                      .dwpsn  "ucshell.c",119,1
     665              
     666                      .dwfde DW$CIE
     667              
     668              ;***************************************************************
     669              ;* FNAME: _ucshell_cmd_pst_log          FR SIZE:  32           *
     670              ;*                                                             *
     671              ;* FUNCTION ENVIRONMENT                                        *
     672              ;*                                                             *
     673              ;* FUNCTION PROPERTIES                                         *
     674              ;*                            0 Parameter, 32 Auto,  0 SOE     *
     675              ;***************************************************************
     676              
     677              _ucshell_cmd_pst_log:
     678                      .dwcfa  0x1d, -2
     679                      .dwcfa  0x1c, 26, 0
     680                      .dwcfa  0x09, 40, 26
     681 00000094 FE20          ADDB      SP,#32
     682                      .dwcfa  0x1d, -34
     683              DW$76   .dwtag  DW_TAG_variable, DW_AT_name("index"), DW_AT_symbol_name("_index")
     684                      .dwattr DW$76, DW_AT_type(*DW$T$25)
     685                      .dwattr DW$76, DW_AT_location[DW_OP_breg20 -1]
     686              DW$77   .dwtag  DW_TAG_variable, DW_AT_name("task_name"), DW_AT_symbol_name("_task_name")
     687                      .dwattr DW$77, DW_AT_type(*DW$T$103)
     688                      .dwattr DW$77, DW_AT_location[DW_OP_breg20 -31]
     689              DW$78   .dwtag  DW_TAG_variable, DW_AT_name("cnt"), DW_AT_symbol_name("_cnt")
     690                      .dwattr DW$78, DW_AT_type(*DW$T$32)
     691                      .dwattr DW$78, DW_AT_location[DW_OP_breg20 -32]
     692                      .dwpsn  "ucshell.c",123,2
     693 00000095 8F00!         MOVL      XAR4,#_m_null_pram    ; |123| 
         00000096 0000 
     694 00000097 761F!         MOVW      DP,#_m_log_pram+26
         00000098 0000 
     695 00000099 A81A!         MOVL      @_m_log_pram+26,XAR4  ; |123| 
     696 0000009a 8F40!         MOVL      XAR5,#_m_log_pram     ; |123| 
         0000009b 0000 
     697 0000009c A81C!         MOVL      @_m_log_pram+28,XAR4  ; |123| 
     698 0000009d 8F00+         MOVL      XAR4,#FSL20           ; |123| 
         0000009e 01B2 
TMS320C2000 COFF Assembler PC v4.1.3 Fri Sep 10 14:13:16 2010

Tools Copyright (c) 1996-2006 Texas Instruments Incorporated
C:\DOCUME~1\ADMINI~1\LOCALS~1\Temp\TI0163                            PAGE   15

     699 0000009f 7640!         LCR       #_log_printf          ; |123| 
         000000a0 0000 
     700                      ; call occurs [#_log_printf] ; |123| 
     701                      .dwpsn  "ucshell.c",124,2
     702 000000a1 2B60          MOV       *-SP[32],#0           ; |124| 
     703                      .dwpsn  "ucshell.c",125,8
     704 000000a2 2B41          MOV       *-SP[1],#0            ; |125| 
     705                      .dwpsn  "ucshell.c",125,18
     706 000000a3 9241          MOV       AL,*-SP[1]            ; |125| 
     707 000000a4 5215          CMPB      AL,#21                ; |125| 
     708 000000a5 6730          B         L16,HIS               ; |125| 
     709                      ; branchcc occurs ; |125| 
     710              L12:    
     711              DW$L$_ucshell_cmd_pst_log$2$B:
     712                      .dwpsn  "ucshell.c",127,3
     713 000000a6 5841          MOVZ      AR0,*-SP[1]           ; |127| 
     714 000000a7 8F00!         MOVL      XAR4,#_m_task_pro_array ; |127| 
         000000a8 0000 
     715 000000a9 9294          MOV       AL,*+XAR4[AR0]        ; |127| 
     716 000000aa EC27          BF        L15,EQ                ; |127| 
     717                      ; branchcc occurs ; |127| 
     718              DW$L$_ucshell_cmd_pst_log$2$E:
     719              DW$L$_ucshell_cmd_pst_log$3$B:
     720                      .dwpsn  "ucshell.c",129,4
     721 000000ab 5CAD          MOVZ      AR4,SP                ; |129| 
     722 000000ac 9241          MOV       AL,*-SP[1]            ; |129| 
     723 000000ad DC9F          SUBB      XAR4,#31              ; |129| 
     724 000000ae 7640!         LCR       #_os_task_name_get    ; |129| 
         000000af 0000 
     725                      ; call occurs [#_os_task_name_get] ; |129| 
     726                      .dwpsn  "ucshell.c",130,4
     727 000000b0 9241          MOV       AL,*-SP[1]            ; |130| 
     728 000000b1 5209          CMPB      AL,#9                 ; |130| 
     729 000000b2 6610          B         L13,HI                ; |130| 
     730                      ; branchcc occurs ; |130| 
     731              DW$L$_ucshell_cmd_pst_log$3$E:
     732              DW$L$_ucshell_cmd_pst_log$4$B:
     733                      .dwpsn  "ucshell.c",132,5
     734 000000b3 5CAD          MOVZ      AR4,SP                ; |132| 
     735 000000b4 761F!         MOVW      DP,#_m_log_pram+26
         000000b5 0000 
     736 000000b6 DC81          SUBB      XAR4,#1               ; |132| 
     737 000000b7 A81A!         MOVL      @_m_log_pram+26,XAR4  ; |132| 
     738 000000b8 5CAD          MOVZ      AR4,SP                ; |132| 
     739 000000b9 8F40!         MOVL      XAR5,#_m_log_pram     ; |132| 
         000000ba 0000 
     740 000000bb DC9F          SUBB      XAR4,#31              ; |132| 
     741 000000bc A81C!         MOVL      @_m_log_pram+28,XAR4  ; |132| 
     742 000000bd 8F00+         MOVL      XAR4,#FSL21           ; |132| 
         000000be 01DE 
     743 000000bf 7640!         LCR       #_log_printf          ; |132| 
         000000c0 0000 
     744                      ; call occurs [#_log_printf] ; |132| 
     745                      .dwpsn  "ucshell.c",133,4
     746 000000c1 6F0F          B         L14,UNC               ; |133| 
TMS320C2000 COFF Assembler PC v4.1.3 Fri Sep 10 14:13:16 2010

Tools Copyright (c) 1996-2006 Texas Instruments Incorporated
C:\DOCUME~1\ADMINI~1\LOCALS~1\Temp\TI0163                            PAGE   16

     747                      ; branch occurs ; |133| 
     748              DW$L$_ucshell_cmd_pst_log$4$E:
     749              L13:    
     750              DW$L$_ucshell_cmd_pst_log$5$B:
     751                      .dwpsn  "ucshell.c",136,5
     752 000000c2 5CAD          MOVZ      AR4,SP                ; |136| 
     753 000000c3 761F!         MOVW      DP,#_m_log_pram+26
         000000c4 0000 
     754 000000c5 DC81          SUBB      XAR4,#1               ; |136| 
     755 000000c6 A81A!         MOVL      @_m_log_pram+26,XAR4  ; |136| 
     756 000000c7 5CAD          MOVZ      AR4,SP                ; |136| 
     757 000000c8 8F40!         MOVL      XAR5,#_m_log_pram     ; |136| 
         000000c9 0000 
     758 000000ca DC9F          SUBB      XAR4,#31              ; |136| 
     759 000000cb A81C!         MOVL      @_m_log_pram+28,XAR4  ; |136| 
     760 000000cc 8F00+         MOVL      XAR4,#FSL22           ; |136| 
         000000cd 01F4 
     761 000000ce 7640!         LCR       #_log_printf          ; |136| 
         000000cf 0000 
     762                      ; call occurs [#_log_printf] ; |136| 
     763              DW$L$_ucshell_cmd_pst_log$5$E:
     764              L14:    
     765              DW$L$_ucshell_cmd_pst_log$6$B:
     766                      .dwpsn  "ucshell.c",138,4
     767 000000d0 0A60          INC       *-SP[32]              ; |138| 
     768              DW$L$_ucshell_cmd_pst_log$6$E:
     769              L15:    
     770              DW$L$_ucshell_cmd_pst_log$7$B:
     771                      .dwpsn  "ucshell.c",125,42
     772 000000d1 0A41          INC       *-SP[1]               ; |125| 
     773                      .dwpsn  "ucshell.c",125,18
     774 000000d2 9241          MOV       AL,*-SP[1]            ; |125| 
     775 000000d3 5215          CMPB      AL,#21                ; |125| 
     776 000000d4 68D2          B         L12,LO                ; |125| 
     777                      ; branchcc occurs ; |125| 
     778              DW$L$_ucshell_cmd_pst_log$7$E:
     779              L16:    
     780                      .dwpsn  "ucshell.c",142,2
     781 000000d5 9A3E          MOVB      AL,#62                ; |142| 
     782 000000d6 9641          MOV       *-SP[1],AL            ; |142| 
     783                      .dwpsn  "ucshell.c",143,2
     784 000000d7 5CAD          MOVZ      AR4,SP                ; |143| 
     785 000000d8 DC9F          SUBB      XAR4,#31              ; |143| 
     786 000000d9 7640!         LCR       #_os_task_name_get    ; |143| 
         000000da 0000 
     787                      ; call occurs [#_os_task_name_get] ; |143| 
     788                      .dwpsn  "ucshell.c",144,2
     789 000000db 5CAD          MOVZ      AR4,SP                ; |144| 
     790 000000dc 761F!         MOVW      DP,#_m_log_pram+26
         000000dd 0000 
     791 000000de DC81          SUBB      XAR4,#1               ; |144| 
     792 000000df A81A!         MOVL      @_m_log_pram+26,XAR4  ; |144| 
     793 000000e0 5CAD          MOVZ      AR4,SP                ; |144| 
     794 000000e1 DC9F          SUBB      XAR4,#31              ; |144| 
     795 000000e2 A81C!         MOVL      @_m_log_pram+28,XAR4  ; |144| 
TMS320C2000 COFF Assembler PC v4.1.3 Fri Sep 10 14:13:16 2010

Tools Copyright (c) 1996-2006 Texas Instruments Incorporated
C:\DOCUME~1\ADMINI~1\LOCALS~1\Temp\TI0163                            PAGE   17

     796 000000e3 8F40!         MOVL      XAR5,#_m_log_pram     ; |144| 
         000000e4 0000 
     797 000000e5 8F00+         MOVL      XAR4,#FSL22           ; |144| 
         000000e6 01F4 
     798 000000e7 7640!         LCR       #_log_printf          ; |144| 
         000000e8 0000 
     799                      ; call occurs [#_log_printf] ; |144| 
     800                      .dwpsn  "ucshell.c",146,2
     801 000000e9 9A3F          MOVB      AL,#63                ; |146| 
     802 000000ea 9641          MOV       *-SP[1],AL            ; |146| 
     803                      .dwpsn  "ucshell.c",147,2
     804 000000eb 5CAD          MOVZ      AR4,SP                ; |147| 
     805 000000ec DC9F          SUBB      XAR4,#31              ; |147| 
     806 000000ed 7640!         LCR       #_os_task_name_get    ; |147| 
         000000ee 0000 
     807                      ; call occurs [#_os_task_name_get] ; |147| 
     808                      .dwpsn  "ucshell.c",148,2
     809 000000ef 5CAD          MOVZ      AR4,SP                ; |148| 
     810 000000f0 761F!         MOVW      DP,#_m_log_pram+26
         000000f1 0000 
     811 000000f2 DC81          SUBB      XAR4,#1               ; |148| 
     812 000000f3 A81A!         MOVL      @_m_log_pram+26,XAR4  ; |148| 
     813 000000f4 5CAD          MOVZ      AR4,SP                ; |148| 
     814 000000f5 DC9F          SUBB      XAR4,#31              ; |148| 
     815 000000f6 A81C!         MOVL      @_m_log_pram+28,XAR4  ; |148| 
     816 000000f7 8F40!         MOVL      XAR5,#_m_log_pram     ; |148| 
         000000f8 0000 
     817 000000f9 8F00+         MOVL      XAR4,#FSL22           ; |148| 
         000000fa 01F4 
     818 000000fb 7640!         LCR       #_log_printf          ; |148| 
         000000fc 0000 
     819                      ; call occurs [#_log_printf] ; |148| 
     820                      .dwpsn  "ucshell.c",149,2
     821 000000fd 2841          MOV       *-SP[1],#21           ; |149| 
         000000fe 0015 
     822                      .dwpsn  "ucshell.c",150,2
     823 000000ff 5CAD          MOVZ      AR4,SP                ; |150| 
     824 00000100 761F!         MOVW      DP,#_m_log_pram+26
         00000101 0000 
     825 00000102 DCA0          SUBB      XAR4,#32              ; |150| 
     826 00000103 A81A!         MOVL      @_m_log_pram+26,XAR4  ; |150| 
     827 00000104 5CAD          MOVZ      AR4,SP                ; |150| 
     828 00000105 DC81          SUBB      XAR4,#1               ; |150| 
     829 00000106 A81C!         MOVL      @_m_log_pram+28,XAR4  ; |150| 
     830 00000107 8F40!         MOVL      XAR5,#_m_log_pram     ; |150| 
         00000108 0000 
     831 00000109 8F00+         MOVL      XAR4,#FSL23           ; |150| 
         0000010a 0208 
     832 0000010b 7640!         LCR       #_log_printf          ; |150| 
         0000010c 0000 
     833                      ; call occurs [#_log_printf] ; |150| 
     834                      .dwpsn  "ucshell.c",151,2
     835 0000010d 2841          MOV       *-SP[1],#60           ; |151| 
         0000010e 003C 
     836                      .dwpsn  "ucshell.c",152,2
TMS320C2000 COFF Assembler PC v4.1.3 Fri Sep 10 14:13:16 2010

Tools Copyright (c) 1996-2006 Texas Instruments Incorporated
C:\DOCUME~1\ADMINI~1\LOCALS~1\Temp\TI0163                            PAGE   18

     837 0000010f 761F!         MOVW      DP,#_m_log_pram+26
         00000110 0000 
     838 00000111 8F00!         MOVL      XAR4,#_m_event_num    ; |152| 
         00000112 0000 
     839 00000113 A81A!         MOVL      @_m_log_pram+26,XAR4  ; |152| 
     840 00000114 5CAD          MOVZ      AR4,SP                ; |152| 
     841 00000115 DC81          SUBB      XAR4,#1               ; |152| 
     842 00000116 A81C!         MOVL      @_m_log_pram+28,XAR4  ; |152| 
     843 00000117 8F40!         MOVL      XAR5,#_m_log_pram     ; |152| 
         00000118 0000 
     844 00000119 8F00+         MOVL      XAR4,#FSL24           ; |152| 
         0000011a 0220 
     845 0000011b 7640!         LCR       #_log_printf          ; |152| 
         0000011c 0000 
     846                      ; call occurs [#_log_printf] ; |152| 
     847                      .dwpsn  "ucshell.c",153,2
     848 0000011d 761F!         MOVW      DP,#_m_log_pram+26
         0000011e 0000 
     849 0000011f 8F00!         MOVL      XAR4,#_m_null_pram    ; |153| 
         00000120 0000 
     850 00000121 A81A!         MOVL      @_m_log_pram+26,XAR4  ; |153| 
     851 00000122 A81C!         MOVL      @_m_log_pram+28,XAR4  ; |153| 
     852 00000123 8F40!         MOVL      XAR5,#_m_log_pram     ; |153| 
         00000124 0000 
     853 00000125 8F00+         MOVL      XAR4,#FSL25           ; |153| 
         00000126 0234 
     854 00000127 7640!         LCR       #_log_printf          ; |153| 
         00000128 0000 
     855                      ; call occurs [#_log_printf] ; |153| 
     856                      .dwpsn  "ucshell.c",154,2
     857                      .dwpsn  "ucshell.c",155,1
     858 00000129 FEA0          SUBB      SP,#32
     859                      .dwcfa  0x1d, -2
     860 0000012a 0006          LRETR
     861                      ; return occurs
     862              
     863              DW$79   .dwtag  DW_TAG_loop
     864                      .dwattr DW$79, DW_AT_name("C:\DOCUME~1\ADMINI~1\LOCALS~1\Temp\TI0163:L12:1:1284099196")
     865                      .dwattr DW$79, DW_AT_begin_file("ucshell.c")
     866                      .dwattr DW$79, DW_AT_begin_line(0x7d)
     867                      .dwattr DW$79, DW_AT_end_line(0x8c)
     868              DW$80   .dwtag  DW_TAG_loop_range
     869                      .dwattr DW$80, DW_AT_low_pc(DW$L$_ucshell_cmd_pst_log$2$B)
     870                      .dwattr DW$80, DW_AT_high_pc(DW$L$_ucshell_cmd_pst_log$2$E)
     871              DW$81   .dwtag  DW_TAG_loop_range
     872                      .dwattr DW$81, DW_AT_low_pc(DW$L$_ucshell_cmd_pst_log$3$B)
     873                      .dwattr DW$81, DW_AT_high_pc(DW$L$_ucshell_cmd_pst_log$3$E)
     874              DW$82   .dwtag  DW_TAG_loop_range
     875                      .dwattr DW$82, DW_AT_low_pc(DW$L$_ucshell_cmd_pst_log$4$B)
     876                      .dwattr DW$82, DW_AT_high_pc(DW$L$_ucshell_cmd_pst_log$4$E)
     877              DW$83   .dwtag  DW_TAG_loop_range
     878                      .dwattr DW$83, DW_AT_low_pc(DW$L$_ucshell_cmd_pst_log$5$B)
     879                      .dwattr DW$83, DW_AT_high_pc(DW$L$_ucshell_cmd_pst_log$5$E)
     880              DW$84   .dwtag  DW_TAG_loop_range
     881                      .dwattr DW$84, DW_AT_low_pc(DW$L$_ucshell_cmd_pst_log$6$B)
TMS320C2000 COFF Assembler PC v4.1.3 Fri Sep 10 14:13:16 2010

Tools Copyright (c) 1996-2006 Texas Instruments Incorporated
C:\DOCUME~1\ADMINI~1\LOCALS~1\Temp\TI0163                            PAGE   19

     882                      .dwattr DW$84, DW_AT_high_pc(DW$L$_ucshell_cmd_pst_log$6$E)
     883              DW$85   .dwtag  DW_TAG_loop_range
     884                      .dwattr DW$85, DW_AT_low_pc(DW$L$_ucshell_cmd_pst_log$7$B)
     885                      .dwattr DW$85, DW_AT_high_pc(DW$L$_ucshell_cmd_pst_log$7$E)
     886                      .dwendtag DW$79
     887              
     888                      .dwattr DW$75, DW_AT_end_file("ucshell.c")
     889                      .dwattr DW$75, DW_AT_end_line(0x9b)
     890                      .dwattr DW$75, DW_AT_end_column(0x01)
     891                      .dwendentry
     892                      .dwendtag DW$75
     893              
     894 0000012b               .sect   ".text"
     895                      .global _ucshell_cmd_psd_log
     896              
     897              DW$86   .dwtag  DW_TAG_subprogram, DW_AT_name("ucshell_cmd_psd_log"), DW_AT_symbol_name("_ucshell_cmd_psd_log
     898                      .dwattr DW$86, DW_AT_low_pc(_ucshell_cmd_psd_log)
     899                      .dwattr DW$86, DW_AT_high_pc(0x00)
     900                      .dwattr DW$86, DW_AT_begin_file("ucshell.c")
     901                      .dwattr DW$86, DW_AT_begin_line(0xa5)
     902                      .dwattr DW$86, DW_AT_begin_column(0x06)
     903                      .dwpsn  "ucshell.c",166,1
     904              
     905                      .dwfde DW$CIE
     906              
     907              ;***************************************************************
     908              ;* FNAME: _ucshell_cmd_psd_log          FR SIZE:   6           *
     909              ;*                                                             *
     910              ;* FUNCTION ENVIRONMENT                                        *
     911              ;*                                                             *
     912              ;* FUNCTION PROPERTIES                                         *
     913              ;*                            0 Parameter,  6 Auto,  0 SOE     *
     914              ;***************************************************************
     915              
     916              _ucshell_cmd_psd_log:
     917                      .dwcfa  0x1d, -2
     918                      .dwcfa  0x1c, 26, 0
     919                      .dwcfa  0x09, 40, 26
     920 0000012b FE06          ADDB      SP,#6
     921                      .dwcfa  0x1d, -8
     922              DW$87   .dwtag  DW_TAG_variable, DW_AT_name("index"), DW_AT_symbol_name("_index")
     923                      .dwattr DW$87, DW_AT_type(*DW$T$25)
     924                      .dwattr DW$87, DW_AT_location[DW_OP_breg20 -1]
     925              DW$88   .dwtag  DW_TAG_variable, DW_AT_name("dev_id"), DW_AT_symbol_name("_dev_id")
     926                      .dwattr DW$88, DW_AT_type(*DW$T$25)
     927                      .dwattr DW$88, DW_AT_location[DW_OP_breg20 -2]
     928              DW$89   .dwtag  DW_TAG_variable, DW_AT_name("cnt"), DW_AT_symbol_name("_cnt")
     929                      .dwattr DW$89, DW_AT_type(*DW$T$32)
     930                      .dwattr DW$89, DW_AT_location[DW_OP_breg20 -3]
     931              DW$90   .dwtag  DW_TAG_variable, DW_AT_name("pname"), DW_AT_symbol_name("_pname")
     932                      .dwattr DW$90, DW_AT_type(*DW$T$50)
     933                      .dwattr DW$90, DW_AT_location[DW_OP_breg20 -6]
     934                      .dwpsn  "ucshell.c",169,10
     935 0000012c 2B43          MOV       *-SP[3],#0            ; |169| 
     936                      .dwpsn  "ucshell.c",171,2
TMS320C2000 COFF Assembler PC v4.1.3 Fri Sep 10 14:13:16 2010

Tools Copyright (c) 1996-2006 Texas Instruments Incorporated
C:\DOCUME~1\ADMINI~1\LOCALS~1\Temp\TI0163                            PAGE   20

     937 0000012d 8F00!         MOVL      XAR4,#_m_null_pram    ; |171| 
         0000012e 0000 
     938 0000012f 761F!         MOVW      DP,#_m_log_pram+26
         00000130 0000 
     939 00000131 A81A!         MOVL      @_m_log_pram+26,XAR4  ; |171| 
     940 00000132 A81C!         MOVL      @_m_log_pram+28,XAR4  ; |171| 
     941 00000133 8F40!         MOVL      XAR5,#_m_log_pram     ; |171| 
         00000134 0000 
     942 00000135 8F00+         MOVL      XAR4,#FSL26           ; |171| 
         00000136 0262 
     943 00000137 7640!         LCR       #_log_printf          ; |171| 
         00000138 0000 
     944                      ; call occurs [#_log_printf] ; |171| 
     945                      .dwpsn  "ucshell.c",172,8
     946 00000139 2B41          MOV       *-SP[1],#0            ; |172| 
     947                      .dwpsn  "ucshell.c",172,18
     948 0000013a 9241          MOV       AL,*-SP[1]            ; |172| 
     949 0000013b 5219          CMPB      AL,#25                ; |172| 
     950 0000013c 673D          B         L21,HIS               ; |172| 
     951                      ; branchcc occurs ; |172| 
     952              L17:    
     953              DW$L$_ucshell_cmd_psd_log$2$B:
     954                      .dwpsn  "ucshell.c",174,3
     955 0000013d 28AC          MOV       T,#28                 ; |174| 
         0000013e 001C 
     956 0000013f 8F00!         MOVL      XAR4,#_m_driver_manege_tab+2 ; |174| 
         00000140 0002 
     957 00000141 3041          MPYXU     ACC,T,*-SP[1]         ; |174| 
     958 00000142 5601          ADDL      XAR4,ACC
         00000143 00A4 
     959 00000144 92C4          MOV       AL,*+XAR4[0]          ; |174| 
     960 00000145 EC30          BF        L20,EQ                ; |174| 
     961                      ; branchcc occurs ; |174| 
     962              DW$L$_ucshell_cmd_psd_log$2$E:
     963              DW$L$_ucshell_cmd_psd_log$3$B:
     964                      .dwpsn  "ucshell.c",176,4
     965 00000146 28AC          MOV       T,#28                 ; |176| 
         00000147 001C 
     966 00000148 8F00!         MOVL      XAR4,#_m_driver_manege_tab+14 ; |176| 
         00000149 000E 
     967 0000014a 3041          MPYXU     ACC,T,*-SP[1]         ; |176| 
     968 0000014b 5601          ADDL      XAR4,ACC
         0000014c 00A4 
     969 0000014d A846          MOVL      *-SP[6],XAR4          ; |176| 
     970                      .dwpsn  "ucshell.c",177,4
     971 0000014e 28AC          MOV       T,#28                 ; |177| 
         0000014f 001C 
     972 00000150 8F00!         MOVL      XAR4,#_m_driver_manege_tab+2 ; |177| 
         00000151 0002 
     973 00000152 3041          MPYXU     ACC,T,*-SP[1]         ; |177| 
     974 00000153 5601          ADDL      XAR4,ACC
         00000154 00A4 
     975 00000155 92C4          MOV       AL,*+XAR4[0]          ; |177| 
     976 00000156 9642          MOV       *-SP[2],AL            ; |177| 
     977                      .dwpsn  "ucshell.c",178,4
TMS320C2000 COFF Assembler PC v4.1.3 Fri Sep 10 14:13:16 2010

Tools Copyright (c) 1996-2006 Texas Instruments Incorporated
C:\DOCUME~1\ADMINI~1\LOCALS~1\Temp\TI0163                            PAGE   21

     978 00000157 5209          CMPB      AL,#9                 ; |178| 
     979 00000158 660F          B         L18,HI                ; |178| 
     980                      ; branchcc occurs ; |178| 
     981              DW$L$_ucshell_cmd_psd_log$3$E:
     982              DW$L$_ucshell_cmd_psd_log$4$B:
     983                      .dwpsn  "ucshell.c",180,5
     984 00000159 5CAD          MOVZ      AR4,SP                ; |180| 
     985 0000015a 761F!         MOVW      DP,#_m_log_pram+26
         0000015b 0000 
     986 0000015c 0646          MOVL      ACC,*-SP[6]           ; |180| 
     987 0000015d 8F40!         MOVL      XAR5,#_m_log_pram     ; |180| 
         0000015e 0000 
     988 0000015f DC82          SUBB      XAR4,#2               ; |180| 
     989 00000160 A81A!         MOVL      @_m_log_pram+26,XAR4  ; |180| 
     990 00000161 8F00+         MOVL      XAR4,#FSL27           ; |180| 
         00000162 0290 
     991 00000163 1E1C!         MOVL      @_m_log_pram+28,ACC   ; |180| 
     992 00000164 7640!         LCR       #_log_printf          ; |180| 
         00000165 0000 
     993                      ; call occurs [#_log_printf] ; |180| 
     994                      .dwpsn  "ucshell.c",181,4
     995 00000166 6F0E          B         L19,UNC               ; |181| 
     996                      ; branch occurs ; |181| 
     997              DW$L$_ucshell_cmd_psd_log$4$E:
     998              L18:    
     999              DW$L$_ucshell_cmd_psd_log$5$B:
    1000                      .dwpsn  "ucshell.c",184,5
    1001 00000167 5CAD          MOVZ      AR4,SP                ; |184| 
    1002 00000168 761F!         MOVW      DP,#_m_log_pram+26
         00000169 0000 
    1003 0000016a 0646          MOVL      ACC,*-SP[6]           ; |184| 
    1004 0000016b 8F40!         MOVL      XAR5,#_m_log_pram     ; |184| 
         0000016c 0000 
    1005 0000016d DC82          SUBB      XAR4,#2               ; |184| 
    1006 0000016e A81A!         MOVL      @_m_log_pram+26,XAR4  ; |184| 
    1007 0000016f 8F00+         MOVL      XAR4,#FSL28           ; |184| 
         00000170 02A8 
    1008 00000171 1E1C!         MOVL      @_m_log_pram+28,ACC   ; |184| 
    1009 00000172 7640!         LCR       #_log_printf          ; |184| 
         00000173 0000 
    1010                      ; call occurs [#_log_printf] ; |184| 
    1011              DW$L$_ucshell_cmd_psd_log$5$E:
    1012              L19:    
    1013              DW$L$_ucshell_cmd_psd_log$6$B:
    1014                      .dwpsn  "ucshell.c",186,4
    1015 00000174 0A43          INC       *-SP[3]               ; |186| 
    1016              DW$L$_ucshell_cmd_psd_log$6$E:
    1017              L20:    
    1018              DW$L$_ucshell_cmd_psd_log$7$B:
    1019                      .dwpsn  "ucshell.c",172,46
    1020 00000175 0A41          INC       *-SP[1]               ; |172| 
    1021                      .dwpsn  "ucshell.c",172,18
    1022 00000176 9241          MOV       AL,*-SP[1]            ; |172| 
    1023 00000177 5219          CMPB      AL,#25                ; |172| 
    1024 00000178 68C5          B         L17,LO                ; |172| 
TMS320C2000 COFF Assembler PC v4.1.3 Fri Sep 10 14:13:16 2010

Tools Copyright (c) 1996-2006 Texas Instruments Incorporated
C:\DOCUME~1\ADMINI~1\LOCALS~1\Temp\TI0163                            PAGE   22

    1025                      ; branchcc occurs ; |172| 
    1026              DW$L$_ucshell_cmd_psd_log$7$E:
    1027              L21:    
    1028                      .dwpsn  "ucshell.c",189,2
    1029 00000179 2841          MOV       *-SP[1],#25           ; |189| 
         0000017a 0019 
    1030                      .dwpsn  "ucshell.c",190,2
    1031 0000017b 5CAD          MOVZ      AR4,SP                ; |190| 
    1032 0000017c 761F!         MOVW      DP,#_m_log_pram+26
         0000017d 0000 
    1033 0000017e DC83          SUBB      XAR4,#3               ; |190| 
    1034 0000017f A81A!         MOVL      @_m_log_pram+26,XAR4  ; |190| 
    1035 00000180 5CAD          MOVZ      AR4,SP                ; |190| 
    1036 00000181 8F40!         MOVL      XAR5,#_m_log_pram     ; |190| 
         00000182 0000 
    1037 00000183 DC81          SUBB      XAR4,#1               ; |190| 
    1038 00000184 A81C!         MOVL      @_m_log_pram+28,XAR4  ; |190| 
    1039 00000185 8F00+         MOVL      XAR4,#FSL29           ; |190| 
         00000186 02C0 
    1040 00000187 7640!         LCR       #_log_printf          ; |190| 
         00000188 0000 
    1041                      ; call occurs [#_log_printf] ; |190| 
    1042                      .dwpsn  "ucshell.c",191,2
    1043 00000189 761F!         MOVW      DP,#_m_log_pram+26
         0000018a 0000 
    1044 0000018b 8F00!         MOVL      XAR4,#_m_null_pram    ; |191| 
         0000018c 0000 
    1045 0000018d A81A!         MOVL      @_m_log_pram+26,XAR4  ; |191| 
    1046 0000018e A81C!         MOVL      @_m_log_pram+28,XAR4  ; |191| 
    1047 0000018f 8F40!         MOVL      XAR5,#_m_log_pram     ; |191| 
         00000190 0000 
    1048 00000191 8F00+         MOVL      XAR4,#FSL25           ; |191| 
         00000192 0234 
    1049 00000193 7640!         LCR       #_log_printf          ; |191| 
         00000194 0000 
    1050                      ; call occurs [#_log_printf] ; |191| 
    1051                      .dwpsn  "ucshell.c",192,2
    1052                      .dwpsn  "ucshell.c",193,1
    1053 00000195 FE86          SUBB      SP,#6
    1054                      .dwcfa  0x1d, -2
    1055 00000196 0006          LRETR
    1056                      ; return occurs
    1057              
    1058              DW$91   .dwtag  DW_TAG_loop
    1059                      .dwattr DW$91, DW_AT_name("C:\DOCUME~1\ADMINI~1\LOCALS~1\Temp\TI0163:L17:1:1284099196")
    1060                      .dwattr DW$91, DW_AT_begin_file("ucshell.c")
    1061                      .dwattr DW$91, DW_AT_begin_line(0xac)
    1062                      .dwattr DW$91, DW_AT_end_line(0xbc)
    1063              DW$92   .dwtag  DW_TAG_loop_range
    1064                      .dwattr DW$92, DW_AT_low_pc(DW$L$_ucshell_cmd_psd_log$2$B)
    1065                      .dwattr DW$92, DW_AT_high_pc(DW$L$_ucshell_cmd_psd_log$2$E)
    1066              DW$93   .dwtag  DW_TAG_loop_range
    1067                      .dwattr DW$93, DW_AT_low_pc(DW$L$_ucshell_cmd_psd_log$3$B)
    1068                      .dwattr DW$93, DW_AT_high_pc(DW$L$_ucshell_cmd_psd_log$3$E)
    1069              DW$94   .dwtag  DW_TAG_loop_range
TMS320C2000 COFF Assembler PC v4.1.3 Fri Sep 10 14:13:16 2010

Tools Copyright (c) 1996-2006 Texas Instruments Incorporated
C:\DOCUME~1\ADMINI~1\LOCALS~1\Temp\TI0163                            PAGE   23

    1070                      .dwattr DW$94, DW_AT_low_pc(DW$L$_ucshell_cmd_psd_log$4$B)
    1071                      .dwattr DW$94, DW_AT_high_pc(DW$L$_ucshell_cmd_psd_log$4$E)
    1072              DW$95   .dwtag  DW_TAG_loop_range
    1073                      .dwattr DW$95, DW_AT_low_pc(DW$L$_ucshell_cmd_psd_log$5$B)
    1074                      .dwattr DW$95, DW_AT_high_pc(DW$L$_ucshell_cmd_psd_log$5$E)
    1075              DW$96   .dwtag  DW_TAG_loop_range
    1076                      .dwattr DW$96, DW_AT_low_pc(DW$L$_ucshell_cmd_psd_log$6$B)
    1077                      .dwattr DW$96, DW_AT_high_pc(DW$L$_ucshell_cmd_psd_log$6$E)
    1078              DW$97   .dwtag  DW_TAG_loop_range
    1079                      .dwattr DW$97, DW_AT_low_pc(DW$L$_ucshell_cmd_psd_log$7$B)
    1080                      .dwattr DW$97, DW_AT_high_pc(DW$L$_ucshell_cmd_psd_log$7$E)
    1081                      .dwendtag DW$91
    1082              
    1083                      .dwattr DW$86, DW_AT_end_file("ucshell.c")
    1084                      .dwattr DW$86, DW_AT_end_line(0xc1)
    1085                      .dwattr DW$86, DW_AT_end_column(0x01)
    1086                      .dwendentry
    1087                      .dwendtag DW$86
    1088              
    1089 00000197               .sect   ".text"
    1090                      .global _ucshell_cmd_log_task
    1091              
    1092              DW$98   .dwtag  DW_TAG_subprogram, DW_AT_name("ucshell_cmd_log_task"), DW_AT_symbol_name("_ucshell_cmd_log_ta
    1093                      .dwattr DW$98, DW_AT_low_pc(_ucshell_cmd_log_task)
    1094                      .dwattr DW$98, DW_AT_high_pc(0x00)
    1095                      .dwattr DW$98, DW_AT_begin_file("ucshell.c")
    1096                      .dwattr DW$98, DW_AT_begin_line(0xca)
    1097                      .dwattr DW$98, DW_AT_begin_column(0x06)
    1098                      .dwpsn  "ucshell.c",203,1
    1099              
    1100                      .dwfde DW$CIE
    1101              
    1102              ;***************************************************************
    1103              ;* FNAME: _ucshell_cmd_log_task         FR SIZE:   6           *
    1104              ;*                                                             *
    1105              ;* FUNCTION ENVIRONMENT                                        *
    1106              ;*                                                             *
    1107              ;* FUNCTION PROPERTIES                                         *
    1108              ;*                            0 Parameter,  5 Auto,  0 SOE     *
    1109              ;***************************************************************
    1110              
    1111              _ucshell_cmd_log_task:
    1112                      .dwcfa  0x1d, -2
    1113                      .dwcfa  0x1c, 26, 0
    1114                      .dwcfa  0x09, 40, 26
    1115 00000197 FE06          ADDB      SP,#6
    1116                      .dwcfa  0x1d, -8
    1117              ;* AR4   assigned to _arg
    1118              DW$99   .dwtag  DW_TAG_formal_parameter, DW_AT_name("arg"), DW_AT_symbol_name("_arg")
    1119                      .dwattr DW$99, DW_AT_type(*DW$T$3)
    1120                      .dwattr DW$99, DW_AT_location[DW_OP_reg12]
    1121              DW$100  .dwtag  DW_TAG_variable, DW_AT_name("arg"), DW_AT_symbol_name("_arg")
    1122                      .dwattr DW$100, DW_AT_type(*DW$T$3)
    1123                      .dwattr DW$100, DW_AT_location[DW_OP_breg20 -2]
    1124              DW$101  .dwtag  DW_TAG_variable, DW_AT_name("flag_1sec"), DW_AT_symbol_name("_flag_1sec")
TMS320C2000 COFF Assembler PC v4.1.3 Fri Sep 10 14:13:16 2010

Tools Copyright (c) 1996-2006 Texas Instruments Incorporated
C:\DOCUME~1\ADMINI~1\LOCALS~1\Temp\TI0163                            PAGE   24

    1125                      .dwattr DW$101, DW_AT_type(*DW$T$32)
    1126                      .dwattr DW$101, DW_AT_location[DW_OP_breg20 -3]
    1127              DW$102  .dwtag  DW_TAG_variable, DW_AT_name("flag_5sec"), DW_AT_symbol_name("_flag_5sec")
    1128                      .dwattr DW$102, DW_AT_type(*DW$T$32)
    1129                      .dwattr DW$102, DW_AT_location[DW_OP_breg20 -4]
    1130              DW$103  .dwtag  DW_TAG_variable, DW_AT_name("flag_10sec"), DW_AT_symbol_name("_flag_10sec")
    1131                      .dwattr DW$103, DW_AT_type(*DW$T$32)
    1132                      .dwattr DW$103, DW_AT_location[DW_OP_breg20 -5]
    1133 00000198 A842          MOVL      *-SP[2],XAR4          ; |203| 
    1134                      .dwpsn  "ucshell.c",204,10
    1135 00000199 2843          MOV       *-SP[3],#11           ; |204| 
         0000019a 000B 
    1136                      .dwpsn  "ucshell.c",205,10
    1137 0000019b 2844          MOV       *-SP[4],#51           ; |205| 
         0000019c 0033 
    1138                      .dwpsn  "ucshell.c",206,10
    1139 0000019d 2845          MOV       *-SP[5],#101          ; |206| 
         0000019e 0065 
    1140                      .dwpsn  "ucshell.c",207,10
    1141              L22:    
    1142              DW$L$_ucshell_cmd_log_task$2$B:
    1143                      .dwpsn  "ucshell.c",209,3
    1144 0000019f 761F-         MOVW      DP,#_m_ucshell_lock
         000001a0 0000 
    1145 000001a1 8A04-         MOVL      XAR4,@_m_ucshell_lock ; |209| 
    1146 000001a2 7640!         LCR       #_os_lock             ; |209| 
         000001a3 0000 
    1147                      ; call occurs [#_os_lock] ; |209| 
    1148                      .dwpsn  "ucshell.c",210,3
    1149 000001a4 761F-         MOVW      DP,#_m_ucshell_flag
         000001a5 0000 
    1150 000001a6 4000-         TBIT      @_m_ucshell_flag,#0   ; |210| 
    1151 000001a7 EF07          BF        L23,NTC               ; |210| 
    1152                      ; branchcc occurs ; |210| 
    1153 000001a8       DW$L$_ucshell_cmd_log_task$2$E:
    1154 000001a8       DW$L$_ucshell_cmd_log_task$3$B:
    1155 000001a8 9243          MOV       AL,*-SP[3]            ; |210| 
    1156 000001a9 520A          CMPB      AL,#10                ; |210| 
    1157 000001aa 6904          B         L23,LOS               ; |210| 
    1158                      ; branchcc occurs ; |210| 
    1159              DW$L$_ucshell_cmd_log_task$3$E:
    1160              DW$L$_ucshell_cmd_log_task$4$B:
    1161                      .dwpsn  "ucshell.c",213,4
    1162 000001ab 7640'         LCR       #_ucshell_eff_log     ; |213| 
         000001ac 0068 
    1163                      ; call occurs [#_ucshell_eff_log] ; |213| 
    1164                      .dwpsn  "ucshell.c",214,4
    1165 000001ad 2B43          MOV       *-SP[3],#0            ; |214| 
    1166              DW$L$_ucshell_cmd_log_task$4$E:
    1167              L23:    
    1168              DW$L$_ucshell_cmd_log_task$5$B:
    1169                      .dwpsn  "ucshell.c",216,3
    1170 000001ae 761F-         MOVW      DP,#_m_ucshell_flag
         000001af 0000 
    1171 000001b0 CC00-         AND       AL,@_m_ucshell_flag,#0x0002 ; |216| 
TMS320C2000 COFF Assembler PC v4.1.3 Fri Sep 10 14:13:16 2010

Tools Copyright (c) 1996-2006 Texas Instruments Incorporated
C:\DOCUME~1\ADMINI~1\LOCALS~1\Temp\TI0163                            PAGE   25

         000001b1 0002 
    1172 000001b2 FFC0          LSR       AL,1                  ; |216| 
    1173 000001b3 EC07          BF        L24,EQ                ; |216| 
    1174                      ; branchcc occurs ; |216| 
    1175 000001b4       DW$L$_ucshell_cmd_log_task$5$E:
    1176 000001b4       DW$L$_ucshell_cmd_log_task$6$B:
    1177 000001b4 9244          MOV       AL,*-SP[4]            ; |216| 
    1178 000001b5 5232          CMPB      AL,#50                ; |216| 
    1179 000001b6 6904          B         L24,LOS               ; |216| 
    1180                      ; branchcc occurs ; |216| 
    1181              DW$L$_ucshell_cmd_log_task$6$E:
    1182              DW$L$_ucshell_cmd_log_task$7$B:
    1183                      .dwpsn  "ucshell.c",219,4
    1184 000001b7 7640'         LCR       #_ucshell_cmd_pst_log ; |219| 
         000001b8 0094 
    1185                      ; call occurs [#_ucshell_cmd_pst_log] ; |219| 
    1186                      .dwpsn  "ucshell.c",220,4
    1187 000001b9 2B44          MOV       *-SP[4],#0            ; |220| 
    1188              DW$L$_ucshell_cmd_log_task$7$E:
    1189              L24:    
    1190              DW$L$_ucshell_cmd_log_task$8$B:
    1191                      .dwpsn  "ucshell.c",222,3
    1192 000001ba 761F-         MOVW      DP,#_m_ucshell_flag
         000001bb 0000 
    1193 000001bc CC00-         AND       AL,@_m_ucshell_flag,#0x0004 ; |222| 
         000001bd 0004 
    1194 000001be FFC1          LSR       AL,2                  ; |222| 
    1195 000001bf EC07          BF        L25,EQ                ; |222| 
    1196                      ; branchcc occurs ; |222| 
    1197 000001c0       DW$L$_ucshell_cmd_log_task$8$E:
    1198 000001c0       DW$L$_ucshell_cmd_log_task$9$B:
    1199 000001c0 9245          MOV       AL,*-SP[5]            ; |222| 
    1200 000001c1 5264          CMPB      AL,#100               ; |222| 
    1201 000001c2 6904          B         L25,LOS               ; |222| 
    1202                      ; branchcc occurs ; |222| 
    1203              DW$L$_ucshell_cmd_log_task$9$E:
    1204              DW$L$_ucshell_cmd_log_task$10$B:
    1205                      .dwpsn  "ucshell.c",225,4
    1206 000001c3 7640'         LCR       #_ucshell_cmd_psd_log ; |225| 
         000001c4 012B 
    1207                      ; call occurs [#_ucshell_cmd_psd_log] ; |225| 
    1208                      .dwpsn  "ucshell.c",226,4
    1209 000001c5 2B45          MOV       *-SP[5],#0            ; |226| 
    1210              DW$L$_ucshell_cmd_log_task$10$E:
    1211              L25:    
    1212              DW$L$_ucshell_cmd_log_task$11$B:
    1213                      .dwpsn  "ucshell.c",228,3
    1214 000001c6 761F-         MOVW      DP,#_m_ucshell_lock
         000001c7 0000 
    1215 000001c8 8A04-         MOVL      XAR4,@_m_ucshell_lock ; |228| 
    1216 000001c9 7640!         LCR       #_os_unlock           ; |228| 
         000001ca 0000 
    1217                      ; call occurs [#_os_unlock] ; |228| 
    1218                      .dwpsn  "ucshell.c",229,3
    1219 000001cb 0A44          INC       *-SP[4]               ; |229| 
TMS320C2000 COFF Assembler PC v4.1.3 Fri Sep 10 14:13:16 2010

Tools Copyright (c) 1996-2006 Texas Instruments Incorporated
C:\DOCUME~1\ADMINI~1\LOCALS~1\Temp\TI0163                            PAGE   26

    1220                      .dwpsn  "ucshell.c",230,3
    1221 000001cc 0A43          INC       *-SP[3]               ; |230| 
    1222                      .dwpsn  "ucshell.c",231,3
    1223 000001cd 0A45          INC       *-SP[5]               ; |231| 
    1224                      .dwpsn  "ucshell.c",232,3
    1225 000001ce 9A0A          MOVB      AL,#10                ; |232| 
    1226 000001cf 7640!         LCR       #_OSTimeDly           ; |232| 
         000001d0 0000 
    1227                      ; call occurs [#_OSTimeDly] ; |232| 
    1228                      .dwpsn  "ucshell.c",207,10
    1229 000001d1 6FCE          B         L22,UNC               ; |207| 
    1230                      ; branch occurs ; |207| 
    1231              DW$L$_ucshell_cmd_log_task$11$E:
    1232                      .dwcfa  0x1d, -2
    1233              
    1234              DW$104  .dwtag  DW_TAG_loop
    1235                      .dwattr DW$104, DW_AT_name("C:\DOCUME~1\ADMINI~1\LOCALS~1\Temp\TI0163:L22:1:1284099196")
    1236                      .dwattr DW$104, DW_AT_begin_file("ucshell.c")
    1237                      .dwattr DW$104, DW_AT_begin_line(0xcf)
    1238                      .dwattr DW$104, DW_AT_end_line(0xe9)
    1239              DW$105  .dwtag  DW_TAG_loop_range
    1240                      .dwattr DW$105, DW_AT_low_pc(DW$L$_ucshell_cmd_log_task$2$B)
    1241                      .dwattr DW$105, DW_AT_high_pc(DW$L$_ucshell_cmd_log_task$2$E)
    1242              DW$106  .dwtag  DW_TAG_loop_range
    1243                      .dwattr DW$106, DW_AT_low_pc(DW$L$_ucshell_cmd_log_task$3$B)
    1244                      .dwattr DW$106, DW_AT_high_pc(DW$L$_ucshell_cmd_log_task$3$E)
    1245              DW$107  .dwtag  DW_TAG_loop_range
    1246                      .dwattr DW$107, DW_AT_low_pc(DW$L$_ucshell_cmd_log_task$4$B)
    1247                      .dwattr DW$107, DW_AT_high_pc(DW$L$_ucshell_cmd_log_task$4$E)
    1248              DW$108  .dwtag  DW_TAG_loop_range
    1249                      .dwattr DW$108, DW_AT_low_pc(DW$L$_ucshell_cmd_log_task$5$B)
    1250                      .dwattr DW$108, DW_AT_high_pc(DW$L$_ucshell_cmd_log_task$5$E)
    1251              DW$109  .dwtag  DW_TAG_loop_range
    1252                      .dwattr DW$109, DW_AT_low_pc(DW$L$_ucshell_cmd_log_task$6$B)
    1253                      .dwattr DW$109, DW_AT_high_pc(DW$L$_ucshell_cmd_log_task$6$E)
    1254              DW$110  .dwtag  DW_TAG_loop_range
    1255                      .dwattr DW$110, DW_AT_low_pc(DW$L$_ucshell_cmd_log_task$7$B)
    1256                      .dwattr DW$110, DW_AT_high_pc(DW$L$_ucshell_cmd_log_task$7$E)
    1257              DW$111  .dwtag  DW_TAG_loop_range
    1258                      .dwattr DW$111, DW_AT_low_pc(DW$L$_ucshell_cmd_log_task$8$B)
    1259                      .dwattr DW$111, DW_AT_high_pc(DW$L$_ucshell_cmd_log_task$8$E)
    1260              DW$112  .dwtag  DW_TAG_loop_range
    1261                      .dwattr DW$112, DW_AT_low_pc(DW$L$_ucshell_cmd_log_task$9$B)
    1262                      .dwattr DW$112, DW_AT_high_pc(DW$L$_ucshell_cmd_log_task$9$E)
    1263              DW$113  .dwtag  DW_TAG_loop_range
    1264                      .dwattr DW$113, DW_AT_low_pc(DW$L$_ucshell_cmd_log_task$10$B)
    1265                      .dwattr DW$113, DW_AT_high_pc(DW$L$_ucshell_cmd_log_task$10$E)
    1266              DW$114  .dwtag  DW_TAG_loop_range
    1267                      .dwattr DW$114, DW_AT_low_pc(DW$L$_ucshell_cmd_log_task$11$B)
    1268                      .dwattr DW$114, DW_AT_high_pc(DW$L$_ucshell_cmd_log_task$11$E)
    1269                      .dwendtag DW$104
    1270              
    1271                      .dwattr DW$98, DW_AT_end_file("ucshell.c")
    1272                      .dwattr DW$98, DW_AT_end_line(0xea)
    1273                      .dwattr DW$98, DW_AT_end_column(0x01)
TMS320C2000 COFF Assembler PC v4.1.3 Fri Sep 10 14:13:16 2010

Tools Copyright (c) 1996-2006 Texas Instruments Incorporated
C:\DOCUME~1\ADMINI~1\LOCALS~1\Temp\TI0163                            PAGE   27

    1274                      .dwendentry
    1275                      .dwendtag DW$98
    1276              
    1277 000001d2               .sect   ".text"
    1278                      .global _ucshell_cmd_eff
    1279              
    1280              DW$115  .dwtag  DW_TAG_subprogram, DW_AT_name("ucshell_cmd_eff"), DW_AT_symbol_name("_ucshell_cmd_eff")
    1281                      .dwattr DW$115, DW_AT_low_pc(_ucshell_cmd_eff)
    1282                      .dwattr DW$115, DW_AT_high_pc(0x00)
    1283                      .dwattr DW$115, DW_AT_begin_file("ucshell.c")
    1284                      .dwattr DW$115, DW_AT_begin_line(0xf3)
    1285                      .dwattr DW$115, DW_AT_begin_column(0x06)
    1286                      .dwpsn  "ucshell.c",244,1
    1287              
    1288                      .dwfde DW$CIE
    1289              
    1290              ;***************************************************************
    1291              ;* FNAME: _ucshell_cmd_eff              FR SIZE:   2           *
    1292              ;*                                                             *
    1293              ;* FUNCTION ENVIRONMENT                                        *
    1294              ;*                                                             *
    1295              ;* FUNCTION PROPERTIES                                         *
    1296              ;*                            0 Parameter,  2 Auto,  0 SOE     *
    1297              ;***************************************************************
    1298              
    1299              _ucshell_cmd_eff:
    1300                      .dwcfa  0x1d, -2
    1301                      .dwcfa  0x1c, 26, 0
    1302                      .dwcfa  0x09, 40, 26
    1303 000001d2 FE02          ADDB      SP,#2
    1304                      .dwcfa  0x1d, -4
    1305              ;* AR4   assigned to _arg
    1306              DW$116  .dwtag  DW_TAG_formal_parameter, DW_AT_name("arg"), DW_AT_symbol_name("_arg")
    1307                      .dwattr DW$116, DW_AT_type(*DW$T$3)
    1308                      .dwattr DW$116, DW_AT_location[DW_OP_reg12]
    1309              DW$117  .dwtag  DW_TAG_variable, DW_AT_name("arg"), DW_AT_symbol_name("_arg")
    1310                      .dwattr DW$117, DW_AT_type(*DW$T$3)
    1311                      .dwattr DW$117, DW_AT_location[DW_OP_breg20 -2]
    1312 000001d3 A842          MOVL      *-SP[2],XAR4          ; |244| 
    1313                      .dwpsn  "ucshell.c",245,2
    1314 000001d4 761F-         MOVW      DP,#_m_ucshell_cmd_task_pro
         000001d5 0000 
    1315 000001d6 9201-         MOV       AL,@_m_ucshell_cmd_task_pro ; |245| 
    1316 000001d7 52BE          CMPB      AL,#190               ; |245| 
    1317 000001d8 ED0C          BF        L26,NEQ               ; |245| 
    1318                      ; branchcc occurs ; |245| 
    1319                      .dwpsn  "ucshell.c",247,3
    1320 000001d9 8F00'         MOVL      XAR4,#_ucshell_cmd_log_task ; |247| 
         000001da 0197 
    1321 000001db 7640!         LCR       #_os_task_random_build ; |247| 
         000001dc 0000 
    1322                      ; call occurs [#_os_task_random_build] ; |247| 
    1323 000001dd 761F-         MOVW      DP,#_m_ucshell_cmd_task_pro
         000001de 0000 
    1324 000001df 9601-         MOV       @_m_ucshell_cmd_task_pro,AL ; |247| 
TMS320C2000 COFF Assembler PC v4.1.3 Fri Sep 10 14:13:16 2010

Tools Copyright (c) 1996-2006 Texas Instruments Incorporated
C:\DOCUME~1\ADMINI~1\LOCALS~1\Temp\TI0163                            PAGE   28

    1325                      .dwpsn  "ucshell.c",249,3
    1326 000001e0 8F00+         MOVL      XAR4,#FSL30           ; |249| 
         000001e1 02DA 
    1327 000001e2 7640!         LCR       #_os_task_name_set    ; |249| 
         000001e3 0000 
    1328                      ; call occurs [#_os_task_name_set] ; |249| 
    1329              L26:    
    1330                      .dwpsn  "ucshell.c",251,2
    1331 000001e4 761F-         MOVW      DP,#_m_ucshell_flag
         000001e5 0000 
    1332 000001e6 1A00-         OR        @_m_ucshell_flag,#0x0001 ; |251| 
         000001e7 0001 
    1333                      .dwpsn  "ucshell.c",252,2
    1334                      .dwpsn  "ucshell.c",253,1
    1335 000001e8 FE82          SUBB      SP,#2
    1336                      .dwcfa  0x1d, -2
    1337 000001e9 0006          LRETR
    1338                      ; return occurs
    1339                      .dwattr DW$115, DW_AT_end_file("ucshell.c")
    1340                      .dwattr DW$115, DW_AT_end_line(0xfd)
    1341                      .dwattr DW$115, DW_AT_end_column(0x01)
    1342                      .dwendentry
    1343                      .dwendtag DW$115
    1344              
    1345 000001ea               .sect   ".text"
    1346                      .global _ucshell_cmd_pst
    1347              
    1348              DW$118  .dwtag  DW_TAG_subprogram, DW_AT_name("ucshell_cmd_pst"), DW_AT_symbol_name("_ucshell_cmd_pst")
    1349                      .dwattr DW$118, DW_AT_low_pc(_ucshell_cmd_pst)
    1350                      .dwattr DW$118, DW_AT_high_pc(0x00)
    1351                      .dwattr DW$118, DW_AT_begin_file("ucshell.c")
    1352                      .dwattr DW$118, DW_AT_begin_line(0x106)
    1353                      .dwattr DW$118, DW_AT_begin_column(0x06)
    1354                      .dwpsn  "ucshell.c",263,1
    1355              
    1356                      .dwfde DW$CIE
    1357              
    1358              ;***************************************************************
    1359              ;* FNAME: _ucshell_cmd_pst              FR SIZE:   2           *
    1360              ;*                                                             *
    1361              ;* FUNCTION ENVIRONMENT                                        *
    1362              ;*                                                             *
    1363              ;* FUNCTION PROPERTIES                                         *
    1364              ;*                            0 Parameter,  2 Auto,  0 SOE     *
    1365              ;***************************************************************
    1366              
    1367              _ucshell_cmd_pst:
    1368                      .dwcfa  0x1d, -2
    1369                      .dwcfa  0x1c, 26, 0
    1370                      .dwcfa  0x09, 40, 26
    1371 000001ea FE02          ADDB      SP,#2
    1372                      .dwcfa  0x1d, -4
    1373              ;* AR4   assigned to _arg
    1374              DW$119  .dwtag  DW_TAG_formal_parameter, DW_AT_name("arg"), DW_AT_symbol_name("_arg")
    1375                      .dwattr DW$119, DW_AT_type(*DW$T$3)
TMS320C2000 COFF Assembler PC v4.1.3 Fri Sep 10 14:13:16 2010

Tools Copyright (c) 1996-2006 Texas Instruments Incorporated
C:\DOCUME~1\ADMINI~1\LOCALS~1\Temp\TI0163                            PAGE   29

    1376                      .dwattr DW$119, DW_AT_location[DW_OP_reg12]
    1377              DW$120  .dwtag  DW_TAG_variable, DW_AT_name("arg"), DW_AT_symbol_name("_arg")
    1378                      .dwattr DW$120, DW_AT_type(*DW$T$3)
    1379                      .dwattr DW$120, DW_AT_location[DW_OP_breg20 -2]
    1380 000001eb A842          MOVL      *-SP[2],XAR4          ; |263| 
    1381                      .dwpsn  "ucshell.c",264,2
    1382 000001ec 761F-         MOVW      DP,#_m_ucshell_cmd_task_pro
         000001ed 0000 
    1383 000001ee 9201-         MOV       AL,@_m_ucshell_cmd_task_pro ; |264| 
    1384 000001ef 52BE          CMPB      AL,#190               ; |264| 
    1385 000001f0 ED0C          BF        L27,NEQ               ; |264| 
    1386                      ; branchcc occurs ; |264| 
    1387                      .dwpsn  "ucshell.c",266,3
    1388 000001f1 8F00'         MOVL      XAR4,#_ucshell_cmd_log_task ; |266| 
         000001f2 0197 
    1389 000001f3 7640!         LCR       #_os_task_random_build ; |266| 
         000001f4 0000 
    1390                      ; call occurs [#_os_task_random_build] ; |266| 
    1391 000001f5 761F-         MOVW      DP,#_m_ucshell_cmd_task_pro
         000001f6 0000 
    1392 000001f7 9601-         MOV       @_m_ucshell_cmd_task_pro,AL ; |266| 
    1393                      .dwpsn  "ucshell.c",268,3
    1394 000001f8 8F00+         MOVL      XAR4,#FSL30           ; |268| 
         000001f9 02DA 
    1395 000001fa 7640!         LCR       #_os_task_name_set    ; |268| 
         000001fb 0000 
    1396                      ; call occurs [#_os_task_name_set] ; |268| 
    1397              L27:    
    1398                      .dwpsn  "ucshell.c",270,2
    1399 000001fc 761F-         MOVW      DP,#_m_ucshell_flag
         000001fd 0000 
    1400 000001fe 1A00-         OR        @_m_ucshell_flag,#0x0002 ; |270| 
         000001ff 0002 
    1401                      .dwpsn  "ucshell.c",271,2
    1402                      .dwpsn  "ucshell.c",272,1
    1403 00000200 FE82          SUBB      SP,#2
    1404                      .dwcfa  0x1d, -2
    1405 00000201 0006          LRETR
    1406                      ; return occurs
    1407                      .dwattr DW$118, DW_AT_end_file("ucshell.c")
    1408                      .dwattr DW$118, DW_AT_end_line(0x110)
    1409                      .dwattr DW$118, DW_AT_end_column(0x01)
    1410                      .dwendentry
    1411                      .dwendtag DW$118
    1412              
    1413 00000202               .sect   ".text"
    1414                      .global _ucshell_cmd_psd
    1415              
    1416              DW$121  .dwtag  DW_TAG_subprogram, DW_AT_name("ucshell_cmd_psd"), DW_AT_symbol_name("_ucshell_cmd_psd")
    1417                      .dwattr DW$121, DW_AT_low_pc(_ucshell_cmd_psd)
    1418                      .dwattr DW$121, DW_AT_high_pc(0x00)
    1419                      .dwattr DW$121, DW_AT_begin_file("ucshell.c")
    1420                      .dwattr DW$121, DW_AT_begin_line(0x119)
    1421                      .dwattr DW$121, DW_AT_begin_column(0x06)
    1422                      .dwpsn  "ucshell.c",282,1
TMS320C2000 COFF Assembler PC v4.1.3 Fri Sep 10 14:13:16 2010

Tools Copyright (c) 1996-2006 Texas Instruments Incorporated
C:\DOCUME~1\ADMINI~1\LOCALS~1\Temp\TI0163                            PAGE   30

    1423              
    1424                      .dwfde DW$CIE
    1425              
    1426              ;***************************************************************
    1427              ;* FNAME: _ucshell_cmd_psd              FR SIZE:   2           *
    1428              ;*                                                             *
    1429              ;* FUNCTION ENVIRONMENT                                        *
    1430              ;*                                                             *
    1431              ;* FUNCTION PROPERTIES                                         *
    1432              ;*                            0 Parameter,  2 Auto,  0 SOE     *
    1433              ;***************************************************************
    1434              
    1435              _ucshell_cmd_psd:
    1436                      .dwcfa  0x1d, -2
    1437                      .dwcfa  0x1c, 26, 0
    1438                      .dwcfa  0x09, 40, 26
    1439 00000202 FE02          ADDB      SP,#2
    1440                      .dwcfa  0x1d, -4
    1441              ;* AR4   assigned to _arg
    1442              DW$122  .dwtag  DW_TAG_formal_parameter, DW_AT_name("arg"), DW_AT_symbol_name("_arg")
    1443                      .dwattr DW$122, DW_AT_type(*DW$T$3)
    1444                      .dwattr DW$122, DW_AT_location[DW_OP_reg12]
    1445              DW$123  .dwtag  DW_TAG_variable, DW_AT_name("arg"), DW_AT_symbol_name("_arg")
    1446                      .dwattr DW$123, DW_AT_type(*DW$T$3)
    1447                      .dwattr DW$123, DW_AT_location[DW_OP_breg20 -2]
    1448 00000203 A842          MOVL      *-SP[2],XAR4          ; |282| 
    1449                      .dwpsn  "ucshell.c",283,2
    1450 00000204 761F-         MOVW      DP,#_m_ucshell_cmd_task_pro
         00000205 0000 
    1451 00000206 9201-         MOV       AL,@_m_ucshell_cmd_task_pro ; |283| 
    1452 00000207 52BE          CMPB      AL,#190               ; |283| 
    1453 00000208 ED0C          BF        L28,NEQ               ; |283| 
    1454                      ; branchcc occurs ; |283| 
    1455                      .dwpsn  "ucshell.c",285,3
    1456 00000209 8F00'         MOVL      XAR4,#_ucshell_cmd_log_task ; |285| 
         0000020a 0197 
    1457 0000020b 7640!         LCR       #_os_task_random_build ; |285| 
         0000020c 0000 
    1458                      ; call occurs [#_os_task_random_build] ; |285| 
    1459 0000020d 761F-         MOVW      DP,#_m_ucshell_cmd_task_pro
         0000020e 0000 
    1460 0000020f 9601-         MOV       @_m_ucshell_cmd_task_pro,AL ; |285| 
    1461                      .dwpsn  "ucshell.c",287,3
    1462 00000210 8F00+         MOVL      XAR4,#FSL30           ; |287| 
         00000211 02DA 
    1463 00000212 7640!         LCR       #_os_task_name_set    ; |287| 
         00000213 0000 
    1464                      ; call occurs [#_os_task_name_set] ; |287| 
    1465              L28:    
    1466                      .dwpsn  "ucshell.c",289,2
    1467 00000214 761F-         MOVW      DP,#_m_ucshell_flag
         00000215 0000 
    1468 00000216 1A00-         OR        @_m_ucshell_flag,#0x0004 ; |289| 
         00000217 0004 
    1469                      .dwpsn  "ucshell.c",290,2
TMS320C2000 COFF Assembler PC v4.1.3 Fri Sep 10 14:13:16 2010

Tools Copyright (c) 1996-2006 Texas Instruments Incorporated
C:\DOCUME~1\ADMINI~1\LOCALS~1\Temp\TI0163                            PAGE   31

    1470                      .dwpsn  "ucshell.c",291,1
    1471 00000218 FE82          SUBB      SP,#2
    1472                      .dwcfa  0x1d, -2
    1473 00000219 0006          LRETR
    1474                      ; return occurs
    1475                      .dwattr DW$121, DW_AT_end_file("ucshell.c")
    1476                      .dwattr DW$121, DW_AT_end_line(0x123)
    1477                      .dwattr DW$121, DW_AT_end_column(0x01)
    1478                      .dwendentry
    1479                      .dwendtag DW$121
    1480              
    1481 0000021a               .sect   ".text"
    1482                      .global _ucshell_cmd_kill
    1483              
    1484              DW$124  .dwtag  DW_TAG_subprogram, DW_AT_name("ucshell_cmd_kill"), DW_AT_symbol_name("_ucshell_cmd_kill")
    1485                      .dwattr DW$124, DW_AT_low_pc(_ucshell_cmd_kill)
    1486                      .dwattr DW$124, DW_AT_high_pc(0x00)
    1487                      .dwattr DW$124, DW_AT_begin_file("ucshell.c")
    1488                      .dwattr DW$124, DW_AT_begin_line(0x12d)
    1489                      .dwattr DW$124, DW_AT_begin_column(0x06)
    1490                      .dwpsn  "ucshell.c",302,1
    1491              
    1492                      .dwfde DW$CIE
    1493              
    1494              ;***************************************************************
    1495              ;* FNAME: _ucshell_cmd_kill             FR SIZE:   6           *
    1496              ;*                                                             *
    1497              ;* FUNCTION ENVIRONMENT                                        *
    1498              ;*                                                             *
    1499              ;* FUNCTION PROPERTIES                                         *
    1500              ;*                            0 Parameter,  5 Auto,  0 SOE     *
    1501              ;***************************************************************
    1502              
    1503              _ucshell_cmd_kill:
    1504                      .dwcfa  0x1d, -2
    1505                      .dwcfa  0x1c, 26, 0
    1506                      .dwcfa  0x09, 40, 26
    1507 0000021a FE06          ADDB      SP,#6
    1508                      .dwcfa  0x1d, -8
    1509              ;* AR4   assigned to _arg
    1510              DW$125  .dwtag  DW_TAG_formal_parameter, DW_AT_name("arg"), DW_AT_symbol_name("_arg")
    1511                      .dwattr DW$125, DW_AT_type(*DW$T$3)
    1512                      .dwattr DW$125, DW_AT_location[DW_OP_reg12]
    1513              DW$126  .dwtag  DW_TAG_variable, DW_AT_name("arg"), DW_AT_symbol_name("_arg")
    1514                      .dwattr DW$126, DW_AT_type(*DW$T$3)
    1515                      .dwattr DW$126, DW_AT_location[DW_OP_breg20 -2]
    1516              DW$127  .dwtag  DW_TAG_variable, DW_AT_name("pch"), DW_AT_symbol_name("_pch")
    1517                      .dwattr DW$127, DW_AT_type(*DW$T$33)
    1518                      .dwattr DW$127, DW_AT_location[DW_OP_breg20 -4]
    1519              DW$128  .dwtag  DW_TAG_variable, DW_AT_name("pro"), DW_AT_symbol_name("_pro")
    1520                      .dwattr DW$128, DW_AT_type(*DW$T$25)
    1521                      .dwattr DW$128, DW_AT_location[DW_OP_breg20 -5]
    1522 0000021b A842          MOVL      *-SP[2],XAR4          ; |302| 
    1523                      .dwpsn  "ucshell.c",303,11
    1524 0000021c 0642          MOVL      ACC,*-SP[2]           ; |303| 
TMS320C2000 COFF Assembler PC v4.1.3 Fri Sep 10 14:13:16 2010

Tools Copyright (c) 1996-2006 Texas Instruments Incorporated
C:\DOCUME~1\ADMINI~1\LOCALS~1\Temp\TI0163                            PAGE   32

    1525 0000021d 1E44          MOVL      *-SP[4],ACC           ; |303| 
    1526                      .dwpsn  "ucshell.c",305,2
    1527 0000021e 6F04          B         L30,UNC               ; |305| 
    1528                      ; branch occurs ; |305| 
    1529              L29:    
    1530              DW$L$_ucshell_cmd_kill$2$B:
    1531                      .dwpsn  "ucshell.c",305,23
    1532 0000021f 0201          MOVB      ACC,#1
    1533 00000220 5601          ADDL      *-SP[4],ACC           ; |305| 
         00000221 0044 
    1534              DW$L$_ucshell_cmd_kill$2$E:
    1535              L30:    
    1536              DW$L$_ucshell_cmd_kill$3$B:
    1537                      .dwpsn  "ucshell.c",305,10
    1538 00000222 8A44          MOVL      XAR4,*-SP[4]          ; |305| 
    1539 00000223 92C4          MOV       AL,*+XAR4[0]          ; |305| 
    1540 00000224 5220          CMPB      AL,#32                ; |305| 
    1541 00000225 EDFA          BF        L29,NEQ               ; |305| 
    1542                      ; branchcc occurs ; |305| 
    1543              DW$L$_ucshell_cmd_kill$3$E:
    1544                      .dwpsn  "ucshell.c",306,2
    1545 00000226 6F04          B         L32,UNC               ; |306| 
    1546                      ; branch occurs ; |306| 
    1547              L31:    
    1548              DW$L$_ucshell_cmd_kill$5$B:
    1549                      .dwpsn  "ucshell.c",306,23
    1550 00000227 0201          MOVB      ACC,#1
    1551 00000228 5601          ADDL      *-SP[4],ACC           ; |306| 
         00000229 0044 
    1552              DW$L$_ucshell_cmd_kill$5$E:
    1553              L32:    
    1554              DW$L$_ucshell_cmd_kill$6$B:
    1555                      .dwpsn  "ucshell.c",306,10
    1556 0000022a 8A44          MOVL      XAR4,*-SP[4]          ; |306| 
    1557 0000022b 92C4          MOV       AL,*+XAR4[0]          ; |306| 
    1558 0000022c 5220          CMPB      AL,#32                ; |306| 
    1559 0000022d ECFA          BF        L31,EQ                ; |306| 
    1560                      ; branchcc occurs ; |306| 
    1561              DW$L$_ucshell_cmd_kill$6$E:
    1562                      .dwpsn  "ucshell.c",307,2
    1563 0000022e 8A44          MOVL      XAR4,*-SP[4]          ; |307| 
    1564 0000022f 92C4          MOV       AL,*+XAR4[0]          ; |307| 
    1565 00000230 EC07          BF        L33,EQ                ; |307| 
    1566                      ; branchcc occurs ; |307| 
    1567                      .dwpsn  "ucshell.c",307,19
    1568                      .dwpsn  "ucshell.c",308,2
    1569 00000231 8A44          MOVL      XAR4,*-SP[4]          ; |308| 
    1570 00000232 7640!         LCR       #_atoi                ; |308| 
         00000233 0000 
    1571                      ; call occurs [#_atoi] ; |308| 
    1572 00000234 9645          MOV       *-SP[5],AL            ; |308| 
    1573                      .dwpsn  "ucshell.c",315,2
    1574 00000235 7640!         LCR       #_os_task_delete      ; |315| 
         00000236 0000 
    1575                      ; call occurs [#_os_task_delete] ; |315| 
TMS320C2000 COFF Assembler PC v4.1.3 Fri Sep 10 14:13:16 2010

Tools Copyright (c) 1996-2006 Texas Instruments Incorporated
C:\DOCUME~1\ADMINI~1\LOCALS~1\Temp\TI0163                            PAGE   33

    1576                      .dwpsn  "ucshell.c",316,2
    1577              L33:    
    1578                      .dwpsn  "ucshell.c",317,1
    1579 00000237 FE86          SUBB      SP,#6
    1580                      .dwcfa  0x1d, -2
    1581 00000238 0006          LRETR
    1582                      ; return occurs
    1583              
    1584              DW$129  .dwtag  DW_TAG_loop
    1585                      .dwattr DW$129, DW_AT_name("C:\DOCUME~1\ADMINI~1\LOCALS~1\Temp\TI0163:L32:1:1284099196")
    1586                      .dwattr DW$129, DW_AT_begin_file("ucshell.c")
    1587                      .dwattr DW$129, DW_AT_begin_line(0x132)
    1588                      .dwattr DW$129, DW_AT_end_line(0x132)
    1589              DW$130  .dwtag  DW_TAG_loop_range
    1590                      .dwattr DW$130, DW_AT_low_pc(DW$L$_ucshell_cmd_kill$6$B)
    1591                      .dwattr DW$130, DW_AT_high_pc(DW$L$_ucshell_cmd_kill$6$E)
    1592              DW$131  .dwtag  DW_TAG_loop_range
    1593                      .dwattr DW$131, DW_AT_low_pc(DW$L$_ucshell_cmd_kill$5$B)
    1594                      .dwattr DW$131, DW_AT_high_pc(DW$L$_ucshell_cmd_kill$5$E)
    1595                      .dwendtag DW$129
    1596              
    1597              
    1598              DW$132  .dwtag  DW_TAG_loop
    1599                      .dwattr DW$132, DW_AT_name("C:\DOCUME~1\ADMINI~1\LOCALS~1\Temp\TI0163:L30:1:1284099196")
    1600                      .dwattr DW$132, DW_AT_begin_file("ucshell.c")
    1601                      .dwattr DW$132, DW_AT_begin_line(0x131)
    1602                      .dwattr DW$132, DW_AT_end_line(0x131)
    1603              DW$133  .dwtag  DW_TAG_loop_range
    1604                      .dwattr DW$133, DW_AT_low_pc(DW$L$_ucshell_cmd_kill$3$B)
    1605                      .dwattr DW$133, DW_AT_high_pc(DW$L$_ucshell_cmd_kill$3$E)
    1606              DW$134  .dwtag  DW_TAG_loop_range
    1607                      .dwattr DW$134, DW_AT_low_pc(DW$L$_ucshell_cmd_kill$2$B)
    1608                      .dwattr DW$134, DW_AT_high_pc(DW$L$_ucshell_cmd_kill$2$E)
    1609                      .dwendtag DW$132
    1610              
    1611                      .dwattr DW$124, DW_AT_end_file("ucshell.c")
    1612                      .dwattr DW$124, DW_AT_end_line(0x13d)
    1613                      .dwattr DW$124, DW_AT_end_column(0x01)
    1614                      .dwendentry
    1615                      .dwendtag DW$124
    1616              
    1617 00000239               .sect   ".text"
    1618                      .global _ucshell_cmd_help
    1619              
    1620              DW$135  .dwtag  DW_TAG_subprogram, DW_AT_name("ucshell_cmd_help"), DW_AT_symbol_name("_ucshell_cmd_help")
    1621                      .dwattr DW$135, DW_AT_low_pc(_ucshell_cmd_help)
    1622                      .dwattr DW$135, DW_AT_high_pc(0x00)
    1623                      .dwattr DW$135, DW_AT_begin_file("ucshell.c")
    1624                      .dwattr DW$135, DW_AT_begin_line(0x154)
    1625                      .dwattr DW$135, DW_AT_begin_column(0x06)
    1626                      .dwpsn  "ucshell.c",341,1
    1627              
    1628                      .dwfde DW$CIE
    1629              
    1630              ;***************************************************************
TMS320C2000 COFF Assembler PC v4.1.3 Fri Sep 10 14:13:16 2010

Tools Copyright (c) 1996-2006 Texas Instruments Incorporated
C:\DOCUME~1\ADMINI~1\LOCALS~1\Temp\TI0163                            PAGE   34

    1631              ;* FNAME: _ucshell_cmd_help             FR SIZE:   4           *
    1632              ;*                                                             *
    1633              ;* FUNCTION ENVIRONMENT                                        *
    1634              ;*                                                             *
    1635              ;* FUNCTION PROPERTIES                                         *
    1636              ;*                            0 Parameter,  3 Auto,  0 SOE     *
    1637              ;***************************************************************
    1638              
    1639              _ucshell_cmd_help:
    1640                      .dwcfa  0x1d, -2
    1641                      .dwcfa  0x1c, 26, 0
    1642                      .dwcfa  0x09, 40, 26
    1643 00000239 FE04          ADDB      SP,#4
    1644                      .dwcfa  0x1d, -6
    1645              ;* AR4   assigned to _arg
    1646              DW$136  .dwtag  DW_TAG_formal_parameter, DW_AT_name("arg"), DW_AT_symbol_name("_arg")
    1647                      .dwattr DW$136, DW_AT_type(*DW$T$3)
    1648                      .dwattr DW$136, DW_AT_location[DW_OP_reg12]
    1649              DW$137  .dwtag  DW_TAG_variable, DW_AT_name("arg"), DW_AT_symbol_name("_arg")
    1650                      .dwattr DW$137, DW_AT_type(*DW$T$3)
    1651                      .dwattr DW$137, DW_AT_location[DW_OP_breg20 -2]
    1652              DW$138  .dwtag  DW_TAG_variable, DW_AT_name("index"), DW_AT_symbol_name("_index")
    1653                      .dwattr DW$138, DW_AT_type(*DW$T$32)
    1654                      .dwattr DW$138, DW_AT_location[DW_OP_breg20 -3]
    1655 0000023a A842          MOVL      *-SP[2],XAR4          ; |341| 
    1656                      .dwpsn  "ucshell.c",343,2
    1657 0000023b 761F!         MOVW      DP,#_m_log_pram+26
         0000023c 0000 
    1658 0000023d 8F00!         MOVL      XAR4,#_m_null_pram    ; |343| 
         0000023e 0000 
    1659 0000023f A81A!         MOVL      @_m_log_pram+26,XAR4  ; |343| 
    1660 00000240 A81C!         MOVL      @_m_log_pram+28,XAR4  ; |343| 
    1661 00000241 8F40!         MOVL      XAR5,#_m_log_pram     ; |343| 
         00000242 0000 
    1662 00000243 8F00+         MOVL      XAR4,#FSL31           ; |343| 
         00000244 02F4 
    1663 00000245 7640!         LCR       #_log_printf          ; |343| 
         00000246 0000 
    1664                      ; call occurs [#_log_printf] ; |343| 
    1665                      .dwpsn  "ucshell.c",344,8
    1666 00000247 2B43          MOV       *-SP[3],#0            ; |344| 
    1667                      .dwpsn  "ucshell.c",344,18
    1668 00000248 9243          MOV       AL,*-SP[3]            ; |344| 
    1669 00000249 5208          CMPB      AL,#8                 ; |344| 
    1670 0000024a 6719          B         L35,HIS               ; |344| 
    1671                      ; branchcc occurs ; |344| 
    1672              L34:    
    1673              DW$L$_ucshell_cmd_help$2$B:
    1674                      .dwpsn  "ucshell.c",346,3
    1675 0000024b 5CAD          MOVZ      AR4,SP                ; |346| 
    1676 0000024c 28AC          MOV       T,#6                  ; |346| 
         0000024d 0006 
    1677 0000024e 761F!         MOVW      DP,#_m_log_pram+26
         0000024f 0000 
    1678 00000250 DC83          SUBB      XAR4,#3               ; |346| 
TMS320C2000 COFF Assembler PC v4.1.3 Fri Sep 10 14:13:16 2010

Tools Copyright (c) 1996-2006 Texas Instruments Incorporated
C:\DOCUME~1\ADMINI~1\LOCALS~1\Temp\TI0163                            PAGE   35

    1679 00000251 3043          MPYXU     ACC,T,*-SP[3]         ; |346| 
    1680 00000252 A81A!         MOVL      @_m_log_pram+26,XAR4  ; |346| 
    1681 00000253 8F00+         MOVL      XAR4,#_m_cmd_manege_tab+4 ; |346| 
         00000254 0004 
    1682 00000255 5601          ADDL      XAR4,ACC
         00000256 00A4 
    1683 00000257 8F40!         MOVL      XAR5,#_m_log_pram     ; |346| 
         00000258 0000 
    1684 00000259 06C4          MOVL      ACC,*+XAR4[0]         ; |346| 
    1685 0000025a 1E1C!         MOVL      @_m_log_pram+28,ACC   ; |346| 
    1686 0000025b 8F00+         MOVL      XAR4,#FSL32           ; |346| 
         0000025c 032A 
    1687 0000025d 7640!         LCR       #_log_printf          ; |346| 
         0000025e 0000 
    1688                      ; call occurs [#_log_printf] ; |346| 
    1689                      .dwpsn  "ucshell.c",344,60
    1690 0000025f 0A43          INC       *-SP[3]               ; |344| 
    1691                      .dwpsn  "ucshell.c",344,18
    1692 00000260 9243          MOV       AL,*-SP[3]            ; |344| 
    1693 00000261 5208          CMPB      AL,#8                 ; |344| 
    1694 00000262 68E9          B         L34,LO                ; |344| 
    1695                      ; branchcc occurs ; |344| 
    1696              DW$L$_ucshell_cmd_help$2$E:
    1697              L35:    
    1698                      .dwpsn  "ucshell.c",348,2
    1699 00000263 8F00!         MOVL      XAR4,#_m_null_pram    ; |348| 
         00000264 0000 
    1700 00000265 761F!         MOVW      DP,#_m_log_pram+26
         00000266 0000 
    1701 00000267 8F40!         MOVL      XAR5,#_m_log_pram     ; |348| 
         00000268 0000 
    1702 00000269 A81A!         MOVL      @_m_log_pram+26,XAR4  ; |348| 
    1703 0000026a A81C!         MOVL      @_m_log_pram+28,XAR4  ; |348| 
    1704 0000026b 8F00+         MOVL      XAR4,#FSL33           ; |348| 
         0000026c 0332 
    1705 0000026d 7640!         LCR       #_log_printf          ; |348| 
         0000026e 0000 
    1706                      ; call occurs [#_log_printf] ; |348| 
    1707                      .dwpsn  "ucshell.c",349,2
    1708                      .dwpsn  "ucshell.c",350,1
    1709 0000026f FE84          SUBB      SP,#4
    1710                      .dwcfa  0x1d, -2
    1711 00000270 0006          LRETR
    1712                      ; return occurs
    1713              
    1714              DW$139  .dwtag  DW_TAG_loop
    1715                      .dwattr DW$139, DW_AT_name("C:\DOCUME~1\ADMINI~1\LOCALS~1\Temp\TI0163:L34:1:1284099196")
    1716                      .dwattr DW$139, DW_AT_begin_file("ucshell.c")
    1717                      .dwattr DW$139, DW_AT_begin_line(0x158)
    1718                      .dwattr DW$139, DW_AT_end_line(0x15b)
    1719              DW$140  .dwtag  DW_TAG_loop_range
    1720                      .dwattr DW$140, DW_AT_low_pc(DW$L$_ucshell_cmd_help$2$B)
    1721                      .dwattr DW$140, DW_AT_high_pc(DW$L$_ucshell_cmd_help$2$E)
    1722                      .dwendtag DW$139
    1723              
TMS320C2000 COFF Assembler PC v4.1.3 Fri Sep 10 14:13:16 2010

Tools Copyright (c) 1996-2006 Texas Instruments Incorporated
C:\DOCUME~1\ADMINI~1\LOCALS~1\Temp\TI0163                            PAGE   36

    1724                      .dwattr DW$135, DW_AT_end_file("ucshell.c")
    1725                      .dwattr DW$135, DW_AT_end_line(0x15e)
    1726                      .dwattr DW$135, DW_AT_end_column(0x01)
    1727                      .dwendentry
    1728                      .dwendtag DW$135
    1729              
    1730 00000271               .sect   ".text"
    1731                      .global _ucshell_cmd_prompt_msg
    1732              
    1733              DW$141  .dwtag  DW_TAG_subprogram, DW_AT_name("ucshell_cmd_prompt_msg"), DW_AT_symbol_name("_ucshell_cmd_prom
    1734                      .dwattr DW$141, DW_AT_low_pc(_ucshell_cmd_prompt_msg)
    1735                      .dwattr DW$141, DW_AT_high_pc(0x00)
    1736                      .dwattr DW$141, DW_AT_begin_file("ucshell.c")
    1737                      .dwattr DW$141, DW_AT_begin_line(0x167)
    1738                      .dwattr DW$141, DW_AT_begin_column(0x06)
    1739                      .dwpsn  "ucshell.c",360,1
    1740              
    1741                      .dwfde DW$CIE
    1742              
    1743              ;***************************************************************
    1744              ;* FNAME: _ucshell_cmd_prompt_msg       FR SIZE:   0           *
    1745              ;*                                                             *
    1746              ;* FUNCTION ENVIRONMENT                                        *
    1747              ;*                                                             *
    1748              ;* FUNCTION PROPERTIES                                         *
    1749              ;*                            0 Parameter,  0 Auto,  0 SOE     *
    1750              ;***************************************************************
    1751              
    1752              _ucshell_cmd_prompt_msg:
    1753                      .dwcfa  0x1d, -2
    1754                      .dwcfa  0x1c, 26, 0
    1755                      .dwcfa  0x09, 40, 26
    1756                      .dwpsn  "ucshell.c",361,2
    1757 00000271 8F00!         MOVL      XAR4,#_m_null_pram    ; |361| 
         00000272 0000 
    1758 00000273 761F!         MOVW      DP,#_m_log_pram+26
         00000274 0000 
    1759 00000275 8F40!         MOVL      XAR5,#_m_log_pram     ; |361| 
         00000276 0000 
    1760 00000277 A81A!         MOVL      @_m_log_pram+26,XAR4  ; |361| 
    1761 00000278 A81C!         MOVL      @_m_log_pram+28,XAR4  ; |361| 
    1762 00000279 8F00+         MOVL      XAR4,#FSL34           ; |361| 
         0000027a 0368 
    1763 0000027b 7640!         LCR       #_log_printf          ; |361| 
         0000027c 0000 
    1764                      ; call occurs [#_log_printf] ; |361| 
    1765                      .dwpsn  "ucshell.c",362,2
    1766 0000027d 761F!         MOVW      DP,#_m_log_pram+26
         0000027e 0000 
    1767 0000027f 8F00!         MOVL      XAR4,#_m_null_pram    ; |362| 
         00000280 0000 
    1768 00000281 A81A!         MOVL      @_m_log_pram+26,XAR4  ; |362| 
    1769 00000282 A81C!         MOVL      @_m_log_pram+28,XAR4  ; |362| 
    1770 00000283 8F40!         MOVL      XAR5,#_m_log_pram     ; |362| 
         00000284 0000 
TMS320C2000 COFF Assembler PC v4.1.3 Fri Sep 10 14:13:16 2010

Tools Copyright (c) 1996-2006 Texas Instruments Incorporated
C:\DOCUME~1\ADMINI~1\LOCALS~1\Temp\TI0163                            PAGE   37

    1771 00000285 8F00+         MOVL      XAR4,#FSL33           ; |362| 
         00000286 0332 
    1772 00000287 7640!         LCR       #_log_printf          ; |362| 
         00000288 0000 
    1773                      ; call occurs [#_log_printf] ; |362| 
    1774                      .dwpsn  "ucshell.c",363,2
    1775 00000289 761F!         MOVW      DP,#_m_log_pram+26
         0000028a 0000 
    1776 0000028b 8F00!         MOVL      XAR4,#_m_null_pram    ; |363| 
         0000028c 0000 
    1777 0000028d A81A!         MOVL      @_m_log_pram+26,XAR4  ; |363| 
    1778 0000028e A81C!         MOVL      @_m_log_pram+28,XAR4  ; |363| 
    1779 0000028f 8F40!         MOVL      XAR5,#_m_log_pram     ; |363| 
         00000290 0000 
    1780 00000291 8F00+         MOVL      XAR4,#FSL35           ; |363| 
         00000292 036C 
    1781 00000293 7640!         LCR       #_log_printf          ; |363| 
         00000294 0000 
    1782                      ; call occurs [#_log_printf] ; |363| 
    1783                      .dwpsn  "ucshell.c",364,2
    1784 00000295 761F!         MOVW      DP,#_m_log_pram+26
         00000296 0000 
    1785 00000297 8F00!         MOVL      XAR4,#_m_null_pram    ; |364| 
         00000298 0000 
    1786 00000299 A81A!         MOVL      @_m_log_pram+26,XAR4  ; |364| 
    1787 0000029a A81C!         MOVL      @_m_log_pram+28,XAR4  ; |364| 
    1788 0000029b 8F40!         MOVL      XAR5,#_m_log_pram     ; |364| 
         0000029c 0000 
    1789 0000029d 8F00+         MOVL      XAR4,#FSL36           ; |364| 
         0000029e 038C 
    1790 0000029f 7640!         LCR       #_log_printf          ; |364| 
         000002a0 0000 
    1791                      ; call occurs [#_log_printf] ; |364| 
    1792                      .dwpsn  "ucshell.c",365,2
    1793 000002a1 761F!         MOVW      DP,#_m_log_pram+26
         000002a2 0000 
    1794 000002a3 8F00!         MOVL      XAR4,#_m_null_pram    ; |365| 
         000002a4 0000 
    1795 000002a5 A81A!         MOVL      @_m_log_pram+26,XAR4  ; |365| 
    1796 000002a6 A81C!         MOVL      @_m_log_pram+28,XAR4  ; |365| 
    1797 000002a7 8F40!         MOVL      XAR5,#_m_log_pram     ; |365| 
         000002a8 0000 
    1798 000002a9 8F00+         MOVL      XAR4,#FSL37           ; |365| 
         000002aa 03C2 
    1799 000002ab 7640!         LCR       #_log_printf          ; |365| 
         000002ac 0000 
    1800                      ; call occurs [#_log_printf] ; |365| 
    1801                      .dwpsn  "ucshell.c",366,2
    1802 000002ad 761F!         MOVW      DP,#_m_log_pram+26
         000002ae 0000 
    1803 000002af 8F00!         MOVL      XAR4,#_m_null_pram    ; |366| 
         000002b0 0000 
    1804 000002b1 A81A!         MOVL      @_m_log_pram+26,XAR4  ; |366| 
    1805 000002b2 A81C!         MOVL      @_m_log_pram+28,XAR4  ; |366| 
    1806 000002b3 8F40!         MOVL      XAR5,#_m_log_pram     ; |366| 
TMS320C2000 COFF Assembler PC v4.1.3 Fri Sep 10 14:13:16 2010

Tools Copyright (c) 1996-2006 Texas Instruments Incorporated
C:\DOCUME~1\ADMINI~1\LOCALS~1\Temp\TI0163                            PAGE   38

         000002b4 0000 
    1807 000002b5 8F00+         MOVL      XAR4,#FSL33           ; |366| 
         000002b6 0332 
    1808 000002b7 7640!         LCR       #_log_printf          ; |366| 
         000002b8 0000 
    1809                      ; call occurs [#_log_printf] ; |366| 
    1810                      .dwpsn  "ucshell.c",367,2
    1811 000002b9 9A03          MOVB      AL,#3                 ; |367| 
    1812 000002ba 7640!         LCR       #_OSTimeDly           ; |367| 
         000002bb 0000 
    1813                      ; call occurs [#_OSTimeDly] ; |367| 
    1814                      .dwpsn  "ucshell.c",368,2
    1815                      .dwpsn  "ucshell.c",369,1
    1816 000002bc 0006          LRETR
    1817                      ; return occurs
    1818                      .dwattr DW$141, DW_AT_end_file("ucshell.c")
    1819                      .dwattr DW$141, DW_AT_end_line(0x171)
    1820                      .dwattr DW$141, DW_AT_end_column(0x01)
    1821                      .dwendentry
    1822                      .dwendtag DW$141
    1823              
    1824 000002bd               .sect   ".text"
    1825                      .global _ucshell_match_cmd
    1826              
    1827              DW$142  .dwtag  DW_TAG_subprogram, DW_AT_name("ucshell_match_cmd"), DW_AT_symbol_name("_ucshell_match_cmd")
    1828                      .dwattr DW$142, DW_AT_low_pc(_ucshell_match_cmd)
    1829                      .dwattr DW$142, DW_AT_high_pc(0x00)
    1830                      .dwattr DW$142, DW_AT_begin_file("ucshell.c")
    1831                      .dwattr DW$142, DW_AT_begin_line(0x17a)
    1832                      .dwattr DW$142, DW_AT_begin_column(0x09)
    1833                      .dwpsn  "ucshell.c",379,1
    1834              
    1835                      .dwfde DW$CIE
    1836              
    1837              ;***************************************************************
    1838              ;* FNAME: _ucshell_match_cmd            FR SIZE:  16           *
    1839              ;*                                                             *
    1840              ;* FUNCTION ENVIRONMENT                                        *
    1841              ;*                                                             *
    1842              ;* FUNCTION PROPERTIES                                         *
    1843              ;*                            0 Parameter, 16 Auto,  0 SOE     *
    1844              ;***************************************************************
    1845              
    1846              _ucshell_match_cmd:
    1847                      .dwcfa  0x1d, -2
    1848                      .dwcfa  0x1c, 26, 0
    1849                      .dwcfa  0x09, 40, 26
    1850 000002bd FE10          ADDB      SP,#16
    1851                      .dwcfa  0x1d, -18
    1852              ;* AR4   assigned to _pcmd
    1853              DW$143  .dwtag  DW_TAG_formal_parameter, DW_AT_name("pcmd"), DW_AT_symbol_name("_pcmd")
    1854                      .dwattr DW$143, DW_AT_type(*DW$T$33)
    1855                      .dwattr DW$143, DW_AT_location[DW_OP_reg12]
    1856              ;* AL    assigned to _size
    1857              DW$144  .dwtag  DW_TAG_formal_parameter, DW_AT_name("size"), DW_AT_symbol_name("_size")
TMS320C2000 COFF Assembler PC v4.1.3 Fri Sep 10 14:13:16 2010

Tools Copyright (c) 1996-2006 Texas Instruments Incorporated
C:\DOCUME~1\ADMINI~1\LOCALS~1\Temp\TI0163                            PAGE   39

    1858                      .dwattr DW$144, DW_AT_type(*DW$T$32)
    1859                      .dwattr DW$144, DW_AT_location[DW_OP_reg0]
    1860              DW$145  .dwtag  DW_TAG_variable, DW_AT_name("pcmd"), DW_AT_symbol_name("_pcmd")
    1861                      .dwattr DW$145, DW_AT_type(*DW$T$33)
    1862                      .dwattr DW$145, DW_AT_location[DW_OP_breg20 -2]
    1863              DW$146  .dwtag  DW_TAG_variable, DW_AT_name("size"), DW_AT_symbol_name("_size")
    1864                      .dwattr DW$146, DW_AT_type(*DW$T$32)
    1865                      .dwattr DW$146, DW_AT_location[DW_OP_breg20 -3]
    1866              DW$147  .dwtag  DW_TAG_variable, DW_AT_name("index"), DW_AT_symbol_name("_index")
    1867                      .dwattr DW$147, DW_AT_type(*DW$T$32)
    1868                      .dwattr DW$147, DW_AT_location[DW_OP_breg20 -4]
    1869              DW$148  .dwtag  DW_TAG_variable, DW_AT_name("tbuf"), DW_AT_symbol_name("_tbuf")
    1870                      .dwattr DW$148, DW_AT_type(*DW$T$81)
    1871                      .dwattr DW$148, DW_AT_location[DW_OP_breg20 -16]
    1872 000002be 9643          MOV       *-SP[3],AL            ; |379| 
    1873 000002bf A842          MOVL      *-SP[2],XAR4          ; |379| 
    1874                      .dwpsn  "ucshell.c",382,2
    1875 000002c0 9243          MOV       AL,*-SP[3]            ; |382| 
    1876 000002c1 ED03          BF        L36,NEQ               ; |382| 
    1877                      ; branchcc occurs ; |382| 
    1878                      .dwpsn  "ucshell.c",382,19
    1879 000002c2 9AFF          MOVB      AL,#255               ; |382| 
    1880 000002c3 6F61          B         L43,UNC               ; |382| 
    1881                      ; branch occurs ; |382| 
    1882              L36:    
    1883                      .dwpsn  "ucshell.c",383,8
    1884 000002c4 2B44          MOV       *-SP[4],#0            ; |383| 
    1885                      .dwpsn  "ucshell.c",383,18
    1886 000002c5 9243          MOV       AL,*-SP[3]            ; |383| 
    1887 000002c6 5444          CMP       AL,*-SP[4]            ; |383| 
    1888 000002c7 690F          B         L38,LOS               ; |383| 
    1889                      ; branchcc occurs ; |383| 
    1890              L37:    
    1891              DW$L$_ucshell_match_cmd$4$B:
    1892                      .dwpsn  "ucshell.c",385,3
    1893 000002c8 5844          MOVZ      AR0,*-SP[4]           ; |385| 
    1894 000002c9 8A42          MOVL      XAR4,*-SP[2]          ; |385| 
    1895 000002ca 9294          MOV       AL,*+XAR4[AR0]        ; |385| 
    1896 000002cb 9B01          MOVB      AH,#1                 ; |385| 
    1897 000002cc 7640!         LCR       #_global_adjust_letter_module ; |385| 
         000002cd 0000 
    1898                      ; call occurs [#_global_adjust_letter_module] ; |385| 
    1899 000002ce 5CAD          MOVZ      AR4,SP                ; |385| 
    1900 000002cf 5844          MOVZ      AR0,*-SP[4]           ; |385| 
    1901 000002d0 DC90          SUBB      XAR4,#16              ; |385| 
    1902 000002d1 9694          MOV       *+XAR4[AR0],AL        ; |385| 
    1903                      .dwpsn  "ucshell.c",383,31
    1904 000002d2 0A44          INC       *-SP[4]               ; |383| 
    1905                      .dwpsn  "ucshell.c",383,18
    1906 000002d3 9243          MOV       AL,*-SP[3]            ; |383| 
    1907 000002d4 5444          CMP       AL,*-SP[4]            ; |383| 
    1908 000002d5 66F3          B         L37,HI                ; |383| 
    1909                      ; branchcc occurs ; |383| 
    1910              DW$L$_ucshell_match_cmd$4$E:
    1911              L38:    
TMS320C2000 COFF Assembler PC v4.1.3 Fri Sep 10 14:13:16 2010

Tools Copyright (c) 1996-2006 Texas Instruments Incorporated
C:\DOCUME~1\ADMINI~1\LOCALS~1\Temp\TI0163                            PAGE   40

    1912                      .dwpsn  "ucshell.c",388,8
    1913 000002d6 2B44          MOV       *-SP[4],#0            ; |388| 
    1914                      .dwpsn  "ucshell.c",388,18
    1915 000002d7 9244          MOV       AL,*-SP[4]            ; |388| 
    1916 000002d8 5208          CMPB      AL,#8                 ; |388| 
    1917 000002d9 673E          B         L42,HIS               ; |388| 
    1918                      ; branchcc occurs ; |388| 
    1919              L39:    
    1920              DW$L$_ucshell_match_cmd$6$B:
    1921                      .dwpsn  "ucshell.c",390,3
    1922 000002da 28AC          MOV       T,#6                  ; |390| 
         000002db 0006 
    1923 000002dc 8F00+         MOVL      XAR4,#_m_cmd_manege_tab ; |390| 
         000002dd 0000 
    1924 000002de 3044          MPYXU     ACC,T,*-SP[4]         ; |390| 
    1925 000002df 5601          ADDL      XAR4,ACC
         000002e0 00A4 
    1926 000002e1 83C4          MOVL      XAR5,*+XAR4[0]        ; |390| 
    1927 000002e2 5CAD          MOVZ      AR4,SP                ; |390| 
    1928 000002e3 9243          MOV       AL,*-SP[3]            ; |390| 
    1929 000002e4 DC90          SUBB      XAR4,#16              ; |390| 
    1930 000002e5 7640!         LCR       #_my_memcp            ; |390| 
         000002e6 0000 
    1931                      ; call occurs [#_my_memcp] ; |390| 
    1932 000002e7 5200          CMPB      AL,#0                 ; |390| 
    1933 000002e8 EC2B          BF        L41,EQ                ; |390| 
    1934                      ; branchcc occurs ; |390| 
    1935 000002e9       DW$L$_ucshell_match_cmd$6$E:
    1936 000002e9       DW$L$_ucshell_match_cmd$7$B:
    1937 000002e9 28AC          MOV       T,#6                  ; |390| 
         000002ea 0006 
    1938 000002eb 8F00+         MOVL      XAR4,#_m_cmd_manege_tab ; |390| 
         000002ec 0000 
    1939 000002ed 3044          MPYXU     ACC,T,*-SP[4]         ; |390| 
    1940 000002ee 5601          ADDL      XAR4,ACC
         000002ef 00A4 
    1941 000002f0 5843          MOVZ      AR0,*-SP[3]           ; |390| 
    1942 000002f1 8AC4          MOVL      XAR4,*+XAR4[0]        ; |390| 
    1943 000002f2 9294          MOV       AL,*+XAR4[AR0]        ; |390| 
    1944 000002f3 ED20          BF        L41,NEQ               ; |390| 
    1945                      ; branchcc occurs ; |390| 
    1946              DW$L$_ucshell_match_cmd$7$E:
    1947                      .dwpsn  "ucshell.c",393,4
    1948 000002f4 28AC          MOV       T,#6                  ; |393| 
         000002f5 0006 
    1949 000002f6 8F00+         MOVL      XAR4,#_m_cmd_manege_tab+2 ; |393| 
         000002f7 0002 
    1950 000002f8 3044          MPYXU     ACC,T,*-SP[4]         ; |393| 
    1951 000002f9 5601          ADDL      XAR4,ACC
         000002fa 00A4 
    1952 000002fb 06C4          MOVL      ACC,*+XAR4[0]         ; |393| 
    1953 000002fc EC15          BF        L40,EQ                ; |393| 
    1954                      ; branchcc occurs ; |393| 
    1955                      .dwpsn  "ucshell.c",395,5
    1956 000002fd 761F-         MOVW      DP,#_m_ucshell_lock
TMS320C2000 COFF Assembler PC v4.1.3 Fri Sep 10 14:13:16 2010

Tools Copyright (c) 1996-2006 Texas Instruments Incorporated
C:\DOCUME~1\ADMINI~1\LOCALS~1\Temp\TI0163                            PAGE   41

         000002fe 0000 
    1957 000002ff 8A04-         MOVL      XAR4,@_m_ucshell_lock ; |395| 
    1958 00000300 7640!         LCR       #_os_lock             ; |395| 
         00000301 0000 
    1959                      ; call occurs [#_os_lock] ; |395| 
    1960                      .dwpsn  "ucshell.c",396,5
    1961 00000302 28AC          MOV       T,#6                  ; |396| 
         00000303 0006 
    1962 00000304 8F00+         MOVL      XAR4,#_m_cmd_manege_tab+2 ; |396| 
         00000305 0002 
    1963 00000306 3044          MPYXU     ACC,T,*-SP[4]         ; |396| 
    1964 00000307 5601          ADDL      XAR4,ACC
         00000308 00A4 
    1965 00000309 C5C4          MOVL      XAR7,*+XAR4[0]        ; |396| 
    1966 0000030a 8A42          MOVL      XAR4,*-SP[2]          ; |396| 
    1967 0000030b 3E67          LCR       *XAR7                 ; |396| 
    1968                      ; call occurs [XAR7] ; |396| 
    1969                      .dwpsn  "ucshell.c",397,5
    1970 0000030c 761F-         MOVW      DP,#_m_ucshell_lock
         0000030d 0000 
    1971 0000030e 8A04-         MOVL      XAR4,@_m_ucshell_lock ; |397| 
    1972 0000030f 7640!         LCR       #_os_unlock           ; |397| 
         00000310 0000 
    1973                      ; call occurs [#_os_unlock] ; |397| 
    1974              L40:    
    1975                      .dwpsn  "ucshell.c",399,4
    1976 00000311 9244          MOV       AL,*-SP[4]            ; |399| 
    1977 00000312 6F12          B         L43,UNC               ; |399| 
    1978                      ; branch occurs ; |399| 
    1979              L41:    
    1980              DW$L$_ucshell_match_cmd$11$B:
    1981                      .dwpsn  "ucshell.c",388,60
    1982 00000313 0A44          INC       *-SP[4]               ; |388| 
    1983                      .dwpsn  "ucshell.c",388,18
    1984 00000314 9244          MOV       AL,*-SP[4]            ; |388| 
    1985 00000315 5208          CMPB      AL,#8                 ; |388| 
    1986 00000316 68C4          B         L39,LO                ; |388| 
    1987                      ; branchcc occurs ; |388| 
    1988              DW$L$_ucshell_match_cmd$11$E:
    1989              L42:    
    1990                      .dwpsn  "ucshell.c",402,2
    1991 00000317 8F00!         MOVL      XAR4,#_m_null_pram    ; |402| 
         00000318 0000 
    1992 00000319 761F!         MOVW      DP,#_m_log_pram+26
         0000031a 0000 
    1993 0000031b 8F40!         MOVL      XAR5,#_m_log_pram     ; |402| 
         0000031c 0000 
    1994 0000031d A81A!         MOVL      @_m_log_pram+26,XAR4  ; |402| 
    1995 0000031e A81C!         MOVL      @_m_log_pram+28,XAR4  ; |402| 
    1996 0000031f 8F00+         MOVL      XAR4,#FSL38           ; |402| 
         00000320 03F8 
    1997 00000321 7640!         LCR       #_log_printf          ; |402| 
         00000322 0000 
    1998                      ; call occurs [#_log_printf] ; |402| 
    1999                      .dwpsn  "ucshell.c",403,2
TMS320C2000 COFF Assembler PC v4.1.3 Fri Sep 10 14:13:16 2010

Tools Copyright (c) 1996-2006 Texas Instruments Incorporated
C:\DOCUME~1\ADMINI~1\LOCALS~1\Temp\TI0163                            PAGE   42

    2000 00000323 9AFF          MOVB      AL,#255               ; |403| 
    2001              L43:    
    2002                      .dwpsn  "ucshell.c",404,1
    2003 00000324 FE90          SUBB      SP,#16                ; |403| 
    2004                      .dwcfa  0x1d, -2
    2005 00000325 0006          LRETR
    2006                      ; return occurs
    2007              
    2008              DW$149  .dwtag  DW_TAG_loop
    2009                      .dwattr DW$149, DW_AT_name("C:\DOCUME~1\ADMINI~1\LOCALS~1\Temp\TI0163:L39:1:1284099196")
    2010                      .dwattr DW$149, DW_AT_begin_file("ucshell.c")
    2011                      .dwattr DW$149, DW_AT_begin_line(0x184)
    2012                      .dwattr DW$149, DW_AT_end_line(0x191)
    2013              DW$150  .dwtag  DW_TAG_loop_range
    2014                      .dwattr DW$150, DW_AT_low_pc(DW$L$_ucshell_match_cmd$6$B)
    2015                      .dwattr DW$150, DW_AT_high_pc(DW$L$_ucshell_match_cmd$6$E)
    2016              DW$151  .dwtag  DW_TAG_loop_range
    2017                      .dwattr DW$151, DW_AT_low_pc(DW$L$_ucshell_match_cmd$7$B)
    2018                      .dwattr DW$151, DW_AT_high_pc(DW$L$_ucshell_match_cmd$7$E)
    2019              DW$152  .dwtag  DW_TAG_loop_range
    2020                      .dwattr DW$152, DW_AT_low_pc(DW$L$_ucshell_match_cmd$11$B)
    2021                      .dwattr DW$152, DW_AT_high_pc(DW$L$_ucshell_match_cmd$11$E)
    2022                      .dwendtag DW$149
    2023              
    2024              
    2025              DW$153  .dwtag  DW_TAG_loop
    2026                      .dwattr DW$153, DW_AT_name("C:\DOCUME~1\ADMINI~1\LOCALS~1\Temp\TI0163:L37:1:1284099196")
    2027                      .dwattr DW$153, DW_AT_begin_file("ucshell.c")
    2028                      .dwattr DW$153, DW_AT_begin_line(0x17f)
    2029                      .dwattr DW$153, DW_AT_end_line(0x183)
    2030              DW$154  .dwtag  DW_TAG_loop_range
    2031                      .dwattr DW$154, DW_AT_low_pc(DW$L$_ucshell_match_cmd$4$B)
    2032                      .dwattr DW$154, DW_AT_high_pc(DW$L$_ucshell_match_cmd$4$E)
    2033                      .dwendtag DW$153
    2034              
    2035                      .dwattr DW$142, DW_AT_end_file("ucshell.c")
    2036                      .dwattr DW$142, DW_AT_end_line(0x194)
    2037                      .dwattr DW$142, DW_AT_end_column(0x01)
    2038                      .dwendentry
    2039                      .dwendtag DW$142
    2040              
    2041 00000326               .sect   ".text"
    2042                      .global _ucshell_wait_cmd_task
    2043              
    2044              DW$155  .dwtag  DW_TAG_subprogram, DW_AT_name("ucshell_wait_cmd_task"), DW_AT_symbol_name("_ucshell_wait_cmd_
    2045                      .dwattr DW$155, DW_AT_low_pc(_ucshell_wait_cmd_task)
    2046                      .dwattr DW$155, DW_AT_high_pc(0x00)
    2047                      .dwattr DW$155, DW_AT_begin_file("ucshell.c")
    2048                      .dwattr DW$155, DW_AT_begin_line(0x19d)
    2049                      .dwattr DW$155, DW_AT_begin_column(0x06)
    2050                      .dwpsn  "ucshell.c",414,1
    2051              
    2052                      .dwfde DW$CIE
    2053              
    2054              ;***************************************************************
TMS320C2000 COFF Assembler PC v4.1.3 Fri Sep 10 14:13:16 2010

Tools Copyright (c) 1996-2006 Texas Instruments Incorporated
C:\DOCUME~1\ADMINI~1\LOCALS~1\Temp\TI0163                            PAGE   43

    2055              ;* FNAME: _ucshell_wait_cmd_task        FR SIZE:  18           *
    2056              ;*                                                             *
    2057              ;* FUNCTION ENVIRONMENT                                        *
    2058              ;*                                                             *
    2059              ;* FUNCTION PROPERTIES                                         *
    2060              ;*                            0 Parameter, 17 Auto,  0 SOE     *
    2061              ;***************************************************************
    2062              
    2063              _ucshell_wait_cmd_task:
    2064                      .dwcfa  0x1d, -2
    2065                      .dwcfa  0x1c, 26, 0
    2066                      .dwcfa  0x09, 40, 26
    2067 00000326 FE12          ADDB      SP,#18
    2068                      .dwcfa  0x1d, -20
    2069              ;* AR4   assigned to _arg
    2070              DW$156  .dwtag  DW_TAG_formal_parameter, DW_AT_name("arg"), DW_AT_symbol_name("_arg")
    2071                      .dwattr DW$156, DW_AT_type(*DW$T$3)
    2072                      .dwattr DW$156, DW_AT_location[DW_OP_reg12]
    2073              DW$157  .dwtag  DW_TAG_variable, DW_AT_name("arg"), DW_AT_symbol_name("_arg")
    2074                      .dwattr DW$157, DW_AT_type(*DW$T$3)
    2075                      .dwattr DW$157, DW_AT_location[DW_OP_breg20 -2]
    2076              DW$158  .dwtag  DW_TAG_variable, DW_AT_name("cmd_buf"), DW_AT_symbol_name("_cmd_buf")
    2077                      .dwattr DW$158, DW_AT_type(*DW$T$81)
    2078                      .dwattr DW$158, DW_AT_location[DW_OP_breg20 -14]
    2079              DW$159  .dwtag  DW_TAG_variable, DW_AT_name("cmd_byte"), DW_AT_symbol_name("_cmd_byte")
    2080                      .dwattr DW$159, DW_AT_type(*DW$T$25)
    2081                      .dwattr DW$159, DW_AT_location[DW_OP_breg20 -15]
    2082              DW$160  .dwtag  DW_TAG_variable, DW_AT_name("offset"), DW_AT_symbol_name("_offset")
    2083                      .dwattr DW$160, DW_AT_type(*DW$T$32)
    2084                      .dwattr DW$160, DW_AT_location[DW_OP_breg20 -16]
    2085              DW$161  .dwtag  DW_TAG_variable, DW_AT_name("cmd_len"), DW_AT_symbol_name("_cmd_len")
    2086                      .dwattr DW$161, DW_AT_type(*DW$T$32)
    2087                      .dwattr DW$161, DW_AT_location[DW_OP_breg20 -17]
    2088 00000327 A842          MOVL      *-SP[2],XAR4          ; |414| 
    2089                      .dwpsn  "ucshell.c",417,10
    2090 00000328 2B50          MOV       *-SP[16],#0           ; |417| 
    2091                      .dwpsn  "ucshell.c",418,10
    2092 00000329 2B51          MOV       *-SP[17],#0           ; |418| 
    2093                      .dwpsn  "ucshell.c",419,2
    2094 0000032a 5CAD          MOVZ      AR4,SP                ; |419| 
    2095 0000032b 9A00          MOVB      AL,#0
    2096 0000032c 9B0C          MOVB      AH,#12                ; |419| 
    2097 0000032d DC8E          SUBB      XAR4,#14              ; |419| 
    2098 0000032e 7640!         LCR       #_my_memset           ; |419| 
         0000032f 0000 
    2099                      ; call occurs [#_my_memset] ; |419| 
    2100                      .dwpsn  "ucshell.c",420,2
    2101 00000330 9A03          MOVB      AL,#3                 ; |420| 
    2102 00000331 7640!         LCR       #_OSTimeDly           ; |420| 
         00000332 0000 
    2103                      ; call occurs [#_OSTimeDly] ; |420| 
    2104                      .dwpsn  "ucshell.c",421,2
    2105 00000333 7640'         LCR       #_ucshell_cmd_prompt_msg ; |421| 
         00000334 0271 
    2106                      ; call occurs [#_ucshell_cmd_prompt_msg] ; |421| 
TMS320C2000 COFF Assembler PC v4.1.3 Fri Sep 10 14:13:16 2010

Tools Copyright (c) 1996-2006 Texas Instruments Incorporated
C:\DOCUME~1\ADMINI~1\LOCALS~1\Temp\TI0163                            PAGE   44

    2107                      .dwpsn  "ucshell.c",422,2
    2108 00000335 761F!         MOVW      DP,#_m_log_pram+26
         00000336 0000 
    2109 00000337 8F00!         MOVL      XAR4,#_m_null_pram    ; |422| 
         00000338 0000 
    2110 00000339 A81A!         MOVL      @_m_log_pram+26,XAR4  ; |422| 
    2111 0000033a A81C!         MOVL      @_m_log_pram+28,XAR4  ; |422| 
    2112 0000033b 8F40!         MOVL      XAR5,#_m_log_pram     ; |422| 
         0000033c 0000 
    2113 0000033d 8F00+         MOVL      XAR4,#FSL39           ; |422| 
         0000033e 0414 
    2114 0000033f 7640!         LCR       #_log_printf          ; |422| 
         00000340 0000 
    2115                      ; call occurs [#_log_printf] ; |422| 
    2116                      .dwpsn  "ucshell.c",423,10
    2117              L44:    
    2118              DW$L$_ucshell_wait_cmd_task$2$B:
    2119                      .dwpsn  "ucshell.c",425,3
    2120 00000341 5CAD          MOVZ      AR4,SP                ; |425| 
    2121 00000342 DC8F          SUBB      XAR4,#15              ; |425| 
    2122 00000343 7640!         LCR       #_log_wait_input_msg  ; |425| 
         00000344 0000 
    2123                      ; call occurs [#_log_wait_input_msg] ; |425| 
    2124 00000345 5201          CMPB      AL,#1                 ; |425| 
    2125 00000346 EDFB          BF        L44,NEQ               ; |425| 
    2126                      ; branchcc occurs ; |425| 
    2127              DW$L$_ucshell_wait_cmd_task$2$E:
    2128              DW$L$_ucshell_wait_cmd_task$3$B:
    2129                      .dwpsn  "ucshell.c",427,4
    2130 00000347 924F          MOV       AL,*-SP[15]           ; |427| 
    2131 00000348 520D          CMPB      AL,#13                ; |427| 
    2132 00000349 ED1E          BF        L46,NEQ               ; |427| 
    2133                      ; branchcc occurs ; |427| 
    2134              DW$L$_ucshell_wait_cmd_task$3$E:
    2135              DW$L$_ucshell_wait_cmd_task$4$B:
    2136                      .dwpsn  "ucshell.c",429,5
    2137 0000034a 9251          MOV       AL,*-SP[17]           ; |429| 
    2138 0000034b ED03          BF        L45,NEQ               ; |429| 
    2139                      ; branchcc occurs ; |429| 
    2140 0000034c       DW$L$_ucshell_wait_cmd_task$4$E:
    2141 0000034c       DW$L$_ucshell_wait_cmd_task$5$B:
    2142 0000034c 9250          MOV       AL,*-SP[16]           ; |429| 
    2143 0000034d 9651          MOV       *-SP[17],AL           ; |429| 
    2144              DW$L$_ucshell_wait_cmd_task$5$E:
    2145              L45:    
    2146              DW$L$_ucshell_wait_cmd_task$6$B:
    2147                      .dwpsn  "ucshell.c",430,5
    2148 0000034e 5CAD          MOVZ      AR4,SP                ; |430| 
    2149 0000034f DC8E          SUBB      XAR4,#14              ; |430| 
    2150 00000350 7640'         LCR       #_ucshell_match_cmd   ; |430| 
         00000351 02BD 
    2151                      ; call occurs [#_ucshell_match_cmd] ; |430| 
    2152                      .dwpsn  "ucshell.c",431,5
    2153 00000352 5CAD          MOVZ      AR4,SP                ; |431| 
    2154 00000353 9A00          MOVB      AL,#0
TMS320C2000 COFF Assembler PC v4.1.3 Fri Sep 10 14:13:16 2010

Tools Copyright (c) 1996-2006 Texas Instruments Incorporated
C:\DOCUME~1\ADMINI~1\LOCALS~1\Temp\TI0163                            PAGE   45

    2155 00000354 DC8E          SUBB      XAR4,#14              ; |431| 
    2156 00000355 9B0C          MOVB      AH,#12                ; |431| 
    2157 00000356 7640!         LCR       #_my_memset           ; |431| 
         00000357 0000 
    2158                      ; call occurs [#_my_memset] ; |431| 
    2159                      .dwpsn  "ucshell.c",432,5
    2160 00000358 2B50          MOV       *-SP[16],#0           ; |432| 
    2161                      .dwpsn  "ucshell.c",433,5
    2162 00000359 2B51          MOV       *-SP[17],#0           ; |433| 
    2163                      .dwpsn  "ucshell.c",434,5
    2164 0000035a 761F!         MOVW      DP,#_m_log_pram+26
         0000035b 0000 
    2165 0000035c 8F00!         MOVL      XAR4,#_m_null_pram    ; |434| 
         0000035d 0000 
    2166 0000035e A81A!         MOVL      @_m_log_pram+26,XAR4  ; |434| 
    2167 0000035f A81C!         MOVL      @_m_log_pram+28,XAR4  ; |434| 
    2168 00000360 8F40!         MOVL      XAR5,#_m_log_pram     ; |434| 
         00000361 0000 
    2169 00000362 8F00+         MOVL      XAR4,#FSL39           ; |434| 
         00000363 0414 
    2170 00000364 7640!         LCR       #_log_printf          ; |434| 
         00000365 0000 
    2171                      ; call occurs [#_log_printf] ; |434| 
    2172                      .dwpsn  "ucshell.c",435,4
    2173 00000366 6FDB          B         L44,UNC               ; |435| 
    2174                      ; branch occurs ; |435| 
    2175              DW$L$_ucshell_wait_cmd_task$6$E:
    2176              L46:    
    2177              DW$L$_ucshell_wait_cmd_task$7$B:
    2178                      .dwpsn  "ucshell.c",436,9
    2179 00000367 5220          CMPB      AL,#32                ; |436| 
    2180 00000368 ED1A          BF        L48,NEQ               ; |436| 
    2181                      ; branchcc occurs ; |436| 
    2182              DW$L$_ucshell_wait_cmd_task$7$E:
    2183              DW$L$_ucshell_wait_cmd_task$8$B:
    2184                      .dwpsn  "ucshell.c",438,5
    2185 00000369 9251          MOV       AL,*-SP[17]           ; |438| 
    2186 0000036a ED03          BF        L47,NEQ               ; |438| 
    2187                      ; branchcc occurs ; |438| 
    2188              DW$L$_ucshell_wait_cmd_task$8$E:
    2189              DW$L$_ucshell_wait_cmd_task$9$B:
    2190                      .dwpsn  "ucshell.c",440,6
    2191 0000036b 9250          MOV       AL,*-SP[16]           ; |440| 
    2192 0000036c 9651          MOV       *-SP[17],AL           ; |440| 
    2193              DW$L$_ucshell_wait_cmd_task$9$E:
    2194              L47:    
    2195              DW$L$_ucshell_wait_cmd_task$10$B:
    2196                      .dwpsn  "ucshell.c",442,5
    2197 0000036d 5CAD          MOVZ      AR4,SP                ; |442| 
    2198 0000036e 5850          MOVZ      AR0,*-SP[16]          ; |442| 
    2199 0000036f 924F          MOV       AL,*-SP[15]           ; |442| 
    2200 00000370 DC8E          SUBB      XAR4,#14              ; |442| 
    2201 00000371 9694          MOV       *+XAR4[AR0],AL        ; |442| 
    2202                      .dwpsn  "ucshell.c",443,5
    2203 00000372 0A50          INC       *-SP[16]              ; |443| 
TMS320C2000 COFF Assembler PC v4.1.3 Fri Sep 10 14:13:16 2010

Tools Copyright (c) 1996-2006 Texas Instruments Incorporated
C:\DOCUME~1\ADMINI~1\LOCALS~1\Temp\TI0163                            PAGE   46

    2204                      .dwpsn  "ucshell.c",444,5
    2205 00000373 5CAD          MOVZ      AR4,SP                ; |444| 
    2206 00000374 761F!         MOVW      DP,#_m_log_pram+26
         00000375 0000 
    2207 00000376 DC8F          SUBB      XAR4,#15              ; |444| 
    2208 00000377 A81A!         MOVL      @_m_log_pram+26,XAR4  ; |444| 
    2209 00000378 8F00!         MOVL      XAR4,#_m_null_pram    ; |444| 
         00000379 0000 
    2210 0000037a A81C!         MOVL      @_m_log_pram+28,XAR4  ; |444| 
    2211 0000037b 8F40!         MOVL      XAR5,#_m_log_pram     ; |444| 
         0000037c 0000 
    2212 0000037d 8F00+         MOVL      XAR4,#FSL40           ; |444| 
         0000037e 041E 
    2213 0000037f 7640!         LCR       #_log_printf          ; |444| 
         00000380 0000 
    2214                      ; call occurs [#_log_printf] ; |444| 
    2215                      .dwpsn  "ucshell.c",445,4
    2216 00000381 6FC0          B         L44,UNC               ; |445| 
    2217                      ; branch occurs ; |445| 
    2218              DW$L$_ucshell_wait_cmd_task$10$E:
    2219              L48:    
    2220              DW$L$_ucshell_wait_cmd_task$11$B:
    2221                      .dwpsn  "ucshell.c",446,9
    2222 00000382 924F          MOV       AL,*-SP[15]           ; |446| 
    2223 00000383 7640!         LCR       #_global_decide_letter ; |446| 
         00000384 0000 
    2224                      ; call occurs [#_global_decide_letter] ; |446| 
    2225 00000385 5200          CMPB      AL,#0                 ; |446| 
    2226 00000386 ED06          BF        L49,NEQ               ; |446| 
    2227                      ; branchcc occurs ; |446| 
    2228 00000387       DW$L$_ucshell_wait_cmd_task$11$E:
    2229 00000387       DW$L$_ucshell_wait_cmd_task$12$B:
    2230 00000387 924F          MOV       AL,*-SP[15]           ; |446| 
    2231 00000388 7640!         LCR       #_global_decide_num   ; |446| 
         00000389 0000 
    2232                      ; call occurs [#_global_decide_num] ; |446| 
    2233 0000038a 5200          CMPB      AL,#0                 ; |446| 
    2234 0000038b EC16          BF        L50,EQ                ; |446| 
    2235                      ; branchcc occurs ; |446| 
    2236              DW$L$_ucshell_wait_cmd_task$12$E:
    2237              L49:    
    2238              DW$L$_ucshell_wait_cmd_task$13$B:
    2239                      .dwpsn  "ucshell.c",449,5
    2240 0000038c 5CAD          MOVZ      AR4,SP                ; |449| 
    2241 0000038d 5850          MOVZ      AR0,*-SP[16]          ; |449| 
    2242 0000038e 924F          MOV       AL,*-SP[15]           ; |449| 
    2243 0000038f DC8E          SUBB      XAR4,#14              ; |449| 
    2244 00000390 9694          MOV       *+XAR4[AR0],AL        ; |449| 
    2245                      .dwpsn  "ucshell.c",450,5
    2246 00000391 0A50          INC       *-SP[16]              ; |450| 
    2247                      .dwpsn  "ucshell.c",451,5
    2248 00000392 5CAD          MOVZ      AR4,SP                ; |451| 
    2249 00000393 761F!         MOVW      DP,#_m_log_pram+26
         00000394 0000 
    2250 00000395 DC8F          SUBB      XAR4,#15              ; |451| 
TMS320C2000 COFF Assembler PC v4.1.3 Fri Sep 10 14:13:16 2010

Tools Copyright (c) 1996-2006 Texas Instruments Incorporated
C:\DOCUME~1\ADMINI~1\LOCALS~1\Temp\TI0163                            PAGE   47

    2251 00000396 A81A!         MOVL      @_m_log_pram+26,XAR4  ; |451| 
    2252 00000397 8F00!         MOVL      XAR4,#_m_null_pram    ; |451| 
         00000398 0000 
    2253 00000399 A81C!         MOVL      @_m_log_pram+28,XAR4  ; |451| 
    2254 0000039a 8F40!         MOVL      XAR5,#_m_log_pram     ; |451| 
         0000039b 0000 
    2255 0000039c 8F00+         MOVL      XAR4,#FSL40           ; |451| 
         0000039d 041E 
    2256 0000039e 7640!         LCR       #_log_printf          ; |451| 
         0000039f 0000 
    2257                      ; call occurs [#_log_printf] ; |451| 
    2258                      .dwpsn  "ucshell.c",452,4
    2259 000003a0 6FA1          B         L44,UNC               ; |452| 
    2260                      ; branch occurs ; |452| 
    2261              DW$L$_ucshell_wait_cmd_task$13$E:
    2262              L50:    
    2263              DW$L$_ucshell_wait_cmd_task$14$B:
    2264                      .dwpsn  "ucshell.c",453,9
    2265 000003a1 924F          MOV       AL,*-SP[15]           ; |453| 
    2266 000003a2 5208          CMPB      AL,#8                 ; |453| 
    2267 000003a3 ED9E          BF        L44,NEQ               ; |453| 
    2268                      ; branchcc occurs ; |453| 
    2269              DW$L$_ucshell_wait_cmd_task$14$E:
    2270              DW$L$_ucshell_wait_cmd_task$15$B:
    2271                      .dwpsn  "ucshell.c",455,5
    2272 000003a4 9250          MOV       AL,*-SP[16]           ; |455| 
    2273 000003a5 EC9C          BF        L44,EQ                ; |455| 
    2274                      ; branchcc occurs ; |455| 
    2275              DW$L$_ucshell_wait_cmd_task$15$E:
    2276              DW$L$_ucshell_wait_cmd_task$16$B:
    2277                      .dwpsn  "ucshell.c",457,6
    2278 000003a6 8F00!         MOVL      XAR4,#_m_null_pram    ; |457| 
         000003a7 0000 
    2279 000003a8 761F!         MOVW      DP,#_m_log_pram+26
         000003a9 0000 
    2280 000003aa 8F40!         MOVL      XAR5,#_m_log_pram     ; |457| 
         000003ab 0000 
    2281 000003ac A81A!         MOVL      @_m_log_pram+26,XAR4  ; |457| 
    2282 000003ad A81C!         MOVL      @_m_log_pram+28,XAR4  ; |457| 
    2283 000003ae 8F00+         MOVL      XAR4,#FSL41           ; |457| 
         000003af 0422 
    2284 000003b0 7640!         LCR       #_log_printf          ; |457| 
         000003b1 0000 
    2285                      ; call occurs [#_log_printf] ; |457| 
    2286                      .dwpsn  "ucshell.c",458,6
    2287 000003b2 761F!         MOVW      DP,#_m_log_pram+26
         000003b3 0000 
    2288 000003b4 8F00!         MOVL      XAR4,#_m_null_pram    ; |458| 
         000003b5 0000 
    2289 000003b6 A81A!         MOVL      @_m_log_pram+26,XAR4  ; |458| 
    2290 000003b7 A81C!         MOVL      @_m_log_pram+28,XAR4  ; |458| 
    2291 000003b8 8F40!         MOVL      XAR5,#_m_log_pram     ; |458| 
         000003b9 0000 
    2292 000003ba 8F00+         MOVL      XAR4,#FSL42           ; |458| 
         000003bb 0424 
TMS320C2000 COFF Assembler PC v4.1.3 Fri Sep 10 14:13:16 2010

Tools Copyright (c) 1996-2006 Texas Instruments Incorporated
C:\DOCUME~1\ADMINI~1\LOCALS~1\Temp\TI0163                            PAGE   48

    2293 000003bc 7640!         LCR       #_log_printf          ; |458| 
         000003bd 0000 
    2294                      ; call occurs [#_log_printf] ; |458| 
    2295                      .dwpsn  "ucshell.c",459,6
    2296 000003be 761F!         MOVW      DP,#_m_log_pram+26
         000003bf 0000 
    2297 000003c0 8F00!         MOVL      XAR4,#_m_null_pram    ; |459| 
         000003c1 0000 
    2298 000003c2 A81A!         MOVL      @_m_log_pram+26,XAR4  ; |459| 
    2299 000003c3 A81C!         MOVL      @_m_log_pram+28,XAR4  ; |459| 
    2300 000003c4 8F40!         MOVL      XAR5,#_m_log_pram     ; |459| 
         000003c5 0000 
    2301 000003c6 8F00+         MOVL      XAR4,#FSL41           ; |459| 
         000003c7 0422 
    2302 000003c8 7640!         LCR       #_log_printf          ; |459| 
         000003c9 0000 
    2303                      ; call occurs [#_log_printf] ; |459| 
    2304                      .dwpsn  "ucshell.c",460,6
    2305 000003ca 0B50          DEC       *-SP[16]              ; |460| 
    2306                      .dwpsn  "ucshell.c",461,6
    2307 000003cb 5CAD          MOVZ      AR4,SP                ; |461| 
    2308 000003cc 5850          MOVZ      AR0,*-SP[16]          ; |461| 
    2309 000003cd DC8E          SUBB      XAR4,#14              ; |461| 
    2310 000003ce 2B94          MOV       *+XAR4[AR0],#0        ; |461| 
    2311                      .dwpsn  "ucshell.c",423,10
    2312 000003cf FFEF          B         L44,UNC               ; |423| 
         000003d0 FF72 
    2313                      ; branch occurs ; |423| 
    2314              DW$L$_ucshell_wait_cmd_task$16$E:
    2315                      .dwcfa  0x1d, -2
    2316              
    2317              DW$162  .dwtag  DW_TAG_loop
    2318                      .dwattr DW$162, DW_AT_name("C:\DOCUME~1\ADMINI~1\LOCALS~1\Temp\TI0163:L44:1:1284099196")
    2319                      .dwattr DW$162, DW_AT_begin_file("ucshell.c")
    2320                      .dwattr DW$162, DW_AT_begin_line(0x1a7)
    2321                      .dwattr DW$162, DW_AT_end_line(0x1d1)
    2322              DW$163  .dwtag  DW_TAG_loop_range
    2323                      .dwattr DW$163, DW_AT_low_pc(DW$L$_ucshell_wait_cmd_task$2$B)
    2324                      .dwattr DW$163, DW_AT_high_pc(DW$L$_ucshell_wait_cmd_task$2$E)
    2325              DW$164  .dwtag  DW_TAG_loop_range
    2326                      .dwattr DW$164, DW_AT_low_pc(DW$L$_ucshell_wait_cmd_task$11$B)
    2327                      .dwattr DW$164, DW_AT_high_pc(DW$L$_ucshell_wait_cmd_task$11$E)
    2328              DW$165  .dwtag  DW_TAG_loop_range
    2329                      .dwattr DW$165, DW_AT_low_pc(DW$L$_ucshell_wait_cmd_task$12$B)
    2330                      .dwattr DW$165, DW_AT_high_pc(DW$L$_ucshell_wait_cmd_task$12$E)
    2331              DW$166  .dwtag  DW_TAG_loop_range
    2332                      .dwattr DW$166, DW_AT_low_pc(DW$L$_ucshell_wait_cmd_task$7$B)
    2333                      .dwattr DW$166, DW_AT_high_pc(DW$L$_ucshell_wait_cmd_task$7$E)
    2334              DW$167  .dwtag  DW_TAG_loop_range
    2335                      .dwattr DW$167, DW_AT_low_pc(DW$L$_ucshell_wait_cmd_task$8$B)
    2336                      .dwattr DW$167, DW_AT_high_pc(DW$L$_ucshell_wait_cmd_task$8$E)
    2337              DW$168  .dwtag  DW_TAG_loop_range
    2338                      .dwattr DW$168, DW_AT_low_pc(DW$L$_ucshell_wait_cmd_task$9$B)
    2339                      .dwattr DW$168, DW_AT_high_pc(DW$L$_ucshell_wait_cmd_task$9$E)
    2340              DW$169  .dwtag  DW_TAG_loop_range
TMS320C2000 COFF Assembler PC v4.1.3 Fri Sep 10 14:13:16 2010

Tools Copyright (c) 1996-2006 Texas Instruments Incorporated
C:\DOCUME~1\ADMINI~1\LOCALS~1\Temp\TI0163                            PAGE   49

    2341                      .dwattr DW$169, DW_AT_low_pc(DW$L$_ucshell_wait_cmd_task$3$B)
    2342                      .dwattr DW$169, DW_AT_high_pc(DW$L$_ucshell_wait_cmd_task$3$E)
    2343              DW$170  .dwtag  DW_TAG_loop_range
    2344                      .dwattr DW$170, DW_AT_low_pc(DW$L$_ucshell_wait_cmd_task$4$B)
    2345                      .dwattr DW$170, DW_AT_high_pc(DW$L$_ucshell_wait_cmd_task$4$E)
    2346              DW$171  .dwtag  DW_TAG_loop_range
    2347                      .dwattr DW$171, DW_AT_low_pc(DW$L$_ucshell_wait_cmd_task$5$B)
    2348                      .dwattr DW$171, DW_AT_high_pc(DW$L$_ucshell_wait_cmd_task$5$E)
    2349              DW$172  .dwtag  DW_TAG_loop_range
    2350                      .dwattr DW$172, DW_AT_low_pc(DW$L$_ucshell_wait_cmd_task$16$B)
    2351                      .dwattr DW$172, DW_AT_high_pc(DW$L$_ucshell_wait_cmd_task$16$E)
    2352              DW$173  .dwtag  DW_TAG_loop_range
    2353                      .dwattr DW$173, DW_AT_low_pc(DW$L$_ucshell_wait_cmd_task$15$B)
    2354                      .dwattr DW$173, DW_AT_high_pc(DW$L$_ucshell_wait_cmd_task$15$E)
    2355              DW$174  .dwtag  DW_TAG_loop_range
    2356                      .dwattr DW$174, DW_AT_low_pc(DW$L$_ucshell_wait_cmd_task$14$B)
    2357                      .dwattr DW$174, DW_AT_high_pc(DW$L$_ucshell_wait_cmd_task$14$E)
    2358              DW$175  .dwtag  DW_TAG_loop_range
    2359                      .dwattr DW$175, DW_AT_low_pc(DW$L$_ucshell_wait_cmd_task$13$B)
    2360                      .dwattr DW$175, DW_AT_high_pc(DW$L$_ucshell_wait_cmd_task$13$E)
    2361              DW$176  .dwtag  DW_TAG_loop_range
    2362                      .dwattr DW$176, DW_AT_low_pc(DW$L$_ucshell_wait_cmd_task$10$B)
    2363                      .dwattr DW$176, DW_AT_high_pc(DW$L$_ucshell_wait_cmd_task$10$E)
    2364              DW$177  .dwtag  DW_TAG_loop_range
    2365                      .dwattr DW$177, DW_AT_low_pc(DW$L$_ucshell_wait_cmd_task$6$B)
    2366                      .dwattr DW$177, DW_AT_high_pc(DW$L$_ucshell_wait_cmd_task$6$E)
    2367                      .dwendtag DW$162
    2368              
    2369                      .dwattr DW$155, DW_AT_end_file("ucshell.c")
    2370                      .dwattr DW$155, DW_AT_end_line(0x1d2)
    2371                      .dwattr DW$155, DW_AT_end_column(0x01)
    2372                      .dwendentry
    2373                      .dwendtag DW$155
    2374              
    2375 000003d1               .sect   ".text"
    2376                      .global _ucshell_insmod
    2377              
    2378              DW$178  .dwtag  DW_TAG_subprogram, DW_AT_name("ucshell_insmod"), DW_AT_symbol_name("_ucshell_insmod")
    2379                      .dwattr DW$178, DW_AT_low_pc(_ucshell_insmod)
    2380                      .dwattr DW$178, DW_AT_high_pc(0x00)
    2381                      .dwattr DW$178, DW_AT_begin_file("ucshell.c")
    2382                      .dwattr DW$178, DW_AT_begin_line(0x1db)
    2383                      .dwattr DW$178, DW_AT_begin_column(0x06)
    2384                      .dwpsn  "ucshell.c",476,1
    2385              
    2386                      .dwfde DW$CIE
    2387              
    2388              ;***************************************************************
    2389              ;* FNAME: _ucshell_insmod               FR SIZE:   0           *
    2390              ;*                                                             *
    2391              ;* FUNCTION ENVIRONMENT                                        *
    2392              ;*                                                             *
    2393              ;* FUNCTION PROPERTIES                                         *
    2394              ;*                            0 Parameter,  0 Auto,  0 SOE     *
    2395              ;***************************************************************
TMS320C2000 COFF Assembler PC v4.1.3 Fri Sep 10 14:13:16 2010

Tools Copyright (c) 1996-2006 Texas Instruments Incorporated
C:\DOCUME~1\ADMINI~1\LOCALS~1\Temp\TI0163                            PAGE   50

    2396              
    2397              _ucshell_insmod:
    2398                      .dwcfa  0x1d, -2
    2399                      .dwcfa  0x1c, 26, 0
    2400                      .dwcfa  0x09, 40, 26
    2401                      .dwpsn  "ucshell.c",477,2
    2402 000003d1 761F-         MOVW      DP,#_m_ucshell_cmd_task_pro
         000003d2 0000 
    2403 000003d3 2801-         MOV       @_m_ucshell_cmd_task_pro,#190 ; |477| 
         000003d4 00BE 
    2404                      .dwpsn  "ucshell.c",478,2
    2405 000003d5 9A00          MOVB      AL,#0
    2406 000003d6 8F00-         MOVL      XAR4,#_m_ucshell_flag ; |478| 
         000003d7 0000 
    2407 000003d8 9B01          MOVB      AH,#1                 ; |478| 
    2408 000003d9 7640!         LCR       #_my_memset           ; |478| 
         000003da 0000 
    2409                      ; call occurs [#_my_memset] ; |478| 
    2410                      .dwpsn  "ucshell.c",479,2
    2411 000003db 761F-         MOVW      DP,#_m_max_cpu_usage
         000003dc 0000 
    2412 000003dd 2B02-         MOV       @_m_max_cpu_usage,#0  ; |479| 
    2413                      .dwpsn  "ucshell.c",480,2
    2414 000003de 9A11          MOVB      AL,#17                ; |480| 
    2415 000003df 8F00'         MOVL      XAR4,#_ucshell_wait_cmd_task ; |480| 
         000003e0 0326 
    2416 000003e1 7640!         LCR       #_os_task_assign_build ; |480| 
         000003e2 0000 
    2417                      ; call occurs [#_os_task_assign_build] ; |480| 
    2418                      .dwpsn  "ucshell.c",481,2
    2419 000003e3 9A11          MOVB      AL,#17                ; |481| 
    2420 000003e4 8F00+         MOVL      XAR4,#FSL43           ; |481| 
         000003e5 0426 
    2421 000003e6 7640!         LCR       #_os_task_name_set    ; |481| 
         000003e7 0000 
    2422                      ; call occurs [#_os_task_name_set] ; |481| 
    2423                      .dwpsn  "ucshell.c",482,2
    2424 000003e8 8F00-         MOVL      XAR4,#_m_ucshell_lock ; |482| 
         000003e9 0004 
    2425 000003ea 7640!         LCR       #_os_lock_creat       ; |482| 
         000003eb 0000 
    2426                      ; call occurs [#_os_lock_creat] ; |482| 
    2427                      .dwpsn  "ucshell.c",483,2
    2428                      .dwpsn  "ucshell.c",484,1
    2429 000003ec 0006          LRETR
    2430                      ; return occurs
    2431                      .dwattr DW$178, DW_AT_end_file("ucshell.c")
    2432                      .dwattr DW$178, DW_AT_end_line(0x1e4)
    2433                      .dwattr DW$178, DW_AT_end_column(0x01)
    2434                      .dwendentry
    2435                      .dwendtag DW$178
    2436              
    2437 000003ed               .sect   ".text"
    2438                      .global _ucshell_exit
    2439              
TMS320C2000 COFF Assembler PC v4.1.3 Fri Sep 10 14:13:16 2010

Tools Copyright (c) 1996-2006 Texas Instruments Incorporated
C:\DOCUME~1\ADMINI~1\LOCALS~1\Temp\TI0163                            PAGE   51

    2440              DW$179  .dwtag  DW_TAG_subprogram, DW_AT_name("ucshell_exit"), DW_AT_symbol_name("_ucshell_exit")
    2441                      .dwattr DW$179, DW_AT_low_pc(_ucshell_exit)
    2442                      .dwattr DW$179, DW_AT_high_pc(0x00)
    2443                      .dwattr DW$179, DW_AT_begin_file("ucshell.c")
    2444                      .dwattr DW$179, DW_AT_begin_line(0x1ed)
    2445                      .dwattr DW$179, DW_AT_begin_column(0x06)
    2446                      .dwpsn  "ucshell.c",494,1
    2447              
    2448                      .dwfde DW$CIE
    2449              
    2450              ;***************************************************************
    2451              ;* FNAME: _ucshell_exit                 FR SIZE:   0           *
    2452              ;*                                                             *
    2453              ;* FUNCTION ENVIRONMENT                                        *
    2454              ;*                                                             *
    2455              ;* FUNCTION PROPERTIES                                         *
    2456              ;*                            0 Parameter,  0 Auto,  0 SOE     *
    2457              ;***************************************************************
    2458              
    2459              _ucshell_exit:
    2460                      .dwcfa  0x1d, -2
    2461                      .dwcfa  0x1c, 26, 0
    2462                      .dwcfa  0x09, 40, 26
    2463                      .dwpsn  "ucshell.c",495,2
    2464 000003ed 9A11          MOVB      AL,#17                ; |495| 
    2465 000003ee 7640!         LCR       #_os_task_delete      ; |495| 
         000003ef 0000 
    2466                      ; call occurs [#_os_task_delete] ; |495| 
    2467                      .dwpsn  "ucshell.c",496,2
    2468                      .dwpsn  "ucshell.c",497,1
    2469 000003f0 0006          LRETR
    2470                      ; return occurs
    2471                      .dwattr DW$179, DW_AT_end_file("ucshell.c")
    2472                      .dwattr DW$179, DW_AT_end_line(0x1f1)
    2473                      .dwattr DW$179, DW_AT_end_column(0x01)
    2474                      .dwendentry
    2475                      .dwendtag DW$179
    2476              
    2477              ;***************************************************************
    2478              ;* FAR STRINGS                                                 *
    2479              ;***************************************************************
    2480 00000030               .sect   ".econst"
    2481                      .align  2
    2482 00000030 0065  FSL1:   .string "exit",0
         00000031 0078 
         00000032 0069 
         00000033 0074 
         00000034 0000 
    2483                      .align  2
    2484 00000036 0045  FSL2:   .string "EXIT +",195,252,193,238,"+",187,216,179,181,163,172,205,203
         00000037 0058 
         00000038 0049 
         00000039 0054 
         0000003a 0020 
         0000003b 002B 
TMS320C2000 COFF Assembler PC v4.1.3 Fri Sep 10 14:13:16 2010

Tools Copyright (c) 1996-2006 Texas Instruments Incorporated
C:\DOCUME~1\ADMINI~1\LOCALS~1\Temp\TI0163                            PAGE   52

         0000003c 00C3 
         0000003d 00FC 
         0000003e 00C1 
         0000003f 00EE 
         00000040 002B 
         00000041 00BB 
         00000042 00D8 
         00000043 00B3 
         00000044 00B5 
         00000045 00A3 
         00000046 00AC 
         00000047 00CD 
         00000048 00CB 
    2485 00000049 00B3          .string 179,246,195,252,193,238,0
         0000004a 00F6 
         0000004b 00C3 
         0000004c 00FC 
         0000004d 00C1 
         0000004e 00EE 
         0000004f 0000 
    2486                      .align  2
    2487 00000050 0068  FSL3:   .string "help",0
         00000051 0065 
         00000052 006C 
         00000053 0070 
         00000054 0000 
    2488                      .align  2
    2489 00000056 0048  FSL4:   .string "HELP +",187,216,179,181,163,172,178,233,191,180,176,239,214
         00000057 0045 
         00000058 004C 
         00000059 0050 
         0000005a 0020 
         0000005b 002B 
         0000005c 00BB 
         0000005d 00D8 
         0000005e 00B3 
         0000005f 00B5 
         00000060 00A3 
         00000061 00AC 
         00000062 00B2 
         00000063 00E9 
         00000064 00BF 
         00000065 00B4 
         00000066 00B0 
         00000067 00EF 
         00000068 00D6 
    2490 00000069 00FA          .string 250,161,163,0
         0000006a 00A1 
         0000006b 00A3 
         0000006c 0000 
    2491                      .align  2
    2492 0000006e 0070  FSL5:   .string "pst",0
         0000006f 0073 
         00000070 0074 
         00000071 0000 
TMS320C2000 COFF Assembler PC v4.1.3 Fri Sep 10 14:13:16 2010

Tools Copyright (c) 1996-2006 Texas Instruments Incorporated
C:\DOCUME~1\ADMINI~1\LOCALS~1\Temp\TI0163                            PAGE   53

    2493                      .align  2
    2494 00000072 0070  FSL6:   .string "pst+",187,216,179,181,163,172,178,233,191,180,181,177,199,176
         00000073 0073 
         00000074 0074 
         00000075 002B 
         00000076 00BB 
         00000077 00D8 
         00000078 00B3 
         00000079 00B5 
         0000007a 00A3 
         0000007b 00AC 
         0000007c 00B2 
         0000007d 00E9 
         0000007e 00BF 
         0000007f 00B4 
         00000080 00B5 
         00000081 00B1 
         00000082 00C7 
         00000083 00B0 
    2495 00000084 00D4          .string 212,203,208,208,181,196,200,206,206,241,0
         00000085 00CB 
         00000086 00D0 
         00000087 00D0 
         00000088 00B5 
         00000089 00C4 
         0000008a 00C8 
         0000008b 00CE 
         0000008c 00CE 
         0000008d 00F1 
         0000008e 0000 
    2496                      .align  2
    2497 00000090 0070  FSL7:   .string "psd",0
         00000091 0073 
         00000092 0064 
         00000093 0000 
    2498                      .align  2
    2499 00000094 0070  FSL8:   .string "psd+",187,216,179,181,163,172,178,233,191,180,181,177,199,176
         00000095 0073 
         00000096 0064 
         00000097 002B 
         00000098 00BB 
         00000099 00D8 
         0000009a 00B3 
         0000009b 00B5 
         0000009c 00A3 
         0000009d 00AC 
         0000009e 00B2 
         0000009f 00E9 
         000000a0 00BF 
         000000a1 00B4 
         000000a2 00B5 
         000000a3 00B1 
         000000a4 00C7 
         000000a5 00B0 
    2500 000000a6 00D4          .string 212,203,208,208,181,196,199,253,182,175,0
TMS320C2000 COFF Assembler PC v4.1.3 Fri Sep 10 14:13:16 2010

Tools Copyright (c) 1996-2006 Texas Instruments Incorporated
C:\DOCUME~1\ADMINI~1\LOCALS~1\Temp\TI0163                            PAGE   54

         000000a7 00CB 
         000000a8 00D0 
         000000a9 00D0 
         000000aa 00B5 
         000000ab 00C4 
         000000ac 00C7 
         000000ad 00FD 
         000000ae 00B6 
         000000af 00AF 
         000000b0 0000 
    2501                      .align  2
    2502 000000b2 0065  FSL9:   .string "eff",0
         000000b3 0066 
         000000b4 0066 
         000000b5 0000 
    2503                      .align  2
    2504 000000b6 0065  FSL10:  .string "eff+",187,216,179,181,163,172,178,233,191,180,"CPU",213,188
         000000b7 0066 
         000000b8 0066 
         000000b9 002B 
         000000ba 00BB 
         000000bb 00D8 
         000000bc 00B3 
         000000bd 00B5 
         000000be 00A3 
         000000bf 00AC 
         000000c0 00B2 
         000000c1 00E9 
         000000c2 00BF 
         000000c3 00B4 
         000000c4 0043 
         000000c5 0050 
         000000c6 0055 
         000000c7 00D5 
         000000c8 00BC 
    2505 000000c9 00D3          .string 211,195,194,202,0
         000000ca 00C3 
         000000cb 00C2 
         000000cc 00CA 
         000000cd 0000 
    2506                      .align  2
    2507 000000ce 0072  FSL11:  .string "reboot",0
         000000cf 0065 
         000000d0 0062 
         000000d1 006F 
         000000d2 006F 
         000000d3 0074 
         000000d4 0000 
    2508                      .align  2
    2509 000000d6 0072  FSL12:  .string "reboot+",187,216,179,181,163,172,207,181,205,179,200,200,198
         000000d7 0065 
         000000d8 0062 
         000000d9 006F 
         000000da 006F 
         000000db 0074 
TMS320C2000 COFF Assembler PC v4.1.3 Fri Sep 10 14:13:16 2010

Tools Copyright (c) 1996-2006 Texas Instruments Incorporated
C:\DOCUME~1\ADMINI~1\LOCALS~1\Temp\TI0163                            PAGE   55

         000000dc 002B 
         000000dd 00BB 
         000000de 00D8 
         000000df 00B3 
         000000e0 00B5 
         000000e1 00A3 
         000000e2 00AC 
         000000e3 00CF 
         000000e4 00B5 
         000000e5 00CD 
         000000e6 00B3 
         000000e7 00C8 
         000000e8 00C8 
         000000e9 00C6 
    2510 000000ea 00F4          .string 244,182,175,0
         000000eb 00B6 
         000000ec 00AF 
         000000ed 0000 
    2511                      .align  2
    2512 000000ee 006B  FSL13:  .string "kill",0
         000000ef 0069 
         000000f0 006C 
         000000f1 006C 
         000000f2 0000 
    2513                      .align  2
    2514 000000f4 006B  FSL14:  .string "kill+",200,206,206,241,211,197,207,200,188,182,"+",187,216,179
         000000f5 0069 
         000000f6 006C 
         000000f7 006C 
         000000f8 002B 
         000000f9 00C8 
         000000fa 00CE 
         000000fb 00CE 
         000000fc 00F1 
         000000fd 00D3 
         000000fe 00C5 
         000000ff 00CF 
         00000100 00C8 
         00000101 00BC 
         00000102 00B6 
         00000103 002B 
         00000104 00BB 
         00000105 00D8 
         00000106 00B3 
    2515 00000107 00B5          .string 181,163,172,199,191,208,208,185,216,177,213,200,206,206,241,0
         00000108 00A3 
         00000109 00AC 
         0000010a 00C7 
         0000010b 00BF 
         0000010c 00D0 
         0000010d 00D0 
         0000010e 00B9 
         0000010f 00D8 
         00000110 00B1 
         00000111 00D5 
TMS320C2000 COFF Assembler PC v4.1.3 Fri Sep 10 14:13:16 2010

Tools Copyright (c) 1996-2006 Texas Instruments Incorporated
C:\DOCUME~1\ADMINI~1\LOCALS~1\Temp\TI0163                            PAGE   56

         00000112 00C8 
         00000113 00CE 
         00000114 00CE 
         00000115 00F1 
         00000116 0000 
    2516                      .align  2
    2517 00000118 0063  FSL15:  .string "config",0
         00000119 006F 
         0000011a 006E 
         0000011b 0066 
         0000011c 0069 
         0000011d 0067 
         0000011e 0000 
    2518                      .align  2
    2519 00000120 0063  FSL16:  .string "config+",187,216,179,181,163,172,189,248,200,235,214,247,197
         00000121 006F 
         00000122 006E 
         00000123 0066 
         00000124 0069 
         00000125 0067 
         00000126 002B 
         00000127 00BB 
         00000128 00D8 
         00000129 00B3 
         0000012a 00B5 
         0000012b 00A3 
         0000012c 00AC 
         0000012d 00BD 
         0000012e 00F8 
         0000012f 00C8 
         00000130 00EB 
         00000131 00D6 
         00000132 00F7 
         00000133 00C5 
    2520 00000134 00E4          .string 228,214,195,189,231,195,230,163,172,197,228,214,195,205,234,179
         00000135 00D6 
         00000136 00C3 
         00000137 00BD 
         00000138 00E7 
         00000139 00C3 
         0000013a 00E6 
         0000013b 00A3 
         0000013c 00AC 
         0000013d 00C5 
         0000013e 00E4 
         0000013f 00D6 
         00000140 00C3 
         00000141 00CD 
         00000142 00EA 
         00000143 00B3 
    2521 00000144 00C9          .string 201,189,171,215,212,182,175,214,216,198,244,182,175,0
         00000145 00BD 
         00000146 00AB 
         00000147 00D7 
         00000148 00D4 
TMS320C2000 COFF Assembler PC v4.1.3 Fri Sep 10 14:13:16 2010

Tools Copyright (c) 1996-2006 Texas Instruments Incorporated
C:\DOCUME~1\ADMINI~1\LOCALS~1\Temp\TI0163                            PAGE   57

         00000149 00B6 
         0000014a 00AF 
         0000014b 00D6 
         0000014c 00D8 
         0000014d 00C6 
         0000014e 00F4 
         0000014f 00B6 
         00000150 00AF 
         00000151 0000 
    2522                      .align  2
    2523 00000152 000A  FSL17:  .string 10,196,250,202,228,200,235,181,196,178,206,202,253,211,208,206
         00000153 00C4 
         00000154 00FA 
         00000155 00CA 
         00000156 00E4 
         00000157 00C8 
         00000158 00EB 
         00000159 00B5 
         0000015a 00C4 
         0000015b 00B2 
         0000015c 00CE 
         0000015d 00CA 
         0000015e 00FD 
         0000015f 00D3 
         00000160 00D0 
         00000161 00CE 
    2524 00000162 00F3          .string 243,10,0
         00000163 000A 
         00000164 0000 
    2525                      .align  2
    2526 00000166 000A  FSL18:  .string 10,"--the current CPU utilization =%c%b",0
         00000167 002D 
         00000168 002D 
         00000169 0074 
         0000016a 0068 
         0000016b 0065 
         0000016c 0020 
         0000016d 0063 
         0000016e 0075 
         0000016f 0072 
         00000170 0072 
         00000171 0065 
         00000172 006E 
         00000173 0074 
         00000174 0020 
         00000175 0043 
         00000176 0050 
         00000177 0055 
         00000178 0020 
         00000179 0075 
         0000017a 0074 
         0000017b 0069 
         0000017c 006C 
         0000017d 0069 
         0000017e 007A 
TMS320C2000 COFF Assembler PC v4.1.3 Fri Sep 10 14:13:16 2010

Tools Copyright (c) 1996-2006 Texas Instruments Incorporated
C:\DOCUME~1\ADMINI~1\LOCALS~1\Temp\TI0163                            PAGE   58

         0000017f 0061 
         00000180 0074 
         00000181 0069 
         00000182 006F 
         00000183 006E 
         00000184 0020 
         00000185 003D 
         00000186 0025 
         00000187 0063 
         00000188 0025 
         00000189 0062 
         0000018a 0000 
    2527                      .align  2
    2528 0000018c 0020  FSL19:  .string "  the highest value in history =%c%b",0
         0000018d 0020 
         0000018e 0074 
         0000018f 0068 
         00000190 0065 
         00000191 0020 
         00000192 0068 
         00000193 0069 
         00000194 0067 
         00000195 0068 
         00000196 0065 
         00000197 0073 
         00000198 0074 
         00000199 0020 
         0000019a 0076 
         0000019b 0061 
         0000019c 006C 
         0000019d 0075 
         0000019e 0065 
         0000019f 0020 
         000001a0 0069 
         000001a1 006E 
         000001a2 0020 
         000001a3 0068 
         000001a4 0069 
         000001a5 0073 
         000001a6 0074 
         000001a7 006F 
         000001a8 0072 
         000001a9 0079 
         000001aa 0020 
         000001ab 003D 
         000001ac 0025 
         000001ad 0063 
         000001ae 0025 
         000001af 0062 
         000001b0 0000 
    2529                      .align  2
    2530 000001b2 000A  FSL20:  .string 10,"-------------task table-------------------",0
         000001b3 002D 
         000001b4 002D 
         000001b5 002D 
TMS320C2000 COFF Assembler PC v4.1.3 Fri Sep 10 14:13:16 2010

Tools Copyright (c) 1996-2006 Texas Instruments Incorporated
C:\DOCUME~1\ADMINI~1\LOCALS~1\Temp\TI0163                            PAGE   59

         000001b6 002D 
         000001b7 002D 
         000001b8 002D 
         000001b9 002D 
         000001ba 002D 
         000001bb 002D 
         000001bc 002D 
         000001bd 002D 
         000001be 002D 
         000001bf 002D 
         000001c0 0074 
         000001c1 0061 
         000001c2 0073 
         000001c3 006B 
         000001c4 0020 
         000001c5 0074 
         000001c6 0061 
         000001c7 0062 
         000001c8 006C 
         000001c9 0065 
         000001ca 002D 
         000001cb 002D 
         000001cc 002D 
         000001cd 002D 
         000001ce 002D 
         000001cf 002D 
         000001d0 002D 
         000001d1 002D 
         000001d2 002D 
         000001d3 002D 
         000001d4 002D 
         000001d5 002D 
         000001d6 002D 
         000001d7 002D 
         000001d8 002D 
         000001d9 002D 
         000001da 002D 
         000001db 002D 
         000001dc 002D 
         000001dd 0000 
    2531                      .align  2
    2532 000001de 000A  FSL21:  .string 10,"pro : %b  name : %s",0
         000001df 0070 
         000001e0 0072 
         000001e1 006F 
         000001e2 0020 
         000001e3 003A 
         000001e4 0020 
         000001e5 0025 
         000001e6 0062 
         000001e7 0020 
         000001e8 0020 
         000001e9 006E 
         000001ea 0061 
         000001eb 006D 
TMS320C2000 COFF Assembler PC v4.1.3 Fri Sep 10 14:13:16 2010

Tools Copyright (c) 1996-2006 Texas Instruments Incorporated
C:\DOCUME~1\ADMINI~1\LOCALS~1\Temp\TI0163                            PAGE   60

         000001ec 0065 
         000001ed 0020 
         000001ee 003A 
         000001ef 0020 
         000001f0 0025 
         000001f1 0073 
         000001f2 0000 
    2533                      .align  2
    2534 000001f4 000A  FSL22:  .string 10,"pro :%b  name : %s",0
         000001f5 0070 
         000001f6 0072 
         000001f7 006F 
         000001f8 0020 
         000001f9 003A 
         000001fa 0025 
         000001fb 0062 
         000001fc 0020 
         000001fd 0020 
         000001fe 006E 
         000001ff 0061 
         00000200 006D 
         00000201 0065 
         00000202 0020 
         00000203 003A 
         00000204 0020 
         00000205 0025 
         00000206 0073 
         00000207 0000 
    2535                      .align  2
    2536 00000208 000A  FSL23:  .string 10,"Task",92,"toplimit=%d",92,"%d   ",0
         00000209 0054 
         0000020a 0061 
         0000020b 0073 
         0000020c 006B 
         0000020d 005C 
         0000020e 0074 
         0000020f 006F 
         00000210 0070 
         00000211 006C 
         00000212 0069 
         00000213 006D 
         00000214 0069 
         00000215 0074 
         00000216 003D 
         00000217 0025 
         00000218 0064 
         00000219 005C 
         0000021a 0025 
         0000021b 0064 
         0000021c 0020 
         0000021d 0020 
         0000021e 0020 
         0000021f 0000 
    2537                      .align  2
    2538 00000220 0053  FSL24:  .string "Sem",92,"toplimit=%d",92,"%d",10,0
TMS320C2000 COFF Assembler PC v4.1.3 Fri Sep 10 14:13:16 2010

Tools Copyright (c) 1996-2006 Texas Instruments Incorporated
C:\DOCUME~1\ADMINI~1\LOCALS~1\Temp\TI0163                            PAGE   61

         00000221 0065 
         00000222 006D 
         00000223 005C 
         00000224 0074 
         00000225 006F 
         00000226 0070 
         00000227 006C 
         00000228 0069 
         00000229 006D 
         0000022a 0069 
         0000022b 0074 
         0000022c 003D 
         0000022d 0025 
         0000022e 0064 
         0000022f 005C 
         00000230 0025 
         00000231 0064 
         00000232 000A 
         00000233 0000 
    2539                      .align  2
    2540 00000234 002D  FSL25:  .string "-------------------------------------------",10,0
         00000235 002D 
         00000236 002D 
         00000237 002D 
         00000238 002D 
         00000239 002D 
         0000023a 002D 
         0000023b 002D 
         0000023c 002D 
         0000023d 002D 
         0000023e 002D 
         0000023f 002D 
         00000240 002D 
         00000241 002D 
         00000242 002D 
         00000243 002D 
         00000244 002D 
         00000245 002D 
         00000246 002D 
         00000247 002D 
         00000248 002D 
         00000249 002D 
         0000024a 002D 
         0000024b 002D 
         0000024c 002D 
         0000024d 002D 
         0000024e 002D 
         0000024f 002D 
         00000250 002D 
         00000251 002D 
         00000252 002D 
         00000253 002D 
         00000254 002D 
         00000255 002D 
         00000256 002D 
TMS320C2000 COFF Assembler PC v4.1.3 Fri Sep 10 14:13:16 2010

Tools Copyright (c) 1996-2006 Texas Instruments Incorporated
C:\DOCUME~1\ADMINI~1\LOCALS~1\Temp\TI0163                            PAGE   62

         00000257 002D 
         00000258 002D 
         00000259 002D 
         0000025a 002D 
         0000025b 002D 
         0000025c 002D 
         0000025d 002D 
         0000025e 002D 
         0000025f 000A 
         00000260 0000 
    2541                      .align  2
    2542 00000262 000A  FSL26:  .string 10,"-------------driver table------------------",0
         00000263 002D 
         00000264 002D 
         00000265 002D 
         00000266 002D 
         00000267 002D 
         00000268 002D 
         00000269 002D 
         0000026a 002D 
         0000026b 002D 
         0000026c 002D 
         0000026d 002D 
         0000026e 002D 
         0000026f 002D 
         00000270 0064 
         00000271 0072 
         00000272 0069 
         00000273 0076 
         00000274 0065 
         00000275 0072 
         00000276 0020 
         00000277 0074 
         00000278 0061 
         00000279 0062 
         0000027a 006C 
         0000027b 0065 
         0000027c 002D 
         0000027d 002D 
         0000027e 002D 
         0000027f 002D 
         00000280 002D 
         00000281 002D 
         00000282 002D 
         00000283 002D 
         00000284 002D 
         00000285 002D 
         00000286 002D 
         00000287 002D 
         00000288 002D 
         00000289 002D 
         0000028a 002D 
         0000028b 002D 
         0000028c 002D 
         0000028d 002D 
TMS320C2000 COFF Assembler PC v4.1.3 Fri Sep 10 14:13:16 2010

Tools Copyright (c) 1996-2006 Texas Instruments Incorporated
C:\DOCUME~1\ADMINI~1\LOCALS~1\Temp\TI0163                            PAGE   63

         0000028e 0000 
    2543                      .align  2
    2544 00000290 000A  FSL27:  .string 10,"dev id : %b  name : %s",0
         00000291 0064 
         00000292 0065 
         00000293 0076 
         00000294 0020 
         00000295 0069 
         00000296 0064 
         00000297 0020 
         00000298 003A 
         00000299 0020 
         0000029a 0025 
         0000029b 0062 
         0000029c 0020 
         0000029d 0020 
         0000029e 006E 
         0000029f 0061 
         000002a0 006D 
         000002a1 0065 
         000002a2 0020 
         000002a3 003A 
         000002a4 0020 
         000002a5 0025 
         000002a6 0073 
         000002a7 0000 
    2545                      .align  2
    2546 000002a8 000A  FSL28:  .string 10,"dev id :%b  name : %s",0
         000002a9 0064 
         000002aa 0065 
         000002ab 0076 
         000002ac 0020 
         000002ad 0069 
         000002ae 0064 
         000002af 0020 
         000002b0 003A 
         000002b1 0025 
         000002b2 0062 
         000002b3 0020 
         000002b4 0020 
         000002b5 006E 
         000002b6 0061 
         000002b7 006D 
         000002b8 0065 
         000002b9 0020 
         000002ba 003A 
         000002bb 0020 
         000002bc 0025 
         000002bd 0073 
         000002be 0000 
    2547                      .align  2
    2548 000002c0 000A  FSL29:  .string 10,"drivers",92,"toplimit=%d",92,"%d",10,0
         000002c1 0064 
         000002c2 0072 
         000002c3 0069 
TMS320C2000 COFF Assembler PC v4.1.3 Fri Sep 10 14:13:16 2010

Tools Copyright (c) 1996-2006 Texas Instruments Incorporated
C:\DOCUME~1\ADMINI~1\LOCALS~1\Temp\TI0163                            PAGE   64

         000002c4 0076 
         000002c5 0065 
         000002c6 0072 
         000002c7 0073 
         000002c8 005C 
         000002c9 0074 
         000002ca 006F 
         000002cb 0070 
         000002cc 006C 
         000002cd 0069 
         000002ce 006D 
         000002cf 0069 
         000002d0 0074 
         000002d1 003D 
         000002d2 0025 
         000002d3 0064 
         000002d4 005C 
         000002d5 0025 
         000002d6 0064 
         000002d7 000A 
         000002d8 0000 
    2549                      .align  2
    2550 000002da 0053  FSL30:  .string "Support--Shell backstage",0
         000002db 0075 
         000002dc 0070 
         000002dd 0070 
         000002de 006F 
         000002df 0072 
         000002e0 0074 
         000002e1 002D 
         000002e2 002D 
         000002e3 0053 
         000002e4 0068 
         000002e5 0065 
         000002e6 006C 
         000002e7 006C 
         000002e8 0020 
         000002e9 0062 
         000002ea 0061 
         000002eb 0063 
         000002ec 006B 
         000002ed 0073 
         000002ee 0074 
         000002ef 0061 
         000002f0 0067 
         000002f1 0065 
         000002f2 0000 
    2551                      .align  2
    2552 000002f4 000A  FSL31:  .string 10,"***************************************************",10,0
         000002f5 002A 
         000002f6 002A 
         000002f7 002A 
         000002f8 002A 
         000002f9 002A 
         000002fa 002A 
TMS320C2000 COFF Assembler PC v4.1.3 Fri Sep 10 14:13:16 2010

Tools Copyright (c) 1996-2006 Texas Instruments Incorporated
C:\DOCUME~1\ADMINI~1\LOCALS~1\Temp\TI0163                            PAGE   65

         000002fb 002A 
         000002fc 002A 
         000002fd 002A 
         000002fe 002A 
         000002ff 002A 
         00000300 002A 
         00000301 002A 
         00000302 002A 
         00000303 002A 
         00000304 002A 
         00000305 002A 
         00000306 002A 
         00000307 002A 
         00000308 002A 
         00000309 002A 
         0000030a 002A 
         0000030b 002A 
         0000030c 002A 
         0000030d 002A 
         0000030e 002A 
         0000030f 002A 
         00000310 002A 
         00000311 002A 
         00000312 002A 
         00000313 002A 
         00000314 002A 
         00000315 002A 
         00000316 002A 
         00000317 002A 
         00000318 002A 
         00000319 002A 
         0000031a 002A 
         0000031b 002A 
         0000031c 002A 
         0000031d 002A 
         0000031e 002A 
         0000031f 002A 
         00000320 002A 
         00000321 002A 
         00000322 002A 
         00000323 002A 
         00000324 002A 
         00000325 002A 
         00000326 002A 
         00000327 002A 
         00000328 000A 
         00000329 0000 
    2553                      .align  2
    2554 0000032a 0025  FSL32:  .string "%d. %s",10,0
         0000032b 0064 
         0000032c 002E 
         0000032d 0020 
         0000032e 0025 
         0000032f 0073 
         00000330 000A 
TMS320C2000 COFF Assembler PC v4.1.3 Fri Sep 10 14:13:16 2010

Tools Copyright (c) 1996-2006 Texas Instruments Incorporated
C:\DOCUME~1\ADMINI~1\LOCALS~1\Temp\TI0163                            PAGE   66

         00000331 0000 
    2555                      .align  2
    2556 00000332 002A  FSL33:  .string "***************************************************",10,0
         00000333 002A 
         00000334 002A 
         00000335 002A 
         00000336 002A 
         00000337 002A 
         00000338 002A 
         00000339 002A 
         0000033a 002A 
         0000033b 002A 
         0000033c 002A 
         0000033d 002A 
         0000033e 002A 
         0000033f 002A 
         00000340 002A 
         00000341 002A 
         00000342 002A 
         00000343 002A 
         00000344 002A 
         00000345 002A 
         00000346 002A 
         00000347 002A 
         00000348 002A 
         00000349 002A 
         0000034a 002A 
         0000034b 002A 
         0000034c 002A 
         0000034d 002A 
         0000034e 002A 
         0000034f 002A 
         00000350 002A 
         00000351 002A 
         00000352 002A 
         00000353 002A 
         00000354 002A 
         00000355 002A 
         00000356 002A 
         00000357 002A 
         00000358 002A 
         00000359 002A 
         0000035a 002A 
         0000035b 002A 
         0000035c 002A 
         0000035d 002A 
         0000035e 002A 
         0000035f 002A 
         00000360 002A 
         00000361 002A 
         00000362 002A 
         00000363 002A 
         00000364 002A 
         00000365 000A 
         00000366 0000 
TMS320C2000 COFF Assembler PC v4.1.3 Fri Sep 10 14:13:16 2010

Tools Copyright (c) 1996-2006 Texas Instruments Incorporated
C:\DOCUME~1\ADMINI~1\LOCALS~1\Temp\TI0163                            PAGE   67

    2557                      .align  2
    2558 00000368 000A  FSL34:  .string 10,10,0
         00000369 000A 
         0000036a 0000 
    2559                      .align  2
    2560 0000036c 002A  FSL35:  .string "*",202,228,200,235,195,252,193,238,186,243,176,180,187,216,179
         0000036d 00CA 
         0000036e 00E4 
         0000036f 00C8 
         00000370 00EB 
         00000371 00C3 
         00000372 00FC 
         00000373 00C1 
         00000374 00EE 
         00000375 00BA 
         00000376 00F3 
         00000377 00B0 
         00000378 00B4 
         00000379 00BB 
         0000037a 00D8 
         0000037b 00B3 
    2561 0000037c 00B5          .string 181,200,183,200,207,161,163,9,9,9,9,"  *",10,0
         0000037d 00C8 
         0000037e 00B7 
         0000037f 00C8 
         00000380 00CF 
         00000381 00A1 
         00000382 00A3 
         00000383 0009 
         00000384 0009 
         00000385 0009 
         00000386 0009 
         00000387 0020 
         00000388 0020 
         00000389 002A 
         0000038a 000A 
         0000038b 0000 
    2562                      .align  2
    2563 0000038c 002A  FSL36:  .string "*",195,252,193,238,202,228,200,235,178,187,199,248,183,214,180
         0000038d 00C3 
         0000038e 00FC 
         0000038f 00C1 
         00000390 00EE 
         00000391 00CA 
         00000392 00E4 
         00000393 00C8 
         00000394 00EB 
         00000395 00B2 
         00000396 00BB 
         00000397 00C7 
         00000398 00F8 
         00000399 00B7 
         0000039a 00D6 
         0000039b 00B4 
    2564 0000039c 00F3          .string 243,208,161,208,180,"  ",161,163,"                         *"
TMS320C2000 COFF Assembler PC v4.1.3 Fri Sep 10 14:13:16 2010

Tools Copyright (c) 1996-2006 Texas Instruments Incorporated
C:\DOCUME~1\ADMINI~1\LOCALS~1\Temp\TI0163                            PAGE   68

         0000039d 00D0 
         0000039e 00A1 
         0000039f 00D0 
         000003a0 00B4 
         000003a1 0020 
         000003a2 0020 
         000003a3 00A1 
         000003a4 00A3 
         000003a5 0020 
         000003a6 0020 
         000003a7 0020 
         000003a8 0020 
         000003a9 0020 
         000003aa 0020 
         000003ab 0020 
         000003ac 0020 
         000003ad 0020 
         000003ae 0020 
         000003af 0020 
         000003b0 0020 
         000003b1 0020 
         000003b2 0020 
         000003b3 0020 
         000003b4 0020 
         000003b5 0020 
         000003b6 0020 
         000003b7 0020 
         000003b8 0020 
         000003b9 0020 
         000003ba 0020 
         000003bb 0020 
         000003bc 0020 
         000003bd 0020 
         000003be 002A 
    2565 000003bf 000A          .string 10,0
         000003c0 0000 
    2566                      .align  2
    2567 000003c2 002A  FSL37:  .string "*",202,228,200,235,"help",178,233,191,180,203,249,211,208,195
         000003c3 00CA 
         000003c4 00E4 
         000003c5 00C8 
         000003c6 00EB 
         000003c7 0068 
         000003c8 0065 
         000003c9 006C 
         000003ca 0070 
         000003cb 00B2 
         000003cc 00E9 
         000003cd 00BF 
         000003ce 00B4 
         000003cf 00CB 
         000003d0 00F9 
         000003d1 00D3 
         000003d2 00D0 
         000003d3 00C3 
TMS320C2000 COFF Assembler PC v4.1.3 Fri Sep 10 14:13:16 2010

Tools Copyright (c) 1996-2006 Texas Instruments Incorporated
C:\DOCUME~1\ADMINI~1\LOCALS~1\Temp\TI0163                            PAGE   69

    2568 000003d4 00FC          .string 252,193,238," ",161,163,"                          *",10,0
         000003d5 00C1 
         000003d6 00EE 
         000003d7 0020 
         000003d8 00A1 
         000003d9 00A3 
         000003da 0020 
         000003db 0020 
         000003dc 0020 
         000003dd 0020 
         000003de 0020 
         000003df 0020 
         000003e0 0020 
         000003e1 0020 
         000003e2 0020 
         000003e3 0020 
         000003e4 0020 
         000003e5 0020 
         000003e6 0020 
         000003e7 0020 
         000003e8 0020 
         000003e9 0020 
         000003ea 0020 
         000003eb 0020 
         000003ec 0020 
         000003ed 0020 
         000003ee 0020 
         000003ef 0020 
         000003f0 0020 
         000003f1 0020 
         000003f2 0020 
         000003f3 0020 
         000003f4 002A 
         000003f5 000A 
         000003f6 0000 
    2569                      .align  2
    2570 000003f8 000A  FSL38:  .string 10,196,250,202,228,200,235,181,196,195,252,193,238,211,208,206
         000003f9 00C4 
         000003fa 00FA 
         000003fb 00CA 
         000003fc 00E4 
         000003fd 00C8 
         000003fe 00EB 
         000003ff 00B5 
         00000400 00C4 
         00000401 00C3 
         00000402 00FC 
         00000403 00C1 
         00000404 00EE 
         00000405 00D3 
         00000406 00D0 
         00000407 00CE 
    2571 00000408 00F3          .string 243,199,235,214,216,208,194,202,228,200,235,0
         00000409 00C7 
         0000040a 00EB 
TMS320C2000 COFF Assembler PC v4.1.3 Fri Sep 10 14:13:16 2010

Tools Copyright (c) 1996-2006 Texas Instruments Incorporated
C:\DOCUME~1\ADMINI~1\LOCALS~1\Temp\TI0163                            PAGE   70

         0000040b 00D6 
         0000040c 00D8 
         0000040d 00D0 
         0000040e 00C2 
         0000040f 00CA 
         00000410 00E4 
         00000411 00C8 
         00000412 00EB 
         00000413 0000 
    2572                      .align  2
    2573 00000414 000A  FSL39:  .string 10,"root:",92,">",0
         00000415 0072 
         00000416 006F 
         00000417 006F 
         00000418 0074 
         00000419 003A 
         0000041a 005C 
         0000041b 003E 
         0000041c 0000 
    2574                      .align  2
    2575 0000041e 0025  FSL40:  .string "%c",0
         0000041f 0063 
         00000420 0000 
    2576                      .align  2
    2577 00000422 0008  FSL41:  .string 8,0
         00000423 0000 
    2578                      .align  2
    2579 00000424 0020  FSL42:  .string " ",0
         00000425 0000 
    2580                      .align  2
    2581 00000426 0053  FSL43:  .string "Support--Shell manege",0
         00000427 0075 
         00000428 0070 
         00000429 0070 
         0000042a 006F 
         0000042b 0072 
         0000042c 0074 
         0000042d 002D 
         0000042e 002D 
         0000042f 0053 
         00000430 0068 
         00000431 0065 
         00000432 006C 
         00000433 006C 
         00000434 0020 
         00000435 006D 
         00000436 0061 
         00000437 006E 
         00000438 0065 
         00000439 0067 
         0000043a 0065 
         0000043b 0000 
    2582              ;***************************************************************
    2583              ;* UNDEFINED EXTERNAL REFERENCES                               *
    2584              ;***************************************************************
TMS320C2000 COFF Assembler PC v4.1.3 Fri Sep 10 14:13:16 2010

Tools Copyright (c) 1996-2006 Texas Instruments Incorporated
C:\DOCUME~1\ADMINI~1\LOCALS~1\Temp\TI0163                            PAGE   71

    2585                      .global _app_module_maneger_exit
    2586                      .global _OSTimeDly
    2587                      .global _my_memset
    2588                      .global _os_unlock
    2589                      .global _log_printf
    2590                      .global _os_lock
    2591                      .global _atoi
    2592                      .global _my_memcp
    2593                      .global _m_event_num
    2594                      .global _OSCPUUsage
    2595                      .global _os_task_name_set
    2596                      .global _os_task_assign_build
    2597                      .global _os_task_delete
    2598                      .global _os_task_name_get
    2599                      .global _log_wait_input_msg
    2600                      .global _os_task_random_build
    2601                      .global _global_decide_letter
    2602                      .global _global_adjust_letter_module
    2603                      .global _m_null_pram
    2604                      .global _os_lock_creat
    2605                      .global _global_decide_num
    2606                      .global _m_task_pro_array
    2607                      .global _m_log_pram
    2608                      .global _m_driver_manege_tab
    2609              
    2610              ;***************************************************************
    2611              ;* TYPE INFORMATION                                            *
    2612              ;***************************************************************
    2613              DW$T$3  .dwtag  DW_TAG_pointer_type
    2614                      .dwattr DW$T$3, DW_AT_address_class(0x16)
    2615              
    2616              DW$T$41 .dwtag  DW_TAG_subroutine_type
    2617                      .dwattr DW$T$41, DW_AT_language(DW_LANG_C)
    2618              
    2619              DW$T$51 .dwtag  DW_TAG_subroutine_type
    2620                      .dwattr DW$T$51, DW_AT_language(DW_LANG_C)
    2621              DW$180  .dwtag  DW_TAG_formal_parameter, DW_AT_type(*DW$T$3)
    2622                      .dwendtag DW$T$51
    2623              
    2624              DW$T$52 .dwtag  DW_TAG_pointer_type, DW_AT_type(*DW$T$51)
    2625                      .dwattr DW$T$52, DW_AT_address_class(0x16)
    2626              
    2627              DW$T$54 .dwtag  DW_TAG_subroutine_type
    2628                      .dwattr DW$T$54, DW_AT_language(DW_LANG_C)
    2629              DW$181  .dwtag  DW_TAG_formal_parameter, DW_AT_type(*DW$T$20)
    2630                      .dwendtag DW$T$54
    2631              
    2632              
    2633              DW$T$56 .dwtag  DW_TAG_subroutine_type
    2634                      .dwattr DW$T$56, DW_AT_language(DW_LANG_C)
    2635              DW$182  .dwtag  DW_TAG_formal_parameter, DW_AT_type(*DW$T$33)
    2636              DW$183  .dwtag  DW_TAG_formal_parameter, DW_AT_type(*DW$T$25)
    2637              DW$184  .dwtag  DW_TAG_formal_parameter, DW_AT_type(*DW$T$27)
    2638                      .dwendtag DW$T$56
    2639              
TMS320C2000 COFF Assembler PC v4.1.3 Fri Sep 10 14:13:16 2010

Tools Copyright (c) 1996-2006 Texas Instruments Incorporated
C:\DOCUME~1\ADMINI~1\LOCALS~1\Temp\TI0163                            PAGE   72

    2640              
    2641              DW$T$61 .dwtag  DW_TAG_subroutine_type
    2642                      .dwattr DW$T$61, DW_AT_language(DW_LANG_C)
    2643              DW$185  .dwtag  DW_TAG_formal_parameter, DW_AT_type(*DW$T$60)
    2644                      .dwendtag DW$T$61
    2645              
    2646              
    2647              DW$T$66 .dwtag  DW_TAG_subroutine_type
    2648                      .dwattr DW$T$66, DW_AT_language(DW_LANG_C)
    2649              DW$186  .dwtag  DW_TAG_formal_parameter, DW_AT_type(*DW$T$50)
    2650              DW$187  .dwtag  DW_TAG_formal_parameter, DW_AT_type(*DW$T$65)
    2651                      .dwendtag DW$T$66
    2652              
    2653              
    2654              DW$T$68 .dwtag  DW_TAG_subroutine_type
    2655                      .dwattr DW$T$68, DW_AT_language(DW_LANG_C)
    2656              DW$188  .dwtag  DW_TAG_formal_parameter, DW_AT_type(*DW$T$32)
    2657                      .dwendtag DW$T$68
    2658              
    2659              DW$T$19 .dwtag  DW_TAG_typedef, DW_AT_name("INT8U"), DW_AT_type(*DW$T$6)
    2660                      .dwattr DW$T$19, DW_AT_language(DW_LANG_C)
    2661              DW$T$25 .dwtag  DW_TAG_typedef, DW_AT_name("uint8_t"), DW_AT_type(*DW$T$6)
    2662                      .dwattr DW$T$25, DW_AT_language(DW_LANG_C)
    2663              DW$T$33 .dwtag  DW_TAG_pointer_type, DW_AT_type(*DW$T$25)
    2664                      .dwattr DW$T$33, DW_AT_address_class(0x16)
    2665              
    2666              DW$T$70 .dwtag  DW_TAG_subroutine_type, DW_AT_type(*DW$T$25)
    2667                      .dwattr DW$T$70, DW_AT_language(DW_LANG_C)
    2668              DW$189  .dwtag  DW_TAG_formal_parameter, DW_AT_type(*DW$T$23)
    2669              DW$190  .dwtag  DW_TAG_formal_parameter, DW_AT_type(*DW$T$25)
    2670                      .dwendtag DW$T$70
    2671              
    2672              
    2673              DW$T$73 .dwtag  DW_TAG_subroutine_type, DW_AT_type(*DW$T$25)
    2674                      .dwattr DW$T$73, DW_AT_language(DW_LANG_C)
    2675              DW$191  .dwtag  DW_TAG_formal_parameter, DW_AT_type(*DW$T$72)
    2676                      .dwendtag DW$T$73
    2677              
    2678              
    2679              DW$T$75 .dwtag  DW_TAG_subroutine_type, DW_AT_type(*DW$T$25)
    2680                      .dwattr DW$T$75, DW_AT_language(DW_LANG_C)
    2681              DW$192  .dwtag  DW_TAG_formal_parameter, DW_AT_type(*DW$T$52)
    2682                      .dwendtag DW$T$75
    2683              
    2684              
    2685              DW$T$77 .dwtag  DW_TAG_subroutine_type, DW_AT_type(*DW$T$25)
    2686                      .dwattr DW$T$77, DW_AT_language(DW_LANG_C)
    2687              DW$193  .dwtag  DW_TAG_formal_parameter, DW_AT_type(*DW$T$25)
    2688              DW$194  .dwtag  DW_TAG_formal_parameter, DW_AT_type(*DW$T$50)
    2689                      .dwendtag DW$T$77
    2690              
    2691              
    2692              DW$T$79 .dwtag  DW_TAG_subroutine_type, DW_AT_type(*DW$T$25)
    2693                      .dwattr DW$T$79, DW_AT_language(DW_LANG_C)
    2694              DW$195  .dwtag  DW_TAG_formal_parameter, DW_AT_type(*DW$T$25)
TMS320C2000 COFF Assembler PC v4.1.3 Fri Sep 10 14:13:16 2010

Tools Copyright (c) 1996-2006 Texas Instruments Incorporated
C:\DOCUME~1\ADMINI~1\LOCALS~1\Temp\TI0163                            PAGE   73

    2695                      .dwendtag DW$T$79
    2696              
    2697              
    2698              DW$T$81 .dwtag  DW_TAG_array_type, DW_AT_type(*DW$T$25)
    2699                      .dwattr DW$T$81, DW_AT_language(DW_LANG_C)
    2700                      .dwattr DW$T$81, DW_AT_byte_size(0x0c)
    2701              DW$196  .dwtag  DW_TAG_subrange_type
    2702                      .dwattr DW$196, DW_AT_upper_bound(0x0b)
    2703                      .dwendtag DW$T$81
    2704              
    2705              DW$T$10 .dwtag  DW_TAG_base_type, DW_AT_name("int")
    2706                      .dwattr DW$T$10, DW_AT_encoding(DW_ATE_signed)
    2707                      .dwattr DW$T$10, DW_AT_byte_size(0x01)
    2708              
    2709              DW$T$86 .dwtag  DW_TAG_subroutine_type, DW_AT_type(*DW$T$10)
    2710                      .dwattr DW$T$86, DW_AT_language(DW_LANG_C)
    2711              DW$197  .dwtag  DW_TAG_formal_parameter, DW_AT_type(*DW$T$85)
    2712                      .dwendtag DW$T$86
    2713              
    2714              DW$T$20 .dwtag  DW_TAG_typedef, DW_AT_name("INT16U"), DW_AT_type(*DW$T$11)
    2715                      .dwattr DW$T$20, DW_AT_language(DW_LANG_C)
    2716              DW$T$27 .dwtag  DW_TAG_typedef, DW_AT_name("uint16_t"), DW_AT_type(*DW$T$11)
    2717                      .dwattr DW$T$27, DW_AT_language(DW_LANG_C)
    2718              DW$T$32 .dwtag  DW_TAG_typedef, DW_AT_name("Bsize_t"), DW_AT_type(*DW$T$27)
    2719                      .dwattr DW$T$32, DW_AT_language(DW_LANG_C)
    2720              
    2721              DW$T$95 .dwtag  DW_TAG_subroutine_type, DW_AT_type(*DW$T$32)
    2722                      .dwattr DW$T$95, DW_AT_language(DW_LANG_C)
    2723              DW$198  .dwtag  DW_TAG_formal_parameter, DW_AT_type(*DW$T$33)
    2724                      .dwendtag DW$T$95
    2725              
    2726              
    2727              DW$T$97 .dwtag  DW_TAG_subroutine_type, DW_AT_type(*DW$T$32)
    2728                      .dwattr DW$T$97, DW_AT_language(DW_LANG_C)
    2729              DW$199  .dwtag  DW_TAG_formal_parameter, DW_AT_type(*DW$T$33)
    2730              DW$200  .dwtag  DW_TAG_formal_parameter, DW_AT_type(*DW$T$32)
    2731                      .dwendtag DW$T$97
    2732              
    2733              
    2734              DW$T$99 .dwtag  DW_TAG_array_type, DW_AT_type(*DW$T$32)
    2735                      .dwattr DW$T$99, DW_AT_language(DW_LANG_C)
    2736                      .dwattr DW$T$99, DW_AT_byte_size(0x15)
    2737              DW$201  .dwtag  DW_TAG_subrange_type
    2738                      .dwattr DW$201, DW_AT_upper_bound(0x14)
    2739                      .dwendtag DW$T$99
    2740              
    2741              DW$T$88 .dwtag  DW_TAG_typedef, DW_AT_name("BOOL"), DW_AT_type(*DW$T$27)
    2742                      .dwattr DW$T$88, DW_AT_language(DW_LANG_C)
    2743              
    2744              DW$T$89 .dwtag  DW_TAG_subroutine_type, DW_AT_type(*DW$T$88)
    2745                      .dwattr DW$T$89, DW_AT_language(DW_LANG_C)
    2746              DW$202  .dwtag  DW_TAG_formal_parameter, DW_AT_type(*DW$T$33)
    2747              DW$203  .dwtag  DW_TAG_formal_parameter, DW_AT_type(*DW$T$33)
    2748              DW$204  .dwtag  DW_TAG_formal_parameter, DW_AT_type(*DW$T$27)
    2749                      .dwendtag DW$T$89
TMS320C2000 COFF Assembler PC v4.1.3 Fri Sep 10 14:13:16 2010

Tools Copyright (c) 1996-2006 Texas Instruments Incorporated
C:\DOCUME~1\ADMINI~1\LOCALS~1\Temp\TI0163                            PAGE   74

    2750              
    2751              
    2752              DW$T$91 .dwtag  DW_TAG_subroutine_type, DW_AT_type(*DW$T$88)
    2753                      .dwattr DW$T$91, DW_AT_language(DW_LANG_C)
    2754              DW$205  .dwtag  DW_TAG_formal_parameter, DW_AT_type(*DW$T$23)
    2755                      .dwendtag DW$T$91
    2756              
    2757              
    2758              DW$T$93 .dwtag  DW_TAG_subroutine_type, DW_AT_type(*DW$T$88)
    2759                      .dwattr DW$T$93, DW_AT_language(DW_LANG_C)
    2760              DW$206  .dwtag  DW_TAG_formal_parameter, DW_AT_type(*DW$T$52)
    2761              DW$207  .dwtag  DW_TAG_formal_parameter, DW_AT_type(*DW$T$25)
    2762                      .dwendtag DW$T$93
    2763              
    2764              DW$T$60 .dwtag  DW_TAG_pointer_type, DW_AT_type(*DW$T$59)
    2765                      .dwattr DW$T$60, DW_AT_address_class(0x16)
    2766              DW$T$72 .dwtag  DW_TAG_pointer_type, DW_AT_type(*DW$T$60)
    2767                      .dwattr DW$T$72, DW_AT_address_class(0x16)
    2768              DW$T$23 .dwtag  DW_TAG_base_type, DW_AT_name("signed char")
    2769                      .dwattr DW$T$23, DW_AT_encoding(DW_ATE_signed_char)
    2770                      .dwattr DW$T$23, DW_AT_byte_size(0x01)
    2771              DW$T$50 .dwtag  DW_TAG_pointer_type, DW_AT_type(*DW$T$23)
    2772                      .dwattr DW$T$50, DW_AT_address_class(0x16)
    2773              DW$T$85 .dwtag  DW_TAG_pointer_type, DW_AT_type(*DW$T$84)
    2774                      .dwattr DW$T$85, DW_AT_address_class(0x16)
    2775              
    2776              DW$T$103        .dwtag  DW_TAG_array_type, DW_AT_type(*DW$T$23)
    2777                      .dwattr DW$T$103, DW_AT_language(DW_LANG_C)
    2778                      .dwattr DW$T$103, DW_AT_byte_size(0x1e)
    2779              DW$208  .dwtag  DW_TAG_subrange_type
    2780                      .dwattr DW$208, DW_AT_upper_bound(0x1d)
    2781                      .dwendtag DW$T$103
    2782              
    2783              DW$T$64 .dwtag  DW_TAG_typedef, DW_AT_name("log_param"), DW_AT_type(*DW$T$26)
    2784                      .dwattr DW$T$64, DW_AT_language(DW_LANG_C)
    2785              DW$T$65 .dwtag  DW_TAG_pointer_type, DW_AT_type(*DW$T$64)
    2786                      .dwattr DW$T$65, DW_AT_address_class(0x16)
    2787              DW$T$105        .dwtag  DW_TAG_typedef, DW_AT_name("ucshell_flag_u"), DW_AT_type(*DW$T$30)
    2788                      .dwattr DW$T$105, DW_AT_language(DW_LANG_C)
    2789              DW$T$109        .dwtag  DW_TAG_typedef, DW_AT_name("os_dirver_maneger_t"), DW_AT_type(*DW$T$49)
    2790                      .dwattr DW$T$109, DW_AT_language(DW_LANG_C)
    2791              
    2792              DW$T$112        .dwtag  DW_TAG_array_type, DW_AT_type(*DW$T$111)
    2793                      .dwattr DW$T$112, DW_AT_language(DW_LANG_C)
    2794                      .dwattr DW$T$112, DW_AT_byte_size(0x30)
    2795              DW$209  .dwtag  DW_TAG_subrange_type
    2796                      .dwattr DW$209, DW_AT_upper_bound(0x07)
    2797                      .dwendtag DW$T$112
    2798              
    2799              DW$T$6  .dwtag  DW_TAG_base_type, DW_AT_name("unsigned char")
    2800                      .dwattr DW$T$6, DW_AT_encoding(DW_ATE_unsigned_char)
    2801                      .dwattr DW$T$6, DW_AT_byte_size(0x01)
    2802              DW$T$11 .dwtag  DW_TAG_base_type, DW_AT_name("unsigned int")
    2803                      .dwattr DW$T$11, DW_AT_encoding(DW_ATE_unsigned)
    2804                      .dwattr DW$T$11, DW_AT_byte_size(0x01)
TMS320C2000 COFF Assembler PC v4.1.3 Fri Sep 10 14:13:16 2010

Tools Copyright (c) 1996-2006 Texas Instruments Incorporated
C:\DOCUME~1\ADMINI~1\LOCALS~1\Temp\TI0163                            PAGE   75

    2805              DW$T$59 .dwtag  DW_TAG_typedef, DW_AT_name("a_lock_t"), DW_AT_type(*DW$T$58)
    2806                      .dwattr DW$T$59, DW_AT_language(DW_LANG_C)
    2807              DW$210  .dwtag  DW_TAG_far_type
    2808                      .dwattr DW$210, DW_AT_type(*DW$T$23)
    2809              DW$T$84 .dwtag  DW_TAG_const_type
    2810                      .dwattr DW$T$84, DW_AT_type(*DW$210)
    2811              
    2812              DW$T$26 .dwtag  DW_TAG_structure_type
    2813                      .dwattr DW$T$26, DW_AT_byte_size(0x28)
    2814              DW$211  .dwtag  DW_TAG_member, DW_AT_type(*DW$T$24)
    2815                      .dwattr DW$211, DW_AT_name("pram_buf"), DW_AT_symbol_name("_pram_buf")
    2816                      .dwattr DW$211, DW_AT_data_member_location[DW_OP_plus_uconst 0x0]
    2817                      .dwattr DW$211, DW_AT_accessibility(DW_ACCESS_public)
    2818              DW$212  .dwtag  DW_TAG_member, DW_AT_type(*DW$T$25)
    2819                      .dwattr DW$212, DW_AT_name("cur_off"), DW_AT_symbol_name("_cur_off")
    2820                      .dwattr DW$212, DW_AT_data_member_location[DW_OP_plus_uconst 0x18]
    2821                      .dwattr DW$212, DW_AT_accessibility(DW_ACCESS_public)
    2822              DW$213  .dwtag  DW_TAG_member, DW_AT_type(*DW$T$3)
    2823                      .dwattr DW$213, DW_AT_name("parm_0"), DW_AT_symbol_name("_parm_0")
    2824                      .dwattr DW$213, DW_AT_data_member_location[DW_OP_plus_uconst 0x1a]
    2825                      .dwattr DW$213, DW_AT_accessibility(DW_ACCESS_public)
    2826              DW$214  .dwtag  DW_TAG_member, DW_AT_type(*DW$T$3)
    2827                      .dwattr DW$214, DW_AT_name("parm_1"), DW_AT_symbol_name("_parm_1")
    2828                      .dwattr DW$214, DW_AT_data_member_location[DW_OP_plus_uconst 0x1c]
    2829                      .dwattr DW$214, DW_AT_accessibility(DW_ACCESS_public)
    2830              DW$215  .dwtag  DW_TAG_member, DW_AT_type(*DW$T$3)
    2831                      .dwattr DW$215, DW_AT_name("parm_2"), DW_AT_symbol_name("_parm_2")
    2832                      .dwattr DW$215, DW_AT_data_member_location[DW_OP_plus_uconst 0x1e]
    2833                      .dwattr DW$215, DW_AT_accessibility(DW_ACCESS_public)
    2834              DW$216  .dwtag  DW_TAG_member, DW_AT_type(*DW$T$3)
    2835                      .dwattr DW$216, DW_AT_name("parm_3"), DW_AT_symbol_name("_parm_3")
    2836                      .dwattr DW$216, DW_AT_data_member_location[DW_OP_plus_uconst 0x20]
    2837                      .dwattr DW$216, DW_AT_accessibility(DW_ACCESS_public)
    2838              DW$217  .dwtag  DW_TAG_member, DW_AT_type(*DW$T$3)
    2839                      .dwattr DW$217, DW_AT_name("parm_4"), DW_AT_symbol_name("_parm_4")
    2840                      .dwattr DW$217, DW_AT_data_member_location[DW_OP_plus_uconst 0x22]
    2841                      .dwattr DW$217, DW_AT_accessibility(DW_ACCESS_public)
    2842              DW$218  .dwtag  DW_TAG_member, DW_AT_type(*DW$T$3)
    2843                      .dwattr DW$218, DW_AT_name("parm_5"), DW_AT_symbol_name("_parm_5")
    2844                      .dwattr DW$218, DW_AT_data_member_location[DW_OP_plus_uconst 0x24]
    2845                      .dwattr DW$218, DW_AT_accessibility(DW_ACCESS_public)
    2846              DW$219  .dwtag  DW_TAG_member, DW_AT_type(*DW$T$3)
    2847                      .dwattr DW$219, DW_AT_name("end_pram"), DW_AT_symbol_name("_end_pram")
    2848                      .dwattr DW$219, DW_AT_data_member_location[DW_OP_plus_uconst 0x26]
    2849                      .dwattr DW$219, DW_AT_accessibility(DW_ACCESS_public)
    2850                      .dwendtag DW$T$26
    2851              
    2852              
    2853              DW$T$30 .dwtag  DW_TAG_union_type
    2854                      .dwattr DW$T$30, DW_AT_byte_size(0x01)
    2855              DW$220  .dwtag  DW_TAG_member, DW_AT_type(*DW$T$27)
    2856                      .dwattr DW$220, DW_AT_name("all_bit"), DW_AT_symbol_name("_all_bit")
    2857                      .dwattr DW$220, DW_AT_data_member_location[DW_OP_plus_uconst 0x0]
    2858                      .dwattr DW$220, DW_AT_accessibility(DW_ACCESS_public)
    2859              DW$221  .dwtag  DW_TAG_member, DW_AT_type(*DW$T$29)
TMS320C2000 COFF Assembler PC v4.1.3 Fri Sep 10 14:13:16 2010

Tools Copyright (c) 1996-2006 Texas Instruments Incorporated
C:\DOCUME~1\ADMINI~1\LOCALS~1\Temp\TI0163                            PAGE   76

    2860                      .dwattr DW$221, DW_AT_name("bit_flag"), DW_AT_symbol_name("_bit_flag")
    2861                      .dwattr DW$221, DW_AT_data_member_location[DW_OP_plus_uconst 0x0]
    2862                      .dwattr DW$221, DW_AT_accessibility(DW_ACCESS_public)
    2863                      .dwendtag DW$T$30
    2864              
    2865              
    2866              DW$T$49 .dwtag  DW_TAG_structure_type
    2867                      .dwattr DW$T$49, DW_AT_byte_size(0x2be)
    2868              DW$222  .dwtag  DW_TAG_member, DW_AT_type(*DW$T$32)
    2869                      .dwattr DW$222, DW_AT_name("real_size"), DW_AT_symbol_name("_real_size")
    2870                      .dwattr DW$222, DW_AT_data_member_location[DW_OP_plus_uconst 0x0]
    2871                      .dwattr DW$222, DW_AT_accessibility(DW_ACCESS_public)
    2872              DW$223  .dwtag  DW_TAG_member, DW_AT_type(*DW$T$48)
    2873                      .dwattr DW$223, DW_AT_name("os_driver_member"), DW_AT_symbol_name("_os_driver_member")
    2874                      .dwattr DW$223, DW_AT_data_member_location[DW_OP_plus_uconst 0x2]
    2875                      .dwattr DW$223, DW_AT_accessibility(DW_ACCESS_public)
    2876                      .dwendtag DW$T$49
    2877              
    2878              DW$224  .dwtag  DW_TAG_far_type
    2879                      .dwattr DW$224, DW_AT_type(*DW$T$110)
    2880              DW$T$111        .dwtag  DW_TAG_const_type
    2881                      .dwattr DW$T$111, DW_AT_type(*DW$224)
    2882              DW$T$58 .dwtag  DW_TAG_typedef, DW_AT_name("OS_EVENT"), DW_AT_type(*DW$T$22)
    2883                      .dwattr DW$T$58, DW_AT_language(DW_LANG_C)
    2884              
    2885              DW$T$24 .dwtag  DW_TAG_array_type, DW_AT_type(*DW$T$23)
    2886                      .dwattr DW$T$24, DW_AT_language(DW_LANG_C)
    2887                      .dwattr DW$T$24, DW_AT_byte_size(0x18)
    2888              DW$225  .dwtag  DW_TAG_subrange_type
    2889                      .dwattr DW$225, DW_AT_upper_bound(0x17)
    2890                      .dwendtag DW$T$24
    2891              
    2892              DW$T$29 .dwtag  DW_TAG_typedef, DW_AT_name("ucshell_flag_t"), DW_AT_type(*DW$T$28)
    2893                      .dwattr DW$T$29, DW_AT_language(DW_LANG_C)
    2894              
    2895              DW$T$48 .dwtag  DW_TAG_array_type, DW_AT_type(*DW$T$47)
    2896                      .dwattr DW$T$48, DW_AT_language(DW_LANG_C)
    2897                      .dwattr DW$T$48, DW_AT_byte_size(0x2bc)
    2898              DW$226  .dwtag  DW_TAG_subrange_type
    2899                      .dwattr DW$226, DW_AT_upper_bound(0x18)
    2900                      .dwendtag DW$T$48
    2901              
    2902              DW$T$110        .dwtag  DW_TAG_typedef, DW_AT_name("ucshell_cmd_manege_t"), DW_AT_type(*DW$T$53)
    2903                      .dwattr DW$T$110, DW_AT_language(DW_LANG_C)
    2904              
    2905              DW$T$22 .dwtag  DW_TAG_structure_type
    2906                      .dwattr DW$T$22, DW_AT_name("os_event")
    2907                      .dwattr DW$T$22, DW_AT_byte_size(0x0e)
    2908              DW$227  .dwtag  DW_TAG_member, DW_AT_type(*DW$T$19)
    2909                      .dwattr DW$227, DW_AT_name("OSEventType"), DW_AT_symbol_name("_OSEventType")
    2910                      .dwattr DW$227, DW_AT_data_member_location[DW_OP_plus_uconst 0x0]
    2911                      .dwattr DW$227, DW_AT_accessibility(DW_ACCESS_public)
    2912              DW$228  .dwtag  DW_TAG_member, DW_AT_type(*DW$T$3)
    2913                      .dwattr DW$228, DW_AT_name("OSEventPtr"), DW_AT_symbol_name("_OSEventPtr")
    2914                      .dwattr DW$228, DW_AT_data_member_location[DW_OP_plus_uconst 0x2]
TMS320C2000 COFF Assembler PC v4.1.3 Fri Sep 10 14:13:16 2010

Tools Copyright (c) 1996-2006 Texas Instruments Incorporated
C:\DOCUME~1\ADMINI~1\LOCALS~1\Temp\TI0163                            PAGE   77

    2915                      .dwattr DW$228, DW_AT_accessibility(DW_ACCESS_public)
    2916              DW$229  .dwtag  DW_TAG_member, DW_AT_type(*DW$T$20)
    2917                      .dwattr DW$229, DW_AT_name("OSEventCnt"), DW_AT_symbol_name("_OSEventCnt")
    2918                      .dwattr DW$229, DW_AT_data_member_location[DW_OP_plus_uconst 0x4]
    2919                      .dwattr DW$229, DW_AT_accessibility(DW_ACCESS_public)
    2920              DW$230  .dwtag  DW_TAG_member, DW_AT_type(*DW$T$19)
    2921                      .dwattr DW$230, DW_AT_name("OSEventGrp"), DW_AT_symbol_name("_OSEventGrp")
    2922                      .dwattr DW$230, DW_AT_data_member_location[DW_OP_plus_uconst 0x5]
    2923                      .dwattr DW$230, DW_AT_accessibility(DW_ACCESS_public)
    2924              DW$231  .dwtag  DW_TAG_member, DW_AT_type(*DW$T$21)
    2925                      .dwattr DW$231, DW_AT_name("OSEventTbl"), DW_AT_symbol_name("_OSEventTbl")
    2926                      .dwattr DW$231, DW_AT_data_member_location[DW_OP_plus_uconst 0x6]
    2927                      .dwattr DW$231, DW_AT_accessibility(DW_ACCESS_public)
    2928                      .dwendtag DW$T$22
    2929              
    2930              
    2931              DW$T$28 .dwtag  DW_TAG_structure_type
    2932                      .dwattr DW$T$28, DW_AT_byte_size(0x01)
    2933              DW$232  .dwtag  DW_TAG_member, DW_AT_type(*DW$T$27)
    2934                      .dwattr DW$232, DW_AT_name("eff_flag"), DW_AT_symbol_name("_eff_flag")
    2935                      .dwattr DW$232, DW_AT_bit_offset(0x0f), DW_AT_bit_size(0x01)
    2936                      .dwattr DW$232, DW_AT_data_member_location[DW_OP_plus_uconst 0x0]
    2937                      .dwattr DW$232, DW_AT_accessibility(DW_ACCESS_public)
    2938              DW$233  .dwtag  DW_TAG_member, DW_AT_type(*DW$T$27)
    2939                      .dwattr DW$233, DW_AT_name("pst_flag"), DW_AT_symbol_name("_pst_flag")
    2940                      .dwattr DW$233, DW_AT_bit_offset(0x0e), DW_AT_bit_size(0x01)
    2941                      .dwattr DW$233, DW_AT_data_member_location[DW_OP_plus_uconst 0x0]
    2942                      .dwattr DW$233, DW_AT_accessibility(DW_ACCESS_public)
    2943              DW$234  .dwtag  DW_TAG_member, DW_AT_type(*DW$T$27)
    2944                      .dwattr DW$234, DW_AT_name("psd_flag"), DW_AT_symbol_name("_psd_flag")
    2945                      .dwattr DW$234, DW_AT_bit_offset(0x0d), DW_AT_bit_size(0x01)
    2946                      .dwattr DW$234, DW_AT_data_member_location[DW_OP_plus_uconst 0x0]
    2947                      .dwattr DW$234, DW_AT_accessibility(DW_ACCESS_public)
    2948              DW$235  .dwtag  DW_TAG_member, DW_AT_type(*DW$T$27)
    2949                      .dwattr DW$235, DW_AT_name("reserve_bit"), DW_AT_symbol_name("_reserve_bit")
    2950                      .dwattr DW$235, DW_AT_bit_offset(0x00), DW_AT_bit_size(0x0d)
    2951                      .dwattr DW$235, DW_AT_data_member_location[DW_OP_plus_uconst 0x0]
    2952                      .dwattr DW$235, DW_AT_accessibility(DW_ACCESS_public)
    2953                      .dwendtag DW$T$28
    2954              
    2955              DW$T$47 .dwtag  DW_TAG_typedef, DW_AT_name("os_dirver_member_t"), DW_AT_type(*DW$T$46)
    2956                      .dwattr DW$T$47, DW_AT_language(DW_LANG_C)
    2957              
    2958              DW$T$53 .dwtag  DW_TAG_structure_type
    2959                      .dwattr DW$T$53, DW_AT_byte_size(0x06)
    2960              DW$236  .dwtag  DW_TAG_member, DW_AT_type(*DW$T$50)
    2961                      .dwattr DW$236, DW_AT_name("cmd"), DW_AT_symbol_name("_cmd")
    2962                      .dwattr DW$236, DW_AT_data_member_location[DW_OP_plus_uconst 0x0]
    2963                      .dwattr DW$236, DW_AT_accessibility(DW_ACCESS_public)
    2964              DW$237  .dwtag  DW_TAG_member, DW_AT_type(*DW$T$52)
    2965                      .dwattr DW$237, DW_AT_name("cmd_run_fun"), DW_AT_symbol_name("_cmd_run_fun")
    2966                      .dwattr DW$237, DW_AT_data_member_location[DW_OP_plus_uconst 0x2]
    2967                      .dwattr DW$237, DW_AT_accessibility(DW_ACCESS_public)
    2968              DW$238  .dwtag  DW_TAG_member, DW_AT_type(*DW$T$50)
    2969                      .dwattr DW$238, DW_AT_name("cmd_explain"), DW_AT_symbol_name("_cmd_explain")
TMS320C2000 COFF Assembler PC v4.1.3 Fri Sep 10 14:13:16 2010

Tools Copyright (c) 1996-2006 Texas Instruments Incorporated
C:\DOCUME~1\ADMINI~1\LOCALS~1\Temp\TI0163                            PAGE   78

    2970                      .dwattr DW$238, DW_AT_data_member_location[DW_OP_plus_uconst 0x4]
    2971                      .dwattr DW$238, DW_AT_accessibility(DW_ACCESS_public)
    2972                      .dwendtag DW$T$53
    2973              
    2974              
    2975              DW$T$21 .dwtag  DW_TAG_array_type, DW_AT_type(*DW$T$19)
    2976                      .dwattr DW$T$21, DW_AT_language(DW_LANG_C)
    2977                      .dwattr DW$T$21, DW_AT_byte_size(0x08)
    2978              DW$239  .dwtag  DW_TAG_subrange_type
    2979                      .dwattr DW$239, DW_AT_upper_bound(0x07)
    2980                      .dwendtag DW$T$21
    2981              
    2982              
    2983              DW$T$46 .dwtag  DW_TAG_structure_type
    2984                      .dwattr DW$T$46, DW_AT_byte_size(0x1c)
    2985              DW$240  .dwtag  DW_TAG_member, DW_AT_type(*DW$T$31)
    2986                      .dwattr DW$240, DW_AT_name("id"), DW_AT_symbol_name("_id")
    2987                      .dwattr DW$240, DW_AT_data_member_location[DW_OP_plus_uconst 0x0]
    2988                      .dwattr DW$240, DW_AT_accessibility(DW_ACCESS_public)
    2989              DW$241  .dwtag  DW_TAG_member, DW_AT_type(*DW$T$36)
    2990                      .dwattr DW$241, DW_AT_name("os_driver_read"), DW_AT_symbol_name("_os_driver_read")
    2991                      .dwattr DW$241, DW_AT_data_member_location[DW_OP_plus_uconst 0x2]
    2992                      .dwattr DW$241, DW_AT_accessibility(DW_ACCESS_public)
    2993              DW$242  .dwtag  DW_TAG_member, DW_AT_type(*DW$T$37)
    2994                      .dwattr DW$242, DW_AT_name("os_driver_write"), DW_AT_symbol_name("_os_driver_write")
    2995                      .dwattr DW$242, DW_AT_data_member_location[DW_OP_plus_uconst 0x4]
    2996                      .dwattr DW$242, DW_AT_accessibility(DW_ACCESS_public)
    2997              DW$243  .dwtag  DW_TAG_member, DW_AT_type(*DW$T$40)
    2998                      .dwattr DW$243, DW_AT_name("os_driver_ioctl"), DW_AT_symbol_name("_os_driver_ioctl")
    2999                      .dwattr DW$243, DW_AT_data_member_location[DW_OP_plus_uconst 0x6]
    3000                      .dwattr DW$243, DW_AT_accessibility(DW_ACCESS_public)
    3001              DW$244  .dwtag  DW_TAG_member, DW_AT_type(*DW$T$43)
    3002                      .dwattr DW$244, DW_AT_name("os_driver_init"), DW_AT_symbol_name("_os_driver_init")
    3003                      .dwattr DW$244, DW_AT_data_member_location[DW_OP_plus_uconst 0x8]
    3004                      .dwattr DW$244, DW_AT_accessibility(DW_ACCESS_public)
    3005              DW$245  .dwtag  DW_TAG_member, DW_AT_type(*DW$T$44)
    3006                      .dwattr DW$245, DW_AT_name("os_driver_uninstall"), DW_AT_symbol_name("_os_driver_uninstall")
    3007                      .dwattr DW$245, DW_AT_data_member_location[DW_OP_plus_uconst 0xa]
    3008                      .dwattr DW$245, DW_AT_accessibility(DW_ACCESS_public)
    3009              DW$246  .dwtag  DW_TAG_member, DW_AT_type(*DW$T$45)
    3010                      .dwattr DW$246, DW_AT_name("os_driver_name"), DW_AT_symbol_name("_os_driver_name")
    3011                      .dwattr DW$246, DW_AT_data_member_location[DW_OP_plus_uconst 0xc]
    3012                      .dwattr DW$246, DW_AT_accessibility(DW_ACCESS_public)
    3013                      .dwendtag DW$T$46
    3014              
    3015              DW$T$40 .dwtag  DW_TAG_typedef, DW_AT_name("os_driver_ioctl_t"), DW_AT_type(*DW$T$39)
    3016                      .dwattr DW$T$40, DW_AT_language(DW_LANG_C)
    3017              DW$T$43 .dwtag  DW_TAG_typedef, DW_AT_name("os_driver_init_t"), DW_AT_type(*DW$T$42)
    3018                      .dwattr DW$T$43, DW_AT_language(DW_LANG_C)
    3019              DW$T$44 .dwtag  DW_TAG_typedef, DW_AT_name("os_driver_uninstall_t"), DW_AT_type(*DW$T$42)
    3020                      .dwattr DW$T$44, DW_AT_language(DW_LANG_C)
    3021              DW$T$31 .dwtag  DW_TAG_typedef, DW_AT_name("dev_id_t"), DW_AT_type(*DW$T$25)
    3022                      .dwattr DW$T$31, DW_AT_language(DW_LANG_C)
    3023              DW$T$36 .dwtag  DW_TAG_typedef, DW_AT_name("os_driver_read_t"), DW_AT_type(*DW$T$35)
    3024                      .dwattr DW$T$36, DW_AT_language(DW_LANG_C)
TMS320C2000 COFF Assembler PC v4.1.3 Fri Sep 10 14:13:16 2010

Tools Copyright (c) 1996-2006 Texas Instruments Incorporated
C:\DOCUME~1\ADMINI~1\LOCALS~1\Temp\TI0163                            PAGE   79

    3025              DW$T$37 .dwtag  DW_TAG_typedef, DW_AT_name("os_driver_write_t"), DW_AT_type(*DW$T$35)
    3026                      .dwattr DW$T$37, DW_AT_language(DW_LANG_C)
    3027              
    3028              DW$T$45 .dwtag  DW_TAG_array_type, DW_AT_type(*DW$T$23)
    3029                      .dwattr DW$T$45, DW_AT_language(DW_LANG_C)
    3030                      .dwattr DW$T$45, DW_AT_byte_size(0x0f)
    3031              DW$247  .dwtag  DW_TAG_subrange_type
    3032                      .dwattr DW$247, DW_AT_upper_bound(0x0e)
    3033                      .dwendtag DW$T$45
    3034              
    3035              DW$T$39 .dwtag  DW_TAG_pointer_type, DW_AT_type(*DW$T$38)
    3036                      .dwattr DW$T$39, DW_AT_address_class(0x16)
    3037              DW$T$42 .dwtag  DW_TAG_pointer_type, DW_AT_type(*DW$T$41)
    3038                      .dwattr DW$T$42, DW_AT_address_class(0x16)
    3039              DW$T$35 .dwtag  DW_TAG_pointer_type, DW_AT_type(*DW$T$34)
    3040                      .dwattr DW$T$35, DW_AT_address_class(0x16)
    3041              
    3042              DW$T$38 .dwtag  DW_TAG_subroutine_type
    3043                      .dwattr DW$T$38, DW_AT_language(DW_LANG_C)
    3044              DW$248  .dwtag  DW_TAG_formal_parameter, DW_AT_type(*DW$T$25)
    3045              DW$249  .dwtag  DW_TAG_formal_parameter, DW_AT_type(*DW$T$3)
    3046                      .dwendtag DW$T$38
    3047              
    3048              
    3049              DW$T$34 .dwtag  DW_TAG_subroutine_type, DW_AT_type(*DW$T$32)
    3050                      .dwattr DW$T$34, DW_AT_language(DW_LANG_C)
    3051              DW$250  .dwtag  DW_TAG_formal_parameter, DW_AT_type(*DW$T$33)
    3052              DW$251  .dwtag  DW_TAG_formal_parameter, DW_AT_type(*DW$T$32)
    3053              DW$252  .dwtag  DW_TAG_formal_parameter, DW_AT_type(*DW$T$3)
    3054                      .dwendtag DW$T$34
    3055              
    3056              
    3057                      .dwattr DW$70, DW_AT_external(0x01)
    3058                      .dwattr DW$115, DW_AT_external(0x01)
    3059                      .dwattr DW$57, DW_AT_external(0x01)
    3060                      .dwattr DW$135, DW_AT_external(0x01)
    3061                      .dwattr DW$124, DW_AT_external(0x01)
    3062                      .dwattr DW$98, DW_AT_external(0x01)
    3063                      .dwattr DW$141, DW_AT_external(0x01)
    3064                      .dwattr DW$121, DW_AT_external(0x01)
    3065                      .dwattr DW$86, DW_AT_external(0x01)
    3066                      .dwattr DW$118, DW_AT_external(0x01)
    3067                      .dwattr DW$75, DW_AT_external(0x01)
    3068                      .dwattr DW$67, DW_AT_external(0x01)
    3069                      .dwattr DW$73, DW_AT_external(0x01)
    3070                      .dwattr DW$179, DW_AT_external(0x01)
    3071                      .dwattr DW$178, DW_AT_external(0x01)
    3072                      .dwattr DW$142, DW_AT_external(0x01)
    3073                      .dwattr DW$142, DW_AT_type(*DW$T$32)
    3074                      .dwattr DW$155, DW_AT_external(0x01)
    3075                      .dwattr DW$CU, DW_AT_language(DW_LANG_C)
    3076              
    3077              ;***************************************************************
    3078              ;* DWARF CIE ENTRIES                                           *
    3079              ;***************************************************************
TMS320C2000 COFF Assembler PC v4.1.3 Fri Sep 10 14:13:16 2010

Tools Copyright (c) 1996-2006 Texas Instruments Incorporated
C:\DOCUME~1\ADMINI~1\LOCALS~1\Temp\TI0163                            PAGE   80

    3080              
    3081              DW$CIE  .dwcie 1, 40
    3082                      .dwcfa  0x0c, 20, 0
    3083                      .dwcfa  0x07, 0
    3084                      .dwcfa  0x07, 1
    3085                      .dwcfa  0x07, 2
    3086                      .dwcfa  0x07, 3
    3087                      .dwcfa  0x07, 4
    3088                      .dwcfa  0x07, 5
    3089                      .dwcfa  0x08, 6
    3090                      .dwcfa  0x08, 7
    3091                      .dwcfa  0x08, 8
    3092                      .dwcfa  0x08, 9
    3093                      .dwcfa  0x08, 10
    3094                      .dwcfa  0x08, 11
    3095                      .dwcfa  0x07, 12
    3096                      .dwcfa  0x07, 13
    3097                      .dwcfa  0x07, 14
    3098                      .dwcfa  0x07, 15
    3099                      .dwcfa  0x07, 16
    3100                      .dwcfa  0x07, 17
    3101                      .dwcfa  0x07, 18
    3102                      .dwcfa  0x07, 19
    3103                      .dwcfa  0x07, 20
    3104                      .dwcfa  0x07, 21
    3105                      .dwcfa  0x07, 22
    3106                      .dwcfa  0x07, 23
    3107                      .dwcfa  0x07, 24
    3108                      .dwcfa  0x07, 25
    3109                      .dwcfa  0x07, 26
    3110                      .dwcfa  0x08, 27
    3111                      .dwcfa  0x07, 28
    3112                      .dwcfa  0x07, 29
    3113                      .dwcfa  0x07, 30
    3114                      .dwcfa  0x07, 31
    3115                      .dwcfa  0x07, 32
    3116                      .dwcfa  0x07, 33
    3117                      .dwcfa  0x07, 34
    3118                      .dwcfa  0x07, 35
    3119                      .dwcfa  0x07, 36
    3120                      .dwcfa  0x07, 37
    3121                      .dwcfa  0x07, 38
    3122                      .dwcfa  0x07, 39
    3123                      .dwcfa  0x07, 40
    3124              
    3125              ;***************************************************************
    3126              ;* DWARF REGISTER MAP                                          *
    3127              ;***************************************************************
    3128              
    3129              DW$253  .dwtag  DW_TAG_assign_register, DW_AT_name("AL")
    3130                      .dwattr DW$253, DW_AT_location[DW_OP_reg0]
    3131              DW$254  .dwtag  DW_TAG_assign_register, DW_AT_name("AH")
    3132                      .dwattr DW$254, DW_AT_location[DW_OP_reg1]
    3133              DW$255  .dwtag  DW_TAG_assign_register, DW_AT_name("PL")
    3134                      .dwattr DW$255, DW_AT_location[DW_OP_reg2]
TMS320C2000 COFF Assembler PC v4.1.3 Fri Sep 10 14:13:16 2010

Tools Copyright (c) 1996-2006 Texas Instruments Incorporated
C:\DOCUME~1\ADMINI~1\LOCALS~1\Temp\TI0163                            PAGE   81

    3135              DW$256  .dwtag  DW_TAG_assign_register, DW_AT_name("PH")
    3136                      .dwattr DW$256, DW_AT_location[DW_OP_reg3]
    3137              DW$257  .dwtag  DW_TAG_assign_register, DW_AT_name("AR0")
    3138                      .dwattr DW$257, DW_AT_location[DW_OP_reg4]
    3139              DW$258  .dwtag  DW_TAG_assign_register, DW_AT_name("XAR0")
    3140                      .dwattr DW$258, DW_AT_location[DW_OP_reg5]
    3141              DW$259  .dwtag  DW_TAG_assign_register, DW_AT_name("AR1")
    3142                      .dwattr DW$259, DW_AT_location[DW_OP_reg6]
    3143              DW$260  .dwtag  DW_TAG_assign_register, DW_AT_name("XAR1")
    3144                      .dwattr DW$260, DW_AT_location[DW_OP_reg7]
    3145              DW$261  .dwtag  DW_TAG_assign_register, DW_AT_name("AR2")
    3146                      .dwattr DW$261, DW_AT_location[DW_OP_reg8]
    3147              DW$262  .dwtag  DW_TAG_assign_register, DW_AT_name("XAR2")
    3148                      .dwattr DW$262, DW_AT_location[DW_OP_reg9]
    3149              DW$263  .dwtag  DW_TAG_assign_register, DW_AT_name("AR3")
    3150                      .dwattr DW$263, DW_AT_location[DW_OP_reg10]
    3151              DW$264  .dwtag  DW_TAG_assign_register, DW_AT_name("XAR3")
    3152                      .dwattr DW$264, DW_AT_location[DW_OP_reg11]
    3153              DW$265  .dwtag  DW_TAG_assign_register, DW_AT_name("AR4")
    3154                      .dwattr DW$265, DW_AT_location[DW_OP_reg12]
    3155              DW$266  .dwtag  DW_TAG_assign_register, DW_AT_name("XAR4")
    3156                      .dwattr DW$266, DW_AT_location[DW_OP_reg13]
    3157              DW$267  .dwtag  DW_TAG_assign_register, DW_AT_name("AR5")
    3158                      .dwattr DW$267, DW_AT_location[DW_OP_reg14]
    3159              DW$268  .dwtag  DW_TAG_assign_register, DW_AT_name("XAR5")
    3160                      .dwattr DW$268, DW_AT_location[DW_OP_reg15]
    3161              DW$269  .dwtag  DW_TAG_assign_register, DW_AT_name("AR6")
    3162                      .dwattr DW$269, DW_AT_location[DW_OP_reg16]
    3163              DW$270  .dwtag  DW_TAG_assign_register, DW_AT_name("XAR6")
    3164                      .dwattr DW$270, DW_AT_location[DW_OP_reg17]
    3165              DW$271  .dwtag  DW_TAG_assign_register, DW_AT_name("AR7")
    3166                      .dwattr DW$271, DW_AT_location[DW_OP_reg18]
    3167              DW$272  .dwtag  DW_TAG_assign_register, DW_AT_name("XAR7")
    3168                      .dwattr DW$272, DW_AT_location[DW_OP_reg19]
    3169              DW$273  .dwtag  DW_TAG_assign_register, DW_AT_name("SP")
    3170                      .dwattr DW$273, DW_AT_location[DW_OP_reg20]
    3171              DW$274  .dwtag  DW_TAG_assign_register, DW_AT_name("XT")
    3172                      .dwattr DW$274, DW_AT_location[DW_OP_reg21]
    3173              DW$275  .dwtag  DW_TAG_assign_register, DW_AT_name("T")
    3174                      .dwattr DW$275, DW_AT_location[DW_OP_reg22]
    3175              DW$276  .dwtag  DW_TAG_assign_register, DW_AT_name("ST0")
    3176                      .dwattr DW$276, DW_AT_location[DW_OP_reg23]
    3177              DW$277  .dwtag  DW_TAG_assign_register, DW_AT_name("ST1")
    3178                      .dwattr DW$277, DW_AT_location[DW_OP_reg24]
    3179              DW$278  .dwtag  DW_TAG_assign_register, DW_AT_name("PC")
    3180                      .dwattr DW$278, DW_AT_location[DW_OP_reg25]
    3181              DW$279  .dwtag  DW_TAG_assign_register, DW_AT_name("RPC")
    3182                      .dwattr DW$279, DW_AT_location[DW_OP_reg26]
    3183              DW$280  .dwtag  DW_TAG_assign_register, DW_AT_name("FP")
    3184                      .dwattr DW$280, DW_AT_location[DW_OP_reg27]
    3185              DW$281  .dwtag  DW_TAG_assign_register, DW_AT_name("DP")
    3186                      .dwattr DW$281, DW_AT_location[DW_OP_reg28]
    3187              DW$282  .dwtag  DW_TAG_assign_register, DW_AT_name("SXM")
    3188                      .dwattr DW$282, DW_AT_location[DW_OP_reg29]
    3189              DW$283  .dwtag  DW_TAG_assign_register, DW_AT_name("PM")
TMS320C2000 COFF Assembler PC v4.1.3 Fri Sep 10 14:13:16 2010

Tools Copyright (c) 1996-2006 Texas Instruments Incorporated
C:\DOCUME~1\ADMINI~1\LOCALS~1\Temp\TI0163                            PAGE   82

    3190                      .dwattr DW$283, DW_AT_location[DW_OP_reg30]
    3191              DW$284  .dwtag  DW_TAG_assign_register, DW_AT_name("OVM")
    3192                      .dwattr DW$284, DW_AT_location[DW_OP_reg31]
    3193              DW$285  .dwtag  DW_TAG_assign_register, DW_AT_name("PAGE0")
    3194                      .dwattr DW$285, DW_AT_location[DW_OP_regx 0x20]
    3195              DW$286  .dwtag  DW_TAG_assign_register, DW_AT_name("AMODE")
    3196                      .dwattr DW$286, DW_AT_location[DW_OP_regx 0x21]
    3197              DW$287  .dwtag  DW_TAG_assign_register, DW_AT_name("IFR")
    3198                      .dwattr DW$287, DW_AT_location[DW_OP_regx 0x22]
    3199              DW$288  .dwtag  DW_TAG_assign_register, DW_AT_name("IER")
    3200                      .dwattr DW$288, DW_AT_location[DW_OP_regx 0x23]
    3201              DW$289  .dwtag  DW_TAG_assign_register, DW_AT_name("IER")
    3202                      .dwattr DW$289, DW_AT_location[DW_OP_regx 0x24]
    3203              DW$290  .dwtag  DW_TAG_assign_register, DW_AT_name("PSEUDO")
    3204                      .dwattr DW$290, DW_AT_location[DW_OP_regx 0x25]
    3205              DW$291  .dwtag  DW_TAG_assign_register, DW_AT_name("PSEUDOH")
    3206                      .dwattr DW$291, DW_AT_location[DW_OP_regx 0x26]
    3207              DW$292  .dwtag  DW_TAG_assign_register, DW_AT_name("VOL")
    3208                      .dwattr DW$292, DW_AT_location[DW_OP_regx 0x27]
    3209              DW$293  .dwtag  DW_TAG_assign_register, DW_AT_name("CIE_RETA")
    3210                      .dwattr DW$293, DW_AT_location[DW_OP_regx 0x28]
    3211                      .dwendtag DW$CU
    3212              

No Assembly Errors, No Assembly Warnings
