TMS320C2000 COFF Assembler PC v4.1.3 Thu Sep 13 14:28:00 2012

Tools Copyright (c) 1996-2006 Texas Instruments Incorporated
C:\DOCUME~1\ADMINI~1\LOCALS~1\Temp\TI1962                            PAGE    1

       1              ;***************************************************************
       2              ;* TMS320C2000 C/C++ Codegen                         PC v4.1.3 *
       3              ;* Date/Time created: Thu Sep 13 14:28:00 2012                 *
       4              ;***************************************************************
       5                      .compiler_opts --mem_model:code=flat --mem_model:data=large --silicon_version=28 
       6        0002  FP      .set    XAR2
       7              
       8              DW$CU   .dwtag  DW_TAG_compile_unit
       9                      .dwattr DW$CU, DW_AT_name("os_connect.c")
      10                      .dwattr DW$CU, DW_AT_producer("TMS320C2000 C/C++ Codegen PC v4.1.3 Copyright (c) 1996-2006 Texas Inst
      11                      .dwattr DW$CU, DW_AT_stmt_list(0x00)
      12                      .dwattr DW$CU, DW_AT_TI_VERSION(0x01)
      13              ;**************************************************************
      14              ;* CINIT RECORDS                                              *
      15              ;**************************************************************
      16 00000000               .sect   ".cinit"
      17                      .align  1
      18 00000000 FFFF          .field          -1,16
      19 00000001 0000-         .field          _m_reboot_flag+0,32
         00000002 0000 
      20 00000003 0000          .field          0,16                    ; _m_reboot_flag @ 0
      21              
      22 00000004               .sect   ".cinit"
      23                      .align  1
      24 00000004 FFFF          .field          -1,16
      25 00000005 0001-         .field          _m_last_mod_id+0,32
         00000006 0000 
      26 00000007 0000          .field          0,16                    ; _m_last_mod_id @ 0
      27              
      28 00000008               .sect   ".cinit"
      29                      .align  1
      30 00000008 FFFF          .field          -1,16
      31 00000009 0002-         .field          _m_event_stat_cnt+0,32
         0000000a 0000 
      32 0000000b 0000          .field          0,16                    ; _m_event_stat_cnt @ 0
      33              
      34 0000000c               .sect   ".cinit"
      35                      .align  1
      36 0000000c FFFF          .field          -1,16
      37 0000000d 0003-         .field          _m_cur_mod_id+0,32
         0000000e 0000 
      38 0000000f 0000          .field          0,16                    ; _m_cur_mod_id @ 0
      39              
      40 00000010               .sect   ".cinit"
      41                      .align  1
      42 00000010 FFFE          .field          -2,16
      43 00000011 0004-         .field          _m_task_lock+0,32
         00000012 0000 
      44 00000013 0000          .field          0,32                    ; _m_task_lock @ 0
         00000014 0000 
      45              
      46 00000015               .sect   ".cinit"
      47                      .align  1
      48 00000015 FFFE          .field          -2,16
      49 00000016 0006-         .field          _m_mod_hmsg_qevent+0,32
TMS320C2000 COFF Assembler PC v4.1.3 Thu Sep 13 14:28:00 2012

Tools Copyright (c) 1996-2006 Texas Instruments Incorporated
C:\DOCUME~1\ADMINI~1\LOCALS~1\Temp\TI1962                            PAGE    2

         00000017 0000 
      50 00000018 0000          .field          0,32                    ; _m_mod_hmsg_qevent @ 0
         00000019 0000 
      51              
      52 0000001a               .sect   ".cinit"
      53                      .align  1
      54 0000001a FFFE          .field          -2,16
      55 0000001b 0008-         .field          _m_driver_manege_lock+0,32
         0000001c 0000 
      56 0000001d 0000          .field          0,32                    ; _m_driver_manege_lock @ 0
         0000001e 0000 
      57              
      58 0000001f               .sect   ".cinit"
      59                      .align  1
      60 0000001f FFFE          .field          -2,16
      61 00000020 000A-         .field          _m_mod_hmsg_sem+0,32
         00000021 0000 
      62 00000022 0000          .field          0,32                    ; _m_mod_hmsg_sem @ 0
         00000023 0000 
      63              
      64 00000024               .sect   ".cinit"
      65                      .align  1
      66 00000024 FFFF          .field          -IR_1,16
      67 00000025 001E-         .field          _m_mod_pos_name+0,32
         00000026 0000 
      68 00000027 0000          .field          0,16                    ; _m_mod_pos_name[0] @ 0
      69        0001  IR_1:   .set    1
      70              
      71 00000028               .sect   ".cinit"
      72                      .align  1
      73 00000028 FFFF          .field          -IR_2,16
      74 00000029 0000-         .field          _OSTaskIdleStk+0,32
         0000002a 0000 
      75 0000002b 0000          .field          0,16                    ; _OSTaskIdleStk[0] @ 0
      76        0001  IR_2:   .set    1
      77              
      78 0000002c               .sect   ".cinit"
      79                      .align  1
      80 0000002c FFFF          .field          -IR_3,16
      81 0000002d 0100-         .field          _m_stk_array+0,32
         0000002e 0000 
      82 0000002f 0000          .field          0,16                    ; _m_stk_array[0][0] @ 0
      83        0001  IR_3:   .set    1
      84              
      85              
      86              DW$1    .dwtag  DW_TAG_subprogram, DW_AT_name("OS_EventWaitListInit"), DW_AT_symbol_name("_OS_EventWaitListIn
      87                      .dwattr DW$1, DW_AT_declaration(0x01)
      88                      .dwattr DW$1, DW_AT_external(0x01)
      89              DW$2    .dwtag  DW_TAG_formal_parameter, DW_AT_type(*DW$T$53)
      90                      .dwendtag DW$1
      91              
      92              
      93              DW$3    .dwtag  DW_TAG_subprogram, DW_AT_name("OSSemPend"), DW_AT_symbol_name("_OSSemPend")
      94                      .dwattr DW$3, DW_AT_declaration(0x01)
      95                      .dwattr DW$3, DW_AT_external(0x01)
TMS320C2000 COFF Assembler PC v4.1.3 Thu Sep 13 14:28:00 2012

Tools Copyright (c) 1996-2006 Texas Instruments Incorporated
C:\DOCUME~1\ADMINI~1\LOCALS~1\Temp\TI1962                            PAGE    3

      96              DW$4    .dwtag  DW_TAG_formal_parameter, DW_AT_type(*DW$T$53)
      97              DW$5    .dwtag  DW_TAG_formal_parameter, DW_AT_type(*DW$T$20)
      98              DW$6    .dwtag  DW_TAG_formal_parameter, DW_AT_type(*DW$T$54)
      99                      .dwendtag DW$3
     100              
     101              
     102              DW$7    .dwtag  DW_TAG_subprogram, DW_AT_name("OSTaskNameSet"), DW_AT_symbol_name("_OSTaskNameSet")
     103                      .dwattr DW$7, DW_AT_declaration(0x01)
     104                      .dwattr DW$7, DW_AT_external(0x01)
     105              DW$8    .dwtag  DW_TAG_formal_parameter, DW_AT_type(*DW$T$19)
     106              DW$9    .dwtag  DW_TAG_formal_parameter, DW_AT_type(*DW$T$54)
     107              DW$10   .dwtag  DW_TAG_formal_parameter, DW_AT_type(*DW$T$54)
     108                      .dwendtag DW$7
     109              
     110              
     111              DW$11   .dwtag  DW_TAG_subprogram, DW_AT_name("OSTimeDly"), DW_AT_symbol_name("_OSTimeDly")
     112                      .dwattr DW$11, DW_AT_declaration(0x01)
     113                      .dwattr DW$11, DW_AT_external(0x01)
     114              DW$12   .dwtag  DW_TAG_formal_parameter, DW_AT_type(*DW$T$20)
     115                      .dwendtag DW$11
     116              
     117              
     118              DW$13   .dwtag  DW_TAG_subprogram, DW_AT_name("OSSemSet"), DW_AT_symbol_name("_OSSemSet")
     119                      .dwattr DW$13, DW_AT_declaration(0x01)
     120                      .dwattr DW$13, DW_AT_external(0x01)
     121              DW$14   .dwtag  DW_TAG_formal_parameter, DW_AT_type(*DW$T$53)
     122              DW$15   .dwtag  DW_TAG_formal_parameter, DW_AT_type(*DW$T$20)
     123              DW$16   .dwtag  DW_TAG_formal_parameter, DW_AT_type(*DW$T$54)
     124                      .dwendtag DW$13
     125              
     126              
     127              DW$17   .dwtag  DW_TAG_subprogram, DW_AT_name("OSSemPost"), DW_AT_symbol_name("_OSSemPost")
     128                      .dwattr DW$17, DW_AT_type(*DW$T$19)
     129                      .dwattr DW$17, DW_AT_declaration(0x01)
     130                      .dwattr DW$17, DW_AT_external(0x01)
     131              DW$18   .dwtag  DW_TAG_formal_parameter, DW_AT_type(*DW$T$53)
     132                      .dwendtag DW$17
     133              
     134                      .global _m_reboot_flag
     135 00000000       _m_reboot_flag: .usect  ".ebss",1,1,0
     136              DW$19   .dwtag  DW_TAG_variable, DW_AT_name("m_reboot_flag"), DW_AT_symbol_name("_m_reboot_flag")
     137                      .dwattr DW$19, DW_AT_location[DW_OP_addr _m_reboot_flag]
     138                      .dwattr DW$19, DW_AT_type(*DW$T$23)
     139                      .dwattr DW$19, DW_AT_external(0x01)
     140              
     141              DW$20   .dwtag  DW_TAG_subprogram, DW_AT_name("OSTaskCreateExt"), DW_AT_symbol_name("_OSTaskCreateExt")
     142                      .dwattr DW$20, DW_AT_type(*DW$T$19)
     143                      .dwattr DW$20, DW_AT_declaration(0x01)
     144                      .dwattr DW$20, DW_AT_external(0x01)
     145              DW$21   .dwtag  DW_TAG_formal_parameter, DW_AT_type(*DW$T$61)
     146              DW$22   .dwtag  DW_TAG_formal_parameter, DW_AT_type(*DW$T$3)
     147              DW$23   .dwtag  DW_TAG_formal_parameter, DW_AT_type(*DW$T$100)
     148              DW$24   .dwtag  DW_TAG_formal_parameter, DW_AT_type(*DW$T$19)
     149              DW$25   .dwtag  DW_TAG_formal_parameter, DW_AT_type(*DW$T$20)
     150              DW$26   .dwtag  DW_TAG_formal_parameter, DW_AT_type(*DW$T$100)
TMS320C2000 COFF Assembler PC v4.1.3 Thu Sep 13 14:28:00 2012

Tools Copyright (c) 1996-2006 Texas Instruments Incorporated
C:\DOCUME~1\ADMINI~1\LOCALS~1\Temp\TI1962                            PAGE    4

     151              DW$27   .dwtag  DW_TAG_formal_parameter, DW_AT_type(*DW$T$101)
     152              DW$28   .dwtag  DW_TAG_formal_parameter, DW_AT_type(*DW$T$3)
     153              DW$29   .dwtag  DW_TAG_formal_parameter, DW_AT_type(*DW$T$20)
     154                      .dwendtag DW$20
     155              
     156              
     157              DW$30   .dwtag  DW_TAG_subprogram, DW_AT_name("OSTaskDel"), DW_AT_symbol_name("_OSTaskDel")
     158                      .dwattr DW$30, DW_AT_type(*DW$T$19)
     159                      .dwattr DW$30, DW_AT_declaration(0x01)
     160                      .dwattr DW$30, DW_AT_external(0x01)
     161              DW$31   .dwtag  DW_TAG_formal_parameter, DW_AT_type(*DW$T$19)
     162                      .dwendtag DW$30
     163              
     164              
     165              DW$32   .dwtag  DW_TAG_subprogram, DW_AT_name("OSQFlush"), DW_AT_symbol_name("_OSQFlush")
     166                      .dwattr DW$32, DW_AT_type(*DW$T$19)
     167                      .dwattr DW$32, DW_AT_declaration(0x01)
     168                      .dwattr DW$32, DW_AT_external(0x01)
     169              DW$33   .dwtag  DW_TAG_formal_parameter, DW_AT_type(*DW$T$53)
     170                      .dwendtag DW$32
     171              
     172                      .global _m_last_mod_id
     173 00000001       _m_last_mod_id: .usect  ".ebss",1,1,0
     174              DW$34   .dwtag  DW_TAG_variable, DW_AT_name("m_last_mod_id"), DW_AT_symbol_name("_m_last_mod_id")
     175                      .dwattr DW$34, DW_AT_location[DW_OP_addr _m_last_mod_id]
     176                      .dwattr DW$34, DW_AT_type(*DW$T$23)
     177                      .dwattr DW$34, DW_AT_external(0x01)
     178              DW$35   .dwtag  DW_TAG_variable, DW_AT_name("OSPrioCur"), DW_AT_symbol_name("_OSPrioCur")
     179                      .dwattr DW$35, DW_AT_type(*DW$T$19)
     180                      .dwattr DW$35, DW_AT_declaration(0x01)
     181                      .dwattr DW$35, DW_AT_external(0x01)
     182                      .global _m_event_stat_cnt
     183 00000002       _m_event_stat_cnt:      .usect  ".ebss",1,1,0
     184              DW$36   .dwtag  DW_TAG_variable, DW_AT_name("m_event_stat_cnt"), DW_AT_symbol_name("_m_event_stat_cnt")
     185                      .dwattr DW$36, DW_AT_location[DW_OP_addr _m_event_stat_cnt]
     186                      .dwattr DW$36, DW_AT_type(*DW$T$23)
     187                      .dwattr DW$36, DW_AT_external(0x01)
     188                      .global _m_cur_mod_id
     189 00000003       _m_cur_mod_id:  .usect  ".ebss",1,1,0
     190              DW$37   .dwtag  DW_TAG_variable, DW_AT_name("m_cur_mod_id"), DW_AT_symbol_name("_m_cur_mod_id")
     191                      .dwattr DW$37, DW_AT_location[DW_OP_addr _m_cur_mod_id]
     192                      .dwattr DW$37, DW_AT_type(*DW$T$23)
     193                      .dwattr DW$37, DW_AT_external(0x01)
     194              
     195              DW$38   .dwtag  DW_TAG_subprogram, DW_AT_name("OSQPost"), DW_AT_symbol_name("_OSQPost")
     196                      .dwattr DW$38, DW_AT_type(*DW$T$19)
     197                      .dwattr DW$38, DW_AT_declaration(0x01)
     198                      .dwattr DW$38, DW_AT_external(0x01)
     199              DW$39   .dwtag  DW_TAG_formal_parameter, DW_AT_type(*DW$T$53)
     200              DW$40   .dwtag  DW_TAG_formal_parameter, DW_AT_type(*DW$T$3)
     201                      .dwendtag DW$38
     202              
     203              
     204              DW$41   .dwtag  DW_TAG_subprogram, DW_AT_name("OSTaskNameGet"), DW_AT_symbol_name("_OSTaskNameGet")
     205                      .dwattr DW$41, DW_AT_type(*DW$T$19)
TMS320C2000 COFF Assembler PC v4.1.3 Thu Sep 13 14:28:00 2012

Tools Copyright (c) 1996-2006 Texas Instruments Incorporated
C:\DOCUME~1\ADMINI~1\LOCALS~1\Temp\TI1962                            PAGE    5

     206                      .dwattr DW$41, DW_AT_declaration(0x01)
     207                      .dwattr DW$41, DW_AT_external(0x01)
     208              DW$42   .dwtag  DW_TAG_formal_parameter, DW_AT_type(*DW$T$19)
     209              DW$43   .dwtag  DW_TAG_formal_parameter, DW_AT_type(*DW$T$54)
     210              DW$44   .dwtag  DW_TAG_formal_parameter, DW_AT_type(*DW$T$54)
     211                      .dwendtag DW$41
     212              
     213              
     214              DW$45   .dwtag  DW_TAG_subprogram, DW_AT_name("memset"), DW_AT_symbol_name("_memset")
     215                      .dwattr DW$45, DW_AT_type(*DW$T$10)
     216                      .dwattr DW$45, DW_AT_declaration(0x01)
     217                      .dwattr DW$45, DW_AT_external(0x01)
     218                      .global _m_task_lock
     219 00000004       _m_task_lock:   .usect  ".ebss",2,1,1
     220              DW$46   .dwtag  DW_TAG_variable, DW_AT_name("m_task_lock"), DW_AT_symbol_name("_m_task_lock")
     221                      .dwattr DW$46, DW_AT_location[DW_OP_addr _m_task_lock]
     222                      .dwattr DW$46, DW_AT_type(*DW$T$69)
     223                      .dwattr DW$46, DW_AT_external(0x01)
     224                      .global _m_mod_hmsg_qevent
     225 00000006       _m_mod_hmsg_qevent:     .usect  ".ebss",2,1,1
     226              DW$47   .dwtag  DW_TAG_variable, DW_AT_name("m_mod_hmsg_qevent"), DW_AT_symbol_name("_m_mod_hmsg_qevent")
     227                      .dwattr DW$47, DW_AT_location[DW_OP_addr _m_mod_hmsg_qevent]
     228                      .dwattr DW$47, DW_AT_type(*DW$T$73)
     229                      .dwattr DW$47, DW_AT_external(0x01)
     230                      .global _m_driver_manege_lock
     231 00000008       _m_driver_manege_lock:  .usect  ".ebss",2,1,1
     232              DW$48   .dwtag  DW_TAG_variable, DW_AT_name("m_driver_manege_lock"), DW_AT_symbol_name("_m_driver_manege_lock
     233                      .dwattr DW$48, DW_AT_location[DW_OP_addr _m_driver_manege_lock]
     234                      .dwattr DW$48, DW_AT_type(*DW$T$69)
     235                      .dwattr DW$48, DW_AT_external(0x01)
     236                      .global _m_mod_hmsg_sem
     237 0000000a       _m_mod_hmsg_sem:        .usect  ".ebss",2,1,1
     238              DW$49   .dwtag  DW_TAG_variable, DW_AT_name("m_mod_hmsg_sem"), DW_AT_symbol_name("_m_mod_hmsg_sem")
     239                      .dwattr DW$49, DW_AT_location[DW_OP_addr _m_mod_hmsg_sem]
     240                      .dwattr DW$49, DW_AT_type(*DW$T$112)
     241                      .dwattr DW$49, DW_AT_external(0x01)
     242              
     243              DW$50   .dwtag  DW_TAG_subprogram, DW_AT_name("OSQCreate"), DW_AT_symbol_name("_OSQCreate")
     244                      .dwattr DW$50, DW_AT_type(*DW$T$53)
     245                      .dwattr DW$50, DW_AT_declaration(0x01)
     246                      .dwattr DW$50, DW_AT_external(0x01)
     247              DW$51   .dwtag  DW_TAG_formal_parameter, DW_AT_type(*DW$T$51)
     248              DW$52   .dwtag  DW_TAG_formal_parameter, DW_AT_type(*DW$T$20)
     249                      .dwendtag DW$50
     250              
     251              
     252              DW$53   .dwtag  DW_TAG_subprogram, DW_AT_name("OSSemCreate"), DW_AT_symbol_name("_OSSemCreate")
     253                      .dwattr DW$53, DW_AT_type(*DW$T$53)
     254                      .dwattr DW$53, DW_AT_declaration(0x01)
     255                      .dwattr DW$53, DW_AT_external(0x01)
     256              DW$54   .dwtag  DW_TAG_formal_parameter, DW_AT_type(*DW$T$20)
     257                      .dwendtag DW$53
     258              
     259              
     260              DW$55   .dwtag  DW_TAG_subprogram, DW_AT_name("OSQPend"), DW_AT_symbol_name("_OSQPend")
TMS320C2000 COFF Assembler PC v4.1.3 Thu Sep 13 14:28:00 2012

Tools Copyright (c) 1996-2006 Texas Instruments Incorporated
C:\DOCUME~1\ADMINI~1\LOCALS~1\Temp\TI1962                            PAGE    6

     261                      .dwattr DW$55, DW_AT_type(*DW$T$3)
     262                      .dwattr DW$55, DW_AT_declaration(0x01)
     263                      .dwattr DW$55, DW_AT_external(0x01)
     264              DW$56   .dwtag  DW_TAG_formal_parameter, DW_AT_type(*DW$T$53)
     265              DW$57   .dwtag  DW_TAG_formal_parameter, DW_AT_type(*DW$T$20)
     266              DW$58   .dwtag  DW_TAG_formal_parameter, DW_AT_type(*DW$T$54)
     267                      .dwendtag DW$55
     268              
     269                      .global _m_mod_hqmsg_buf
     270 0000000c       _m_mod_hqmsg_buf:       .usect  ".ebss",6,1,1
     271              DW$59   .dwtag  DW_TAG_variable, DW_AT_name("m_mod_hqmsg_buf"), DW_AT_symbol_name("_m_mod_hqmsg_buf")
     272                      .dwattr DW$59, DW_AT_location[DW_OP_addr _m_mod_hqmsg_buf]
     273                      .dwattr DW$59, DW_AT_type(*DW$T$57)
     274                      .dwattr DW$59, DW_AT_external(0x01)
     275                      .global _m_mod_hmsg_box
     276 00000012       _m_mod_hmsg_box:        .usect  ".ebss",12,1,0
     277              DW$60   .dwtag  DW_TAG_variable, DW_AT_name("m_mod_hmsg_box"), DW_AT_symbol_name("_m_mod_hmsg_box")
     278                      .dwattr DW$60, DW_AT_location[DW_OP_addr _m_mod_hmsg_box]
     279                      .dwattr DW$60, DW_AT_type(*DW$T$163)
     280                      .dwattr DW$60, DW_AT_external(0x01)
     281                      .global _m_mod_pos_name
     282 0000001e       _m_mod_pos_name:        .usect  ".ebss",20,1,0
     283              DW$61   .dwtag  DW_TAG_variable, DW_AT_name("m_mod_pos_name"), DW_AT_symbol_name("_m_mod_pos_name")
     284                      .dwattr DW$61, DW_AT_location[DW_OP_addr _m_mod_pos_name]
     285                      .dwattr DW$61, DW_AT_type(*DW$T$154)
     286                      .dwattr DW$61, DW_AT_external(0x01)
     287                      .global _m_task_pro_array
     288 00000040       _m_task_pro_array:      .usect  ".ebss",48,1,0
     289              DW$62   .dwtag  DW_TAG_variable, DW_AT_name("m_task_pro_array"), DW_AT_symbol_name("_m_task_pro_array")
     290                      .dwattr DW$62, DW_AT_location[DW_OP_addr _m_task_pro_array]
     291                      .dwattr DW$62, DW_AT_type(*DW$T$133)
     292                      .dwattr DW$62, DW_AT_external(0x01)
     293                      .global _m_mod_maneger_array
     294 00000080       _m_mod_maneger_array:   .usect  ".ebss",92,1,1
     295              DW$63   .dwtag  DW_TAG_variable, DW_AT_name("m_mod_maneger_array"), DW_AT_symbol_name("_m_mod_maneger_array")
     296                      .dwattr DW$63, DW_AT_location[DW_OP_addr _m_mod_maneger_array]
     297                      .dwattr DW$63, DW_AT_type(*DW$T$169)
     298                      .dwattr DW$63, DW_AT_external(0x01)
     299                      .global _OSTaskIdleStk
     300 00000000       _OSTaskIdleStk: .usect  "MY_MEM",256,1,0
     301              DW$64   .dwtag  DW_TAG_variable, DW_AT_name("OSTaskIdleStk"), DW_AT_symbol_name("_OSTaskIdleStk")
     302                      .dwattr DW$64, DW_AT_location[DW_OP_addr _OSTaskIdleStk]
     303                      .dwattr DW$64, DW_AT_type(*DW$T$140)
     304                      .dwattr DW$64, DW_AT_external(0x01)
     305                      .global _m_driver_manege_tab
     306 00000100       _m_driver_manege_tab:   .usect  ".ebss",702,1,1
     307              DW$65   .dwtag  DW_TAG_variable, DW_AT_name("m_driver_manege_tab"), DW_AT_symbol_name("_m_driver_manege_tab")
     308                      .dwattr DW$65, DW_AT_location[DW_OP_addr _m_driver_manege_tab]
     309                      .dwattr DW$65, DW_AT_type(*DW$T$167)
     310                      .dwattr DW$65, DW_AT_external(0x01)
     311                      .global _m_stk_array
     312 00000100       _m_stk_array:   .usect  "MY_MEM",7050,1,0
     313              DW$66   .dwtag  DW_TAG_variable, DW_AT_name("m_stk_array"), DW_AT_symbol_name("_m_stk_array")
     314                      .dwattr DW$66, DW_AT_location[DW_OP_addr _m_stk_array]
     315                      .dwattr DW$66, DW_AT_type(*DW$T$138)
TMS320C2000 COFF Assembler PC v4.1.3 Thu Sep 13 14:28:00 2012

Tools Copyright (c) 1996-2006 Texas Instruments Incorporated
C:\DOCUME~1\ADMINI~1\LOCALS~1\Temp\TI1962                            PAGE    7

     316                      .dwattr DW$66, DW_AT_external(0x01)
     317              ;       C:\CCStudio_v3.3\C2000\cgtools\bin\ac2000.exe -@C:\DOCUME~1\ADMINI~1\LOCALS~1\Temp\TI1964 
     318 00000000               .sect   ".text"
     319                      .global _os_lock
     320              
     321              DW$67   .dwtag  DW_TAG_subprogram, DW_AT_name("os_lock"), DW_AT_symbol_name("_os_lock")
     322                      .dwattr DW$67, DW_AT_low_pc(_os_lock)
     323                      .dwattr DW$67, DW_AT_high_pc(0x00)
     324                      .dwattr DW$67, DW_AT_begin_file("src\os_connect_maneger.c")
     325                      .dwattr DW$67, DW_AT_begin_line(0x46)
     326                      .dwattr DW$67, DW_AT_begin_column(0x07)
     327                      .dwpsn  "src\os_connect_maneger.c",71,1
     328              
     329                      .dwfde DW$CIE
     330              
     331              ;***************************************************************
     332              ;* FNAME: _os_lock                      FR SIZE:   4           *
     333              ;*                                                             *
     334              ;* FUNCTION ENVIRONMENT                                        *
     335              ;*                                                             *
     336              ;* FUNCTION PROPERTIES                                         *
     337              ;*                            0 Parameter,  3 Auto,  0 SOE     *
     338              ;***************************************************************
     339              
     340              _os_lock:
     341                      .dwcfa  0x1d, -2
     342                      .dwcfa  0x1c, 26, 0
     343                      .dwcfa  0x09, 40, 26
     344 00000000 FE04          ADDB      SP,#4
     345                      .dwcfa  0x1d, -6
     346              ;* AR4   assigned to _sem
     347              DW$68   .dwtag  DW_TAG_formal_parameter, DW_AT_name("sem"), DW_AT_symbol_name("_sem")
     348                      .dwattr DW$68, DW_AT_type(*DW$T$69)
     349                      .dwattr DW$68, DW_AT_location[DW_OP_reg12]
     350              DW$69   .dwtag  DW_TAG_variable, DW_AT_name("sem"), DW_AT_symbol_name("_sem")
     351                      .dwattr DW$69, DW_AT_type(*DW$T$69)
     352                      .dwattr DW$69, DW_AT_location[DW_OP_breg20 -2]
     353              DW$70   .dwtag  DW_TAG_variable, DW_AT_name("err"), DW_AT_symbol_name("_err")
     354                      .dwattr DW$70, DW_AT_type(*DW$T$6)
     355                      .dwattr DW$70, DW_AT_location[DW_OP_breg20 -3]
     356 00000001 A842          MOVL      *-SP[2],XAR4          ; |71| 
     357                      .dwpsn  "src\os_connect_maneger.c",73,2
     358 00000002 5DAD          MOVZ      AR5,SP                ; |73| 
     359 00000003 8A42          MOVL      XAR4,*-SP[2]          ; |73| 
     360 00000004 9A00          MOVB      AL,#0
     361 00000005 DD83          SUBB      XAR5,#3               ; |73| 
     362 00000006 7640!         LCR       #_OSSemPend           ; |73| 
         00000007 0000 
     363                      ; call occurs [#_OSSemPend] ; |73| 
     364                      .dwpsn  "src\os_connect_maneger.c",74,2
     365                      .dwpsn  "src\os_connect_maneger.c",75,1
     366 00000008 FE84          SUBB      SP,#4
     367                      .dwcfa  0x1d, -2
     368 00000009 0006          LRETR
     369                      ; return occurs
TMS320C2000 COFF Assembler PC v4.1.3 Thu Sep 13 14:28:00 2012

Tools Copyright (c) 1996-2006 Texas Instruments Incorporated
C:\DOCUME~1\ADMINI~1\LOCALS~1\Temp\TI1962                            PAGE    8

     370                      .dwattr DW$67, DW_AT_end_file("src\os_connect_maneger.c")
     371                      .dwattr DW$67, DW_AT_end_line(0x4b)
     372                      .dwattr DW$67, DW_AT_end_column(0x01)
     373                      .dwendentry
     374                      .dwendtag DW$67
     375              
     376 0000000a               .sect   ".text"
     377                      .global _os_unlock
     378              
     379              DW$71   .dwtag  DW_TAG_subprogram, DW_AT_name("os_unlock"), DW_AT_symbol_name("_os_unlock")
     380                      .dwattr DW$71, DW_AT_low_pc(_os_unlock)
     381                      .dwattr DW$71, DW_AT_high_pc(0x00)
     382                      .dwattr DW$71, DW_AT_begin_file("src\os_connect_maneger.c")
     383                      .dwattr DW$71, DW_AT_begin_line(0x4c)
     384                      .dwattr DW$71, DW_AT_begin_column(0x06)
     385                      .dwpsn  "src\os_connect_maneger.c",77,1
     386              
     387                      .dwfde DW$CIE
     388              
     389              ;***************************************************************
     390              ;* FNAME: _os_unlock                    FR SIZE:   2           *
     391              ;*                                                             *
     392              ;* FUNCTION ENVIRONMENT                                        *
     393              ;*                                                             *
     394              ;* FUNCTION PROPERTIES                                         *
     395              ;*                            0 Parameter,  2 Auto,  0 SOE     *
     396              ;***************************************************************
     397              
     398              _os_unlock:
     399                      .dwcfa  0x1d, -2
     400                      .dwcfa  0x1c, 26, 0
     401                      .dwcfa  0x09, 40, 26
     402 0000000a FE02          ADDB      SP,#2
     403                      .dwcfa  0x1d, -4
     404              ;* AR4   assigned to _sem
     405              DW$72   .dwtag  DW_TAG_formal_parameter, DW_AT_name("sem"), DW_AT_symbol_name("_sem")
     406                      .dwattr DW$72, DW_AT_type(*DW$T$69)
     407                      .dwattr DW$72, DW_AT_location[DW_OP_reg12]
     408              DW$73   .dwtag  DW_TAG_variable, DW_AT_name("sem"), DW_AT_symbol_name("_sem")
     409                      .dwattr DW$73, DW_AT_type(*DW$T$69)
     410                      .dwattr DW$73, DW_AT_location[DW_OP_breg20 -2]
     411 0000000b A842          MOVL      *-SP[2],XAR4          ; |77| 
     412                      .dwpsn  "src\os_connect_maneger.c",78,2
     413 0000000c 8A42          MOVL      XAR4,*-SP[2]          ; |78| 
     414 0000000d 7640!         LCR       #_OSSemPost           ; |78| 
         0000000e 0000 
     415                      ; call occurs [#_OSSemPost] ; |78| 
     416                      .dwpsn  "src\os_connect_maneger.c",79,2
     417                      .dwpsn  "src\os_connect_maneger.c",80,1
     418 0000000f FE82          SUBB      SP,#2
     419                      .dwcfa  0x1d, -2
     420 00000010 0006          LRETR
     421                      ; return occurs
     422                      .dwattr DW$71, DW_AT_end_file("src\os_connect_maneger.c")
     423                      .dwattr DW$71, DW_AT_end_line(0x50)
TMS320C2000 COFF Assembler PC v4.1.3 Thu Sep 13 14:28:00 2012

Tools Copyright (c) 1996-2006 Texas Instruments Incorporated
C:\DOCUME~1\ADMINI~1\LOCALS~1\Temp\TI1962                            PAGE    9

     424                      .dwattr DW$71, DW_AT_end_column(0x01)
     425                      .dwendentry
     426                      .dwendtag DW$71
     427              
     428 00000011               .sect   ".text"
     429                      .global _os_lock_revert
     430              
     431              DW$74   .dwtag  DW_TAG_subprogram, DW_AT_name("os_lock_revert"), DW_AT_symbol_name("_os_lock_revert")
     432                      .dwattr DW$74, DW_AT_low_pc(_os_lock_revert)
     433                      .dwattr DW$74, DW_AT_high_pc(0x00)
     434                      .dwattr DW$74, DW_AT_begin_file("src\os_connect_maneger.c")
     435                      .dwattr DW$74, DW_AT_begin_line(0x51)
     436                      .dwattr DW$74, DW_AT_begin_column(0x06)
     437                      .dwpsn  "src\os_connect_maneger.c",82,1
     438              
     439                      .dwfde DW$CIE
     440              
     441              ;***************************************************************
     442              ;* FNAME: _os_lock_revert               FR SIZE:   2           *
     443              ;*                                                             *
     444              ;* FUNCTION ENVIRONMENT                                        *
     445              ;*                                                             *
     446              ;* FUNCTION PROPERTIES                                         *
     447              ;*                            0 Parameter,  2 Auto,  0 SOE     *
     448              ;***************************************************************
     449              
     450              _os_lock_revert:
     451                      .dwcfa  0x1d, -2
     452                      .dwcfa  0x1c, 26, 0
     453                      .dwcfa  0x09, 40, 26
     454 00000011 FE02          ADDB      SP,#2
     455                      .dwcfa  0x1d, -4
     456              ;* AR4   assigned to _sem
     457              DW$75   .dwtag  DW_TAG_formal_parameter, DW_AT_name("sem"), DW_AT_symbol_name("_sem")
     458                      .dwattr DW$75, DW_AT_type(*DW$T$69)
     459                      .dwattr DW$75, DW_AT_location[DW_OP_reg12]
     460              DW$76   .dwtag  DW_TAG_variable, DW_AT_name("sem"), DW_AT_symbol_name("_sem")
     461                      .dwattr DW$76, DW_AT_type(*DW$T$69)
     462                      .dwattr DW$76, DW_AT_location[DW_OP_breg20 -2]
     463 00000012 A842          MOVL      *-SP[2],XAR4          ; |82| 
     464                      .dwpsn  "src\os_connect_maneger.c",83,2
     465 00000013 8A42          MOVL      XAR4,*-SP[2]          ; |83| 
     466 00000014 9A01          MOVB      AL,#1                 ; |83| 
     467 00000015 7640'         LCR       #_os_sem_revert       ; |83| 
         00000016 0057 
     468                      ; call occurs [#_os_sem_revert] ; |83| 
     469                      .dwpsn  "src\os_connect_maneger.c",84,2
     470                      .dwpsn  "src\os_connect_maneger.c",85,1
     471 00000017 FE82          SUBB      SP,#2
     472                      .dwcfa  0x1d, -2
     473 00000018 0006          LRETR
     474                      ; return occurs
     475                      .dwattr DW$74, DW_AT_end_file("src\os_connect_maneger.c")
     476                      .dwattr DW$74, DW_AT_end_line(0x55)
     477                      .dwattr DW$74, DW_AT_end_column(0x01)
TMS320C2000 COFF Assembler PC v4.1.3 Thu Sep 13 14:28:00 2012

Tools Copyright (c) 1996-2006 Texas Instruments Incorporated
C:\DOCUME~1\ADMINI~1\LOCALS~1\Temp\TI1962                            PAGE   10

     478                      .dwendentry
     479                      .dwendtag DW$74
     480              
     481 00000019               .sect   ".text"
     482                      .global _os_lock_creat
     483              
     484              DW$77   .dwtag  DW_TAG_subprogram, DW_AT_name("os_lock_creat"), DW_AT_symbol_name("_os_lock_creat")
     485                      .dwattr DW$77, DW_AT_low_pc(_os_lock_creat)
     486                      .dwattr DW$77, DW_AT_high_pc(0x00)
     487                      .dwattr DW$77, DW_AT_begin_file("src\os_connect_maneger.c")
     488                      .dwattr DW$77, DW_AT_begin_line(0x56)
     489                      .dwattr DW$77, DW_AT_begin_column(0x09)
     490                      .dwpsn  "src\os_connect_maneger.c",87,1
     491              
     492                      .dwfde DW$CIE
     493              
     494              ;***************************************************************
     495              ;* FNAME: _os_lock_creat                FR SIZE:   2           *
     496              ;*                                                             *
     497              ;* FUNCTION ENVIRONMENT                                        *
     498              ;*                                                             *
     499              ;* FUNCTION PROPERTIES                                         *
     500              ;*                            0 Parameter,  2 Auto,  0 SOE     *
     501              ;***************************************************************
     502              
     503              _os_lock_creat:
     504                      .dwcfa  0x1d, -2
     505                      .dwcfa  0x1c, 26, 0
     506                      .dwcfa  0x09, 40, 26
     507 00000019 FE02          ADDB      SP,#2
     508                      .dwcfa  0x1d, -4
     509              ;* AR4   assigned to _sem
     510              DW$78   .dwtag  DW_TAG_formal_parameter, DW_AT_name("sem"), DW_AT_symbol_name("_sem")
     511                      .dwattr DW$78, DW_AT_type(*DW$T$108)
     512                      .dwattr DW$78, DW_AT_location[DW_OP_reg12]
     513              DW$79   .dwtag  DW_TAG_variable, DW_AT_name("sem"), DW_AT_symbol_name("_sem")
     514                      .dwattr DW$79, DW_AT_type(*DW$T$108)
     515                      .dwattr DW$79, DW_AT_location[DW_OP_breg20 -2]
     516 0000001a A842          MOVL      *-SP[2],XAR4          ; |87| 
     517                      .dwpsn  "src\os_connect_maneger.c",88,2
     518 0000001b 8A42          MOVL      XAR4,*-SP[2]          ; |88| 
     519 0000001c 06C4          MOVL      ACC,*+XAR4[0]         ; |88| 
     520 0000001d ED10          BF        L2,NEQ                ; |88| 
     521                      ; branchcc occurs ; |88| 
     522                      .dwpsn  "src\os_connect_maneger.c",90,3
     523 0000001e 9A01          MOVB      AL,#1                 ; |90| 
     524 0000001f 7640!         LCR       #_OSSemCreate         ; |90| 
         00000020 0000 
     525                      ; call occurs [#_OSSemCreate] ; |90| 
     526 00000021 8342          MOVL      XAR5,*-SP[2]          ; |90| 
     527 00000022 A8C5          MOVL      *+XAR5[0],XAR4        ; |90| 
     528                      .dwpsn  "src\os_connect_maneger.c",91,3
     529 00000023 8A42          MOVL      XAR4,*-SP[2]          ; |91| 
     530 00000024 06C4          MOVL      ACC,*+XAR4[0]         ; |91| 
     531 00000025 ED03          BF        L1,NEQ                ; |91| 
TMS320C2000 COFF Assembler PC v4.1.3 Thu Sep 13 14:28:00 2012

Tools Copyright (c) 1996-2006 Texas Instruments Incorporated
C:\DOCUME~1\ADMINI~1\LOCALS~1\Temp\TI1962                            PAGE   11

     532                      ; branchcc occurs ; |91| 
     533                      .dwpsn  "src\os_connect_maneger.c",94,4
     534 00000026 9A01          MOVB      AL,#1                 ; |94| 
     535 00000027 6F0B          B         L3,UNC                ; |94| 
     536                      ; branch occurs ; |94| 
     537              L1:    
     538                      .dwpsn  "src\os_connect_maneger.c",96,3
     539 00000028 761F-         MOVW      DP,#_m_event_stat_cnt
         00000029 0000 
     540 0000002a 0A02-         INC       @_m_event_stat_cnt    ; |96| 
     541                      .dwpsn  "src\os_connect_maneger.c",97,3
     542 0000002b 9A00          MOVB      AL,#0
     543 0000002c 6F06          B         L3,UNC                ; |97| 
     544                      ; branch occurs ; |97| 
     545              L2:    
     546                      .dwpsn  "src\os_connect_maneger.c",99,2
     547 0000002d 8A42          MOVL      XAR4,*-SP[2]          ; |99| 
     548 0000002e 8AC4          MOVL      XAR4,*+XAR4[0]        ; |99| 
     549 0000002f 7640'         LCR       #_os_lock_revert      ; |99| 
         00000030 0011 
     550                      ; call occurs [#_os_lock_revert] ; |99| 
     551                      .dwpsn  "src\os_connect_maneger.c",100,2
     552 00000031 9A02          MOVB      AL,#2                 ; |100| 
     553              L3:    
     554                      .dwpsn  "src\os_connect_maneger.c",101,1
     555 00000032 FE82          SUBB      SP,#2                 ; |100| 
     556                      .dwcfa  0x1d, -2
     557 00000033 0006          LRETR
     558                      ; return occurs
     559                      .dwattr DW$77, DW_AT_end_file("src\os_connect_maneger.c")
     560                      .dwattr DW$77, DW_AT_end_line(0x65)
     561                      .dwattr DW$77, DW_AT_end_column(0x01)
     562                      .dwendentry
     563                      .dwendtag DW$77
     564              
     565 00000034               .sect   ".text"
     566                      .global _os_sem_creat
     567              
     568              DW$80   .dwtag  DW_TAG_subprogram, DW_AT_name("os_sem_creat"), DW_AT_symbol_name("_os_sem_creat")
     569                      .dwattr DW$80, DW_AT_low_pc(_os_sem_creat)
     570                      .dwattr DW$80, DW_AT_high_pc(0x00)
     571                      .dwattr DW$80, DW_AT_begin_file("src\os_connect_maneger.c")
     572                      .dwattr DW$80, DW_AT_begin_line(0x6e)
     573                      .dwattr DW$80, DW_AT_begin_column(0x09)
     574                      .dwpsn  "src\os_connect_maneger.c",111,1
     575              
     576                      .dwfde DW$CIE
     577              
     578              ;***************************************************************
     579              ;* FNAME: _os_sem_creat                 FR SIZE:   4           *
     580              ;*                                                             *
     581              ;* FUNCTION ENVIRONMENT                                        *
     582              ;*                                                             *
     583              ;* FUNCTION PROPERTIES                                         *
     584              ;*                            0 Parameter,  4 Auto,  0 SOE     *
TMS320C2000 COFF Assembler PC v4.1.3 Thu Sep 13 14:28:00 2012

Tools Copyright (c) 1996-2006 Texas Instruments Incorporated
C:\DOCUME~1\ADMINI~1\LOCALS~1\Temp\TI1962                            PAGE   12

     585              ;***************************************************************
     586              
     587              _os_sem_creat:
     588                      .dwcfa  0x1d, -2
     589                      .dwcfa  0x1c, 26, 0
     590                      .dwcfa  0x09, 40, 26
     591 00000034 FE04          ADDB      SP,#4
     592                      .dwcfa  0x1d, -6
     593              ;* AR4   assigned to _sem
     594              DW$81   .dwtag  DW_TAG_formal_parameter, DW_AT_name("sem"), DW_AT_symbol_name("_sem")
     595                      .dwattr DW$81, DW_AT_type(*DW$T$113)
     596                      .dwattr DW$81, DW_AT_location[DW_OP_reg12]
     597              ;* AL    assigned to _cnt
     598              DW$82   .dwtag  DW_TAG_formal_parameter, DW_AT_name("cnt"), DW_AT_symbol_name("_cnt")
     599                      .dwattr DW$82, DW_AT_type(*DW$T$11)
     600                      .dwattr DW$82, DW_AT_location[DW_OP_reg0]
     601              DW$83   .dwtag  DW_TAG_variable, DW_AT_name("sem"), DW_AT_symbol_name("_sem")
     602                      .dwattr DW$83, DW_AT_type(*DW$T$113)
     603                      .dwattr DW$83, DW_AT_location[DW_OP_breg20 -2]
     604              DW$84   .dwtag  DW_TAG_variable, DW_AT_name("cnt"), DW_AT_symbol_name("_cnt")
     605                      .dwattr DW$84, DW_AT_type(*DW$T$11)
     606                      .dwattr DW$84, DW_AT_location[DW_OP_breg20 -3]
     607              DW$85   .dwtag  DW_TAG_variable, DW_AT_name("err"), DW_AT_symbol_name("_err")
     608                      .dwattr DW$85, DW_AT_type(*DW$T$6)
     609                      .dwattr DW$85, DW_AT_location[DW_OP_breg20 -4]
     610 00000035 9643          MOV       *-SP[3],AL            ; |111| 
     611 00000036 A842          MOVL      *-SP[2],XAR4          ; |111| 
     612                      .dwpsn  "src\os_connect_maneger.c",112,10
     613 00000037 2B44          MOV       *-SP[4],#0            ; |112| 
     614                      .dwpsn  "src\os_connect_maneger.c",113,2
     615 00000038 8A42          MOVL      XAR4,*-SP[2]          ; |113| 
     616 00000039 06C4          MOVL      ACC,*+XAR4[0]         ; |113| 
     617 0000003a ED10          BF        L5,NEQ                ; |113| 
     618                      ; branchcc occurs ; |113| 
     619                      .dwpsn  "src\os_connect_maneger.c",115,3
     620 0000003b 9243          MOV       AL,*-SP[3]            ; |115| 
     621 0000003c 7640!         LCR       #_OSSemCreate         ; |115| 
         0000003d 0000 
     622                      ; call occurs [#_OSSemCreate] ; |115| 
     623 0000003e 8342          MOVL      XAR5,*-SP[2]          ; |115| 
     624 0000003f A8C5          MOVL      *+XAR5[0],XAR4        ; |115| 
     625                      .dwpsn  "src\os_connect_maneger.c",116,3
     626 00000040 8A42          MOVL      XAR4,*-SP[2]          ; |116| 
     627 00000041 06C4          MOVL      ACC,*+XAR4[0]         ; |116| 
     628 00000042 ED03          BF        L4,NEQ                ; |116| 
     629                      ; branchcc occurs ; |116| 
     630                      .dwpsn  "src\os_connect_maneger.c",119,4
     631 00000043 9A04          MOVB      AL,#4                 ; |119| 
     632 00000044 6F11          B         L7,UNC                ; |119| 
     633                      ; branch occurs ; |119| 
     634              L4:    
     635                      .dwpsn  "src\os_connect_maneger.c",121,3
     636 00000045 761F-         MOVW      DP,#_m_event_stat_cnt
         00000046 0000 
     637 00000047 0A02-         INC       @_m_event_stat_cnt    ; |121| 
TMS320C2000 COFF Assembler PC v4.1.3 Thu Sep 13 14:28:00 2012

Tools Copyright (c) 1996-2006 Texas Instruments Incorporated
C:\DOCUME~1\ADMINI~1\LOCALS~1\Temp\TI1962                            PAGE   13

     638                      .dwpsn  "src\os_connect_maneger.c",122,3
     639 00000048 9A03          MOVB      AL,#3                 ; |122| 
     640 00000049 6F0C          B         L7,UNC                ; |122| 
     641                      ; branch occurs ; |122| 
     642              L5:    
     643                      .dwpsn  "src\os_connect_maneger.c",124,2
     644 0000004a 8A42          MOVL      XAR4,*-SP[2]          ; |124| 
     645 0000004b 8AC4          MOVL      XAR4,*+XAR4[0]        ; |124| 
     646 0000004c 9243          MOV       AL,*-SP[3]            ; |124| 
     647 0000004d 7640'         LCR       #_os_sem_revert       ; |124| 
         0000004e 0057 
     648                      ; call occurs [#_os_sem_revert] ; |124| 
     649 0000004f 9644          MOV       *-SP[4],AL            ; |124| 
     650                      .dwpsn  "src\os_connect_maneger.c",125,2
     651 00000050 5200          CMPB      AL,#0                 ; |125| 
     652 00000051 EC03          BF        L6,EQ                 ; |125| 
     653                      ; branchcc occurs ; |125| 
     654                      .dwpsn  "src\os_connect_maneger.c",127,3
     655 00000052 9A04          MOVB      AL,#4                 ; |127| 
     656 00000053 6F02          B         L7,UNC                ; |127| 
     657                      ; branch occurs ; |127| 
     658              L6:    
     659                      .dwpsn  "src\os_connect_maneger.c",129,2
     660 00000054 9A05          MOVB      AL,#5                 ; |129| 
     661              L7:    
     662                      .dwpsn  "src\os_connect_maneger.c",130,1
     663 00000055 FE84          SUBB      SP,#4                 ; |129| 
     664                      .dwcfa  0x1d, -2
     665 00000056 0006          LRETR
     666                      ; return occurs
     667                      .dwattr DW$80, DW_AT_end_file("src\os_connect_maneger.c")
     668                      .dwattr DW$80, DW_AT_end_line(0x82)
     669                      .dwattr DW$80, DW_AT_end_column(0x01)
     670                      .dwendentry
     671                      .dwendtag DW$80
     672              
     673 00000057               .sect   ".text"
     674                      .global _os_sem_revert
     675              
     676              DW$86   .dwtag  DW_TAG_subprogram, DW_AT_name("os_sem_revert"), DW_AT_symbol_name("_os_sem_revert")
     677                      .dwattr DW$86, DW_AT_low_pc(_os_sem_revert)
     678                      .dwattr DW$86, DW_AT_high_pc(0x00)
     679                      .dwattr DW$86, DW_AT_begin_file("src\os_connect_maneger.c")
     680                      .dwattr DW$86, DW_AT_begin_line(0x84)
     681                      .dwattr DW$86, DW_AT_begin_column(0x09)
     682                      .dwpsn  "src\os_connect_maneger.c",133,1
     683              
     684                      .dwfde DW$CIE
     685              
     686              ;***************************************************************
     687              ;* FNAME: _os_sem_revert                FR SIZE:   4           *
     688              ;*                                                             *
     689              ;* FUNCTION ENVIRONMENT                                        *
     690              ;*                                                             *
     691              ;* FUNCTION PROPERTIES                                         *
TMS320C2000 COFF Assembler PC v4.1.3 Thu Sep 13 14:28:00 2012

Tools Copyright (c) 1996-2006 Texas Instruments Incorporated
C:\DOCUME~1\ADMINI~1\LOCALS~1\Temp\TI1962                            PAGE   14

     692              ;*                            0 Parameter,  4 Auto,  0 SOE     *
     693              ;***************************************************************
     694              
     695              _os_sem_revert:
     696                      .dwcfa  0x1d, -2
     697                      .dwcfa  0x1c, 26, 0
     698                      .dwcfa  0x09, 40, 26
     699 00000057 FE04          ADDB      SP,#4
     700                      .dwcfa  0x1d, -6
     701              ;* AR4   assigned to _sem
     702              DW$87   .dwtag  DW_TAG_formal_parameter, DW_AT_name("sem"), DW_AT_symbol_name("_sem")
     703                      .dwattr DW$87, DW_AT_type(*DW$T$112)
     704                      .dwattr DW$87, DW_AT_location[DW_OP_reg12]
     705              ;* AL    assigned to _cnt
     706              DW$88   .dwtag  DW_TAG_formal_parameter, DW_AT_name("cnt"), DW_AT_symbol_name("_cnt")
     707                      .dwattr DW$88, DW_AT_type(*DW$T$11)
     708                      .dwattr DW$88, DW_AT_location[DW_OP_reg0]
     709              DW$89   .dwtag  DW_TAG_variable, DW_AT_name("sem"), DW_AT_symbol_name("_sem")
     710                      .dwattr DW$89, DW_AT_type(*DW$T$112)
     711                      .dwattr DW$89, DW_AT_location[DW_OP_breg20 -2]
     712              DW$90   .dwtag  DW_TAG_variable, DW_AT_name("cnt"), DW_AT_symbol_name("_cnt")
     713                      .dwattr DW$90, DW_AT_type(*DW$T$11)
     714                      .dwattr DW$90, DW_AT_location[DW_OP_breg20 -3]
     715              DW$91   .dwtag  DW_TAG_variable, DW_AT_name("err"), DW_AT_symbol_name("_err")
     716                      .dwattr DW$91, DW_AT_type(*DW$T$6)
     717                      .dwattr DW$91, DW_AT_location[DW_OP_breg20 -4]
     718 00000058 9643          MOV       *-SP[3],AL            ; |133| 
     719 00000059 A842          MOVL      *-SP[2],XAR4          ; |133| 
     720                      .dwpsn  "src\os_connect_maneger.c",134,10
     721 0000005a 2B44          MOV       *-SP[4],#0            ; |134| 
     722                      .dwpsn  "src\os_connect_maneger.c",138,2
     723 0000005b 3B10   setc INTM
     724                      .dwpsn  "src\os_connect_maneger.c",139,2
     725 0000005c 8A42          MOVL      XAR4,*-SP[2]          ; |139| 
     726 0000005d FF69          SPM       #0
     727 0000005e 7640!         LCR       #_OS_EventWaitListInit ; |139| 
         0000005f 0000 
     728                      ; call occurs [#_OS_EventWaitListInit] ; |139| 
     729                      .dwpsn  "src\os_connect_maneger.c",140,2
     730 00000060 2910   clrc INTM
     731                      .dwpsn  "src\os_connect_maneger.c",141,2
     732 00000061 5DAD          MOVZ      AR5,SP                ; |141| 
     733 00000062 FF69          SPM       #0
     734 00000063 8A42          MOVL      XAR4,*-SP[2]          ; |141| 
     735 00000064 9243          MOV       AL,*-SP[3]            ; |141| 
     736 00000065 DD84          SUBB      XAR5,#4               ; |141| 
     737 00000066 7640!         LCR       #_OSSemSet            ; |141| 
         00000067 0000 
     738                      ; call occurs [#_OSSemSet] ; |141| 
     739                      .dwpsn  "src\os_connect_maneger.c",142,2
     740 00000068 9244          MOV       AL,*-SP[4]            ; |142| 
     741                      .dwpsn  "src\os_connect_maneger.c",146,2
     742                      .dwpsn  "src\os_connect_maneger.c",147,1
     743 00000069 FE84          SUBB      SP,#4                 ; |146| 
     744                      .dwcfa  0x1d, -2
TMS320C2000 COFF Assembler PC v4.1.3 Thu Sep 13 14:28:00 2012

Tools Copyright (c) 1996-2006 Texas Instruments Incorporated
C:\DOCUME~1\ADMINI~1\LOCALS~1\Temp\TI1962                            PAGE   15

     745 0000006a 0006          LRETR
     746                      ; return occurs
     747                      .dwattr DW$86, DW_AT_end_file("src\os_connect_maneger.c")
     748                      .dwattr DW$86, DW_AT_end_line(0x93)
     749                      .dwattr DW$86, DW_AT_end_column(0x01)
     750                      .dwendentry
     751                      .dwendtag DW$86
     752              
     753 0000006b               .sect   ".text"
     754                      .global _os_sem_pend
     755              
     756              DW$92   .dwtag  DW_TAG_subprogram, DW_AT_name("os_sem_pend"), DW_AT_symbol_name("_os_sem_pend")
     757                      .dwattr DW$92, DW_AT_low_pc(_os_sem_pend)
     758                      .dwattr DW$92, DW_AT_high_pc(0x00)
     759                      .dwattr DW$92, DW_AT_begin_file("src\os_connect_maneger.c")
     760                      .dwattr DW$92, DW_AT_begin_line(0x94)
     761                      .dwattr DW$92, DW_AT_begin_column(0x09)
     762                      .dwpsn  "src\os_connect_maneger.c",149,1
     763              
     764                      .dwfde DW$CIE
     765              
     766              ;***************************************************************
     767              ;* FNAME: _os_sem_pend                  FR SIZE:   4           *
     768              ;*                                                             *
     769              ;* FUNCTION ENVIRONMENT                                        *
     770              ;*                                                             *
     771              ;* FUNCTION PROPERTIES                                         *
     772              ;*                            0 Parameter,  4 Auto,  0 SOE     *
     773              ;***************************************************************
     774              
     775              _os_sem_pend:
     776                      .dwcfa  0x1d, -2
     777                      .dwcfa  0x1c, 26, 0
     778                      .dwcfa  0x09, 40, 26
     779 0000006b FE04          ADDB      SP,#4
     780                      .dwcfa  0x1d, -6
     781              ;* AR4   assigned to _sem
     782              DW$93   .dwtag  DW_TAG_formal_parameter, DW_AT_name("sem"), DW_AT_symbol_name("_sem")
     783                      .dwattr DW$93, DW_AT_type(*DW$T$112)
     784                      .dwattr DW$93, DW_AT_location[DW_OP_reg12]
     785              ;* AL    assigned to _timeout
     786              DW$94   .dwtag  DW_TAG_formal_parameter, DW_AT_name("timeout"), DW_AT_symbol_name("_timeout")
     787                      .dwattr DW$94, DW_AT_type(*DW$T$11)
     788                      .dwattr DW$94, DW_AT_location[DW_OP_reg0]
     789              DW$95   .dwtag  DW_TAG_variable, DW_AT_name("sem"), DW_AT_symbol_name("_sem")
     790                      .dwattr DW$95, DW_AT_type(*DW$T$112)
     791                      .dwattr DW$95, DW_AT_location[DW_OP_breg20 -2]
     792              DW$96   .dwtag  DW_TAG_variable, DW_AT_name("timeout"), DW_AT_symbol_name("_timeout")
     793                      .dwattr DW$96, DW_AT_type(*DW$T$11)
     794                      .dwattr DW$96, DW_AT_location[DW_OP_breg20 -3]
     795              DW$97   .dwtag  DW_TAG_variable, DW_AT_name("err"), DW_AT_symbol_name("_err")
     796                      .dwattr DW$97, DW_AT_type(*DW$T$6)
     797                      .dwattr DW$97, DW_AT_location[DW_OP_breg20 -4]
     798 0000006c 9643          MOV       *-SP[3],AL            ; |149| 
     799 0000006d A842          MOVL      *-SP[2],XAR4          ; |149| 
TMS320C2000 COFF Assembler PC v4.1.3 Thu Sep 13 14:28:00 2012

Tools Copyright (c) 1996-2006 Texas Instruments Incorporated
C:\DOCUME~1\ADMINI~1\LOCALS~1\Temp\TI1962                            PAGE   16

     800                      .dwpsn  "src\os_connect_maneger.c",151,2
     801 0000006e 5DAD          MOVZ      AR5,SP                ; |151| 
     802 0000006f 8A42          MOVL      XAR4,*-SP[2]          ; |151| 
     803 00000070 9243          MOV       AL,*-SP[3]            ; |151| 
     804 00000071 DD84          SUBB      XAR5,#4               ; |151| 
     805 00000072 7640!         LCR       #_OSSemPend           ; |151| 
         00000073 0000 
     806                      ; call occurs [#_OSSemPend] ; |151| 
     807                      .dwpsn  "src\os_connect_maneger.c",152,2
     808 00000074 9244          MOV       AL,*-SP[4]            ; |152| 
     809                      .dwpsn  "src\os_connect_maneger.c",153,1
     810 00000075 FE84          SUBB      SP,#4                 ; |152| 
     811                      .dwcfa  0x1d, -2
     812 00000076 0006          LRETR
     813                      ; return occurs
     814                      .dwattr DW$92, DW_AT_end_file("src\os_connect_maneger.c")
     815                      .dwattr DW$92, DW_AT_end_line(0x99)
     816                      .dwattr DW$92, DW_AT_end_column(0x01)
     817                      .dwendentry
     818                      .dwendtag DW$92
     819              
     820 00000077               .sect   ".text"
     821                      .global _os_q_creat
     822              
     823              DW$98   .dwtag  DW_TAG_subprogram, DW_AT_name("os_q_creat"), DW_AT_symbol_name("_os_q_creat")
     824                      .dwattr DW$98, DW_AT_low_pc(_os_q_creat)
     825                      .dwattr DW$98, DW_AT_high_pc(0x00)
     826                      .dwattr DW$98, DW_AT_begin_file("src\os_connect_maneger.c")
     827                      .dwattr DW$98, DW_AT_begin_line(0xa2)
     828                      .dwattr DW$98, DW_AT_begin_column(0x07)
     829                      .dwpsn  "src\os_connect_maneger.c",163,1
     830              
     831                      .dwfde DW$CIE
     832              
     833              ;***************************************************************
     834              ;* FNAME: _os_q_creat                   FR SIZE:   6           *
     835              ;*                                                             *
     836              ;* FUNCTION ENVIRONMENT                                        *
     837              ;*                                                             *
     838              ;* FUNCTION PROPERTIES                                         *
     839              ;*                            0 Parameter,  5 Auto,  0 SOE     *
     840              ;***************************************************************
     841              
     842              _os_q_creat:
     843                      .dwcfa  0x1d, -2
     844                      .dwcfa  0x1c, 26, 0
     845                      .dwcfa  0x09, 40, 26
     846 00000077 FE06          ADDB      SP,#6
     847                      .dwcfa  0x1d, -8
     848              ;* AR4   assigned to _sem
     849              DW$99   .dwtag  DW_TAG_formal_parameter, DW_AT_name("sem"), DW_AT_symbol_name("_sem")
     850                      .dwattr DW$99, DW_AT_type(*DW$T$74)
     851                      .dwattr DW$99, DW_AT_location[DW_OP_reg12]
     852              ;* AR5   assigned to _pbuf
     853              DW$100  .dwtag  DW_TAG_formal_parameter, DW_AT_name("pbuf"), DW_AT_symbol_name("_pbuf")
TMS320C2000 COFF Assembler PC v4.1.3 Thu Sep 13 14:28:00 2012

Tools Copyright (c) 1996-2006 Texas Instruments Incorporated
C:\DOCUME~1\ADMINI~1\LOCALS~1\Temp\TI1962                            PAGE   17

     854                      .dwattr DW$100, DW_AT_type(*DW$T$51)
     855                      .dwattr DW$100, DW_AT_location[DW_OP_reg14]
     856              ;* AL    assigned to _size
     857              DW$101  .dwtag  DW_TAG_formal_parameter, DW_AT_name("size"), DW_AT_symbol_name("_size")
     858                      .dwattr DW$101, DW_AT_type(*DW$T$11)
     859                      .dwattr DW$101, DW_AT_location[DW_OP_reg0]
     860              DW$102  .dwtag  DW_TAG_variable, DW_AT_name("sem"), DW_AT_symbol_name("_sem")
     861                      .dwattr DW$102, DW_AT_type(*DW$T$74)
     862                      .dwattr DW$102, DW_AT_location[DW_OP_breg20 -2]
     863              DW$103  .dwtag  DW_TAG_variable, DW_AT_name("pbuf"), DW_AT_symbol_name("_pbuf")
     864                      .dwattr DW$103, DW_AT_type(*DW$T$51)
     865                      .dwattr DW$103, DW_AT_location[DW_OP_breg20 -4]
     866              DW$104  .dwtag  DW_TAG_variable, DW_AT_name("size"), DW_AT_symbol_name("_size")
     867                      .dwattr DW$104, DW_AT_type(*DW$T$11)
     868                      .dwattr DW$104, DW_AT_location[DW_OP_breg20 -5]
     869 00000078 9645          MOV       *-SP[5],AL            ; |163| 
     870 00000079 A044          MOVL      *-SP[4],XAR5          ; |163| 
     871 0000007a A842          MOVL      *-SP[2],XAR4          ; |163| 
     872                      .dwpsn  "src\os_connect_maneger.c",167,2
     873 0000007b 8A42          MOVL      XAR4,*-SP[2]          ; |167| 
     874 0000007c 06C4          MOVL      ACC,*+XAR4[0]         ; |167| 
     875 0000007d ED0E          BF        L8,NEQ                ; |167| 
     876                      ; branchcc occurs ; |167| 
     877                      .dwpsn  "src\os_connect_maneger.c",169,3
     878 0000007e 8A44          MOVL      XAR4,*-SP[4]          ; |169| 
     879 0000007f 9245          MOV       AL,*-SP[5]            ; |169| 
     880 00000080 7640!         LCR       #_OSQCreate           ; |169| 
         00000081 0000 
     881                      ; call occurs [#_OSQCreate] ; |169| 
     882 00000082 8342          MOVL      XAR5,*-SP[2]          ; |169| 
     883 00000083 A8C5          MOVL      *+XAR5[0],XAR4        ; |169| 
     884                      .dwpsn  "src\os_connect_maneger.c",170,3
     885 00000084 8A42          MOVL      XAR4,*-SP[2]          ; |170| 
     886 00000085 06C4          MOVL      ACC,*+XAR4[0]         ; |170| 
     887 00000086 EC0C          BF        L9,EQ                 ; |170| 
     888                      ; branchcc occurs ; |170| 
     889                      .dwpsn  "src\os_connect_maneger.c",173,3
     890                      .dwpsn  "src\os_connect_maneger.c",176,4
     891 00000087 761F-         MOVW      DP,#_m_event_stat_cnt
         00000088 0000 
     892 00000089 0A02-         INC       @_m_event_stat_cnt    ; |176| 
     893                      .dwpsn  "src\os_connect_maneger.c",178,2
     894 0000008a 6F08          B         L9,UNC                ; |178| 
     895                      ; branch occurs ; |178| 
     896              L8:    
     897                      .dwpsn  "src\os_connect_maneger.c",181,3
     898 0000008b 3B10   setc INTM
     899                      .dwpsn  "src\os_connect_maneger.c",182,3
     900 0000008c 8A42          MOVL      XAR4,*-SP[2]          ; |182| 
     901 0000008d 8AC4          MOVL      XAR4,*+XAR4[0]        ; |182| 
     902 0000008e FF69          SPM       #0
     903 0000008f 7640!         LCR       #_OS_EventWaitListInit ; |182| 
         00000090 0000 
     904                      ; call occurs [#_OS_EventWaitListInit] ; |182| 
     905                      .dwpsn  "src\os_connect_maneger.c",183,3
TMS320C2000 COFF Assembler PC v4.1.3 Thu Sep 13 14:28:00 2012

Tools Copyright (c) 1996-2006 Texas Instruments Incorporated
C:\DOCUME~1\ADMINI~1\LOCALS~1\Temp\TI1962                            PAGE   18

     906 00000091 2910   clrc INTM
     907              L9:    
     908                      .dwpsn  "src\os_connect_maneger.c",185,2
     909 00000092 8A42          MOVL      XAR4,*-SP[2]          ; |185| 
     910 00000093 8AC4          MOVL      XAR4,*+XAR4[0]        ; |185| 
     911 00000094 FF69          SPM       #0
     912 00000095 7640!         LCR       #_OSQFlush            ; |185| 
         00000096 0000 
     913                      ; call occurs [#_OSQFlush] ; |185| 
     914                      .dwpsn  "src\os_connect_maneger.c",186,2
     915                      .dwpsn  "src\os_connect_maneger.c",187,1
     916 00000097 FE86          SUBB      SP,#6
     917                      .dwcfa  0x1d, -2
     918 00000098 0006          LRETR
     919                      ; return occurs
     920                      .dwattr DW$98, DW_AT_end_file("src\os_connect_maneger.c")
     921                      .dwattr DW$98, DW_AT_end_line(0xbb)
     922                      .dwattr DW$98, DW_AT_end_column(0x01)
     923                      .dwendentry
     924                      .dwendtag DW$98
     925              
     926 00000099               .sect   ".text"
     927                      .global _os_task_req_pro_array
     928              
     929              DW$105  .dwtag  DW_TAG_subprogram, DW_AT_name("os_task_req_pro_array"), DW_AT_symbol_name("_os_task_req_pro_a
     930                      .dwattr DW$105, DW_AT_low_pc(_os_task_req_pro_array)
     931                      .dwattr DW$105, DW_AT_high_pc(0x00)
     932                      .dwattr DW$105, DW_AT_begin_file("src\os_connect_maneger.c")
     933                      .dwattr DW$105, DW_AT_begin_line(0xc7)
     934                      .dwattr DW$105, DW_AT_begin_column(0x09)
     935                      .dwpsn  "src\os_connect_maneger.c",200,1
     936              
     937                      .dwfde DW$CIE
     938              
     939              ;***************************************************************
     940              ;* FNAME: _os_task_req_pro_array        FR SIZE:  16           *
     941              ;*                                                             *
     942              ;* FUNCTION ENVIRONMENT                                        *
     943              ;*                                                             *
     944              ;* FUNCTION PROPERTIES                                         *
     945              ;*                            0 Parameter, 16 Auto,  0 SOE     *
     946              ;***************************************************************
     947              
     948              _os_task_req_pro_array:
     949                      .dwcfa  0x1d, -2
     950                      .dwcfa  0x1c, 26, 0
     951                      .dwcfa  0x09, 40, 26
     952 00000099 FE10          ADDB      SP,#16
     953                      .dwcfa  0x1d, -18
     954              ;* AL    assigned to _nblk
     955              DW$106  .dwtag  DW_TAG_formal_parameter, DW_AT_name("nblk"), DW_AT_symbol_name("_nblk")
     956                      .dwattr DW$106, DW_AT_type(*DW$T$23)
     957                      .dwattr DW$106, DW_AT_location[DW_OP_reg0]
     958              DW$107  .dwtag  DW_TAG_variable, DW_AT_name("nblk"), DW_AT_symbol_name("_nblk")
     959                      .dwattr DW$107, DW_AT_type(*DW$T$23)
TMS320C2000 COFF Assembler PC v4.1.3 Thu Sep 13 14:28:00 2012

Tools Copyright (c) 1996-2006 Texas Instruments Incorporated
C:\DOCUME~1\ADMINI~1\LOCALS~1\Temp\TI1962                            PAGE   19

     960                      .dwattr DW$107, DW_AT_location[DW_OP_breg20 -1]
     961              DW$108  .dwtag  DW_TAG_variable, DW_AT_name("pro_str"), DW_AT_symbol_name("_pro_str")
     962                      .dwattr DW$108, DW_AT_type(*DW$T$156)
     963                      .dwattr DW$108, DW_AT_location[DW_OP_breg20 -13]
     964              DW$109  .dwtag  DW_TAG_variable, DW_AT_name("pstk"), DW_AT_symbol_name("_pstk")
     965                      .dwattr DW$109, DW_AT_type(*DW$T$88)
     966                      .dwattr DW$109, DW_AT_location[DW_OP_breg20 -16]
     967 0000009a 9641          MOV       *-SP[1],AL            ; |200| 
     968                      .dwpsn  "src\os_connect_maneger.c",203,2
     969 0000009b 520B          CMPB      AL,#11                ; |203| 
     970 0000009c 6905          B         L10,LOS               ; |203| 
     971                      ; branchcc occurs ; |203| 
     972                      .dwpsn  "src\os_connect_maneger.c",205,3
     973 0000009d 2841          MOV       *-SP[1],#11           ; |205| 
         0000009e 000B 
     974                      .dwpsn  "src\os_connect_maneger.c",207,3
     975 0000009f 9ABE          MOVB      AL,#190               ; |207| 
     976 000000a0 6F35          B         L12,UNC               ; |207| 
     977                      ; branch occurs ; |207| 
     978              L10:    
     979                      .dwpsn  "src\os_connect_maneger.c",209,2
     980 000000a1 5CAD          MOVZ      AR4,SP                ; |209| 
     981 000000a2 9A00          MOVB      AL,#0
     982 000000a3 9B0C          MOVB      AH,#12                ; |209| 
     983 000000a4 DC8D          SUBB      XAR4,#13              ; |209| 
     984 000000a5 7640'         LCR       #_os_memset           ; |209| 
         000000a6 050A 
     985                      ; call occurs [#_os_memset] ; |209| 
     986                      .dwpsn  "src\os_connect_maneger.c",210,2
     987 000000a7 5CAD          MOVZ      AR4,SP                ; |210| 
     988 000000a8 9341          MOV       AH,*-SP[1]            ; |210| 
     989 000000a9 DC8D          SUBB      XAR4,#13              ; |210| 
     990 000000aa 9A46          MOVB      AL,#70                ; |210| 
     991 000000ab 7640'         LCR       #_os_memset           ; |210| 
         000000ac 050A 
     992                      ; call occurs [#_os_memset] ; |210| 
     993                      .dwpsn  "src\os_connect_maneger.c",211,2
     994 000000ad 761F-         MOVW      DP,#_m_task_lock
         000000ae 0000 
     995 000000af 8A04-         MOVL      XAR4,@_m_task_lock    ; |211| 
     996 000000b0 7640'         LCR       #_os_lock             ; |211| 
         000000b1 0000 
     997                      ; call occurs [#_os_lock] ; |211| 
     998                      .dwpsn  "src\os_connect_maneger.c",212,2
     999 000000b2 5DAD          MOVZ      AR5,SP                ; |212| 
    1000 000000b3 DD8D          SUBB      XAR5,#13              ; |212| 
    1001 000000b4 8F00-         MOVL      XAR4,#_m_task_pro_array ; |212| 
         000000b5 0040 
    1002 000000b6 7640'         LCR       #_os_string_locate_first ; |212| 
         000000b7 0578 
    1003                      ; call occurs [#_os_string_locate_first] ; |212| 
    1004 000000b8 A850          MOVL      *-SP[16],XAR4         ; |212| 
    1005                      .dwpsn  "src\os_connect_maneger.c",213,2
    1006 000000b9 0650          MOVL      ACC,*-SP[16]          ; |213| 
    1007 000000ba EC15          BF        L11,EQ                ; |213| 
TMS320C2000 COFF Assembler PC v4.1.3 Thu Sep 13 14:28:00 2012

Tools Copyright (c) 1996-2006 Texas Instruments Incorporated
C:\DOCUME~1\ADMINI~1\LOCALS~1\Temp\TI1962                            PAGE   20

    1008                      ; branchcc occurs ; |213| 
    1009                      .dwpsn  "src\os_connect_maneger.c",215,3
    1010 000000bb 8A50          MOVL      XAR4,*-SP[16]         ; |215| 
    1011 000000bc 28C4          MOV       *+XAR4[0],#77         ; |215| 
         000000bd 004D 
    1012                      .dwpsn  "src\os_connect_maneger.c",216,3
    1013 000000be 8A50          MOVL      XAR4,*-SP[16]         ; |216| 
    1014 000000bf 9341          MOV       AH,*-SP[1]            ; |216| 
    1015 000000c0 9DFF          ADDB      AH,#-1
    1016 000000c1 9A53          MOVB      AL,#83                ; |216| 
    1017 000000c2 DC01          ADDB      XAR4,#1               ; |216| 
    1018 000000c3 7640'         LCR       #_os_memset           ; |216| 
         000000c4 050A 
    1019                      ; call occurs [#_os_memset] ; |216| 
    1020                      .dwpsn  "src\os_connect_maneger.c",217,3
    1021 000000c5 761F-         MOVW      DP,#_m_task_lock
         000000c6 0000 
    1022 000000c7 8A04-         MOVL      XAR4,@_m_task_lock    ; |217| 
    1023 000000c8 7640'         LCR       #_os_unlock           ; |217| 
         000000c9 000A 
    1024                      ; call occurs [#_os_unlock] ; |217| 
    1025                      .dwpsn  "src\os_connect_maneger.c",218,3
    1026 000000ca 8F00-         MOVL      XAR4,#_m_task_pro_array ; |218| 
         000000cb 0040 
    1027 000000cc 0650          MOVL      ACC,*-SP[16]          ; |218| 
    1028 000000cd 03A4          SUBL      ACC,XAR4
    1029 000000ce 6F07          B         L12,UNC               ; |218| 
    1030                      ; branch occurs ; |218| 
    1031              L11:    
    1032                      .dwpsn  "src\os_connect_maneger.c",220,2
    1033 000000cf 761F-         MOVW      DP,#_m_task_lock
         000000d0 0000 
    1034 000000d1 8A04-         MOVL      XAR4,@_m_task_lock    ; |220| 
    1035 000000d2 7640'         LCR       #_os_unlock           ; |220| 
         000000d3 000A 
    1036                      ; call occurs [#_os_unlock] ; |220| 
    1037                      .dwpsn  "src\os_connect_maneger.c",221,2
    1038 000000d4 9ABE          MOVB      AL,#190               ; |221| 
    1039              L12:    
    1040                      .dwpsn  "src\os_connect_maneger.c",222,1
    1041 000000d5 FE90          SUBB      SP,#16                ; |221| 
    1042                      .dwcfa  0x1d, -2
    1043 000000d6 0006          LRETR
    1044                      ; return occurs
    1045                      .dwattr DW$105, DW_AT_end_file("src\os_connect_maneger.c")
    1046                      .dwattr DW$105, DW_AT_end_line(0xde)
    1047                      .dwattr DW$105, DW_AT_end_column(0x01)
    1048                      .dwendentry
    1049                      .dwendtag DW$105
    1050              
    1051 000000d7               .sect   ".text"
    1052                      .global _os_task_release_pro_array
    1053              
    1054              DW$110  .dwtag  DW_TAG_subprogram, DW_AT_name("os_task_release_pro_array"), DW_AT_symbol_name("_os_task_relea
    1055                      .dwattr DW$110, DW_AT_low_pc(_os_task_release_pro_array)
TMS320C2000 COFF Assembler PC v4.1.3 Thu Sep 13 14:28:00 2012

Tools Copyright (c) 1996-2006 Texas Instruments Incorporated
C:\DOCUME~1\ADMINI~1\LOCALS~1\Temp\TI1962                            PAGE   21

    1056                      .dwattr DW$110, DW_AT_high_pc(0x00)
    1057                      .dwattr DW$110, DW_AT_begin_file("src\os_connect_maneger.c")
    1058                      .dwattr DW$110, DW_AT_begin_line(0xe7)
    1059                      .dwattr DW$110, DW_AT_begin_column(0x06)
    1060                      .dwpsn  "src\os_connect_maneger.c",232,1
    1061              
    1062                      .dwfde DW$CIE
    1063              
    1064              ;***************************************************************
    1065              ;* FNAME: _os_task_release_pro_array    FR SIZE:   2           *
    1066              ;*                                                             *
    1067              ;* FUNCTION ENVIRONMENT                                        *
    1068              ;*                                                             *
    1069              ;* FUNCTION PROPERTIES                                         *
    1070              ;*                            0 Parameter,  2 Auto,  0 SOE     *
    1071              ;***************************************************************
    1072              
    1073              _os_task_release_pro_array:
    1074                      .dwcfa  0x1d, -2
    1075                      .dwcfa  0x1c, 26, 0
    1076                      .dwcfa  0x09, 40, 26
    1077 000000d7 FE02          ADDB      SP,#2
    1078                      .dwcfa  0x1d, -4
    1079              ;* AL    assigned to _pro
    1080              DW$111  .dwtag  DW_TAG_formal_parameter, DW_AT_name("pro"), DW_AT_symbol_name("_pro")
    1081                      .dwattr DW$111, DW_AT_type(*DW$T$6)
    1082                      .dwattr DW$111, DW_AT_location[DW_OP_reg0]
    1083              DW$112  .dwtag  DW_TAG_variable, DW_AT_name("pro"), DW_AT_symbol_name("_pro")
    1084                      .dwattr DW$112, DW_AT_type(*DW$T$6)
    1085                      .dwattr DW$112, DW_AT_location[DW_OP_breg20 -1]
    1086              DW$113  .dwtag  DW_TAG_variable, DW_AT_name("offset"), DW_AT_symbol_name("_offset")
    1087                      .dwattr DW$113, DW_AT_type(*DW$T$6)
    1088                      .dwattr DW$113, DW_AT_location[DW_OP_breg20 -2]
    1089 000000d8 9641          MOV       *-SP[1],AL            ; |232| 
    1090                      .dwpsn  "src\os_connect_maneger.c",234,2
    1091 000000d9 761F-         MOVW      DP,#_m_task_lock
         000000da 0000 
    1092 000000db 8A04-         MOVL      XAR4,@_m_task_lock    ; |234| 
    1093 000000dc 7640'         LCR       #_os_lock             ; |234| 
         000000dd 0000 
    1094                      ; call occurs [#_os_lock] ; |234| 
    1095                      .dwpsn  "src\os_connect_maneger.c",235,2
    1096 000000de 9241          MOV       AL,*-SP[1]            ; |235| 
    1097 000000df 52FF          CMPB      AL,#255               ; |235| 
    1098 000000e0 ED06          BF        L13,NEQ               ; |235| 
    1099                      ; branchcc occurs ; |235| 
    1100                      .dwpsn  "src\os_connect_maneger.c",237,3
    1101 000000e1 761F!         MOVW      DP,#_OSPrioCur
         000000e2 0000 
    1102 000000e3 9200!         MOV       AL,@_OSPrioCur        ; |237| 
    1103 000000e4 9642          MOV       *-SP[2],AL            ; |237| 
    1104                      .dwpsn  "src\os_connect_maneger.c",238,2
    1105 000000e5 6F02          B         L14,UNC               ; |238| 
    1106                      ; branch occurs ; |238| 
    1107              L13:    
TMS320C2000 COFF Assembler PC v4.1.3 Thu Sep 13 14:28:00 2012

Tools Copyright (c) 1996-2006 Texas Instruments Incorporated
C:\DOCUME~1\ADMINI~1\LOCALS~1\Temp\TI1962                            PAGE   22

    1108                      .dwpsn  "src\os_connect_maneger.c",241,3
    1109 000000e6 9642          MOV       *-SP[2],AL            ; |241| 
    1110              L14:    
    1111                      .dwpsn  "src\os_connect_maneger.c",243,2
    1112 000000e7 5842          MOVZ      AR0,*-SP[2]           ; |243| 
    1113 000000e8 8F00-         MOVL      XAR4,#_m_task_pro_array ; |243| 
         000000e9 0040 
    1114 000000ea 2894          MOV       *+XAR4[AR0],#70       ; |243| 
         000000eb 0046 
    1115                      .dwpsn  "src\os_connect_maneger.c",244,2
    1116 000000ec 0A42          INC       *-SP[2]               ; |244| 
    1117                      .dwpsn  "src\os_connect_maneger.c",245,2
    1118 000000ed 6F04          B         L16,UNC               ; |245| 
    1119                      ; branch occurs ; |245| 
    1120              L15:    
    1121              DW$L$_os_task_release_pro_array$5$B:
    1122                      .dwpsn  "src\os_connect_maneger.c",247,3
    1123 000000ee 2894          MOV       *+XAR4[AR0],#70       ; |247| 
         000000ef 0046 
    1124                      .dwpsn  "src\os_connect_maneger.c",248,3
    1125 000000f0 0A42          INC       *-SP[2]               ; |248| 
    1126              DW$L$_os_task_release_pro_array$5$E:
    1127              L16:    
    1128              DW$L$_os_task_release_pro_array$6$B:
    1129                      .dwpsn  "src\os_connect_maneger.c",245,10
    1130 000000f1 5842          MOVZ      AR0,*-SP[2]           ; |245| 
    1131 000000f2 9294          MOV       AL,*+XAR4[AR0]        ; |245| 
    1132 000000f3 5253          CMPB      AL,#83                ; |245| 
    1133 000000f4 ECFA          BF        L15,EQ                ; |245| 
    1134                      ; branchcc occurs ; |245| 
    1135              DW$L$_os_task_release_pro_array$6$E:
    1136                      .dwpsn  "src\os_connect_maneger.c",250,2
    1137 000000f5 761F-         MOVW      DP,#_m_task_lock
         000000f6 0000 
    1138 000000f7 8A04-         MOVL      XAR4,@_m_task_lock    ; |250| 
    1139 000000f8 7640'         LCR       #_os_unlock           ; |250| 
         000000f9 000A 
    1140                      ; call occurs [#_os_unlock] ; |250| 
    1141                      .dwpsn  "src\os_connect_maneger.c",251,2
    1142                      .dwpsn  "src\os_connect_maneger.c",252,1
    1143 000000fa FE82          SUBB      SP,#2
    1144                      .dwcfa  0x1d, -2
    1145 000000fb 0006          LRETR
    1146                      ; return occurs
    1147              
    1148              DW$114  .dwtag  DW_TAG_loop
    1149                      .dwattr DW$114, DW_AT_name("C:\DOCUME~1\ADMINI~1\LOCALS~1\Temp\TI1962:L16:1:1347517680")
    1150                      .dwattr DW$114, DW_AT_begin_file("src\os_connect_maneger.c")
    1151                      .dwattr DW$114, DW_AT_begin_line(0xf5)
    1152                      .dwattr DW$114, DW_AT_end_line(0xf8)
    1153              DW$115  .dwtag  DW_TAG_loop_range
    1154                      .dwattr DW$115, DW_AT_low_pc(DW$L$_os_task_release_pro_array$6$B)
    1155                      .dwattr DW$115, DW_AT_high_pc(DW$L$_os_task_release_pro_array$6$E)
    1156              DW$116  .dwtag  DW_TAG_loop_range
    1157                      .dwattr DW$116, DW_AT_low_pc(DW$L$_os_task_release_pro_array$5$B)
TMS320C2000 COFF Assembler PC v4.1.3 Thu Sep 13 14:28:00 2012

Tools Copyright (c) 1996-2006 Texas Instruments Incorporated
C:\DOCUME~1\ADMINI~1\LOCALS~1\Temp\TI1962                            PAGE   23

    1158                      .dwattr DW$116, DW_AT_high_pc(DW$L$_os_task_release_pro_array$5$E)
    1159                      .dwendtag DW$114
    1160              
    1161                      .dwattr DW$110, DW_AT_end_file("src\os_connect_maneger.c")
    1162                      .dwattr DW$110, DW_AT_end_line(0xfc)
    1163                      .dwattr DW$110, DW_AT_end_column(0x01)
    1164                      .dwendentry
    1165                      .dwendtag DW$110
    1166              
    1167 000000fc               .sect   ".text"
    1168                      .global _os_task_assign_pro_build
    1169              
    1170              DW$117  .dwtag  DW_TAG_subprogram, DW_AT_name("os_task_assign_pro_build"), DW_AT_symbol_name("_os_task_assign
    1171                      .dwattr DW$117, DW_AT_low_pc(_os_task_assign_pro_build)
    1172                      .dwattr DW$117, DW_AT_high_pc(0x00)
    1173                      .dwattr DW$117, DW_AT_begin_file("src\os_connect_maneger.c")
    1174                      .dwattr DW$117, DW_AT_begin_line(0x105)
    1175                      .dwattr DW$117, DW_AT_begin_column(0x07)
    1176                      .dwpsn  "src\os_connect_maneger.c",262,1
    1177              
    1178                      .dwfde DW$CIE
    1179              
    1180              ;***************************************************************
    1181              ;* FNAME: _os_task_assign_pro_build     FR SIZE:  30           *
    1182              ;*                                                             *
    1183              ;* FUNCTION ENVIRONMENT                                        *
    1184              ;*                                                             *
    1185              ;* FUNCTION PROPERTIES                                         *
    1186              ;*                            9 Parameter, 21 Auto,  0 SOE     *
    1187              ;***************************************************************
    1188              
    1189              _os_task_assign_pro_build:
    1190                      .dwcfa  0x1d, -2
    1191                      .dwcfa  0x1c, 26, 0
    1192                      .dwcfa  0x09, 40, 26
    1193 000000fc FE1E          ADDB      SP,#30
    1194                      .dwcfa  0x1d, -32
    1195              ;* AR4   assigned to _task
    1196              DW$118  .dwtag  DW_TAG_formal_parameter, DW_AT_name("task"), DW_AT_symbol_name("_task")
    1197                      .dwattr DW$118, DW_AT_type(*DW$T$61)
    1198                      .dwattr DW$118, DW_AT_location[DW_OP_reg12]
    1199              ;* AL    assigned to _pro
    1200              DW$119  .dwtag  DW_TAG_formal_parameter, DW_AT_name("pro"), DW_AT_symbol_name("_pro")
    1201                      .dwattr DW$119, DW_AT_type(*DW$T$6)
    1202                      .dwattr DW$119, DW_AT_location[DW_OP_reg0]
    1203              ;* AH    assigned to _nblk
    1204              DW$120  .dwtag  DW_TAG_formal_parameter, DW_AT_name("nblk"), DW_AT_symbol_name("_nblk")
    1205                      .dwattr DW$120, DW_AT_type(*DW$T$23)
    1206                      .dwattr DW$120, DW_AT_location[DW_OP_reg1]
    1207              DW$121  .dwtag  DW_TAG_variable, DW_AT_name("task"), DW_AT_symbol_name("_task")
    1208                      .dwattr DW$121, DW_AT_type(*DW$T$61)
    1209                      .dwattr DW$121, DW_AT_location[DW_OP_breg20 -12]
    1210              DW$122  .dwtag  DW_TAG_variable, DW_AT_name("pro"), DW_AT_symbol_name("_pro")
    1211                      .dwattr DW$122, DW_AT_type(*DW$T$6)
    1212                      .dwattr DW$122, DW_AT_location[DW_OP_breg20 -13]
TMS320C2000 COFF Assembler PC v4.1.3 Thu Sep 13 14:28:00 2012

Tools Copyright (c) 1996-2006 Texas Instruments Incorporated
C:\DOCUME~1\ADMINI~1\LOCALS~1\Temp\TI1962                            PAGE   24

    1213              DW$123  .dwtag  DW_TAG_variable, DW_AT_name("nblk"), DW_AT_symbol_name("_nblk")
    1214                      .dwattr DW$123, DW_AT_type(*DW$T$23)
    1215                      .dwattr DW$123, DW_AT_location[DW_OP_breg20 -14]
    1216              DW$124  .dwtag  DW_TAG_variable, DW_AT_name("ret"), DW_AT_symbol_name("_ret")
    1217                      .dwattr DW$124, DW_AT_type(*DW$T$6)
    1218                      .dwattr DW$124, DW_AT_location[DW_OP_breg20 -15]
    1219              DW$125  .dwtag  DW_TAG_variable, DW_AT_name("pstk"), DW_AT_symbol_name("_pstk")
    1220                      .dwattr DW$125, DW_AT_type(*DW$T$88)
    1221                      .dwattr DW$125, DW_AT_location[DW_OP_breg20 -18]
    1222              DW$126  .dwtag  DW_TAG_variable, DW_AT_name("pro_str"), DW_AT_symbol_name("_pro_str")
    1223                      .dwattr DW$126, DW_AT_type(*DW$T$156)
    1224                      .dwattr DW$126, DW_AT_location[DW_OP_breg20 -30]
    1225 000000fd 974E          MOV       *-SP[14],AH           ; |262| 
    1226 000000fe 964D          MOV       *-SP[13],AL           ; |262| 
    1227 000000ff A84C          MOVL      *-SP[12],XAR4         ; |262| 
    1228                      .dwpsn  "src\os_connect_maneger.c",266,2
    1229 00000100 924E          MOV       AL,*-SP[14]           ; |266| 
    1230 00000101 520B          CMPB      AL,#11                ; |266| 
    1231 00000102 6905          B         L17,LOS               ; |266| 
    1232                      ; branchcc occurs ; |266| 
    1233                      .dwpsn  "src\os_connect_maneger.c",268,3
    1234 00000103 284E          MOV       *-SP[14],#11          ; |268| 
         00000104 000B 
    1235                      .dwpsn  "src\os_connect_maneger.c",270,3
    1236 00000105 9A00          MOVB      AL,#0
    1237 00000106 6F64          B         L22,UNC               ; |270| 
    1238                      ; branch occurs ; |270| 
    1239              L17:    
    1240                      .dwpsn  "src\os_connect_maneger.c",272,2
    1241 00000107 924D          MOV       AL,*-SP[13]           ; |272| 
    1242 00000108 522F          CMPB      AL,#47                ; |272| 
    1243 00000109 6803          B         L18,LO                ; |272| 
    1244                      ; branchcc occurs ; |272| 
    1245                      .dwpsn  "src\os_connect_maneger.c",275,3
    1246 0000010a 9A00          MOVB      AL,#0
    1247 0000010b 6F5F          B         L22,UNC               ; |275| 
    1248                      ; branch occurs ; |275| 
    1249              L18:    
    1250                      .dwpsn  "src\os_connect_maneger.c",277,2
    1251 0000010c 5CAD          MOVZ      AR4,SP                ; |277| 
    1252 0000010d 9A00          MOVB      AL,#0
    1253 0000010e 9B0C          MOVB      AH,#12                ; |277| 
    1254 0000010f DC9E          SUBB      XAR4,#30              ; |277| 
    1255 00000110 7640'         LCR       #_os_memset           ; |277| 
         00000111 050A 
    1256                      ; call occurs [#_os_memset] ; |277| 
    1257                      .dwpsn  "src\os_connect_maneger.c",278,2
    1258 00000112 5CAD          MOVZ      AR4,SP                ; |278| 
    1259 00000113 9A46          MOVB      AL,#70                ; |278| 
    1260 00000114 934E          MOV       AH,*-SP[14]           ; |278| 
    1261 00000115 DC9E          SUBB      XAR4,#30              ; |278| 
    1262 00000116 7640'         LCR       #_os_memset           ; |278| 
         00000117 050A 
    1263                      ; call occurs [#_os_memset] ; |278| 
    1264                      .dwpsn  "src\os_connect_maneger.c",279,2
TMS320C2000 COFF Assembler PC v4.1.3 Thu Sep 13 14:28:00 2012

Tools Copyright (c) 1996-2006 Texas Instruments Incorporated
C:\DOCUME~1\ADMINI~1\LOCALS~1\Temp\TI1962                            PAGE   25

    1265 00000118 761F-         MOVW      DP,#_m_task_lock
         00000119 0000 
    1266 0000011a 8A04-         MOVL      XAR4,@_m_task_lock    ; |279| 
    1267 0000011b 7640'         LCR       #_os_lock             ; |279| 
         0000011c 0000 
    1268                      ; call occurs [#_os_lock] ; |279| 
    1269                      .dwpsn  "src\os_connect_maneger.c",280,2
    1270 0000011d 884D          MOVZ      AR6,*-SP[13]          ; |280| 
    1271 0000011e 8F00-         MOVL      XAR4,#_m_task_pro_array ; |280| 
         0000011f 0040 
    1272 00000120 A8A9          MOVL      ACC,XAR4              ; |280| 
    1273 00000121 0DA6          ADDU      ACC,AR6               ; |280| 
    1274 00000122 1E52          MOVL      *-SP[18],ACC          ; |280| 
    1275                      .dwpsn  "src\os_connect_maneger.c",281,2
    1276 00000123 5DAD          MOVZ      AR5,SP                ; |281| 
    1277 00000124 8A52          MOVL      XAR4,*-SP[18]         ; |281| 
    1278 00000125 924E          MOV       AL,*-SP[14]           ; |281| 
    1279 00000126 DD9E          SUBB      XAR5,#30              ; |281| 
    1280 00000127 7640'         LCR       #_os_memcmp           ; |281| 
         00000128 0521 
    1281                      ; call occurs [#_os_memcmp] ; |281| 
    1282 00000129 5200          CMPB      AL,#0                 ; |281| 
    1283 0000012a ED08          BF        L19,NEQ               ; |281| 
    1284                      ; branchcc occurs ; |281| 
    1285                      .dwpsn  "src\os_connect_maneger.c",284,3
    1286 0000012b 761F-         MOVW      DP,#_m_task_lock
         0000012c 0000 
    1287 0000012d 8A04-         MOVL      XAR4,@_m_task_lock    ; |284| 
    1288 0000012e 7640'         LCR       #_os_unlock           ; |284| 
         0000012f 000A 
    1289                      ; call occurs [#_os_unlock] ; |284| 
    1290                      .dwpsn  "src\os_connect_maneger.c",285,3
    1291 00000130 9A00          MOVB      AL,#0
    1292 00000131 6F39          B         L22,UNC               ; |285| 
    1293                      ; branch occurs ; |285| 
    1294              L19:    
    1295                      .dwpsn  "src\os_connect_maneger.c",287,2
    1296 00000132 8A52          MOVL      XAR4,*-SP[18]         ; |287| 
    1297 00000133 28C4          MOV       *+XAR4[0],#77         ; |287| 
         00000134 004D 
    1298                      .dwpsn  "src\os_connect_maneger.c",288,2
    1299 00000135 8A52          MOVL      XAR4,*-SP[18]         ; |288| 
    1300 00000136 934E          MOV       AH,*-SP[14]           ; |288| 
    1301 00000137 9DFF          ADDB      AH,#-1
    1302 00000138 9A53          MOVB      AL,#83                ; |288| 
    1303 00000139 DC01          ADDB      XAR4,#1               ; |288| 
    1304 0000013a 7640'         LCR       #_os_memset           ; |288| 
         0000013b 050A 
    1305                      ; call occurs [#_os_memset] ; |288| 
    1306                      .dwpsn  "src\os_connect_maneger.c",289,2
    1307 0000013c 761F-         MOVW      DP,#_m_task_lock
         0000013d 0000 
    1308 0000013e 8A04-         MOVL      XAR4,@_m_task_lock    ; |289| 
    1309 0000013f 7640'         LCR       #_os_unlock           ; |289| 
         00000140 000A 
TMS320C2000 COFF Assembler PC v4.1.3 Thu Sep 13 14:28:00 2012

Tools Copyright (c) 1996-2006 Texas Instruments Incorporated
C:\DOCUME~1\ADMINI~1\LOCALS~1\Temp\TI1962                            PAGE   26

    1310                      ; call occurs [#_os_unlock] ; |289| 
    1311                      .dwpsn  "src\os_connect_maneger.c",291,2
    1312 00000141 28AC          MOV       T,#150                ; |291| 
         00000142 0096 
    1313 00000143 8F00-         MOVL      XAR4,#_m_stk_array    ; |291| 
         00000144 0100 
    1314 00000145 304D          MPYXU     ACC,T,*-SP[13]        ; |291| 
    1315 00000146 5601          ADDL      XAR4,ACC
         00000147 00A4 
    1316 00000148 A842          MOVL      *-SP[2],XAR4          ; |291| 
    1317 00000149 924D          MOV       AL,*-SP[13]           ; |291| 
    1318 0000014a 9643          MOV       *-SP[3],AL            ; |291| 
    1319 0000014b 924D          MOV       AL,*-SP[13]           ; |291| 
    1320 0000014c 9644          MOV       *-SP[4],AL            ; |291| 
    1321 0000014d 924E          MOV       AL,*-SP[14]           ; |291| 
    1322 0000014e 944D          ADD       AL,*-SP[13]           ; |291| 
    1323 0000014f 28AC          MOV       T,#150                ; |291| 
         00000150 0096 
    1324 00000151 9CFF          ADDB      AL,#-1
    1325 00000152 8F00-         MOVL      XAR4,#_m_stk_array+149 ; |291| 
         00000153 0195 
    1326 00000154 30A9          MPYXU     ACC,T,AL              ; |291| 
    1327 00000155 5601          ADDL      XAR4,ACC
         00000156 00A4 
    1328 00000157 0200          MOVB      ACC,#0
    1329 00000158 A846          MOVL      *-SP[6],XAR4          ; |291| 
    1330 00000159 1E48          MOVL      *-SP[8],ACC           ; |291| 
    1331 0000015a 2849          MOV       *-SP[9],#3            ; |291| 
         0000015b 0003 
    1332 0000015c D500          MOVB      XAR5,#0
    1333 0000015d 2D4E          MOV       T,*-SP[14]            ; |291| 
    1334 0000015e 8A4C          MOVL      XAR4,*-SP[12]         ; |291| 
    1335 0000015f 3596          MPYB      ACC,T,#150            ; |291| 
    1336 00000160 0EA9          MOVU      ACC,AL
    1337 00000161 7640!         LCR       #_OSTaskCreateExt     ; |291| 
         00000162 0000 
    1338                      ; call occurs [#_OSTaskCreateExt] ; |291| 
    1339 00000163 5200          CMPB      AL,#0                 ; |291| 
    1340 00000164 ED04          BF        L20,NEQ               ; |291| 
    1341                      ; branchcc occurs ; |291| 
    1342                      .dwpsn  "src\os_connect_maneger.c",308,3
    1343 00000165 284F          MOV       *-SP[15],#1           ; |308| 
         00000166 0001 
    1344                      .dwpsn  "src\os_connect_maneger.c",309,2
    1345 00000167 6F02          B         L21,UNC               ; |309| 
    1346                      ; branch occurs ; |309| 
    1347              L20:    
    1348                      .dwpsn  "src\os_connect_maneger.c",312,3
    1349 00000168 2B4F          MOV       *-SP[15],#0           ; |312| 
    1350              L21:    
    1351                      .dwpsn  "src\os_connect_maneger.c",315,2
    1352 00000169 924F          MOV       AL,*-SP[15]           ; |315| 
    1353              L22:    
    1354                      .dwpsn  "src\os_connect_maneger.c",316,1
    1355 0000016a FE9E          SUBB      SP,#30                ; |315| 
TMS320C2000 COFF Assembler PC v4.1.3 Thu Sep 13 14:28:00 2012

Tools Copyright (c) 1996-2006 Texas Instruments Incorporated
C:\DOCUME~1\ADMINI~1\LOCALS~1\Temp\TI1962                            PAGE   27

    1356                      .dwcfa  0x1d, -2
    1357 0000016b 0006          LRETR
    1358                      ; return occurs
    1359                      .dwattr DW$117, DW_AT_end_file("src\os_connect_maneger.c")
    1360                      .dwattr DW$117, DW_AT_end_line(0x13c)
    1361                      .dwattr DW$117, DW_AT_end_column(0x01)
    1362                      .dwendentry
    1363                      .dwendtag DW$117
    1364              
    1365 0000016c               .sect   ".text"
    1366                      .global _os_task_assign_stk_build
    1367              
    1368              DW$127  .dwtag  DW_TAG_subprogram, DW_AT_name("os_task_assign_stk_build"), DW_AT_symbol_name("_os_task_assign
    1369                      .dwattr DW$127, DW_AT_low_pc(_os_task_assign_stk_build)
    1370                      .dwattr DW$127, DW_AT_high_pc(0x00)
    1371                      .dwattr DW$127, DW_AT_begin_file("src\os_connect_maneger.c")
    1372                      .dwattr DW$127, DW_AT_begin_line(0x145)
    1373                      .dwattr DW$127, DW_AT_begin_column(0x09)
    1374                      .dwpsn  "src\os_connect_maneger.c",326,1
    1375              
    1376                      .dwfde DW$CIE
    1377              
    1378              ;***************************************************************
    1379              ;* FNAME: _os_task_assign_stk_build     FR SIZE:  16           *
    1380              ;*                                                             *
    1381              ;* FUNCTION ENVIRONMENT                                        *
    1382              ;*                                                             *
    1383              ;* FUNCTION PROPERTIES                                         *
    1384              ;*                            9 Parameter,  6 Auto,  0 SOE     *
    1385              ;***************************************************************
    1386              
    1387              _os_task_assign_stk_build:
    1388                      .dwcfa  0x1d, -2
    1389                      .dwcfa  0x1c, 26, 0
    1390                      .dwcfa  0x09, 40, 26
    1391 0000016c FE10          ADDB      SP,#16
    1392                      .dwcfa  0x1d, -18
    1393              ;* AR4   assigned to _task
    1394              DW$128  .dwtag  DW_TAG_formal_parameter, DW_AT_name("task"), DW_AT_symbol_name("_task")
    1395                      .dwattr DW$128, DW_AT_type(*DW$T$61)
    1396                      .dwattr DW$128, DW_AT_location[DW_OP_reg12]
    1397              ;* AL    assigned to _nblk
    1398              DW$129  .dwtag  DW_TAG_formal_parameter, DW_AT_name("nblk"), DW_AT_symbol_name("_nblk")
    1399                      .dwattr DW$129, DW_AT_type(*DW$T$23)
    1400                      .dwattr DW$129, DW_AT_location[DW_OP_reg0]
    1401              DW$130  .dwtag  DW_TAG_variable, DW_AT_name("task"), DW_AT_symbol_name("_task")
    1402                      .dwattr DW$130, DW_AT_type(*DW$T$61)
    1403                      .dwattr DW$130, DW_AT_location[DW_OP_breg20 -12]
    1404              DW$131  .dwtag  DW_TAG_variable, DW_AT_name("nblk"), DW_AT_symbol_name("_nblk")
    1405                      .dwattr DW$131, DW_AT_type(*DW$T$23)
    1406                      .dwattr DW$131, DW_AT_location[DW_OP_breg20 -13]
    1407              DW$132  .dwtag  DW_TAG_variable, DW_AT_name("index"), DW_AT_symbol_name("_index")
    1408                      .dwattr DW$132, DW_AT_type(*DW$T$23)
    1409                      .dwattr DW$132, DW_AT_location[DW_OP_breg20 -14]
    1410              DW$133  .dwtag  DW_TAG_variable, DW_AT_name("ret"), DW_AT_symbol_name("_ret")
TMS320C2000 COFF Assembler PC v4.1.3 Thu Sep 13 14:28:00 2012

Tools Copyright (c) 1996-2006 Texas Instruments Incorporated
C:\DOCUME~1\ADMINI~1\LOCALS~1\Temp\TI1962                            PAGE   28

    1411                      .dwattr DW$133, DW_AT_type(*DW$T$6)
    1412                      .dwattr DW$133, DW_AT_location[DW_OP_breg20 -15]
    1413 0000016d 964D          MOV       *-SP[13],AL           ; |326| 
    1414 0000016e A84C          MOVL      *-SP[12],XAR4         ; |326| 
    1415                      .dwpsn  "src\os_connect_maneger.c",329,2
    1416 0000016f 924D          MOV       AL,*-SP[13]           ; |329| 
    1417 00000170 7640'         LCR       #_os_task_req_pro_array ; |329| 
         00000171 0099 
    1418                      ; call occurs [#_os_task_req_pro_array] ; |329| 
    1419 00000172 964E          MOV       *-SP[14],AL           ; |329| 
    1420                      .dwpsn  "src\os_connect_maneger.c",330,2
    1421 00000173 52BE          CMPB      AL,#190               ; |330| 
    1422 00000174 ED03          BF        L23,NEQ               ; |330| 
    1423                      ; branchcc occurs ; |330| 
    1424                      .dwpsn  "src\os_connect_maneger.c",333,3
    1425 00000175 9ABE          MOVB      AL,#190               ; |333| 
    1426 00000176 6F29          B         L25,UNC               ; |333| 
    1427                      ; branch occurs ; |333| 
    1428              L23:    
    1429                      .dwpsn  "src\os_connect_maneger.c",336,2
    1430 00000177 28AC          MOV       T,#150                ; |336| 
         00000178 0096 
    1431 00000179 8F00-         MOVL      XAR4,#_m_stk_array    ; |336| 
         0000017a 0100 
    1432 0000017b 304E          MPYXU     ACC,T,*-SP[14]        ; |336| 
    1433 0000017c 5601          ADDL      XAR4,ACC
         0000017d 00A4 
    1434 0000017e A842          MOVL      *-SP[2],XAR4          ; |336| 
    1435 0000017f 924E          MOV       AL,*-SP[14]           ; |336| 
    1436 00000180 9643          MOV       *-SP[3],AL            ; |336| 
    1437 00000181 28AC          MOV       T,#150                ; |336| 
         00000182 0096 
    1438 00000183 924E          MOV       AL,*-SP[14]           ; |336| 
    1439 00000184 9644          MOV       *-SP[4],AL            ; |336| 
    1440 00000185 924D          MOV       AL,*-SP[13]           ; |336| 
    1441 00000186 944E          ADD       AL,*-SP[14]           ; |336| 
    1442 00000187 9CFF          ADDB      AL,#-1
    1443 00000188 8F00-         MOVL      XAR4,#_m_stk_array+149 ; |336| 
         00000189 0195 
    1444 0000018a 30A9          MPYXU     ACC,T,AL              ; |336| 
    1445 0000018b 5601          ADDL      XAR4,ACC
         0000018c 00A4 
    1446 0000018d D500          MOVB      XAR5,#0
    1447 0000018e 0200          MOVB      ACC,#0
    1448 0000018f A846          MOVL      *-SP[6],XAR4          ; |336| 
    1449 00000190 1E48          MOVL      *-SP[8],ACC           ; |336| 
    1450 00000191 2849          MOV       *-SP[9],#3            ; |336| 
         00000192 0003 
    1451 00000193 2D4D          MOV       T,*-SP[13]            ; |336| 
    1452 00000194 8A4C          MOVL      XAR4,*-SP[12]         ; |336| 
    1453 00000195 3596          MPYB      ACC,T,#150            ; |336| 
    1454 00000196 0EA9          MOVU      ACC,AL
    1455 00000197 7640!         LCR       #_OSTaskCreateExt     ; |336| 
         00000198 0000 
    1456                      ; call occurs [#_OSTaskCreateExt] ; |336| 
TMS320C2000 COFF Assembler PC v4.1.3 Thu Sep 13 14:28:00 2012

Tools Copyright (c) 1996-2006 Texas Instruments Incorporated
C:\DOCUME~1\ADMINI~1\LOCALS~1\Temp\TI1962                            PAGE   29

    1457 00000199 964F          MOV       *-SP[15],AL           ; |336| 
    1458                      .dwpsn  "src\os_connect_maneger.c",351,2
    1459 0000019a 5200          CMPB      AL,#0                 ; |351| 
    1460 0000019b ED03          BF        L24,NEQ               ; |351| 
    1461                      ; branchcc occurs ; |351| 
    1462                      .dwpsn  "src\os_connect_maneger.c",353,3
    1463 0000019c 924E          MOV       AL,*-SP[14]           ; |353| 
    1464 0000019d 6F02          B         L25,UNC               ; |353| 
    1465                      ; branch occurs ; |353| 
    1466              L24:    
    1467                      .dwpsn  "src\os_connect_maneger.c",358,3
    1468 0000019e 9ABE          MOVB      AL,#190               ; |358| 
    1469              L25:    
    1470                      .dwpsn  "src\os_connect_maneger.c",360,1
    1471 0000019f FE90          SUBB      SP,#16                ; |358| 
    1472                      .dwcfa  0x1d, -2
    1473 000001a0 0006          LRETR
    1474                      ; return occurs
    1475                      .dwattr DW$127, DW_AT_end_file("src\os_connect_maneger.c")
    1476                      .dwattr DW$127, DW_AT_end_line(0x168)
    1477                      .dwattr DW$127, DW_AT_end_column(0x01)
    1478                      .dwendentry
    1479                      .dwendtag DW$127
    1480              
    1481 000001a1               .sect   ".text"
    1482                      .global _os_task_random_build
    1483              
    1484              DW$134  .dwtag  DW_TAG_subprogram, DW_AT_name("os_task_random_build"), DW_AT_symbol_name("_os_task_random_bui
    1485                      .dwattr DW$134, DW_AT_low_pc(_os_task_random_build)
    1486                      .dwattr DW$134, DW_AT_high_pc(0x00)
    1487                      .dwattr DW$134, DW_AT_begin_file("src\os_connect_maneger.c")
    1488                      .dwattr DW$134, DW_AT_begin_line(0x171)
    1489                      .dwattr DW$134, DW_AT_begin_column(0x09)
    1490                      .dwpsn  "src\os_connect_maneger.c",370,1
    1491              
    1492                      .dwfde DW$CIE
    1493              
    1494              ;***************************************************************
    1495              ;* FNAME: _os_task_random_build         FR SIZE:   2           *
    1496              ;*                                                             *
    1497              ;* FUNCTION ENVIRONMENT                                        *
    1498              ;*                                                             *
    1499              ;* FUNCTION PROPERTIES                                         *
    1500              ;*                            0 Parameter,  2 Auto,  0 SOE     *
    1501              ;***************************************************************
    1502              
    1503              _os_task_random_build:
    1504                      .dwcfa  0x1d, -2
    1505                      .dwcfa  0x1c, 26, 0
    1506                      .dwcfa  0x09, 40, 26
    1507 000001a1 FE02          ADDB      SP,#2
    1508                      .dwcfa  0x1d, -4
    1509              ;* AR4   assigned to _task
    1510              DW$135  .dwtag  DW_TAG_formal_parameter, DW_AT_name("task"), DW_AT_symbol_name("_task")
    1511                      .dwattr DW$135, DW_AT_type(*DW$T$61)
TMS320C2000 COFF Assembler PC v4.1.3 Thu Sep 13 14:28:00 2012

Tools Copyright (c) 1996-2006 Texas Instruments Incorporated
C:\DOCUME~1\ADMINI~1\LOCALS~1\Temp\TI1962                            PAGE   30

    1512                      .dwattr DW$135, DW_AT_location[DW_OP_reg12]
    1513              DW$136  .dwtag  DW_TAG_variable, DW_AT_name("task"), DW_AT_symbol_name("_task")
    1514                      .dwattr DW$136, DW_AT_type(*DW$T$61)
    1515                      .dwattr DW$136, DW_AT_location[DW_OP_breg20 -2]
    1516 000001a2 A842          MOVL      *-SP[2],XAR4          ; |370| 
    1517                      .dwpsn  "src\os_connect_maneger.c",371,2
    1518 000001a3 8A42          MOVL      XAR4,*-SP[2]          ; |371| 
    1519 000001a4 9A02          MOVB      AL,#2                 ; |371| 
    1520 000001a5 7640'         LCR       #_os_task_assign_stk_build ; |371| 
         000001a6 016C 
    1521                      ; call occurs [#_os_task_assign_stk_build] ; |371| 
    1522                      .dwpsn  "src\os_connect_maneger.c",372,1
    1523 000001a7 FE82          SUBB      SP,#2                 ; |371| 
    1524                      .dwcfa  0x1d, -2
    1525 000001a8 0006          LRETR
    1526                      ; return occurs
    1527                      .dwattr DW$134, DW_AT_end_file("src\os_connect_maneger.c")
    1528                      .dwattr DW$134, DW_AT_end_line(0x174)
    1529                      .dwattr DW$134, DW_AT_end_column(0x01)
    1530                      .dwendentry
    1531                      .dwendtag DW$134
    1532              
    1533 000001a9               .sect   ".text"
    1534                      .global _os_task_delete
    1535              
    1536              DW$137  .dwtag  DW_TAG_subprogram, DW_AT_name("os_task_delete"), DW_AT_symbol_name("_os_task_delete")
    1537                      .dwattr DW$137, DW_AT_low_pc(_os_task_delete)
    1538                      .dwattr DW$137, DW_AT_high_pc(0x00)
    1539                      .dwattr DW$137, DW_AT_begin_file("src\os_connect_maneger.c")
    1540                      .dwattr DW$137, DW_AT_begin_line(0x185)
    1541                      .dwattr DW$137, DW_AT_begin_column(0x09)
    1542                      .dwpsn  "src\os_connect_maneger.c",390,1
    1543              
    1544                      .dwfde DW$CIE
    1545              
    1546              ;***************************************************************
    1547              ;* FNAME: _os_task_delete               FR SIZE:   2           *
    1548              ;*                                                             *
    1549              ;* FUNCTION ENVIRONMENT                                        *
    1550              ;*                                                             *
    1551              ;* FUNCTION PROPERTIES                                         *
    1552              ;*                            0 Parameter,  2 Auto,  0 SOE     *
    1553              ;***************************************************************
    1554              
    1555              _os_task_delete:
    1556                      .dwcfa  0x1d, -2
    1557                      .dwcfa  0x1c, 26, 0
    1558                      .dwcfa  0x09, 40, 26
    1559 000001a9 FE02          ADDB      SP,#2
    1560                      .dwcfa  0x1d, -4
    1561              ;* AL    assigned to _pro
    1562              DW$138  .dwtag  DW_TAG_formal_parameter, DW_AT_name("pro"), DW_AT_symbol_name("_pro")
    1563                      .dwattr DW$138, DW_AT_type(*DW$T$6)
    1564                      .dwattr DW$138, DW_AT_location[DW_OP_reg0]
    1565              DW$139  .dwtag  DW_TAG_variable, DW_AT_name("pro"), DW_AT_symbol_name("_pro")
TMS320C2000 COFF Assembler PC v4.1.3 Thu Sep 13 14:28:00 2012

Tools Copyright (c) 1996-2006 Texas Instruments Incorporated
C:\DOCUME~1\ADMINI~1\LOCALS~1\Temp\TI1962                            PAGE   31

    1566                      .dwattr DW$139, DW_AT_type(*DW$T$6)
    1567                      .dwattr DW$139, DW_AT_location[DW_OP_breg20 -1]
    1568              DW$140  .dwtag  DW_TAG_variable, DW_AT_name("ret"), DW_AT_symbol_name("_ret")
    1569                      .dwattr DW$140, DW_AT_type(*DW$T$6)
    1570                      .dwattr DW$140, DW_AT_location[DW_OP_breg20 -2]
    1571 000001aa 9641          MOV       *-SP[1],AL            ; |390| 
    1572                      .dwpsn  "src\os_connect_maneger.c",392,2
    1573 000001ab 523C          CMPB      AL,#60                ; |392| 
    1574 000001ac 6805          B         L26,LO                ; |392| 
    1575                      ; branchcc occurs ; |392| 
    1576 000001ad 523F          CMPB      AL,#63                ; |392| 
    1577 000001ae 6603          B         L26,HI                ; |392| 
    1578                      ; branchcc occurs ; |392| 
    1579                      .dwpsn  "src\os_connect_maneger.c",395,3
    1580 000001af 9A00          MOVB      AL,#0
    1581 000001b0 6F07          B         L27,UNC               ; |395| 
    1582                      ; branch occurs ; |395| 
    1583              L26:    
    1584                      .dwpsn  "src\os_connect_maneger.c",397,2
    1585 000001b1 7640'         LCR       #_os_task_release_pro_array ; |397| 
         000001b2 00D7 
    1586                      ; call occurs [#_os_task_release_pro_array] ; |397| 
    1587                      .dwpsn  "src\os_connect_maneger.c",398,2
    1588 000001b3 9241          MOV       AL,*-SP[1]            ; |398| 
    1589 000001b4 7640!         LCR       #_OSTaskDel           ; |398| 
         000001b5 0000 
    1590                      ; call occurs [#_OSTaskDel] ; |398| 
    1591 000001b6 9642          MOV       *-SP[2],AL            ; |398| 
    1592                      .dwpsn  "src\os_connect_maneger.c",405,2
    1593              L27:    
    1594                      .dwpsn  "src\os_connect_maneger.c",406,1
    1595 000001b7 FE82          SUBB      SP,#2                 ; |405| 
    1596                      .dwcfa  0x1d, -2
    1597 000001b8 0006          LRETR
    1598                      ; return occurs
    1599                      .dwattr DW$137, DW_AT_end_file("src\os_connect_maneger.c")
    1600                      .dwattr DW$137, DW_AT_end_line(0x196)
    1601                      .dwattr DW$137, DW_AT_end_column(0x01)
    1602                      .dwendentry
    1603                      .dwendtag DW$137
    1604              
    1605 000001b9               .sect   ".text"
    1606                      .global _os_task_delete_all
    1607              
    1608              DW$141  .dwtag  DW_TAG_subprogram, DW_AT_name("os_task_delete_all"), DW_AT_symbol_name("_os_task_delete_all")
    1609                      .dwattr DW$141, DW_AT_low_pc(_os_task_delete_all)
    1610                      .dwattr DW$141, DW_AT_high_pc(0x00)
    1611                      .dwattr DW$141, DW_AT_begin_file("src\os_connect_maneger.c")
    1612                      .dwattr DW$141, DW_AT_begin_line(0x1a0)
    1613                      .dwattr DW$141, DW_AT_begin_column(0x07)
    1614                      .dwpsn  "src\os_connect_maneger.c",417,1
    1615              
    1616                      .dwfde DW$CIE
    1617              
    1618              ;***************************************************************
TMS320C2000 COFF Assembler PC v4.1.3 Thu Sep 13 14:28:00 2012

Tools Copyright (c) 1996-2006 Texas Instruments Incorporated
C:\DOCUME~1\ADMINI~1\LOCALS~1\Temp\TI1962                            PAGE   32

    1619              ;* FNAME: _os_task_delete_all           FR SIZE:   2           *
    1620              ;*                                                             *
    1621              ;* FUNCTION ENVIRONMENT                                        *
    1622              ;*                                                             *
    1623              ;* FUNCTION PROPERTIES                                         *
    1624              ;*                            0 Parameter,  1 Auto,  0 SOE     *
    1625              ;***************************************************************
    1626              
    1627              _os_task_delete_all:
    1628                      .dwcfa  0x1d, -2
    1629                      .dwcfa  0x1c, 26, 0
    1630                      .dwcfa  0x09, 40, 26
    1631 000001b9 FE02          ADDB      SP,#2
    1632                      .dwcfa  0x1d, -4
    1633              DW$142  .dwtag  DW_TAG_variable, DW_AT_name("index"), DW_AT_symbol_name("_index")
    1634                      .dwattr DW$142, DW_AT_type(*DW$T$23)
    1635                      .dwattr DW$142, DW_AT_location[DW_OP_breg20 -1]
    1636                      .dwpsn  "src\os_connect_maneger.c",419,8
    1637 000001ba 2B41          MOV       *-SP[1],#0            ; |419| 
    1638                      .dwpsn  "src\os_connect_maneger.c",419,18
    1639 000001bb 9241          MOV       AL,*-SP[1]            ; |419| 
    1640 000001bc 522F          CMPB      AL,#47                ; |419| 
    1641 000001bd 6718          B         L32,HIS               ; |419| 
    1642                      ; branchcc occurs ; |419| 
    1643              L28:    
    1644              DW$L$_os_task_delete_all$2$B:
    1645                      .dwpsn  "src\os_connect_maneger.c",421,3
    1646 000001be 5841          MOVZ      AR0,*-SP[1]           ; |421| 
    1647 000001bf 8F00-         MOVL      XAR4,#_m_task_pro_array ; |421| 
         000001c0 0040 
    1648 000001c1 9294          MOV       AL,*+XAR4[AR0]        ; |421| 
    1649 000001c2 5246          CMPB      AL,#70                ; |421| 
    1650 000001c3 ED02          BF        L29,NEQ               ; |421| 
    1651                      ; branchcc occurs ; |421| 
    1652              DW$L$_os_task_delete_all$2$E:
    1653              DW$L$_os_task_delete_all$3$B:
    1654                      .dwpsn  "src\os_connect_maneger.c",423,4
    1655 000001c4 6F0D          B         L31,UNC               ; |423| 
    1656                      ; branch occurs ; |423| 
    1657              DW$L$_os_task_delete_all$3$E:
    1658              L29:    
    1659              DW$L$_os_task_delete_all$5$B:
    1660                      .dwpsn  "src\os_connect_maneger.c",425,8
    1661 000001c5 761F!         MOVW      DP,#_OSPrioCur
         000001c6 0000 
    1662 000001c7 9200!         MOV       AL,@_OSPrioCur        ; |425| 
    1663 000001c8 5441          CMP       AL,*-SP[1]            ; |425| 
    1664 000001c9 ED02          BF        L30,NEQ               ; |425| 
    1665                      ; branchcc occurs ; |425| 
    1666              DW$L$_os_task_delete_all$5$E:
    1667              DW$L$_os_task_delete_all$6$B:
    1668                      .dwpsn  "src\os_connect_maneger.c",427,4
    1669 000001ca 6F07          B         L31,UNC               ; |427| 
    1670                      ; branch occurs ; |427| 
    1671              DW$L$_os_task_delete_all$6$E:
TMS320C2000 COFF Assembler PC v4.1.3 Thu Sep 13 14:28:00 2012

Tools Copyright (c) 1996-2006 Texas Instruments Incorporated
C:\DOCUME~1\ADMINI~1\LOCALS~1\Temp\TI1962                            PAGE   33

    1672              L30:    
    1673              DW$L$_os_task_delete_all$8$B:
    1674                      .dwpsn  "src\os_connect_maneger.c",429,8
    1675 000001cb 9294          MOV       AL,*+XAR4[AR0]        ; |429| 
    1676 000001cc 524D          CMPB      AL,#77                ; |429| 
    1677 000001cd ED04          BF        L31,NEQ               ; |429| 
    1678                      ; branchcc occurs ; |429| 
    1679              DW$L$_os_task_delete_all$8$E:
    1680              DW$L$_os_task_delete_all$9$B:
    1681                      .dwpsn  "src\os_connect_maneger.c",431,4
    1682 000001ce 9241          MOV       AL,*-SP[1]            ; |431| 
    1683 000001cf 7640'         LCR       #_os_task_delete      ; |431| 
         000001d0 01A9 
    1684                      ; call occurs [#_os_task_delete] ; |431| 
    1685              DW$L$_os_task_delete_all$9$E:
    1686              L31:    
    1687              DW$L$_os_task_delete_all$10$B:
    1688                      .dwpsn  "src\os_connect_maneger.c",419,42
    1689 000001d1 0A41          INC       *-SP[1]               ; |419| 
    1690                      .dwpsn  "src\os_connect_maneger.c",419,18
    1691 000001d2 9241          MOV       AL,*-SP[1]            ; |419| 
    1692 000001d3 522F          CMPB      AL,#47                ; |419| 
    1693 000001d4 68EA          B         L28,LO                ; |419| 
    1694                      ; branchcc occurs ; |419| 
    1695              DW$L$_os_task_delete_all$10$E:
    1696                      .dwpsn  "src\os_connect_maneger.c",434,2
    1697              L32:    
    1698                      .dwpsn  "src\os_connect_maneger.c",435,1
    1699 000001d5 FE82          SUBB      SP,#2
    1700                      .dwcfa  0x1d, -2
    1701 000001d6 0006          LRETR
    1702                      ; return occurs
    1703              
    1704              DW$143  .dwtag  DW_TAG_loop
    1705                      .dwattr DW$143, DW_AT_name("C:\DOCUME~1\ADMINI~1\LOCALS~1\Temp\TI1962:L28:1:1347517680")
    1706                      .dwattr DW$143, DW_AT_begin_file("src\os_connect_maneger.c")
    1707                      .dwattr DW$143, DW_AT_begin_line(0x1a3)
    1708                      .dwattr DW$143, DW_AT_end_line(0x1b1)
    1709              DW$144  .dwtag  DW_TAG_loop_range
    1710                      .dwattr DW$144, DW_AT_low_pc(DW$L$_os_task_delete_all$2$B)
    1711                      .dwattr DW$144, DW_AT_high_pc(DW$L$_os_task_delete_all$2$E)
    1712              DW$145  .dwtag  DW_TAG_loop_range
    1713                      .dwattr DW$145, DW_AT_low_pc(DW$L$_os_task_delete_all$5$B)
    1714                      .dwattr DW$145, DW_AT_high_pc(DW$L$_os_task_delete_all$5$E)
    1715              DW$146  .dwtag  DW_TAG_loop_range
    1716                      .dwattr DW$146, DW_AT_low_pc(DW$L$_os_task_delete_all$3$B)
    1717                      .dwattr DW$146, DW_AT_high_pc(DW$L$_os_task_delete_all$3$E)
    1718              DW$147  .dwtag  DW_TAG_loop_range
    1719                      .dwattr DW$147, DW_AT_low_pc(DW$L$_os_task_delete_all$6$B)
    1720                      .dwattr DW$147, DW_AT_high_pc(DW$L$_os_task_delete_all$6$E)
    1721              DW$148  .dwtag  DW_TAG_loop_range
    1722                      .dwattr DW$148, DW_AT_low_pc(DW$L$_os_task_delete_all$8$B)
    1723                      .dwattr DW$148, DW_AT_high_pc(DW$L$_os_task_delete_all$8$E)
    1724              DW$149  .dwtag  DW_TAG_loop_range
    1725                      .dwattr DW$149, DW_AT_low_pc(DW$L$_os_task_delete_all$9$B)
TMS320C2000 COFF Assembler PC v4.1.3 Thu Sep 13 14:28:00 2012

Tools Copyright (c) 1996-2006 Texas Instruments Incorporated
C:\DOCUME~1\ADMINI~1\LOCALS~1\Temp\TI1962                            PAGE   34

    1726                      .dwattr DW$149, DW_AT_high_pc(DW$L$_os_task_delete_all$9$E)
    1727              DW$150  .dwtag  DW_TAG_loop_range
    1728                      .dwattr DW$150, DW_AT_low_pc(DW$L$_os_task_delete_all$10$B)
    1729                      .dwattr DW$150, DW_AT_high_pc(DW$L$_os_task_delete_all$10$E)
    1730                      .dwendtag DW$143
    1731              
    1732                      .dwattr DW$141, DW_AT_end_file("src\os_connect_maneger.c")
    1733                      .dwattr DW$141, DW_AT_end_line(0x1b3)
    1734                      .dwattr DW$141, DW_AT_end_column(0x01)
    1735                      .dwendentry
    1736                      .dwendtag DW$141
    1737              
    1738 000001d7               .sect   ".text"
    1739                      .global _os_task_name_set
    1740              
    1741              DW$151  .dwtag  DW_TAG_subprogram, DW_AT_name("os_task_name_set"), DW_AT_symbol_name("_os_task_name_set")
    1742                      .dwattr DW$151, DW_AT_low_pc(_os_task_name_set)
    1743                      .dwattr DW$151, DW_AT_high_pc(0x00)
    1744                      .dwattr DW$151, DW_AT_begin_file("src\os_connect_maneger.c")
    1745                      .dwattr DW$151, DW_AT_begin_line(0x1c5)
    1746                      .dwattr DW$151, DW_AT_begin_column(0x09)
    1747                      .dwpsn  "src\os_connect_maneger.c",454,1
    1748              
    1749                      .dwfde DW$CIE
    1750              
    1751              ;***************************************************************
    1752              ;* FNAME: _os_task_name_set             FR SIZE:   6           *
    1753              ;*                                                             *
    1754              ;* FUNCTION ENVIRONMENT                                        *
    1755              ;*                                                             *
    1756              ;* FUNCTION PROPERTIES                                         *
    1757              ;*                            0 Parameter,  5 Auto,  0 SOE     *
    1758              ;***************************************************************
    1759              
    1760              _os_task_name_set:
    1761                      .dwcfa  0x1d, -2
    1762                      .dwcfa  0x1c, 26, 0
    1763                      .dwcfa  0x09, 40, 26
    1764 000001d7 FE06          ADDB      SP,#6
    1765                      .dwcfa  0x1d, -8
    1766              ;* AL    assigned to _pro
    1767              DW$152  .dwtag  DW_TAG_formal_parameter, DW_AT_name("pro"), DW_AT_symbol_name("_pro")
    1768                      .dwattr DW$152, DW_AT_type(*DW$T$6)
    1769                      .dwattr DW$152, DW_AT_location[DW_OP_reg0]
    1770              ;* AR4   assigned to _pname
    1771              DW$153  .dwtag  DW_TAG_formal_parameter, DW_AT_name("pname"), DW_AT_symbol_name("_pname")
    1772                      .dwattr DW$153, DW_AT_type(*DW$T$88)
    1773                      .dwattr DW$153, DW_AT_location[DW_OP_reg12]
    1774              DW$154  .dwtag  DW_TAG_variable, DW_AT_name("pro"), DW_AT_symbol_name("_pro")
    1775                      .dwattr DW$154, DW_AT_type(*DW$T$6)
    1776                      .dwattr DW$154, DW_AT_location[DW_OP_breg20 -1]
    1777              DW$155  .dwtag  DW_TAG_variable, DW_AT_name("pname"), DW_AT_symbol_name("_pname")
    1778                      .dwattr DW$155, DW_AT_type(*DW$T$88)
    1779                      .dwattr DW$155, DW_AT_location[DW_OP_breg20 -4]
    1780              DW$156  .dwtag  DW_TAG_variable, DW_AT_name("err"), DW_AT_symbol_name("_err")
TMS320C2000 COFF Assembler PC v4.1.3 Thu Sep 13 14:28:00 2012

Tools Copyright (c) 1996-2006 Texas Instruments Incorporated
C:\DOCUME~1\ADMINI~1\LOCALS~1\Temp\TI1962                            PAGE   35

    1781                      .dwattr DW$156, DW_AT_type(*DW$T$6)
    1782                      .dwattr DW$156, DW_AT_location[DW_OP_breg20 -5]
    1783 000001d8 A844          MOVL      *-SP[4],XAR4          ; |454| 
    1784 000001d9 9641          MOV       *-SP[1],AL            ; |454| 
    1785                      .dwpsn  "src\os_connect_maneger.c",457,2
    1786 000001da 5DAD          MOVZ      AR5,SP                ; |457| 
    1787 000001db 8A44          MOVL      XAR4,*-SP[4]          ; |457| 
    1788 000001dc DD85          SUBB      XAR5,#5               ; |457| 
    1789 000001dd 7640!         LCR       #_OSTaskNameSet       ; |457| 
         000001de 0000 
    1790                      ; call occurs [#_OSTaskNameSet] ; |457| 
    1791                      .dwpsn  "src\os_connect_maneger.c",458,2
    1792 000001df 9245          MOV       AL,*-SP[5]            ; |458| 
    1793                      .dwpsn  "src\os_connect_maneger.c",462,2
    1794                      .dwpsn  "src\os_connect_maneger.c",466,1
    1795 000001e0 FE86          SUBB      SP,#6                 ; |462| 
    1796                      .dwcfa  0x1d, -2
    1797 000001e1 0006          LRETR
    1798                      ; return occurs
    1799                      .dwattr DW$151, DW_AT_end_file("src\os_connect_maneger.c")
    1800                      .dwattr DW$151, DW_AT_end_line(0x1d2)
    1801                      .dwattr DW$151, DW_AT_end_column(0x01)
    1802                      .dwendentry
    1803                      .dwendtag DW$151
    1804              
    1805 000001e2               .sect   ".text"
    1806                      .global _os_task_name_get
    1807              
    1808              DW$157  .dwtag  DW_TAG_subprogram, DW_AT_name("os_task_name_get"), DW_AT_symbol_name("_os_task_name_get")
    1809                      .dwattr DW$157, DW_AT_low_pc(_os_task_name_get)
    1810                      .dwattr DW$157, DW_AT_high_pc(0x00)
    1811                      .dwattr DW$157, DW_AT_begin_file("src\os_connect_maneger.c")
    1812                      .dwattr DW$157, DW_AT_begin_line(0x1dc)
    1813                      .dwattr DW$157, DW_AT_begin_column(0x09)
    1814                      .dwpsn  "src\os_connect_maneger.c",477,1
    1815              
    1816                      .dwfde DW$CIE
    1817              
    1818              ;***************************************************************
    1819              ;* FNAME: _os_task_name_get             FR SIZE:   6           *
    1820              ;*                                                             *
    1821              ;* FUNCTION ENVIRONMENT                                        *
    1822              ;*                                                             *
    1823              ;* FUNCTION PROPERTIES                                         *
    1824              ;*                            0 Parameter,  6 Auto,  0 SOE     *
    1825              ;***************************************************************
    1826              
    1827              _os_task_name_get:
    1828                      .dwcfa  0x1d, -2
    1829                      .dwcfa  0x1c, 26, 0
    1830                      .dwcfa  0x09, 40, 26
    1831 000001e2 FE06          ADDB      SP,#6
    1832                      .dwcfa  0x1d, -8
    1833              ;* AL    assigned to _pro
    1834              DW$158  .dwtag  DW_TAG_formal_parameter, DW_AT_name("pro"), DW_AT_symbol_name("_pro")
TMS320C2000 COFF Assembler PC v4.1.3 Thu Sep 13 14:28:00 2012

Tools Copyright (c) 1996-2006 Texas Instruments Incorporated
C:\DOCUME~1\ADMINI~1\LOCALS~1\Temp\TI1962                            PAGE   36

    1835                      .dwattr DW$158, DW_AT_type(*DW$T$6)
    1836                      .dwattr DW$158, DW_AT_location[DW_OP_reg0]
    1837              ;* AR4   assigned to _pname
    1838              DW$159  .dwtag  DW_TAG_formal_parameter, DW_AT_name("pname"), DW_AT_symbol_name("_pname")
    1839                      .dwattr DW$159, DW_AT_type(*DW$T$88)
    1840                      .dwattr DW$159, DW_AT_location[DW_OP_reg12]
    1841              DW$160  .dwtag  DW_TAG_variable, DW_AT_name("pro"), DW_AT_symbol_name("_pro")
    1842                      .dwattr DW$160, DW_AT_type(*DW$T$6)
    1843                      .dwattr DW$160, DW_AT_location[DW_OP_breg20 -1]
    1844              DW$161  .dwtag  DW_TAG_variable, DW_AT_name("pname"), DW_AT_symbol_name("_pname")
    1845                      .dwattr DW$161, DW_AT_type(*DW$T$88)
    1846                      .dwattr DW$161, DW_AT_location[DW_OP_breg20 -4]
    1847              DW$162  .dwtag  DW_TAG_variable, DW_AT_name("len"), DW_AT_symbol_name("_len")
    1848                      .dwattr DW$162, DW_AT_type(*DW$T$6)
    1849                      .dwattr DW$162, DW_AT_location[DW_OP_breg20 -5]
    1850              DW$163  .dwtag  DW_TAG_variable, DW_AT_name("err"), DW_AT_symbol_name("_err")
    1851                      .dwattr DW$163, DW_AT_type(*DW$T$6)
    1852                      .dwattr DW$163, DW_AT_location[DW_OP_breg20 -6]
    1853 000001e3 A844          MOVL      *-SP[4],XAR4          ; |477| 
    1854 000001e4 9641          MOV       *-SP[1],AL            ; |477| 
    1855                      .dwpsn  "src\os_connect_maneger.c",481,2
    1856 000001e5 5DAD          MOVZ      AR5,SP                ; |481| 
    1857 000001e6 8A44          MOVL      XAR4,*-SP[4]          ; |481| 
    1858 000001e7 DD86          SUBB      XAR5,#6               ; |481| 
    1859 000001e8 7640!         LCR       #_OSTaskNameGet       ; |481| 
         000001e9 0000 
    1860                      ; call occurs [#_OSTaskNameGet] ; |481| 
    1861 000001ea 9645          MOV       *-SP[5],AL            ; |481| 
    1862                      .dwpsn  "src\os_connect_maneger.c",482,2
    1863 000001eb 9246          MOV       AL,*-SP[6]            ; |482| 
    1864 000001ec ED01          BF        L33,NEQ               ; |482| 
    1865                      ; branchcc occurs ; |482| 
    1866                      .dwpsn  "src\os_connect_maneger.c",485,2
    1867                      .dwpsn  "src\os_connect_maneger.c",486,7
    1868              L33:    
    1869                      .dwpsn  "src\os_connect_maneger.c",490,2
    1870 000001ed 9245          MOV       AL,*-SP[5]            ; |490| 
    1871                      .dwpsn  "src\os_connect_maneger.c",494,1
    1872 000001ee FE86          SUBB      SP,#6                 ; |490| 
    1873                      .dwcfa  0x1d, -2
    1874 000001ef 0006          LRETR
    1875                      ; return occurs
    1876                      .dwattr DW$157, DW_AT_end_file("src\os_connect_maneger.c")
    1877                      .dwattr DW$157, DW_AT_end_line(0x1ee)
    1878                      .dwattr DW$157, DW_AT_end_column(0x01)
    1879                      .dwendentry
    1880                      .dwendtag DW$157
    1881              
    1882 000001f0               .sect   ".text"
    1883                      .global _os_connect_init
    1884              
    1885              DW$164  .dwtag  DW_TAG_subprogram, DW_AT_name("os_connect_init"), DW_AT_symbol_name("_os_connect_init")
    1886                      .dwattr DW$164, DW_AT_low_pc(_os_connect_init)
    1887                      .dwattr DW$164, DW_AT_high_pc(0x00)
    1888                      .dwattr DW$164, DW_AT_begin_file("src\os_connect_maneger.c")
TMS320C2000 COFF Assembler PC v4.1.3 Thu Sep 13 14:28:00 2012

Tools Copyright (c) 1996-2006 Texas Instruments Incorporated
C:\DOCUME~1\ADMINI~1\LOCALS~1\Temp\TI1962                            PAGE   37

    1889                      .dwattr DW$164, DW_AT_begin_line(0x1f8)
    1890                      .dwattr DW$164, DW_AT_begin_column(0x06)
    1891                      .dwpsn  "src\os_connect_maneger.c",505,1
    1892              
    1893                      .dwfde DW$CIE
    1894              
    1895              ;***************************************************************
    1896              ;* FNAME: _os_connect_init              FR SIZE:   0           *
    1897              ;*                                                             *
    1898              ;* FUNCTION ENVIRONMENT                                        *
    1899              ;*                                                             *
    1900              ;* FUNCTION PROPERTIES                                         *
    1901              ;*                            0 Parameter,  0 Auto,  0 SOE     *
    1902              ;***************************************************************
    1903              
    1904              _os_connect_init:
    1905                      .dwcfa  0x1d, -2
    1906                      .dwcfa  0x1c, 26, 0
    1907                      .dwcfa  0x09, 40, 26
    1908                      .dwpsn  "src\os_connect_maneger.c",506,2
    1909 000001f0 9A46          MOVB      AL,#70                ; |506| 
    1910 000001f1 8F00-         MOVL      XAR4,#_m_task_pro_array ; |506| 
         000001f2 0040 
    1911 000001f3 9B2F          MOVB      AH,#47                ; |506| 
    1912 000001f4 7640'         LCR       #_os_memset           ; |506| 
         000001f5 050A 
    1913                      ; call occurs [#_os_memset] ; |506| 
    1914                      .dwpsn  "src\os_connect_maneger.c",507,2
    1915 000001f6 761F-         MOVW      DP,#_m_task_pro_array+47
         000001f7 0001 
    1916 000001f8 2B2F-         MOV       @_m_task_pro_array+47,#0 ; |507| 
    1917                      .dwpsn  "src\os_connect_maneger.c",508,2
    1918 000001f9 8F00-         MOVL      XAR4,#_m_task_lock    ; |508| 
         000001fa 0004 
    1919 000001fb 7640'         LCR       #_os_lock_creat       ; |508| 
         000001fc 0019 
    1920                      ; call occurs [#_os_lock_creat] ; |508| 
    1921                      .dwpsn  "src\os_connect_maneger.c",509,2
    1922 000001fd 761F-         MOVW      DP,#_m_event_stat_cnt
         000001fe 0000 
    1923 000001ff 2B02-         MOV       @_m_event_stat_cnt,#0 ; |509| 
    1924                      .dwpsn  "src\os_connect_maneger.c",510,2
    1925 00000200 7640'         LCR       #_os_driver_maneger_tab_init ; |510| 
         00000201 033B 
    1926                      ; call occurs [#_os_driver_maneger_tab_init] ; |510| 
    1927                      .dwpsn  "src\os_connect_maneger.c",511,2
    1928 00000202 7640'         LCR       #_app_module_maneger_init ; |511| 
         00000203 04CE 
    1929                      ; call occurs [#_app_module_maneger_init] ; |511| 
    1930                      .dwpsn  "src\os_connect_maneger.c",512,2
    1931                      .dwpsn  "src\os_connect_maneger.c",513,1
    1932 00000204 0006          LRETR
    1933                      ; return occurs
    1934                      .dwattr DW$164, DW_AT_end_file("src\os_connect_maneger.c")
    1935                      .dwattr DW$164, DW_AT_end_line(0x201)
TMS320C2000 COFF Assembler PC v4.1.3 Thu Sep 13 14:28:00 2012

Tools Copyright (c) 1996-2006 Texas Instruments Incorporated
C:\DOCUME~1\ADMINI~1\LOCALS~1\Temp\TI1962                            PAGE   38

    1936                      .dwattr DW$164, DW_AT_end_column(0x01)
    1937                      .dwendentry
    1938                      .dwendtag DW$164
    1939              
    1940 00000205               .sect   ".text"
    1941                      .global _os_driver_add
    1942              
    1943              DW$165  .dwtag  DW_TAG_subprogram, DW_AT_name("os_driver_add"), DW_AT_symbol_name("_os_driver_add")
    1944                      .dwattr DW$165, DW_AT_low_pc(_os_driver_add)
    1945                      .dwattr DW$165, DW_AT_high_pc(0x00)
    1946                      .dwattr DW$165, DW_AT_begin_file("src\os_driver_maneger.c")
    1947                      .dwattr DW$165, DW_AT_begin_line(0x31)
    1948                      .dwattr DW$165, DW_AT_begin_column(0x0a)
    1949                      .dwpsn  "src\os_driver_maneger.c",50,1
    1950              
    1951                      .dwfde DW$CIE
    1952              
    1953              ;***************************************************************
    1954              ;* FNAME: _os_driver_add                FR SIZE:   6           *
    1955              ;*                                                             *
    1956              ;* FUNCTION ENVIRONMENT                                        *
    1957              ;*                                                             *
    1958              ;* FUNCTION PROPERTIES                                         *
    1959              ;*                            0 Parameter,  5 Auto,  0 SOE     *
    1960              ;***************************************************************
    1961              
    1962              _os_driver_add:
    1963                      .dwcfa  0x1d, -2
    1964                      .dwcfa  0x1c, 26, 0
    1965                      .dwcfa  0x09, 40, 26
    1966 00000205 FE06          ADDB      SP,#6
    1967                      .dwcfa  0x1d, -8
    1968              ;* AR4   assigned to _driver_operate
    1969              DW$166  .dwtag  DW_TAG_formal_parameter, DW_AT_name("driver_operate"), DW_AT_symbol_name("_driver_operate")
    1970                      .dwattr DW$166, DW_AT_type(*DW$T$131)
    1971                      .dwattr DW$166, DW_AT_location[DW_OP_reg12]
    1972              ;* AR5   assigned to _pname
    1973              DW$167  .dwtag  DW_TAG_formal_parameter, DW_AT_name("pname"), DW_AT_symbol_name("_pname")
    1974                      .dwattr DW$167, DW_AT_type(*DW$T$88)
    1975                      .dwattr DW$167, DW_AT_location[DW_OP_reg14]
    1976              DW$168  .dwtag  DW_TAG_variable, DW_AT_name("driver_operate"), DW_AT_symbol_name("_driver_operate")
    1977                      .dwattr DW$168, DW_AT_type(*DW$T$131)
    1978                      .dwattr DW$168, DW_AT_location[DW_OP_breg20 -2]
    1979              DW$169  .dwtag  DW_TAG_variable, DW_AT_name("pname"), DW_AT_symbol_name("_pname")
    1980                      .dwattr DW$169, DW_AT_type(*DW$T$88)
    1981                      .dwattr DW$169, DW_AT_location[DW_OP_breg20 -4]
    1982              DW$170  .dwtag  DW_TAG_variable, DW_AT_name("index"), DW_AT_symbol_name("_index")
    1983                      .dwattr DW$170, DW_AT_type(*DW$T$6)
    1984                      .dwattr DW$170, DW_AT_location[DW_OP_breg20 -5]
    1985 00000206 A044          MOVL      *-SP[4],XAR5          ; |50| 
    1986 00000207 A842          MOVL      *-SP[2],XAR4          ; |50| 
    1987                      .dwpsn  "src\os_driver_maneger.c",52,2
    1988 00000208 761F-         MOVW      DP,#_m_driver_manege_lock
         00000209 0000 
    1989 0000020a 8A08-         MOVL      XAR4,@_m_driver_manege_lock ; |52| 
TMS320C2000 COFF Assembler PC v4.1.3 Thu Sep 13 14:28:00 2012

Tools Copyright (c) 1996-2006 Texas Instruments Incorporated
C:\DOCUME~1\ADMINI~1\LOCALS~1\Temp\TI1962                            PAGE   39

    1990 0000020b 7640'         LCR       #_os_lock             ; |52| 
         0000020c 0000 
    1991                      ; call occurs [#_os_lock] ; |52| 
    1992                      .dwpsn  "src\os_driver_maneger.c",53,8
    1993 0000020d 2B45          MOV       *-SP[5],#0            ; |53| 
    1994                      .dwpsn  "src\os_driver_maneger.c",53,18
    1995 0000020e 9245          MOV       AL,*-SP[5]            ; |53| 
    1996 0000020f 5219          CMPB      AL,#25                ; |53| 
    1997 00000210 6761          B         L36,HIS               ; |53| 
    1998                      ; branchcc occurs ; |53| 
    1999              L34:    
    2000              DW$L$_os_driver_add$2$B:
    2001                      .dwpsn  "src\os_driver_maneger.c",55,3
    2002 00000211 28AC          MOV       T,#28                 ; |55| 
         00000212 001C 
    2003 00000213 8F00-         MOVL      XAR4,#_m_driver_manege_tab+2 ; |55| 
         00000214 0102 
    2004 00000215 3045          MPYXU     ACC,T,*-SP[5]         ; |55| 
    2005 00000216 5601          ADDL      XAR4,ACC
         00000217 00A4 
    2006 00000218 92C4          MOV       AL,*+XAR4[0]          ; |55| 
    2007 00000219 ED54          BF        L35,NEQ               ; |55| 
    2008                      ; branchcc occurs ; |55| 
    2009              DW$L$_os_driver_add$2$E:
    2010                      .dwpsn  "src\os_driver_maneger.c",57,4
    2011 0000021a 28AC          MOV       T,#28                 ; |57| 
         0000021b 001C 
    2012 0000021c 8342          MOVL      XAR5,*-SP[2]          ; |57| 
    2013 0000021d 8F00-         MOVL      XAR4,#_m_driver_manege_tab+10 ; |57| 
         0000021e 010A 
    2014 0000021f 3045          MPYXU     ACC,T,*-SP[5]         ; |57| 
    2015 00000220 5601          ADDL      XAR4,ACC
         00000221 00A4 
    2016 00000222 06F5          MOVL      ACC,*+XAR5[6]         ; |57| 
    2017 00000223 1EC4          MOVL      *+XAR4[0],ACC         ; |57| 
    2018                      .dwpsn  "src\os_driver_maneger.c",59,4
    2019 00000224 28AC          MOV       T,#28                 ; |59| 
         00000225 001C 
    2020 00000226 8342          MOVL      XAR5,*-SP[2]          ; |59| 
    2021 00000227 8F00-         MOVL      XAR4,#_m_driver_manege_tab+8 ; |59| 
         00000228 0108 
    2022 00000229 3045          MPYXU     ACC,T,*-SP[5]         ; |59| 
    2023 0000022a 5601          ADDL      XAR4,ACC
         0000022b 00A4 
    2024 0000022c 06E5          MOVL      ACC,*+XAR5[4]         ; |59| 
    2025 0000022d 1EC4          MOVL      *+XAR4[0],ACC         ; |59| 
    2026                      .dwpsn  "src\os_driver_maneger.c",61,4
    2027 0000022e 28AC          MOV       T,#28                 ; |61| 
         0000022f 001C 
    2028 00000230 8342          MOVL      XAR5,*-SP[2]          ; |61| 
    2029 00000231 8F00-         MOVL      XAR4,#_m_driver_manege_tab+6 ; |61| 
         00000232 0106 
    2030 00000233 3045          MPYXU     ACC,T,*-SP[5]         ; |61| 
    2031 00000234 5601          ADDL      XAR4,ACC
         00000235 00A4 
TMS320C2000 COFF Assembler PC v4.1.3 Thu Sep 13 14:28:00 2012

Tools Copyright (c) 1996-2006 Texas Instruments Incorporated
C:\DOCUME~1\ADMINI~1\LOCALS~1\Temp\TI1962                            PAGE   40

    2032 00000236 06D5          MOVL      ACC,*+XAR5[2]         ; |61| 
    2033 00000237 1EC4          MOVL      *+XAR4[0],ACC         ; |61| 
    2034                      .dwpsn  "src\os_driver_maneger.c",63,4
    2035 00000238 28AC          MOV       T,#28                 ; |63| 
         00000239 001C 
    2036 0000023a 8342          MOVL      XAR5,*-SP[2]          ; |63| 
    2037 0000023b 8F00-         MOVL      XAR4,#_m_driver_manege_tab+4 ; |63| 
         0000023c 0104 
    2038 0000023d 3045          MPYXU     ACC,T,*-SP[5]         ; |63| 
    2039 0000023e 5601          ADDL      XAR4,ACC
         0000023f 00A4 
    2040 00000240 06C5          MOVL      ACC,*+XAR5[0]         ; |63| 
    2041 00000241 1EC4          MOVL      *+XAR4[0],ACC         ; |63| 
    2042                      .dwpsn  "src\os_driver_maneger.c",65,4
    2043 00000242 28AC          MOV       T,#28                 ; |65| 
         00000243 001C 
    2044 00000244 8F00-         MOVL      XAR4,#_m_driver_manege_tab+12 ; |65| 
         00000245 010C 
    2045 00000246 8342          MOVL      XAR5,*-SP[2]          ; |65| 
    2046 00000247 3045          MPYXU     ACC,T,*-SP[5]         ; |65| 
    2047 00000248 5601          ADDL      XAR4,ACC
         00000249 00A4 
    2048 0000024a D008          MOVB      XAR0,#8               ; |65| 
    2049 0000024b 0695          MOVL      ACC,*+XAR5[AR0]       ; |65| 
    2050 0000024c 1EC4          MOVL      *+XAR4[0],ACC         ; |65| 
    2051                      .dwpsn  "src\os_driver_maneger.c",67,4
    2052 0000024d 28AC          MOV       T,#28                 ; |67| 
         0000024e 001C 
    2053 0000024f 8F00-         MOVL      XAR4,#_m_driver_manege_tab+2 ; |67| 
         00000250 0102 
    2054 00000251 3045          MPYXU     ACC,T,*-SP[5]         ; |67| 
    2055 00000252 5601          ADDL      XAR4,ACC
         00000253 00A4 
    2056 00000254 9245          MOV       AL,*-SP[5]            ; |67| 
    2057 00000255 9C01          ADDB      AL,#1                 ; |67| 
    2058 00000256 96C4          MOV       *+XAR4[0],AL          ; |67| 
    2059                      .dwpsn  "src\os_driver_maneger.c",69,4
    2060 00000257 28AC          MOV       T,#28                 ; |69| 
         00000258 001C 
    2061 00000259 8F00-         MOVL      XAR4,#_m_driver_manege_tab+14 ; |69| 
         0000025a 010E 
    2062 0000025b 3045          MPYXU     ACC,T,*-SP[5]         ; |69| 
    2063 0000025c 5601          ADDL      XAR4,ACC
         0000025d 00A4 
    2064 0000025e 8344          MOVL      XAR5,*-SP[4]          ; |69| 
    2065 0000025f 9A0E          MOVB      AL,#14                ; |69| 
    2066 00000260 7640'         LCR       #_os_memcpy           ; |69| 
         00000261 04F3 
    2067                      ; call occurs [#_os_memcpy] ; |69| 
    2068                      .dwpsn  "src\os_driver_maneger.c",73,4
    2069 00000262 761F-         MOVW      DP,#_m_driver_manege_tab
         00000263 0004 
    2070 00000264 0A00-         INC       @_m_driver_manege_tab ; |73| 
    2071                      .dwpsn  "src\os_driver_maneger.c",74,4
    2072 00000265 761F-         MOVW      DP,#_m_driver_manege_lock
TMS320C2000 COFF Assembler PC v4.1.3 Thu Sep 13 14:28:00 2012

Tools Copyright (c) 1996-2006 Texas Instruments Incorporated
C:\DOCUME~1\ADMINI~1\LOCALS~1\Temp\TI1962                            PAGE   41

         00000266 0000 
    2073 00000267 8A08-         MOVL      XAR4,@_m_driver_manege_lock ; |74| 
    2074 00000268 7640'         LCR       #_os_unlock           ; |74| 
         00000269 000A 
    2075                      ; call occurs [#_os_unlock] ; |74| 
    2076                      .dwpsn  "src\os_driver_maneger.c",75,4
    2077 0000026a 9245          MOV       AL,*-SP[5]            ; |75| 
    2078 0000026b 9C01          ADDB      AL,#1                 ; |75| 
    2079 0000026c 6F0B          B         L37,UNC               ; |75| 
    2080                      ; branch occurs ; |75| 
    2081              L35:    
    2082              DW$L$_os_driver_add$4$B:
    2083                      .dwpsn  "src\os_driver_maneger.c",53,46
    2084 0000026d 0A45          INC       *-SP[5]               ; |53| 
    2085                      .dwpsn  "src\os_driver_maneger.c",53,18
    2086 0000026e 9245          MOV       AL,*-SP[5]            ; |53| 
    2087 0000026f 5219          CMPB      AL,#25                ; |53| 
    2088 00000270 68A1          B         L34,LO                ; |53| 
    2089                      ; branchcc occurs ; |53| 
    2090              DW$L$_os_driver_add$4$E:
    2091              L36:    
    2092                      .dwpsn  "src\os_driver_maneger.c",78,2
    2093 00000271 761F-         MOVW      DP,#_m_driver_manege_lock
         00000272 0000 
    2094 00000273 8A08-         MOVL      XAR4,@_m_driver_manege_lock ; |78| 
    2095 00000274 7640'         LCR       #_os_unlock           ; |78| 
         00000275 000A 
    2096                      ; call occurs [#_os_unlock] ; |78| 
    2097                      .dwpsn  "src\os_driver_maneger.c",79,2
    2098 00000276 9A00          MOVB      AL,#0
    2099              L37:    
    2100                      .dwpsn  "src\os_driver_maneger.c",80,1
    2101 00000277 FE86          SUBB      SP,#6                 ; |79| 
    2102                      .dwcfa  0x1d, -2
    2103 00000278 0006          LRETR
    2104                      ; return occurs
    2105              
    2106              DW$171  .dwtag  DW_TAG_loop
    2107                      .dwattr DW$171, DW_AT_name("C:\DOCUME~1\ADMINI~1\LOCALS~1\Temp\TI1962:L34:1:1347517680")
    2108                      .dwattr DW$171, DW_AT_begin_file("src\os_driver_maneger.c")
    2109                      .dwattr DW$171, DW_AT_begin_line(0x35)
    2110                      .dwattr DW$171, DW_AT_end_line(0x4d)
    2111              DW$172  .dwtag  DW_TAG_loop_range
    2112                      .dwattr DW$172, DW_AT_low_pc(DW$L$_os_driver_add$2$B)
    2113                      .dwattr DW$172, DW_AT_high_pc(DW$L$_os_driver_add$2$E)
    2114              DW$173  .dwtag  DW_TAG_loop_range
    2115                      .dwattr DW$173, DW_AT_low_pc(DW$L$_os_driver_add$4$B)
    2116                      .dwattr DW$173, DW_AT_high_pc(DW$L$_os_driver_add$4$E)
    2117                      .dwendtag DW$171
    2118              
    2119                      .dwattr DW$165, DW_AT_end_file("src\os_driver_maneger.c")
    2120                      .dwattr DW$165, DW_AT_end_line(0x50)
    2121                      .dwattr DW$165, DW_AT_end_column(0x01)
    2122                      .dwendentry
    2123                      .dwendtag DW$165
TMS320C2000 COFF Assembler PC v4.1.3 Thu Sep 13 14:28:00 2012

Tools Copyright (c) 1996-2006 Texas Instruments Incorporated
C:\DOCUME~1\ADMINI~1\LOCALS~1\Temp\TI1962                            PAGE   42

    2124              
    2125 00000279               .sect   ".text"
    2126                      .global _os_driver_delete
    2127              
    2128              DW$174  .dwtag  DW_TAG_subprogram, DW_AT_name("os_driver_delete"), DW_AT_symbol_name("_os_driver_delete")
    2129                      .dwattr DW$174, DW_AT_low_pc(_os_driver_delete)
    2130                      .dwattr DW$174, DW_AT_high_pc(0x00)
    2131                      .dwattr DW$174, DW_AT_begin_file("src\os_driver_maneger.c")
    2132                      .dwattr DW$174, DW_AT_begin_line(0x5a)
    2133                      .dwattr DW$174, DW_AT_begin_column(0x06)
    2134                      .dwpsn  "src\os_driver_maneger.c",91,1
    2135              
    2136                      .dwfde DW$CIE
    2137              
    2138              ;***************************************************************
    2139              ;* FNAME: _os_driver_delete             FR SIZE:   2           *
    2140              ;*                                                             *
    2141              ;* FUNCTION ENVIRONMENT                                        *
    2142              ;*                                                             *
    2143              ;* FUNCTION PROPERTIES                                         *
    2144              ;*                            0 Parameter,  1 Auto,  0 SOE     *
    2145              ;***************************************************************
    2146              
    2147              _os_driver_delete:
    2148                      .dwcfa  0x1d, -2
    2149                      .dwcfa  0x1c, 26, 0
    2150                      .dwcfa  0x09, 40, 26
    2151 00000279 FE02          ADDB      SP,#2
    2152                      .dwcfa  0x1d, -4
    2153              ;* AL    assigned to _dev_id
    2154              DW$175  .dwtag  DW_TAG_formal_parameter, DW_AT_name("dev_id"), DW_AT_symbol_name("_dev_id")
    2155                      .dwattr DW$175, DW_AT_type(*DW$T$41)
    2156                      .dwattr DW$175, DW_AT_location[DW_OP_reg0]
    2157              DW$176  .dwtag  DW_TAG_variable, DW_AT_name("dev_id"), DW_AT_symbol_name("_dev_id")
    2158                      .dwattr DW$176, DW_AT_type(*DW$T$41)
    2159                      .dwattr DW$176, DW_AT_location[DW_OP_breg20 -1]
    2160 0000027a 9641          MOV       *-SP[1],AL            ; |91| 
    2161                      .dwpsn  "src\os_driver_maneger.c",92,2
    2162 0000027b 761F-         MOVW      DP,#_m_driver_manege_lock
         0000027c 0000 
    2163 0000027d 8A08-         MOVL      XAR4,@_m_driver_manege_lock ; |92| 
    2164 0000027e 7640'         LCR       #_os_lock             ; |92| 
         0000027f 0000 
    2165                      ; call occurs [#_os_lock] ; |92| 
    2166                      .dwpsn  "src\os_driver_maneger.c",93,2
    2167 00000280 9241          MOV       AL,*-SP[1]            ; |93| 
    2168 00000281 28AC          MOV       T,#28                 ; |93| 
         00000282 001C 
    2169 00000283 9CFF          ADDB      AL,#-1
    2170 00000284 8F00-         MOVL      XAR4,#_m_driver_manege_tab+2 ; |93| 
         00000285 0102 
    2171 00000286 30A9          MPYXU     ACC,T,AL              ; |93| 
    2172 00000287 5601          ADDL      XAR4,ACC
         00000288 00A4 
    2173 00000289 92C4          MOV       AL,*+XAR4[0]          ; |93| 
TMS320C2000 COFF Assembler PC v4.1.3 Thu Sep 13 14:28:00 2012

Tools Copyright (c) 1996-2006 Texas Instruments Incorporated
C:\DOCUME~1\ADMINI~1\LOCALS~1\Temp\TI1962                            PAGE   43

    2174 0000028a EC0E          BF        L38,EQ                ; |93| 
    2175                      ; branchcc occurs ; |93| 
    2176                      .dwpsn  "src\os_driver_maneger.c",95,3
    2177 0000028b 9241          MOV       AL,*-SP[1]            ; |95| 
    2178 0000028c 28AC          MOV       T,#28                 ; |95| 
         0000028d 001C 
    2179 0000028e 8F00-         MOVL      XAR4,#_m_driver_manege_tab+2 ; |95| 
         0000028f 0102 
    2180 00000290 9CFF          ADDB      AL,#-1
    2181 00000291 30A9          MPYXU     ACC,T,AL              ; |95| 
    2182 00000292 5601          ADDL      XAR4,ACC
         00000293 00A4 
    2183 00000294 9A00          MOVB      AL,#0
    2184 00000295 9B1C          MOVB      AH,#28                ; |95| 
    2185 00000296 7640'         LCR       #_os_memset           ; |95| 
         00000297 050A 
    2186                      ; call occurs [#_os_memset] ; |95| 
    2187              L38:    
    2188                      .dwpsn  "src\os_driver_maneger.c",98,2
    2189 00000298 761F-         MOVW      DP,#_m_driver_manege_tab
         00000299 0004 
    2190 0000029a 0B00-         DEC       @_m_driver_manege_tab ; |98| 
    2191                      .dwpsn  "src\os_driver_maneger.c",99,2
    2192 0000029b 761F-         MOVW      DP,#_m_driver_manege_lock
         0000029c 0000 
    2193 0000029d 8A08-         MOVL      XAR4,@_m_driver_manege_lock ; |99| 
    2194 0000029e 7640'         LCR       #_os_unlock           ; |99| 
         0000029f 000A 
    2195                      ; call occurs [#_os_unlock] ; |99| 
    2196                      .dwpsn  "src\os_driver_maneger.c",100,2
    2197                      .dwpsn  "src\os_driver_maneger.c",101,1
    2198 000002a0 FE82          SUBB      SP,#2
    2199                      .dwcfa  0x1d, -2
    2200 000002a1 0006          LRETR
    2201                      ; return occurs
    2202                      .dwattr DW$174, DW_AT_end_file("src\os_driver_maneger.c")
    2203                      .dwattr DW$174, DW_AT_end_line(0x65)
    2204                      .dwattr DW$174, DW_AT_end_column(0x01)
    2205                      .dwendentry
    2206                      .dwendtag DW$174
    2207              
    2208 000002a2               .sect   ".text"
    2209                      .global _os_driver_uninstall
    2210              
    2211              DW$177  .dwtag  DW_TAG_subprogram, DW_AT_name("os_driver_uninstall"), DW_AT_symbol_name("_os_driver_uninstall
    2212                      .dwattr DW$177, DW_AT_low_pc(_os_driver_uninstall)
    2213                      .dwattr DW$177, DW_AT_high_pc(0x00)
    2214                      .dwattr DW$177, DW_AT_begin_file("src\os_driver_maneger.c")
    2215                      .dwattr DW$177, DW_AT_begin_line(0x6e)
    2216                      .dwattr DW$177, DW_AT_begin_column(0x06)
    2217                      .dwpsn  "src\os_driver_maneger.c",111,1
    2218              
    2219                      .dwfde DW$CIE
    2220              
    2221              ;***************************************************************
TMS320C2000 COFF Assembler PC v4.1.3 Thu Sep 13 14:28:00 2012

Tools Copyright (c) 1996-2006 Texas Instruments Incorporated
C:\DOCUME~1\ADMINI~1\LOCALS~1\Temp\TI1962                            PAGE   44

    2222              ;* FNAME: _os_driver_uninstall          FR SIZE:   2           *
    2223              ;*                                                             *
    2224              ;* FUNCTION ENVIRONMENT                                        *
    2225              ;*                                                             *
    2226              ;* FUNCTION PROPERTIES                                         *
    2227              ;*                            0 Parameter,  1 Auto,  0 SOE     *
    2228              ;***************************************************************
    2229              
    2230              _os_driver_uninstall:
    2231                      .dwcfa  0x1d, -2
    2232                      .dwcfa  0x1c, 26, 0
    2233                      .dwcfa  0x09, 40, 26
    2234 000002a2 FE02          ADDB      SP,#2
    2235                      .dwcfa  0x1d, -4
    2236              ;* AL    assigned to _id
    2237              DW$178  .dwtag  DW_TAG_formal_parameter, DW_AT_name("id"), DW_AT_symbol_name("_id")
    2238                      .dwattr DW$178, DW_AT_type(*DW$T$41)
    2239                      .dwattr DW$178, DW_AT_location[DW_OP_reg0]
    2240              DW$179  .dwtag  DW_TAG_variable, DW_AT_name("id"), DW_AT_symbol_name("_id")
    2241                      .dwattr DW$179, DW_AT_type(*DW$T$41)
    2242                      .dwattr DW$179, DW_AT_location[DW_OP_breg20 -1]
    2243 000002a3 9641          MOV       *-SP[1],AL            ; |111| 
    2244                      .dwpsn  "src\os_driver_maneger.c",112,2
    2245 000002a4 28AC          MOV       T,#28                 ; |112| 
         000002a5 001C 
    2246 000002a6 9CFF          ADDB      AL,#-1
    2247 000002a7 30A9          MPYXU     ACC,T,AL              ; |112| 
    2248 000002a8 8F00-         MOVL      XAR4,#_m_driver_manege_tab+2 ; |112| 
         000002a9 0102 
    2249 000002aa 5601          ADDL      XAR4,ACC
         000002ab 00A4 
    2250 000002ac 92C4          MOV       AL,*+XAR4[0]          ; |112| 
    2251 000002ad EC10          BF        L39,EQ                ; |112| 
    2252                      ; branchcc occurs ; |112| 
    2253 000002ae 9241          MOV       AL,*-SP[1]            ; |112| 
    2254 000002af EC0E          BF        L39,EQ                ; |112| 
    2255                      ; branchcc occurs ; |112| 
    2256                      .dwpsn  "src\os_driver_maneger.c",114,3
    2257 000002b0 9CFF          ADDB      AL,#-1
    2258 000002b1 28AC          MOV       T,#28                 ; |114| 
         000002b2 001C 
    2259 000002b3 8F00-         MOVL      XAR4,#_m_driver_manege_tab+12 ; |114| 
         000002b4 010C 
    2260 000002b5 30A9          MPYXU     ACC,T,AL              ; |114| 
    2261 000002b6 5601          ADDL      XAR4,ACC
         000002b7 00A4 
    2262 000002b8 C5C4          MOVL      XAR7,*+XAR4[0]        ; |114| 
    2263 000002b9 3E67          LCR       *XAR7                 ; |114| 
    2264                      ; call occurs [XAR7] ; |114| 
    2265                      .dwpsn  "src\os_driver_maneger.c",115,3
    2266 000002ba 9241          MOV       AL,*-SP[1]            ; |115| 
    2267 000002bb 7640'         LCR       #_os_driver_delete    ; |115| 
         000002bc 0279 
    2268                      ; call occurs [#_os_driver_delete] ; |115| 
    2269                      .dwpsn  "src\os_driver_maneger.c",117,2
TMS320C2000 COFF Assembler PC v4.1.3 Thu Sep 13 14:28:00 2012

Tools Copyright (c) 1996-2006 Texas Instruments Incorporated
C:\DOCUME~1\ADMINI~1\LOCALS~1\Temp\TI1962                            PAGE   45

    2270              L39:    
    2271                      .dwpsn  "src\os_driver_maneger.c",118,1
    2272 000002bd FE82          SUBB      SP,#2
    2273                      .dwcfa  0x1d, -2
    2274 000002be 0006          LRETR
    2275                      ; return occurs
    2276                      .dwattr DW$177, DW_AT_end_file("src\os_driver_maneger.c")
    2277                      .dwattr DW$177, DW_AT_end_line(0x76)
    2278                      .dwattr DW$177, DW_AT_end_column(0x01)
    2279                      .dwendentry
    2280                      .dwendtag DW$177
    2281              
    2282 000002bf               .sect   ".text"
    2283                      .global _os_driver_init
    2284              
    2285              DW$180  .dwtag  DW_TAG_subprogram, DW_AT_name("os_driver_init"), DW_AT_symbol_name("_os_driver_init")
    2286                      .dwattr DW$180, DW_AT_low_pc(_os_driver_init)
    2287                      .dwattr DW$180, DW_AT_high_pc(0x00)
    2288                      .dwattr DW$180, DW_AT_begin_file("src\os_driver_maneger.c")
    2289                      .dwattr DW$180, DW_AT_begin_line(0x7f)
    2290                      .dwattr DW$180, DW_AT_begin_column(0x06)
    2291                      .dwpsn  "src\os_driver_maneger.c",128,1
    2292              
    2293                      .dwfde DW$CIE
    2294              
    2295              ;***************************************************************
    2296              ;* FNAME: _os_driver_init               FR SIZE:   2           *
    2297              ;*                                                             *
    2298              ;* FUNCTION ENVIRONMENT                                        *
    2299              ;*                                                             *
    2300              ;* FUNCTION PROPERTIES                                         *
    2301              ;*                            0 Parameter,  1 Auto,  0 SOE     *
    2302              ;***************************************************************
    2303              
    2304              _os_driver_init:
    2305                      .dwcfa  0x1d, -2
    2306                      .dwcfa  0x1c, 26, 0
    2307                      .dwcfa  0x09, 40, 26
    2308 000002bf FE02          ADDB      SP,#2
    2309                      .dwcfa  0x1d, -4
    2310              ;* AL    assigned to _id
    2311              DW$181  .dwtag  DW_TAG_formal_parameter, DW_AT_name("id"), DW_AT_symbol_name("_id")
    2312                      .dwattr DW$181, DW_AT_type(*DW$T$41)
    2313                      .dwattr DW$181, DW_AT_location[DW_OP_reg0]
    2314              DW$182  .dwtag  DW_TAG_variable, DW_AT_name("id"), DW_AT_symbol_name("_id")
    2315                      .dwattr DW$182, DW_AT_type(*DW$T$41)
    2316                      .dwattr DW$182, DW_AT_location[DW_OP_breg20 -1]
    2317 000002c0 9641          MOV       *-SP[1],AL            ; |128| 
    2318                      .dwpsn  "src\os_driver_maneger.c",129,2
    2319 000002c1 28AC          MOV       T,#28                 ; |129| 
         000002c2 001C 
    2320 000002c3 9CFF          ADDB      AL,#-1
    2321 000002c4 30A9          MPYXU     ACC,T,AL              ; |129| 
    2322 000002c5 8F00-         MOVL      XAR4,#_m_driver_manege_tab+2 ; |129| 
         000002c6 0102 
TMS320C2000 COFF Assembler PC v4.1.3 Thu Sep 13 14:28:00 2012

Tools Copyright (c) 1996-2006 Texas Instruments Incorporated
C:\DOCUME~1\ADMINI~1\LOCALS~1\Temp\TI1962                            PAGE   46

    2323 000002c7 5601          ADDL      XAR4,ACC
         000002c8 00A4 
    2324 000002c9 92C4          MOV       AL,*+XAR4[0]          ; |129| 
    2325 000002ca EC0D          BF        L40,EQ                ; |129| 
    2326                      ; branchcc occurs ; |129| 
    2327 000002cb 9241          MOV       AL,*-SP[1]            ; |129| 
    2328 000002cc EC0B          BF        L40,EQ                ; |129| 
    2329                      ; branchcc occurs ; |129| 
    2330                      .dwpsn  "src\os_driver_maneger.c",131,3
    2331 000002cd 9CFF          ADDB      AL,#-1
    2332 000002ce 28AC          MOV       T,#28                 ; |131| 
         000002cf 001C 
    2333 000002d0 30A9          MPYXU     ACC,T,AL              ; |131| 
    2334 000002d1 8F00-         MOVL      XAR4,#_m_driver_manege_tab+10 ; |131| 
         000002d2 010A 
    2335 000002d3 5601          ADDL      XAR4,ACC
         000002d4 00A4 
    2336 000002d5 C5C4          MOVL      XAR7,*+XAR4[0]        ; |131| 
    2337 000002d6 3E67          LCR       *XAR7                 ; |131| 
    2338                      ; call occurs [XAR7] ; |131| 
    2339                      .dwpsn  "src\os_driver_maneger.c",134,2
    2340              L40:    
    2341                      .dwpsn  "src\os_driver_maneger.c",135,1
    2342 000002d7 FE82          SUBB      SP,#2
    2343                      .dwcfa  0x1d, -2
    2344 000002d8 0006          LRETR
    2345                      ; return occurs
    2346                      .dwattr DW$180, DW_AT_end_file("src\os_driver_maneger.c")
    2347                      .dwattr DW$180, DW_AT_end_line(0x87)
    2348                      .dwattr DW$180, DW_AT_end_column(0x01)
    2349                      .dwendentry
    2350                      .dwendtag DW$180
    2351              
    2352 000002d9               .sect   ".text"
    2353                      .global _os_driver_read
    2354              
    2355              DW$183  .dwtag  DW_TAG_subprogram, DW_AT_name("os_driver_read"), DW_AT_symbol_name("_os_driver_read")
    2356                      .dwattr DW$183, DW_AT_low_pc(_os_driver_read)
    2357                      .dwattr DW$183, DW_AT_high_pc(0x00)
    2358                      .dwattr DW$183, DW_AT_begin_file("src\os_driver_maneger.c")
    2359                      .dwattr DW$183, DW_AT_begin_line(0x90)
    2360                      .dwattr DW$183, DW_AT_begin_column(0x09)
    2361                      .dwpsn  "src\os_driver_maneger.c",145,1
    2362              
    2363                      .dwfde DW$CIE
    2364              
    2365              ;***************************************************************
    2366              ;* FNAME: _os_driver_read               FR SIZE:   8           *
    2367              ;*                                                             *
    2368              ;* FUNCTION ENVIRONMENT                                        *
    2369              ;*                                                             *
    2370              ;* FUNCTION PROPERTIES                                         *
    2371              ;*                            0 Parameter,  8 Auto,  0 SOE     *
    2372              ;***************************************************************
    2373              
TMS320C2000 COFF Assembler PC v4.1.3 Thu Sep 13 14:28:00 2012

Tools Copyright (c) 1996-2006 Texas Instruments Incorporated
C:\DOCUME~1\ADMINI~1\LOCALS~1\Temp\TI1962                            PAGE   47

    2374              _os_driver_read:
    2375                      .dwcfa  0x1d, -2
    2376                      .dwcfa  0x1c, 26, 0
    2377                      .dwcfa  0x09, 40, 26
    2378 000002d9 FE08          ADDB      SP,#8
    2379                      .dwcfa  0x1d, -10
    2380              ;* AL    assigned to _id
    2381              DW$184  .dwtag  DW_TAG_formal_parameter, DW_AT_name("id"), DW_AT_symbol_name("_id")
    2382                      .dwattr DW$184, DW_AT_type(*DW$T$41)
    2383                      .dwattr DW$184, DW_AT_location[DW_OP_reg0]
    2384              ;* AR4   assigned to _buf
    2385              DW$185  .dwtag  DW_TAG_formal_parameter, DW_AT_name("buf"), DW_AT_symbol_name("_buf")
    2386                      .dwattr DW$185, DW_AT_type(*DW$T$24)
    2387                      .dwattr DW$185, DW_AT_location[DW_OP_reg12]
    2388              ;* AH    assigned to _size
    2389              DW$186  .dwtag  DW_TAG_formal_parameter, DW_AT_name("size"), DW_AT_symbol_name("_size")
    2390                      .dwattr DW$186, DW_AT_type(*DW$T$23)
    2391                      .dwattr DW$186, DW_AT_location[DW_OP_reg1]
    2392              ;* AR5   assigned to _pos
    2393              DW$187  .dwtag  DW_TAG_formal_parameter, DW_AT_name("pos"), DW_AT_symbol_name("_pos")
    2394                      .dwattr DW$187, DW_AT_type(*DW$T$3)
    2395                      .dwattr DW$187, DW_AT_location[DW_OP_reg14]
    2396              DW$188  .dwtag  DW_TAG_variable, DW_AT_name("id"), DW_AT_symbol_name("_id")
    2397                      .dwattr DW$188, DW_AT_type(*DW$T$41)
    2398                      .dwattr DW$188, DW_AT_location[DW_OP_breg20 -1]
    2399              DW$189  .dwtag  DW_TAG_variable, DW_AT_name("buf"), DW_AT_symbol_name("_buf")
    2400                      .dwattr DW$189, DW_AT_type(*DW$T$24)
    2401                      .dwattr DW$189, DW_AT_location[DW_OP_breg20 -4]
    2402              DW$190  .dwtag  DW_TAG_variable, DW_AT_name("size"), DW_AT_symbol_name("_size")
    2403                      .dwattr DW$190, DW_AT_type(*DW$T$23)
    2404                      .dwattr DW$190, DW_AT_location[DW_OP_breg20 -5]
    2405              DW$191  .dwtag  DW_TAG_variable, DW_AT_name("pos"), DW_AT_symbol_name("_pos")
    2406                      .dwattr DW$191, DW_AT_type(*DW$T$3)
    2407                      .dwattr DW$191, DW_AT_location[DW_OP_breg20 -8]
    2408 000002da A048          MOVL      *-SP[8],XAR5          ; |145| 
    2409 000002db 9745          MOV       *-SP[5],AH            ; |145| 
    2410 000002dc A844          MOVL      *-SP[4],XAR4          ; |145| 
    2411 000002dd 9641          MOV       *-SP[1],AL            ; |145| 
    2412                      .dwpsn  "src\os_driver_maneger.c",146,2
    2413 000002de 28AC          MOV       T,#28                 ; |146| 
         000002df 001C 
    2414 000002e0 9CFF          ADDB      AL,#-1
    2415 000002e1 8F00-         MOVL      XAR4,#_m_driver_manege_tab+2 ; |146| 
         000002e2 0102 
    2416 000002e3 30A9          MPYXU     ACC,T,AL              ; |146| 
    2417 000002e4 5601          ADDL      XAR4,ACC
         000002e5 00A4 
    2418 000002e6 92C4          MOV       AL,*+XAR4[0]          ; |146| 
    2419 000002e7 EC11          BF        L41,EQ                ; |146| 
    2420                      ; branchcc occurs ; |146| 
    2421 000002e8 9241          MOV       AL,*-SP[1]            ; |146| 
    2422 000002e9 EC0F          BF        L41,EQ                ; |146| 
    2423                      ; branchcc occurs ; |146| 
    2424                      .dwpsn  "src\os_driver_maneger.c",148,3
    2425 000002ea 9CFF          ADDB      AL,#-1
TMS320C2000 COFF Assembler PC v4.1.3 Thu Sep 13 14:28:00 2012

Tools Copyright (c) 1996-2006 Texas Instruments Incorporated
C:\DOCUME~1\ADMINI~1\LOCALS~1\Temp\TI1962                            PAGE   48

    2426 000002eb 28AC          MOV       T,#28                 ; |148| 
         000002ec 001C 
    2427 000002ed 8F00-         MOVL      XAR4,#_m_driver_manege_tab+4 ; |148| 
         000002ee 0104 
    2428 000002ef 30A9          MPYXU     ACC,T,AL              ; |148| 
    2429 000002f0 5601          ADDL      XAR4,ACC
         000002f1 00A4 
    2430 000002f2 C5C4          MOVL      XAR7,*+XAR4[0]        ; |148| 
    2431 000002f3 8348          MOVL      XAR5,*-SP[8]          ; |148| 
    2432 000002f4 9245          MOV       AL,*-SP[5]            ; |148| 
    2433 000002f5 8A44          MOVL      XAR4,*-SP[4]          ; |148| 
    2434 000002f6 3E67          LCR       *XAR7                 ; |148| 
    2435                      ; call occurs [XAR7] ; |148| 
    2436 000002f7 6F02          B         L42,UNC               ; |148| 
    2437                      ; branch occurs ; |148| 
    2438              L41:    
    2439                      .dwpsn  "src\os_driver_maneger.c",151,2
    2440 000002f8 9A00          MOVB      AL,#0
    2441              L42:    
    2442                      .dwpsn  "src\os_driver_maneger.c",152,1
    2443 000002f9 FE88          SUBB      SP,#8                 ; |151| 
    2444                      .dwcfa  0x1d, -2
    2445 000002fa 0006          LRETR
    2446                      ; return occurs
    2447                      .dwattr DW$183, DW_AT_end_file("src\os_driver_maneger.c")
    2448                      .dwattr DW$183, DW_AT_end_line(0x98)
    2449                      .dwattr DW$183, DW_AT_end_column(0x01)
    2450                      .dwendentry
    2451                      .dwendtag DW$183
    2452              
    2453 000002fb               .sect   ".text"
    2454                      .global _os_driver_write
    2455              
    2456              DW$192  .dwtag  DW_TAG_subprogram, DW_AT_name("os_driver_write"), DW_AT_symbol_name("_os_driver_write")
    2457                      .dwattr DW$192, DW_AT_low_pc(_os_driver_write)
    2458                      .dwattr DW$192, DW_AT_high_pc(0x00)
    2459                      .dwattr DW$192, DW_AT_begin_file("src\os_driver_maneger.c")
    2460                      .dwattr DW$192, DW_AT_begin_line(0xa1)
    2461                      .dwattr DW$192, DW_AT_begin_column(0x09)
    2462                      .dwpsn  "src\os_driver_maneger.c",162,1
    2463              
    2464                      .dwfde DW$CIE
    2465              
    2466              ;***************************************************************
    2467              ;* FNAME: _os_driver_write              FR SIZE:   8           *
    2468              ;*                                                             *
    2469              ;* FUNCTION ENVIRONMENT                                        *
    2470              ;*                                                             *
    2471              ;* FUNCTION PROPERTIES                                         *
    2472              ;*                            0 Parameter,  8 Auto,  0 SOE     *
    2473              ;***************************************************************
    2474              
    2475              _os_driver_write:
    2476                      .dwcfa  0x1d, -2
    2477                      .dwcfa  0x1c, 26, 0
TMS320C2000 COFF Assembler PC v4.1.3 Thu Sep 13 14:28:00 2012

Tools Copyright (c) 1996-2006 Texas Instruments Incorporated
C:\DOCUME~1\ADMINI~1\LOCALS~1\Temp\TI1962                            PAGE   49

    2478                      .dwcfa  0x09, 40, 26
    2479 000002fb FE08          ADDB      SP,#8
    2480                      .dwcfa  0x1d, -10
    2481              ;* AL    assigned to _id
    2482              DW$193  .dwtag  DW_TAG_formal_parameter, DW_AT_name("id"), DW_AT_symbol_name("_id")
    2483                      .dwattr DW$193, DW_AT_type(*DW$T$41)
    2484                      .dwattr DW$193, DW_AT_location[DW_OP_reg0]
    2485              ;* AR4   assigned to _buf
    2486              DW$194  .dwtag  DW_TAG_formal_parameter, DW_AT_name("buf"), DW_AT_symbol_name("_buf")
    2487                      .dwattr DW$194, DW_AT_type(*DW$T$24)
    2488                      .dwattr DW$194, DW_AT_location[DW_OP_reg12]
    2489              ;* AH    assigned to _size
    2490              DW$195  .dwtag  DW_TAG_formal_parameter, DW_AT_name("size"), DW_AT_symbol_name("_size")
    2491                      .dwattr DW$195, DW_AT_type(*DW$T$23)
    2492                      .dwattr DW$195, DW_AT_location[DW_OP_reg1]
    2493              ;* AR5   assigned to _pos
    2494              DW$196  .dwtag  DW_TAG_formal_parameter, DW_AT_name("pos"), DW_AT_symbol_name("_pos")
    2495                      .dwattr DW$196, DW_AT_type(*DW$T$3)
    2496                      .dwattr DW$196, DW_AT_location[DW_OP_reg14]
    2497              DW$197  .dwtag  DW_TAG_variable, DW_AT_name("id"), DW_AT_symbol_name("_id")
    2498                      .dwattr DW$197, DW_AT_type(*DW$T$41)
    2499                      .dwattr DW$197, DW_AT_location[DW_OP_breg20 -1]
    2500              DW$198  .dwtag  DW_TAG_variable, DW_AT_name("buf"), DW_AT_symbol_name("_buf")
    2501                      .dwattr DW$198, DW_AT_type(*DW$T$24)
    2502                      .dwattr DW$198, DW_AT_location[DW_OP_breg20 -4]
    2503              DW$199  .dwtag  DW_TAG_variable, DW_AT_name("size"), DW_AT_symbol_name("_size")
    2504                      .dwattr DW$199, DW_AT_type(*DW$T$23)
    2505                      .dwattr DW$199, DW_AT_location[DW_OP_breg20 -5]
    2506              DW$200  .dwtag  DW_TAG_variable, DW_AT_name("pos"), DW_AT_symbol_name("_pos")
    2507                      .dwattr DW$200, DW_AT_type(*DW$T$3)
    2508                      .dwattr DW$200, DW_AT_location[DW_OP_breg20 -8]
    2509 000002fc A048          MOVL      *-SP[8],XAR5          ; |162| 
    2510 000002fd 9745          MOV       *-SP[5],AH            ; |162| 
    2511 000002fe A844          MOVL      *-SP[4],XAR4          ; |162| 
    2512 000002ff 9641          MOV       *-SP[1],AL            ; |162| 
    2513                      .dwpsn  "src\os_driver_maneger.c",163,2
    2514 00000300 28AC          MOV       T,#28                 ; |163| 
         00000301 001C 
    2515 00000302 9CFF          ADDB      AL,#-1
    2516 00000303 8F00-         MOVL      XAR4,#_m_driver_manege_tab+2 ; |163| 
         00000304 0102 
    2517 00000305 30A9          MPYXU     ACC,T,AL              ; |163| 
    2518 00000306 5601          ADDL      XAR4,ACC
         00000307 00A4 
    2519 00000308 92C4          MOV       AL,*+XAR4[0]          ; |163| 
    2520 00000309 EC11          BF        L43,EQ                ; |163| 
    2521                      ; branchcc occurs ; |163| 
    2522 0000030a 9241          MOV       AL,*-SP[1]            ; |163| 
    2523 0000030b EC0F          BF        L43,EQ                ; |163| 
    2524                      ; branchcc occurs ; |163| 
    2525                      .dwpsn  "src\os_driver_maneger.c",165,3
    2526 0000030c 9CFF          ADDB      AL,#-1
    2527 0000030d 28AC          MOV       T,#28                 ; |165| 
         0000030e 001C 
    2528 0000030f 8F00-         MOVL      XAR4,#_m_driver_manege_tab+6 ; |165| 
TMS320C2000 COFF Assembler PC v4.1.3 Thu Sep 13 14:28:00 2012

Tools Copyright (c) 1996-2006 Texas Instruments Incorporated
C:\DOCUME~1\ADMINI~1\LOCALS~1\Temp\TI1962                            PAGE   50

         00000310 0106 
    2529 00000311 30A9          MPYXU     ACC,T,AL              ; |165| 
    2530 00000312 5601          ADDL      XAR4,ACC
         00000313 00A4 
    2531 00000314 C5C4          MOVL      XAR7,*+XAR4[0]        ; |165| 
    2532 00000315 8348          MOVL      XAR5,*-SP[8]          ; |165| 
    2533 00000316 9245          MOV       AL,*-SP[5]            ; |165| 
    2534 00000317 8A44          MOVL      XAR4,*-SP[4]          ; |165| 
    2535 00000318 3E67          LCR       *XAR7                 ; |165| 
    2536                      ; call occurs [XAR7] ; |165| 
    2537 00000319 6F02          B         L44,UNC               ; |165| 
    2538                      ; branch occurs ; |165| 
    2539              L43:    
    2540                      .dwpsn  "src\os_driver_maneger.c",168,2
    2541 0000031a 9A00          MOVB      AL,#0
    2542              L44:    
    2543                      .dwpsn  "src\os_driver_maneger.c",169,1
    2544 0000031b FE88          SUBB      SP,#8                 ; |168| 
    2545                      .dwcfa  0x1d, -2
    2546 0000031c 0006          LRETR
    2547                      ; return occurs
    2548                      .dwattr DW$192, DW_AT_end_file("src\os_driver_maneger.c")
    2549                      .dwattr DW$192, DW_AT_end_line(0xa9)
    2550                      .dwattr DW$192, DW_AT_end_column(0x01)
    2551                      .dwendentry
    2552                      .dwendtag DW$192
    2553              
    2554 0000031d               .sect   ".text"
    2555                      .global _os_driver_ioctl
    2556              
    2557              DW$201  .dwtag  DW_TAG_subprogram, DW_AT_name("os_driver_ioctl"), DW_AT_symbol_name("_os_driver_ioctl")
    2558                      .dwattr DW$201, DW_AT_low_pc(_os_driver_ioctl)
    2559                      .dwattr DW$201, DW_AT_high_pc(0x00)
    2560                      .dwattr DW$201, DW_AT_begin_file("src\os_driver_maneger.c")
    2561                      .dwattr DW$201, DW_AT_begin_line(0xb2)
    2562                      .dwattr DW$201, DW_AT_begin_column(0x07)
    2563                      .dwpsn  "src\os_driver_maneger.c",179,1
    2564              
    2565                      .dwfde DW$CIE
    2566              
    2567              ;***************************************************************
    2568              ;* FNAME: _os_driver_ioctl              FR SIZE:   4           *
    2569              ;*                                                             *
    2570              ;* FUNCTION ENVIRONMENT                                        *
    2571              ;*                                                             *
    2572              ;* FUNCTION PROPERTIES                                         *
    2573              ;*                            0 Parameter,  4 Auto,  0 SOE     *
    2574              ;***************************************************************
    2575              
    2576              _os_driver_ioctl:
    2577                      .dwcfa  0x1d, -2
    2578                      .dwcfa  0x1c, 26, 0
    2579                      .dwcfa  0x09, 40, 26
    2580 0000031d FE04          ADDB      SP,#4
    2581                      .dwcfa  0x1d, -6
TMS320C2000 COFF Assembler PC v4.1.3 Thu Sep 13 14:28:00 2012

Tools Copyright (c) 1996-2006 Texas Instruments Incorporated
C:\DOCUME~1\ADMINI~1\LOCALS~1\Temp\TI1962                            PAGE   51

    2582              ;* AL    assigned to _id
    2583              DW$202  .dwtag  DW_TAG_formal_parameter, DW_AT_name("id"), DW_AT_symbol_name("_id")
    2584                      .dwattr DW$202, DW_AT_type(*DW$T$41)
    2585                      .dwattr DW$202, DW_AT_location[DW_OP_reg0]
    2586              ;* AH    assigned to _cmd
    2587              DW$203  .dwtag  DW_TAG_formal_parameter, DW_AT_name("cmd"), DW_AT_symbol_name("_cmd")
    2588                      .dwattr DW$203, DW_AT_type(*DW$T$6)
    2589                      .dwattr DW$203, DW_AT_location[DW_OP_reg1]
    2590              ;* AR4   assigned to _arg
    2591              DW$204  .dwtag  DW_TAG_formal_parameter, DW_AT_name("arg"), DW_AT_symbol_name("_arg")
    2592                      .dwattr DW$204, DW_AT_type(*DW$T$3)
    2593                      .dwattr DW$204, DW_AT_location[DW_OP_reg12]
    2594              DW$205  .dwtag  DW_TAG_variable, DW_AT_name("id"), DW_AT_symbol_name("_id")
    2595                      .dwattr DW$205, DW_AT_type(*DW$T$41)
    2596                      .dwattr DW$205, DW_AT_location[DW_OP_breg20 -1]
    2597              DW$206  .dwtag  DW_TAG_variable, DW_AT_name("cmd"), DW_AT_symbol_name("_cmd")
    2598                      .dwattr DW$206, DW_AT_type(*DW$T$6)
    2599                      .dwattr DW$206, DW_AT_location[DW_OP_breg20 -2]
    2600              DW$207  .dwtag  DW_TAG_variable, DW_AT_name("arg"), DW_AT_symbol_name("_arg")
    2601                      .dwattr DW$207, DW_AT_type(*DW$T$3)
    2602                      .dwattr DW$207, DW_AT_location[DW_OP_breg20 -4]
    2603 0000031e A844          MOVL      *-SP[4],XAR4          ; |179| 
    2604 0000031f 9742          MOV       *-SP[2],AH            ; |179| 
    2605 00000320 9641          MOV       *-SP[1],AL            ; |179| 
    2606                      .dwpsn  "src\os_driver_maneger.c",180,2
    2607 00000321 28AC          MOV       T,#28                 ; |180| 
         00000322 001C 
    2608 00000323 9CFF          ADDB      AL,#-1
    2609 00000324 8F00-         MOVL      XAR4,#_m_driver_manege_tab+2 ; |180| 
         00000325 0102 
    2610 00000326 30A9          MPYXU     ACC,T,AL              ; |180| 
    2611 00000327 5601          ADDL      XAR4,ACC
         00000328 00A4 
    2612 00000329 92C4          MOV       AL,*+XAR4[0]          ; |180| 
    2613 0000032a EC0F          BF        L45,EQ                ; |180| 
    2614                      ; branchcc occurs ; |180| 
    2615 0000032b 9241          MOV       AL,*-SP[1]            ; |180| 
    2616 0000032c EC0D          BF        L45,EQ                ; |180| 
    2617                      ; branchcc occurs ; |180| 
    2618                      .dwpsn  "src\os_driver_maneger.c",182,3
    2619 0000032d 9CFF          ADDB      AL,#-1
    2620 0000032e 28AC          MOV       T,#28                 ; |182| 
         0000032f 001C 
    2621 00000330 8F00-         MOVL      XAR4,#_m_driver_manege_tab+8 ; |182| 
         00000331 0108 
    2622 00000332 30A9          MPYXU     ACC,T,AL              ; |182| 
    2623 00000333 5601          ADDL      XAR4,ACC
         00000334 00A4 
    2624 00000335 C5C4          MOVL      XAR7,*+XAR4[0]        ; |182| 
    2625 00000336 9242          MOV       AL,*-SP[2]            ; |182| 
    2626 00000337 8A44          MOVL      XAR4,*-SP[4]          ; |182| 
    2627 00000338 3E67          LCR       *XAR7                 ; |182| 
    2628                      ; call occurs [XAR7] ; |182| 
    2629                      .dwpsn  "src\os_driver_maneger.c",184,2
    2630              L45:    
TMS320C2000 COFF Assembler PC v4.1.3 Thu Sep 13 14:28:00 2012

Tools Copyright (c) 1996-2006 Texas Instruments Incorporated
C:\DOCUME~1\ADMINI~1\LOCALS~1\Temp\TI1962                            PAGE   52

    2631                      .dwpsn  "src\os_driver_maneger.c",185,1
    2632 00000339 FE84          SUBB      SP,#4
    2633                      .dwcfa  0x1d, -2
    2634 0000033a 0006          LRETR
    2635                      ; return occurs
    2636                      .dwattr DW$201, DW_AT_end_file("src\os_driver_maneger.c")
    2637                      .dwattr DW$201, DW_AT_end_line(0xb9)
    2638                      .dwattr DW$201, DW_AT_end_column(0x01)
    2639                      .dwendentry
    2640                      .dwendtag DW$201
    2641              
    2642 0000033b               .sect   ".text"
    2643                      .global _os_driver_maneger_tab_init
    2644              
    2645              DW$208  .dwtag  DW_TAG_subprogram, DW_AT_name("os_driver_maneger_tab_init"), DW_AT_symbol_name("_os_driver_ma
    2646                      .dwattr DW$208, DW_AT_low_pc(_os_driver_maneger_tab_init)
    2647                      .dwattr DW$208, DW_AT_high_pc(0x00)
    2648                      .dwattr DW$208, DW_AT_begin_file("src\os_driver_maneger.c")
    2649                      .dwattr DW$208, DW_AT_begin_line(0xc3)
    2650                      .dwattr DW$208, DW_AT_begin_column(0x06)
    2651                      .dwpsn  "src\os_driver_maneger.c",196,1
    2652              
    2653                      .dwfde DW$CIE
    2654              
    2655              ;***************************************************************
    2656              ;* FNAME: _os_driver_maneger_tab_init   FR SIZE:   0           *
    2657              ;*                                                             *
    2658              ;* FUNCTION ENVIRONMENT                                        *
    2659              ;*                                                             *
    2660              ;* FUNCTION PROPERTIES                                         *
    2661              ;*                            0 Parameter,  0 Auto,  0 SOE     *
    2662              ;***************************************************************
    2663              
    2664              _os_driver_maneger_tab_init:
    2665                      .dwcfa  0x1d, -2
    2666                      .dwcfa  0x1c, 26, 0
    2667                      .dwcfa  0x09, 40, 26
    2668                      .dwpsn  "src\os_driver_maneger.c",197,2
    2669 0000033b 9A00          MOVB      AL,#0
    2670 0000033c 8F00-         MOVL      XAR4,#_m_driver_manege_tab ; |197| 
         0000033d 0100 
    2671 0000033e 28A8          MOV       AH,#702               ; |197| 
         0000033f 02BE 
    2672 00000340 7640'         LCR       #_os_memset           ; |197| 
         00000341 050A 
    2673                      ; call occurs [#_os_memset] ; |197| 
    2674                      .dwpsn  "src\os_driver_maneger.c",198,2
    2675 00000342 8F00-         MOVL      XAR4,#_m_driver_manege_lock ; |198| 
         00000343 0008 
    2676 00000344 7640'         LCR       #_os_lock_creat       ; |198| 
         00000345 0019 
    2677                      ; call occurs [#_os_lock_creat] ; |198| 
    2678                      .dwpsn  "src\os_driver_maneger.c",199,2
    2679 00000346 761F-         MOVW      DP,#_m_driver_manege_lock
         00000347 0000 
TMS320C2000 COFF Assembler PC v4.1.3 Thu Sep 13 14:28:00 2012

Tools Copyright (c) 1996-2006 Texas Instruments Incorporated
C:\DOCUME~1\ADMINI~1\LOCALS~1\Temp\TI1962                            PAGE   53

    2680 00000348 0608-         MOVL      ACC,@_m_driver_manege_lock ; |199| 
    2681 00000349 EC01          BF        L46,EQ                ; |199| 
    2682                      ; branchcc occurs ; |199| 
    2683                      .dwpsn  "src\os_driver_maneger.c",203,2
    2684              L46:    
    2685                      .dwpsn  "src\os_driver_maneger.c",204,1
    2686 0000034a 0006          LRETR
    2687                      ; return occurs
    2688                      .dwattr DW$208, DW_AT_end_file("src\os_driver_maneger.c")
    2689                      .dwattr DW$208, DW_AT_end_line(0xcc)
    2690                      .dwattr DW$208, DW_AT_end_column(0x01)
    2691                      .dwendentry
    2692                      .dwendtag DW$208
    2693              
    2694 0000034b               .sect   ".text"
    2695                      .global _app_module_start_hook
    2696              
    2697              DW$209  .dwtag  DW_TAG_subprogram, DW_AT_name("app_module_start_hook"), DW_AT_symbol_name("_app_module_start_
    2698                      .dwattr DW$209, DW_AT_low_pc(_app_module_start_hook)
    2699                      .dwattr DW$209, DW_AT_high_pc(0x00)
    2700                      .dwattr DW$209, DW_AT_begin_file("src\os_mod_maneger.c")
    2701                      .dwattr DW$209, DW_AT_begin_line(0x24)
    2702                      .dwattr DW$209, DW_AT_begin_column(0x06)
    2703                      .dwpsn  "src\os_mod_maneger.c",37,1
    2704              
    2705                      .dwfde DW$CIE
    2706              
    2707              ;***************************************************************
    2708              ;* FNAME: _app_module_start_hook        FR SIZE:   2           *
    2709              ;*                                                             *
    2710              ;* FUNCTION ENVIRONMENT                                        *
    2711              ;*                                                             *
    2712              ;* FUNCTION PROPERTIES                                         *
    2713              ;*                            0 Parameter,  2 Auto,  0 SOE     *
    2714              ;***************************************************************
    2715              
    2716              _app_module_start_hook:
    2717                      .dwcfa  0x1d, -2
    2718                      .dwcfa  0x1c, 26, 0
    2719                      .dwcfa  0x09, 40, 26
    2720 0000034b FE02          ADDB      SP,#2
    2721                      .dwcfa  0x1d, -4
    2722              ;* AR4   assigned to _arg
    2723              DW$210  .dwtag  DW_TAG_formal_parameter, DW_AT_name("arg"), DW_AT_symbol_name("_arg")
    2724                      .dwattr DW$210, DW_AT_type(*DW$T$3)
    2725                      .dwattr DW$210, DW_AT_location[DW_OP_reg12]
    2726              DW$211  .dwtag  DW_TAG_variable, DW_AT_name("arg"), DW_AT_symbol_name("_arg")
    2727                      .dwattr DW$211, DW_AT_type(*DW$T$3)
    2728                      .dwattr DW$211, DW_AT_location[DW_OP_breg20 -2]
    2729 0000034c A842          MOVL      *-SP[2],XAR4          ; |37| 
    2730                      .dwpsn  "src\os_mod_maneger.c",38,2
    2731                      .dwpsn  "src\os_mod_maneger.c",39,1
    2732 0000034d FE82          SUBB      SP,#2
    2733                      .dwcfa  0x1d, -2
    2734 0000034e 0006          LRETR
TMS320C2000 COFF Assembler PC v4.1.3 Thu Sep 13 14:28:00 2012

Tools Copyright (c) 1996-2006 Texas Instruments Incorporated
C:\DOCUME~1\ADMINI~1\LOCALS~1\Temp\TI1962                            PAGE   54

    2735                      ; return occurs
    2736                      .dwattr DW$209, DW_AT_end_file("src\os_mod_maneger.c")
    2737                      .dwattr DW$209, DW_AT_end_line(0x27)
    2738                      .dwattr DW$209, DW_AT_end_column(0x01)
    2739                      .dwendentry
    2740                      .dwendtag DW$209
    2741              
    2742 0000034f               .sect   ".text"
    2743                      .global _app_module_stop_hook
    2744              
    2745              DW$212  .dwtag  DW_TAG_subprogram, DW_AT_name("app_module_stop_hook"), DW_AT_symbol_name("_app_module_stop_ho
    2746                      .dwattr DW$212, DW_AT_low_pc(_app_module_stop_hook)
    2747                      .dwattr DW$212, DW_AT_high_pc(0x00)
    2748                      .dwattr DW$212, DW_AT_begin_file("src\os_mod_maneger.c")
    2749                      .dwattr DW$212, DW_AT_begin_line(0x28)
    2750                      .dwattr DW$212, DW_AT_begin_column(0x06)
    2751                      .dwpsn  "src\os_mod_maneger.c",41,1
    2752              
    2753                      .dwfde DW$CIE
    2754              
    2755              ;***************************************************************
    2756              ;* FNAME: _app_module_stop_hook         FR SIZE:   2           *
    2757              ;*                                                             *
    2758              ;* FUNCTION ENVIRONMENT                                        *
    2759              ;*                                                             *
    2760              ;* FUNCTION PROPERTIES                                         *
    2761              ;*                            0 Parameter,  2 Auto,  0 SOE     *
    2762              ;***************************************************************
    2763              
    2764              _app_module_stop_hook:
    2765                      .dwcfa  0x1d, -2
    2766                      .dwcfa  0x1c, 26, 0
    2767                      .dwcfa  0x09, 40, 26
    2768 0000034f FE02          ADDB      SP,#2
    2769                      .dwcfa  0x1d, -4
    2770              ;* AR4   assigned to _arg
    2771              DW$213  .dwtag  DW_TAG_formal_parameter, DW_AT_name("arg"), DW_AT_symbol_name("_arg")
    2772                      .dwattr DW$213, DW_AT_type(*DW$T$3)
    2773                      .dwattr DW$213, DW_AT_location[DW_OP_reg12]
    2774              DW$214  .dwtag  DW_TAG_variable, DW_AT_name("arg"), DW_AT_symbol_name("_arg")
    2775                      .dwattr DW$214, DW_AT_type(*DW$T$3)
    2776                      .dwattr DW$214, DW_AT_location[DW_OP_breg20 -2]
    2777 00000350 A842          MOVL      *-SP[2],XAR4          ; |41| 
    2778                      .dwpsn  "src\os_mod_maneger.c",42,2
    2779                      .dwpsn  "src\os_mod_maneger.c",43,1
    2780 00000351 FE82          SUBB      SP,#2
    2781                      .dwcfa  0x1d, -2
    2782 00000352 0006          LRETR
    2783                      ; return occurs
    2784                      .dwattr DW$212, DW_AT_end_file("src\os_mod_maneger.c")
    2785                      .dwattr DW$212, DW_AT_end_line(0x2b)
    2786                      .dwattr DW$212, DW_AT_end_column(0x01)
    2787                      .dwendentry
    2788                      .dwendtag DW$212
    2789              
TMS320C2000 COFF Assembler PC v4.1.3 Thu Sep 13 14:28:00 2012

Tools Copyright (c) 1996-2006 Texas Instruments Incorporated
C:\DOCUME~1\ADMINI~1\LOCALS~1\Temp\TI1962                            PAGE   55

    2790 00000353               .sect   ".text"
    2791                      .global _app_module_start
    2792              
    2793              DW$215  .dwtag  DW_TAG_subprogram, DW_AT_name("app_module_start"), DW_AT_symbol_name("_app_module_start")
    2794                      .dwattr DW$215, DW_AT_low_pc(_app_module_start)
    2795                      .dwattr DW$215, DW_AT_high_pc(0x00)
    2796                      .dwattr DW$215, DW_AT_begin_file("src\os_mod_maneger.c")
    2797                      .dwattr DW$215, DW_AT_begin_line(0x34)
    2798                      .dwattr DW$215, DW_AT_begin_column(0x06)
    2799                      .dwpsn  "src\os_mod_maneger.c",53,1
    2800              
    2801                      .dwfde DW$CIE
    2802              
    2803              ;***************************************************************
    2804              ;* FNAME: _app_module_start             FR SIZE:   4           *
    2805              ;*                                                             *
    2806              ;* FUNCTION ENVIRONMENT                                        *
    2807              ;*                                                             *
    2808              ;* FUNCTION PROPERTIES                                         *
    2809              ;*                            0 Parameter,  4 Auto,  0 SOE     *
    2810              ;***************************************************************
    2811              
    2812              _app_module_start:
    2813                      .dwcfa  0x1d, -2
    2814                      .dwcfa  0x1c, 26, 0
    2815                      .dwcfa  0x09, 40, 26
    2816 00000353 FE04          ADDB      SP,#4
    2817                      .dwcfa  0x1d, -6
    2818              ;* AL    assigned to _app_mod_id
    2819              DW$216  .dwtag  DW_TAG_formal_parameter, DW_AT_name("app_mod_id"), DW_AT_symbol_name("_app_mod_id")
    2820                      .dwattr DW$216, DW_AT_type(*DW$T$23)
    2821                      .dwattr DW$216, DW_AT_location[DW_OP_reg0]
    2822              DW$217  .dwtag  DW_TAG_variable, DW_AT_name("app_mod_id"), DW_AT_symbol_name("_app_mod_id")
    2823                      .dwattr DW$217, DW_AT_type(*DW$T$23)
    2824                      .dwattr DW$217, DW_AT_location[DW_OP_breg20 -1]
    2825              DW$218  .dwtag  DW_TAG_variable, DW_AT_name("p_temp"), DW_AT_symbol_name("_p_temp")
    2826                      .dwattr DW$218, DW_AT_type(*DW$T$142)
    2827                      .dwattr DW$218, DW_AT_location[DW_OP_breg20 -4]
    2828 00000354 9641          MOV       *-SP[1],AL            ; |53| 
    2829                      .dwpsn  "src\os_mod_maneger.c",54,18
    2830 00000355 28AC          MOV       T,#6                  ; |54| 
         00000356 0006 
    2831 00000357 9CFF          ADDB      AL,#-1
    2832 00000358 8F00-         MOVL      XAR4,#_m_mod_maneger_array+2 ; |54| 
         00000359 0082 
    2833 0000035a 30A9          MPYXU     ACC,T,AL              ; |54| 
    2834 0000035b 5601          ADDL      XAR4,ACC
         0000035c 00A4 
    2835 0000035d A844          MOVL      *-SP[4],XAR4          ; |54| 
    2836                      .dwpsn  "src\os_mod_maneger.c",55,2
    2837 0000035e 8A44          MOVL      XAR4,*-SP[4]          ; |55| 
    2838 0000035f 9241          MOV       AL,*-SP[1]            ; |55| 
    2839 00000360 54C4          CMP       AL,*+XAR4[0]          ; |55| 
    2840 00000361 ED0E          BF        L48,NEQ               ; |55| 
    2841                      ; branchcc occurs ; |55| 
TMS320C2000 COFF Assembler PC v4.1.3 Thu Sep 13 14:28:00 2012

Tools Copyright (c) 1996-2006 Texas Instruments Incorporated
C:\DOCUME~1\ADMINI~1\LOCALS~1\Temp\TI1962                            PAGE   56

    2842                      .dwpsn  "src\os_mod_maneger.c",57,3
    2843 00000362 761F-         MOVW      DP,#_m_cur_mod_id
         00000363 0000 
    2844 00000364 9603-         MOV       @_m_cur_mod_id,AL     ; |57| 
    2845                      .dwpsn  "src\os_mod_maneger.c",58,3
    2846 00000365 8A44          MOVL      XAR4,*-SP[4]          ; |58| 
    2847 00000366 06D4          MOVL      ACC,*+XAR4[2]         ; |58| 
    2848 00000367 EC04          BF        L47,EQ                ; |58| 
    2849                      ; branchcc occurs ; |58| 
    2850                      .dwpsn  "src\os_mod_maneger.c",60,4
    2851 00000368 8A44          MOVL      XAR4,*-SP[4]          ; |60| 
    2852 00000369 C5D4          MOVL      XAR7,*+XAR4[2]        ; |60| 
    2853 0000036a 3E67          LCR       *XAR7                 ; |60| 
    2854                      ; call occurs [XAR7] ; |60| 
    2855              L47:    
    2856                      .dwpsn  "src\os_mod_maneger.c",62,3
    2857 0000036b D400          MOVB      XAR4,#0
    2858 0000036c 7640'         LCR       #_app_module_start_hook ; |62| 
         0000036d 034B 
    2859                      ; call occurs [#_app_module_start_hook] ; |62| 
    2860                      .dwpsn  "src\os_mod_maneger.c",63,2
    2861 0000036e 6F01          B         L48,UNC               ; |63| 
    2862                      ; branch occurs ; |63| 
    2863              L48:    
    2864                      .dwpsn  "src\os_mod_maneger.c",69,1
    2865 0000036f FE84          SUBB      SP,#4
    2866                      .dwcfa  0x1d, -2
    2867 00000370 0006          LRETR
    2868                      ; return occurs
    2869                      .dwattr DW$215, DW_AT_end_file("src\os_mod_maneger.c")
    2870                      .dwattr DW$215, DW_AT_end_line(0x45)
    2871                      .dwattr DW$215, DW_AT_end_column(0x01)
    2872                      .dwendentry
    2873                      .dwendtag DW$215
    2874              
    2875 00000371               .sect   ".text"
    2876                      .global _app_module_exit
    2877              
    2878              DW$219  .dwtag  DW_TAG_subprogram, DW_AT_name("app_module_exit"), DW_AT_symbol_name("_app_module_exit")
    2879                      .dwattr DW$219, DW_AT_low_pc(_app_module_exit)
    2880                      .dwattr DW$219, DW_AT_high_pc(0x00)
    2881                      .dwattr DW$219, DW_AT_begin_file("src\os_mod_maneger.c")
    2882                      .dwattr DW$219, DW_AT_begin_line(0x4e)
    2883                      .dwattr DW$219, DW_AT_begin_column(0x06)
    2884                      .dwpsn  "src\os_mod_maneger.c",79,1
    2885              
    2886                      .dwfde DW$CIE
    2887              
    2888              ;***************************************************************
    2889              ;* FNAME: _app_module_exit              FR SIZE:   4           *
    2890              ;*                                                             *
    2891              ;* FUNCTION ENVIRONMENT                                        *
    2892              ;*                                                             *
    2893              ;* FUNCTION PROPERTIES                                         *
    2894              ;*                            0 Parameter,  4 Auto,  0 SOE     *
TMS320C2000 COFF Assembler PC v4.1.3 Thu Sep 13 14:28:00 2012

Tools Copyright (c) 1996-2006 Texas Instruments Incorporated
C:\DOCUME~1\ADMINI~1\LOCALS~1\Temp\TI1962                            PAGE   57

    2895              ;***************************************************************
    2896              
    2897              _app_module_exit:
    2898                      .dwcfa  0x1d, -2
    2899                      .dwcfa  0x1c, 26, 0
    2900                      .dwcfa  0x09, 40, 26
    2901 00000371 FE04          ADDB      SP,#4
    2902                      .dwcfa  0x1d, -6
    2903              ;* AL    assigned to _app_mod_id
    2904              DW$220  .dwtag  DW_TAG_formal_parameter, DW_AT_name("app_mod_id"), DW_AT_symbol_name("_app_mod_id")
    2905                      .dwattr DW$220, DW_AT_type(*DW$T$23)
    2906                      .dwattr DW$220, DW_AT_location[DW_OP_reg0]
    2907              DW$221  .dwtag  DW_TAG_variable, DW_AT_name("app_mod_id"), DW_AT_symbol_name("_app_mod_id")
    2908                      .dwattr DW$221, DW_AT_type(*DW$T$23)
    2909                      .dwattr DW$221, DW_AT_location[DW_OP_breg20 -1]
    2910              DW$222  .dwtag  DW_TAG_variable, DW_AT_name("p_temp"), DW_AT_symbol_name("_p_temp")
    2911                      .dwattr DW$222, DW_AT_type(*DW$T$142)
    2912                      .dwattr DW$222, DW_AT_location[DW_OP_breg20 -4]
    2913 00000372 9641          MOV       *-SP[1],AL            ; |79| 
    2914                      .dwpsn  "src\os_mod_maneger.c",80,18
    2915 00000373 28AC          MOV       T,#6                  ; |80| 
         00000374 0006 
    2916 00000375 9CFF          ADDB      AL,#-1
    2917 00000376 8F00-         MOVL      XAR4,#_m_mod_maneger_array+2 ; |80| 
         00000377 0082 
    2918 00000378 30A9          MPYXU     ACC,T,AL              ; |80| 
    2919 00000379 5601          ADDL      XAR4,ACC
         0000037a 00A4 
    2920 0000037b A844          MOVL      *-SP[4],XAR4          ; |80| 
    2921                      .dwpsn  "src\os_mod_maneger.c",81,2
    2922 0000037c 8A44          MOVL      XAR4,*-SP[4]          ; |81| 
    2923 0000037d 9241          MOV       AL,*-SP[1]            ; |81| 
    2924 0000037e 54C4          CMP       AL,*+XAR4[0]          ; |81| 
    2925 0000037f ED0B          BF        L50,NEQ               ; |81| 
    2926                      ; branchcc occurs ; |81| 
    2927                      .dwpsn  "src\os_mod_maneger.c",83,3
    2928 00000380 8A44          MOVL      XAR4,*-SP[4]          ; |83| 
    2929 00000381 06E4          MOVL      ACC,*+XAR4[4]         ; |83| 
    2930 00000382 EC04          BF        L49,EQ                ; |83| 
    2931                      ; branchcc occurs ; |83| 
    2932                      .dwpsn  "src\os_mod_maneger.c",85,4
    2933 00000383 8A44          MOVL      XAR4,*-SP[4]          ; |85| 
    2934 00000384 C5E4          MOVL      XAR7,*+XAR4[4]        ; |85| 
    2935 00000385 3E67          LCR       *XAR7                 ; |85| 
    2936                      ; call occurs [XAR7] ; |85| 
    2937              L49:    
    2938                      .dwpsn  "src\os_mod_maneger.c",87,3
    2939 00000386 D400          MOVB      XAR4,#0
    2940 00000387 7640'         LCR       #_app_module_stop_hook ; |87| 
         00000388 034F 
    2941                      ; call occurs [#_app_module_stop_hook] ; |87| 
    2942                      .dwpsn  "src\os_mod_maneger.c",88,2
    2943 00000389 6F01          B         L50,UNC               ; |88| 
    2944                      ; branch occurs ; |88| 
    2945              L50:    
TMS320C2000 COFF Assembler PC v4.1.3 Thu Sep 13 14:28:00 2012

Tools Copyright (c) 1996-2006 Texas Instruments Incorporated
C:\DOCUME~1\ADMINI~1\LOCALS~1\Temp\TI1962                            PAGE   58

    2946                      .dwpsn  "src\os_mod_maneger.c",94,1
    2947 0000038a FE84          SUBB      SP,#4
    2948                      .dwcfa  0x1d, -2
    2949 0000038b 0006          LRETR
    2950                      ; return occurs
    2951                      .dwattr DW$219, DW_AT_end_file("src\os_mod_maneger.c")
    2952                      .dwattr DW$219, DW_AT_end_line(0x5e)
    2953                      .dwattr DW$219, DW_AT_end_column(0x01)
    2954                      .dwendentry
    2955                      .dwendtag DW$219
    2956              
    2957 0000038c               .sect   ".text"
    2958                      .global _app_module_switch
    2959              
    2960              DW$223  .dwtag  DW_TAG_subprogram, DW_AT_name("app_module_switch"), DW_AT_symbol_name("_app_module_switch")
    2961                      .dwattr DW$223, DW_AT_low_pc(_app_module_switch)
    2962                      .dwattr DW$223, DW_AT_high_pc(0x00)
    2963                      .dwattr DW$223, DW_AT_begin_file("src\os_mod_maneger.c")
    2964                      .dwattr DW$223, DW_AT_begin_line(0x67)
    2965                      .dwattr DW$223, DW_AT_begin_column(0x06)
    2966                      .dwpsn  "src\os_mod_maneger.c",104,1
    2967              
    2968                      .dwfde DW$CIE
    2969              
    2970              ;***************************************************************
    2971              ;* FNAME: _app_module_switch            FR SIZE:   4           *
    2972              ;*                                                             *
    2973              ;* FUNCTION ENVIRONMENT                                        *
    2974              ;*                                                             *
    2975              ;* FUNCTION PROPERTIES                                         *
    2976              ;*                            0 Parameter,  4 Auto,  0 SOE     *
    2977              ;***************************************************************
    2978              
    2979              _app_module_switch:
    2980                      .dwcfa  0x1d, -2
    2981                      .dwcfa  0x1c, 26, 0
    2982                      .dwcfa  0x09, 40, 26
    2983 0000038c FE04          ADDB      SP,#4
    2984                      .dwcfa  0x1d, -6
    2985              ;* AL    assigned to _new_mod_id
    2986              DW$224  .dwtag  DW_TAG_formal_parameter, DW_AT_name("new_mod_id"), DW_AT_symbol_name("_new_mod_id")
    2987                      .dwattr DW$224, DW_AT_type(*DW$T$23)
    2988                      .dwattr DW$224, DW_AT_location[DW_OP_reg0]
    2989              ;* AH    assigned to _old_mod_id
    2990              DW$225  .dwtag  DW_TAG_formal_parameter, DW_AT_name("old_mod_id"), DW_AT_symbol_name("_old_mod_id")
    2991                      .dwattr DW$225, DW_AT_type(*DW$T$23)
    2992                      .dwattr DW$225, DW_AT_location[DW_OP_reg1]
    2993              DW$226  .dwtag  DW_TAG_variable, DW_AT_name("new_mod_id"), DW_AT_symbol_name("_new_mod_id")
    2994                      .dwattr DW$226, DW_AT_type(*DW$T$23)
    2995                      .dwattr DW$226, DW_AT_location[DW_OP_breg20 -1]
    2996              DW$227  .dwtag  DW_TAG_variable, DW_AT_name("old_mod_id"), DW_AT_symbol_name("_old_mod_id")
    2997                      .dwattr DW$227, DW_AT_type(*DW$T$23)
    2998                      .dwattr DW$227, DW_AT_location[DW_OP_breg20 -2]
    2999              DW$228  .dwtag  DW_TAG_variable, DW_AT_name("p_temp"), DW_AT_symbol_name("_p_temp")
    3000                      .dwattr DW$228, DW_AT_type(*DW$T$142)
TMS320C2000 COFF Assembler PC v4.1.3 Thu Sep 13 14:28:00 2012

Tools Copyright (c) 1996-2006 Texas Instruments Incorporated
C:\DOCUME~1\ADMINI~1\LOCALS~1\Temp\TI1962                            PAGE   59

    3001                      .dwattr DW$228, DW_AT_location[DW_OP_breg20 -4]
    3002 0000038d 9742          MOV       *-SP[2],AH            ; |104| 
    3003 0000038e 9641          MOV       *-SP[1],AL            ; |104| 
    3004                      .dwpsn  "src\os_mod_maneger.c",105,18
    3005 0000038f 28AC          MOV       T,#6                  ; |105| 
         00000390 0006 
    3006 00000391 9CFF          ADDB      AL,#-1
    3007 00000392 8F00-         MOVL      XAR4,#_m_mod_maneger_array+2 ; |105| 
         00000393 0082 
    3008 00000394 30A9          MPYXU     ACC,T,AL              ; |105| 
    3009 00000395 5601          ADDL      XAR4,ACC
         00000396 00A4 
    3010 00000397 A844          MOVL      *-SP[4],XAR4          ; |105| 
    3011                      .dwpsn  "src\os_mod_maneger.c",106,5
    3012 00000398 9241          MOV       AL,*-SP[1]            ; |106| 
    3013 00000399 EC21          BF        L52,EQ                ; |106| 
    3014                      ; branchcc occurs ; |106| 
    3015 0000039a 9242          MOV       AL,*-SP[2]            ; |106| 
    3016 0000039b ED02          BF        L51,NEQ               ; |106| 
    3017                      ; branchcc occurs ; |106| 
    3018 0000039c 6F1E          B         L52,UNC               ; |106| 
    3019                      ; branch occurs ; |106| 
    3020              L51:    
    3021                      .dwpsn  "src\os_mod_maneger.c",107,2
    3022 0000039d 9241          MOV       AL,*-SP[1]            ; |107| 
    3023 0000039e 8A44          MOVL      XAR4,*-SP[4]          ; |107| 
    3024 0000039f 54C4          CMP       AL,*+XAR4[0]          ; |107| 
    3025 000003a0 ED1A          BF        L52,NEQ               ; |107| 
    3026                      ; branchcc occurs ; |107| 
    3027                      .dwpsn  "src\os_mod_maneger.c",110,3
    3028                      .dwpsn  "src\os_mod_maneger.c",112,2
    3029 000003a1 9242          MOV       AL,*-SP[2]            ; |112| 
    3030 000003a2 28AC          MOV       T,#6                  ; |112| 
         000003a3 0006 
    3031 000003a4 8F00-         MOVL      XAR4,#_m_mod_maneger_array+2 ; |112| 
         000003a5 0082 
    3032 000003a6 9CFF          ADDB      AL,#-1
    3033 000003a7 30A9          MPYXU     ACC,T,AL              ; |112| 
    3034 000003a8 5601          ADDL      XAR4,ACC
         000003a9 00A4 
    3035 000003aa A844          MOVL      *-SP[4],XAR4          ; |112| 
    3036                      .dwpsn  "src\os_mod_maneger.c",113,2
    3037 000003ab 8A44          MOVL      XAR4,*-SP[4]          ; |113| 
    3038 000003ac 9242          MOV       AL,*-SP[2]            ; |113| 
    3039 000003ad 54C4          CMP       AL,*+XAR4[0]          ; |113| 
    3040 000003ae ED0C          BF        L52,NEQ               ; |113| 
    3041                      ; branchcc occurs ; |113| 
    3042                      .dwpsn  "src\os_mod_maneger.c",116,3
    3043                      .dwpsn  "src\os_mod_maneger.c",118,2
    3044 000003af 7640'         LCR       #_app_module_exit     ; |118| 
         000003b0 0371 
    3045                      ; call occurs [#_app_module_exit] ; |118| 
    3046                      .dwpsn  "src\os_mod_maneger.c",119,2
    3047 000003b1 9241          MOV       AL,*-SP[1]            ; |119| 
    3048 000003b2 7640'         LCR       #_app_module_start    ; |119| 
TMS320C2000 COFF Assembler PC v4.1.3 Thu Sep 13 14:28:00 2012

Tools Copyright (c) 1996-2006 Texas Instruments Incorporated
C:\DOCUME~1\ADMINI~1\LOCALS~1\Temp\TI1962                            PAGE   60

         000003b3 0353 
    3049                      ; call occurs [#_app_module_start] ; |119| 
    3050                      .dwpsn  "src\os_mod_maneger.c",120,2
    3051 000003b4 761F-         MOVW      DP,#_m_last_mod_id
         000003b5 0000 
    3052 000003b6 9242          MOV       AL,*-SP[2]            ; |120| 
    3053 000003b7 9601-         MOV       @_m_last_mod_id,AL    ; |120| 
    3054                      .dwpsn  "src\os_mod_maneger.c",121,2
    3055 000003b8 9241          MOV       AL,*-SP[1]            ; |121| 
    3056 000003b9 9603-         MOV       @_m_cur_mod_id,AL     ; |121| 
    3057                      .dwpsn  "src\os_mod_maneger.c",122,2
    3058              L52:    
    3059                      .dwpsn  "src\os_mod_maneger.c",123,1
    3060 000003ba FE84          SUBB      SP,#4
    3061                      .dwcfa  0x1d, -2
    3062 000003bb 0006          LRETR
    3063                      ; return occurs
    3064                      .dwattr DW$223, DW_AT_end_file("src\os_mod_maneger.c")
    3065                      .dwattr DW$223, DW_AT_end_line(0x7b)
    3066                      .dwattr DW$223, DW_AT_end_column(0x01)
    3067                      .dwendentry
    3068                      .dwendtag DW$223
    3069              
    3070 000003bc               .sect   ".text"
    3071                      .global _app_module_add
    3072              
    3073              DW$229  .dwtag  DW_TAG_subprogram, DW_AT_name("app_module_add"), DW_AT_symbol_name("_app_module_add")
    3074                      .dwattr DW$229, DW_AT_low_pc(_app_module_add)
    3075                      .dwattr DW$229, DW_AT_high_pc(0x00)
    3076                      .dwattr DW$229, DW_AT_begin_file("src\os_mod_maneger.c")
    3077                      .dwattr DW$229, DW_AT_begin_line(0x85)
    3078                      .dwattr DW$229, DW_AT_begin_column(0x09)
    3079                      .dwpsn  "src\os_mod_maneger.c",134,1
    3080              
    3081                      .dwfde DW$CIE
    3082              
    3083              ;***************************************************************
    3084              ;* FNAME: _app_module_add               FR SIZE:   8           *
    3085              ;*                                                             *
    3086              ;* FUNCTION ENVIRONMENT                                        *
    3087              ;*                                                             *
    3088              ;* FUNCTION PROPERTIES                                         *
    3089              ;*                            0 Parameter,  7 Auto,  0 SOE     *
    3090              ;***************************************************************
    3091              
    3092              _app_module_add:
    3093                      .dwcfa  0x1d, -2
    3094                      .dwcfa  0x1c, 26, 0
    3095                      .dwcfa  0x09, 40, 26
    3096 000003bc FE08          ADDB      SP,#8
    3097                      .dwcfa  0x1d, -10
    3098              ;* AR4   assigned to _tp_ptr
    3099              DW$230  .dwtag  DW_TAG_formal_parameter, DW_AT_name("tp_ptr"), DW_AT_symbol_name("_tp_ptr")
    3100                      .dwattr DW$230, DW_AT_type(*DW$T$142)
    3101                      .dwattr DW$230, DW_AT_location[DW_OP_reg12]
TMS320C2000 COFF Assembler PC v4.1.3 Thu Sep 13 14:28:00 2012

Tools Copyright (c) 1996-2006 Texas Instruments Incorporated
C:\DOCUME~1\ADMINI~1\LOCALS~1\Temp\TI1962                            PAGE   61

    3102              DW$231  .dwtag  DW_TAG_variable, DW_AT_name("tp_ptr"), DW_AT_symbol_name("_tp_ptr")
    3103                      .dwattr DW$231, DW_AT_type(*DW$T$142)
    3104                      .dwattr DW$231, DW_AT_location[DW_OP_breg20 -2]
    3105              DW$232  .dwtag  DW_TAG_variable, DW_AT_name("index"), DW_AT_symbol_name("_index")
    3106                      .dwattr DW$232, DW_AT_type(*DW$T$23)
    3107                      .dwattr DW$232, DW_AT_location[DW_OP_breg20 -3]
    3108              DW$233  .dwtag  DW_TAG_variable, DW_AT_name("temp"), DW_AT_symbol_name("_temp")
    3109                      .dwattr DW$233, DW_AT_type(*DW$T$142)
    3110                      .dwattr DW$233, DW_AT_location[DW_OP_breg20 -6]
    3111              DW$234  .dwtag  DW_TAG_variable, DW_AT_name("max"), DW_AT_symbol_name("_max")
    3112                      .dwattr DW$234, DW_AT_type(*DW$T$23)
    3113                      .dwattr DW$234, DW_AT_location[DW_OP_breg20 -7]
    3114 000003bd A842          MOVL      *-SP[2],XAR4          ; |134| 
    3115                      .dwpsn  "src\os_mod_maneger.c",138,2
    3116                      .dwpsn  "src\os_mod_maneger.c",139,8
    3117 000003be 2B43          MOV       *-SP[3],#0            ; |139| 
    3118                      .dwpsn  "src\os_mod_maneger.c",139,18
    3119 000003bf 9243          MOV       AL,*-SP[3]            ; |139| 
    3120 000003c0 520F          CMPB      AL,#15                ; |139| 
    3121 000003c1 6728          B         L55,HIS               ; |139| 
    3122                      ; branchcc occurs ; |139| 
    3123              L53:    
    3124              DW$L$_app_module_add$2$B:
    3125                      .dwpsn  "src\os_mod_maneger.c",141,3
    3126 000003c2 28AC          MOV       T,#6                  ; |141| 
         000003c3 0006 
    3127 000003c4 8F00-         MOVL      XAR4,#_m_mod_maneger_array+2 ; |141| 
         000003c5 0082 
    3128 000003c6 3043          MPYXU     ACC,T,*-SP[3]         ; |141| 
    3129 000003c7 5601          ADDL      XAR4,ACC
         000003c8 00A4 
    3130 000003c9 92C4          MOV       AL,*+XAR4[0]          ; |141| 
    3131 000003ca ED1B          BF        L54,NEQ               ; |141| 
    3132                      ; branchcc occurs ; |141| 
    3133              DW$L$_app_module_add$2$E:
    3134                      .dwpsn  "src\os_mod_maneger.c",143,4
    3135 000003cb 761F-         MOVW      DP,#_m_mod_maneger_array
         000003cc 0002 
    3136 000003cd 0A00-         INC       @_m_mod_maneger_array ; |143| 
    3137                      .dwpsn  "src\os_mod_maneger.c",144,4
    3138 000003ce 28AC          MOV       T,#6                  ; |144| 
         000003cf 0006 
    3139 000003d0 8F00-         MOVL      XAR4,#_m_mod_maneger_array+2 ; |144| 
         000003d1 0082 
    3140 000003d2 3043          MPYXU     ACC,T,*-SP[3]         ; |144| 
    3141 000003d3 5601          ADDL      XAR4,ACC
         000003d4 00A4 
    3142 000003d5 A846          MOVL      *-SP[6],XAR4          ; |144| 
    3143                      .dwpsn  "src\os_mod_maneger.c",145,4
    3144 000003d6 8A46          MOVL      XAR4,*-SP[6]          ; |145| 
    3145 000003d7 9243          MOV       AL,*-SP[3]            ; |145| 
    3146 000003d8 9C01          ADDB      AL,#1                 ; |145| 
    3147 000003d9 96C4          MOV       *+XAR4[0],AL          ; |145| 
    3148                      .dwpsn  "src\os_mod_maneger.c",146,4
    3149 000003da 8A42          MOVL      XAR4,*-SP[2]          ; |146| 
TMS320C2000 COFF Assembler PC v4.1.3 Thu Sep 13 14:28:00 2012

Tools Copyright (c) 1996-2006 Texas Instruments Incorporated
C:\DOCUME~1\ADMINI~1\LOCALS~1\Temp\TI1962                            PAGE   62

    3150 000003db 06D4          MOVL      ACC,*+XAR4[2]         ; |146| 
    3151 000003dc 8A46          MOVL      XAR4,*-SP[6]          ; |146| 
    3152 000003dd 1ED4          MOVL      *+XAR4[2],ACC         ; |146| 
    3153                      .dwpsn  "src\os_mod_maneger.c",147,4
    3154 000003de 8A42          MOVL      XAR4,*-SP[2]          ; |147| 
    3155 000003df 06E4          MOVL      ACC,*+XAR4[4]         ; |147| 
    3156 000003e0 8A46          MOVL      XAR4,*-SP[6]          ; |147| 
    3157 000003e1 1EE4          MOVL      *+XAR4[4],ACC         ; |147| 
    3158                      .dwpsn  "src\os_mod_maneger.c",148,4
    3159 000003e2 9243          MOV       AL,*-SP[3]            ; |148| 
    3160 000003e3 9C01          ADDB      AL,#1                 ; |148| 
    3161 000003e4 6F08          B         L56,UNC               ; |148| 
    3162                      ; branch occurs ; |148| 
    3163              L54:    
    3164              DW$L$_app_module_add$4$B:
    3165                      .dwpsn  "src\os_mod_maneger.c",139,38
    3166 000003e5 0A43          INC       *-SP[3]               ; |139| 
    3167                      .dwpsn  "src\os_mod_maneger.c",139,18
    3168 000003e6 9243          MOV       AL,*-SP[3]            ; |139| 
    3169 000003e7 520F          CMPB      AL,#15                ; |139| 
    3170 000003e8 68DA          B         L53,LO                ; |139| 
    3171                      ; branchcc occurs ; |139| 
    3172              DW$L$_app_module_add$4$E:
    3173              L55:    
    3174                      .dwpsn  "src\os_mod_maneger.c",151,2
    3175 000003e9 2847          MOV       *-SP[7],#15           ; |151| 
         000003ea 000F 
    3176                      .dwpsn  "src\os_mod_maneger.c",153,2
    3177 000003eb 9A00          MOVB      AL,#0
    3178              L56:    
    3179                      .dwpsn  "src\os_mod_maneger.c",154,1
    3180 000003ec FE88          SUBB      SP,#8                 ; |153| 
    3181                      .dwcfa  0x1d, -2
    3182 000003ed 0006          LRETR
    3183                      ; return occurs
    3184              
    3185              DW$235  .dwtag  DW_TAG_loop
    3186                      .dwattr DW$235, DW_AT_name("C:\DOCUME~1\ADMINI~1\LOCALS~1\Temp\TI1962:L53:1:1347517680")
    3187                      .dwattr DW$235, DW_AT_begin_file("src\os_mod_maneger.c")
    3188                      .dwattr DW$235, DW_AT_begin_line(0x8b)
    3189                      .dwattr DW$235, DW_AT_end_line(0x96)
    3190              DW$236  .dwtag  DW_TAG_loop_range
    3191                      .dwattr DW$236, DW_AT_low_pc(DW$L$_app_module_add$2$B)
    3192                      .dwattr DW$236, DW_AT_high_pc(DW$L$_app_module_add$2$E)
    3193              DW$237  .dwtag  DW_TAG_loop_range
    3194                      .dwattr DW$237, DW_AT_low_pc(DW$L$_app_module_add$4$B)
    3195                      .dwattr DW$237, DW_AT_high_pc(DW$L$_app_module_add$4$E)
    3196                      .dwendtag DW$235
    3197              
    3198                      .dwattr DW$229, DW_AT_end_file("src\os_mod_maneger.c")
    3199                      .dwattr DW$229, DW_AT_end_line(0x9a)
    3200                      .dwattr DW$229, DW_AT_end_column(0x01)
    3201                      .dwendentry
    3202                      .dwendtag DW$229
    3203              
TMS320C2000 COFF Assembler PC v4.1.3 Thu Sep 13 14:28:00 2012

Tools Copyright (c) 1996-2006 Texas Instruments Incorporated
C:\DOCUME~1\ADMINI~1\LOCALS~1\Temp\TI1962                            PAGE   63

    3204 000003ee               .sect   ".text"
    3205                      .global _app_module_delete
    3206              
    3207              DW$238  .dwtag  DW_TAG_subprogram, DW_AT_name("app_module_delete"), DW_AT_symbol_name("_app_module_delete")
    3208                      .dwattr DW$238, DW_AT_low_pc(_app_module_delete)
    3209                      .dwattr DW$238, DW_AT_high_pc(0x00)
    3210                      .dwattr DW$238, DW_AT_begin_file("src\os_mod_maneger.c")
    3211                      .dwattr DW$238, DW_AT_begin_line(0xa3)
    3212                      .dwattr DW$238, DW_AT_begin_column(0x06)
    3213                      .dwpsn  "src\os_mod_maneger.c",164,1
    3214              
    3215                      .dwfde DW$CIE
    3216              
    3217              ;***************************************************************
    3218              ;* FNAME: _app_module_delete            FR SIZE:   4           *
    3219              ;*                                                             *
    3220              ;* FUNCTION ENVIRONMENT                                        *
    3221              ;*                                                             *
    3222              ;* FUNCTION PROPERTIES                                         *
    3223              ;*                            0 Parameter,  4 Auto,  0 SOE     *
    3224              ;***************************************************************
    3225              
    3226              _app_module_delete:
    3227                      .dwcfa  0x1d, -2
    3228                      .dwcfa  0x1c, 26, 0
    3229                      .dwcfa  0x09, 40, 26
    3230 000003ee FE04          ADDB      SP,#4
    3231                      .dwcfa  0x1d, -6
    3232              ;* AL    assigned to _mod_id
    3233              DW$239  .dwtag  DW_TAG_formal_parameter, DW_AT_name("mod_id"), DW_AT_symbol_name("_mod_id")
    3234                      .dwattr DW$239, DW_AT_type(*DW$T$23)
    3235                      .dwattr DW$239, DW_AT_location[DW_OP_reg0]
    3236              DW$240  .dwtag  DW_TAG_variable, DW_AT_name("mod_id"), DW_AT_symbol_name("_mod_id")
    3237                      .dwattr DW$240, DW_AT_type(*DW$T$23)
    3238                      .dwattr DW$240, DW_AT_location[DW_OP_breg20 -1]
    3239              DW$241  .dwtag  DW_TAG_variable, DW_AT_name("p_temp"), DW_AT_symbol_name("_p_temp")
    3240                      .dwattr DW$241, DW_AT_type(*DW$T$142)
    3241                      .dwattr DW$241, DW_AT_location[DW_OP_breg20 -4]
    3242 000003ef 9641          MOV       *-SP[1],AL            ; |164| 
    3243                      .dwpsn  "src\os_mod_maneger.c",165,18
    3244 000003f0 28AC          MOV       T,#6                  ; |165| 
         000003f1 0006 
    3245 000003f2 9CFF          ADDB      AL,#-1
    3246 000003f3 8F00-         MOVL      XAR4,#_m_mod_maneger_array+2 ; |165| 
         000003f4 0082 
    3247 000003f5 30A9          MPYXU     ACC,T,AL              ; |165| 
    3248 000003f6 5601          ADDL      XAR4,ACC
         000003f7 00A4 
    3249 000003f8 A844          MOVL      *-SP[4],XAR4          ; |165| 
    3250                      .dwpsn  "src\os_mod_maneger.c",166,2
    3251 000003f9 8A44          MOVL      XAR4,*-SP[4]          ; |166| 
    3252 000003fa 9241          MOV       AL,*-SP[1]            ; |166| 
    3253 000003fb 54C4          CMP       AL,*+XAR4[0]          ; |166| 
    3254 000003fc ED06          BF        L57,NEQ               ; |166| 
    3255                      ; branchcc occurs ; |166| 
TMS320C2000 COFF Assembler PC v4.1.3 Thu Sep 13 14:28:00 2012

Tools Copyright (c) 1996-2006 Texas Instruments Incorporated
C:\DOCUME~1\ADMINI~1\LOCALS~1\Temp\TI1962                            PAGE   64

    3256                      .dwpsn  "src\os_mod_maneger.c",168,3
    3257 000003fd 8A44          MOVL      XAR4,*-SP[4]          ; |168| 
    3258 000003fe 0206          MOVB      ACC,#6
    3259 000003ff D500          MOVB      XAR5,#0
    3260 00000400 7640!         LCR       #_memset              ; |168| 
         00000401 0000 
    3261                      ; call occurs [#_memset] ; |168| 
    3262                      .dwpsn  "src\os_mod_maneger.c",172,2
    3263              L57:    
    3264                      .dwpsn  "src\os_mod_maneger.c",173,1
    3265 00000402 FE84          SUBB      SP,#4
    3266                      .dwcfa  0x1d, -2
    3267 00000403 0006          LRETR
    3268                      ; return occurs
    3269                      .dwattr DW$238, DW_AT_end_file("src\os_mod_maneger.c")
    3270                      .dwattr DW$238, DW_AT_end_line(0xad)
    3271                      .dwattr DW$238, DW_AT_end_column(0x01)
    3272                      .dwendentry
    3273                      .dwendtag DW$238
    3274              
    3275 00000404               .sect   ".text"
    3276                      .global _app_module_get_qmsg_box
    3277              
    3278              DW$242  .dwtag  DW_TAG_subprogram, DW_AT_name("app_module_get_qmsg_box"), DW_AT_symbol_name("_app_module_get_
    3279                      .dwattr DW$242, DW_AT_low_pc(_app_module_get_qmsg_box)
    3280                      .dwattr DW$242, DW_AT_high_pc(0x00)
    3281                      .dwattr DW$242, DW_AT_begin_file("src\os_mod_maneger.c")
    3282                      .dwattr DW$242, DW_AT_begin_line(0xb7)
    3283                      .dwattr DW$242, DW_AT_begin_column(0x01)
    3284                      .dwpsn  "src\os_mod_maneger.c",184,1
    3285              
    3286                      .dwfde DW$CIE
    3287              
    3288              ;***************************************************************
    3289              ;* FNAME: _app_module_get_qmsg_box      FR SIZE:   2           *
    3290              ;*                                                             *
    3291              ;* FUNCTION ENVIRONMENT                                        *
    3292              ;*                                                             *
    3293              ;* FUNCTION PROPERTIES                                         *
    3294              ;*                            0 Parameter,  1 Auto,  0 SOE     *
    3295              ;***************************************************************
    3296              
    3297              _app_module_get_qmsg_box:
    3298                      .dwcfa  0x1d, -2
    3299                      .dwcfa  0x1c, 26, 0
    3300                      .dwcfa  0x09, 40, 26
    3301 00000404 FE02          ADDB      SP,#2
    3302                      .dwcfa  0x1d, -4
    3303              DW$243  .dwtag  DW_TAG_variable, DW_AT_name("index"), DW_AT_symbol_name("_index")
    3304                      .dwattr DW$243, DW_AT_type(*DW$T$11)
    3305                      .dwattr DW$243, DW_AT_location[DW_OP_breg20 -1]
    3306                      .dwpsn  "src\os_mod_maneger.c",186,8
    3307 00000405 2B41          MOV       *-SP[1],#0            ; |186| 
    3308                      .dwpsn  "src\os_mod_maneger.c",186,18
    3309 00000406 9241          MOV       AL,*-SP[1]            ; |186| 
TMS320C2000 COFF Assembler PC v4.1.3 Thu Sep 13 14:28:00 2012

Tools Copyright (c) 1996-2006 Texas Instruments Incorporated
C:\DOCUME~1\ADMINI~1\LOCALS~1\Temp\TI1962                            PAGE   65

    3310 00000407 5203          CMPB      AL,#3                 ; |186| 
    3311 00000408 671C          B         L60,HIS               ; |186| 
    3312                      ; branchcc occurs ; |186| 
    3313              L58:    
    3314              DW$L$_app_module_get_qmsg_box$2$B:
    3315                      .dwpsn  "src\os_mod_maneger.c",188,3
    3316 00000409 0E41          MOVU      ACC,*-SP[1]
    3317 0000040a 8F00-         MOVL      XAR4,#_m_mod_hmsg_box ; |188| 
         0000040b 0012 
    3318 0000040c FF31          LSL       ACC,2                 ; |188| 
    3319 0000040d 5601          ADDL      XAR4,ACC
         0000040e 00A4 
    3320 0000040f 92C4          MOV       AL,*+XAR4[0]          ; |188| 
    3321 00000410 ED10          BF        L59,NEQ               ; |188| 
    3322                      ; branchcc occurs ; |188| 
    3323              DW$L$_app_module_get_qmsg_box$2$E:
    3324                      .dwpsn  "src\os_mod_maneger.c",190,4
    3325 00000411 0E41          MOVU      ACC,*-SP[1]
    3326 00000412 8F00-         MOVL      XAR4,#_m_mod_hmsg_box ; |190| 
         00000413 0012 
    3327 00000414 FF31          LSL       ACC,2                 ; |190| 
    3328 00000415 5601          ADDL      XAR4,ACC
         00000416 00A4 
    3329 00000417 28C4          MOV       *+XAR4[0],#1          ; |190| 
         00000418 0001 
    3330                      .dwpsn  "src\os_mod_maneger.c",191,4
    3331 00000419 0E41          MOVU      ACC,*-SP[1]
    3332 0000041a FF31          LSL       ACC,2                 ; |191| 
    3333 0000041b 8F00-         MOVL      XAR4,#_m_mod_hmsg_box ; |191| 
         0000041c 0012 
    3334 0000041d 5601          ADDL      XAR4,ACC
         0000041e 00A4 
    3335 0000041f 6F06          B         L61,UNC               ; |191| 
    3336                      ; branch occurs ; |191| 
    3337              L59:    
    3338              DW$L$_app_module_get_qmsg_box$4$B:
    3339                      .dwpsn  "src\os_mod_maneger.c",186,40
    3340 00000420 0A41          INC       *-SP[1]               ; |186| 
    3341                      .dwpsn  "src\os_mod_maneger.c",186,18
    3342 00000421 9241          MOV       AL,*-SP[1]            ; |186| 
    3343 00000422 5203          CMPB      AL,#3                 ; |186| 
    3344 00000423 68E6          B         L58,LO                ; |186| 
    3345                      ; branchcc occurs ; |186| 
    3346              DW$L$_app_module_get_qmsg_box$4$E:
    3347              L60:    
    3348                      .dwpsn  "src\os_mod_maneger.c",194,2
    3349 00000424 D400          MOVB      XAR4,#0
    3350              L61:    
    3351                      .dwpsn  "src\os_mod_maneger.c",195,1
    3352 00000425 FE82          SUBB      SP,#2                 ; |194| 
    3353                      .dwcfa  0x1d, -2
    3354 00000426 0006          LRETR
    3355                      ; return occurs
    3356              
    3357              DW$244  .dwtag  DW_TAG_loop
TMS320C2000 COFF Assembler PC v4.1.3 Thu Sep 13 14:28:00 2012

Tools Copyright (c) 1996-2006 Texas Instruments Incorporated
C:\DOCUME~1\ADMINI~1\LOCALS~1\Temp\TI1962                            PAGE   66

    3358                      .dwattr DW$244, DW_AT_name("C:\DOCUME~1\ADMINI~1\LOCALS~1\Temp\TI1962:L58:1:1347517680")
    3359                      .dwattr DW$244, DW_AT_begin_file("src\os_mod_maneger.c")
    3360                      .dwattr DW$244, DW_AT_begin_line(0xba)
    3361                      .dwattr DW$244, DW_AT_end_line(0xc1)
    3362              DW$245  .dwtag  DW_TAG_loop_range
    3363                      .dwattr DW$245, DW_AT_low_pc(DW$L$_app_module_get_qmsg_box$2$B)
    3364                      .dwattr DW$245, DW_AT_high_pc(DW$L$_app_module_get_qmsg_box$2$E)
    3365              DW$246  .dwtag  DW_TAG_loop_range
    3366                      .dwattr DW$246, DW_AT_low_pc(DW$L$_app_module_get_qmsg_box$4$B)
    3367                      .dwattr DW$246, DW_AT_high_pc(DW$L$_app_module_get_qmsg_box$4$E)
    3368                      .dwendtag DW$244
    3369              
    3370                      .dwattr DW$242, DW_AT_end_file("src\os_mod_maneger.c")
    3371                      .dwattr DW$242, DW_AT_end_line(0xc3)
    3372                      .dwattr DW$242, DW_AT_end_column(0x01)
    3373                      .dwendentry
    3374                      .dwendtag DW$242
    3375              
    3376 00000427               .sect   ".text"
    3377                      .global _app_module_send_hmsg
    3378              
    3379              DW$247  .dwtag  DW_TAG_subprogram, DW_AT_name("app_module_send_hmsg"), DW_AT_symbol_name("_app_module_send_hm
    3380                      .dwattr DW$247, DW_AT_low_pc(_app_module_send_hmsg)
    3381                      .dwattr DW$247, DW_AT_high_pc(0x00)
    3382                      .dwattr DW$247, DW_AT_begin_file("src\os_mod_maneger.c")
    3383                      .dwattr DW$247, DW_AT_begin_line(0xcc)
    3384                      .dwattr DW$247, DW_AT_begin_column(0x06)
    3385                      .dwpsn  "src\os_mod_maneger.c",207,1
    3386              
    3387                      .dwfde DW$CIE
    3388              
    3389              ;***************************************************************
    3390              ;* FNAME: _app_module_send_hmsg         FR SIZE:   6           *
    3391              ;*                                                             *
    3392              ;* FUNCTION ENVIRONMENT                                        *
    3393              ;*                                                             *
    3394              ;* FUNCTION PROPERTIES                                         *
    3395              ;*                            0 Parameter,  6 Auto,  0 SOE     *
    3396              ;***************************************************************
    3397              
    3398              _app_module_send_hmsg:
    3399                      .dwcfa  0x1d, -2
    3400                      .dwcfa  0x1c, 26, 0
    3401                      .dwcfa  0x09, 40, 26
    3402 00000427 FE06          ADDB      SP,#6
    3403                      .dwcfa  0x1d, -8
    3404              ;* AL    assigned to _msg_type
    3405              DW$248  .dwtag  DW_TAG_formal_parameter, DW_AT_name("msg_type"), DW_AT_symbol_name("_msg_type")
    3406                      .dwattr DW$248, DW_AT_type(*DW$T$23)
    3407                      .dwattr DW$248, DW_AT_location[DW_OP_reg0]
    3408              ;* AH    assigned to _start_mod_id
    3409              DW$249  .dwtag  DW_TAG_formal_parameter, DW_AT_name("start_mod_id"), DW_AT_symbol_name("_start_mod_id")
    3410                      .dwattr DW$249, DW_AT_type(*DW$T$23)
    3411                      .dwattr DW$249, DW_AT_location[DW_OP_reg1]
    3412              ;* AR4   assigned to _stop_mod_id
TMS320C2000 COFF Assembler PC v4.1.3 Thu Sep 13 14:28:00 2012

Tools Copyright (c) 1996-2006 Texas Instruments Incorporated
C:\DOCUME~1\ADMINI~1\LOCALS~1\Temp\TI1962                            PAGE   67

    3413              DW$250  .dwtag  DW_TAG_formal_parameter, DW_AT_name("stop_mod_id"), DW_AT_symbol_name("_stop_mod_id")
    3414                      .dwattr DW$250, DW_AT_type(*DW$T$23)
    3415                      .dwattr DW$250, DW_AT_location[DW_OP_reg12]
    3416              DW$251  .dwtag  DW_TAG_variable, DW_AT_name("msg_type"), DW_AT_symbol_name("_msg_type")
    3417                      .dwattr DW$251, DW_AT_type(*DW$T$23)
    3418                      .dwattr DW$251, DW_AT_location[DW_OP_breg20 -1]
    3419              DW$252  .dwtag  DW_TAG_variable, DW_AT_name("start_mod_id"), DW_AT_symbol_name("_start_mod_id")
    3420                      .dwattr DW$252, DW_AT_type(*DW$T$23)
    3421                      .dwattr DW$252, DW_AT_location[DW_OP_breg20 -2]
    3422              DW$253  .dwtag  DW_TAG_variable, DW_AT_name("stop_mod_id"), DW_AT_symbol_name("_stop_mod_id")
    3423                      .dwattr DW$253, DW_AT_type(*DW$T$23)
    3424                      .dwattr DW$253, DW_AT_location[DW_OP_breg20 -3]
    3425              DW$254  .dwtag  DW_TAG_variable, DW_AT_name("msgptr"), DW_AT_symbol_name("_msgptr")
    3426                      .dwattr DW$254, DW_AT_type(*DW$T$160)
    3427                      .dwattr DW$254, DW_AT_location[DW_OP_breg20 -6]
    3428 00000428 7C43          MOV       *-SP[3],AR4           ; |207| 
    3429 00000429 9742          MOV       *-SP[2],AH            ; |207| 
    3430 0000042a 9641          MOV       *-SP[1],AL            ; |207| 
    3431                      .dwpsn  "src\os_mod_maneger.c",208,23
    3432 0000042b 0200          MOVB      ACC,#0
    3433 0000042c 1E46          MOVL      *-SP[6],ACC           ; |208| 
    3434                      .dwpsn  "src\os_mod_maneger.c",209,10
    3435              L62:    
    3436              DW$L$_app_module_send_hmsg$2$B:
    3437                      .dwpsn  "src\os_mod_maneger.c",211,3
    3438 0000042d 761F-         MOVW      DP,#_m_mod_hmsg_sem
         0000042e 0000 
    3439 0000042f 8A0A-         MOVL      XAR4,@_m_mod_hmsg_sem ; |211| 
    3440 00000430 9A32          MOVB      AL,#50                ; |211| 
    3441 00000431 7640'         LCR       #_os_sem_pend         ; |211| 
         00000432 006B 
    3442                      ; call occurs [#_os_sem_pend] ; |211| 
    3443 00000433 5200          CMPB      AL,#0                 ; |211| 
    3444 00000434 EDF9          BF        L62,NEQ               ; |211| 
    3445                      ; branchcc occurs ; |211| 
    3446              DW$L$_app_module_send_hmsg$2$E:
    3447              DW$L$_app_module_send_hmsg$3$B:
    3448                      .dwpsn  "src\os_mod_maneger.c",214,4
    3449 00000435 7640'         LCR       #_app_module_get_qmsg_box ; |214| 
         00000436 0404 
    3450                      ; call occurs [#_app_module_get_qmsg_box] ; |214| 
    3451 00000437 A846          MOVL      *-SP[6],XAR4          ; |214| 
    3452                      .dwpsn  "src\os_mod_maneger.c",215,4
    3453 00000438 761F-         MOVW      DP,#_m_mod_hmsg_sem
         00000439 0000 
    3454 0000043a 8A0A-         MOVL      XAR4,@_m_mod_hmsg_sem ; |215| 
    3455 0000043b 7640!         LCR       #_OSSemPost           ; |215| 
         0000043c 0000 
    3456                      ; call occurs [#_OSSemPost] ; |215| 
    3457                      .dwpsn  "src\os_mod_maneger.c",216,4
    3458 0000043d 0646          MOVL      ACC,*-SP[6]           ; |216| 
    3459 0000043e EC11          BF        L63,EQ                ; |216| 
    3460                      ; branchcc occurs ; |216| 
    3461              DW$L$_app_module_send_hmsg$3$E:
    3462                      .dwpsn  "src\os_mod_maneger.c",218,5
TMS320C2000 COFF Assembler PC v4.1.3 Thu Sep 13 14:28:00 2012

Tools Copyright (c) 1996-2006 Texas Instruments Incorporated
C:\DOCUME~1\ADMINI~1\LOCALS~1\Temp\TI1962                            PAGE   68

    3463 0000043f 8A46          MOVL      XAR4,*-SP[6]          ; |218| 
    3464 00000440 9241          MOV       AL,*-SP[1]            ; |218| 
    3465 00000441 96CC          MOV       *+XAR4[1],AL          ; |218| 
    3466                      .dwpsn  "src\os_mod_maneger.c",219,5
    3467 00000442 8A46          MOVL      XAR4,*-SP[6]          ; |219| 
    3468 00000443 9242          MOV       AL,*-SP[2]            ; |219| 
    3469 00000444 96D4          MOV       *+XAR4[2],AL          ; |219| 
    3470                      .dwpsn  "src\os_mod_maneger.c",220,5
    3471 00000445 8A46          MOVL      XAR4,*-SP[6]          ; |220| 
    3472 00000446 9243          MOV       AL,*-SP[3]            ; |220| 
    3473 00000447 96DC          MOV       *+XAR4[3],AL          ; |220| 
    3474                      .dwpsn  "src\os_mod_maneger.c",221,5
    3475 00000448 8346          MOVL      XAR5,*-SP[6]          ; |221| 
    3476 00000449 761F-         MOVW      DP,#_m_mod_hmsg_qevent
         0000044a 0000 
    3477 0000044b 8A06-         MOVL      XAR4,@_m_mod_hmsg_qevent ; |221| 
    3478 0000044c 7640!         LCR       #_OSQPost             ; |221| 
         0000044d 0000 
    3479                      ; call occurs [#_OSQPost] ; |221| 
    3480                      .dwpsn  "src\os_mod_maneger.c",222,5
    3481 0000044e 6F05          B         L64,UNC               ; |222| 
    3482                      ; branch occurs ; |222| 
    3483              L63:    
    3484              DW$L$_app_module_send_hmsg$5$B:
    3485                      .dwpsn  "src\os_mod_maneger.c",224,4
    3486 0000044f 9A01          MOVB      AL,#1                 ; |224| 
    3487 00000450 7640!         LCR       #_OSTimeDly           ; |224| 
         00000451 0000 
    3488                      ; call occurs [#_OSTimeDly] ; |224| 
    3489                      .dwpsn  "src\os_mod_maneger.c",209,10
    3490 00000452 6FDB          B         L62,UNC               ; |209| 
    3491                      ; branch occurs ; |209| 
    3492              DW$L$_app_module_send_hmsg$5$E:
    3493              L64:    
    3494                      .dwpsn  "src\os_mod_maneger.c",228,1
    3495 00000453 FE86          SUBB      SP,#6
    3496                      .dwcfa  0x1d, -2
    3497 00000454 0006          LRETR
    3498                      ; return occurs
    3499              
    3500              DW$255  .dwtag  DW_TAG_loop
    3501                      .dwattr DW$255, DW_AT_name("C:\DOCUME~1\ADMINI~1\LOCALS~1\Temp\TI1962:L62:1:1347517680")
    3502                      .dwattr DW$255, DW_AT_begin_file("src\os_mod_maneger.c")
    3503                      .dwattr DW$255, DW_AT_begin_line(0xd1)
    3504                      .dwattr DW$255, DW_AT_end_line(0xe2)
    3505              DW$256  .dwtag  DW_TAG_loop_range
    3506                      .dwattr DW$256, DW_AT_low_pc(DW$L$_app_module_send_hmsg$2$B)
    3507                      .dwattr DW$256, DW_AT_high_pc(DW$L$_app_module_send_hmsg$2$E)
    3508              DW$257  .dwtag  DW_TAG_loop_range
    3509                      .dwattr DW$257, DW_AT_low_pc(DW$L$_app_module_send_hmsg$3$B)
    3510                      .dwattr DW$257, DW_AT_high_pc(DW$L$_app_module_send_hmsg$3$E)
    3511              DW$258  .dwtag  DW_TAG_loop_range
    3512                      .dwattr DW$258, DW_AT_low_pc(DW$L$_app_module_send_hmsg$5$B)
    3513                      .dwattr DW$258, DW_AT_high_pc(DW$L$_app_module_send_hmsg$5$E)
    3514                      .dwendtag DW$255
TMS320C2000 COFF Assembler PC v4.1.3 Thu Sep 13 14:28:00 2012

Tools Copyright (c) 1996-2006 Texas Instruments Incorporated
C:\DOCUME~1\ADMINI~1\LOCALS~1\Temp\TI1962                            PAGE   69

    3515              
    3516                      .dwattr DW$247, DW_AT_end_file("src\os_mod_maneger.c")
    3517                      .dwattr DW$247, DW_AT_end_line(0xe4)
    3518                      .dwattr DW$247, DW_AT_end_column(0x01)
    3519                      .dwendentry
    3520                      .dwendtag DW$247
    3521              
    3522 00000455               .sect   ".text"
    3523                      .global _app_module_switch_last_mod
    3524              
    3525              DW$259  .dwtag  DW_TAG_subprogram, DW_AT_name("app_module_switch_last_mod"), DW_AT_symbol_name("_app_module_s
    3526                      .dwattr DW$259, DW_AT_low_pc(_app_module_switch_last_mod)
    3527                      .dwattr DW$259, DW_AT_high_pc(0x00)
    3528                      .dwattr DW$259, DW_AT_begin_file("src\os_mod_maneger.c")
    3529                      .dwattr DW$259, DW_AT_begin_line(0xed)
    3530                      .dwattr DW$259, DW_AT_begin_column(0x06)
    3531                      .dwpsn  "src\os_mod_maneger.c",238,1
    3532              
    3533                      .dwfde DW$CIE
    3534              
    3535              ;***************************************************************
    3536              ;* FNAME: _app_module_switch_last_mod   FR SIZE:   0           *
    3537              ;*                                                             *
    3538              ;* FUNCTION ENVIRONMENT                                        *
    3539              ;*                                                             *
    3540              ;* FUNCTION PROPERTIES                                         *
    3541              ;*                            0 Parameter,  0 Auto,  0 SOE     *
    3542              ;***************************************************************
    3543              
    3544              _app_module_switch_last_mod:
    3545                      .dwcfa  0x1d, -2
    3546                      .dwcfa  0x1c, 26, 0
    3547                      .dwcfa  0x09, 40, 26
    3548                      .dwpsn  "src\os_mod_maneger.c",239,2
    3549 00000455 761F-         MOVW      DP,#_m_cur_mod_id
         00000456 0000 
    3550 00000457 9203-         MOV       AL,@_m_cur_mod_id     ; |239| 
    3551 00000458 5401-         CMP       AL,@_m_last_mod_id    ; |239| 
    3552 00000459 ED03          BF        L65,NEQ               ; |239| 
    3553                      ; branchcc occurs ; |239| 
    3554                      .dwpsn  "src\os_mod_maneger.c",240,3
    3555 0000045a 2801-         MOV       @_m_last_mod_id,#1    ; |240| 
         0000045b 0001 
    3556              L65:    
    3557                      .dwpsn  "src\os_mod_maneger.c",241,2
    3558 0000045c 9201-         MOV       AL,@_m_last_mod_id    ; |241| 
    3559 0000045d ED03          BF        L66,NEQ               ; |241| 
    3560                      ; branchcc occurs ; |241| 
    3561                      .dwpsn  "src\os_mod_maneger.c",242,3
    3562 0000045e 2801-         MOV       @_m_last_mod_id,#1    ; |242| 
         0000045f 0001 
    3563              L66:    
    3564                      .dwpsn  "src\os_mod_maneger.c",243,2
    3565 00000460 5C03-         MOVZ      AR4,@_m_cur_mod_id    ; |243| 
    3566 00000461 9A02          MOVB      AL,#2                 ; |243| 
TMS320C2000 COFF Assembler PC v4.1.3 Thu Sep 13 14:28:00 2012

Tools Copyright (c) 1996-2006 Texas Instruments Incorporated
C:\DOCUME~1\ADMINI~1\LOCALS~1\Temp\TI1962                            PAGE   70

    3567 00000462 9301-         MOV       AH,@_m_last_mod_id    ; |243| 
    3568 00000463 7640'         LCR       #_app_module_send_hmsg ; |243| 
         00000464 0427 
    3569                      ; call occurs [#_app_module_send_hmsg] ; |243| 
    3570                      .dwpsn  "src\os_mod_maneger.c",246,2
    3571                      .dwpsn  "src\os_mod_maneger.c",247,1
    3572 00000465 0006          LRETR
    3573                      ; return occurs
    3574                      .dwattr DW$259, DW_AT_end_file("src\os_mod_maneger.c")
    3575                      .dwattr DW$259, DW_AT_end_line(0xf7)
    3576                      .dwattr DW$259, DW_AT_end_column(0x01)
    3577                      .dwendentry
    3578                      .dwendtag DW$259
    3579              
    3580 00000466               .sect   ".text"
    3581                      .global _app_module_assign_mod
    3582              
    3583              DW$260  .dwtag  DW_TAG_subprogram, DW_AT_name("app_module_assign_mod"), DW_AT_symbol_name("_app_module_assign
    3584                      .dwattr DW$260, DW_AT_low_pc(_app_module_assign_mod)
    3585                      .dwattr DW$260, DW_AT_high_pc(0x00)
    3586                      .dwattr DW$260, DW_AT_begin_file("src\os_mod_maneger.c")
    3587                      .dwattr DW$260, DW_AT_begin_line(0x100)
    3588                      .dwattr DW$260, DW_AT_begin_column(0x06)
    3589                      .dwpsn  "src\os_mod_maneger.c",257,1
    3590              
    3591                      .dwfde DW$CIE
    3592              
    3593              ;***************************************************************
    3594              ;* FNAME: _app_module_assign_mod        FR SIZE:   2           *
    3595              ;*                                                             *
    3596              ;* FUNCTION ENVIRONMENT                                        *
    3597              ;*                                                             *
    3598              ;* FUNCTION PROPERTIES                                         *
    3599              ;*                            0 Parameter,  1 Auto,  0 SOE     *
    3600              ;***************************************************************
    3601              
    3602              _app_module_assign_mod:
    3603                      .dwcfa  0x1d, -2
    3604                      .dwcfa  0x1c, 26, 0
    3605                      .dwcfa  0x09, 40, 26
    3606 00000466 FE02          ADDB      SP,#2
    3607                      .dwcfa  0x1d, -4
    3608              ;* AL    assigned to _start_mod_id
    3609              DW$261  .dwtag  DW_TAG_formal_parameter, DW_AT_name("start_mod_id"), DW_AT_symbol_name("_start_mod_id")
    3610                      .dwattr DW$261, DW_AT_type(*DW$T$23)
    3611                      .dwattr DW$261, DW_AT_location[DW_OP_reg0]
    3612              DW$262  .dwtag  DW_TAG_variable, DW_AT_name("start_mod_id"), DW_AT_symbol_name("_start_mod_id")
    3613                      .dwattr DW$262, DW_AT_type(*DW$T$23)
    3614                      .dwattr DW$262, DW_AT_location[DW_OP_breg20 -1]
    3615 00000467 9641          MOV       *-SP[1],AL            ; |257| 
    3616                      .dwpsn  "src\os_mod_maneger.c",258,2
    3617 00000468 761F-         MOVW      DP,#_m_cur_mod_id
         00000469 0000 
    3618 0000046a 5C03-         MOVZ      AR4,@_m_cur_mod_id    ; |258| 
    3619 0000046b 9A02          MOVB      AL,#2                 ; |258| 
TMS320C2000 COFF Assembler PC v4.1.3 Thu Sep 13 14:28:00 2012

Tools Copyright (c) 1996-2006 Texas Instruments Incorporated
C:\DOCUME~1\ADMINI~1\LOCALS~1\Temp\TI1962                            PAGE   71

    3620 0000046c 9341          MOV       AH,*-SP[1]            ; |258| 
    3621 0000046d 7640'         LCR       #_app_module_send_hmsg ; |258| 
         0000046e 0427 
    3622                      ; call occurs [#_app_module_send_hmsg] ; |258| 
    3623                      .dwpsn  "src\os_mod_maneger.c",261,2
    3624                      .dwpsn  "src\os_mod_maneger.c",262,1
    3625 0000046f FE82          SUBB      SP,#2
    3626                      .dwcfa  0x1d, -2
    3627 00000470 0006          LRETR
    3628                      ; return occurs
    3629                      .dwattr DW$260, DW_AT_end_file("src\os_mod_maneger.c")
    3630                      .dwattr DW$260, DW_AT_end_line(0x106)
    3631                      .dwattr DW$260, DW_AT_end_column(0x01)
    3632                      .dwendentry
    3633                      .dwendtag DW$260
    3634              
    3635 00000471               .sect   ".text"
    3636                      .global _app_module_maneger_exit
    3637              
    3638              DW$263  .dwtag  DW_TAG_subprogram, DW_AT_name("app_module_maneger_exit"), DW_AT_symbol_name("_app_module_mane
    3639                      .dwattr DW$263, DW_AT_low_pc(_app_module_maneger_exit)
    3640                      .dwattr DW$263, DW_AT_high_pc(0x00)
    3641                      .dwattr DW$263, DW_AT_begin_file("src\os_mod_maneger.c")
    3642                      .dwattr DW$263, DW_AT_begin_line(0x10f)
    3643                      .dwattr DW$263, DW_AT_begin_column(0x06)
    3644                      .dwpsn  "src\os_mod_maneger.c",272,1
    3645              
    3646                      .dwfde DW$CIE
    3647              
    3648              ;***************************************************************
    3649              ;* FNAME: _app_module_maneger_exit      FR SIZE:   2           *
    3650              ;*                                                             *
    3651              ;* FUNCTION ENVIRONMENT                                        *
    3652              ;*                                                             *
    3653              ;* FUNCTION PROPERTIES                                         *
    3654              ;*                            0 Parameter,  1 Auto,  0 SOE     *
    3655              ;***************************************************************
    3656              
    3657              _app_module_maneger_exit:
    3658                      .dwcfa  0x1d, -2
    3659                      .dwcfa  0x1c, 26, 0
    3660                      .dwcfa  0x09, 40, 26
    3661 00000471 FE02          ADDB      SP,#2
    3662                      .dwcfa  0x1d, -4
    3663              ;* AL    assigned to _flag
    3664              DW$264  .dwtag  DW_TAG_formal_parameter, DW_AT_name("flag"), DW_AT_symbol_name("_flag")
    3665                      .dwattr DW$264, DW_AT_type(*DW$T$23)
    3666                      .dwattr DW$264, DW_AT_location[DW_OP_reg0]
    3667              DW$265  .dwtag  DW_TAG_variable, DW_AT_name("flag"), DW_AT_symbol_name("_flag")
    3668                      .dwattr DW$265, DW_AT_type(*DW$T$23)
    3669                      .dwattr DW$265, DW_AT_location[DW_OP_breg20 -1]
    3670 00000472 9641          MOV       *-SP[1],AL            ; |272| 
    3671                      .dwpsn  "src\os_mod_maneger.c",273,2
    3672 00000473 761F-         MOVW      DP,#_m_reboot_flag
         00000474 0000 
TMS320C2000 COFF Assembler PC v4.1.3 Thu Sep 13 14:28:00 2012

Tools Copyright (c) 1996-2006 Texas Instruments Incorporated
C:\DOCUME~1\ADMINI~1\LOCALS~1\Temp\TI1962                            PAGE   72

    3673 00000475 9600-         MOV       @_m_reboot_flag,AL    ; |273| 
    3674                      .dwpsn  "src\os_mod_maneger.c",274,2
    3675 00000476 D400          MOVB      XAR4,#0
    3676 00000477 0203          MOVB      ACC,#3
    3677 00000478 7640'         LCR       #_app_module_send_hmsg ; |274| 
         00000479 0427 
    3678                      ; call occurs [#_app_module_send_hmsg] ; |274| 
    3679                      .dwpsn  "src\os_mod_maneger.c",275,2
    3680                      .dwpsn  "src\os_mod_maneger.c",276,1
    3681 0000047a FE82          SUBB      SP,#2
    3682                      .dwcfa  0x1d, -2
    3683 0000047b 0006          LRETR
    3684                      ; return occurs
    3685                      .dwattr DW$263, DW_AT_end_file("src\os_mod_maneger.c")
    3686                      .dwattr DW$263, DW_AT_end_line(0x114)
    3687                      .dwattr DW$263, DW_AT_end_column(0x01)
    3688                      .dwendentry
    3689                      .dwendtag DW$263
    3690              
    3691 0000047c               .sect   ".text"
    3692                      .global _app_module_state_handle
    3693              
    3694              DW$266  .dwtag  DW_TAG_subprogram, DW_AT_name("app_module_state_handle"), DW_AT_symbol_name("_app_module_stat
    3695                      .dwattr DW$266, DW_AT_low_pc(_app_module_state_handle)
    3696                      .dwattr DW$266, DW_AT_high_pc(0x00)
    3697                      .dwattr DW$266, DW_AT_begin_file("src\os_mod_maneger.c")
    3698                      .dwattr DW$266, DW_AT_begin_line(0x11d)
    3699                      .dwattr DW$266, DW_AT_begin_column(0x06)
    3700                      .dwpsn  "src\os_mod_maneger.c",286,1
    3701              
    3702                      .dwfde DW$CIE
    3703              
    3704              ;***************************************************************
    3705              ;* FNAME: _app_module_state_handle      FR SIZE:   6           *
    3706              ;*                                                             *
    3707              ;* FUNCTION ENVIRONMENT                                        *
    3708              ;*                                                             *
    3709              ;* FUNCTION PROPERTIES                                         *
    3710              ;*                            0 Parameter,  5 Auto,  0 SOE     *
    3711              ;***************************************************************
    3712              
    3713              _app_module_state_handle:
    3714                      .dwcfa  0x1d, -2
    3715                      .dwcfa  0x1c, 26, 0
    3716                      .dwcfa  0x09, 40, 26
    3717 0000047c FE06          ADDB      SP,#6
    3718                      .dwcfa  0x1d, -8
    3719              ;* AR4   assigned to _arg
    3720              DW$267  .dwtag  DW_TAG_formal_parameter, DW_AT_name("arg"), DW_AT_symbol_name("_arg")
    3721                      .dwattr DW$267, DW_AT_type(*DW$T$3)
    3722                      .dwattr DW$267, DW_AT_location[DW_OP_reg12]
    3723              DW$268  .dwtag  DW_TAG_variable, DW_AT_name("arg"), DW_AT_symbol_name("_arg")
    3724                      .dwattr DW$268, DW_AT_type(*DW$T$3)
    3725                      .dwattr DW$268, DW_AT_location[DW_OP_breg20 -2]
    3726              DW$269  .dwtag  DW_TAG_variable, DW_AT_name("msg_ptr"), DW_AT_symbol_name("_msg_ptr")
TMS320C2000 COFF Assembler PC v4.1.3 Thu Sep 13 14:28:00 2012

Tools Copyright (c) 1996-2006 Texas Instruments Incorporated
C:\DOCUME~1\ADMINI~1\LOCALS~1\Temp\TI1962                            PAGE   73

    3727                      .dwattr DW$269, DW_AT_type(*DW$T$160)
    3728                      .dwattr DW$269, DW_AT_location[DW_OP_breg20 -4]
    3729              DW$270  .dwtag  DW_TAG_variable, DW_AT_name("err"), DW_AT_symbol_name("_err")
    3730                      .dwattr DW$270, DW_AT_type(*DW$T$6)
    3731                      .dwattr DW$270, DW_AT_location[DW_OP_breg20 -5]
    3732 0000047d A842          MOVL      *-SP[2],XAR4          ; |286| 
    3733                      .dwpsn  "src\os_mod_maneger.c",289,10
    3734              L67:    
    3735              DW$L$_app_module_state_handle$2$B:
    3736                      .dwpsn  "src\os_mod_maneger.c",291,3
    3737 0000047e 5DAD          MOVZ      AR5,SP                ; |291| 
    3738 0000047f 761F-         MOVW      DP,#_m_mod_hmsg_qevent
         00000480 0000 
    3739 00000481 8A06-         MOVL      XAR4,@_m_mod_hmsg_qevent ; |291| 
    3740 00000482 9A0A          MOVB      AL,#10                ; |291| 
    3741 00000483 DD85          SUBB      XAR5,#5               ; |291| 
    3742 00000484 7640!         LCR       #_OSQPend             ; |291| 
         00000485 0000 
    3743                      ; call occurs [#_OSQPend] ; |291| 
    3744 00000486 A844          MOVL      *-SP[4],XAR4          ; |291| 
    3745                      .dwpsn  "src\os_mod_maneger.c",294,3
    3746 00000487 9245          MOV       AL,*-SP[5]            ; |294| 
    3747 00000488 EDF6          BF        L67,NEQ               ; |294| 
    3748                      ; branchcc occurs ; |294| 
    3749              DW$L$_app_module_state_handle$2$E:
    3750              DW$L$_app_module_state_handle$3$B:
    3751                      .dwpsn  "src\os_mod_maneger.c",296,4
    3752 00000489 8A44          MOVL      XAR4,*-SP[4]          ; |296| 
    3753 0000048a 92CC          MOV       AL,*+XAR4[1]          ; |296| 
    3754 0000048b ED06          BF        L68,NEQ               ; |296| 
    3755                      ; branchcc occurs ; |296| 
    3756              DW$L$_app_module_state_handle$3$E:
    3757              DW$L$_app_module_state_handle$4$B:
    3758                      .dwpsn  "src\os_mod_maneger.c",298,5
    3759 0000048c 8A44          MOVL      XAR4,*-SP[4]          ; |298| 
    3760 0000048d 92D4          MOV       AL,*+XAR4[2]          ; |298| 
    3761 0000048e 7640'         LCR       #_app_module_start    ; |298| 
         0000048f 0353 
    3762                      ; call occurs [#_app_module_start] ; |298| 
    3763                      .dwpsn  "src\os_mod_maneger.c",299,4
    3764 00000490 6F19          B         L71,UNC               ; |299| 
    3765                      ; branch occurs ; |299| 
    3766              DW$L$_app_module_state_handle$4$E:
    3767              L68:    
    3768              DW$L$_app_module_state_handle$5$B:
    3769                      .dwpsn  "src\os_mod_maneger.c",300,9
    3770 00000491 8A44          MOVL      XAR4,*-SP[4]          ; |300| 
    3771 00000492 92CC          MOV       AL,*+XAR4[1]          ; |300| 
    3772 00000493 5201          CMPB      AL,#1                 ; |300| 
    3773 00000494 ED06          BF        L69,NEQ               ; |300| 
    3774                      ; branchcc occurs ; |300| 
    3775              DW$L$_app_module_state_handle$5$E:
    3776              DW$L$_app_module_state_handle$6$B:
    3777                      .dwpsn  "src\os_mod_maneger.c",302,5
    3778 00000495 8A44          MOVL      XAR4,*-SP[4]          ; |302| 
TMS320C2000 COFF Assembler PC v4.1.3 Thu Sep 13 14:28:00 2012

Tools Copyright (c) 1996-2006 Texas Instruments Incorporated
C:\DOCUME~1\ADMINI~1\LOCALS~1\Temp\TI1962                            PAGE   74

    3779 00000496 92DC          MOV       AL,*+XAR4[3]          ; |302| 
    3780 00000497 7640'         LCR       #_app_module_exit     ; |302| 
         00000498 0371 
    3781                      ; call occurs [#_app_module_exit] ; |302| 
    3782                      .dwpsn  "src\os_mod_maneger.c",303,4
    3783 00000499 6F10          B         L71,UNC               ; |303| 
    3784                      ; branch occurs ; |303| 
    3785              DW$L$_app_module_state_handle$6$E:
    3786              L69:    
    3787              DW$L$_app_module_state_handle$7$B:
    3788                      .dwpsn  "src\os_mod_maneger.c",304,9
    3789 0000049a 8A44          MOVL      XAR4,*-SP[4]          ; |304| 
    3790 0000049b 92CC          MOV       AL,*+XAR4[1]          ; |304| 
    3791 0000049c 5202          CMPB      AL,#2                 ; |304| 
    3792 0000049d ED08          BF        L70,NEQ               ; |304| 
    3793                      ; branchcc occurs ; |304| 
    3794              DW$L$_app_module_state_handle$7$E:
    3795              DW$L$_app_module_state_handle$8$B:
    3796                      .dwpsn  "src\os_mod_maneger.c",306,5
    3797 0000049e 8A44          MOVL      XAR4,*-SP[4]          ; |306| 
    3798 0000049f 92D4          MOV       AL,*+XAR4[2]          ; |306| 
    3799 000004a0 8A44          MOVL      XAR4,*-SP[4]          ; |306| 
    3800 000004a1 93DC          MOV       AH,*+XAR4[3]          ; |306| 
    3801 000004a2 7640'         LCR       #_app_module_switch   ; |306| 
         000004a3 038C 
    3802                      ; call occurs [#_app_module_switch] ; |306| 
    3803                      .dwpsn  "src\os_mod_maneger.c",308,4
    3804 000004a4 6F05          B         L71,UNC               ; |308| 
    3805                      ; branch occurs ; |308| 
    3806              DW$L$_app_module_state_handle$8$E:
    3807              L70:    
    3808              DW$L$_app_module_state_handle$9$B:
    3809                      .dwpsn  "src\os_mod_maneger.c",309,9
    3810 000004a5 8A44          MOVL      XAR4,*-SP[4]          ; |309| 
    3811 000004a6 92CC          MOV       AL,*+XAR4[1]          ; |309| 
    3812 000004a7 5203          CMPB      AL,#3                 ; |309| 
    3813 000004a8 EC04          BF        L72,EQ                ; |309| 
    3814                      ; branchcc occurs ; |309| 
    3815              DW$L$_app_module_state_handle$9$E:
    3816              DW$L$_app_module_state_handle$10$B:
    3817                      .dwpsn  "src\os_mod_maneger.c",313,5
    3818              DW$L$_app_module_state_handle$10$E:
    3819              L71:    
    3820              DW$L$_app_module_state_handle$11$B:
    3821                      .dwpsn  "src\os_mod_maneger.c",315,4
    3822 000004a9 8A44          MOVL      XAR4,*-SP[4]          ; |315| 
    3823 000004aa 2BC4          MOV       *+XAR4[0],#0          ; |315| 
    3824                      .dwpsn  "src\os_mod_maneger.c",289,10
    3825 000004ab 6FD3          B         L67,UNC               ; |289| 
    3826                      ; branch occurs ; |289| 
    3827              DW$L$_app_module_state_handle$11$E:
    3828              L72:    
    3829                      .dwpsn  "src\os_mod_maneger.c",318,1
    3830 000004ac FE86          SUBB      SP,#6
    3831                      .dwcfa  0x1d, -2
TMS320C2000 COFF Assembler PC v4.1.3 Thu Sep 13 14:28:00 2012

Tools Copyright (c) 1996-2006 Texas Instruments Incorporated
C:\DOCUME~1\ADMINI~1\LOCALS~1\Temp\TI1962                            PAGE   75

    3832 000004ad 0006          LRETR
    3833                      ; return occurs
    3834              
    3835              DW$271  .dwtag  DW_TAG_loop
    3836                      .dwattr DW$271, DW_AT_name("C:\DOCUME~1\ADMINI~1\LOCALS~1\Temp\TI1962:L67:1:1347517680")
    3837                      .dwattr DW$271, DW_AT_begin_file("src\os_mod_maneger.c")
    3838                      .dwattr DW$271, DW_AT_begin_line(0x121)
    3839                      .dwattr DW$271, DW_AT_end_line(0x13d)
    3840              DW$272  .dwtag  DW_TAG_loop_range
    3841                      .dwattr DW$272, DW_AT_low_pc(DW$L$_app_module_state_handle$2$B)
    3842                      .dwattr DW$272, DW_AT_high_pc(DW$L$_app_module_state_handle$2$E)
    3843              DW$273  .dwtag  DW_TAG_loop_range
    3844                      .dwattr DW$273, DW_AT_low_pc(DW$L$_app_module_state_handle$9$B)
    3845                      .dwattr DW$273, DW_AT_high_pc(DW$L$_app_module_state_handle$9$E)
    3846              DW$274  .dwtag  DW_TAG_loop_range
    3847                      .dwattr DW$274, DW_AT_low_pc(DW$L$_app_module_state_handle$7$B)
    3848                      .dwattr DW$274, DW_AT_high_pc(DW$L$_app_module_state_handle$7$E)
    3849              DW$275  .dwtag  DW_TAG_loop_range
    3850                      .dwattr DW$275, DW_AT_low_pc(DW$L$_app_module_state_handle$5$B)
    3851                      .dwattr DW$275, DW_AT_high_pc(DW$L$_app_module_state_handle$5$E)
    3852              DW$276  .dwtag  DW_TAG_loop_range
    3853                      .dwattr DW$276, DW_AT_low_pc(DW$L$_app_module_state_handle$3$B)
    3854                      .dwattr DW$276, DW_AT_high_pc(DW$L$_app_module_state_handle$3$E)
    3855              DW$277  .dwtag  DW_TAG_loop_range
    3856                      .dwattr DW$277, DW_AT_low_pc(DW$L$_app_module_state_handle$4$B)
    3857                      .dwattr DW$277, DW_AT_high_pc(DW$L$_app_module_state_handle$4$E)
    3858              DW$278  .dwtag  DW_TAG_loop_range
    3859                      .dwattr DW$278, DW_AT_low_pc(DW$L$_app_module_state_handle$6$B)
    3860                      .dwattr DW$278, DW_AT_high_pc(DW$L$_app_module_state_handle$6$E)
    3861              DW$279  .dwtag  DW_TAG_loop_range
    3862                      .dwattr DW$279, DW_AT_low_pc(DW$L$_app_module_state_handle$8$B)
    3863                      .dwattr DW$279, DW_AT_high_pc(DW$L$_app_module_state_handle$8$E)
    3864              DW$280  .dwtag  DW_TAG_loop_range
    3865                      .dwattr DW$280, DW_AT_low_pc(DW$L$_app_module_state_handle$10$B)
    3866                      .dwattr DW$280, DW_AT_high_pc(DW$L$_app_module_state_handle$10$E)
    3867              DW$281  .dwtag  DW_TAG_loop_range
    3868                      .dwattr DW$281, DW_AT_low_pc(DW$L$_app_module_state_handle$11$B)
    3869                      .dwattr DW$281, DW_AT_high_pc(DW$L$_app_module_state_handle$11$E)
    3870                      .dwendtag DW$271
    3871              
    3872                      .dwattr DW$266, DW_AT_end_file("src\os_mod_maneger.c")
    3873                      .dwattr DW$266, DW_AT_end_line(0x13e)
    3874                      .dwattr DW$266, DW_AT_end_column(0x01)
    3875                      .dwendentry
    3876                      .dwendtag DW$266
    3877              
    3878 000004ae               .sect   ".text"
    3879                      .global _app_module_pos_name_set
    3880              
    3881              DW$282  .dwtag  DW_TAG_subprogram, DW_AT_name("app_module_pos_name_set"), DW_AT_symbol_name("_app_module_pos_
    3882                      .dwattr DW$282, DW_AT_low_pc(_app_module_pos_name_set)
    3883                      .dwattr DW$282, DW_AT_high_pc(0x00)
    3884                      .dwattr DW$282, DW_AT_begin_file("src\os_mod_maneger.c")
    3885                      .dwattr DW$282, DW_AT_begin_line(0x147)
    3886                      .dwattr DW$282, DW_AT_begin_column(0x06)
TMS320C2000 COFF Assembler PC v4.1.3 Thu Sep 13 14:28:00 2012

Tools Copyright (c) 1996-2006 Texas Instruments Incorporated
C:\DOCUME~1\ADMINI~1\LOCALS~1\Temp\TI1962                            PAGE   76

    3887                      .dwpsn  "src\os_mod_maneger.c",328,1
    3888              
    3889                      .dwfde DW$CIE
    3890              
    3891              ;***************************************************************
    3892              ;* FNAME: _app_module_pos_name_set      FR SIZE:   2           *
    3893              ;*                                                             *
    3894              ;* FUNCTION ENVIRONMENT                                        *
    3895              ;*                                                             *
    3896              ;* FUNCTION PROPERTIES                                         *
    3897              ;*                            0 Parameter,  2 Auto,  0 SOE     *
    3898              ;***************************************************************
    3899              
    3900              _app_module_pos_name_set:
    3901                      .dwcfa  0x1d, -2
    3902                      .dwcfa  0x1c, 26, 0
    3903                      .dwcfa  0x09, 40, 26
    3904 000004ae FE02          ADDB      SP,#2
    3905                      .dwcfa  0x1d, -4
    3906              ;* AR4   assigned to _name
    3907              DW$283  .dwtag  DW_TAG_formal_parameter, DW_AT_name("name"), DW_AT_symbol_name("_name")
    3908                      .dwattr DW$283, DW_AT_type(*DW$T$88)
    3909                      .dwattr DW$283, DW_AT_location[DW_OP_reg12]
    3910              DW$284  .dwtag  DW_TAG_variable, DW_AT_name("name"), DW_AT_symbol_name("_name")
    3911                      .dwattr DW$284, DW_AT_type(*DW$T$88)
    3912                      .dwattr DW$284, DW_AT_location[DW_OP_breg20 -2]
    3913 000004af A842          MOVL      *-SP[2],XAR4          ; |328| 
    3914                      .dwpsn  "src\os_mod_maneger.c",329,2
    3915 000004b0 8A42          MOVL      XAR4,*-SP[2]          ; |329| 
    3916 000004b1 7640'         LCR       #_os_strlen           ; |329| 
         000004b2 053C 
    3917                      ; call occurs [#_os_strlen] ; |329| 
    3918 000004b3 5213          CMPB      AL,#19                ; |329| 
    3919 000004b4 670C          B         L73,HIS               ; |329| 
    3920                      ; branchcc occurs ; |329| 
    3921                      .dwpsn  "src\os_mod_maneger.c",331,3
    3922 000004b5 9A00          MOVB      AL,#0
    3923 000004b6 8F00-         MOVL      XAR4,#_m_mod_pos_name ; |331| 
         000004b7 001E 
    3924 000004b8 9B14          MOVB      AH,#20                ; |331| 
    3925 000004b9 7640'         LCR       #_os_memset           ; |331| 
         000004ba 050A 
    3926                      ; call occurs [#_os_memset] ; |331| 
    3927                      .dwpsn  "src\os_mod_maneger.c",332,3
    3928 000004bb 8342          MOVL      XAR5,*-SP[2]          ; |332| 
    3929 000004bc 8F00-         MOVL      XAR4,#_m_mod_pos_name ; |332| 
         000004bd 001E 
    3930 000004be 7640'         LCR       #_os_strcpy           ; |332| 
         000004bf 0560 
    3931                      ; call occurs [#_os_strcpy] ; |332| 
    3932                      .dwpsn  "src\os_mod_maneger.c",334,2
    3933              L73:    
    3934                      .dwpsn  "src\os_mod_maneger.c",335,1
    3935 000004c0 FE82          SUBB      SP,#2
    3936                      .dwcfa  0x1d, -2
TMS320C2000 COFF Assembler PC v4.1.3 Thu Sep 13 14:28:00 2012

Tools Copyright (c) 1996-2006 Texas Instruments Incorporated
C:\DOCUME~1\ADMINI~1\LOCALS~1\Temp\TI1962                            PAGE   77

    3937 000004c1 0006          LRETR
    3938                      ; return occurs
    3939                      .dwattr DW$282, DW_AT_end_file("src\os_mod_maneger.c")
    3940                      .dwattr DW$282, DW_AT_end_line(0x14f)
    3941                      .dwattr DW$282, DW_AT_end_column(0x01)
    3942                      .dwendentry
    3943                      .dwendtag DW$282
    3944              
    3945 000004c2               .sect   ".text"
    3946                      .global _app_module_pos_name_obtain
    3947              
    3948              DW$285  .dwtag  DW_TAG_subprogram, DW_AT_name("app_module_pos_name_obtain"), DW_AT_symbol_name("_app_module_p
    3949                      .dwattr DW$285, DW_AT_low_pc(_app_module_pos_name_obtain)
    3950                      .dwattr DW$285, DW_AT_high_pc(0x00)
    3951                      .dwattr DW$285, DW_AT_begin_file("src\os_mod_maneger.c")
    3952                      .dwattr DW$285, DW_AT_begin_line(0x158)
    3953                      .dwattr DW$285, DW_AT_begin_column(0x09)
    3954                      .dwpsn  "src\os_mod_maneger.c",345,1
    3955              
    3956                      .dwfde DW$CIE
    3957              
    3958              ;***************************************************************
    3959              ;* FNAME: _app_module_pos_name_obtain   FR SIZE:   2           *
    3960              ;*                                                             *
    3961              ;* FUNCTION ENVIRONMENT                                        *
    3962              ;*                                                             *
    3963              ;* FUNCTION PROPERTIES                                         *
    3964              ;*                            0 Parameter,  2 Auto,  0 SOE     *
    3965              ;***************************************************************
    3966              
    3967              _app_module_pos_name_obtain:
    3968                      .dwcfa  0x1d, -2
    3969                      .dwcfa  0x1c, 26, 0
    3970                      .dwcfa  0x09, 40, 26
    3971 000004c2 FE02          ADDB      SP,#2
    3972                      .dwcfa  0x1d, -4
    3973              ;* AR4   assigned to _name
    3974              DW$286  .dwtag  DW_TAG_formal_parameter, DW_AT_name("name"), DW_AT_symbol_name("_name")
    3975                      .dwattr DW$286, DW_AT_type(*DW$T$88)
    3976                      .dwattr DW$286, DW_AT_location[DW_OP_reg12]
    3977              DW$287  .dwtag  DW_TAG_variable, DW_AT_name("name"), DW_AT_symbol_name("_name")
    3978                      .dwattr DW$287, DW_AT_type(*DW$T$88)
    3979                      .dwattr DW$287, DW_AT_location[DW_OP_breg20 -2]
    3980 000004c3 A842          MOVL      *-SP[2],XAR4          ; |345| 
    3981                      .dwpsn  "src\os_mod_maneger.c",346,2
    3982 000004c4 8A42          MOVL      XAR4,*-SP[2]          ; |346| 
    3983 000004c5 8F40-         MOVL      XAR5,#_m_mod_pos_name ; |346| 
         000004c6 001E 
    3984 000004c7 7640'         LCR       #_os_strcpy           ; |346| 
         000004c8 0560 
    3985                      ; call occurs [#_os_strcpy] ; |346| 
    3986                      .dwpsn  "src\os_mod_maneger.c",347,2
    3987 000004c9 8A42          MOVL      XAR4,*-SP[2]          ; |347| 
    3988 000004ca 7640'         LCR       #_os_strlen           ; |347| 
         000004cb 053C 
TMS320C2000 COFF Assembler PC v4.1.3 Thu Sep 13 14:28:00 2012

Tools Copyright (c) 1996-2006 Texas Instruments Incorporated
C:\DOCUME~1\ADMINI~1\LOCALS~1\Temp\TI1962                            PAGE   78

    3989                      ; call occurs [#_os_strlen] ; |347| 
    3990                      .dwpsn  "src\os_mod_maneger.c",348,1
    3991 000004cc FE82          SUBB      SP,#2                 ; |347| 
    3992                      .dwcfa  0x1d, -2
    3993 000004cd 0006          LRETR
    3994                      ; return occurs
    3995                      .dwattr DW$285, DW_AT_end_file("src\os_mod_maneger.c")
    3996                      .dwattr DW$285, DW_AT_end_line(0x15c)
    3997                      .dwattr DW$285, DW_AT_end_column(0x01)
    3998                      .dwendentry
    3999                      .dwendtag DW$285
    4000              
    4001 000004ce               .sect   ".text"
    4002                      .global _app_module_maneger_init
    4003              
    4004              DW$288  .dwtag  DW_TAG_subprogram, DW_AT_name("app_module_maneger_init"), DW_AT_symbol_name("_app_module_mane
    4005                      .dwattr DW$288, DW_AT_low_pc(_app_module_maneger_init)
    4006                      .dwattr DW$288, DW_AT_high_pc(0x00)
    4007                      .dwattr DW$288, DW_AT_begin_file("src\os_mod_maneger.c")
    4008                      .dwattr DW$288, DW_AT_begin_line(0x165)
    4009                      .dwattr DW$288, DW_AT_begin_column(0x06)
    4010                      .dwpsn  "src\os_mod_maneger.c",358,1
    4011              
    4012                      .dwfde DW$CIE
    4013              
    4014              ;***************************************************************
    4015              ;* FNAME: _app_module_maneger_init      FR SIZE:   0           *
    4016              ;*                                                             *
    4017              ;* FUNCTION ENVIRONMENT                                        *
    4018              ;*                                                             *
    4019              ;* FUNCTION PROPERTIES                                         *
    4020              ;*                            0 Parameter,  0 Auto,  0 SOE     *
    4021              ;***************************************************************
    4022              
    4023              _app_module_maneger_init:
    4024                      .dwcfa  0x1d, -2
    4025                      .dwcfa  0x1c, 26, 0
    4026                      .dwcfa  0x09, 40, 26
    4027                      .dwpsn  "src\os_mod_maneger.c",359,2
    4028 000004ce 025C          MOVB      ACC,#92
    4029 000004cf D500          MOVB      XAR5,#0
    4030 000004d0 8F00-         MOVL      XAR4,#_m_mod_maneger_array ; |359| 
         000004d1 0080 
    4031 000004d2 7640!         LCR       #_memset              ; |359| 
         000004d3 0000 
    4032                      ; call occurs [#_memset] ; |359| 
    4033                      .dwpsn  "src\os_mod_maneger.c",363,2
    4034 000004d4 D500          MOVB      XAR5,#0
    4035 000004d5 8F00-         MOVL      XAR4,#_m_mod_hmsg_box ; |363| 
         000004d6 0012 
    4036 000004d7 020C          MOVB      ACC,#12
    4037 000004d8 7640!         LCR       #_memset              ; |363| 
         000004d9 0000 
    4038                      ; call occurs [#_memset] ; |363| 
    4039                      .dwpsn  "src\os_mod_maneger.c",367,2
TMS320C2000 COFF Assembler PC v4.1.3 Thu Sep 13 14:28:00 2012

Tools Copyright (c) 1996-2006 Texas Instruments Incorporated
C:\DOCUME~1\ADMINI~1\LOCALS~1\Temp\TI1962                            PAGE   79

    4040 000004da 9A03          MOVB      AL,#3                 ; |367| 
    4041 000004db 8F00-         MOVL      XAR4,#_m_mod_hmsg_qevent ; |367| 
         000004dc 0006 
    4042 000004dd 8F40-         MOVL      XAR5,#_m_mod_hqmsg_buf ; |367| 
         000004de 000C 
    4043 000004df 7640'         LCR       #_os_q_creat          ; |367| 
         000004e0 0077 
    4044                      ; call occurs [#_os_q_creat] ; |367| 
    4045                      .dwpsn  "src\os_mod_maneger.c",371,2
    4046 000004e1 9A01          MOVB      AL,#1                 ; |371| 
    4047 000004e2 8F00-         MOVL      XAR4,#_m_mod_hmsg_sem ; |371| 
         000004e3 000A 
    4048 000004e4 7640'         LCR       #_os_sem_creat        ; |371| 
         000004e5 0034 
    4049                      ; call occurs [#_os_sem_creat] ; |371| 
    4050                      .dwpsn  "src\os_mod_maneger.c",372,2
    4051                      .dwpsn  "src\os_mod_maneger.c",373,1
    4052 000004e6 0006          LRETR
    4053                      ; return occurs
    4054                      .dwattr DW$288, DW_AT_end_file("src\os_mod_maneger.c")
    4055                      .dwattr DW$288, DW_AT_end_line(0x175)
    4056                      .dwattr DW$288, DW_AT_end_column(0x01)
    4057                      .dwendentry
    4058                      .dwendtag DW$288
    4059              
    4060 000004e7               .sect   ".text"
    4061                      .global _app_module_get_cur_id
    4062              
    4063              DW$289  .dwtag  DW_TAG_subprogram, DW_AT_name("app_module_get_cur_id"), DW_AT_symbol_name("_app_module_get_cu
    4064                      .dwattr DW$289, DW_AT_low_pc(_app_module_get_cur_id)
    4065                      .dwattr DW$289, DW_AT_high_pc(0x00)
    4066                      .dwattr DW$289, DW_AT_begin_file("src\os_mod_maneger.c")
    4067                      .dwattr DW$289, DW_AT_begin_line(0x17e)
    4068                      .dwattr DW$289, DW_AT_begin_column(0x09)
    4069                      .dwpsn  "src\os_mod_maneger.c",383,1
    4070              
    4071                      .dwfde DW$CIE
    4072              
    4073              ;***************************************************************
    4074              ;* FNAME: _app_module_get_cur_id        FR SIZE:   0           *
    4075              ;*                                                             *
    4076              ;* FUNCTION ENVIRONMENT                                        *
    4077              ;*                                                             *
    4078              ;* FUNCTION PROPERTIES                                         *
    4079              ;*                            0 Parameter,  0 Auto,  0 SOE     *
    4080              ;***************************************************************
    4081              
    4082              _app_module_get_cur_id:
    4083                      .dwcfa  0x1d, -2
    4084                      .dwcfa  0x1c, 26, 0
    4085                      .dwcfa  0x09, 40, 26
    4086                      .dwpsn  "src\os_mod_maneger.c",384,2
    4087 000004e7 761F-         MOVW      DP,#_m_cur_mod_id
         000004e8 0000 
    4088 000004e9 9203-         MOV       AL,@_m_cur_mod_id     ; |384| 
TMS320C2000 COFF Assembler PC v4.1.3 Thu Sep 13 14:28:00 2012

Tools Copyright (c) 1996-2006 Texas Instruments Incorporated
C:\DOCUME~1\ADMINI~1\LOCALS~1\Temp\TI1962                            PAGE   80

    4089                      .dwpsn  "src\os_mod_maneger.c",385,1
    4090 000004ea 0006          LRETR
    4091                      ; return occurs
    4092                      .dwattr DW$289, DW_AT_end_file("src\os_mod_maneger.c")
    4093                      .dwattr DW$289, DW_AT_end_line(0x181)
    4094                      .dwattr DW$289, DW_AT_end_column(0x01)
    4095                      .dwendentry
    4096                      .dwendtag DW$289
    4097              
    4098 000004eb               .sect   ".text"
    4099                      .global _app_module_get_last_id
    4100              
    4101              DW$290  .dwtag  DW_TAG_subprogram, DW_AT_name("app_module_get_last_id"), DW_AT_symbol_name("_app_module_get_l
    4102                      .dwattr DW$290, DW_AT_low_pc(_app_module_get_last_id)
    4103                      .dwattr DW$290, DW_AT_high_pc(0x00)
    4104                      .dwattr DW$290, DW_AT_begin_file("src\os_mod_maneger.c")
    4105                      .dwattr DW$290, DW_AT_begin_line(0x18a)
    4106                      .dwattr DW$290, DW_AT_begin_column(0x09)
    4107                      .dwpsn  "src\os_mod_maneger.c",395,1
    4108              
    4109                      .dwfde DW$CIE
    4110              
    4111              ;***************************************************************
    4112              ;* FNAME: _app_module_get_last_id       FR SIZE:   0           *
    4113              ;*                                                             *
    4114              ;* FUNCTION ENVIRONMENT                                        *
    4115              ;*                                                             *
    4116              ;* FUNCTION PROPERTIES                                         *
    4117              ;*                            0 Parameter,  0 Auto,  0 SOE     *
    4118              ;***************************************************************
    4119              
    4120              _app_module_get_last_id:
    4121                      .dwcfa  0x1d, -2
    4122                      .dwcfa  0x1c, 26, 0
    4123                      .dwcfa  0x09, 40, 26
    4124                      .dwpsn  "src\os_mod_maneger.c",396,2
    4125 000004eb 761F-         MOVW      DP,#_m_last_mod_id
         000004ec 0000 
    4126 000004ed 9201-         MOV       AL,@_m_last_mod_id    ; |396| 
    4127                      .dwpsn  "src\os_mod_maneger.c",397,1
    4128 000004ee 0006          LRETR
    4129                      ; return occurs
    4130                      .dwattr DW$290, DW_AT_end_file("src\os_mod_maneger.c")
    4131                      .dwattr DW$290, DW_AT_end_line(0x18d)
    4132                      .dwattr DW$290, DW_AT_end_column(0x01)
    4133                      .dwendentry
    4134                      .dwendtag DW$290
    4135              
    4136 000004ef               .sect   ".text"
    4137                      .global _app_module_get_reboot_flag
    4138              
    4139              DW$291  .dwtag  DW_TAG_subprogram, DW_AT_name("app_module_get_reboot_flag"), DW_AT_symbol_name("_app_module_g
    4140                      .dwattr DW$291, DW_AT_low_pc(_app_module_get_reboot_flag)
    4141                      .dwattr DW$291, DW_AT_high_pc(0x00)
    4142                      .dwattr DW$291, DW_AT_begin_file("src\os_mod_maneger.c")
TMS320C2000 COFF Assembler PC v4.1.3 Thu Sep 13 14:28:00 2012

Tools Copyright (c) 1996-2006 Texas Instruments Incorporated
C:\DOCUME~1\ADMINI~1\LOCALS~1\Temp\TI1962                            PAGE   81

    4143                      .dwattr DW$291, DW_AT_begin_line(0x196)
    4144                      .dwattr DW$291, DW_AT_begin_column(0x09)
    4145                      .dwpsn  "src\os_mod_maneger.c",407,1
    4146              
    4147                      .dwfde DW$CIE
    4148              
    4149              ;***************************************************************
    4150              ;* FNAME: _app_module_get_reboot_flag   FR SIZE:   0           *
    4151              ;*                                                             *
    4152              ;* FUNCTION ENVIRONMENT                                        *
    4153              ;*                                                             *
    4154              ;* FUNCTION PROPERTIES                                         *
    4155              ;*                            0 Parameter,  0 Auto,  0 SOE     *
    4156              ;***************************************************************
    4157              
    4158              _app_module_get_reboot_flag:
    4159                      .dwcfa  0x1d, -2
    4160                      .dwcfa  0x1c, 26, 0
    4161                      .dwcfa  0x09, 40, 26
    4162                      .dwpsn  "src\os_mod_maneger.c",408,2
    4163 000004ef 761F-         MOVW      DP,#_m_reboot_flag
         000004f0 0000 
    4164 000004f1 9200-         MOV       AL,@_m_reboot_flag    ; |408| 
    4165                      .dwpsn  "src\os_mod_maneger.c",409,1
    4166 000004f2 0006          LRETR
    4167                      ; return occurs
    4168                      .dwattr DW$291, DW_AT_end_file("src\os_mod_maneger.c")
    4169                      .dwattr DW$291, DW_AT_end_line(0x199)
    4170                      .dwattr DW$291, DW_AT_end_column(0x01)
    4171                      .dwendentry
    4172                      .dwendtag DW$291
    4173              
    4174 000004f3               .sect   ".text"
    4175                      .global _os_memcpy
    4176              
    4177              DW$292  .dwtag  DW_TAG_subprogram, DW_AT_name("os_memcpy"), DW_AT_symbol_name("_os_memcpy")
    4178                      .dwattr DW$292, DW_AT_low_pc(_os_memcpy)
    4179                      .dwattr DW$292, DW_AT_high_pc(0x00)
    4180                      .dwattr DW$292, DW_AT_begin_file("src\os_connect_str.c")
    4181                      .dwattr DW$292, DW_AT_begin_line(0x0b)
    4182                      .dwattr DW$292, DW_AT_begin_column(0x06)
    4183                      .dwpsn  "src\os_connect_str.c",12,1
    4184              
    4185                      .dwfde DW$CIE
    4186              
    4187              ;***************************************************************
    4188              ;* FNAME: _os_memcpy                    FR SIZE:  10           *
    4189              ;*                                                             *
    4190              ;* FUNCTION ENVIRONMENT                                        *
    4191              ;*                                                             *
    4192              ;* FUNCTION PROPERTIES                                         *
    4193              ;*                            0 Parameter, 10 Auto,  0 SOE     *
    4194              ;***************************************************************
    4195              
    4196              _os_memcpy:
TMS320C2000 COFF Assembler PC v4.1.3 Thu Sep 13 14:28:00 2012

Tools Copyright (c) 1996-2006 Texas Instruments Incorporated
C:\DOCUME~1\ADMINI~1\LOCALS~1\Temp\TI1962                            PAGE   82

    4197                      .dwcfa  0x1d, -2
    4198                      .dwcfa  0x1c, 26, 0
    4199                      .dwcfa  0x09, 40, 26
    4200 000004f3 FE0A          ADDB      SP,#10
    4201                      .dwcfa  0x1d, -12
    4202              ;* AR4   assigned to _pur_add
    4203              DW$293  .dwtag  DW_TAG_formal_parameter, DW_AT_name("pur_add"), DW_AT_symbol_name("_pur_add")
    4204                      .dwattr DW$293, DW_AT_type(*DW$T$3)
    4205                      .dwattr DW$293, DW_AT_location[DW_OP_reg12]
    4206              ;* AR5   assigned to _src_ptr
    4207              DW$294  .dwtag  DW_TAG_formal_parameter, DW_AT_name("src_ptr"), DW_AT_symbol_name("_src_ptr")
    4208                      .dwattr DW$294, DW_AT_type(*DW$T$3)
    4209                      .dwattr DW$294, DW_AT_location[DW_OP_reg14]
    4210              ;* AL    assigned to _lenth
    4211              DW$295  .dwtag  DW_TAG_formal_parameter, DW_AT_name("lenth"), DW_AT_symbol_name("_lenth")
    4212                      .dwattr DW$295, DW_AT_type(*DW$T$23)
    4213                      .dwattr DW$295, DW_AT_location[DW_OP_reg0]
    4214              DW$296  .dwtag  DW_TAG_variable, DW_AT_name("pur_add"), DW_AT_symbol_name("_pur_add")
    4215                      .dwattr DW$296, DW_AT_type(*DW$T$3)
    4216                      .dwattr DW$296, DW_AT_location[DW_OP_breg20 -2]
    4217              DW$297  .dwtag  DW_TAG_variable, DW_AT_name("src_ptr"), DW_AT_symbol_name("_src_ptr")
    4218                      .dwattr DW$297, DW_AT_type(*DW$T$3)
    4219                      .dwattr DW$297, DW_AT_location[DW_OP_breg20 -4]
    4220              DW$298  .dwtag  DW_TAG_variable, DW_AT_name("lenth"), DW_AT_symbol_name("_lenth")
    4221                      .dwattr DW$298, DW_AT_type(*DW$T$23)
    4222                      .dwattr DW$298, DW_AT_location[DW_OP_breg20 -5]
    4223              DW$299  .dwtag  DW_TAG_variable, DW_AT_name("index"), DW_AT_symbol_name("_index")
    4224                      .dwattr DW$299, DW_AT_type(*DW$T$6)
    4225                      .dwattr DW$299, DW_AT_location[DW_OP_breg20 -6]
    4226              DW$300  .dwtag  DW_TAG_variable, DW_AT_name("p_pur"), DW_AT_symbol_name("_p_pur")
    4227                      .dwattr DW$300, DW_AT_type(*DW$T$88)
    4228                      .dwattr DW$300, DW_AT_location[DW_OP_breg20 -8]
    4229              DW$301  .dwtag  DW_TAG_variable, DW_AT_name("p_src"), DW_AT_symbol_name("_p_src")
    4230                      .dwattr DW$301, DW_AT_type(*DW$T$88)
    4231                      .dwattr DW$301, DW_AT_location[DW_OP_breg20 -10]
    4232 000004f4 9645          MOV       *-SP[5],AL            ; |12| 
    4233 000004f5 A044          MOVL      *-SP[4],XAR5          ; |12| 
    4234 000004f6 A842          MOVL      *-SP[2],XAR4          ; |12| 
    4235                      .dwpsn  "src\os_connect_str.c",14,7
    4236 000004f7 0642          MOVL      ACC,*-SP[2]           ; |14| 
    4237 000004f8 1E48          MOVL      *-SP[8],ACC           ; |14| 
    4238                      .dwpsn  "src\os_connect_str.c",15,7
    4239 000004f9 0644          MOVL      ACC,*-SP[4]           ; |15| 
    4240 000004fa 1E4A          MOVL      *-SP[10],ACC          ; |15| 
    4241                      .dwpsn  "src\os_connect_str.c",16,8
    4242 000004fb 2B46          MOV       *-SP[6],#0            ; |16| 
    4243                      .dwpsn  "src\os_connect_str.c",16,18
    4244 000004fc 9245          MOV       AL,*-SP[5]            ; |16| 
    4245 000004fd 5446          CMP       AL,*-SP[6]            ; |16| 
    4246 000004fe 690A          B         L75,LOS               ; |16| 
    4247                      ; branchcc occurs ; |16| 
    4248              L74:    
    4249              DW$L$_os_memcpy$2$B:
    4250                      .dwpsn  "src\os_connect_str.c",18,3
    4251 000004ff 5846          MOVZ      AR0,*-SP[6]           ; |18| 
TMS320C2000 COFF Assembler PC v4.1.3 Thu Sep 13 14:28:00 2012

Tools Copyright (c) 1996-2006 Texas Instruments Incorporated
C:\DOCUME~1\ADMINI~1\LOCALS~1\Temp\TI1962                            PAGE   83

    4252 00000500 8A4A          MOVL      XAR4,*-SP[10]         ; |18| 
    4253 00000501 9294          MOV       AL,*+XAR4[AR0]        ; |18| 
    4254 00000502 8A48          MOVL      XAR4,*-SP[8]          ; |18| 
    4255 00000503 9694          MOV       *+XAR4[AR0],AL        ; |18| 
    4256                      .dwpsn  "src\os_connect_str.c",16,32
    4257 00000504 0A46          INC       *-SP[6]               ; |16| 
    4258                      .dwpsn  "src\os_connect_str.c",16,18
    4259 00000505 9245          MOV       AL,*-SP[5]            ; |16| 
    4260 00000506 5446          CMP       AL,*-SP[6]            ; |16| 
    4261 00000507 66F8          B         L74,HI                ; |16| 
    4262                      ; branchcc occurs ; |16| 
    4263              DW$L$_os_memcpy$2$E:
    4264                      .dwpsn  "src\os_connect_str.c",20,2
    4265              L75:    
    4266                      .dwpsn  "src\os_connect_str.c",21,1
    4267 00000508 FE8A          SUBB      SP,#10
    4268                      .dwcfa  0x1d, -2
    4269 00000509 0006          LRETR
    4270                      ; return occurs
    4271              
    4272              DW$302  .dwtag  DW_TAG_loop
    4273                      .dwattr DW$302, DW_AT_name("C:\DOCUME~1\ADMINI~1\LOCALS~1\Temp\TI1962:L74:1:1347517680")
    4274                      .dwattr DW$302, DW_AT_begin_file("src\os_connect_str.c")
    4275                      .dwattr DW$302, DW_AT_begin_line(0x10)
    4276                      .dwattr DW$302, DW_AT_end_line(0x13)
    4277              DW$303  .dwtag  DW_TAG_loop_range
    4278                      .dwattr DW$303, DW_AT_low_pc(DW$L$_os_memcpy$2$B)
    4279                      .dwattr DW$303, DW_AT_high_pc(DW$L$_os_memcpy$2$E)
    4280                      .dwendtag DW$302
    4281              
    4282                      .dwattr DW$292, DW_AT_end_file("src\os_connect_str.c")
    4283                      .dwattr DW$292, DW_AT_end_line(0x15)
    4284                      .dwattr DW$292, DW_AT_end_column(0x01)
    4285                      .dwendentry
    4286                      .dwendtag DW$292
    4287              
    4288 0000050a               .sect   ".text"
    4289                      .global _os_memset
    4290              
    4291              DW$304  .dwtag  DW_TAG_subprogram, DW_AT_name("os_memset"), DW_AT_symbol_name("_os_memset")
    4292                      .dwattr DW$304, DW_AT_low_pc(_os_memset)
    4293                      .dwattr DW$304, DW_AT_high_pc(0x00)
    4294                      .dwattr DW$304, DW_AT_begin_file("src\os_connect_str.c")
    4295                      .dwattr DW$304, DW_AT_begin_line(0x1f)
    4296                      .dwattr DW$304, DW_AT_begin_column(0x06)
    4297                      .dwpsn  "src\os_connect_str.c",32,1
    4298              
    4299                      .dwfde DW$CIE
    4300              
    4301              ;***************************************************************
    4302              ;* FNAME: _os_memset                    FR SIZE:   8           *
    4303              ;*                                                             *
    4304              ;* FUNCTION ENVIRONMENT                                        *
    4305              ;*                                                             *
    4306              ;* FUNCTION PROPERTIES                                         *
TMS320C2000 COFF Assembler PC v4.1.3 Thu Sep 13 14:28:00 2012

Tools Copyright (c) 1996-2006 Texas Instruments Incorporated
C:\DOCUME~1\ADMINI~1\LOCALS~1\Temp\TI1962                            PAGE   84

    4307              ;*                            0 Parameter,  8 Auto,  0 SOE     *
    4308              ;***************************************************************
    4309              
    4310              _os_memset:
    4311                      .dwcfa  0x1d, -2
    4312                      .dwcfa  0x1c, 26, 0
    4313                      .dwcfa  0x09, 40, 26
    4314 0000050a FE08          ADDB      SP,#8
    4315                      .dwcfa  0x1d, -10
    4316              ;* AR4   assigned to _pur_add
    4317              DW$305  .dwtag  DW_TAG_formal_parameter, DW_AT_name("pur_add"), DW_AT_symbol_name("_pur_add")
    4318                      .dwattr DW$305, DW_AT_type(*DW$T$3)
    4319                      .dwattr DW$305, DW_AT_location[DW_OP_reg12]
    4320              ;* AL    assigned to _pad_data
    4321              DW$306  .dwtag  DW_TAG_formal_parameter, DW_AT_name("pad_data"), DW_AT_symbol_name("_pad_data")
    4322                      .dwattr DW$306, DW_AT_type(*DW$T$6)
    4323                      .dwattr DW$306, DW_AT_location[DW_OP_reg0]
    4324              ;* AH    assigned to _lenth
    4325              DW$307  .dwtag  DW_TAG_formal_parameter, DW_AT_name("lenth"), DW_AT_symbol_name("_lenth")
    4326                      .dwattr DW$307, DW_AT_type(*DW$T$23)
    4327                      .dwattr DW$307, DW_AT_location[DW_OP_reg1]
    4328              DW$308  .dwtag  DW_TAG_variable, DW_AT_name("pur_add"), DW_AT_symbol_name("_pur_add")
    4329                      .dwattr DW$308, DW_AT_type(*DW$T$3)
    4330                      .dwattr DW$308, DW_AT_location[DW_OP_breg20 -2]
    4331              DW$309  .dwtag  DW_TAG_variable, DW_AT_name("pad_data"), DW_AT_symbol_name("_pad_data")
    4332                      .dwattr DW$309, DW_AT_type(*DW$T$6)
    4333                      .dwattr DW$309, DW_AT_location[DW_OP_breg20 -3]
    4334              DW$310  .dwtag  DW_TAG_variable, DW_AT_name("lenth"), DW_AT_symbol_name("_lenth")
    4335                      .dwattr DW$310, DW_AT_type(*DW$T$23)
    4336                      .dwattr DW$310, DW_AT_location[DW_OP_breg20 -4]
    4337              DW$311  .dwtag  DW_TAG_variable, DW_AT_name("index"), DW_AT_symbol_name("_index")
    4338                      .dwattr DW$311, DW_AT_type(*DW$T$10)
    4339                      .dwattr DW$311, DW_AT_location[DW_OP_breg20 -5]
    4340              DW$312  .dwtag  DW_TAG_variable, DW_AT_name("p_pur"), DW_AT_symbol_name("_p_pur")
    4341                      .dwattr DW$312, DW_AT_type(*DW$T$24)
    4342                      .dwattr DW$312, DW_AT_location[DW_OP_breg20 -8]
    4343 0000050b 9744          MOV       *-SP[4],AH            ; |32| 
    4344 0000050c 9643          MOV       *-SP[3],AL            ; |32| 
    4345 0000050d A842          MOVL      *-SP[2],XAR4          ; |32| 
    4346                      .dwpsn  "src\os_connect_str.c",34,10
    4347 0000050e 0642          MOVL      ACC,*-SP[2]           ; |34| 
    4348 0000050f 1E48          MOVL      *-SP[8],ACC           ; |34| 
    4349                      .dwpsn  "src\os_connect_str.c",35,8
    4350 00000510 2B45          MOV       *-SP[5],#0            ; |35| 
    4351                      .dwpsn  "src\os_connect_str.c",35,18
    4352 00000511 9244          MOV       AL,*-SP[4]            ; |35| 
    4353 00000512 5445          CMP       AL,*-SP[5]            ; |35| 
    4354 00000513 690C          B         L77,LOS               ; |35| 
    4355                      ; branchcc occurs ; |35| 
    4356              L76:    
    4357              DW$L$_os_memset$2$B:
    4358                      .dwpsn  "src\os_connect_str.c",37,3
    4359 00000514 8A48          MOVL      XAR4,*-SP[8]          ; |37| 
    4360 00000515 3B01          SETC      SXM
    4361 00000516 8545          MOV       ACC,*-SP[5]           ; |37| 
TMS320C2000 COFF Assembler PC v4.1.3 Thu Sep 13 14:28:00 2012

Tools Copyright (c) 1996-2006 Texas Instruments Incorporated
C:\DOCUME~1\ADMINI~1\LOCALS~1\Temp\TI1962                            PAGE   85

    4362 00000517 5601          ADDL      XAR4,ACC
         00000518 00A4 
    4363 00000519 9243          MOV       AL,*-SP[3]            ; |37| 
    4364 0000051a 96C4          MOV       *+XAR4[0],AL          ; |37| 
    4365                      .dwpsn  "src\os_connect_str.c",35,32
    4366 0000051b 0A45          INC       *-SP[5]               ; |35| 
    4367                      .dwpsn  "src\os_connect_str.c",35,18
    4368 0000051c 9244          MOV       AL,*-SP[4]            ; |35| 
    4369 0000051d 5445          CMP       AL,*-SP[5]            ; |35| 
    4370 0000051e 66F6          B         L76,HI                ; |35| 
    4371                      ; branchcc occurs ; |35| 
    4372              DW$L$_os_memset$2$E:
    4373                      .dwpsn  "src\os_connect_str.c",39,2
    4374              L77:    
    4375                      .dwpsn  "src\os_connect_str.c",40,1
    4376 0000051f FE88          SUBB      SP,#8
    4377                      .dwcfa  0x1d, -2
    4378 00000520 0006          LRETR
    4379                      ; return occurs
    4380              
    4381              DW$313  .dwtag  DW_TAG_loop
    4382                      .dwattr DW$313, DW_AT_name("C:\DOCUME~1\ADMINI~1\LOCALS~1\Temp\TI1962:L76:1:1347517680")
    4383                      .dwattr DW$313, DW_AT_begin_file("src\os_connect_str.c")
    4384                      .dwattr DW$313, DW_AT_begin_line(0x23)
    4385                      .dwattr DW$313, DW_AT_end_line(0x26)
    4386              DW$314  .dwtag  DW_TAG_loop_range
    4387                      .dwattr DW$314, DW_AT_low_pc(DW$L$_os_memset$2$B)
    4388                      .dwattr DW$314, DW_AT_high_pc(DW$L$_os_memset$2$E)
    4389                      .dwendtag DW$313
    4390              
    4391                      .dwattr DW$304, DW_AT_end_file("src\os_connect_str.c")
    4392                      .dwattr DW$304, DW_AT_end_line(0x28)
    4393                      .dwattr DW$304, DW_AT_end_column(0x01)
    4394                      .dwendentry
    4395                      .dwendtag DW$304
    4396              
    4397 00000521               .sect   ".text"
    4398                      .global _os_memcmp
    4399              
    4400              DW$315  .dwtag  DW_TAG_subprogram, DW_AT_name("os_memcmp"), DW_AT_symbol_name("_os_memcmp")
    4401                      .dwattr DW$315, DW_AT_low_pc(_os_memcmp)
    4402                      .dwattr DW$315, DW_AT_high_pc(0x00)
    4403                      .dwattr DW$315, DW_AT_begin_file("src\os_connect_str.c")
    4404                      .dwattr DW$315, DW_AT_begin_line(0x32)
    4405                      .dwattr DW$315, DW_AT_begin_column(0x07)
    4406                      .dwpsn  "src\os_connect_str.c",51,1
    4407              
    4408                      .dwfde DW$CIE
    4409              
    4410              ;***************************************************************
    4411              ;* FNAME: _os_memcmp                    FR SIZE:  10           *
    4412              ;*                                                             *
    4413              ;* FUNCTION ENVIRONMENT                                        *
    4414              ;*                                                             *
    4415              ;* FUNCTION PROPERTIES                                         *
TMS320C2000 COFF Assembler PC v4.1.3 Thu Sep 13 14:28:00 2012

Tools Copyright (c) 1996-2006 Texas Instruments Incorporated
C:\DOCUME~1\ADMINI~1\LOCALS~1\Temp\TI1962                            PAGE   86

    4416              ;*                            0 Parameter, 10 Auto,  0 SOE     *
    4417              ;***************************************************************
    4418              
    4419              _os_memcmp:
    4420                      .dwcfa  0x1d, -2
    4421                      .dwcfa  0x1c, 26, 0
    4422                      .dwcfa  0x09, 40, 26
    4423 00000521 FE0A          ADDB      SP,#10
    4424                      .dwcfa  0x1d, -12
    4425              ;* AR4   assigned to _pur_add
    4426              DW$316  .dwtag  DW_TAG_formal_parameter, DW_AT_name("pur_add"), DW_AT_symbol_name("_pur_add")
    4427                      .dwattr DW$316, DW_AT_type(*DW$T$3)
    4428                      .dwattr DW$316, DW_AT_location[DW_OP_reg12]
    4429              ;* AR5   assigned to _src_ptr
    4430              DW$317  .dwtag  DW_TAG_formal_parameter, DW_AT_name("src_ptr"), DW_AT_symbol_name("_src_ptr")
    4431                      .dwattr DW$317, DW_AT_type(*DW$T$3)
    4432                      .dwattr DW$317, DW_AT_location[DW_OP_reg14]
    4433              ;* AL    assigned to _lenth
    4434              DW$318  .dwtag  DW_TAG_formal_parameter, DW_AT_name("lenth"), DW_AT_symbol_name("_lenth")
    4435                      .dwattr DW$318, DW_AT_type(*DW$T$23)
    4436                      .dwattr DW$318, DW_AT_location[DW_OP_reg0]
    4437              DW$319  .dwtag  DW_TAG_variable, DW_AT_name("pur_add"), DW_AT_symbol_name("_pur_add")
    4438                      .dwattr DW$319, DW_AT_type(*DW$T$3)
    4439                      .dwattr DW$319, DW_AT_location[DW_OP_breg20 -2]
    4440              DW$320  .dwtag  DW_TAG_variable, DW_AT_name("src_ptr"), DW_AT_symbol_name("_src_ptr")
    4441                      .dwattr DW$320, DW_AT_type(*DW$T$3)
    4442                      .dwattr DW$320, DW_AT_location[DW_OP_breg20 -4]
    4443              DW$321  .dwtag  DW_TAG_variable, DW_AT_name("lenth"), DW_AT_symbol_name("_lenth")
    4444                      .dwattr DW$321, DW_AT_type(*DW$T$23)
    4445                      .dwattr DW$321, DW_AT_location[DW_OP_breg20 -5]
    4446              DW$322  .dwtag  DW_TAG_variable, DW_AT_name("index"), DW_AT_symbol_name("_index")
    4447                      .dwattr DW$322, DW_AT_type(*DW$T$6)
    4448                      .dwattr DW$322, DW_AT_location[DW_OP_breg20 -6]
    4449              DW$323  .dwtag  DW_TAG_variable, DW_AT_name("p_pur"), DW_AT_symbol_name("_p_pur")
    4450                      .dwattr DW$323, DW_AT_type(*DW$T$88)
    4451                      .dwattr DW$323, DW_AT_location[DW_OP_breg20 -8]
    4452              DW$324  .dwtag  DW_TAG_variable, DW_AT_name("p_src"), DW_AT_symbol_name("_p_src")
    4453                      .dwattr DW$324, DW_AT_type(*DW$T$88)
    4454                      .dwattr DW$324, DW_AT_location[DW_OP_breg20 -10]
    4455 00000522 9645          MOV       *-SP[5],AL            ; |51| 
    4456 00000523 A044          MOVL      *-SP[4],XAR5          ; |51| 
    4457 00000524 A842          MOVL      *-SP[2],XAR4          ; |51| 
    4458                      .dwpsn  "src\os_connect_str.c",53,7
    4459 00000525 0642          MOVL      ACC,*-SP[2]           ; |53| 
    4460 00000526 1E48          MOVL      *-SP[8],ACC           ; |53| 
    4461                      .dwpsn  "src\os_connect_str.c",54,7
    4462 00000527 0644          MOVL      ACC,*-SP[4]           ; |54| 
    4463 00000528 1E4A          MOVL      *-SP[10],ACC          ; |54| 
    4464                      .dwpsn  "src\os_connect_str.c",55,8
    4465 00000529 2B46          MOV       *-SP[6],#0            ; |55| 
    4466                      .dwpsn  "src\os_connect_str.c",55,18
    4467 0000052a 9245          MOV       AL,*-SP[5]            ; |55| 
    4468 0000052b 5446          CMP       AL,*-SP[6]            ; |55| 
    4469 0000052c 690D          B         L80,LOS               ; |55| 
    4470                      ; branchcc occurs ; |55| 
TMS320C2000 COFF Assembler PC v4.1.3 Thu Sep 13 14:28:00 2012

Tools Copyright (c) 1996-2006 Texas Instruments Incorporated
C:\DOCUME~1\ADMINI~1\LOCALS~1\Temp\TI1962                            PAGE   87

    4471              L78:    
    4472              DW$L$_os_memcmp$2$B:
    4473                      .dwpsn  "src\os_connect_str.c",57,3
    4474 0000052d 5846          MOVZ      AR0,*-SP[6]           ; |57| 
    4475 0000052e 8A4A          MOVL      XAR4,*-SP[10]         ; |57| 
    4476 0000052f 9294          MOV       AL,*+XAR4[AR0]        ; |57| 
    4477 00000530 8A48          MOVL      XAR4,*-SP[8]          ; |57| 
    4478 00000531 5494          CMP       AL,*+XAR4[AR0]        ; |57| 
    4479 00000532 EC03          BF        L79,EQ                ; |57| 
    4480                      ; branchcc occurs ; |57| 
    4481              DW$L$_os_memcmp$2$E:
    4482                      .dwpsn  "src\os_connect_str.c",59,4
    4483 00000533 9A00          MOVB      AL,#0
    4484 00000534 6F06          B         L81,UNC               ; |59| 
    4485                      ; branch occurs ; |59| 
    4486              L79:    
    4487              DW$L$_os_memcmp$4$B:
    4488                      .dwpsn  "src\os_connect_str.c",55,32
    4489 00000535 0A46          INC       *-SP[6]               ; |55| 
    4490                      .dwpsn  "src\os_connect_str.c",55,18
    4491 00000536 9245          MOV       AL,*-SP[5]            ; |55| 
    4492 00000537 5446          CMP       AL,*-SP[6]            ; |55| 
    4493 00000538 66F5          B         L78,HI                ; |55| 
    4494                      ; branchcc occurs ; |55| 
    4495              DW$L$_os_memcmp$4$E:
    4496              L80:    
    4497                      .dwpsn  "src\os_connect_str.c",62,2
    4498 00000539 9A01          MOVB      AL,#1                 ; |62| 
    4499              L81:    
    4500                      .dwpsn  "src\os_connect_str.c",63,1
    4501 0000053a FE8A          SUBB      SP,#10                ; |62| 
    4502                      .dwcfa  0x1d, -2
    4503 0000053b 0006          LRETR
    4504                      ; return occurs
    4505              
    4506              DW$325  .dwtag  DW_TAG_loop
    4507                      .dwattr DW$325, DW_AT_name("C:\DOCUME~1\ADMINI~1\LOCALS~1\Temp\TI1962:L78:1:1347517680")
    4508                      .dwattr DW$325, DW_AT_begin_file("src\os_connect_str.c")
    4509                      .dwattr DW$325, DW_AT_begin_line(0x37)
    4510                      .dwattr DW$325, DW_AT_end_line(0x3d)
    4511              DW$326  .dwtag  DW_TAG_loop_range
    4512                      .dwattr DW$326, DW_AT_low_pc(DW$L$_os_memcmp$2$B)
    4513                      .dwattr DW$326, DW_AT_high_pc(DW$L$_os_memcmp$2$E)
    4514              DW$327  .dwtag  DW_TAG_loop_range
    4515                      .dwattr DW$327, DW_AT_low_pc(DW$L$_os_memcmp$4$B)
    4516                      .dwattr DW$327, DW_AT_high_pc(DW$L$_os_memcmp$4$E)
    4517                      .dwendtag DW$325
    4518              
    4519                      .dwattr DW$315, DW_AT_end_file("src\os_connect_str.c")
    4520                      .dwattr DW$315, DW_AT_end_line(0x3f)
    4521                      .dwattr DW$315, DW_AT_end_column(0x01)
    4522                      .dwendentry
    4523                      .dwendtag DW$315
    4524              
    4525 0000053c               .sect   ".text"
TMS320C2000 COFF Assembler PC v4.1.3 Thu Sep 13 14:28:00 2012

Tools Copyright (c) 1996-2006 Texas Instruments Incorporated
C:\DOCUME~1\ADMINI~1\LOCALS~1\Temp\TI1962                            PAGE   88

    4526                      .global _os_strlen
    4527              
    4528              DW$328  .dwtag  DW_TAG_subprogram, DW_AT_name("os_strlen"), DW_AT_symbol_name("_os_strlen")
    4529                      .dwattr DW$328, DW_AT_low_pc(_os_strlen)
    4530                      .dwattr DW$328, DW_AT_high_pc(0x00)
    4531                      .dwattr DW$328, DW_AT_begin_file("src\os_connect_str.c")
    4532                      .dwattr DW$328, DW_AT_begin_line(0x46)
    4533                      .dwattr DW$328, DW_AT_begin_column(0x09)
    4534                      .dwpsn  "src\os_connect_str.c",71,1
    4535              
    4536                      .dwfde DW$CIE
    4537              
    4538              ;***************************************************************
    4539              ;* FNAME: _os_strlen                    FR SIZE:   4           *
    4540              ;*                                                             *
    4541              ;* FUNCTION ENVIRONMENT                                        *
    4542              ;*                                                             *
    4543              ;* FUNCTION PROPERTIES                                         *
    4544              ;*                            0 Parameter,  3 Auto,  0 SOE     *
    4545              ;***************************************************************
    4546              
    4547              _os_strlen:
    4548                      .dwcfa  0x1d, -2
    4549                      .dwcfa  0x1c, 26, 0
    4550                      .dwcfa  0x09, 40, 26
    4551 0000053c FE04          ADDB      SP,#4
    4552                      .dwcfa  0x1d, -6
    4553              ;* AR4   assigned to _psrc
    4554              DW$329  .dwtag  DW_TAG_formal_parameter, DW_AT_name("psrc"), DW_AT_symbol_name("_psrc")
    4555                      .dwattr DW$329, DW_AT_type(*DW$T$88)
    4556                      .dwattr DW$329, DW_AT_location[DW_OP_reg12]
    4557              DW$330  .dwtag  DW_TAG_variable, DW_AT_name("psrc"), DW_AT_symbol_name("_psrc")
    4558                      .dwattr DW$330, DW_AT_type(*DW$T$88)
    4559                      .dwattr DW$330, DW_AT_location[DW_OP_breg20 -2]
    4560              DW$331  .dwtag  DW_TAG_variable, DW_AT_name("lenth"), DW_AT_symbol_name("_lenth")
    4561                      .dwattr DW$331, DW_AT_type(*DW$T$23)
    4562                      .dwattr DW$331, DW_AT_location[DW_OP_breg20 -3]
    4563 0000053d A842          MOVL      *-SP[2],XAR4          ; |71| 
    4564                      .dwpsn  "src\os_connect_str.c",72,10
    4565 0000053e 2B43          MOV       *-SP[3],#0            ; |72| 
    4566                      .dwpsn  "src\os_connect_str.c",73,2
    4567 0000053f 6F05          B         L83,UNC               ; |73| 
    4568                      ; branch occurs ; |73| 
    4569              L82:    
    4570              DW$L$_os_strlen$2$B:
    4571                      .dwpsn  "src\os_connect_str.c",75,3
    4572 00000540 0A43          INC       *-SP[3]               ; |75| 
    4573                      .dwpsn  "src\os_connect_str.c",76,3
    4574 00000541 0201          MOVB      ACC,#1
    4575 00000542 5601          ADDL      *-SP[2],ACC           ; |76| 
         00000543 0042 
    4576              DW$L$_os_strlen$2$E:
    4577              L83:    
    4578              DW$L$_os_strlen$3$B:
    4579                      .dwpsn  "src\os_connect_str.c",73,9
TMS320C2000 COFF Assembler PC v4.1.3 Thu Sep 13 14:28:00 2012

Tools Copyright (c) 1996-2006 Texas Instruments Incorporated
C:\DOCUME~1\ADMINI~1\LOCALS~1\Temp\TI1962                            PAGE   89

    4580 00000544 8A42          MOVL      XAR4,*-SP[2]          ; |73| 
    4581 00000545 92C4          MOV       AL,*+XAR4[0]          ; |73| 
    4582 00000546 EDFA          BF        L82,NEQ               ; |73| 
    4583                      ; branchcc occurs ; |73| 
    4584              DW$L$_os_strlen$3$E:
    4585                      .dwpsn  "src\os_connect_str.c",78,2
    4586 00000547 9243          MOV       AL,*-SP[3]            ; |78| 
    4587                      .dwpsn  "src\os_connect_str.c",79,1
    4588 00000548 FE84          SUBB      SP,#4                 ; |78| 
    4589                      .dwcfa  0x1d, -2
    4590 00000549 0006          LRETR
    4591                      ; return occurs
    4592              
    4593              DW$332  .dwtag  DW_TAG_loop
    4594                      .dwattr DW$332, DW_AT_name("C:\DOCUME~1\ADMINI~1\LOCALS~1\Temp\TI1962:L83:1:1347517680")
    4595                      .dwattr DW$332, DW_AT_begin_file("src\os_connect_str.c")
    4596                      .dwattr DW$332, DW_AT_begin_line(0x49)
    4597                      .dwattr DW$332, DW_AT_end_line(0x4c)
    4598              DW$333  .dwtag  DW_TAG_loop_range
    4599                      .dwattr DW$333, DW_AT_low_pc(DW$L$_os_strlen$3$B)
    4600                      .dwattr DW$333, DW_AT_high_pc(DW$L$_os_strlen$3$E)
    4601              DW$334  .dwtag  DW_TAG_loop_range
    4602                      .dwattr DW$334, DW_AT_low_pc(DW$L$_os_strlen$2$B)
    4603                      .dwattr DW$334, DW_AT_high_pc(DW$L$_os_strlen$2$E)
    4604                      .dwendtag DW$332
    4605              
    4606                      .dwattr DW$328, DW_AT_end_file("src\os_connect_str.c")
    4607                      .dwattr DW$328, DW_AT_end_line(0x4f)
    4608                      .dwattr DW$328, DW_AT_end_column(0x01)
    4609                      .dwendentry
    4610                      .dwendtag DW$328
    4611              
    4612 0000054a               .sect   ".text"
    4613                      .global _os_strcat
    4614              
    4615              DW$335  .dwtag  DW_TAG_subprogram, DW_AT_name("os_strcat"), DW_AT_symbol_name("_os_strcat")
    4616                      .dwattr DW$335, DW_AT_low_pc(_os_strcat)
    4617                      .dwattr DW$335, DW_AT_high_pc(0x00)
    4618                      .dwattr DW$335, DW_AT_begin_file("src\os_connect_str.c")
    4619                      .dwattr DW$335, DW_AT_begin_line(0x57)
    4620                      .dwattr DW$335, DW_AT_begin_column(0x06)
    4621                      .dwpsn  "src\os_connect_str.c",88,1
    4622              
    4623                      .dwfde DW$CIE
    4624              
    4625              ;***************************************************************
    4626              ;* FNAME: _os_strcat                    FR SIZE:   6           *
    4627              ;*                                                             *
    4628              ;* FUNCTION ENVIRONMENT                                        *
    4629              ;*                                                             *
    4630              ;* FUNCTION PROPERTIES                                         *
    4631              ;*                            0 Parameter,  6 Auto,  0 SOE     *
    4632              ;***************************************************************
    4633              
    4634              _os_strcat:
TMS320C2000 COFF Assembler PC v4.1.3 Thu Sep 13 14:28:00 2012

Tools Copyright (c) 1996-2006 Texas Instruments Incorporated
C:\DOCUME~1\ADMINI~1\LOCALS~1\Temp\TI1962                            PAGE   90

    4635                      .dwcfa  0x1d, -2
    4636                      .dwcfa  0x1c, 26, 0
    4637                      .dwcfa  0x09, 40, 26
    4638 0000054a FE06          ADDB      SP,#6
    4639                      .dwcfa  0x1d, -8
    4640              ;* AR4   assigned to _pstr1
    4641              DW$336  .dwtag  DW_TAG_formal_parameter, DW_AT_name("pstr1"), DW_AT_symbol_name("_pstr1")
    4642                      .dwattr DW$336, DW_AT_type(*DW$T$88)
    4643                      .dwattr DW$336, DW_AT_location[DW_OP_reg12]
    4644              ;* AR5   assigned to _pstr2
    4645              DW$337  .dwtag  DW_TAG_formal_parameter, DW_AT_name("pstr2"), DW_AT_symbol_name("_pstr2")
    4646                      .dwattr DW$337, DW_AT_type(*DW$T$88)
    4647                      .dwattr DW$337, DW_AT_location[DW_OP_reg14]
    4648              DW$338  .dwtag  DW_TAG_variable, DW_AT_name("pstr1"), DW_AT_symbol_name("_pstr1")
    4649                      .dwattr DW$338, DW_AT_type(*DW$T$88)
    4650                      .dwattr DW$338, DW_AT_location[DW_OP_breg20 -2]
    4651              DW$339  .dwtag  DW_TAG_variable, DW_AT_name("pstr2"), DW_AT_symbol_name("_pstr2")
    4652                      .dwattr DW$339, DW_AT_type(*DW$T$88)
    4653                      .dwattr DW$339, DW_AT_location[DW_OP_breg20 -4]
    4654              DW$340  .dwtag  DW_TAG_variable, DW_AT_name("pch"), DW_AT_symbol_name("_pch")
    4655                      .dwattr DW$340, DW_AT_type(*DW$T$88)
    4656                      .dwattr DW$340, DW_AT_location[DW_OP_breg20 -6]
    4657 0000054b A044          MOVL      *-SP[4],XAR5          ; |88| 
    4658 0000054c A842          MOVL      *-SP[2],XAR4          ; |88| 
    4659                      .dwpsn  "src\os_connect_str.c",90,2
    4660 0000054d 8A42          MOVL      XAR4,*-SP[2]          ; |90| 
    4661 0000054e 7640'         LCR       #_os_strlen           ; |90| 
         0000054f 053C 
    4662                      ; call occurs [#_os_strlen] ; |90| 
    4663 00000550 88A9          MOVZ      AR6,AL                ; |90| 
    4664 00000551 0642          MOVL      ACC,*-SP[2]           ; |90| 
    4665 00000552 0DA6          ADDU      ACC,AR6               ; |90| 
    4666 00000553 1E46          MOVL      *-SP[6],ACC           ; |90| 
    4667                      .dwpsn  "src\os_connect_str.c",91,2
    4668 00000554 8A44          MOVL      XAR4,*-SP[4]          ; |91| 
    4669 00000555 7640'         LCR       #_os_strlen           ; |91| 
         00000556 053C 
    4670                      ; call occurs [#_os_strlen] ; |91| 
    4671 00000557 93A9          MOV       AH,AL                 ; |91| 
    4672 00000558 8344          MOVL      XAR5,*-SP[4]          ; |91| 
    4673 00000559 9A01          MOVB      AL,#1                 ; |91| 
    4674 0000055a 94A8          ADD       AL,AH                 ; |91| 
    4675 0000055b 8A46          MOVL      XAR4,*-SP[6]          ; |91| 
    4676 0000055c 7640'         LCR       #_os_memcpy           ; |91| 
         0000055d 04F3 
    4677                      ; call occurs [#_os_memcpy] ; |91| 
    4678                      .dwpsn  "src\os_connect_str.c",94,2
    4679                      .dwpsn  "src\os_connect_str.c",95,1
    4680 0000055e FE86          SUBB      SP,#6
    4681                      .dwcfa  0x1d, -2
    4682 0000055f 0006          LRETR
    4683                      ; return occurs
    4684                      .dwattr DW$335, DW_AT_end_file("src\os_connect_str.c")
    4685                      .dwattr DW$335, DW_AT_end_line(0x5f)
    4686                      .dwattr DW$335, DW_AT_end_column(0x01)
TMS320C2000 COFF Assembler PC v4.1.3 Thu Sep 13 14:28:00 2012

Tools Copyright (c) 1996-2006 Texas Instruments Incorporated
C:\DOCUME~1\ADMINI~1\LOCALS~1\Temp\TI1962                            PAGE   91

    4687                      .dwendentry
    4688                      .dwendtag DW$335
    4689              
    4690 00000560               .sect   ".text"
    4691                      .global _os_strcpy
    4692              
    4693              DW$341  .dwtag  DW_TAG_subprogram, DW_AT_name("os_strcpy"), DW_AT_symbol_name("_os_strcpy")
    4694                      .dwattr DW$341, DW_AT_low_pc(_os_strcpy)
    4695                      .dwattr DW$341, DW_AT_high_pc(0x00)
    4696                      .dwattr DW$341, DW_AT_begin_file("src\os_connect_str.c")
    4697                      .dwattr DW$341, DW_AT_begin_line(0x68)
    4698                      .dwattr DW$341, DW_AT_begin_column(0x07)
    4699                      .dwpsn  "src\os_connect_str.c",105,1
    4700              
    4701                      .dwfde DW$CIE
    4702              
    4703              ;***************************************************************
    4704              ;* FNAME: _os_strcpy                    FR SIZE:   8           *
    4705              ;*                                                             *
    4706              ;* FUNCTION ENVIRONMENT                                        *
    4707              ;*                                                             *
    4708              ;* FUNCTION PROPERTIES                                         *
    4709              ;*                            0 Parameter,  8 Auto,  0 SOE     *
    4710              ;***************************************************************
    4711              
    4712              _os_strcpy:
    4713                      .dwcfa  0x1d, -2
    4714                      .dwcfa  0x1c, 26, 0
    4715                      .dwcfa  0x09, 40, 26
    4716 00000560 FE08          ADDB      SP,#8
    4717                      .dwcfa  0x1d, -10
    4718              ;* AR4   assigned to _pdest
    4719              DW$342  .dwtag  DW_TAG_formal_parameter, DW_AT_name("pdest"), DW_AT_symbol_name("_pdest")
    4720                      .dwattr DW$342, DW_AT_type(*DW$T$88)
    4721                      .dwattr DW$342, DW_AT_location[DW_OP_reg12]
    4722              ;* AR5   assigned to _psrc
    4723              DW$343  .dwtag  DW_TAG_formal_parameter, DW_AT_name("psrc"), DW_AT_symbol_name("_psrc")
    4724                      .dwattr DW$343, DW_AT_type(*DW$T$88)
    4725                      .dwattr DW$343, DW_AT_location[DW_OP_reg14]
    4726              DW$344  .dwtag  DW_TAG_variable, DW_AT_name("pdest"), DW_AT_symbol_name("_pdest")
    4727                      .dwattr DW$344, DW_AT_type(*DW$T$88)
    4728                      .dwattr DW$344, DW_AT_location[DW_OP_breg20 -2]
    4729              DW$345  .dwtag  DW_TAG_variable, DW_AT_name("psrc"), DW_AT_symbol_name("_psrc")
    4730                      .dwattr DW$345, DW_AT_type(*DW$T$88)
    4731                      .dwattr DW$345, DW_AT_location[DW_OP_breg20 -4]
    4732              DW$346  .dwtag  DW_TAG_variable, DW_AT_name("len"), DW_AT_symbol_name("_len")
    4733                      .dwattr DW$346, DW_AT_type(*DW$T$23)
    4734                      .dwattr DW$346, DW_AT_location[DW_OP_breg20 -5]
    4735              DW$347  .dwtag  DW_TAG_variable, DW_AT_name("pdest_shadow"), DW_AT_symbol_name("_pdest_shadow")
    4736                      .dwattr DW$347, DW_AT_type(*DW$T$88)
    4737                      .dwattr DW$347, DW_AT_location[DW_OP_breg20 -8]
    4738 00000561 A044          MOVL      *-SP[4],XAR5          ; |105| 
    4739 00000562 A842          MOVL      *-SP[2],XAR4          ; |105| 
    4740                      .dwpsn  "src\os_connect_str.c",106,10
    4741 00000563 2B45          MOV       *-SP[5],#0            ; |106| 
TMS320C2000 COFF Assembler PC v4.1.3 Thu Sep 13 14:28:00 2012

Tools Copyright (c) 1996-2006 Texas Instruments Incorporated
C:\DOCUME~1\ADMINI~1\LOCALS~1\Temp\TI1962                            PAGE   92

    4742                      .dwpsn  "src\os_connect_str.c",107,7
    4743 00000564 0642          MOVL      ACC,*-SP[2]           ; |107| 
    4744 00000565 1E48          MOVL      *-SP[8],ACC           ; |107| 
    4745                      .dwpsn  "src\os_connect_str.c",108,2
    4746 00000566 6F0A          B         L85,UNC               ; |108| 
    4747                      ; branch occurs ; |108| 
    4748              L84:    
    4749              DW$L$_os_strcpy$2$B:
    4750                      .dwpsn  "src\os_connect_str.c",110,3
    4751 00000567 8342          MOVL      XAR5,*-SP[2]          ; |110| 
    4752 00000568 0201          MOVB      ACC,#1
    4753 00000569 07A5          ADDL      ACC,XAR5
    4754 0000056a 1E42          MOVL      *-SP[2],ACC           ; |110| 
    4755 0000056b 8A44          MOVL      XAR4,*-SP[4]          ; |110| 
    4756 0000056c 9284          MOV       AL,*XAR4++            ; |110| 
    4757 0000056d A844          MOVL      *-SP[4],XAR4          ; |110| 
    4758 0000056e 96C5          MOV       *+XAR5[0],AL          ; |110| 
    4759                      .dwpsn  "src\os_connect_str.c",111,3
    4760 0000056f 0A45          INC       *-SP[5]               ; |111| 
    4761              DW$L$_os_strcpy$2$E:
    4762              L85:    
    4763              DW$L$_os_strcpy$3$B:
    4764                      .dwpsn  "src\os_connect_str.c",108,10
    4765 00000570 8A44          MOVL      XAR4,*-SP[4]          ; |108| 
    4766 00000571 92C4          MOV       AL,*+XAR4[0]          ; |108| 
    4767 00000572 EDF5          BF        L84,NEQ               ; |108| 
    4768                      ; branchcc occurs ; |108| 
    4769              DW$L$_os_strcpy$3$E:
    4770                      .dwpsn  "src\os_connect_str.c",113,2
    4771 00000573 8A42          MOVL      XAR4,*-SP[2]          ; |113| 
    4772 00000574 2BC4          MOV       *+XAR4[0],#0          ; |113| 
    4773                      .dwpsn  "src\os_connect_str.c",114,2
    4774 00000575 8A48          MOVL      XAR4,*-SP[8]          ; |114| 
    4775                      .dwpsn  "src\os_connect_str.c",115,1
    4776 00000576 FE88          SUBB      SP,#8                 ; |114| 
    4777                      .dwcfa  0x1d, -2
    4778 00000577 0006          LRETR
    4779                      ; return occurs
    4780              
    4781              DW$348  .dwtag  DW_TAG_loop
    4782                      .dwattr DW$348, DW_AT_name("C:\DOCUME~1\ADMINI~1\LOCALS~1\Temp\TI1962:L85:1:1347517680")
    4783                      .dwattr DW$348, DW_AT_begin_file("src\os_connect_str.c")
    4784                      .dwattr DW$348, DW_AT_begin_line(0x6c)
    4785                      .dwattr DW$348, DW_AT_end_line(0x6f)
    4786              DW$349  .dwtag  DW_TAG_loop_range
    4787                      .dwattr DW$349, DW_AT_low_pc(DW$L$_os_strcpy$3$B)
    4788                      .dwattr DW$349, DW_AT_high_pc(DW$L$_os_strcpy$3$E)
    4789              DW$350  .dwtag  DW_TAG_loop_range
    4790                      .dwattr DW$350, DW_AT_low_pc(DW$L$_os_strcpy$2$B)
    4791                      .dwattr DW$350, DW_AT_high_pc(DW$L$_os_strcpy$2$E)
    4792                      .dwendtag DW$348
    4793              
    4794                      .dwattr DW$341, DW_AT_end_file("src\os_connect_str.c")
    4795                      .dwattr DW$341, DW_AT_end_line(0x73)
    4796                      .dwattr DW$341, DW_AT_end_column(0x01)
TMS320C2000 COFF Assembler PC v4.1.3 Thu Sep 13 14:28:00 2012

Tools Copyright (c) 1996-2006 Texas Instruments Incorporated
C:\DOCUME~1\ADMINI~1\LOCALS~1\Temp\TI1962                            PAGE   93

    4797                      .dwendentry
    4798                      .dwendtag DW$341
    4799              
    4800 00000578               .sect   ".text"
    4801                      .global _os_string_locate_first
    4802              
    4803              DW$351  .dwtag  DW_TAG_subprogram, DW_AT_name("os_string_locate_first"), DW_AT_symbol_name("_os_string_locate
    4804                      .dwattr DW$351, DW_AT_low_pc(_os_string_locate_first)
    4805                      .dwattr DW$351, DW_AT_high_pc(0x00)
    4806                      .dwattr DW$351, DW_AT_begin_file("src\os_connect_str.c")
    4807                      .dwattr DW$351, DW_AT_begin_line(0x7b)
    4808                      .dwattr DW$351, DW_AT_begin_column(0x07)
    4809                      .dwpsn  "src\os_connect_str.c",124,1
    4810              
    4811                      .dwfde DW$CIE
    4812              
    4813              ;***************************************************************
    4814              ;* FNAME: _os_string_locate_first       FR SIZE:   8           *
    4815              ;*                                                             *
    4816              ;* FUNCTION ENVIRONMENT                                        *
    4817              ;*                                                             *
    4818              ;* FUNCTION PROPERTIES                                         *
    4819              ;*                            0 Parameter,  7 Auto,  0 SOE     *
    4820              ;***************************************************************
    4821              
    4822              _os_string_locate_first:
    4823                      .dwcfa  0x1d, -2
    4824                      .dwcfa  0x1c, 26, 0
    4825                      .dwcfa  0x09, 40, 26
    4826 00000578 FE08          ADDB      SP,#8
    4827                      .dwcfa  0x1d, -10
    4828              ;* AR4   assigned to _psrc
    4829              DW$352  .dwtag  DW_TAG_formal_parameter, DW_AT_name("psrc"), DW_AT_symbol_name("_psrc")
    4830                      .dwattr DW$352, DW_AT_type(*DW$T$88)
    4831                      .dwattr DW$352, DW_AT_location[DW_OP_reg12]
    4832              ;* AR5   assigned to _psearch
    4833              DW$353  .dwtag  DW_TAG_formal_parameter, DW_AT_name("psearch"), DW_AT_symbol_name("_psearch")
    4834                      .dwattr DW$353, DW_AT_type(*DW$T$88)
    4835                      .dwattr DW$353, DW_AT_location[DW_OP_reg14]
    4836              DW$354  .dwtag  DW_TAG_variable, DW_AT_name("psrc"), DW_AT_symbol_name("_psrc")
    4837                      .dwattr DW$354, DW_AT_type(*DW$T$88)
    4838                      .dwattr DW$354, DW_AT_location[DW_OP_breg20 -2]
    4839              DW$355  .dwtag  DW_TAG_variable, DW_AT_name("psearch"), DW_AT_symbol_name("_psearch")
    4840                      .dwattr DW$355, DW_AT_type(*DW$T$88)
    4841                      .dwattr DW$355, DW_AT_location[DW_OP_breg20 -4]
    4842              DW$356  .dwtag  DW_TAG_variable, DW_AT_name("offset"), DW_AT_symbol_name("_offset")
    4843                      .dwattr DW$356, DW_AT_type(*DW$T$23)
    4844                      .dwattr DW$356, DW_AT_location[DW_OP_breg20 -5]
    4845              DW$357  .dwtag  DW_TAG_variable, DW_AT_name("psearch_lenth"), DW_AT_symbol_name("_psearch_lenth")
    4846                      .dwattr DW$357, DW_AT_type(*DW$T$23)
    4847                      .dwattr DW$357, DW_AT_location[DW_OP_breg20 -6]
    4848              DW$358  .dwtag  DW_TAG_variable, DW_AT_name("psrc_lenth"), DW_AT_symbol_name("_psrc_lenth")
    4849                      .dwattr DW$358, DW_AT_type(*DW$T$23)
    4850                      .dwattr DW$358, DW_AT_location[DW_OP_breg20 -7]
    4851 00000579 A044          MOVL      *-SP[4],XAR5          ; |124| 
TMS320C2000 COFF Assembler PC v4.1.3 Thu Sep 13 14:28:00 2012

Tools Copyright (c) 1996-2006 Texas Instruments Incorporated
C:\DOCUME~1\ADMINI~1\LOCALS~1\Temp\TI1962                            PAGE   94

    4852 0000057a A842          MOVL      *-SP[2],XAR4          ; |124| 
    4853                      .dwpsn  "src\os_connect_str.c",126,10
    4854 0000057b 8A44          MOVL      XAR4,*-SP[4]          ; |126| 
    4855 0000057c 7640'         LCR       #_os_strlen           ; |126| 
         0000057d 053C 
    4856                      ; call occurs [#_os_strlen] ; |126| 
    4857 0000057e 9646          MOV       *-SP[6],AL            ; |126| 
    4858                      .dwpsn  "src\os_connect_str.c",127,10
    4859 0000057f 8A42          MOVL      XAR4,*-SP[2]          ; |127| 
    4860 00000580 7640'         LCR       #_os_strlen           ; |127| 
         00000581 053C 
    4861                      ; call occurs [#_os_strlen] ; |127| 
    4862 00000582 9647          MOV       *-SP[7],AL            ; |127| 
    4863                      .dwpsn  "src\os_connect_str.c",128,8
    4864 00000583 2B45          MOV       *-SP[5],#0            ; |128| 
    4865                      .dwpsn  "src\os_connect_str.c",128,19
    4866 00000584 9247          MOV       AL,*-SP[7]            ; |128| 
    4867 00000585 5445          CMP       AL,*-SP[5]            ; |128| 
    4868 00000586 6914          B         L88,LOS               ; |128| 
    4869                      ; branchcc occurs ; |128| 
    4870              L86:    
    4871              DW$L$_os_string_locate_first$2$B:
    4872                      .dwpsn  "src\os_connect_str.c",130,3
    4873 00000587 8845          MOVZ      AR6,*-SP[5]           ; |130| 
    4874 00000588 0642          MOVL      ACC,*-SP[2]           ; |130| 
    4875 00000589 8344          MOVL      XAR5,*-SP[4]          ; |130| 
    4876 0000058a 0DA6          ADDU      ACC,AR6               ; |130| 
    4877 0000058b 8AA9          MOVL      XAR4,ACC              ; |130| 
    4878 0000058c 9246          MOV       AL,*-SP[6]            ; |130| 
    4879 0000058d 7640'         LCR       #_os_memcmp           ; |130| 
         0000058e 0521 
    4880                      ; call occurs [#_os_memcmp] ; |130| 
    4881 0000058f 5200          CMPB      AL,#0                 ; |130| 
    4882 00000590 EC06          BF        L87,EQ                ; |130| 
    4883                      ; branchcc occurs ; |130| 
    4884              DW$L$_os_string_locate_first$2$E:
    4885                      .dwpsn  "src\os_connect_str.c",134,4
    4886 00000591 8845          MOVZ      AR6,*-SP[5]           ; |134| 
    4887 00000592 0642          MOVL      ACC,*-SP[2]           ; |134| 
    4888 00000593 0DA6          ADDU      ACC,AR6               ; |134| 
    4889 00000594 8AA9          MOVL      XAR4,ACC              ; |134| 
    4890 00000595 6F06          B         L89,UNC               ; |134| 
    4891                      ; branch occurs ; |134| 
    4892              L87:    
    4893              DW$L$_os_string_locate_first$4$B:
    4894                      .dwpsn  "src\os_connect_str.c",128,39
    4895 00000596 0A45          INC       *-SP[5]               ; |128| 
    4896                      .dwpsn  "src\os_connect_str.c",128,19
    4897 00000597 9247          MOV       AL,*-SP[7]            ; |128| 
    4898 00000598 5445          CMP       AL,*-SP[5]            ; |128| 
    4899 00000599 66EE          B         L86,HI                ; |128| 
    4900                      ; branchcc occurs ; |128| 
    4901              DW$L$_os_string_locate_first$4$E:
    4902              L88:    
    4903                      .dwpsn  "src\os_connect_str.c",137,2
TMS320C2000 COFF Assembler PC v4.1.3 Thu Sep 13 14:28:00 2012

Tools Copyright (c) 1996-2006 Texas Instruments Incorporated
C:\DOCUME~1\ADMINI~1\LOCALS~1\Temp\TI1962                            PAGE   95

    4904 0000059a D400          MOVB      XAR4,#0
    4905              L89:    
    4906                      .dwpsn  "src\os_connect_str.c",138,1
    4907 0000059b FE88          SUBB      SP,#8                 ; |137| 
    4908                      .dwcfa  0x1d, -2
    4909 0000059c 0006          LRETR
    4910                      ; return occurs
    4911              
    4912              DW$359  .dwtag  DW_TAG_loop
    4913                      .dwattr DW$359, DW_AT_name("C:\DOCUME~1\ADMINI~1\LOCALS~1\Temp\TI1962:L86:1:1347517680")
    4914                      .dwattr DW$359, DW_AT_begin_file("src\os_connect_str.c")
    4915                      .dwattr DW$359, DW_AT_begin_line(0x80)
    4916                      .dwattr DW$359, DW_AT_end_line(0x88)
    4917              DW$360  .dwtag  DW_TAG_loop_range
    4918                      .dwattr DW$360, DW_AT_low_pc(DW$L$_os_string_locate_first$2$B)
    4919                      .dwattr DW$360, DW_AT_high_pc(DW$L$_os_string_locate_first$2$E)
    4920              DW$361  .dwtag  DW_TAG_loop_range
    4921                      .dwattr DW$361, DW_AT_low_pc(DW$L$_os_string_locate_first$4$B)
    4922                      .dwattr DW$361, DW_AT_high_pc(DW$L$_os_string_locate_first$4$E)
    4923                      .dwendtag DW$359
    4924              
    4925                      .dwattr DW$351, DW_AT_end_file("src\os_connect_str.c")
    4926                      .dwattr DW$351, DW_AT_end_line(0x8a)
    4927                      .dwattr DW$351, DW_AT_end_column(0x01)
    4928                      .dwendentry
    4929                      .dwendtag DW$351
    4930              
    4931              ;***************************************************************
    4932              ;* UNDEFINED EXTERNAL REFERENCES                               *
    4933              ;***************************************************************
    4934                      .global _OS_EventWaitListInit
    4935                      .global _OSSemPend
    4936                      .global _OSTaskNameSet
    4937                      .global _OSTimeDly
    4938                      .global _OSSemSet
    4939                      .global _OSSemPost
    4940                      .global _OSTaskCreateExt
    4941                      .global _OSTaskDel
    4942                      .global _OSQFlush
    4943                      .global _OSPrioCur
    4944                      .global _OSQPost
    4945                      .global _OSTaskNameGet
    4946                      .global _memset
    4947                      .global _OSQCreate
    4948                      .global _OSSemCreate
    4949                      .global _OSQPend
    4950              
    4951              ;***************************************************************
    4952              ;* TYPE INFORMATION                                            *
    4953              ;***************************************************************
    4954              DW$T$3  .dwtag  DW_TAG_pointer_type
    4955                      .dwattr DW$T$3, DW_AT_address_class(0x16)
    4956              DW$T$51 .dwtag  DW_TAG_pointer_type, DW_AT_type(*DW$T$3)
    4957                      .dwattr DW$T$51, DW_AT_address_class(0x16)
    4958              
TMS320C2000 COFF Assembler PC v4.1.3 Thu Sep 13 14:28:00 2012

Tools Copyright (c) 1996-2006 Texas Instruments Incorporated
C:\DOCUME~1\ADMINI~1\LOCALS~1\Temp\TI1962                            PAGE   96

    4959              DW$T$55 .dwtag  DW_TAG_subroutine_type, DW_AT_type(*DW$T$3)
    4960                      .dwattr DW$T$55, DW_AT_language(DW_LANG_C)
    4961              DW$362  .dwtag  DW_TAG_formal_parameter, DW_AT_type(*DW$T$53)
    4962              DW$363  .dwtag  DW_TAG_formal_parameter, DW_AT_type(*DW$T$20)
    4963              DW$364  .dwtag  DW_TAG_formal_parameter, DW_AT_type(*DW$T$54)
    4964                      .dwendtag DW$T$55
    4965              
    4966              
    4967              DW$T$57 .dwtag  DW_TAG_array_type, DW_AT_type(*DW$T$3)
    4968                      .dwattr DW$T$57, DW_AT_language(DW_LANG_C)
    4969                      .dwattr DW$T$57, DW_AT_byte_size(0x06)
    4970              DW$365  .dwtag  DW_TAG_subrange_type
    4971                      .dwattr DW$365, DW_AT_upper_bound(0x02)
    4972                      .dwendtag DW$T$57
    4973              
    4974              
    4975              DW$T$32 .dwtag  DW_TAG_subroutine_type
    4976                      .dwattr DW$T$32, DW_AT_language(DW_LANG_C)
    4977              
    4978              DW$T$58 .dwtag  DW_TAG_subroutine_type
    4979                      .dwattr DW$T$58, DW_AT_language(DW_LANG_C)
    4980              DW$366  .dwtag  DW_TAG_formal_parameter, DW_AT_type(*DW$T$53)
    4981              DW$367  .dwtag  DW_TAG_formal_parameter, DW_AT_type(*DW$T$20)
    4982              DW$368  .dwtag  DW_TAG_formal_parameter, DW_AT_type(*DW$T$54)
    4983                      .dwendtag DW$T$58
    4984              
    4985              
    4986              DW$T$60 .dwtag  DW_TAG_subroutine_type
    4987                      .dwattr DW$T$60, DW_AT_language(DW_LANG_C)
    4988              DW$369  .dwtag  DW_TAG_formal_parameter, DW_AT_type(*DW$T$3)
    4989                      .dwendtag DW$T$60
    4990              
    4991              DW$T$61 .dwtag  DW_TAG_pointer_type, DW_AT_type(*DW$T$60)
    4992                      .dwattr DW$T$61, DW_AT_address_class(0x16)
    4993              
    4994              DW$T$62 .dwtag  DW_TAG_subroutine_type
    4995                      .dwattr DW$T$62, DW_AT_language(DW_LANG_C)
    4996              DW$370  .dwtag  DW_TAG_formal_parameter, DW_AT_type(*DW$T$19)
    4997              DW$371  .dwtag  DW_TAG_formal_parameter, DW_AT_type(*DW$T$54)
    4998              DW$372  .dwtag  DW_TAG_formal_parameter, DW_AT_type(*DW$T$54)
    4999                      .dwendtag DW$T$62
    5000              
    5001              
    5002              DW$T$64 .dwtag  DW_TAG_subroutine_type
    5003                      .dwattr DW$T$64, DW_AT_language(DW_LANG_C)
    5004              DW$373  .dwtag  DW_TAG_formal_parameter, DW_AT_type(*DW$T$20)
    5005                      .dwendtag DW$T$64
    5006              
    5007              
    5008              DW$T$66 .dwtag  DW_TAG_subroutine_type
    5009                      .dwattr DW$T$66, DW_AT_language(DW_LANG_C)
    5010              DW$374  .dwtag  DW_TAG_formal_parameter, DW_AT_type(*DW$T$53)
    5011                      .dwendtag DW$T$66
    5012              
    5013              
TMS320C2000 COFF Assembler PC v4.1.3 Thu Sep 13 14:28:00 2012

Tools Copyright (c) 1996-2006 Texas Instruments Incorporated
C:\DOCUME~1\ADMINI~1\LOCALS~1\Temp\TI1962                            PAGE   97

    5014              DW$T$70 .dwtag  DW_TAG_subroutine_type
    5015                      .dwattr DW$T$70, DW_AT_language(DW_LANG_C)
    5016              DW$375  .dwtag  DW_TAG_formal_parameter, DW_AT_type(*DW$T$69)
    5017                      .dwendtag DW$T$70
    5018              
    5019              
    5020              DW$T$75 .dwtag  DW_TAG_subroutine_type
    5021                      .dwattr DW$T$75, DW_AT_language(DW_LANG_C)
    5022              DW$376  .dwtag  DW_TAG_formal_parameter, DW_AT_type(*DW$T$74)
    5023              DW$377  .dwtag  DW_TAG_formal_parameter, DW_AT_type(*DW$T$51)
    5024              DW$378  .dwtag  DW_TAG_formal_parameter, DW_AT_type(*DW$T$11)
    5025                      .dwendtag DW$T$75
    5026              
    5027              
    5028              DW$T$77 .dwtag  DW_TAG_subroutine_type
    5029                      .dwattr DW$T$77, DW_AT_language(DW_LANG_C)
    5030              DW$379  .dwtag  DW_TAG_formal_parameter, DW_AT_type(*DW$T$6)
    5031                      .dwendtag DW$T$77
    5032              
    5033              
    5034              DW$T$79 .dwtag  DW_TAG_subroutine_type
    5035                      .dwattr DW$T$79, DW_AT_language(DW_LANG_C)
    5036              DW$380  .dwtag  DW_TAG_formal_parameter, DW_AT_type(*DW$T$41)
    5037                      .dwendtag DW$T$79
    5038              
    5039              
    5040              DW$T$81 .dwtag  DW_TAG_subroutine_type
    5041                      .dwattr DW$T$81, DW_AT_language(DW_LANG_C)
    5042              DW$381  .dwtag  DW_TAG_formal_parameter, DW_AT_type(*DW$T$41)
    5043              DW$382  .dwtag  DW_TAG_formal_parameter, DW_AT_type(*DW$T$6)
    5044              DW$383  .dwtag  DW_TAG_formal_parameter, DW_AT_type(*DW$T$3)
    5045                      .dwendtag DW$T$81
    5046              
    5047              
    5048              DW$T$82 .dwtag  DW_TAG_subroutine_type
    5049                      .dwattr DW$T$82, DW_AT_language(DW_LANG_C)
    5050              DW$384  .dwtag  DW_TAG_formal_parameter, DW_AT_type(*DW$T$23)
    5051                      .dwendtag DW$T$82
    5052              
    5053              
    5054              DW$T$84 .dwtag  DW_TAG_subroutine_type
    5055                      .dwattr DW$T$84, DW_AT_language(DW_LANG_C)
    5056              DW$385  .dwtag  DW_TAG_formal_parameter, DW_AT_type(*DW$T$23)
    5057              DW$386  .dwtag  DW_TAG_formal_parameter, DW_AT_type(*DW$T$23)
    5058                      .dwendtag DW$T$84
    5059              
    5060              
    5061              DW$T$86 .dwtag  DW_TAG_subroutine_type
    5062                      .dwattr DW$T$86, DW_AT_language(DW_LANG_C)
    5063              DW$387  .dwtag  DW_TAG_formal_parameter, DW_AT_type(*DW$T$23)
    5064              DW$388  .dwtag  DW_TAG_formal_parameter, DW_AT_type(*DW$T$23)
    5065              DW$389  .dwtag  DW_TAG_formal_parameter, DW_AT_type(*DW$T$23)
    5066                      .dwendtag DW$T$86
    5067              
    5068              
TMS320C2000 COFF Assembler PC v4.1.3 Thu Sep 13 14:28:00 2012

Tools Copyright (c) 1996-2006 Texas Instruments Incorporated
C:\DOCUME~1\ADMINI~1\LOCALS~1\Temp\TI1962                            PAGE   98

    5069              DW$T$89 .dwtag  DW_TAG_subroutine_type
    5070                      .dwattr DW$T$89, DW_AT_language(DW_LANG_C)
    5071              DW$390  .dwtag  DW_TAG_formal_parameter, DW_AT_type(*DW$T$88)
    5072                      .dwendtag DW$T$89
    5073              
    5074              
    5075              DW$T$90 .dwtag  DW_TAG_subroutine_type
    5076                      .dwattr DW$T$90, DW_AT_language(DW_LANG_C)
    5077              DW$391  .dwtag  DW_TAG_formal_parameter, DW_AT_type(*DW$T$3)
    5078              DW$392  .dwtag  DW_TAG_formal_parameter, DW_AT_type(*DW$T$3)
    5079              DW$393  .dwtag  DW_TAG_formal_parameter, DW_AT_type(*DW$T$23)
    5080                      .dwendtag DW$T$90
    5081              
    5082              
    5083              DW$T$92 .dwtag  DW_TAG_subroutine_type
    5084                      .dwattr DW$T$92, DW_AT_language(DW_LANG_C)
    5085              DW$394  .dwtag  DW_TAG_formal_parameter, DW_AT_type(*DW$T$3)
    5086              DW$395  .dwtag  DW_TAG_formal_parameter, DW_AT_type(*DW$T$6)
    5087              DW$396  .dwtag  DW_TAG_formal_parameter, DW_AT_type(*DW$T$23)
    5088                      .dwendtag DW$T$92
    5089              
    5090              
    5091              DW$T$94 .dwtag  DW_TAG_subroutine_type
    5092                      .dwattr DW$T$94, DW_AT_language(DW_LANG_C)
    5093              DW$397  .dwtag  DW_TAG_formal_parameter, DW_AT_type(*DW$T$88)
    5094              DW$398  .dwtag  DW_TAG_formal_parameter, DW_AT_type(*DW$T$88)
    5095                      .dwendtag DW$T$94
    5096              
    5097              DW$T$6  .dwtag  DW_TAG_base_type, DW_AT_name("unsigned char")
    5098                      .dwattr DW$T$6, DW_AT_encoding(DW_ATE_unsigned_char)
    5099                      .dwattr DW$T$6, DW_AT_byte_size(0x01)
    5100              DW$T$19 .dwtag  DW_TAG_typedef, DW_AT_name("INT8U"), DW_AT_type(*DW$T$6)
    5101                      .dwattr DW$T$19, DW_AT_language(DW_LANG_C)
    5102              DW$T$54 .dwtag  DW_TAG_pointer_type, DW_AT_type(*DW$T$19)
    5103                      .dwattr DW$T$54, DW_AT_address_class(0x16)
    5104              
    5105              DW$T$95 .dwtag  DW_TAG_subroutine_type, DW_AT_type(*DW$T$19)
    5106                      .dwattr DW$T$95, DW_AT_language(DW_LANG_C)
    5107              DW$399  .dwtag  DW_TAG_formal_parameter, DW_AT_type(*DW$T$53)
    5108                      .dwendtag DW$T$95
    5109              
    5110              
    5111              DW$T$97 .dwtag  DW_TAG_subroutine_type, DW_AT_type(*DW$T$19)
    5112                      .dwattr DW$T$97, DW_AT_language(DW_LANG_C)
    5113              DW$400  .dwtag  DW_TAG_formal_parameter, DW_AT_type(*DW$T$53)
    5114              DW$401  .dwtag  DW_TAG_formal_parameter, DW_AT_type(*DW$T$3)
    5115                      .dwendtag DW$T$97
    5116              
    5117              
    5118              DW$T$102        .dwtag  DW_TAG_subroutine_type, DW_AT_type(*DW$T$19)
    5119                      .dwattr DW$T$102, DW_AT_language(DW_LANG_C)
    5120              DW$402  .dwtag  DW_TAG_formal_parameter, DW_AT_type(*DW$T$61)
    5121              DW$403  .dwtag  DW_TAG_formal_parameter, DW_AT_type(*DW$T$3)
    5122              DW$404  .dwtag  DW_TAG_formal_parameter, DW_AT_type(*DW$T$100)
    5123              DW$405  .dwtag  DW_TAG_formal_parameter, DW_AT_type(*DW$T$19)
TMS320C2000 COFF Assembler PC v4.1.3 Thu Sep 13 14:28:00 2012

Tools Copyright (c) 1996-2006 Texas Instruments Incorporated
C:\DOCUME~1\ADMINI~1\LOCALS~1\Temp\TI1962                            PAGE   99

    5124              DW$406  .dwtag  DW_TAG_formal_parameter, DW_AT_type(*DW$T$20)
    5125              DW$407  .dwtag  DW_TAG_formal_parameter, DW_AT_type(*DW$T$100)
    5126              DW$408  .dwtag  DW_TAG_formal_parameter, DW_AT_type(*DW$T$101)
    5127              DW$409  .dwtag  DW_TAG_formal_parameter, DW_AT_type(*DW$T$3)
    5128              DW$410  .dwtag  DW_TAG_formal_parameter, DW_AT_type(*DW$T$20)
    5129                      .dwendtag DW$T$102
    5130              
    5131              
    5132              DW$T$104        .dwtag  DW_TAG_subroutine_type, DW_AT_type(*DW$T$19)
    5133                      .dwattr DW$T$104, DW_AT_language(DW_LANG_C)
    5134              DW$411  .dwtag  DW_TAG_formal_parameter, DW_AT_type(*DW$T$19)
    5135                      .dwendtag DW$T$104
    5136              
    5137              
    5138              DW$T$106        .dwtag  DW_TAG_subroutine_type, DW_AT_type(*DW$T$19)
    5139                      .dwattr DW$T$106, DW_AT_language(DW_LANG_C)
    5140              DW$412  .dwtag  DW_TAG_formal_parameter, DW_AT_type(*DW$T$19)
    5141              DW$413  .dwtag  DW_TAG_formal_parameter, DW_AT_type(*DW$T$54)
    5142              DW$414  .dwtag  DW_TAG_formal_parameter, DW_AT_type(*DW$T$54)
    5143                      .dwendtag DW$T$106
    5144              
    5145              DW$T$24 .dwtag  DW_TAG_pointer_type, DW_AT_type(*DW$T$6)
    5146                      .dwattr DW$T$24, DW_AT_address_class(0x16)
    5147              DW$T$41 .dwtag  DW_TAG_typedef, DW_AT_name("dev_id_t"), DW_AT_type(*DW$T$6)
    5148                      .dwattr DW$T$41, DW_AT_language(DW_LANG_C)
    5149              
    5150              DW$T$132        .dwtag  DW_TAG_subroutine_type, DW_AT_type(*DW$T$41)
    5151                      .dwattr DW$T$132, DW_AT_language(DW_LANG_C)
    5152              DW$415  .dwtag  DW_TAG_formal_parameter, DW_AT_type(*DW$T$131)
    5153              DW$416  .dwtag  DW_TAG_formal_parameter, DW_AT_type(*DW$T$88)
    5154                      .dwendtag DW$T$132
    5155              
    5156              
    5157              DW$T$109        .dwtag  DW_TAG_subroutine_type, DW_AT_type(*DW$T$6)
    5158                      .dwattr DW$T$109, DW_AT_language(DW_LANG_C)
    5159              DW$417  .dwtag  DW_TAG_formal_parameter, DW_AT_type(*DW$T$108)
    5160                      .dwendtag DW$T$109
    5161              
    5162              
    5163              DW$T$114        .dwtag  DW_TAG_subroutine_type, DW_AT_type(*DW$T$6)
    5164                      .dwattr DW$T$114, DW_AT_language(DW_LANG_C)
    5165              DW$418  .dwtag  DW_TAG_formal_parameter, DW_AT_type(*DW$T$113)
    5166              DW$419  .dwtag  DW_TAG_formal_parameter, DW_AT_type(*DW$T$11)
    5167                      .dwendtag DW$T$114
    5168              
    5169              
    5170              DW$T$116        .dwtag  DW_TAG_subroutine_type, DW_AT_type(*DW$T$6)
    5171                      .dwattr DW$T$116, DW_AT_language(DW_LANG_C)
    5172              DW$420  .dwtag  DW_TAG_formal_parameter, DW_AT_type(*DW$T$112)
    5173              DW$421  .dwtag  DW_TAG_formal_parameter, DW_AT_type(*DW$T$11)
    5174                      .dwendtag DW$T$116
    5175              
    5176              
    5177              DW$T$118        .dwtag  DW_TAG_subroutine_type, DW_AT_type(*DW$T$6)
    5178                      .dwattr DW$T$118, DW_AT_language(DW_LANG_C)
TMS320C2000 COFF Assembler PC v4.1.3 Thu Sep 13 14:28:00 2012

Tools Copyright (c) 1996-2006 Texas Instruments Incorporated
C:\DOCUME~1\ADMINI~1\LOCALS~1\Temp\TI1962                            PAGE  100

    5179              DW$422  .dwtag  DW_TAG_formal_parameter, DW_AT_type(*DW$T$23)
    5180                      .dwendtag DW$T$118
    5181              
    5182              
    5183              DW$T$121        .dwtag  DW_TAG_subroutine_type, DW_AT_type(*DW$T$120)
    5184                      .dwattr DW$T$121, DW_AT_language(DW_LANG_C)
    5185              DW$423  .dwtag  DW_TAG_formal_parameter, DW_AT_type(*DW$T$61)
    5186              DW$424  .dwtag  DW_TAG_formal_parameter, DW_AT_type(*DW$T$6)
    5187              DW$425  .dwtag  DW_TAG_formal_parameter, DW_AT_type(*DW$T$23)
    5188                      .dwendtag DW$T$121
    5189              
    5190              
    5191              DW$T$122        .dwtag  DW_TAG_subroutine_type, DW_AT_type(*DW$T$120)
    5192                      .dwattr DW$T$122, DW_AT_language(DW_LANG_C)
    5193              DW$426  .dwtag  DW_TAG_formal_parameter, DW_AT_type(*DW$T$3)
    5194              DW$427  .dwtag  DW_TAG_formal_parameter, DW_AT_type(*DW$T$3)
    5195              DW$428  .dwtag  DW_TAG_formal_parameter, DW_AT_type(*DW$T$23)
    5196                      .dwendtag DW$T$122
    5197              
    5198              
    5199              DW$T$124        .dwtag  DW_TAG_subroutine_type, DW_AT_type(*DW$T$6)
    5200                      .dwattr DW$T$124, DW_AT_language(DW_LANG_C)
    5201              DW$429  .dwtag  DW_TAG_formal_parameter, DW_AT_type(*DW$T$61)
    5202              DW$430  .dwtag  DW_TAG_formal_parameter, DW_AT_type(*DW$T$23)
    5203                      .dwendtag DW$T$124
    5204              
    5205              
    5206              DW$T$126        .dwtag  DW_TAG_subroutine_type, DW_AT_type(*DW$T$6)
    5207                      .dwattr DW$T$126, DW_AT_language(DW_LANG_C)
    5208              DW$431  .dwtag  DW_TAG_formal_parameter, DW_AT_type(*DW$T$61)
    5209                      .dwendtag DW$T$126
    5210              
    5211              
    5212              DW$T$127        .dwtag  DW_TAG_subroutine_type, DW_AT_type(*DW$T$6)
    5213                      .dwattr DW$T$127, DW_AT_language(DW_LANG_C)
    5214              DW$432  .dwtag  DW_TAG_formal_parameter, DW_AT_type(*DW$T$6)
    5215                      .dwendtag DW$T$127
    5216              
    5217              
    5218              DW$T$129        .dwtag  DW_TAG_subroutine_type, DW_AT_type(*DW$T$6)
    5219                      .dwattr DW$T$129, DW_AT_language(DW_LANG_C)
    5220              DW$433  .dwtag  DW_TAG_formal_parameter, DW_AT_type(*DW$T$6)
    5221              DW$434  .dwtag  DW_TAG_formal_parameter, DW_AT_type(*DW$T$88)
    5222                      .dwendtag DW$T$129
    5223              
    5224              
    5225              DW$T$133        .dwtag  DW_TAG_array_type, DW_AT_type(*DW$T$6)
    5226                      .dwattr DW$T$133, DW_AT_language(DW_LANG_C)
    5227                      .dwattr DW$T$133, DW_AT_byte_size(0x30)
    5228              DW$435  .dwtag  DW_TAG_subrange_type
    5229                      .dwattr DW$435, DW_AT_upper_bound(0x2f)
    5230                      .dwendtag DW$T$133
    5231              
    5232              DW$T$10 .dwtag  DW_TAG_base_type, DW_AT_name("int")
    5233                      .dwattr DW$T$10, DW_AT_encoding(DW_ATE_signed)
TMS320C2000 COFF Assembler PC v4.1.3 Thu Sep 13 14:28:00 2012

Tools Copyright (c) 1996-2006 Texas Instruments Incorporated
C:\DOCUME~1\ADMINI~1\LOCALS~1\Temp\TI1962                            PAGE  101

    5234                      .dwattr DW$T$10, DW_AT_byte_size(0x01)
    5235              
    5236              DW$T$135        .dwtag  DW_TAG_subroutine_type, DW_AT_type(*DW$T$10)
    5237                      .dwattr DW$T$135, DW_AT_language(DW_LANG_C)
    5238              DW$T$11 .dwtag  DW_TAG_base_type, DW_AT_name("unsigned int")
    5239                      .dwattr DW$T$11, DW_AT_encoding(DW_ATE_unsigned)
    5240                      .dwattr DW$T$11, DW_AT_byte_size(0x01)
    5241              DW$T$20 .dwtag  DW_TAG_typedef, DW_AT_name("INT16U"), DW_AT_type(*DW$T$11)
    5242                      .dwattr DW$T$20, DW_AT_language(DW_LANG_C)
    5243              DW$T$23 .dwtag  DW_TAG_typedef, DW_AT_name("Bsize_t"), DW_AT_type(*DW$T$11)
    5244                      .dwattr DW$T$23, DW_AT_language(DW_LANG_C)
    5245              
    5246              DW$T$141        .dwtag  DW_TAG_subroutine_type, DW_AT_type(*DW$T$23)
    5247                      .dwattr DW$T$141, DW_AT_language(DW_LANG_C)
    5248              DW$436  .dwtag  DW_TAG_formal_parameter, DW_AT_type(*DW$T$41)
    5249              DW$437  .dwtag  DW_TAG_formal_parameter, DW_AT_type(*DW$T$24)
    5250              DW$438  .dwtag  DW_TAG_formal_parameter, DW_AT_type(*DW$T$23)
    5251              DW$439  .dwtag  DW_TAG_formal_parameter, DW_AT_type(*DW$T$3)
    5252                      .dwendtag DW$T$141
    5253              
    5254              
    5255              DW$T$143        .dwtag  DW_TAG_subroutine_type, DW_AT_type(*DW$T$23)
    5256                      .dwattr DW$T$143, DW_AT_language(DW_LANG_C)
    5257              DW$440  .dwtag  DW_TAG_formal_parameter, DW_AT_type(*DW$T$142)
    5258                      .dwendtag DW$T$143
    5259              
    5260              
    5261              DW$T$144        .dwtag  DW_TAG_subroutine_type, DW_AT_type(*DW$T$23)
    5262                      .dwattr DW$T$144, DW_AT_language(DW_LANG_C)
    5263              DW$441  .dwtag  DW_TAG_formal_parameter, DW_AT_type(*DW$T$88)
    5264                      .dwendtag DW$T$144
    5265              
    5266              
    5267              DW$T$146        .dwtag  DW_TAG_subroutine_type, DW_AT_type(*DW$T$23)
    5268                      .dwattr DW$T$146, DW_AT_language(DW_LANG_C)
    5269              DW$T$100        .dwtag  DW_TAG_pointer_type, DW_AT_type(*DW$T$99)
    5270                      .dwattr DW$T$100, DW_AT_address_class(0x16)
    5271              
    5272              DW$T$138        .dwtag  DW_TAG_array_type, DW_AT_type(*DW$T$99)
    5273                      .dwattr DW$T$138, DW_AT_language(DW_LANG_C)
    5274                      .dwattr DW$T$138, DW_AT_byte_size(0x1b8a)
    5275              DW$442  .dwtag  DW_TAG_subrange_type
    5276                      .dwattr DW$442, DW_AT_upper_bound(0x2e)
    5277              DW$443  .dwtag  DW_TAG_subrange_type
    5278                      .dwattr DW$443, DW_AT_upper_bound(0x95)
    5279                      .dwendtag DW$T$138
    5280              
    5281              
    5282              DW$T$140        .dwtag  DW_TAG_array_type, DW_AT_type(*DW$T$99)
    5283                      .dwattr DW$T$140, DW_AT_language(DW_LANG_C)
    5284                      .dwattr DW$T$140, DW_AT_byte_size(0x100)
    5285              DW$444  .dwtag  DW_TAG_subrange_type
    5286                      .dwattr DW$444, DW_AT_upper_bound(0xff)
    5287                      .dwendtag DW$T$140
    5288              
TMS320C2000 COFF Assembler PC v4.1.3 Thu Sep 13 14:28:00 2012

Tools Copyright (c) 1996-2006 Texas Instruments Incorporated
C:\DOCUME~1\ADMINI~1\LOCALS~1\Temp\TI1962                            PAGE  102

    5289              DW$T$101        .dwtag  DW_TAG_typedef, DW_AT_name("INT32U"), DW_AT_type(*DW$T$13)
    5290                      .dwattr DW$T$101, DW_AT_language(DW_LANG_C)
    5291              DW$T$53 .dwtag  DW_TAG_pointer_type, DW_AT_type(*DW$T$52)
    5292                      .dwattr DW$T$53, DW_AT_address_class(0x16)
    5293              
    5294              DW$T$147        .dwtag  DW_TAG_subroutine_type, DW_AT_type(*DW$T$53)
    5295                      .dwattr DW$T$147, DW_AT_language(DW_LANG_C)
    5296              DW$445  .dwtag  DW_TAG_formal_parameter, DW_AT_type(*DW$T$51)
    5297              DW$446  .dwtag  DW_TAG_formal_parameter, DW_AT_type(*DW$T$20)
    5298                      .dwendtag DW$T$147
    5299              
    5300              
    5301              DW$T$149        .dwtag  DW_TAG_subroutine_type, DW_AT_type(*DW$T$53)
    5302                      .dwattr DW$T$149, DW_AT_language(DW_LANG_C)
    5303              DW$447  .dwtag  DW_TAG_formal_parameter, DW_AT_type(*DW$T$20)
    5304                      .dwendtag DW$T$149
    5305              
    5306              DW$T$69 .dwtag  DW_TAG_pointer_type, DW_AT_type(*DW$T$68)
    5307                      .dwattr DW$T$69, DW_AT_address_class(0x16)
    5308              DW$T$108        .dwtag  DW_TAG_pointer_type, DW_AT_type(*DW$T$69)
    5309                      .dwattr DW$T$108, DW_AT_address_class(0x16)
    5310              DW$T$73 .dwtag  DW_TAG_pointer_type, DW_AT_type(*DW$T$72)
    5311                      .dwattr DW$T$73, DW_AT_address_class(0x16)
    5312              DW$T$74 .dwtag  DW_TAG_pointer_type, DW_AT_type(*DW$T$73)
    5313                      .dwattr DW$T$74, DW_AT_address_class(0x16)
    5314              DW$T$112        .dwtag  DW_TAG_pointer_type, DW_AT_type(*DW$T$111)
    5315                      .dwattr DW$T$112, DW_AT_address_class(0x16)
    5316              DW$T$113        .dwtag  DW_TAG_pointer_type, DW_AT_type(*DW$T$112)
    5317                      .dwattr DW$T$113, DW_AT_address_class(0x16)
    5318              DW$T$131        .dwtag  DW_TAG_pointer_type, DW_AT_type(*DW$T$130)
    5319                      .dwattr DW$T$131, DW_AT_address_class(0x16)
    5320              DW$T$142        .dwtag  DW_TAG_pointer_type, DW_AT_type(*DW$T$48)
    5321                      .dwattr DW$T$142, DW_AT_address_class(0x16)
    5322              DW$T$160        .dwtag  DW_TAG_pointer_type, DW_AT_type(*DW$T$159)
    5323                      .dwattr DW$T$160, DW_AT_address_class(0x16)
    5324              
    5325              DW$T$161        .dwtag  DW_TAG_subroutine_type, DW_AT_type(*DW$T$160)
    5326                      .dwattr DW$T$161, DW_AT_language(DW_LANG_C)
    5327              
    5328              DW$T$163        .dwtag  DW_TAG_array_type, DW_AT_type(*DW$T$159)
    5329                      .dwattr DW$T$163, DW_AT_language(DW_LANG_C)
    5330                      .dwattr DW$T$163, DW_AT_byte_size(0x0c)
    5331              DW$448  .dwtag  DW_TAG_subrange_type
    5332                      .dwattr DW$448, DW_AT_upper_bound(0x02)
    5333                      .dwendtag DW$T$163
    5334              
    5335              DW$T$88 .dwtag  DW_TAG_pointer_type, DW_AT_type(*DW$T$42)
    5336                      .dwattr DW$T$88, DW_AT_address_class(0x16)
    5337              
    5338              DW$T$151        .dwtag  DW_TAG_subroutine_type, DW_AT_type(*DW$T$88)
    5339                      .dwattr DW$T$151, DW_AT_language(DW_LANG_C)
    5340              DW$449  .dwtag  DW_TAG_formal_parameter, DW_AT_type(*DW$T$88)
    5341              DW$450  .dwtag  DW_TAG_formal_parameter, DW_AT_type(*DW$T$88)
    5342                      .dwendtag DW$T$151
    5343              
TMS320C2000 COFF Assembler PC v4.1.3 Thu Sep 13 14:28:00 2012

Tools Copyright (c) 1996-2006 Texas Instruments Incorporated
C:\DOCUME~1\ADMINI~1\LOCALS~1\Temp\TI1962                            PAGE  103

    5344              
    5345              DW$T$154        .dwtag  DW_TAG_array_type, DW_AT_type(*DW$T$42)
    5346                      .dwattr DW$T$154, DW_AT_language(DW_LANG_C)
    5347                      .dwattr DW$T$154, DW_AT_byte_size(0x14)
    5348              DW$451  .dwtag  DW_TAG_subrange_type
    5349                      .dwattr DW$451, DW_AT_upper_bound(0x13)
    5350                      .dwendtag DW$T$154
    5351              
    5352              
    5353              DW$T$156        .dwtag  DW_TAG_array_type, DW_AT_type(*DW$T$42)
    5354                      .dwattr DW$T$156, DW_AT_language(DW_LANG_C)
    5355                      .dwattr DW$T$156, DW_AT_byte_size(0x0c)
    5356              DW$452  .dwtag  DW_TAG_subrange_type
    5357                      .dwattr DW$452, DW_AT_upper_bound(0x0b)
    5358                      .dwendtag DW$T$156
    5359              
    5360              DW$T$167        .dwtag  DW_TAG_typedef, DW_AT_name("os_dirver_maneger_t"), DW_AT_type(*DW$T$47)
    5361                      .dwattr DW$T$167, DW_AT_language(DW_LANG_C)
    5362              DW$T$169        .dwtag  DW_TAG_typedef, DW_AT_name("app_mod_maneger_t"), DW_AT_type(*DW$T$50)
    5363                      .dwattr DW$T$169, DW_AT_language(DW_LANG_C)
    5364              DW$T$120        .dwtag  DW_TAG_typedef, DW_AT_name("BOOL"), DW_AT_type(*DW$T$6)
    5365                      .dwattr DW$T$120, DW_AT_language(DW_LANG_C)
    5366              DW$T$99 .dwtag  DW_TAG_typedef, DW_AT_name("OS_STK"), DW_AT_type(*DW$T$11)
    5367                      .dwattr DW$T$99, DW_AT_language(DW_LANG_C)
    5368              DW$T$13 .dwtag  DW_TAG_base_type, DW_AT_name("unsigned long")
    5369                      .dwattr DW$T$13, DW_AT_encoding(DW_ATE_unsigned)
    5370                      .dwattr DW$T$13, DW_AT_byte_size(0x02)
    5371              DW$T$52 .dwtag  DW_TAG_typedef, DW_AT_name("OS_EVENT"), DW_AT_type(*DW$T$22)
    5372                      .dwattr DW$T$52, DW_AT_language(DW_LANG_C)
    5373              DW$T$68 .dwtag  DW_TAG_typedef, DW_AT_name("a_lock_t"), DW_AT_type(*DW$T$52)
    5374                      .dwattr DW$T$68, DW_AT_language(DW_LANG_C)
    5375              DW$T$72 .dwtag  DW_TAG_typedef, DW_AT_name("a_q_t"), DW_AT_type(*DW$T$52)
    5376                      .dwattr DW$T$72, DW_AT_language(DW_LANG_C)
    5377              DW$T$111        .dwtag  DW_TAG_typedef, DW_AT_name("a_sem_t"), DW_AT_type(*DW$T$52)
    5378                      .dwattr DW$T$111, DW_AT_language(DW_LANG_C)
    5379              DW$T$130        .dwtag  DW_TAG_typedef, DW_AT_name("os_dirver_operate_t"), DW_AT_type(*DW$T$36)
    5380                      .dwattr DW$T$130, DW_AT_language(DW_LANG_C)
    5381              DW$T$48 .dwtag  DW_TAG_typedef, DW_AT_name("app_mod_inlet_t"), DW_AT_type(*DW$T$39)
    5382                      .dwattr DW$T$48, DW_AT_language(DW_LANG_C)
    5383              DW$T$159        .dwtag  DW_TAG_typedef, DW_AT_name("app_mod_handle_msg_t"), DW_AT_type(*DW$T$40)
    5384                      .dwattr DW$T$159, DW_AT_language(DW_LANG_C)
    5385              DW$T$42 .dwtag  DW_TAG_base_type, DW_AT_name("signed char")
    5386                      .dwattr DW$T$42, DW_AT_encoding(DW_ATE_signed_char)
    5387                      .dwattr DW$T$42, DW_AT_byte_size(0x01)
    5388              
    5389              DW$T$47 .dwtag  DW_TAG_structure_type
    5390                      .dwattr DW$T$47, DW_AT_byte_size(0x2be)
    5391              DW$453  .dwtag  DW_TAG_member, DW_AT_type(*DW$T$23)
    5392                      .dwattr DW$453, DW_AT_name("real_size"), DW_AT_symbol_name("_real_size")
    5393                      .dwattr DW$453, DW_AT_data_member_location[DW_OP_plus_uconst 0x0]
    5394                      .dwattr DW$453, DW_AT_accessibility(DW_ACCESS_public)
    5395              DW$454  .dwtag  DW_TAG_member, DW_AT_type(*DW$T$46)
    5396                      .dwattr DW$454, DW_AT_name("os_driver_member"), DW_AT_symbol_name("_os_driver_member")
    5397                      .dwattr DW$454, DW_AT_data_member_location[DW_OP_plus_uconst 0x2]
    5398                      .dwattr DW$454, DW_AT_accessibility(DW_ACCESS_public)
TMS320C2000 COFF Assembler PC v4.1.3 Thu Sep 13 14:28:00 2012

Tools Copyright (c) 1996-2006 Texas Instruments Incorporated
C:\DOCUME~1\ADMINI~1\LOCALS~1\Temp\TI1962                            PAGE  104

    5399                      .dwendtag DW$T$47
    5400              
    5401              
    5402              DW$T$50 .dwtag  DW_TAG_structure_type
    5403                      .dwattr DW$T$50, DW_AT_byte_size(0x5c)
    5404              DW$455  .dwtag  DW_TAG_member, DW_AT_type(*DW$T$23)
    5405                      .dwattr DW$455, DW_AT_name("real_mod_num"), DW_AT_symbol_name("_real_mod_num")
    5406                      .dwattr DW$455, DW_AT_data_member_location[DW_OP_plus_uconst 0x0]
    5407                      .dwattr DW$455, DW_AT_accessibility(DW_ACCESS_public)
    5408              DW$456  .dwtag  DW_TAG_member, DW_AT_type(*DW$T$49)
    5409                      .dwattr DW$456, DW_AT_name("mod_inlet_list"), DW_AT_symbol_name("_mod_inlet_list")
    5410                      .dwattr DW$456, DW_AT_data_member_location[DW_OP_plus_uconst 0x2]
    5411                      .dwattr DW$456, DW_AT_accessibility(DW_ACCESS_public)
    5412                      .dwendtag DW$T$50
    5413              
    5414              
    5415              DW$T$22 .dwtag  DW_TAG_structure_type
    5416                      .dwattr DW$T$22, DW_AT_name("os_event")
    5417                      .dwattr DW$T$22, DW_AT_byte_size(0x0e)
    5418              DW$457  .dwtag  DW_TAG_member, DW_AT_type(*DW$T$19)
    5419                      .dwattr DW$457, DW_AT_name("OSEventType"), DW_AT_symbol_name("_OSEventType")
    5420                      .dwattr DW$457, DW_AT_data_member_location[DW_OP_plus_uconst 0x0]
    5421                      .dwattr DW$457, DW_AT_accessibility(DW_ACCESS_public)
    5422              DW$458  .dwtag  DW_TAG_member, DW_AT_type(*DW$T$3)
    5423                      .dwattr DW$458, DW_AT_name("OSEventPtr"), DW_AT_symbol_name("_OSEventPtr")
    5424                      .dwattr DW$458, DW_AT_data_member_location[DW_OP_plus_uconst 0x2]
    5425                      .dwattr DW$458, DW_AT_accessibility(DW_ACCESS_public)
    5426              DW$459  .dwtag  DW_TAG_member, DW_AT_type(*DW$T$20)
    5427                      .dwattr DW$459, DW_AT_name("OSEventCnt"), DW_AT_symbol_name("_OSEventCnt")
    5428                      .dwattr DW$459, DW_AT_data_member_location[DW_OP_plus_uconst 0x4]
    5429                      .dwattr DW$459, DW_AT_accessibility(DW_ACCESS_public)
    5430              DW$460  .dwtag  DW_TAG_member, DW_AT_type(*DW$T$19)
    5431                      .dwattr DW$460, DW_AT_name("OSEventGrp"), DW_AT_symbol_name("_OSEventGrp")
    5432                      .dwattr DW$460, DW_AT_data_member_location[DW_OP_plus_uconst 0x5]
    5433                      .dwattr DW$460, DW_AT_accessibility(DW_ACCESS_public)
    5434              DW$461  .dwtag  DW_TAG_member, DW_AT_type(*DW$T$21)
    5435                      .dwattr DW$461, DW_AT_name("OSEventTbl"), DW_AT_symbol_name("_OSEventTbl")
    5436                      .dwattr DW$461, DW_AT_data_member_location[DW_OP_plus_uconst 0x6]
    5437                      .dwattr DW$461, DW_AT_accessibility(DW_ACCESS_public)
    5438                      .dwendtag DW$T$22
    5439              
    5440              
    5441              DW$T$36 .dwtag  DW_TAG_structure_type
    5442                      .dwattr DW$T$36, DW_AT_byte_size(0x0a)
    5443              DW$462  .dwtag  DW_TAG_member, DW_AT_type(*DW$T$27)
    5444                      .dwattr DW$462, DW_AT_name("os_driver_read"), DW_AT_symbol_name("_os_driver_read")
    5445                      .dwattr DW$462, DW_AT_data_member_location[DW_OP_plus_uconst 0x0]
    5446                      .dwattr DW$462, DW_AT_accessibility(DW_ACCESS_public)
    5447              DW$463  .dwtag  DW_TAG_member, DW_AT_type(*DW$T$28)
    5448                      .dwattr DW$463, DW_AT_name("os_driver_write"), DW_AT_symbol_name("_os_driver_write")
    5449                      .dwattr DW$463, DW_AT_data_member_location[DW_OP_plus_uconst 0x2]
    5450                      .dwattr DW$463, DW_AT_accessibility(DW_ACCESS_public)
    5451              DW$464  .dwtag  DW_TAG_member, DW_AT_type(*DW$T$31)
    5452                      .dwattr DW$464, DW_AT_name("os_driver_ioctl"), DW_AT_symbol_name("_os_driver_ioctl")
    5453                      .dwattr DW$464, DW_AT_data_member_location[DW_OP_plus_uconst 0x4]
TMS320C2000 COFF Assembler PC v4.1.3 Thu Sep 13 14:28:00 2012

Tools Copyright (c) 1996-2006 Texas Instruments Incorporated
C:\DOCUME~1\ADMINI~1\LOCALS~1\Temp\TI1962                            PAGE  105

    5454                      .dwattr DW$464, DW_AT_accessibility(DW_ACCESS_public)
    5455              DW$465  .dwtag  DW_TAG_member, DW_AT_type(*DW$T$34)
    5456                      .dwattr DW$465, DW_AT_name("os_driver_init"), DW_AT_symbol_name("_os_driver_init")
    5457                      .dwattr DW$465, DW_AT_data_member_location[DW_OP_plus_uconst 0x6]
    5458                      .dwattr DW$465, DW_AT_accessibility(DW_ACCESS_public)
    5459              DW$466  .dwtag  DW_TAG_member, DW_AT_type(*DW$T$35)
    5460                      .dwattr DW$466, DW_AT_name("os_driver_uninstall"), DW_AT_symbol_name("_os_driver_uninstall")
    5461                      .dwattr DW$466, DW_AT_data_member_location[DW_OP_plus_uconst 0x8]
    5462                      .dwattr DW$466, DW_AT_accessibility(DW_ACCESS_public)
    5463                      .dwendtag DW$T$36
    5464              
    5465              
    5466              DW$T$39 .dwtag  DW_TAG_structure_type
    5467                      .dwattr DW$T$39, DW_AT_byte_size(0x06)
    5468              DW$467  .dwtag  DW_TAG_member, DW_AT_type(*DW$T$23)
    5469                      .dwattr DW$467, DW_AT_name("mod_id"), DW_AT_symbol_name("_mod_id")
    5470                      .dwattr DW$467, DW_AT_data_member_location[DW_OP_plus_uconst 0x0]
    5471                      .dwattr DW$467, DW_AT_accessibility(DW_ACCESS_public)
    5472              DW$468  .dwtag  DW_TAG_member, DW_AT_type(*DW$T$37)
    5473                      .dwattr DW$468, DW_AT_name("insmod_fun"), DW_AT_symbol_name("_insmod_fun")
    5474                      .dwattr DW$468, DW_AT_data_member_location[DW_OP_plus_uconst 0x2]
    5475                      .dwattr DW$468, DW_AT_accessibility(DW_ACCESS_public)
    5476              DW$469  .dwtag  DW_TAG_member, DW_AT_type(*DW$T$38)
    5477                      .dwattr DW$469, DW_AT_name("exitmod_fun"), DW_AT_symbol_name("_exitmod_fun")
    5478                      .dwattr DW$469, DW_AT_data_member_location[DW_OP_plus_uconst 0x4]
    5479                      .dwattr DW$469, DW_AT_accessibility(DW_ACCESS_public)
    5480                      .dwendtag DW$T$39
    5481              
    5482              
    5483              DW$T$49 .dwtag  DW_TAG_array_type, DW_AT_type(*DW$T$48)
    5484                      .dwattr DW$T$49, DW_AT_language(DW_LANG_C)
    5485                      .dwattr DW$T$49, DW_AT_byte_size(0x5a)
    5486              DW$470  .dwtag  DW_TAG_subrange_type
    5487                      .dwattr DW$470, DW_AT_upper_bound(0x0e)
    5488                      .dwendtag DW$T$49
    5489              
    5490              
    5491              DW$T$40 .dwtag  DW_TAG_structure_type
    5492                      .dwattr DW$T$40, DW_AT_byte_size(0x04)
    5493              DW$471  .dwtag  DW_TAG_member, DW_AT_type(*DW$T$23)
    5494                      .dwattr DW$471, DW_AT_name("occupy_flag"), DW_AT_symbol_name("_occupy_flag")
    5495                      .dwattr DW$471, DW_AT_data_member_location[DW_OP_plus_uconst 0x0]
    5496                      .dwattr DW$471, DW_AT_accessibility(DW_ACCESS_public)
    5497              DW$472  .dwtag  DW_TAG_member, DW_AT_type(*DW$T$23)
    5498                      .dwattr DW$472, DW_AT_name("msg_type"), DW_AT_symbol_name("_msg_type")
    5499                      .dwattr DW$472, DW_AT_data_member_location[DW_OP_plus_uconst 0x1]
    5500                      .dwattr DW$472, DW_AT_accessibility(DW_ACCESS_public)
    5501              DW$473  .dwtag  DW_TAG_member, DW_AT_type(*DW$T$23)
    5502                      .dwattr DW$473, DW_AT_name("start_mod_id"), DW_AT_symbol_name("_start_mod_id")
    5503                      .dwattr DW$473, DW_AT_data_member_location[DW_OP_plus_uconst 0x2]
    5504                      .dwattr DW$473, DW_AT_accessibility(DW_ACCESS_public)
    5505              DW$474  .dwtag  DW_TAG_member, DW_AT_type(*DW$T$23)
    5506                      .dwattr DW$474, DW_AT_name("stop_mod_id"), DW_AT_symbol_name("_stop_mod_id")
    5507                      .dwattr DW$474, DW_AT_data_member_location[DW_OP_plus_uconst 0x3]
    5508                      .dwattr DW$474, DW_AT_accessibility(DW_ACCESS_public)
TMS320C2000 COFF Assembler PC v4.1.3 Thu Sep 13 14:28:00 2012

Tools Copyright (c) 1996-2006 Texas Instruments Incorporated
C:\DOCUME~1\ADMINI~1\LOCALS~1\Temp\TI1962                            PAGE  106

    5509                      .dwendtag DW$T$40
    5510              
    5511              
    5512              DW$T$46 .dwtag  DW_TAG_array_type, DW_AT_type(*DW$T$45)
    5513                      .dwattr DW$T$46, DW_AT_language(DW_LANG_C)
    5514                      .dwattr DW$T$46, DW_AT_byte_size(0x2bc)
    5515              DW$475  .dwtag  DW_TAG_subrange_type
    5516                      .dwattr DW$475, DW_AT_upper_bound(0x18)
    5517                      .dwendtag DW$T$46
    5518              
    5519              DW$T$31 .dwtag  DW_TAG_typedef, DW_AT_name("os_driver_ioctl_t"), DW_AT_type(*DW$T$30)
    5520                      .dwattr DW$T$31, DW_AT_language(DW_LANG_C)
    5521              DW$T$34 .dwtag  DW_TAG_typedef, DW_AT_name("os_driver_init_t"), DW_AT_type(*DW$T$33)
    5522                      .dwattr DW$T$34, DW_AT_language(DW_LANG_C)
    5523              DW$T$35 .dwtag  DW_TAG_typedef, DW_AT_name("os_driver_uninstall_t"), DW_AT_type(*DW$T$33)
    5524                      .dwattr DW$T$35, DW_AT_language(DW_LANG_C)
    5525              DW$T$37 .dwtag  DW_TAG_typedef, DW_AT_name("app_insmod_t"), DW_AT_type(*DW$T$33)
    5526                      .dwattr DW$T$37, DW_AT_language(DW_LANG_C)
    5527              DW$T$38 .dwtag  DW_TAG_typedef, DW_AT_name("app_exitmod_t"), DW_AT_type(*DW$T$33)
    5528                      .dwattr DW$T$38, DW_AT_language(DW_LANG_C)
    5529              
    5530              DW$T$21 .dwtag  DW_TAG_array_type, DW_AT_type(*DW$T$19)
    5531                      .dwattr DW$T$21, DW_AT_language(DW_LANG_C)
    5532                      .dwattr DW$T$21, DW_AT_byte_size(0x08)
    5533              DW$476  .dwtag  DW_TAG_subrange_type
    5534                      .dwattr DW$476, DW_AT_upper_bound(0x07)
    5535                      .dwendtag DW$T$21
    5536              
    5537              DW$T$27 .dwtag  DW_TAG_typedef, DW_AT_name("os_driver_read_t"), DW_AT_type(*DW$T$26)
    5538                      .dwattr DW$T$27, DW_AT_language(DW_LANG_C)
    5539              DW$T$28 .dwtag  DW_TAG_typedef, DW_AT_name("os_driver_write_t"), DW_AT_type(*DW$T$26)
    5540                      .dwattr DW$T$28, DW_AT_language(DW_LANG_C)
    5541              DW$T$45 .dwtag  DW_TAG_typedef, DW_AT_name("os_dirver_member_t"), DW_AT_type(*DW$T$44)
    5542                      .dwattr DW$T$45, DW_AT_language(DW_LANG_C)
    5543              DW$T$30 .dwtag  DW_TAG_pointer_type, DW_AT_type(*DW$T$29)
    5544                      .dwattr DW$T$30, DW_AT_address_class(0x16)
    5545              DW$T$33 .dwtag  DW_TAG_pointer_type, DW_AT_type(*DW$T$32)
    5546                      .dwattr DW$T$33, DW_AT_address_class(0x16)
    5547              DW$T$26 .dwtag  DW_TAG_pointer_type, DW_AT_type(*DW$T$25)
    5548                      .dwattr DW$T$26, DW_AT_address_class(0x16)
    5549              
    5550              DW$T$44 .dwtag  DW_TAG_structure_type
    5551                      .dwattr DW$T$44, DW_AT_byte_size(0x1c)
    5552              DW$477  .dwtag  DW_TAG_member, DW_AT_type(*DW$T$41)
    5553                      .dwattr DW$477, DW_AT_name("id"), DW_AT_symbol_name("_id")
    5554                      .dwattr DW$477, DW_AT_data_member_location[DW_OP_plus_uconst 0x0]
    5555                      .dwattr DW$477, DW_AT_accessibility(DW_ACCESS_public)
    5556              DW$478  .dwtag  DW_TAG_member, DW_AT_type(*DW$T$27)
    5557                      .dwattr DW$478, DW_AT_name("os_driver_read"), DW_AT_symbol_name("_os_driver_read")
    5558                      .dwattr DW$478, DW_AT_data_member_location[DW_OP_plus_uconst 0x2]
    5559                      .dwattr DW$478, DW_AT_accessibility(DW_ACCESS_public)
    5560              DW$479  .dwtag  DW_TAG_member, DW_AT_type(*DW$T$28)
    5561                      .dwattr DW$479, DW_AT_name("os_driver_write"), DW_AT_symbol_name("_os_driver_write")
    5562                      .dwattr DW$479, DW_AT_data_member_location[DW_OP_plus_uconst 0x4]
    5563                      .dwattr DW$479, DW_AT_accessibility(DW_ACCESS_public)
TMS320C2000 COFF Assembler PC v4.1.3 Thu Sep 13 14:28:00 2012

Tools Copyright (c) 1996-2006 Texas Instruments Incorporated
C:\DOCUME~1\ADMINI~1\LOCALS~1\Temp\TI1962                            PAGE  107

    5564              DW$480  .dwtag  DW_TAG_member, DW_AT_type(*DW$T$31)
    5565                      .dwattr DW$480, DW_AT_name("os_driver_ioctl"), DW_AT_symbol_name("_os_driver_ioctl")
    5566                      .dwattr DW$480, DW_AT_data_member_location[DW_OP_plus_uconst 0x6]
    5567                      .dwattr DW$480, DW_AT_accessibility(DW_ACCESS_public)
    5568              DW$481  .dwtag  DW_TAG_member, DW_AT_type(*DW$T$34)
    5569                      .dwattr DW$481, DW_AT_name("os_driver_init"), DW_AT_symbol_name("_os_driver_init")
    5570                      .dwattr DW$481, DW_AT_data_member_location[DW_OP_plus_uconst 0x8]
    5571                      .dwattr DW$481, DW_AT_accessibility(DW_ACCESS_public)
    5572              DW$482  .dwtag  DW_TAG_member, DW_AT_type(*DW$T$35)
    5573                      .dwattr DW$482, DW_AT_name("os_driver_uninstall"), DW_AT_symbol_name("_os_driver_uninstall")
    5574                      .dwattr DW$482, DW_AT_data_member_location[DW_OP_plus_uconst 0xa]
    5575                      .dwattr DW$482, DW_AT_accessibility(DW_ACCESS_public)
    5576              DW$483  .dwtag  DW_TAG_member, DW_AT_type(*DW$T$43)
    5577                      .dwattr DW$483, DW_AT_name("os_driver_name"), DW_AT_symbol_name("_os_driver_name")
    5578                      .dwattr DW$483, DW_AT_data_member_location[DW_OP_plus_uconst 0xc]
    5579                      .dwattr DW$483, DW_AT_accessibility(DW_ACCESS_public)
    5580                      .dwendtag DW$T$44
    5581              
    5582              
    5583              DW$T$29 .dwtag  DW_TAG_subroutine_type
    5584                      .dwattr DW$T$29, DW_AT_language(DW_LANG_C)
    5585              DW$484  .dwtag  DW_TAG_formal_parameter, DW_AT_type(*DW$T$6)
    5586              DW$485  .dwtag  DW_TAG_formal_parameter, DW_AT_type(*DW$T$3)
    5587                      .dwendtag DW$T$29
    5588              
    5589              
    5590              DW$T$25 .dwtag  DW_TAG_subroutine_type, DW_AT_type(*DW$T$23)
    5591                      .dwattr DW$T$25, DW_AT_language(DW_LANG_C)
    5592              DW$486  .dwtag  DW_TAG_formal_parameter, DW_AT_type(*DW$T$24)
    5593              DW$487  .dwtag  DW_TAG_formal_parameter, DW_AT_type(*DW$T$23)
    5594              DW$488  .dwtag  DW_TAG_formal_parameter, DW_AT_type(*DW$T$3)
    5595                      .dwendtag DW$T$25
    5596              
    5597              
    5598              DW$T$43 .dwtag  DW_TAG_array_type, DW_AT_type(*DW$T$42)
    5599                      .dwattr DW$T$43, DW_AT_language(DW_LANG_C)
    5600                      .dwattr DW$T$43, DW_AT_byte_size(0x0f)
    5601              DW$489  .dwtag  DW_TAG_subrange_type
    5602                      .dwattr DW$489, DW_AT_upper_bound(0x0e)
    5603                      .dwendtag DW$T$43
    5604              
    5605              
    5606                      .dwattr DW$229, DW_AT_external(0x01)
    5607                      .dwattr DW$229, DW_AT_type(*DW$T$23)
    5608                      .dwattr DW$260, DW_AT_external(0x01)
    5609                      .dwattr DW$238, DW_AT_external(0x01)
    5610                      .dwattr DW$219, DW_AT_external(0x01)
    5611                      .dwattr DW$289, DW_AT_external(0x01)
    5612                      .dwattr DW$289, DW_AT_type(*DW$T$23)
    5613                      .dwattr DW$290, DW_AT_external(0x01)
    5614                      .dwattr DW$290, DW_AT_type(*DW$T$23)
    5615                      .dwattr DW$242, DW_AT_external(0x01)
    5616                      .dwattr DW$242, DW_AT_type(*DW$T$160)
    5617                      .dwattr DW$291, DW_AT_external(0x01)
    5618                      .dwattr DW$291, DW_AT_type(*DW$T$23)
TMS320C2000 COFF Assembler PC v4.1.3 Thu Sep 13 14:28:00 2012

Tools Copyright (c) 1996-2006 Texas Instruments Incorporated
C:\DOCUME~1\ADMINI~1\LOCALS~1\Temp\TI1962                            PAGE  108

    5619                      .dwattr DW$263, DW_AT_external(0x01)
    5620                      .dwattr DW$288, DW_AT_external(0x01)
    5621                      .dwattr DW$285, DW_AT_external(0x01)
    5622                      .dwattr DW$285, DW_AT_type(*DW$T$23)
    5623                      .dwattr DW$282, DW_AT_external(0x01)
    5624                      .dwattr DW$247, DW_AT_external(0x01)
    5625                      .dwattr DW$215, DW_AT_external(0x01)
    5626                      .dwattr DW$209, DW_AT_external(0x01)
    5627                      .dwattr DW$266, DW_AT_external(0x01)
    5628                      .dwattr DW$212, DW_AT_external(0x01)
    5629                      .dwattr DW$223, DW_AT_external(0x01)
    5630                      .dwattr DW$259, DW_AT_external(0x01)
    5631                      .dwattr DW$164, DW_AT_external(0x01)
    5632                      .dwattr DW$165, DW_AT_external(0x01)
    5633                      .dwattr DW$165, DW_AT_type(*DW$T$41)
    5634                      .dwattr DW$174, DW_AT_external(0x01)
    5635                      .dwattr DW$180, DW_AT_external(0x01)
    5636                      .dwattr DW$201, DW_AT_external(0x01)
    5637                      .dwattr DW$208, DW_AT_external(0x01)
    5638                      .dwattr DW$183, DW_AT_external(0x01)
    5639                      .dwattr DW$183, DW_AT_type(*DW$T$23)
    5640                      .dwattr DW$177, DW_AT_external(0x01)
    5641                      .dwattr DW$192, DW_AT_external(0x01)
    5642                      .dwattr DW$192, DW_AT_type(*DW$T$23)
    5643                      .dwattr DW$67, DW_AT_external(0x01)
    5644                      .dwattr DW$77, DW_AT_external(0x01)
    5645                      .dwattr DW$77, DW_AT_type(*DW$T$6)
    5646                      .dwattr DW$74, DW_AT_external(0x01)
    5647                      .dwattr DW$315, DW_AT_external(0x01)
    5648                      .dwattr DW$315, DW_AT_type(*DW$T$120)
    5649                      .dwattr DW$292, DW_AT_external(0x01)
    5650                      .dwattr DW$304, DW_AT_external(0x01)
    5651                      .dwattr DW$98, DW_AT_external(0x01)
    5652                      .dwattr DW$80, DW_AT_external(0x01)
    5653                      .dwattr DW$80, DW_AT_type(*DW$T$6)
    5654                      .dwattr DW$92, DW_AT_external(0x01)
    5655                      .dwattr DW$92, DW_AT_type(*DW$T$6)
    5656                      .dwattr DW$86, DW_AT_external(0x01)
    5657                      .dwattr DW$86, DW_AT_type(*DW$T$6)
    5658                      .dwattr DW$335, DW_AT_external(0x01)
    5659                      .dwattr DW$341, DW_AT_external(0x01)
    5660                      .dwattr DW$341, DW_AT_type(*DW$T$88)
    5661                      .dwattr DW$351, DW_AT_external(0x01)
    5662                      .dwattr DW$351, DW_AT_type(*DW$T$88)
    5663                      .dwattr DW$328, DW_AT_external(0x01)
    5664                      .dwattr DW$328, DW_AT_type(*DW$T$23)
    5665                      .dwattr DW$117, DW_AT_external(0x01)
    5666                      .dwattr DW$117, DW_AT_type(*DW$T$120)
    5667                      .dwattr DW$127, DW_AT_external(0x01)
    5668                      .dwattr DW$127, DW_AT_type(*DW$T$6)
    5669                      .dwattr DW$137, DW_AT_external(0x01)
    5670                      .dwattr DW$137, DW_AT_type(*DW$T$6)
    5671                      .dwattr DW$141, DW_AT_external(0x01)
    5672                      .dwattr DW$157, DW_AT_external(0x01)
    5673                      .dwattr DW$157, DW_AT_type(*DW$T$6)
TMS320C2000 COFF Assembler PC v4.1.3 Thu Sep 13 14:28:00 2012

Tools Copyright (c) 1996-2006 Texas Instruments Incorporated
C:\DOCUME~1\ADMINI~1\LOCALS~1\Temp\TI1962                            PAGE  109

    5674                      .dwattr DW$151, DW_AT_external(0x01)
    5675                      .dwattr DW$151, DW_AT_type(*DW$T$6)
    5676                      .dwattr DW$134, DW_AT_external(0x01)
    5677                      .dwattr DW$134, DW_AT_type(*DW$T$6)
    5678                      .dwattr DW$110, DW_AT_external(0x01)
    5679                      .dwattr DW$105, DW_AT_external(0x01)
    5680                      .dwattr DW$105, DW_AT_type(*DW$T$6)
    5681                      .dwattr DW$71, DW_AT_external(0x01)
    5682                      .dwattr DW$CU, DW_AT_language(DW_LANG_C)
    5683              
    5684              ;***************************************************************
    5685              ;* DWARF CIE ENTRIES                                           *
    5686              ;***************************************************************
    5687              
    5688              DW$CIE  .dwcie 1, 40
    5689                      .dwcfa  0x0c, 20, 0
    5690                      .dwcfa  0x07, 0
    5691                      .dwcfa  0x07, 1
    5692                      .dwcfa  0x07, 2
    5693                      .dwcfa  0x07, 3
    5694                      .dwcfa  0x07, 4
    5695                      .dwcfa  0x07, 5
    5696                      .dwcfa  0x08, 6
    5697                      .dwcfa  0x08, 7
    5698                      .dwcfa  0x08, 8
    5699                      .dwcfa  0x08, 9
    5700                      .dwcfa  0x08, 10
    5701                      .dwcfa  0x08, 11
    5702                      .dwcfa  0x07, 12
    5703                      .dwcfa  0x07, 13
    5704                      .dwcfa  0x07, 14
    5705                      .dwcfa  0x07, 15
    5706                      .dwcfa  0x07, 16
    5707                      .dwcfa  0x07, 17
    5708                      .dwcfa  0x07, 18
    5709                      .dwcfa  0x07, 19
    5710                      .dwcfa  0x07, 20
    5711                      .dwcfa  0x07, 21
    5712                      .dwcfa  0x07, 22
    5713                      .dwcfa  0x07, 23
    5714                      .dwcfa  0x07, 24
    5715                      .dwcfa  0x07, 25
    5716                      .dwcfa  0x07, 26
    5717                      .dwcfa  0x08, 27
    5718                      .dwcfa  0x07, 28
    5719                      .dwcfa  0x07, 29
    5720                      .dwcfa  0x07, 30
    5721                      .dwcfa  0x07, 31
    5722                      .dwcfa  0x07, 32
    5723                      .dwcfa  0x07, 33
    5724                      .dwcfa  0x07, 34
    5725                      .dwcfa  0x07, 35
    5726                      .dwcfa  0x07, 36
    5727                      .dwcfa  0x07, 37
    5728                      .dwcfa  0x07, 38
TMS320C2000 COFF Assembler PC v4.1.3 Thu Sep 13 14:28:00 2012

Tools Copyright (c) 1996-2006 Texas Instruments Incorporated
C:\DOCUME~1\ADMINI~1\LOCALS~1\Temp\TI1962                            PAGE  110

    5729                      .dwcfa  0x07, 39
    5730                      .dwcfa  0x07, 40
    5731              
    5732              ;***************************************************************
    5733              ;* DWARF REGISTER MAP                                          *
    5734              ;***************************************************************
    5735              
    5736              DW$490  .dwtag  DW_TAG_assign_register, DW_AT_name("AL")
    5737                      .dwattr DW$490, DW_AT_location[DW_OP_reg0]
    5738              DW$491  .dwtag  DW_TAG_assign_register, DW_AT_name("AH")
    5739                      .dwattr DW$491, DW_AT_location[DW_OP_reg1]
    5740              DW$492  .dwtag  DW_TAG_assign_register, DW_AT_name("PL")
    5741                      .dwattr DW$492, DW_AT_location[DW_OP_reg2]
    5742              DW$493  .dwtag  DW_TAG_assign_register, DW_AT_name("PH")
    5743                      .dwattr DW$493, DW_AT_location[DW_OP_reg3]
    5744              DW$494  .dwtag  DW_TAG_assign_register, DW_AT_name("AR0")
    5745                      .dwattr DW$494, DW_AT_location[DW_OP_reg4]
    5746              DW$495  .dwtag  DW_TAG_assign_register, DW_AT_name("XAR0")
    5747                      .dwattr DW$495, DW_AT_location[DW_OP_reg5]
    5748              DW$496  .dwtag  DW_TAG_assign_register, DW_AT_name("AR1")
    5749                      .dwattr DW$496, DW_AT_location[DW_OP_reg6]
    5750              DW$497  .dwtag  DW_TAG_assign_register, DW_AT_name("XAR1")
    5751                      .dwattr DW$497, DW_AT_location[DW_OP_reg7]
    5752              DW$498  .dwtag  DW_TAG_assign_register, DW_AT_name("AR2")
    5753                      .dwattr DW$498, DW_AT_location[DW_OP_reg8]
    5754              DW$499  .dwtag  DW_TAG_assign_register, DW_AT_name("XAR2")
    5755                      .dwattr DW$499, DW_AT_location[DW_OP_reg9]
    5756              DW$500  .dwtag  DW_TAG_assign_register, DW_AT_name("AR3")
    5757                      .dwattr DW$500, DW_AT_location[DW_OP_reg10]
    5758              DW$501  .dwtag  DW_TAG_assign_register, DW_AT_name("XAR3")
    5759                      .dwattr DW$501, DW_AT_location[DW_OP_reg11]
    5760              DW$502  .dwtag  DW_TAG_assign_register, DW_AT_name("AR4")
    5761                      .dwattr DW$502, DW_AT_location[DW_OP_reg12]
    5762              DW$503  .dwtag  DW_TAG_assign_register, DW_AT_name("XAR4")
    5763                      .dwattr DW$503, DW_AT_location[DW_OP_reg13]
    5764              DW$504  .dwtag  DW_TAG_assign_register, DW_AT_name("AR5")
    5765                      .dwattr DW$504, DW_AT_location[DW_OP_reg14]
    5766              DW$505  .dwtag  DW_TAG_assign_register, DW_AT_name("XAR5")
    5767                      .dwattr DW$505, DW_AT_location[DW_OP_reg15]
    5768              DW$506  .dwtag  DW_TAG_assign_register, DW_AT_name("AR6")
    5769                      .dwattr DW$506, DW_AT_location[DW_OP_reg16]
    5770              DW$507  .dwtag  DW_TAG_assign_register, DW_AT_name("XAR6")
    5771                      .dwattr DW$507, DW_AT_location[DW_OP_reg17]
    5772              DW$508  .dwtag  DW_TAG_assign_register, DW_AT_name("AR7")
    5773                      .dwattr DW$508, DW_AT_location[DW_OP_reg18]
    5774              DW$509  .dwtag  DW_TAG_assign_register, DW_AT_name("XAR7")
    5775                      .dwattr DW$509, DW_AT_location[DW_OP_reg19]
    5776              DW$510  .dwtag  DW_TAG_assign_register, DW_AT_name("SP")
    5777                      .dwattr DW$510, DW_AT_location[DW_OP_reg20]
    5778              DW$511  .dwtag  DW_TAG_assign_register, DW_AT_name("XT")
    5779                      .dwattr DW$511, DW_AT_location[DW_OP_reg21]
    5780              DW$512  .dwtag  DW_TAG_assign_register, DW_AT_name("T")
    5781                      .dwattr DW$512, DW_AT_location[DW_OP_reg22]
    5782              DW$513  .dwtag  DW_TAG_assign_register, DW_AT_name("ST0")
    5783                      .dwattr DW$513, DW_AT_location[DW_OP_reg23]
TMS320C2000 COFF Assembler PC v4.1.3 Thu Sep 13 14:28:00 2012

Tools Copyright (c) 1996-2006 Texas Instruments Incorporated
C:\DOCUME~1\ADMINI~1\LOCALS~1\Temp\TI1962                            PAGE  111

    5784              DW$514  .dwtag  DW_TAG_assign_register, DW_AT_name("ST1")
    5785                      .dwattr DW$514, DW_AT_location[DW_OP_reg24]
    5786              DW$515  .dwtag  DW_TAG_assign_register, DW_AT_name("PC")
    5787                      .dwattr DW$515, DW_AT_location[DW_OP_reg25]
    5788              DW$516  .dwtag  DW_TAG_assign_register, DW_AT_name("RPC")
    5789                      .dwattr DW$516, DW_AT_location[DW_OP_reg26]
    5790              DW$517  .dwtag  DW_TAG_assign_register, DW_AT_name("FP")
    5791                      .dwattr DW$517, DW_AT_location[DW_OP_reg27]
    5792              DW$518  .dwtag  DW_TAG_assign_register, DW_AT_name("DP")
    5793                      .dwattr DW$518, DW_AT_location[DW_OP_reg28]
    5794              DW$519  .dwtag  DW_TAG_assign_register, DW_AT_name("SXM")
    5795                      .dwattr DW$519, DW_AT_location[DW_OP_reg29]
    5796              DW$520  .dwtag  DW_TAG_assign_register, DW_AT_name("PM")
    5797                      .dwattr DW$520, DW_AT_location[DW_OP_reg30]
    5798              DW$521  .dwtag  DW_TAG_assign_register, DW_AT_name("OVM")
    5799                      .dwattr DW$521, DW_AT_location[DW_OP_reg31]
    5800              DW$522  .dwtag  DW_TAG_assign_register, DW_AT_name("PAGE0")
    5801                      .dwattr DW$522, DW_AT_location[DW_OP_regx 0x20]
    5802              DW$523  .dwtag  DW_TAG_assign_register, DW_AT_name("AMODE")
    5803                      .dwattr DW$523, DW_AT_location[DW_OP_regx 0x21]
    5804              DW$524  .dwtag  DW_TAG_assign_register, DW_AT_name("IFR")
    5805                      .dwattr DW$524, DW_AT_location[DW_OP_regx 0x22]
    5806              DW$525  .dwtag  DW_TAG_assign_register, DW_AT_name("IER")
    5807                      .dwattr DW$525, DW_AT_location[DW_OP_regx 0x23]
    5808              DW$526  .dwtag  DW_TAG_assign_register, DW_AT_name("IER")
    5809                      .dwattr DW$526, DW_AT_location[DW_OP_regx 0x24]
    5810              DW$527  .dwtag  DW_TAG_assign_register, DW_AT_name("PSEUDO")
    5811                      .dwattr DW$527, DW_AT_location[DW_OP_regx 0x25]
    5812              DW$528  .dwtag  DW_TAG_assign_register, DW_AT_name("PSEUDOH")
    5813                      .dwattr DW$528, DW_AT_location[DW_OP_regx 0x26]
    5814              DW$529  .dwtag  DW_TAG_assign_register, DW_AT_name("VOL")
    5815                      .dwattr DW$529, DW_AT_location[DW_OP_regx 0x27]
    5816              DW$530  .dwtag  DW_TAG_assign_register, DW_AT_name("CIE_RETA")
    5817                      .dwattr DW$530, DW_AT_location[DW_OP_regx 0x28]
    5818                      .dwendtag DW$CU
    5819              

No Assembly Errors, No Assembly Warnings
