TMS320C2000 COFF Assembler PC v4.1.3 Sat Oct 08 14:42:32 2011

Tools Copyright (c) 1996-2006 Texas Instruments Incorporated
C:\DOCUME~1\ADMINI~1\LOCALS~1\Temp\TI8522                            PAGE    1

       1              ;***************************************************************
       2              ;* TMS320C2000 C/C++ Codegen                         PC v4.1.3 *
       3              ;* Date/Time created: Sat Oct 08 14:42:31 2011                 *
       4              ;***************************************************************
       5                      .compiler_opts --mem_model:code=flat --mem_model:data=large --silicon_version=28 
       6        0002  FP      .set    XAR2
       7              
       8              DW$CU   .dwtag  DW_TAG_compile_unit
       9                      .dwattr DW$CU, DW_AT_name("app_WIRmod_alg.c")
      10                      .dwattr DW$CU, DW_AT_producer("TMS320C2000 C/C++ Codegen PC v4.1.3 Copyright (c) 1996-2006 Texas Inst
      11                      .dwattr DW$CU, DW_AT_stmt_list(0x00)
      12                      .dwattr DW$CU, DW_AT_TI_VERSION(0x01)
      13              ;**************************************************************
      14              ;* CINIT RECORDS                                              *
      15              ;**************************************************************
      16 00000000               .sect   ".cinit"
      17                      .align  1
      18 00000000 FFFF          .field          -1,16
      19 00000001 0000-         .field          _Load_Model+0,32
         00000002 0000 
      20 00000003 0000          .field          0,16                    ; _Load_Model @ 0
      21              
      22 00000004               .sect   ".cinit"
      23                      .align  1
      24 00000004 FFFF          .field          -1,16
      25 00000005 0001-         .field          _m_WIRmod_Cline_task_pro+0,32
         00000006 0000 
      26 00000007 00BE          .field          190,16                  ; _m_WIRmod_Cline_task_pro @ 0
      27              
      28 00000008               .sect   ".cinit"
      29                      .align  1
      30 00000008 FFFE          .field          -2,16
      31 00000009 0002-         .field          _fUc+0,32
         0000000a 0000 
      32 0000000b 0000          .xfloat 0.00000000000000000000e+00              ; _fUc @ 0
         0000000c 0000 
      33              
      34 0000000d               .sect   ".cinit"
      35                      .align  1
      36 0000000d FFFE          .field          -2,16
      37 0000000e 0004-         .field          _fJUac+0,32
         0000000f 0000 
      38 00000010 0000          .xfloat 0.00000000000000000000e+00              ; _fJUac @ 0
         00000011 0000 
      39              
      40 00000012               .sect   ".cinit"
      41                      .align  1
      42 00000012 FFFE          .field          -2,16
      43 00000013 0006-         .field          _fJUcb+0,32
         00000014 0000 
      44 00000015 0000          .xfloat 0.00000000000000000000e+00              ; _fJUcb @ 0
         00000016 0000 
      45              
      46 00000017               .sect   ".cinit"
      47                      .align  1
TMS320C2000 COFF Assembler PC v4.1.3 Sat Oct 08 14:42:32 2011

Tools Copyright (c) 1996-2006 Texas Instruments Incorporated
C:\DOCUME~1\ADMINI~1\LOCALS~1\Temp\TI8522                            PAGE    2

      48 00000017 FFFE          .field          -2,16
      49 00000018 0008-         .field          _fJUab+0,32
         00000019 0000 
      50 0000001a 0000          .xfloat 0.00000000000000000000e+00              ; _fJUab @ 0
         0000001b 0000 
      51              
      52 0000001c               .sect   ".cinit"
      53                      .align  1
      54 0000001c FFFE          .field          -2,16
      55 0000001d 000A-         .field          _fIc+0,32
         0000001e 0000 
      56 0000001f 0000          .xfloat 0.00000000000000000000e+00              ; _fIc @ 0
         00000020 0000 
      57              
      58 00000021               .sect   ".cinit"
      59                      .align  1
      60 00000021 FFFE          .field          -2,16
      61 00000022 000C-         .field          _m_alg_presult+0,32
         00000023 0000 
      62 00000024 0000          .field          0,32                    ; _m_alg_presult @ 0
         00000025 0000 
      63              
      64 00000026               .sect   ".cinit"
      65                      .align  1
      66 00000026 FFFE          .field          -2,16
      67 00000027 000E-         .field          _m_WIRmod_sem+0,32
         00000028 0000 
      68 00000029 0000          .field          0,32                    ; _m_WIRmod_sem @ 0
         0000002a 0000 
      69              
      70 0000002b               .sect   ".cinit"
      71                      .align  1
      72 0000002b FFFE          .field          -2,16
      73 0000002c 0010-         .field          _fJIbc+0,32
         0000002d 0000 
      74 0000002e 0000          .xfloat 0.00000000000000000000e+00              ; _fJIbc @ 0
         0000002f 0000 
      75              
      76 00000030               .sect   ".cinit"
      77                      .align  1
      78 00000030 FFFE          .field          -2,16
      79 00000031 0012-         .field          _fJIac+0,32
         00000032 0000 
      80 00000033 0000          .xfloat 0.00000000000000000000e+00              ; _fJIac @ 0
         00000034 0000 
      81              
      82 00000035               .sect   ".cinit"
      83                      .align  1
      84 00000035 FFFE          .field          -2,16
      85 00000036 0014-         .field          _fJIab+0,32
         00000037 0000 
      86 00000038 0000          .xfloat 0.00000000000000000000e+00              ; _fJIab @ 0
         00000039 0000 
      87              
      88 0000003a               .sect   ".cinit"
TMS320C2000 COFF Assembler PC v4.1.3 Sat Oct 08 14:42:32 2011

Tools Copyright (c) 1996-2006 Texas Instruments Incorporated
C:\DOCUME~1\ADMINI~1\LOCALS~1\Temp\TI8522                            PAGE    3

      89                      .align  1
      90 0000003a FFFE          .field          -2,16
      91 0000003b 0016-         .field          _fJc+0,32
         0000003c 0000 
      92 0000003d 0000          .xfloat 0.00000000000000000000e+00              ; _fJc @ 0
         0000003e 0000 
      93              
      94 0000003f               .sect   ".cinit"
      95                      .align  1
      96 0000003f FFFE          .field          -2,16
      97 00000040 0018-         .field          _fIb+0,32
         00000041 0000 
      98 00000042 0000          .xfloat 0.00000000000000000000e+00              ; _fIb @ 0
         00000043 0000 
      99              
     100 00000044               .sect   ".cinit"
     101                      .align  1
     102 00000044 FFFE          .field          -2,16
     103 00000045 001A-         .field          _fUb+0,32
         00000046 0000 
     104 00000047 0000          .xfloat 0.00000000000000000000e+00              ; _fUb @ 0
         00000048 0000 
     105              
     106 00000049               .sect   ".cinit"
     107                      .align  1
     108 00000049 FFFE          .field          -2,16
     109 0000004a 001C-         .field          _fJa+0,32
         0000004b 0000 
     110 0000004c 0000          .xfloat 0.00000000000000000000e+00              ; _fJa @ 0
         0000004d 0000 
     111              
     112 0000004e               .sect   ".cinit"
     113                      .align  1
     114 0000004e FFFE          .field          -2,16
     115 0000004f 001E-         .field          _fUa+0,32
         00000050 0000 
     116 00000051 0000          .xfloat 0.00000000000000000000e+00              ; _fUa @ 0
         00000052 0000 
     117              
     118 00000053               .sect   ".cinit"
     119                      .align  1
     120 00000053 FFFE          .field          -2,16
     121 00000054 0020-         .field          _fIa+0,32
         00000055 0000 
     122 00000056 0000          .xfloat 0.00000000000000000000e+00              ; _fIa @ 0
         00000057 0000 
     123              
     124 00000058               .sect   ".cinit"
     125                      .align  1
     126 00000058 FFFE          .field          -2,16
     127 00000059 0022-         .field          _fJb+0,32
         0000005a 0000 
     128 0000005b 0000          .xfloat 0.00000000000000000000e+00              ; _fJb @ 0
         0000005c 0000 
     129              
TMS320C2000 COFF Assembler PC v4.1.3 Sat Oct 08 14:42:32 2011

Tools Copyright (c) 1996-2006 Texas Instruments Incorporated
C:\DOCUME~1\ADMINI~1\LOCALS~1\Temp\TI8522                            PAGE    4

     130              
     131              DW$1    .dwtag  DW_TAG_subprogram, DW_AT_name("app_free"), DW_AT_symbol_name("_app_free")
     132                      .dwattr DW$1, DW_AT_declaration(0x01)
     133                      .dwattr DW$1, DW_AT_external(0x01)
     134              DW$2    .dwtag  DW_TAG_formal_parameter, DW_AT_type(*DW$T$3)
     135                      .dwendtag DW$1
     136              
     137              
     138              DW$3    .dwtag  DW_TAG_subprogram, DW_AT_name("global_memset"), DW_AT_symbol_name("_global_memset")
     139                      .dwattr DW$3, DW_AT_declaration(0x01)
     140                      .dwattr DW$3, DW_AT_external(0x01)
     141              DW$4    .dwtag  DW_TAG_formal_parameter, DW_AT_type(*DW$T$3)
     142              DW$5    .dwtag  DW_TAG_formal_parameter, DW_AT_type(*DW$T$6)
     143              DW$6    .dwtag  DW_TAG_formal_parameter, DW_AT_type(*DW$T$40)
     144                      .dwendtag DW$3
     145              
     146              
     147              DW$7    .dwtag  DW_TAG_subprogram, DW_AT_name("global_memcpy"), DW_AT_symbol_name("_global_memcpy")
     148                      .dwattr DW$7, DW_AT_declaration(0x01)
     149                      .dwattr DW$7, DW_AT_external(0x01)
     150              DW$8    .dwtag  DW_TAG_formal_parameter, DW_AT_type(*DW$T$3)
     151              DW$9    .dwtag  DW_TAG_formal_parameter, DW_AT_type(*DW$T$3)
     152              DW$10   .dwtag  DW_TAG_formal_parameter, DW_AT_type(*DW$T$40)
     153                      .dwendtag DW$7
     154              
     155              
     156              DW$11   .dwtag  DW_TAG_subprogram, DW_AT_name("OSTimeDly"), DW_AT_symbol_name("_OSTimeDly")
     157                      .dwattr DW$11, DW_AT_declaration(0x01)
     158                      .dwattr DW$11, DW_AT_external(0x01)
     159              DW$12   .dwtag  DW_TAG_formal_parameter, DW_AT_type(*DW$T$20)
     160                      .dwendtag DW$11
     161              
     162              
     163              DW$13   .dwtag  DW_TAG_subprogram, DW_AT_name("app_global_DLarg_obtain"), DW_AT_symbol_name("_app_global_DLar
     164                      .dwattr DW$13, DW_AT_type(*DW$T$10)
     165                      .dwattr DW$13, DW_AT_declaration(0x01)
     166                      .dwattr DW$13, DW_AT_external(0x01)
     167              
     168              DW$14   .dwtag  DW_TAG_subprogram, DW_AT_name("app_global_DLflag_obtain"), DW_AT_symbol_name("_app_global_DLf
     169                      .dwattr DW$14, DW_AT_type(*DW$T$10)
     170                      .dwattr DW$14, DW_AT_declaration(0x01)
     171                      .dwattr DW$14, DW_AT_external(0x01)
     172              
     173              DW$15   .dwtag  DW_TAG_subprogram, DW_AT_name("OSSemPost"), DW_AT_symbol_name("_OSSemPost")
     174                      .dwattr DW$15, DW_AT_type(*DW$T$19)
     175                      .dwattr DW$15, DW_AT_declaration(0x01)
     176                      .dwattr DW$15, DW_AT_external(0x01)
     177              DW$16   .dwtag  DW_TAG_formal_parameter, DW_AT_type(*DW$T$70)
     178                      .dwendtag DW$15
     179              
     180              
     181              DW$17   .dwtag  DW_TAG_subprogram, DW_AT_name("abs"), DW_AT_symbol_name("_abs")
     182                      .dwattr DW$17, DW_AT_type(*DW$T$10)
     183                      .dwattr DW$17, DW_AT_declaration(0x01)
     184                      .dwattr DW$17, DW_AT_external(0x01)
TMS320C2000 COFF Assembler PC v4.1.3 Sat Oct 08 14:42:32 2011

Tools Copyright (c) 1996-2006 Texas Instruments Incorporated
C:\DOCUME~1\ADMINI~1\LOCALS~1\Temp\TI8522                            PAGE    5

     185              DW$18   .dwtag  DW_TAG_formal_parameter, DW_AT_type(*DW$T$10)
     186                      .dwendtag DW$17
     187              
     188              
     189              DW$19   .dwtag  DW_TAG_subprogram, DW_AT_name("app_global_DL_measure_exit"), DW_AT_symbol_name("_app_global_D
     190                      .dwattr DW$19, DW_AT_type(*DW$T$10)
     191                      .dwattr DW$19, DW_AT_declaration(0x01)
     192                      .dwattr DW$19, DW_AT_external(0x01)
     193              
     194              DW$20   .dwtag  DW_TAG_subprogram, DW_AT_name("mod_err_inlet"), DW_AT_symbol_name("_mod_err_inlet")
     195                      .dwattr DW$20, DW_AT_type(*DW$T$10)
     196                      .dwattr DW$20, DW_AT_declaration(0x01)
     197                      .dwattr DW$20, DW_AT_external(0x01)
     198              
     199              DW$21   .dwtag  DW_TAG_subprogram, DW_AT_name("app_global_DL_measure_entery"), DW_AT_symbol_name("_app_global
     200                      .dwattr DW$21, DW_AT_type(*DW$T$10)
     201                      .dwattr DW$21, DW_AT_declaration(0x01)
     202                      .dwattr DW$21, DW_AT_external(0x01)
     203                      .global _Load_Model
     204 00000000       _Load_Model:    .usect  ".ebss",1,1,0
     205              DW$22   .dwtag  DW_TAG_variable, DW_AT_name("Load_Model"), DW_AT_symbol_name("_Load_Model")
     206                      .dwattr DW$22, DW_AT_location[DW_OP_addr _Load_Model]
     207                      .dwattr DW$22, DW_AT_type(*DW$T$31)
     208                      .dwattr DW$22, DW_AT_external(0x01)
     209                      .global _m_WIRmod_Cline_task_pro
     210 00000001       _m_WIRmod_Cline_task_pro:       .usect  ".ebss",1,1,0
     211              DW$23   .dwtag  DW_TAG_variable, DW_AT_name("m_WIRmod_Cline_task_pro"), DW_AT_symbol_name("_m_WIRmod_Cline_ta
     212                      .dwattr DW$23, DW_AT_location[DW_OP_addr _m_WIRmod_Cline_task_pro]
     213                      .dwattr DW$23, DW_AT_type(*DW$T$6)
     214                      .dwattr DW$23, DW_AT_external(0x01)
     215              
     216              DW$24   .dwtag  DW_TAG_subprogram, DW_AT_name("os_task_delete"), DW_AT_symbol_name("_os_task_delete")
     217                      .dwattr DW$24, DW_AT_type(*DW$T$6)
     218                      .dwattr DW$24, DW_AT_declaration(0x01)
     219                      .dwattr DW$24, DW_AT_external(0x01)
     220              DW$25   .dwtag  DW_TAG_formal_parameter, DW_AT_type(*DW$T$6)
     221                      .dwendtag DW$24
     222              
     223              
     224              DW$26   .dwtag  DW_TAG_subprogram, DW_AT_name("os_task_name_set"), DW_AT_symbol_name("_os_task_name_set")
     225                      .dwattr DW$26, DW_AT_type(*DW$T$6)
     226                      .dwattr DW$26, DW_AT_declaration(0x01)
     227                      .dwattr DW$26, DW_AT_external(0x01)
     228              DW$27   .dwtag  DW_TAG_formal_parameter, DW_AT_type(*DW$T$6)
     229              DW$28   .dwtag  DW_TAG_formal_parameter, DW_AT_type(*DW$T$32)
     230                      .dwendtag DW$26
     231              
     232              
     233              DW$29   .dwtag  DW_TAG_subprogram, DW_AT_name("os_sem_creat"), DW_AT_symbol_name("_os_sem_creat")
     234                      .dwattr DW$29, DW_AT_type(*DW$T$6)
     235                      .dwattr DW$29, DW_AT_declaration(0x01)
     236                      .dwattr DW$29, DW_AT_external(0x01)
     237              DW$30   .dwtag  DW_TAG_formal_parameter, DW_AT_type(*DW$T$75)
     238              DW$31   .dwtag  DW_TAG_formal_parameter, DW_AT_type(*DW$T$11)
     239                      .dwendtag DW$29
TMS320C2000 COFF Assembler PC v4.1.3 Sat Oct 08 14:42:32 2011

Tools Copyright (c) 1996-2006 Texas Instruments Incorporated
C:\DOCUME~1\ADMINI~1\LOCALS~1\Temp\TI8522                            PAGE    6

     240              
     241              
     242              DW$32   .dwtag  DW_TAG_subprogram, DW_AT_name("os_task_assign_stk_build"), DW_AT_symbol_name("_os_task_assign
     243                      .dwattr DW$32, DW_AT_type(*DW$T$6)
     244                      .dwattr DW$32, DW_AT_declaration(0x01)
     245                      .dwattr DW$32, DW_AT_external(0x01)
     246              DW$33   .dwtag  DW_TAG_formal_parameter, DW_AT_type(*DW$T$46)
     247              DW$34   .dwtag  DW_TAG_formal_parameter, DW_AT_type(*DW$T$40)
     248                      .dwendtag DW$32
     249              
     250                      .global _fUc
     251 00000002       _fUc:   .usect  ".ebss",2,1,1
     252              DW$35   .dwtag  DW_TAG_variable, DW_AT_name("fUc"), DW_AT_symbol_name("_fUc")
     253                      .dwattr DW$35, DW_AT_location[DW_OP_addr _fUc]
     254                      .dwattr DW$35, DW_AT_type(*DW$T$16)
     255                      .dwattr DW$35, DW_AT_external(0x01)
     256                      .global _fJUac
     257 00000004       _fJUac: .usect  ".ebss",2,1,1
     258              DW$36   .dwtag  DW_TAG_variable, DW_AT_name("fJUac"), DW_AT_symbol_name("_fJUac")
     259                      .dwattr DW$36, DW_AT_location[DW_OP_addr _fJUac]
     260                      .dwattr DW$36, DW_AT_type(*DW$T$16)
     261                      .dwattr DW$36, DW_AT_external(0x01)
     262                      .global _fJUcb
     263 00000006       _fJUcb: .usect  ".ebss",2,1,1
     264              DW$37   .dwtag  DW_TAG_variable, DW_AT_name("fJUcb"), DW_AT_symbol_name("_fJUcb")
     265                      .dwattr DW$37, DW_AT_location[DW_OP_addr _fJUcb]
     266                      .dwattr DW$37, DW_AT_type(*DW$T$16)
     267                      .dwattr DW$37, DW_AT_external(0x01)
     268                      .global _fJUab
     269 00000008       _fJUab: .usect  ".ebss",2,1,1
     270              DW$38   .dwtag  DW_TAG_variable, DW_AT_name("fJUab"), DW_AT_symbol_name("_fJUab")
     271                      .dwattr DW$38, DW_AT_location[DW_OP_addr _fJUab]
     272                      .dwattr DW$38, DW_AT_type(*DW$T$16)
     273                      .dwattr DW$38, DW_AT_external(0x01)
     274                      .global _fIc
     275 0000000a       _fIc:   .usect  ".ebss",2,1,1
     276              DW$39   .dwtag  DW_TAG_variable, DW_AT_name("fIc"), DW_AT_symbol_name("_fIc")
     277                      .dwattr DW$39, DW_AT_location[DW_OP_addr _fIc]
     278                      .dwattr DW$39, DW_AT_type(*DW$T$16)
     279                      .dwattr DW$39, DW_AT_external(0x01)
     280                      .global _m_alg_presult
     281 0000000c       _m_alg_presult: .usect  ".ebss",2,1,1
     282              DW$40   .dwtag  DW_TAG_variable, DW_AT_name("m_alg_presult"), DW_AT_symbol_name("_m_alg_presult")
     283                      .dwattr DW$40, DW_AT_location[DW_OP_addr _m_alg_presult]
     284                      .dwattr DW$40, DW_AT_type(*DW$T$124)
     285                      .dwattr DW$40, DW_AT_external(0x01)
     286                      .global _m_WIRmod_sem
     287 0000000e       _m_WIRmod_sem:  .usect  ".ebss",2,1,1
     288              DW$41   .dwtag  DW_TAG_variable, DW_AT_name("m_WIRmod_sem"), DW_AT_symbol_name("_m_WIRmod_sem")
     289                      .dwattr DW$41, DW_AT_location[DW_OP_addr _m_WIRmod_sem]
     290                      .dwattr DW$41, DW_AT_type(*DW$T$74)
     291                      .dwattr DW$41, DW_AT_external(0x01)
     292                      .global _fJIbc
     293 00000010       _fJIbc: .usect  ".ebss",2,1,1
     294              DW$42   .dwtag  DW_TAG_variable, DW_AT_name("fJIbc"), DW_AT_symbol_name("_fJIbc")
TMS320C2000 COFF Assembler PC v4.1.3 Sat Oct 08 14:42:32 2011

Tools Copyright (c) 1996-2006 Texas Instruments Incorporated
C:\DOCUME~1\ADMINI~1\LOCALS~1\Temp\TI8522                            PAGE    7

     295                      .dwattr DW$42, DW_AT_location[DW_OP_addr _fJIbc]
     296                      .dwattr DW$42, DW_AT_type(*DW$T$16)
     297                      .dwattr DW$42, DW_AT_external(0x01)
     298                      .global _fJIac
     299 00000012       _fJIac: .usect  ".ebss",2,1,1
     300              DW$43   .dwtag  DW_TAG_variable, DW_AT_name("fJIac"), DW_AT_symbol_name("_fJIac")
     301                      .dwattr DW$43, DW_AT_location[DW_OP_addr _fJIac]
     302                      .dwattr DW$43, DW_AT_type(*DW$T$16)
     303                      .dwattr DW$43, DW_AT_external(0x01)
     304                      .global _fJIab
     305 00000014       _fJIab: .usect  ".ebss",2,1,1
     306              DW$44   .dwtag  DW_TAG_variable, DW_AT_name("fJIab"), DW_AT_symbol_name("_fJIab")
     307                      .dwattr DW$44, DW_AT_location[DW_OP_addr _fJIab]
     308                      .dwattr DW$44, DW_AT_type(*DW$T$16)
     309                      .dwattr DW$44, DW_AT_external(0x01)
     310                      .global _fJc
     311 00000016       _fJc:   .usect  ".ebss",2,1,1
     312              DW$45   .dwtag  DW_TAG_variable, DW_AT_name("fJc"), DW_AT_symbol_name("_fJc")
     313                      .dwattr DW$45, DW_AT_location[DW_OP_addr _fJc]
     314                      .dwattr DW$45, DW_AT_type(*DW$T$16)
     315                      .dwattr DW$45, DW_AT_external(0x01)
     316              
     317              DW$46   .dwtag  DW_TAG_subprogram, DW_AT_name("cos"), DW_AT_symbol_name("_cos")
     318                      .dwattr DW$46, DW_AT_type(*DW$T$17)
     319                      .dwattr DW$46, DW_AT_declaration(0x01)
     320                      .dwattr DW$46, DW_AT_external(0x01)
     321              DW$47   .dwtag  DW_TAG_formal_parameter, DW_AT_type(*DW$T$17)
     322                      .dwendtag DW$46
     323              
     324              
     325              DW$48   .dwtag  DW_TAG_subprogram, DW_AT_name("fabs"), DW_AT_symbol_name("_fabs")
     326                      .dwattr DW$48, DW_AT_type(*DW$T$17)
     327                      .dwattr DW$48, DW_AT_declaration(0x01)
     328                      .dwattr DW$48, DW_AT_external(0x01)
     329              DW$49   .dwtag  DW_TAG_formal_parameter, DW_AT_type(*DW$T$17)
     330                      .dwendtag DW$48
     331              
     332              
     333              DW$50   .dwtag  DW_TAG_subprogram, DW_AT_name("strlen"), DW_AT_symbol_name("_strlen")
     334                      .dwattr DW$50, DW_AT_type(*DW$T$98)
     335                      .dwattr DW$50, DW_AT_declaration(0x01)
     336                      .dwattr DW$50, DW_AT_external(0x01)
     337              DW$51   .dwtag  DW_TAG_formal_parameter, DW_AT_type(*DW$T$100)
     338                      .dwendtag DW$50
     339              
     340              
     341              DW$52   .dwtag  DW_TAG_subprogram, DW_AT_name("app_malloc"), DW_AT_symbol_name("_app_malloc")
     342                      .dwattr DW$52, DW_AT_type(*DW$T$3)
     343                      .dwattr DW$52, DW_AT_declaration(0x01)
     344                      .dwattr DW$52, DW_AT_external(0x01)
     345              DW$53   .dwtag  DW_TAG_formal_parameter, DW_AT_type(*DW$T$40)
     346                      .dwendtag DW$52
     347              
     348              
     349              DW$54   .dwtag  DW_TAG_subprogram, DW_AT_name("global_strcpy"), DW_AT_symbol_name("_global_strcpy")
TMS320C2000 COFF Assembler PC v4.1.3 Sat Oct 08 14:42:32 2011

Tools Copyright (c) 1996-2006 Texas Instruments Incorporated
C:\DOCUME~1\ADMINI~1\LOCALS~1\Temp\TI8522                            PAGE    8

     350                      .dwattr DW$54, DW_AT_type(*DW$T$32)
     351                      .dwattr DW$54, DW_AT_declaration(0x01)
     352                      .dwattr DW$54, DW_AT_external(0x01)
     353              DW$55   .dwtag  DW_TAG_formal_parameter, DW_AT_type(*DW$T$32)
     354              DW$56   .dwtag  DW_TAG_formal_parameter, DW_AT_type(*DW$T$32)
     355                      .dwendtag DW$54
     356              
     357                      .global _fIb
     358 00000018       _fIb:   .usect  ".ebss",2,1,1
     359              DW$57   .dwtag  DW_TAG_variable, DW_AT_name("fIb"), DW_AT_symbol_name("_fIb")
     360                      .dwattr DW$57, DW_AT_location[DW_OP_addr _fIb]
     361                      .dwattr DW$57, DW_AT_type(*DW$T$16)
     362                      .dwattr DW$57, DW_AT_external(0x01)
     363                      .global _fUb
     364 0000001a       _fUb:   .usect  ".ebss",2,1,1
     365              DW$58   .dwtag  DW_TAG_variable, DW_AT_name("fUb"), DW_AT_symbol_name("_fUb")
     366                      .dwattr DW$58, DW_AT_location[DW_OP_addr _fUb]
     367                      .dwattr DW$58, DW_AT_type(*DW$T$16)
     368                      .dwattr DW$58, DW_AT_external(0x01)
     369                      .global _fJa
     370 0000001c       _fJa:   .usect  ".ebss",2,1,1
     371              DW$59   .dwtag  DW_TAG_variable, DW_AT_name("fJa"), DW_AT_symbol_name("_fJa")
     372                      .dwattr DW$59, DW_AT_location[DW_OP_addr _fJa]
     373                      .dwattr DW$59, DW_AT_type(*DW$T$16)
     374                      .dwattr DW$59, DW_AT_external(0x01)
     375                      .global _fUa
     376 0000001e       _fUa:   .usect  ".ebss",2,1,1
     377              DW$60   .dwtag  DW_TAG_variable, DW_AT_name("fUa"), DW_AT_symbol_name("_fUa")
     378                      .dwattr DW$60, DW_AT_location[DW_OP_addr _fUa]
     379                      .dwattr DW$60, DW_AT_type(*DW$T$16)
     380                      .dwattr DW$60, DW_AT_external(0x01)
     381                      .global _fIa
     382 00000020       _fIa:   .usect  ".ebss",2,1,1
     383              DW$61   .dwtag  DW_TAG_variable, DW_AT_name("fIa"), DW_AT_symbol_name("_fIa")
     384                      .dwattr DW$61, DW_AT_location[DW_OP_addr _fIa]
     385                      .dwattr DW$61, DW_AT_type(*DW$T$16)
     386                      .dwattr DW$61, DW_AT_external(0x01)
     387                      .global _fJb
     388 00000022       _fJb:   .usect  ".ebss",2,1,1
     389              DW$62   .dwtag  DW_TAG_variable, DW_AT_name("fJb"), DW_AT_symbol_name("_fJb")
     390                      .dwattr DW$62, DW_AT_location[DW_OP_addr _fJb]
     391                      .dwattr DW$62, DW_AT_type(*DW$T$16)
     392                      .dwattr DW$62, DW_AT_external(0x01)
     393                      .global _result
     394 00000024       _result:        .usect  ".ebss",5,1,0
     395              DW$63   .dwtag  DW_TAG_variable, DW_AT_name("result"), DW_AT_symbol_name("_result")
     396                      .dwattr DW$63, DW_AT_location[DW_OP_addr _result]
     397                      .dwattr DW$63, DW_AT_type(*DW$T$90)
     398                      .dwattr DW$63, DW_AT_external(0x01)
     399              DW$64   .dwtag  DW_TAG_variable, DW_AT_name("g_DL_param"), DW_AT_symbol_name("_g_DL_param")
     400                      .dwattr DW$64, DW_AT_type(*DW$T$115)
     401                      .dwattr DW$64, DW_AT_declaration(0x01)
     402                      .dwattr DW$64, DW_AT_external(0x01)
     403                      .global _cha_x
     404 00000040       _cha_x: .usect  ".ebss",128,1,0
TMS320C2000 COFF Assembler PC v4.1.3 Sat Oct 08 14:42:32 2011

Tools Copyright (c) 1996-2006 Texas Instruments Incorporated
C:\DOCUME~1\ADMINI~1\LOCALS~1\Temp\TI8522                            PAGE    9

     405              DW$65   .dwtag  DW_TAG_variable, DW_AT_name("cha_x"), DW_AT_symbol_name("_cha_x")
     406                      .dwattr DW$65, DW_AT_location[DW_OP_addr _cha_x]
     407                      .dwattr DW$65, DW_AT_type(*DW$T$84)
     408                      .dwattr DW$65, DW_AT_external(0x01)
     409                      .global _cha48
     410 00000000               .sect   ".econst"
     411                      .align  2
     412 00000000       _cha48:
     413 00000000 FFC4          .field          -60,16                  ; _cha48[0]._cfuac @ 0
     414 00000001 FF88          .field          -120,16                 ; _cha48[0]._cfiac @ 16
     415 00000002 FFC4          .field          -60,16                  ; _cha48[0]._cfa @ 32
     416 00000003 FF88          .field          -120,16                 ; _cha48[0]._cfc @ 48
     417 00000004 0488+         .field          FSL1,32         ; _cha48[0]._uxian @ 64
         00000005 0000 
     418 00000006 0492+         .field          FSL2,32         ; _cha48[0]._ixian @ 96
         00000007 0000 
     419 00000008 FFC4          .field          -60,16                  ; _cha48[1]._cfuac @ 128
     420 00000009 0078          .field          120,16                  ; _cha48[1]._cfiac @ 144
     421 0000000a FF4C          .field          -180,16                 ; _cha48[1]._cfa @ 160
     422 0000000b 0000          .field          0,16                    ; _cha48[1]._cfc @ 176
     423 0000000c 0488+         .field          FSL1,32         ; _cha48[1]._uxian @ 192
         0000000d 0000 
     424 0000000e 049E+         .field          FSL3,32         ; _cha48[1]._ixian @ 224
         0000000f 0000 
     425 00000010 FFC4          .field          -60,16                  ; _cha48[2]._cfuac @ 256
     426 00000011 FF88          .field          -120,16                 ; _cha48[2]._cfiac @ 272
     427 00000012 0078          .field          120,16                  ; _cha48[2]._cfa @ 288
     428 00000013 003C          .field          60,16                   ; _cha48[2]._cfc @ 304
     429 00000014 0488+         .field          FSL1,32         ; _cha48[2]._uxian @ 320
         00000015 0000 
     430 00000016 04AA+         .field          FSL4,32         ; _cha48[2]._ixian @ 352
         00000017 0000 
     431 00000018 FFC4          .field          -60,16                  ; _cha48[3]._cfuac @ 384
     432 00000019 0078          .field          120,16                  ; _cha48[3]._cfiac @ 400
     433 0000001a 0000          .field          0,16                    ; _cha48[3]._cfa @ 416
     434 0000001b FF4C          .field          -180,16                 ; _cha48[3]._cfc @ 432
     435 0000001c 0488+         .field          FSL1,32         ; _cha48[3]._uxian @ 448
         0000001d 0000 
     436 0000001e 04B6+         .field          FSL5,32         ; _cha48[3]._ixian @ 480
         0000001f 0000 
     437 00000020 FFC4          .field          -60,16                  ; _cha48[4]._cfuac @ 512
     438 00000021 003C          .field          60,16                   ; _cha48[4]._cfiac @ 528
     439 00000022 0078          .field          120,16                  ; _cha48[4]._cfa @ 544
     440 00000023 FF88          .field          -120,16                 ; _cha48[4]._cfc @ 560
     441 00000024 0488+         .field          FSL1,32         ; _cha48[4]._uxian @ 576
         00000025 0000 
     442 00000026 04C2+         .field          FSL6,32         ; _cha48[4]._ixian @ 608
         00000027 0000 
     443 00000028 FFC4          .field          -60,16                  ; _cha48[5]._cfuac @ 640
     444 00000029 FFC4          .field          -60,16                  ; _cha48[5]._cfiac @ 656
     445 0000002a FF4C          .field          -180,16                 ; _cha48[5]._cfa @ 672
     446 0000002b FF4C          .field          -180,16                 ; _cha48[5]._cfc @ 688
     447 0000002c 0488+         .field          FSL1,32         ; _cha48[5]._uxian @ 704
         0000002d 0000 
     448 0000002e 04CE+         .field          FSL7,32         ; _cha48[5]._ixian @ 736
TMS320C2000 COFF Assembler PC v4.1.3 Sat Oct 08 14:42:32 2011

Tools Copyright (c) 1996-2006 Texas Instruments Incorporated
C:\DOCUME~1\ADMINI~1\LOCALS~1\Temp\TI8522                            PAGE   10

         0000002f 0000 
     449 00000030 FFC4          .field          -60,16                  ; _cha48[6]._cfuac @ 768
     450 00000031 003C          .field          60,16                   ; _cha48[6]._cfiac @ 784
     451 00000032 FFC4          .field          -60,16                  ; _cha48[6]._cfa @ 800
     452 00000033 003C          .field          60,16                   ; _cha48[6]._cfc @ 816
     453 00000034 0488+         .field          FSL1,32         ; _cha48[6]._uxian @ 832
         00000035 0000 
     454 00000036 04DA+         .field          FSL8,32         ; _cha48[6]._ixian @ 864
         00000037 0000 
     455 00000038 FFC4          .field          -60,16                  ; _cha48[7]._cfuac @ 896
     456 00000039 FFC4          .field          -60,16                  ; _cha48[7]._cfiac @ 912
     457 0000003a 0000          .field          0,16                    ; _cha48[7]._cfa @ 928
     458 0000003b 0000          .field          0,16                    ; _cha48[7]._cfc @ 944
     459 0000003c 0488+         .field          FSL1,32         ; _cha48[7]._uxian @ 960
         0000003d 0000 
     460 0000003e 04E6+         .field          FSL9,32         ; _cha48[7]._ixian @ 992
         0000003f 0000 
     461 00000040 FFC4          .field          -60,16                  ; _cha48[8]._cfuac @ 1024
     462 00000041 FF88          .field          -120,16                 ; _cha48[8]._cfiac @ 1040
     463 00000042 FF4C          .field          -180,16                 ; _cha48[8]._cfa @ 1056
     464 00000043 0078          .field          120,16                  ; _cha48[8]._cfc @ 1072
     465 00000044 04F2+         .field          FSL10,32                ; _cha48[8]._uxian @ 1088
         00000045 0000 
     466 00000046 0492+         .field          FSL2,32         ; _cha48[8]._ixian @ 1120
         00000047 0000 
     467 00000048 FFC4          .field          -60,16                  ; _cha48[9]._cfuac @ 1152
     468 00000049 0078          .field          120,16                  ; _cha48[9]._cfiac @ 1168
     469 0000004a 003C          .field          60,16                   ; _cha48[9]._cfa @ 1184
     470 0000004b FF88          .field          -120,16                 ; _cha48[9]._cfc @ 1200
     471 0000004c 04F2+         .field          FSL10,32                ; _cha48[9]._uxian @ 1216
         0000004d 0000 
     472 0000004e 049E+         .field          FSL3,32         ; _cha48[9]._ixian @ 1248
         0000004f 0000 
     473 00000050 FFC4          .field          -60,16                  ; _cha48[10]._cfuac @ 1280
     474 00000051 FF88          .field          -120,16                 ; _cha48[10]._cfiac @ 1296
     475 00000052 0000          .field          0,16                    ; _cha48[10]._cfa @ 1312
     476 00000053 FFC4          .field          -60,16                  ; _cha48[10]._cfc @ 1328
     477 00000054 04F2+         .field          FSL10,32                ; _cha48[10]._uxian @ 1344
         00000055 0000 
     478 00000056 04AA+         .field          FSL4,32         ; _cha48[10]._ixian @ 1376
         00000057 0000 
     479 00000058 FFC4          .field          -60,16                  ; _cha48[11]._cfuac @ 1408
     480 00000059 0078          .field          120,16                  ; _cha48[11]._cfiac @ 1424
     481 0000005a FF88          .field          -120,16                 ; _cha48[11]._cfa @ 1440
     482 0000005b 003C          .field          60,16                   ; _cha48[11]._cfc @ 1456
     483 0000005c 04F2+         .field          FSL10,32                ; _cha48[11]._uxian @ 1472
         0000005d 0000 
     484 0000005e 04B6+         .field          FSL5,32         ; _cha48[11]._ixian @ 1504
         0000005f 0000 
     485 00000060 FFC4          .field          -60,16                  ; _cha48[12]._cfuac @ 1536
     486 00000061 003C          .field          60,16                   ; _cha48[12]._cfiac @ 1552
     487 00000062 0000          .field          0,16                    ; _cha48[12]._cfa @ 1568
     488 00000063 0078          .field          120,16                  ; _cha48[12]._cfc @ 1584
     489 00000064 04F2+         .field          FSL10,32                ; _cha48[12]._uxian @ 1600
         00000065 0000 
TMS320C2000 COFF Assembler PC v4.1.3 Sat Oct 08 14:42:32 2011

Tools Copyright (c) 1996-2006 Texas Instruments Incorporated
C:\DOCUME~1\ADMINI~1\LOCALS~1\Temp\TI8522                            PAGE   11

     490 00000066 04C2+         .field          FSL6,32         ; _cha48[12]._ixian @ 1632
         00000067 0000 
     491 00000068 FFC4          .field          -60,16                  ; _cha48[13]._cfuac @ 1664
     492 00000069 FFC4          .field          -60,16                  ; _cha48[13]._cfiac @ 1680
     493 0000006a 003C          .field          60,16                   ; _cha48[13]._cfa @ 1696
     494 0000006b 003C          .field          60,16                   ; _cha48[13]._cfc @ 1712
     495 0000006c 04F2+         .field          FSL10,32                ; _cha48[13]._uxian @ 1728
         0000006d 0000 
     496 0000006e 04E6+         .field          FSL9,32         ; _cha48[13]._ixian @ 1760
         0000006f 0000 
     497 00000070 FFC4          .field          -60,16                  ; _cha48[14]._cfuac @ 1792
     498 00000071 003C          .field          60,16                   ; _cha48[14]._cfiac @ 1808
     499 00000072 FF4C          .field          -180,16                 ; _cha48[14]._cfa @ 1824
     500 00000073 FFC4          .field          -60,16                  ; _cha48[14]._cfc @ 1840
     501 00000074 04F2+         .field          FSL10,32                ; _cha48[14]._uxian @ 1856
         00000075 0000 
     502 00000076 04DA+         .field          FSL8,32         ; _cha48[14]._ixian @ 1888
         00000077 0000 
     503 00000078 FFC4          .field          -60,16                  ; _cha48[15]._cfuac @ 1920
     504 00000079 FFC4          .field          -60,16                  ; _cha48[15]._cfiac @ 1936
     505 0000007a FF88          .field          -120,16                 ; _cha48[15]._cfa @ 1952
     506 0000007b FF88          .field          -120,16                 ; _cha48[15]._cfc @ 1968
     507 0000007c 04F2+         .field          FSL10,32                ; _cha48[15]._uxian @ 1984
         0000007d 0000 
     508 0000007e 04CE+         .field          FSL7,32         ; _cha48[15]._ixian @ 2016
         0000007f 0000 
     509 00000080 FFC4          .field          -60,16                  ; _cha48[16]._cfuac @ 2048
     510 00000081 FF88          .field          -120,16                 ; _cha48[16]._cfiac @ 2064
     511 00000082 003C          .field          60,16                   ; _cha48[16]._cfa @ 2080
     512 00000083 0000          .field          0,16                    ; _cha48[16]._cfc @ 2096
     513 00000084 04FC+         .field          FSL11,32                ; _cha48[16]._uxian @ 2112
         00000085 0000 
     514 00000086 0492+         .field          FSL2,32         ; _cha48[16]._ixian @ 2144
         00000087 0000 
     515 00000088 FFC4          .field          -60,16                  ; _cha48[17]._cfuac @ 2176
     516 00000089 0078          .field          120,16                  ; _cha48[17]._cfiac @ 2192
     517 0000008a FFC4          .field          -60,16                  ; _cha48[17]._cfa @ 2208
     518 0000008b 0078          .field          120,16                  ; _cha48[17]._cfc @ 2224
     519 0000008c 04FC+         .field          FSL11,32                ; _cha48[17]._uxian @ 2240
         0000008d 0000 
     520 0000008e 049E+         .field          FSL3,32         ; _cha48[17]._ixian @ 2272
         0000008f 0000 
     521 00000090 FFC4          .field          -60,16                  ; _cha48[18]._cfuac @ 2304
     522 00000091 FF88          .field          -120,16                 ; _cha48[18]._cfiac @ 2320
     523 00000092 FF88          .field          -120,16                 ; _cha48[18]._cfa @ 2336
     524 00000093 FF4C          .field          -180,16                 ; _cha48[18]._cfc @ 2352
     525 00000094 04FC+         .field          FSL11,32                ; _cha48[18]._uxian @ 2368
         00000095 0000 
     526 00000096 04AA+         .field          FSL4,32         ; _cha48[18]._ixian @ 2400
         00000097 0000 
     527 00000098 FFC4          .field          -60,16                  ; _cha48[19]._cfuac @ 2432
     528 00000099 0078          .field          120,16                  ; _cha48[19]._cfiac @ 2448
     529 0000009a 0078          .field          120,16                  ; _cha48[19]._cfa @ 2464
     530 0000009b FFC4          .field          -60,16                  ; _cha48[19]._cfc @ 2480
     531 0000009c 04FC+         .field          FSL11,32                ; _cha48[19]._uxian @ 2496
TMS320C2000 COFF Assembler PC v4.1.3 Sat Oct 08 14:42:32 2011

Tools Copyright (c) 1996-2006 Texas Instruments Incorporated
C:\DOCUME~1\ADMINI~1\LOCALS~1\Temp\TI8522                            PAGE   12

         0000009d 0000 
     532 0000009e 04B6+         .field          FSL5,32         ; _cha48[19]._ixian @ 2528
         0000009f 0000 
     533 000000a0 FFC4          .field          -60,16                  ; _cha48[20]._cfuac @ 2560
     534 000000a1 003C          .field          60,16                   ; _cha48[20]._cfiac @ 2576
     535 000000a2 FF88          .field          -120,16                 ; _cha48[20]._cfa @ 2592
     536 000000a3 0000          .field          0,16                    ; _cha48[20]._cfc @ 2608
     537 000000a4 04FC+         .field          FSL11,32                ; _cha48[20]._uxian @ 2624
         000000a5 0000 
     538 000000a6 04C2+         .field          FSL6,32         ; _cha48[20]._ixian @ 2656
         000000a7 0000 
     539 000000a8 FFC4          .field          -60,16                  ; _cha48[21]._cfuac @ 2688
     540 000000a9 FFC4          .field          -60,16                  ; _cha48[21]._cfiac @ 2704
     541 000000aa FFC4          .field          -60,16                  ; _cha48[21]._cfa @ 2720
     542 000000ab FFC4          .field          -60,16                  ; _cha48[21]._cfc @ 2736
     543 000000ac 04FC+         .field          FSL11,32                ; _cha48[21]._uxian @ 2752
         000000ad 0000 
     544 000000ae 04E6+         .field          FSL9,32         ; _cha48[21]._ixian @ 2784
         000000af 0000 
     545 000000b0 FFC4          .field          -60,16                  ; _cha48[22]._cfuac @ 2816
     546 000000b1 003C          .field          60,16                   ; _cha48[22]._cfiac @ 2832
     547 000000b2 003C          .field          60,16                   ; _cha48[22]._cfa @ 2848
     548 000000b3 FF4C          .field          -180,16                 ; _cha48[22]._cfc @ 2864
     549 000000b4 04FC+         .field          FSL11,32                ; _cha48[22]._uxian @ 2880
         000000b5 0000 
     550 000000b6 04DA+         .field          FSL8,32         ; _cha48[22]._ixian @ 2912
         000000b7 0000 
     551 000000b8 FFC4          .field          -60,16                  ; _cha48[23]._cfuac @ 2944
     552 000000b9 FFC4          .field          -60,16                  ; _cha48[23]._cfiac @ 2960
     553 000000ba 0078          .field          120,16                  ; _cha48[23]._cfa @ 2976
     554 000000bb 0078          .field          120,16                  ; _cha48[23]._cfc @ 2992
     555 000000bc 04FC+         .field          FSL11,32                ; _cha48[23]._uxian @ 3008
         000000bd 0000 
     556 000000be 04CE+         .field          FSL7,32         ; _cha48[23]._ixian @ 3040
         000000bf 0000 
     557 000000c0 003C          .field          60,16                   ; _cha48[24]._cfuac @ 3072
     558 000000c1 FF88          .field          -120,16                 ; _cha48[24]._cfiac @ 3088
     559 000000c2 FF88          .field          -120,16                 ; _cha48[24]._cfa @ 3104
     560 000000c3 003C          .field          60,16                   ; _cha48[24]._cfc @ 3120
     561 000000c4 0506+         .field          FSL12,32                ; _cha48[24]._uxian @ 3136
         000000c5 0000 
     562 000000c6 0492+         .field          FSL2,32         ; _cha48[24]._ixian @ 3168
         000000c7 0000 
     563 000000c8 003C          .field          60,16                   ; _cha48[25]._cfuac @ 3200
     564 000000c9 0078          .field          120,16                  ; _cha48[25]._cfiac @ 3216
     565 000000ca 0078          .field          120,16                  ; _cha48[25]._cfa @ 3232
     566 000000cb FF4C          .field          -180,16                 ; _cha48[25]._cfc @ 3248
     567 000000cc 0506+         .field          FSL12,32                ; _cha48[25]._uxian @ 3264
         000000cd 0000 
     568 000000ce 049E+         .field          FSL3,32         ; _cha48[25]._ixian @ 3296
         000000cf 0000 
     569 000000d0 003C          .field          60,16                   ; _cha48[26]._cfuac @ 3328
     570 000000d1 FF88          .field          -120,16                 ; _cha48[26]._cfiac @ 3344
     571 000000d2 003C          .field          60,16                   ; _cha48[26]._cfa @ 3360
     572 000000d3 FF88          .field          -120,16                 ; _cha48[26]._cfc @ 3376
TMS320C2000 COFF Assembler PC v4.1.3 Sat Oct 08 14:42:32 2011

Tools Copyright (c) 1996-2006 Texas Instruments Incorporated
C:\DOCUME~1\ADMINI~1\LOCALS~1\Temp\TI8522                            PAGE   13

     573 000000d4 0506+         .field          FSL12,32                ; _cha48[26]._uxian @ 3392
         000000d5 0000 
     574 000000d6 04AA+         .field          FSL4,32         ; _cha48[26]._ixian @ 3424
         000000d7 0000 
     575 000000d8 003C          .field          60,16                   ; _cha48[27]._cfuac @ 3456
     576 000000d9 0078          .field          120,16                  ; _cha48[27]._cfiac @ 3472
     577 000000da FFC4          .field          -60,16                  ; _cha48[27]._cfa @ 3488
     578 000000db 0000          .field          0,16                    ; _cha48[27]._cfc @ 3504
     579 000000dc 0506+         .field          FSL12,32                ; _cha48[27]._uxian @ 3520
         000000dd 0000 
     580 000000de 04B6+         .field          FSL5,32         ; _cha48[27]._ixian @ 3552
         000000df 0000 
     581 000000e0 003C          .field          60,16                   ; _cha48[28]._cfuac @ 3584
     582 000000e1 003C          .field          60,16                   ; _cha48[28]._cfiac @ 3600
     583 000000e2 003C          .field          60,16                   ; _cha48[28]._cfa @ 3616
     584 000000e3 003C          .field          60,16                   ; _cha48[28]._cfc @ 3632
     585 000000e4 0506+         .field          FSL12,32                ; _cha48[28]._uxian @ 3648
         000000e5 0000 
     586 000000e6 04C2+         .field          FSL6,32         ; _cha48[28]._ixian @ 3680
         000000e7 0000 
     587 000000e8 003C          .field          60,16                   ; _cha48[29]._cfuac @ 3712
     588 000000e9 FFC4          .field          -60,16                  ; _cha48[29]._cfiac @ 3728
     589 000000ea 0078          .field          120,16                  ; _cha48[29]._cfa @ 3744
     590 000000eb 0000          .field          0,16                    ; _cha48[29]._cfc @ 3760
     591 000000ec 0506+         .field          FSL12,32                ; _cha48[29]._uxian @ 3776
         000000ed 0000 
     592 000000ee 04E6+         .field          FSL9,32         ; _cha48[29]._ixian @ 3808
         000000ef 0000 
     593 000000f0 003C          .field          60,16                   ; _cha48[30]._cfuac @ 3840
     594 000000f1 003C          .field          60,16                   ; _cha48[30]._cfiac @ 3856
     595 000000f2 FF88          .field          -120,16                 ; _cha48[30]._cfa @ 3872
     596 000000f3 FF88          .field          -120,16                 ; _cha48[30]._cfc @ 3888
     597 000000f4 0506+         .field          FSL12,32                ; _cha48[30]._uxian @ 3904
         000000f5 0000 
     598 000000f6 04DA+         .field          FSL8,32         ; _cha48[30]._ixian @ 3936
         000000f7 0000 
     599 000000f8 003C          .field          60,16                   ; _cha48[31]._cfuac @ 3968
     600 000000f9 FFC4          .field          -60,16                  ; _cha48[31]._cfiac @ 3984
     601 000000fa FFC4          .field          -60,16                  ; _cha48[31]._cfa @ 4000
     602 000000fb FF4C          .field          -180,16                 ; _cha48[31]._cfc @ 4016
     603 000000fc 0506+         .field          FSL12,32                ; _cha48[31]._uxian @ 4032
         000000fd 0000 
     604 000000fe 04CE+         .field          FSL7,32         ; _cha48[31]._ixian @ 4064
         000000ff 0000 
     605 00000100 003C          .field          60,16                   ; _cha48[32]._cfuac @ 4096
     606 00000101 FF88          .field          -120,16                 ; _cha48[32]._cfiac @ 4112
     607 00000102 0078          .field          120,16                  ; _cha48[32]._cfa @ 4128
     608 00000103 FFC4          .field          -60,16                  ; _cha48[32]._cfc @ 4144
     609 00000104 0510+         .field          FSL13,32                ; _cha48[32]._uxian @ 4160
         00000105 0000 
     610 00000106 0492+         .field          FSL2,32         ; _cha48[32]._ixian @ 4192
         00000107 0000 
     611 00000108 003C          .field          60,16                   ; _cha48[33]._cfuac @ 4224
     612 00000109 0078          .field          120,16                  ; _cha48[33]._cfiac @ 4240
     613 0000010a 0000          .field          0,16                    ; _cha48[33]._cfa @ 4256
TMS320C2000 COFF Assembler PC v4.1.3 Sat Oct 08 14:42:32 2011

Tools Copyright (c) 1996-2006 Texas Instruments Incorporated
C:\DOCUME~1\ADMINI~1\LOCALS~1\Temp\TI8522                            PAGE   14

     614 0000010b 003C          .field          60,16                   ; _cha48[33]._cfc @ 4272
     615 0000010c 0510+         .field          FSL13,32                ; _cha48[33]._uxian @ 4288
         0000010d 0000 
     616 0000010e 049E+         .field          FSL3,32         ; _cha48[33]._ixian @ 4320
         0000010f 0000 
     617 00000110 003C          .field          60,16                   ; _cha48[34]._cfuac @ 4352
     618 00000111 FF88          .field          -120,16                 ; _cha48[34]._cfiac @ 4368
     619 00000112 FFC4          .field          -60,16                  ; _cha48[34]._cfa @ 4384
     620 00000113 0078          .field          120,16                  ; _cha48[34]._cfc @ 4400
     621 00000114 0510+         .field          FSL13,32                ; _cha48[34]._uxian @ 4416
         00000115 0000 
     622 00000116 04AA+         .field          FSL4,32         ; _cha48[34]._ixian @ 4448
         00000117 0000 
     623 00000118 003C          .field          60,16                   ; _cha48[35]._cfuac @ 4480
     624 00000119 0078          .field          120,16                  ; _cha48[35]._cfiac @ 4496
     625 0000011a FF4C          .field          -180,16                 ; _cha48[35]._cfa @ 4512
     626 0000011b FF88          .field          -120,16                 ; _cha48[35]._cfc @ 4528
     627 0000011c 0510+         .field          FSL13,32                ; _cha48[35]._uxian @ 4544
         0000011d 0000 
     628 0000011e 04B6+         .field          FSL5,32         ; _cha48[35]._ixian @ 4576
         0000011f 0000 
     629 00000120 003C          .field          60,16                   ; _cha48[36]._cfuac @ 4608
     630 00000121 003C          .field          60,16                   ; _cha48[36]._cfiac @ 4624
     631 00000122 FFC4          .field          -60,16                  ; _cha48[36]._cfa @ 4640
     632 00000123 FFC4          .field          -60,16                  ; _cha48[36]._cfc @ 4656
     633 00000124 0510+         .field          FSL13,32                ; _cha48[36]._uxian @ 4672
         00000125 0000 
     634 00000126 04C2+         .field          FSL6,32         ; _cha48[36]._ixian @ 4704
         00000127 0000 
     635 00000128 003C          .field          60,16                   ; _cha48[37]._cfuac @ 4736
     636 00000129 FFC4          .field          -60,16                  ; _cha48[37]._cfiac @ 4752
     637 0000012a 0000          .field          0,16                    ; _cha48[37]._cfa @ 4768
     638 0000012b FF88          .field          -120,16                 ; _cha48[37]._cfc @ 4784
     639 0000012c 0510+         .field          FSL13,32                ; _cha48[37]._uxian @ 4800
         0000012d 0000 
     640 0000012e 04E6+         .field          FSL9,32         ; _cha48[37]._ixian @ 4832
         0000012f 0000 
     641 00000130 003C          .field          60,16                   ; _cha48[38]._cfuac @ 4864
     642 00000131 003C          .field          60,16                   ; _cha48[38]._cfiac @ 4880
     643 00000132 0078          .field          120,16                  ; _cha48[38]._cfa @ 4896
     644 00000133 0078          .field          120,16                  ; _cha48[38]._cfc @ 4912
     645 00000134 0510+         .field          FSL13,32                ; _cha48[38]._uxian @ 4928
         00000135 0000 
     646 00000136 04DA+         .field          FSL8,32         ; _cha48[38]._ixian @ 4960
         00000137 0000 
     647 00000138 003C          .field          60,16                   ; _cha48[39]._cfuac @ 4992
     648 00000139 FFC4          .field          -60,16                  ; _cha48[39]._cfiac @ 5008
     649 0000013a FF4C          .field          -180,16                 ; _cha48[39]._cfa @ 5024
     650 0000013b 003C          .field          60,16                   ; _cha48[39]._cfc @ 5040
     651 0000013c 0510+         .field          FSL13,32                ; _cha48[39]._uxian @ 5056
         0000013d 0000 
     652 0000013e 04CE+         .field          FSL7,32         ; _cha48[39]._ixian @ 5088
         0000013f 0000 
     653 00000140 003C          .field          60,16                   ; _cha48[40]._cfuac @ 5120
     654 00000141 FF88          .field          -120,16                 ; _cha48[40]._cfiac @ 5136
TMS320C2000 COFF Assembler PC v4.1.3 Sat Oct 08 14:42:32 2011

Tools Copyright (c) 1996-2006 Texas Instruments Incorporated
C:\DOCUME~1\ADMINI~1\LOCALS~1\Temp\TI8522                            PAGE   15

     655 00000142 0000          .field          0,16                    ; _cha48[40]._cfa @ 5152
     656 00000143 FF4C          .field          -180,16                 ; _cha48[40]._cfc @ 5168
     657 00000144 051A+         .field          FSL14,32                ; _cha48[40]._uxian @ 5184
         00000145 0000 
     658 00000146 0492+         .field          FSL2,32         ; _cha48[40]._ixian @ 5216
         00000147 0000 
     659 00000148 003C          .field          60,16                   ; _cha48[41]._cfuac @ 5248
     660 00000149 0078          .field          120,16                  ; _cha48[41]._cfiac @ 5264
     661 0000014a FF88          .field          -120,16                 ; _cha48[41]._cfa @ 5280
     662 0000014b FFC4          .field          -60,16                  ; _cha48[41]._cfc @ 5296
     663 0000014c 051A+         .field          FSL14,32                ; _cha48[41]._uxian @ 5312
         0000014d 0000 
     664 0000014e 049E+         .field          FSL3,32         ; _cha48[41]._ixian @ 5344
         0000014f 0000 
     665 00000150 003C          .field          60,16                   ; _cha48[42]._cfuac @ 5376
     666 00000151 FF88          .field          -120,16                 ; _cha48[42]._cfiac @ 5392
     667 00000152 FF4C          .field          -180,16                 ; _cha48[42]._cfa @ 5408
     668 00000153 0000          .field          0,16                    ; _cha48[42]._cfc @ 5424
     669 00000154 051A+         .field          FSL14,32                ; _cha48[42]._uxian @ 5440
         00000155 0000 
     670 00000156 04AA+         .field          FSL4,32         ; _cha48[42]._ixian @ 5472
         00000157 0000 
     671 00000158 003C          .field          60,16                   ; _cha48[43]._cfuac @ 5504
     672 00000159 0078          .field          120,16                  ; _cha48[43]._cfiac @ 5520
     673 0000015a 003C          .field          60,16                   ; _cha48[43]._cfa @ 5536
     674 0000015b 0078          .field          120,16                  ; _cha48[43]._cfc @ 5552
     675 0000015c 051A+         .field          FSL14,32                ; _cha48[43]._uxian @ 5568
         0000015d 0000 
     676 0000015e 04B6+         .field          FSL5,32         ; _cha48[43]._ixian @ 5600
         0000015f 0000 
     677 00000160 003C          .field          60,16                   ; _cha48[44]._cfuac @ 5632
     678 00000161 003C          .field          60,16                   ; _cha48[44]._cfiac @ 5648
     679 00000162 FF4C          .field          -180,16                 ; _cha48[44]._cfa @ 5664
     680 00000163 FF4C          .field          -180,16                 ; _cha48[44]._cfc @ 5680
     681 00000164 051A+         .field          FSL14,32                ; _cha48[44]._uxian @ 5696
         00000165 0000 
     682 00000166 04C2+         .field          FSL6,32         ; _cha48[44]._ixian @ 5728
         00000167 0000 
     683 00000168 003C          .field          60,16                   ; _cha48[45]._cfuac @ 5760
     684 00000169 FFC4          .field          -60,16                  ; _cha48[45]._cfiac @ 5776
     685 0000016a FF88          .field          -120,16                 ; _cha48[45]._cfa @ 5792
     686 0000016b 0078          .field          120,16                  ; _cha48[45]._cfc @ 5808
     687 0000016c 051A+         .field          FSL14,32                ; _cha48[45]._uxian @ 5824
         0000016d 0000 
     688 0000016e 04E6+         .field          FSL9,32         ; _cha48[45]._ixian @ 5856
         0000016f 0000 
     689 00000170 003C          .field          60,16                   ; _cha48[46]._cfuac @ 5888
     690 00000171 003C          .field          60,16                   ; _cha48[46]._cfiac @ 5904
     691 00000172 0000          .field          0,16                    ; _cha48[46]._cfa @ 5920
     692 00000173 0000          .field          0,16                    ; _cha48[46]._cfc @ 5936
     693 00000174 051A+         .field          FSL14,32                ; _cha48[46]._uxian @ 5952
         00000175 0000 
     694 00000176 04DA+         .field          FSL8,32         ; _cha48[46]._ixian @ 5984
         00000177 0000 
     695 00000178 003C          .field          60,16                   ; _cha48[47]._cfuac @ 6016
TMS320C2000 COFF Assembler PC v4.1.3 Sat Oct 08 14:42:32 2011

Tools Copyright (c) 1996-2006 Texas Instruments Incorporated
C:\DOCUME~1\ADMINI~1\LOCALS~1\Temp\TI8522                            PAGE   16

     696 00000179 FFC4          .field          -60,16                  ; _cha48[47]._cfiac @ 6032
     697 0000017a 003C          .field          60,16                   ; _cha48[47]._cfa @ 6048
     698 0000017b FFC4          .field          -60,16                  ; _cha48[47]._cfc @ 6064
     699 0000017c 051A+         .field          FSL14,32                ; _cha48[47]._uxian @ 6080
         0000017d 0000 
     700 0000017e 04CE+         .field          FSL7,32         ; _cha48[47]._ixian @ 6112
         0000017f 0000 
     701              
     702              DW$66   .dwtag  DW_TAG_variable, DW_AT_name("cha48"), DW_AT_symbol_name("_cha48")
     703                      .dwattr DW$66, DW_AT_location[DW_OP_addr _cha48]
     704                      .dwattr DW$66, DW_AT_type(*DW$T$118)
     705                      .dwattr DW$66, DW_AT_external(0x01)
     706                      .global _cha96
     707 00000180               .sect   ".econst"
     708                      .align  2
     709 00000180       _cha96:
     710 00000180 002B          .field          43,16                   ; _cha96[0]._czhen @ 0
     711 00000181 FFA6          .field          -90,16                  ; _cha96[0]._cfa @ 16
     712 00000182 FFA6          .field          -90,16                  ; _cha96[0]._cfb @ 32
     713 00000183 FFA6          .field          -90,16                  ; _cha96[0]._cfc @ 48
     714 00000184 0488+         .field          FSL1,32         ; _cha96[0]._uxian @ 64
         00000185 0000 
     715 00000186 0524+         .field          FSL15,32                ; _cha96[0]._ixian @ 96
         00000187 0000 
     716 00000188 002B          .field          43,16                   ; _cha96[1]._czhen @ 128
     717 00000189 FFA6          .field          -90,16                  ; _cha96[1]._cfa @ 144
     718 0000018a FFA6          .field          -90,16                  ; _cha96[1]._cfb @ 160
     719 0000018b 005A          .field          90,16                   ; _cha96[1]._cfc @ 176
     720 0000018c 0488+         .field          FSL1,32         ; _cha96[1]._uxian @ 192
         0000018d 0000 
     721 0000018e 0530+         .field          FSL16,32                ; _cha96[1]._ixian @ 224
         0000018f 0000 
     722 00000190 002B          .field          43,16                   ; _cha96[2]._czhen @ 256
     723 00000191 FFA6          .field          -90,16                  ; _cha96[2]._cfa @ 272
     724 00000192 005A          .field          90,16                   ; _cha96[2]._cfb @ 288
     725 00000193 FFA6          .field          -90,16                  ; _cha96[2]._cfc @ 304
     726 00000194 0488+         .field          FSL1,32         ; _cha96[2]._uxian @ 320
         00000195 0000 
     727 00000196 053C+         .field          FSL17,32                ; _cha96[2]._ixian @ 352
         00000197 0000 
     728 00000198 002B          .field          43,16                   ; _cha96[3]._czhen @ 384
     729 00000199 FFA6          .field          -90,16                  ; _cha96[3]._cfa @ 400
     730 0000019a 005A          .field          90,16                   ; _cha96[3]._cfb @ 416
     731 0000019b 005A          .field          90,16                   ; _cha96[3]._cfc @ 432
     732 0000019c 0488+         .field          FSL1,32         ; _cha96[3]._uxian @ 448
         0000019d 0000 
     733 0000019e 0548+         .field          FSL18,32                ; _cha96[3]._ixian @ 480
         0000019f 0000 
     734 000001a0 002B          .field          43,16                   ; _cha96[4]._czhen @ 512
     735 000001a1 FFA6          .field          -90,16                  ; _cha96[4]._cfa @ 528
     736 000001a2 001E          .field          30,16                   ; _cha96[4]._cfb @ 544
     737 000001a3 0096          .field          150,16                  ; _cha96[4]._cfc @ 560
     738 000001a4 0488+         .field          FSL1,32         ; _cha96[4]._uxian @ 576
         000001a5 0000 
     739 000001a6 0554+         .field          FSL19,32                ; _cha96[4]._ixian @ 608
TMS320C2000 COFF Assembler PC v4.1.3 Sat Oct 08 14:42:32 2011

Tools Copyright (c) 1996-2006 Texas Instruments Incorporated
C:\DOCUME~1\ADMINI~1\LOCALS~1\Temp\TI8522                            PAGE   17

         000001a7 0000 
     740 000001a8 002B          .field          43,16                   ; _cha96[5]._czhen @ 640
     741 000001a9 FFA6          .field          -90,16                  ; _cha96[5]._cfa @ 656
     742 000001aa 001E          .field          30,16                   ; _cha96[5]._cfb @ 672
     743 000001ab FFE2          .field          -30,16                  ; _cha96[5]._cfc @ 688
     744 000001ac 0488+         .field          FSL1,32         ; _cha96[5]._uxian @ 704
         000001ad 0000 
     745 000001ae 0560+         .field          FSL20,32                ; _cha96[5]._ixian @ 736
         000001af 0000 
     746 000001b0 002B          .field          43,16                   ; _cha96[6]._czhen @ 768
     747 000001b1 FFA6          .field          -90,16                  ; _cha96[6]._cfa @ 784
     748 000001b2 FF6A          .field          -150,16                 ; _cha96[6]._cfb @ 800
     749 000001b3 0096          .field          150,16                  ; _cha96[6]._cfc @ 816
     750 000001b4 0488+         .field          FSL1,32         ; _cha96[6]._uxian @ 832
         000001b5 0000 
     751 000001b6 056C+         .field          FSL21,32                ; _cha96[6]._ixian @ 864
         000001b7 0000 
     752 000001b8 002B          .field          43,16                   ; _cha96[7]._czhen @ 896
     753 000001b9 FFA6          .field          -90,16                  ; _cha96[7]._cfa @ 912
     754 000001ba FF6A          .field          -150,16                 ; _cha96[7]._cfb @ 928
     755 000001bb FFE2          .field          -30,16                  ; _cha96[7]._cfc @ 944
     756 000001bc 0488+         .field          FSL1,32         ; _cha96[7]._uxian @ 960
         000001bd 0000 
     757 000001be 0578+         .field          FSL22,32                ; _cha96[7]._ixian @ 992
         000001bf 0000 
     758 000001c0 002B          .field          43,16                   ; _cha96[8]._czhen @ 1024
     759 000001c1 005A          .field          90,16                   ; _cha96[8]._cfa @ 1040
     760 000001c2 FFA6          .field          -90,16                  ; _cha96[8]._cfb @ 1056
     761 000001c3 FFA6          .field          -90,16                  ; _cha96[8]._cfc @ 1072
     762 000001c4 0488+         .field          FSL1,32         ; _cha96[8]._uxian @ 1088
         000001c5 0000 
     763 000001c6 0584+         .field          FSL23,32                ; _cha96[8]._ixian @ 1120
         000001c7 0000 
     764 000001c8 002B          .field          43,16                   ; _cha96[9]._czhen @ 1152
     765 000001c9 005A          .field          90,16                   ; _cha96[9]._cfa @ 1168
     766 000001ca FFA6          .field          -90,16                  ; _cha96[9]._cfb @ 1184
     767 000001cb 005A          .field          90,16                   ; _cha96[9]._cfc @ 1200
     768 000001cc 0488+         .field          FSL1,32         ; _cha96[9]._uxian @ 1216
         000001cd 0000 
     769 000001ce 0590+         .field          FSL24,32                ; _cha96[9]._ixian @ 1248
         000001cf 0000 
     770 000001d0 002B          .field          43,16                   ; _cha96[10]._czhen @ 1280
     771 000001d1 005A          .field          90,16                   ; _cha96[10]._cfa @ 1296
     772 000001d2 005A          .field          90,16                   ; _cha96[10]._cfb @ 1312
     773 000001d3 FFA6          .field          -90,16                  ; _cha96[10]._cfc @ 1328
     774 000001d4 0488+         .field          FSL1,32         ; _cha96[10]._uxian @ 1344
         000001d5 0000 
     775 000001d6 059C+         .field          FSL25,32                ; _cha96[10]._ixian @ 1376
         000001d7 0000 
     776 000001d8 002B          .field          43,16                   ; _cha96[11]._czhen @ 1408
     777 000001d9 005A          .field          90,16                   ; _cha96[11]._cfa @ 1424
     778 000001da 005A          .field          90,16                   ; _cha96[11]._cfb @ 1440
     779 000001db 005A          .field          90,16                   ; _cha96[11]._cfc @ 1456
     780 000001dc 0488+         .field          FSL1,32         ; _cha96[11]._uxian @ 1472
         000001dd 0000 
TMS320C2000 COFF Assembler PC v4.1.3 Sat Oct 08 14:42:32 2011

Tools Copyright (c) 1996-2006 Texas Instruments Incorporated
C:\DOCUME~1\ADMINI~1\LOCALS~1\Temp\TI8522                            PAGE   18

     781 000001de 05A8+         .field          FSL26,32                ; _cha96[11]._ixian @ 1504
         000001df 0000 
     782 000001e0 002B          .field          43,16                   ; _cha96[12]._czhen @ 1536
     783 000001e1 005A          .field          90,16                   ; _cha96[12]._cfa @ 1552
     784 000001e2 001E          .field          30,16                   ; _cha96[12]._cfb @ 1568
     785 000001e3 0096          .field          150,16                  ; _cha96[12]._cfc @ 1584
     786 000001e4 0488+         .field          FSL1,32         ; _cha96[12]._uxian @ 1600
         000001e5 0000 
     787 000001e6 05B4+         .field          FSL27,32                ; _cha96[12]._ixian @ 1632
         000001e7 0000 
     788 000001e8 002B          .field          43,16                   ; _cha96[13]._czhen @ 1664
     789 000001e9 005A          .field          90,16                   ; _cha96[13]._cfa @ 1680
     790 000001ea 001E          .field          30,16                   ; _cha96[13]._cfb @ 1696
     791 000001eb FFE2          .field          -30,16                  ; _cha96[13]._cfc @ 1712
     792 000001ec 0488+         .field          FSL1,32         ; _cha96[13]._uxian @ 1728
         000001ed 0000 
     793 000001ee 05C0+         .field          FSL28,32                ; _cha96[13]._ixian @ 1760
         000001ef 0000 
     794 000001f0 002B          .field          43,16                   ; _cha96[14]._czhen @ 1792
     795 000001f1 005A          .field          90,16                   ; _cha96[14]._cfa @ 1808
     796 000001f2 FF6A          .field          -150,16                 ; _cha96[14]._cfb @ 1824
     797 000001f3 0096          .field          150,16                  ; _cha96[14]._cfc @ 1840
     798 000001f4 0488+         .field          FSL1,32         ; _cha96[14]._uxian @ 1856
         000001f5 0000 
     799 000001f6 05CC+         .field          FSL29,32                ; _cha96[14]._ixian @ 1888
         000001f7 0000 
     800 000001f8 002B          .field          43,16                   ; _cha96[15]._czhen @ 1920
     801 000001f9 005A          .field          90,16                   ; _cha96[15]._cfa @ 1936
     802 000001fa FF6A          .field          -150,16                 ; _cha96[15]._cfb @ 1952
     803 000001fb FFE2          .field          -30,16                  ; _cha96[15]._cfc @ 1968
     804 000001fc 0488+         .field          FSL1,32         ; _cha96[15]._uxian @ 1984
         000001fd 0000 
     805 000001fe 05D8+         .field          FSL30,32                ; _cha96[15]._ixian @ 2016
         000001ff 0000 
     806 00000200 002B          .field          43,16                   ; _cha96[16]._czhen @ 2048
     807 00000201 001E          .field          30,16                   ; _cha96[16]._cfa @ 2064
     808 00000202 0096          .field          150,16                  ; _cha96[16]._cfb @ 2080
     809 00000203 FFA6          .field          -90,16                  ; _cha96[16]._cfc @ 2096
     810 00000204 0488+         .field          FSL1,32         ; _cha96[16]._uxian @ 2112
         00000205 0000 
     811 00000206 05E4+         .field          FSL31,32                ; _cha96[16]._ixian @ 2144
         00000207 0000 
     812 00000208 002B          .field          43,16                   ; _cha96[17]._czhen @ 2176
     813 00000209 001E          .field          30,16                   ; _cha96[17]._cfa @ 2192
     814 0000020a 0096          .field          150,16                  ; _cha96[17]._cfb @ 2208
     815 0000020b 005A          .field          90,16                   ; _cha96[17]._cfc @ 2224
     816 0000020c 0488+         .field          FSL1,32         ; _cha96[17]._uxian @ 2240
         0000020d 0000 
     817 0000020e 05F0+         .field          FSL32,32                ; _cha96[17]._ixian @ 2272
         0000020f 0000 
     818 00000210 002B          .field          43,16                   ; _cha96[18]._czhen @ 2304
     819 00000211 001E          .field          30,16                   ; _cha96[18]._cfa @ 2320
     820 00000212 FFE2          .field          -30,16                  ; _cha96[18]._cfb @ 2336
     821 00000213 FFA6          .field          -90,16                  ; _cha96[18]._cfc @ 2352
     822 00000214 0488+         .field          FSL1,32         ; _cha96[18]._uxian @ 2368
TMS320C2000 COFF Assembler PC v4.1.3 Sat Oct 08 14:42:32 2011

Tools Copyright (c) 1996-2006 Texas Instruments Incorporated
C:\DOCUME~1\ADMINI~1\LOCALS~1\Temp\TI8522                            PAGE   19

         00000215 0000 
     823 00000216 05FC+         .field          FSL33,32                ; _cha96[18]._ixian @ 2400
         00000217 0000 
     824 00000218 002B          .field          43,16                   ; _cha96[19]._czhen @ 2432
     825 00000219 001E          .field          30,16                   ; _cha96[19]._cfa @ 2448
     826 0000021a FFE2          .field          -30,16                  ; _cha96[19]._cfb @ 2464
     827 0000021b 005A          .field          90,16                   ; _cha96[19]._cfc @ 2480
     828 0000021c 0488+         .field          FSL1,32         ; _cha96[19]._uxian @ 2496
         0000021d 0000 
     829 0000021e 0608+         .field          FSL34,32                ; _cha96[19]._ixian @ 2528
         0000021f 0000 
     830 00000220 002B          .field          43,16                   ; _cha96[20]._czhen @ 2560
     831 00000221 001E          .field          30,16                   ; _cha96[20]._cfa @ 2576
     832 00000222 001E          .field          30,16                   ; _cha96[20]._cfb @ 2592
     833 00000223 001E          .field          30,16                   ; _cha96[20]._cfc @ 2608
     834 00000224 0488+         .field          FSL1,32         ; _cha96[20]._uxian @ 2624
         00000225 0000 
     835 00000226 0614+         .field          FSL35,32                ; _cha96[20]._ixian @ 2656
         00000227 0000 
     836 00000228 002B          .field          43,16                   ; _cha96[21]._czhen @ 2688
     837 00000229 001E          .field          30,16                   ; _cha96[21]._cfa @ 2704
     838 0000022a 001E          .field          30,16                   ; _cha96[21]._cfb @ 2720
     839 0000022b FF6A          .field          -150,16                 ; _cha96[21]._cfc @ 2736
     840 0000022c 0620+         .field          FSL36,32                ; _cha96[21]._uxian @ 2752
         0000022d 0000 
     841 0000022e 062A+         .field          FSL37,32                ; _cha96[21]._ixian @ 2784
         0000022f 0000 
     842 00000230 002B          .field          43,16                   ; _cha96[22]._czhen @ 2816
     843 00000231 001E          .field          30,16                   ; _cha96[22]._cfa @ 2832
     844 00000232 FF6A          .field          -150,16                 ; _cha96[22]._cfb @ 2848
     845 00000233 001E          .field          30,16                   ; _cha96[22]._cfc @ 2864
     846 00000234 0488+         .field          FSL1,32         ; _cha96[22]._uxian @ 2880
         00000235 0000 
     847 00000236 0636+         .field          FSL38,32                ; _cha96[22]._ixian @ 2912
         00000237 0000 
     848 00000238 002B          .field          43,16                   ; _cha96[23]._czhen @ 2944
     849 00000239 001E          .field          30,16                   ; _cha96[23]._cfa @ 2960
     850 0000023a FF6A          .field          -150,16                 ; _cha96[23]._cfb @ 2976
     851 0000023b FF6A          .field          -150,16                 ; _cha96[23]._cfc @ 2992
     852 0000023c 0488+         .field          FSL1,32         ; _cha96[23]._uxian @ 3008
         0000023d 0000 
     853 0000023e 0642+         .field          FSL39,32                ; _cha96[23]._ixian @ 3040
         0000023f 0000 
     854 00000240 002B          .field          43,16                   ; _cha96[24]._czhen @ 3072
     855 00000241 FF6A          .field          -150,16                 ; _cha96[24]._cfa @ 3088
     856 00000242 0096          .field          150,16                  ; _cha96[24]._cfb @ 3104
     857 00000243 FFA6          .field          -90,16                  ; _cha96[24]._cfc @ 3120
     858 00000244 0488+         .field          FSL1,32         ; _cha96[24]._uxian @ 3136
         00000245 0000 
     859 00000246 064E+         .field          FSL40,32                ; _cha96[24]._ixian @ 3168
         00000247 0000 
     860 00000248 002B          .field          43,16                   ; _cha96[25]._czhen @ 3200
     861 00000249 FF6A          .field          -150,16                 ; _cha96[25]._cfa @ 3216
     862 0000024a 0096          .field          150,16                  ; _cha96[25]._cfb @ 3232
     863 0000024b 005A          .field          90,16                   ; _cha96[25]._cfc @ 3248
TMS320C2000 COFF Assembler PC v4.1.3 Sat Oct 08 14:42:32 2011

Tools Copyright (c) 1996-2006 Texas Instruments Incorporated
C:\DOCUME~1\ADMINI~1\LOCALS~1\Temp\TI8522                            PAGE   20

     864 0000024c 0488+         .field          FSL1,32         ; _cha96[25]._uxian @ 3264
         0000024d 0000 
     865 0000024e 065A+         .field          FSL41,32                ; _cha96[25]._ixian @ 3296
         0000024f 0000 
     866 00000250 002B          .field          43,16                   ; _cha96[26]._czhen @ 3328
     867 00000251 FF6A          .field          -150,16                 ; _cha96[26]._cfa @ 3344
     868 00000252 FFE2          .field          -30,16                  ; _cha96[26]._cfb @ 3360
     869 00000253 FFA6          .field          -90,16                  ; _cha96[26]._cfc @ 3376
     870 00000254 0488+         .field          FSL1,32         ; _cha96[26]._uxian @ 3392
         00000255 0000 
     871 00000256 0666+         .field          FSL42,32                ; _cha96[26]._ixian @ 3424
         00000257 0000 
     872 00000258 002B          .field          43,16                   ; _cha96[27]._czhen @ 3456
     873 00000259 FF6A          .field          -150,16                 ; _cha96[27]._cfa @ 3472
     874 0000025a FFE2          .field          -30,16                  ; _cha96[27]._cfb @ 3488
     875 0000025b 005A          .field          90,16                   ; _cha96[27]._cfc @ 3504
     876 0000025c 0488+         .field          FSL1,32         ; _cha96[27]._uxian @ 3520
         0000025d 0000 
     877 0000025e 0672+         .field          FSL43,32                ; _cha96[27]._ixian @ 3552
         0000025f 0000 
     878 00000260 002B          .field          43,16                   ; _cha96[28]._czhen @ 3584
     879 00000261 FF6A          .field          -150,16                 ; _cha96[28]._cfa @ 3600
     880 00000262 001E          .field          30,16                   ; _cha96[28]._cfb @ 3616
     881 00000263 001E          .field          30,16                   ; _cha96[28]._cfc @ 3632
     882 00000264 0488+         .field          FSL1,32         ; _cha96[28]._uxian @ 3648
         00000265 0000 
     883 00000266 067E+         .field          FSL44,32                ; _cha96[28]._ixian @ 3680
         00000267 0000 
     884 00000268 002B          .field          43,16                   ; _cha96[29]._czhen @ 3712
     885 00000269 FF6A          .field          -150,16                 ; _cha96[29]._cfa @ 3728
     886 0000026a 001E          .field          30,16                   ; _cha96[29]._cfb @ 3744
     887 0000026b FF6A          .field          -150,16                 ; _cha96[29]._cfc @ 3760
     888 0000026c 0488+         .field          FSL1,32         ; _cha96[29]._uxian @ 3776
         0000026d 0000 
     889 0000026e 068A+         .field          FSL45,32                ; _cha96[29]._ixian @ 3808
         0000026f 0000 
     890 00000270 002B          .field          43,16                   ; _cha96[30]._czhen @ 3840
     891 00000271 FF6A          .field          -150,16                 ; _cha96[30]._cfa @ 3856
     892 00000272 FF6A          .field          -150,16                 ; _cha96[30]._cfb @ 3872
     893 00000273 001E          .field          30,16                   ; _cha96[30]._cfc @ 3888
     894 00000274 0488+         .field          FSL1,32         ; _cha96[30]._uxian @ 3904
         00000275 0000 
     895 00000276 0696+         .field          FSL46,32                ; _cha96[30]._ixian @ 3936
         00000277 0000 
     896 00000278 002B          .field          43,16                   ; _cha96[31]._czhen @ 3968
     897 00000279 FF6A          .field          -150,16                 ; _cha96[31]._cfa @ 3984
     898 0000027a FF6A          .field          -150,16                 ; _cha96[31]._cfb @ 4000
     899 0000027b FF6A          .field          -150,16                 ; _cha96[31]._cfc @ 4016
     900 0000027c 0488+         .field          FSL1,32         ; _cha96[31]._uxian @ 4032
         0000027d 0000 
     901 0000027e 06A2+         .field          FSL47,32                ; _cha96[31]._ixian @ 4064
         0000027f 0000 
     902 00000280 002B          .field          43,16                   ; _cha96[32]._czhen @ 4096
     903 00000281 0096          .field          150,16                  ; _cha96[32]._cfa @ 4112
     904 00000282 FFA6          .field          -90,16                  ; _cha96[32]._cfb @ 4128
TMS320C2000 COFF Assembler PC v4.1.3 Sat Oct 08 14:42:32 2011

Tools Copyright (c) 1996-2006 Texas Instruments Incorporated
C:\DOCUME~1\ADMINI~1\LOCALS~1\Temp\TI8522                            PAGE   21

     905 00000283 001E          .field          30,16                   ; _cha96[32]._cfc @ 4144
     906 00000284 0488+         .field          FSL1,32         ; _cha96[32]._uxian @ 4160
         00000285 0000 
     907 00000286 06AE+         .field          FSL48,32                ; _cha96[32]._ixian @ 4192
         00000287 0000 
     908 00000288 002B          .field          43,16                   ; _cha96[33]._czhen @ 4224
     909 00000289 0096          .field          150,16                  ; _cha96[33]._cfa @ 4240
     910 0000028a FFA6          .field          -90,16                  ; _cha96[33]._cfb @ 4256
     911 0000028b FF6A          .field          -150,16                 ; _cha96[33]._cfc @ 4272
     912 0000028c 0488+         .field          FSL1,32         ; _cha96[33]._uxian @ 4288
         0000028d 0000 
     913 0000028e 06BA+         .field          FSL49,32                ; _cha96[33]._ixian @ 4320
         0000028f 0000 
     914 00000290 002B          .field          43,16                   ; _cha96[34]._czhen @ 4352
     915 00000291 0096          .field          150,16                  ; _cha96[34]._cfa @ 4368
     916 00000292 005A          .field          90,16                   ; _cha96[34]._cfb @ 4384
     917 00000293 001E          .field          30,16                   ; _cha96[34]._cfc @ 4400
     918 00000294 0488+         .field          FSL1,32         ; _cha96[34]._uxian @ 4416
         00000295 0000 
     919 00000296 06C6+         .field          FSL50,32                ; _cha96[34]._ixian @ 4448
         00000297 0000 
     920 00000298 002B          .field          43,16                   ; _cha96[35]._czhen @ 4480
     921 00000299 0096          .field          150,16                  ; _cha96[35]._cfa @ 4496
     922 0000029a 005A          .field          90,16                   ; _cha96[35]._cfb @ 4512
     923 0000029b FF6A          .field          -150,16                 ; _cha96[35]._cfc @ 4528
     924 0000029c 0488+         .field          FSL1,32         ; _cha96[35]._uxian @ 4544
         0000029d 0000 
     925 0000029e 06D2+         .field          FSL51,32                ; _cha96[35]._ixian @ 4576
         0000029f 0000 
     926 000002a0 002B          .field          43,16                   ; _cha96[36]._czhen @ 4608
     927 000002a1 0096          .field          150,16                  ; _cha96[36]._cfa @ 4624
     928 000002a2 0096          .field          150,16                  ; _cha96[36]._cfb @ 4640
     929 000002a3 0096          .field          150,16                  ; _cha96[36]._cfc @ 4656
     930 000002a4 0488+         .field          FSL1,32         ; _cha96[36]._uxian @ 4672
         000002a5 0000 
     931 000002a6 06DE+         .field          FSL52,32                ; _cha96[36]._ixian @ 4704
         000002a7 0000 
     932 000002a8 002B          .field          43,16                   ; _cha96[37]._czhen @ 4736
     933 000002a9 0096          .field          150,16                  ; _cha96[37]._cfa @ 4752
     934 000002aa 0096          .field          150,16                  ; _cha96[37]._cfb @ 4768
     935 000002ab FFE2          .field          -30,16                  ; _cha96[37]._cfc @ 4784
     936 000002ac 0488+         .field          FSL1,32         ; _cha96[37]._uxian @ 4800
         000002ad 0000 
     937 000002ae 06EA+         .field          FSL53,32                ; _cha96[37]._ixian @ 4832
         000002af 0000 
     938 000002b0 002B          .field          43,16                   ; _cha96[38]._czhen @ 4864
     939 000002b1 0096          .field          150,16                  ; _cha96[38]._cfa @ 4880
     940 000002b2 FFE2          .field          -30,16                  ; _cha96[38]._cfb @ 4896
     941 000002b3 0096          .field          150,16                  ; _cha96[38]._cfc @ 4912
     942 000002b4 0488+         .field          FSL1,32         ; _cha96[38]._uxian @ 4928
         000002b5 0000 
     943 000002b6 06F6+         .field          FSL54,32                ; _cha96[38]._ixian @ 4960
         000002b7 0000 
     944 000002b8 002B          .field          43,16                   ; _cha96[39]._czhen @ 4992
     945 000002b9 0096          .field          150,16                  ; _cha96[39]._cfa @ 5008
TMS320C2000 COFF Assembler PC v4.1.3 Sat Oct 08 14:42:32 2011

Tools Copyright (c) 1996-2006 Texas Instruments Incorporated
C:\DOCUME~1\ADMINI~1\LOCALS~1\Temp\TI8522                            PAGE   22

     946 000002ba FFE2          .field          -30,16                  ; _cha96[39]._cfb @ 5024
     947 000002bb FFE2          .field          -30,16                  ; _cha96[39]._cfc @ 5040
     948 000002bc 0488+         .field          FSL1,32         ; _cha96[39]._uxian @ 5056
         000002bd 0000 
     949 000002be 0702+         .field          FSL55,32                ; _cha96[39]._ixian @ 5088
         000002bf 0000 
     950 000002c0 002B          .field          43,16                   ; _cha96[40]._czhen @ 5120
     951 000002c1 FFE2          .field          -30,16                  ; _cha96[40]._cfa @ 5136
     952 000002c2 FFA6          .field          -90,16                  ; _cha96[40]._cfb @ 5152
     953 000002c3 001E          .field          30,16                   ; _cha96[40]._cfc @ 5168
     954 000002c4 0488+         .field          FSL1,32         ; _cha96[40]._uxian @ 5184
         000002c5 0000 
     955 000002c6 070E+         .field          FSL56,32                ; _cha96[40]._ixian @ 5216
         000002c7 0000 
     956 000002c8 002B          .field          43,16                   ; _cha96[41]._czhen @ 5248
     957 000002c9 FFE2          .field          -30,16                  ; _cha96[41]._cfa @ 5264
     958 000002ca FFA6          .field          -90,16                  ; _cha96[41]._cfb @ 5280
     959 000002cb FF6A          .field          -150,16                 ; _cha96[41]._cfc @ 5296
     960 000002cc 0488+         .field          FSL1,32         ; _cha96[41]._uxian @ 5312
         000002cd 0000 
     961 000002ce 071A+         .field          FSL57,32                ; _cha96[41]._ixian @ 5344
         000002cf 0000 
     962 000002d0 002B          .field          43,16                   ; _cha96[42]._czhen @ 5376
     963 000002d1 FFE2          .field          -30,16                  ; _cha96[42]._cfa @ 5392
     964 000002d2 005A          .field          90,16                   ; _cha96[42]._cfb @ 5408
     965 000002d3 001E          .field          30,16                   ; _cha96[42]._cfc @ 5424
     966 000002d4 0488+         .field          FSL1,32         ; _cha96[42]._uxian @ 5440
         000002d5 0000 
     967 000002d6 0726+         .field          FSL58,32                ; _cha96[42]._ixian @ 5472
         000002d7 0000 
     968 000002d8 002B          .field          43,16                   ; _cha96[43]._czhen @ 5504
     969 000002d9 FFE2          .field          -30,16                  ; _cha96[43]._cfa @ 5520
     970 000002da 005A          .field          90,16                   ; _cha96[43]._cfb @ 5536
     971 000002db FF6A          .field          -150,16                 ; _cha96[43]._cfc @ 5552
     972 000002dc 0488+         .field          FSL1,32         ; _cha96[43]._uxian @ 5568
         000002dd 0000 
     973 000002de 0732+         .field          FSL59,32                ; _cha96[43]._ixian @ 5600
         000002df 0000 
     974 000002e0 002B          .field          43,16                   ; _cha96[44]._czhen @ 5632
     975 000002e1 FFE2          .field          -30,16                  ; _cha96[44]._cfa @ 5648
     976 000002e2 0096          .field          150,16                  ; _cha96[44]._cfb @ 5664
     977 000002e3 0096          .field          150,16                  ; _cha96[44]._cfc @ 5680
     978 000002e4 0488+         .field          FSL1,32         ; _cha96[44]._uxian @ 5696
         000002e5 0000 
     979 000002e6 073E+         .field          FSL60,32                ; _cha96[44]._ixian @ 5728
         000002e7 0000 
     980 000002e8 002B          .field          43,16                   ; _cha96[45]._czhen @ 5760
     981 000002e9 FFE2          .field          -30,16                  ; _cha96[45]._cfa @ 5776
     982 000002ea 0096          .field          150,16                  ; _cha96[45]._cfb @ 5792
     983 000002eb FFE2          .field          -30,16                  ; _cha96[45]._cfc @ 5808
     984 000002ec 0488+         .field          FSL1,32         ; _cha96[45]._uxian @ 5824
         000002ed 0000 
     985 000002ee 074A+         .field          FSL61,32                ; _cha96[45]._ixian @ 5856
         000002ef 0000 
     986 000002f0 002B          .field          43,16                   ; _cha96[46]._czhen @ 5888
TMS320C2000 COFF Assembler PC v4.1.3 Sat Oct 08 14:42:32 2011

Tools Copyright (c) 1996-2006 Texas Instruments Incorporated
C:\DOCUME~1\ADMINI~1\LOCALS~1\Temp\TI8522                            PAGE   23

     987 000002f1 FFE2          .field          -30,16                  ; _cha96[46]._cfa @ 5904
     988 000002f2 FFE2          .field          -30,16                  ; _cha96[46]._cfb @ 5920
     989 000002f3 0096          .field          150,16                  ; _cha96[46]._cfc @ 5936
     990 000002f4 0488+         .field          FSL1,32         ; _cha96[46]._uxian @ 5952
         000002f5 0000 
     991 000002f6 0756+         .field          FSL62,32                ; _cha96[46]._ixian @ 5984
         000002f7 0000 
     992 000002f8 002B          .field          43,16                   ; _cha96[47]._czhen @ 6016
     993 000002f9 FFE2          .field          -30,16                  ; _cha96[47]._cfa @ 6032
     994 000002fa FFE2          .field          -30,16                  ; _cha96[47]._cfb @ 6048
     995 000002fb FFE2          .field          -30,16                  ; _cha96[47]._cfc @ 6064
     996 000002fc 0488+         .field          FSL1,32         ; _cha96[47]._uxian @ 6080
         000002fd 0000 
     997 000002fe 0762+         .field          FSL63,32                ; _cha96[47]._ixian @ 6112
         000002ff 0000 
     998 00000300 005F          .field          95,16                   ; _cha96[48]._czhen @ 6144
     999 00000301 FFA6          .field          -90,16                  ; _cha96[48]._cfa @ 6160
    1000 00000302 0096          .field          150,16                  ; _cha96[48]._cfb @ 6176
    1001 00000303 001E          .field          30,16                   ; _cha96[48]._cfc @ 6192
    1002 00000304 0506+         .field          FSL12,32                ; _cha96[48]._uxian @ 6208
         00000305 0000 
    1003 00000306 0524+         .field          FSL15,32                ; _cha96[48]._ixian @ 6240
         00000307 0000 
    1004 00000308 005F          .field          95,16                   ; _cha96[49]._czhen @ 6272
    1005 00000309 FFA6          .field          -90,16                  ; _cha96[49]._cfa @ 6288
    1006 0000030a 0096          .field          150,16                  ; _cha96[49]._cfb @ 6304
    1007 0000030b FF6A          .field          -150,16                 ; _cha96[49]._cfc @ 6320
    1008 0000030c 0506+         .field          FSL12,32                ; _cha96[49]._uxian @ 6336
         0000030d 0000 
    1009 0000030e 0530+         .field          FSL16,32                ; _cha96[49]._ixian @ 6368
         0000030f 0000 
    1010 00000310 005F          .field          95,16                   ; _cha96[50]._czhen @ 6400
    1011 00000311 FFA6          .field          -90,16                  ; _cha96[50]._cfa @ 6416
    1012 00000312 FFE2          .field          -30,16                  ; _cha96[50]._cfb @ 6432
    1013 00000313 001E          .field          30,16                   ; _cha96[50]._cfc @ 6448
    1014 00000314 0506+         .field          FSL12,32                ; _cha96[50]._uxian @ 6464
         00000315 0000 
    1015 00000316 053C+         .field          FSL17,32                ; _cha96[50]._ixian @ 6496
         00000317 0000 
    1016 00000318 005F          .field          95,16                   ; _cha96[51]._czhen @ 6528
    1017 00000319 FFA6          .field          -90,16                  ; _cha96[51]._cfa @ 6544
    1018 0000031a FFE2          .field          -30,16                  ; _cha96[51]._cfb @ 6560
    1019 0000031b FF6A          .field          -150,16                 ; _cha96[51]._cfc @ 6576
    1020 0000031c 0506+         .field          FSL12,32                ; _cha96[51]._uxian @ 6592
         0000031d 0000 
    1021 0000031e 0548+         .field          FSL18,32                ; _cha96[51]._ixian @ 6624
         0000031f 0000 
    1022 00000320 005F          .field          95,16                   ; _cha96[52]._czhen @ 6656
    1023 00000321 FFA6          .field          -90,16                  ; _cha96[52]._cfa @ 6672
    1024 00000322 FFA6          .field          -90,16                  ; _cha96[52]._cfb @ 6688
    1025 00000323 FFA6          .field          -90,16                  ; _cha96[52]._cfc @ 6704
    1026 00000324 0506+         .field          FSL12,32                ; _cha96[52]._uxian @ 6720
         00000325 0000 
    1027 00000326 0554+         .field          FSL19,32                ; _cha96[52]._ixian @ 6752
         00000327 0000 
TMS320C2000 COFF Assembler PC v4.1.3 Sat Oct 08 14:42:32 2011

Tools Copyright (c) 1996-2006 Texas Instruments Incorporated
C:\DOCUME~1\ADMINI~1\LOCALS~1\Temp\TI8522                            PAGE   24

    1028 00000328 005F          .field          95,16                   ; _cha96[53]._czhen @ 6784
    1029 00000329 FFA6          .field          -90,16                  ; _cha96[53]._cfa @ 6800
    1030 0000032a FFA6          .field          -90,16                  ; _cha96[53]._cfb @ 6816
    1031 0000032b 005A          .field          90,16                   ; _cha96[53]._cfc @ 6832
    1032 0000032c 0506+         .field          FSL12,32                ; _cha96[53]._uxian @ 6848
         0000032d 0000 
    1033 0000032e 0560+         .field          FSL20,32                ; _cha96[53]._ixian @ 6880
         0000032f 0000 
    1034 00000330 005F          .field          95,16                   ; _cha96[54]._czhen @ 6912
    1035 00000331 FFA6          .field          -90,16                  ; _cha96[54]._cfa @ 6928
    1036 00000332 005A          .field          90,16                   ; _cha96[54]._cfb @ 6944
    1037 00000333 FFA6          .field          -90,16                  ; _cha96[54]._cfc @ 6960
    1038 00000334 0506+         .field          FSL12,32                ; _cha96[54]._uxian @ 6976
         00000335 0000 
    1039 00000336 056C+         .field          FSL21,32                ; _cha96[54]._ixian @ 7008
         00000337 0000 
    1040 00000338 005F          .field          95,16                   ; _cha96[55]._czhen @ 7040
    1041 00000339 FFA6          .field          -90,16                  ; _cha96[55]._cfa @ 7056
    1042 0000033a 005A          .field          90,16                   ; _cha96[55]._cfb @ 7072
    1043 0000033b 005A          .field          90,16                   ; _cha96[55]._cfc @ 7088
    1044 0000033c 0506+         .field          FSL12,32                ; _cha96[55]._uxian @ 7104
         0000033d 0000 
    1045 0000033e 0578+         .field          FSL22,32                ; _cha96[55]._ixian @ 7136
         0000033f 0000 
    1046 00000340 005F          .field          95,16                   ; _cha96[56]._czhen @ 7168
    1047 00000341 005A          .field          90,16                   ; _cha96[56]._cfa @ 7184
    1048 00000342 0096          .field          150,16                  ; _cha96[56]._cfb @ 7200
    1049 00000343 001E          .field          30,16                   ; _cha96[56]._cfc @ 7216
    1050 00000344 0506+         .field          FSL12,32                ; _cha96[56]._uxian @ 7232
         00000345 0000 
    1051 00000346 0584+         .field          FSL23,32                ; _cha96[56]._ixian @ 7264
         00000347 0000 
    1052 00000348 005F          .field          95,16                   ; _cha96[57]._czhen @ 7296
    1053 00000349 005A          .field          90,16                   ; _cha96[57]._cfa @ 7312
    1054 0000034a 0096          .field          150,16                  ; _cha96[57]._cfb @ 7328
    1055 0000034b FF6A          .field          -150,16                 ; _cha96[57]._cfc @ 7344
    1056 0000034c 0506+         .field          FSL12,32                ; _cha96[57]._uxian @ 7360
         0000034d 0000 
    1057 0000034e 0590+         .field          FSL24,32                ; _cha96[57]._ixian @ 7392
         0000034f 0000 
    1058 00000350 005F          .field          95,16                   ; _cha96[58]._czhen @ 7424
    1059 00000351 005A          .field          90,16                   ; _cha96[58]._cfa @ 7440
    1060 00000352 FFE2          .field          -30,16                  ; _cha96[58]._cfb @ 7456
    1061 00000353 001E          .field          30,16                   ; _cha96[58]._cfc @ 7472
    1062 00000354 0506+         .field          FSL12,32                ; _cha96[58]._uxian @ 7488
         00000355 0000 
    1063 00000356 059C+         .field          FSL25,32                ; _cha96[58]._ixian @ 7520
         00000357 0000 
    1064 00000358 005F          .field          95,16                   ; _cha96[59]._czhen @ 7552
    1065 00000359 005A          .field          90,16                   ; _cha96[59]._cfa @ 7568
    1066 0000035a FFE2          .field          -30,16                  ; _cha96[59]._cfb @ 7584
    1067 0000035b FF6A          .field          -150,16                 ; _cha96[59]._cfc @ 7600
    1068 0000035c 0506+         .field          FSL12,32                ; _cha96[59]._uxian @ 7616
         0000035d 0000 
    1069 0000035e 05A8+         .field          FSL26,32                ; _cha96[59]._ixian @ 7648
TMS320C2000 COFF Assembler PC v4.1.3 Sat Oct 08 14:42:32 2011

Tools Copyright (c) 1996-2006 Texas Instruments Incorporated
C:\DOCUME~1\ADMINI~1\LOCALS~1\Temp\TI8522                            PAGE   25

         0000035f 0000 
    1070 00000360 005F          .field          95,16                   ; _cha96[60]._czhen @ 7680
    1071 00000361 005A          .field          90,16                   ; _cha96[60]._cfa @ 7696
    1072 00000362 FFA6          .field          -90,16                  ; _cha96[60]._cfb @ 7712
    1073 00000363 FFA6          .field          -90,16                  ; _cha96[60]._cfc @ 7728
    1074 00000364 0506+         .field          FSL12,32                ; _cha96[60]._uxian @ 7744
         00000365 0000 
    1075 00000366 05B4+         .field          FSL27,32                ; _cha96[60]._ixian @ 7776
         00000367 0000 
    1076 00000368 005F          .field          95,16                   ; _cha96[61]._czhen @ 7808
    1077 00000369 005A          .field          90,16                   ; _cha96[61]._cfa @ 7824
    1078 0000036a FFA6          .field          -90,16                  ; _cha96[61]._cfb @ 7840
    1079 0000036b 005A          .field          90,16                   ; _cha96[61]._cfc @ 7856
    1080 0000036c 0506+         .field          FSL12,32                ; _cha96[61]._uxian @ 7872
         0000036d 0000 
    1081 0000036e 05C0+         .field          FSL28,32                ; _cha96[61]._ixian @ 7904
         0000036f 0000 
    1082 00000370 005F          .field          95,16                   ; _cha96[62]._czhen @ 7936
    1083 00000371 005A          .field          90,16                   ; _cha96[62]._cfa @ 7952
    1084 00000372 005A          .field          90,16                   ; _cha96[62]._cfb @ 7968
    1085 00000373 FFA6          .field          -90,16                  ; _cha96[62]._cfc @ 7984
    1086 00000374 0506+         .field          FSL12,32                ; _cha96[62]._uxian @ 8000
         00000375 0000 
    1087 00000376 05CC+         .field          FSL29,32                ; _cha96[62]._ixian @ 8032
         00000377 0000 
    1088 00000378 005F          .field          95,16                   ; _cha96[63]._czhen @ 8064
    1089 00000379 005A          .field          90,16                   ; _cha96[63]._cfa @ 8080
    1090 0000037a 005A          .field          90,16                   ; _cha96[63]._cfb @ 8096
    1091 0000037b 005A          .field          90,16                   ; _cha96[63]._cfc @ 8112
    1092 0000037c 0506+         .field          FSL12,32                ; _cha96[63]._uxian @ 8128
         0000037d 0000 
    1093 0000037e 05D8+         .field          FSL30,32                ; _cha96[63]._ixian @ 8160
         0000037f 0000 
    1094 00000380 005F          .field          95,16                   ; _cha96[64]._czhen @ 8192
    1095 00000381 001E          .field          30,16                   ; _cha96[64]._cfa @ 8208
    1096 00000382 001E          .field          30,16                   ; _cha96[64]._cfb @ 8224
    1097 00000383 001E          .field          30,16                   ; _cha96[64]._cfc @ 8240
    1098 00000384 0506+         .field          FSL12,32                ; _cha96[64]._uxian @ 8256
         00000385 0000 
    1099 00000386 05E4+         .field          FSL31,32                ; _cha96[64]._ixian @ 8288
         00000387 0000 
    1100 00000388 005F          .field          95,16                   ; _cha96[65]._czhen @ 8320
    1101 00000389 001E          .field          30,16                   ; _cha96[65]._cfa @ 8336
    1102 0000038a 001E          .field          30,16                   ; _cha96[65]._cfb @ 8352
    1103 0000038b FF6A          .field          -150,16                 ; _cha96[65]._cfc @ 8368
    1104 0000038c 0506+         .field          FSL12,32                ; _cha96[65]._uxian @ 8384
         0000038d 0000 
    1105 0000038e 05F0+         .field          FSL32,32                ; _cha96[65]._ixian @ 8416
         0000038f 0000 
    1106 00000390 005F          .field          95,16                   ; _cha96[66]._czhen @ 8448
    1107 00000391 001E          .field          30,16                   ; _cha96[66]._cfa @ 8464
    1108 00000392 FF6A          .field          -150,16                 ; _cha96[66]._cfb @ 8480
    1109 00000393 001E          .field          30,16                   ; _cha96[66]._cfc @ 8496
    1110 00000394 0506+         .field          FSL12,32                ; _cha96[66]._uxian @ 8512
         00000395 0000 
TMS320C2000 COFF Assembler PC v4.1.3 Sat Oct 08 14:42:32 2011

Tools Copyright (c) 1996-2006 Texas Instruments Incorporated
C:\DOCUME~1\ADMINI~1\LOCALS~1\Temp\TI8522                            PAGE   26

    1111 00000396 05FC+         .field          FSL33,32                ; _cha96[66]._ixian @ 8544
         00000397 0000 
    1112 00000398 005F          .field          95,16                   ; _cha96[67]._czhen @ 8576
    1113 00000399 001E          .field          30,16                   ; _cha96[67]._cfa @ 8592
    1114 0000039a FF6A          .field          -150,16                 ; _cha96[67]._cfb @ 8608
    1115 0000039b FF6A          .field          -150,16                 ; _cha96[67]._cfc @ 8624
    1116 0000039c 0506+         .field          FSL12,32                ; _cha96[67]._uxian @ 8640
         0000039d 0000 
    1117 0000039e 0608+         .field          FSL34,32                ; _cha96[67]._ixian @ 8672
         0000039f 0000 
    1118 000003a0 005F          .field          95,16                   ; _cha96[68]._czhen @ 8704
    1119 000003a1 001E          .field          30,16                   ; _cha96[68]._cfa @ 8720
    1120 000003a2 FFA6          .field          -90,16                  ; _cha96[68]._cfb @ 8736
    1121 000003a3 0096          .field          150,16                  ; _cha96[68]._cfc @ 8752
    1122 000003a4 0506+         .field          FSL12,32                ; _cha96[68]._uxian @ 8768
         000003a5 0000 
    1123 000003a6 0614+         .field          FSL35,32                ; _cha96[68]._ixian @ 8800
         000003a7 0000 
    1124 000003a8 005F          .field          95,16                   ; _cha96[69]._czhen @ 8832
    1125 000003a9 001E          .field          30,16                   ; _cha96[69]._cfa @ 8848
    1126 000003aa FFA6          .field          -90,16                  ; _cha96[69]._cfb @ 8864
    1127 000003ab FFE2          .field          -30,16                  ; _cha96[69]._cfc @ 8880
    1128 000003ac 0506+         .field          FSL12,32                ; _cha96[69]._uxian @ 8896
         000003ad 0000 
    1129 000003ae 062A+         .field          FSL37,32                ; _cha96[69]._ixian @ 8928
         000003af 0000 
    1130 000003b0 005F          .field          95,16                   ; _cha96[70]._czhen @ 8960
    1131 000003b1 001E          .field          30,16                   ; _cha96[70]._cfa @ 8976
    1132 000003b2 005A          .field          90,16                   ; _cha96[70]._cfb @ 8992
    1133 000003b3 0096          .field          150,16                  ; _cha96[70]._cfc @ 9008
    1134 000003b4 0506+         .field          FSL12,32                ; _cha96[70]._uxian @ 9024
         000003b5 0000 
    1135 000003b6 0636+         .field          FSL38,32                ; _cha96[70]._ixian @ 9056
         000003b7 0000 
    1136 000003b8 005F          .field          95,16                   ; _cha96[71]._czhen @ 9088
    1137 000003b9 001E          .field          30,16                   ; _cha96[71]._cfa @ 9104
    1138 000003ba 005A          .field          90,16                   ; _cha96[71]._cfb @ 9120
    1139 000003bb FFE2          .field          -30,16                  ; _cha96[71]._cfc @ 9136
    1140 000003bc 0506+         .field          FSL12,32                ; _cha96[71]._uxian @ 9152
         000003bd 0000 
    1141 000003be 0642+         .field          FSL39,32                ; _cha96[71]._ixian @ 9184
         000003bf 0000 
    1142 000003c0 005F          .field          95,16                   ; _cha96[72]._czhen @ 9216
    1143 000003c1 FF6A          .field          -150,16                 ; _cha96[72]._cfa @ 9232
    1144 000003c2 001E          .field          30,16                   ; _cha96[72]._cfb @ 9248
    1145 000003c3 001E          .field          30,16                   ; _cha96[72]._cfc @ 9264
    1146 000003c4 0506+         .field          FSL12,32                ; _cha96[72]._uxian @ 9280
         000003c5 0000 
    1147 000003c6 064E+         .field          FSL40,32                ; _cha96[72]._ixian @ 9312
         000003c7 0000 
    1148 000003c8 005F          .field          95,16                   ; _cha96[73]._czhen @ 9344
    1149 000003c9 FF6A          .field          -150,16                 ; _cha96[73]._cfa @ 9360
    1150 000003ca 001E          .field          30,16                   ; _cha96[73]._cfb @ 9376
    1151 000003cb FF6A          .field          -150,16                 ; _cha96[73]._cfc @ 9392
    1152 000003cc 0506+         .field          FSL12,32                ; _cha96[73]._uxian @ 9408
TMS320C2000 COFF Assembler PC v4.1.3 Sat Oct 08 14:42:32 2011

Tools Copyright (c) 1996-2006 Texas Instruments Incorporated
C:\DOCUME~1\ADMINI~1\LOCALS~1\Temp\TI8522                            PAGE   27

         000003cd 0000 
    1153 000003ce 065A+         .field          FSL41,32                ; _cha96[73]._ixian @ 9440
         000003cf 0000 
    1154 000003d0 005F          .field          95,16                   ; _cha96[74]._czhen @ 9472
    1155 000003d1 FF6A          .field          -150,16                 ; _cha96[74]._cfa @ 9488
    1156 000003d2 FF6A          .field          -150,16                 ; _cha96[74]._cfb @ 9504
    1157 000003d3 001E          .field          30,16                   ; _cha96[74]._cfc @ 9520
    1158 000003d4 0506+         .field          FSL12,32                ; _cha96[74]._uxian @ 9536
         000003d5 0000 
    1159 000003d6 0666+         .field          FSL42,32                ; _cha96[74]._ixian @ 9568
         000003d7 0000 
    1160 000003d8 005F          .field          95,16                   ; _cha96[75]._czhen @ 9600
    1161 000003d9 FF6A          .field          -150,16                 ; _cha96[75]._cfa @ 9616
    1162 000003da FF6A          .field          -150,16                 ; _cha96[75]._cfb @ 9632
    1163 000003db FF6A          .field          -150,16                 ; _cha96[75]._cfc @ 9648
    1164 000003dc 0506+         .field          FSL12,32                ; _cha96[75]._uxian @ 9664
         000003dd 0000 
    1165 000003de 0672+         .field          FSL43,32                ; _cha96[75]._ixian @ 9696
         000003df 0000 
    1166 000003e0 005F          .field          95,16                   ; _cha96[76]._czhen @ 9728
    1167 000003e1 FF6A          .field          -150,16                 ; _cha96[76]._cfa @ 9744
    1168 000003e2 FFA6          .field          -90,16                  ; _cha96[76]._cfb @ 9760
    1169 000003e3 0096          .field          150,16                  ; _cha96[76]._cfc @ 9776
    1170 000003e4 0506+         .field          FSL12,32                ; _cha96[76]._uxian @ 9792
         000003e5 0000 
    1171 000003e6 067E+         .field          FSL44,32                ; _cha96[76]._ixian @ 9824
         000003e7 0000 
    1172 000003e8 005F          .field          95,16                   ; _cha96[77]._czhen @ 9856
    1173 000003e9 FF6A          .field          -150,16                 ; _cha96[77]._cfa @ 9872
    1174 000003ea FFA6          .field          -90,16                  ; _cha96[77]._cfb @ 9888
    1175 000003eb FFE2          .field          -30,16                  ; _cha96[77]._cfc @ 9904
    1176 000003ec 0506+         .field          FSL12,32                ; _cha96[77]._uxian @ 9920
         000003ed 0000 
    1177 000003ee 068A+         .field          FSL45,32                ; _cha96[77]._ixian @ 9952
         000003ef 0000 
    1178 000003f0 005F          .field          95,16                   ; _cha96[78]._czhen @ 9984
    1179 000003f1 FF6A          .field          -150,16                 ; _cha96[78]._cfa @ 10000
    1180 000003f2 005A          .field          90,16                   ; _cha96[78]._cfb @ 10016
    1181 000003f3 0096          .field          150,16                  ; _cha96[78]._cfc @ 10032
    1182 000003f4 0506+         .field          FSL12,32                ; _cha96[78]._uxian @ 10048
         000003f5 0000 
    1183 000003f6 0696+         .field          FSL46,32                ; _cha96[78]._ixian @ 10080
         000003f7 0000 
    1184 000003f8 005F          .field          95,16                   ; _cha96[79]._czhen @ 10112
    1185 000003f9 FF6A          .field          -150,16                 ; _cha96[79]._cfa @ 10128
    1186 000003fa 005A          .field          90,16                   ; _cha96[79]._cfb @ 10144
    1187 000003fb FFE2          .field          -30,16                  ; _cha96[79]._cfc @ 10160
    1188 000003fc 0506+         .field          FSL12,32                ; _cha96[79]._uxian @ 10176
         000003fd 0000 
    1189 000003fe 06A2+         .field          FSL47,32                ; _cha96[79]._ixian @ 10208
         000003ff 0000 
    1190 00000400 005F          .field          95,16                   ; _cha96[80]._czhen @ 10240
    1191 00000401 0096          .field          150,16                  ; _cha96[80]._cfa @ 10256
    1192 00000402 0096          .field          150,16                  ; _cha96[80]._cfb @ 10272
    1193 00000403 0096          .field          150,16                  ; _cha96[80]._cfc @ 10288
TMS320C2000 COFF Assembler PC v4.1.3 Sat Oct 08 14:42:32 2011

Tools Copyright (c) 1996-2006 Texas Instruments Incorporated
C:\DOCUME~1\ADMINI~1\LOCALS~1\Temp\TI8522                            PAGE   28

    1194 00000404 0506+         .field          FSL12,32                ; _cha96[80]._uxian @ 10304
         00000405 0000 
    1195 00000406 06AE+         .field          FSL48,32                ; _cha96[80]._ixian @ 10336
         00000407 0000 
    1196 00000408 005F          .field          95,16                   ; _cha96[81]._czhen @ 10368
    1197 00000409 0096          .field          150,16                  ; _cha96[81]._cfa @ 10384
    1198 0000040a 0096          .field          150,16                  ; _cha96[81]._cfb @ 10400
    1199 0000040b FFE2          .field          -30,16                  ; _cha96[81]._cfc @ 10416
    1200 0000040c 0506+         .field          FSL12,32                ; _cha96[81]._uxian @ 10432
         0000040d 0000 
    1201 0000040e 06BA+         .field          FSL49,32                ; _cha96[81]._ixian @ 10464
         0000040f 0000 
    1202 00000410 005F          .field          95,16                   ; _cha96[82]._czhen @ 10496
    1203 00000411 0096          .field          150,16                  ; _cha96[82]._cfa @ 10512
    1204 00000412 FFE2          .field          -30,16                  ; _cha96[82]._cfb @ 10528
    1205 00000413 0096          .field          150,16                  ; _cha96[82]._cfc @ 10544
    1206 00000414 0506+         .field          FSL12,32                ; _cha96[82]._uxian @ 10560
         00000415 0000 
    1207 00000416 06C6+         .field          FSL50,32                ; _cha96[82]._ixian @ 10592
         00000417 0000 
    1208 00000418 005F          .field          95,16                   ; _cha96[83]._czhen @ 10624
    1209 00000419 0096          .field          150,16                  ; _cha96[83]._cfa @ 10640
    1210 0000041a FFE2          .field          -30,16                  ; _cha96[83]._cfb @ 10656
    1211 0000041b FFE2          .field          -30,16                  ; _cha96[83]._cfc @ 10672
    1212 0000041c 0506+         .field          FSL12,32                ; _cha96[83]._uxian @ 10688
         0000041d 0000 
    1213 0000041e 06D2+         .field          FSL51,32                ; _cha96[83]._ixian @ 10720
         0000041f 0000 
    1214 00000420 005F          .field          95,16                   ; _cha96[84]._czhen @ 10752
    1215 00000421 0096          .field          150,16                  ; _cha96[84]._cfa @ 10768
    1216 00000422 001E          .field          30,16                   ; _cha96[84]._cfb @ 10784
    1217 00000423 FFA6          .field          -90,16                  ; _cha96[84]._cfc @ 10800
    1218 00000424 0506+         .field          FSL12,32                ; _cha96[84]._uxian @ 10816
         00000425 0000 
    1219 00000426 06DE+         .field          FSL52,32                ; _cha96[84]._ixian @ 10848
         00000427 0000 
    1220 00000428 005F          .field          95,16                   ; _cha96[85]._czhen @ 10880
    1221 00000429 0096          .field          150,16                  ; _cha96[85]._cfa @ 10896
    1222 0000042a 001E          .field          30,16                   ; _cha96[85]._cfb @ 10912
    1223 0000042b 005A          .field          90,16                   ; _cha96[85]._cfc @ 10928
    1224 0000042c 0506+         .field          FSL12,32                ; _cha96[85]._uxian @ 10944
         0000042d 0000 
    1225 0000042e 06EA+         .field          FSL53,32                ; _cha96[85]._ixian @ 10976
         0000042f 0000 
    1226 00000430 005F          .field          95,16                   ; _cha96[86]._czhen @ 11008
    1227 00000431 0096          .field          150,16                  ; _cha96[86]._cfa @ 11024
    1228 00000432 FF6A          .field          -150,16                 ; _cha96[86]._cfb @ 11040
    1229 00000433 FFA6          .field          -90,16                  ; _cha96[86]._cfc @ 11056
    1230 00000434 0506+         .field          FSL12,32                ; _cha96[86]._uxian @ 11072
         00000435 0000 
    1231 00000436 06F6+         .field          FSL54,32                ; _cha96[86]._ixian @ 11104
         00000437 0000 
    1232 00000438 005F          .field          95,16                   ; _cha96[87]._czhen @ 11136
    1233 00000439 0096          .field          150,16                  ; _cha96[87]._cfa @ 11152
    1234 0000043a FF6A          .field          -150,16                 ; _cha96[87]._cfb @ 11168
TMS320C2000 COFF Assembler PC v4.1.3 Sat Oct 08 14:42:32 2011

Tools Copyright (c) 1996-2006 Texas Instruments Incorporated
C:\DOCUME~1\ADMINI~1\LOCALS~1\Temp\TI8522                            PAGE   29

    1235 0000043b 005A          .field          90,16                   ; _cha96[87]._cfc @ 11184
    1236 0000043c 0506+         .field          FSL12,32                ; _cha96[87]._uxian @ 11200
         0000043d 0000 
    1237 0000043e 0702+         .field          FSL55,32                ; _cha96[87]._ixian @ 11232
         0000043f 0000 
    1238 00000440 005F          .field          95,16                   ; _cha96[88]._czhen @ 11264
    1239 00000441 FFE2          .field          -30,16                  ; _cha96[88]._cfa @ 11280
    1240 00000442 0096          .field          150,16                  ; _cha96[88]._cfb @ 11296
    1241 00000443 0096          .field          150,16                  ; _cha96[88]._cfc @ 11312
    1242 00000444 0506+         .field          FSL12,32                ; _cha96[88]._uxian @ 11328
         00000445 0000 
    1243 00000446 070E+         .field          FSL56,32                ; _cha96[88]._ixian @ 11360
         00000447 0000 
    1244 00000448 005F          .field          95,16                   ; _cha96[89]._czhen @ 11392
    1245 00000449 FFE2          .field          -30,16                  ; _cha96[89]._cfa @ 11408
    1246 0000044a 0096          .field          150,16                  ; _cha96[89]._cfb @ 11424
    1247 0000044b FFE2          .field          -30,16                  ; _cha96[89]._cfc @ 11440
    1248 0000044c 0506+         .field          FSL12,32                ; _cha96[89]._uxian @ 11456
         0000044d 0000 
    1249 0000044e 071A+         .field          FSL57,32                ; _cha96[89]._ixian @ 11488
         0000044f 0000 
    1250 00000450 005F          .field          95,16                   ; _cha96[90]._czhen @ 11520
    1251 00000451 FFE2          .field          -30,16                  ; _cha96[90]._cfa @ 11536
    1252 00000452 FFE2          .field          -30,16                  ; _cha96[90]._cfb @ 11552
    1253 00000453 0096          .field          150,16                  ; _cha96[90]._cfc @ 11568
    1254 00000454 0506+         .field          FSL12,32                ; _cha96[90]._uxian @ 11584
         00000455 0000 
    1255 00000456 0726+         .field          FSL58,32                ; _cha96[90]._ixian @ 11616
         00000457 0000 
    1256 00000458 005F          .field          95,16                   ; _cha96[91]._czhen @ 11648
    1257 00000459 FFE2          .field          -30,16                  ; _cha96[91]._cfa @ 11664
    1258 0000045a FFE2          .field          -30,16                  ; _cha96[91]._cfb @ 11680
    1259 0000045b FFE2          .field          -30,16                  ; _cha96[91]._cfc @ 11696
    1260 0000045c 0506+         .field          FSL12,32                ; _cha96[91]._uxian @ 11712
         0000045d 0000 
    1261 0000045e 0732+         .field          FSL59,32                ; _cha96[91]._ixian @ 11744
         0000045f 0000 
    1262 00000460 005F          .field          95,16                   ; _cha96[92]._czhen @ 11776
    1263 00000461 FFE2          .field          -30,16                  ; _cha96[92]._cfa @ 11792
    1264 00000462 001E          .field          30,16                   ; _cha96[92]._cfb @ 11808
    1265 00000463 FFA6          .field          -90,16                  ; _cha96[92]._cfc @ 11824
    1266 00000464 0506+         .field          FSL12,32                ; _cha96[92]._uxian @ 11840
         00000465 0000 
    1267 00000466 073E+         .field          FSL60,32                ; _cha96[92]._ixian @ 11872
         00000467 0000 
    1268 00000468 005F          .field          95,16                   ; _cha96[93]._czhen @ 11904
    1269 00000469 FFE2          .field          -30,16                  ; _cha96[93]._cfa @ 11920
    1270 0000046a 001E          .field          30,16                   ; _cha96[93]._cfb @ 11936
    1271 0000046b 005A          .field          90,16                   ; _cha96[93]._cfc @ 11952
    1272 0000046c 0506+         .field          FSL12,32                ; _cha96[93]._uxian @ 11968
         0000046d 0000 
    1273 0000046e 074A+         .field          FSL61,32                ; _cha96[93]._ixian @ 12000
         0000046f 0000 
    1274 00000470 005F          .field          95,16                   ; _cha96[94]._czhen @ 12032
    1275 00000471 FFE2          .field          -30,16                  ; _cha96[94]._cfa @ 12048
TMS320C2000 COFF Assembler PC v4.1.3 Sat Oct 08 14:42:32 2011

Tools Copyright (c) 1996-2006 Texas Instruments Incorporated
C:\DOCUME~1\ADMINI~1\LOCALS~1\Temp\TI8522                            PAGE   30

    1276 00000472 FF6A          .field          -150,16                 ; _cha96[94]._cfb @ 12064
    1277 00000473 FFA6          .field          -90,16                  ; _cha96[94]._cfc @ 12080
    1278 00000474 0506+         .field          FSL12,32                ; _cha96[94]._uxian @ 12096
         00000475 0000 
    1279 00000476 0756+         .field          FSL62,32                ; _cha96[94]._ixian @ 12128
         00000477 0000 
    1280 00000478 005F          .field          95,16                   ; _cha96[95]._czhen @ 12160
    1281 00000479 FFE2          .field          -30,16                  ; _cha96[95]._cfa @ 12176
    1282 0000047a FF6A          .field          -150,16                 ; _cha96[95]._cfb @ 12192
    1283 0000047b 005A          .field          90,16                   ; _cha96[95]._cfc @ 12208
    1284 0000047c 0506+         .field          FSL12,32                ; _cha96[95]._uxian @ 12224
         0000047d 0000 
    1285 0000047e 0762+         .field          FSL63,32                ; _cha96[95]._ixian @ 12256
         0000047f 0000 
    1286 00000480               .space  128
    1287              
    1288              DW$67   .dwtag  DW_TAG_variable, DW_AT_name("cha96"), DW_AT_symbol_name("_cha96")
    1289                      .dwattr DW$67, DW_AT_location[DW_OP_addr _cha96]
    1290                      .dwattr DW$67, DW_AT_type(*DW$T$121)
    1291                      .dwattr DW$67, DW_AT_external(0x01)
    1292              ;       C:\CCStudio_v3.3\C2000\cgtools\bin\ac2000.exe -@C:\DOCUME~1\ADMINI~1\LOCALS~1\Temp\TI8524 
    1293 00000000               .sect   ".text"
    1294                      .global _itoa
    1295              
    1296              DW$68   .dwtag  DW_TAG_subprogram, DW_AT_name("itoa"), DW_AT_symbol_name("_itoa")
    1297                      .dwattr DW$68, DW_AT_low_pc(_itoa)
    1298                      .dwattr DW$68, DW_AT_high_pc(0x00)
    1299                      .dwattr DW$68, DW_AT_begin_file("app_WIRmod_alg.c")
    1300                      .dwattr DW$68, DW_AT_begin_line(0xd5)
    1301                      .dwattr DW$68, DW_AT_begin_column(0x07)
    1302                      .dwpsn  "app_WIRmod_alg.c",214,1
    1303              
    1304                      .dwfde DW$CIE
    1305              
    1306              ;***************************************************************
    1307              ;* FNAME: _itoa                         FR SIZE:  14           *
    1308              ;*                                                             *
    1309              ;* FUNCTION ENVIRONMENT                                        *
    1310              ;*                                                             *
    1311              ;* FUNCTION PROPERTIES                                         *
    1312              ;*                            2 Parameter, 11 Auto,  0 SOE     *
    1313              ;***************************************************************
    1314              
    1315              _itoa:
    1316                      .dwcfa  0x1d, -2
    1317                      .dwcfa  0x1c, 26, 0
    1318                      .dwcfa  0x09, 40, 26
    1319 00000000 FE0E          ADDB      SP,#14
    1320                      .dwcfa  0x1d, -16
    1321              ;* AL    assigned to _value
    1322              DW$69   .dwtag  DW_TAG_formal_parameter, DW_AT_name("value"), DW_AT_symbol_name("_value")
    1323                      .dwattr DW$69, DW_AT_type(*DW$T$12)
    1324                      .dwattr DW$69, DW_AT_location[DW_OP_reg0]
    1325              ;* AR4   assigned to _string
    1326              DW$70   .dwtag  DW_TAG_formal_parameter, DW_AT_name("string"), DW_AT_symbol_name("_string")
TMS320C2000 COFF Assembler PC v4.1.3 Sat Oct 08 14:42:32 2011

Tools Copyright (c) 1996-2006 Texas Instruments Incorporated
C:\DOCUME~1\ADMINI~1\LOCALS~1\Temp\TI8522                            PAGE   31

    1327                      .dwattr DW$70, DW_AT_type(*DW$T$32)
    1328                      .dwattr DW$70, DW_AT_location[DW_OP_reg12]
    1329              ;* AR5   assigned to _radix
    1330              DW$71   .dwtag  DW_TAG_formal_parameter, DW_AT_name("radix"), DW_AT_symbol_name("_radix")
    1331                      .dwattr DW$71, DW_AT_type(*DW$T$11)
    1332                      .dwattr DW$71, DW_AT_location[DW_OP_reg14]
    1333              DW$72   .dwtag  DW_TAG_variable, DW_AT_name("value"), DW_AT_symbol_name("_value")
    1334                      .dwattr DW$72, DW_AT_type(*DW$T$12)
    1335                      .dwattr DW$72, DW_AT_location[DW_OP_breg20 -4]
    1336              DW$73   .dwtag  DW_TAG_variable, DW_AT_name("string"), DW_AT_symbol_name("_string")
    1337                      .dwattr DW$73, DW_AT_type(*DW$T$32)
    1338                      .dwattr DW$73, DW_AT_location[DW_OP_breg20 -6]
    1339              DW$74   .dwtag  DW_TAG_variable, DW_AT_name("radix"), DW_AT_symbol_name("_radix")
    1340                      .dwattr DW$74, DW_AT_type(*DW$T$11)
    1341                      .dwattr DW$74, DW_AT_location[DW_OP_breg20 -7]
    1342              DW$75   .dwtag  DW_TAG_variable, DW_AT_name("sign"), DW_AT_symbol_name("_sign")
    1343                      .dwattr DW$75, DW_AT_type(*DW$T$12)
    1344                      .dwattr DW$75, DW_AT_location[DW_OP_breg20 -10]
    1345              DW$76   .dwtag  DW_TAG_variable, DW_AT_name("i"), DW_AT_symbol_name("_i")
    1346                      .dwattr DW$76, DW_AT_type(*DW$T$11)
    1347                      .dwattr DW$76, DW_AT_location[DW_OP_breg20 -11]
    1348              DW$77   .dwtag  DW_TAG_variable, DW_AT_name("j"), DW_AT_symbol_name("_j")
    1349                      .dwattr DW$77, DW_AT_type(*DW$T$11)
    1350                      .dwattr DW$77, DW_AT_location[DW_OP_breg20 -12]
    1351              DW$78   .dwtag  DW_TAG_variable, DW_AT_name("c"), DW_AT_symbol_name("_c")
    1352                      .dwattr DW$78, DW_AT_type(*DW$T$31)
    1353                      .dwattr DW$78, DW_AT_location[DW_OP_breg20 -13]
    1354 00000001 7D47          MOV       *-SP[7],AR5           ; |214| 
    1355 00000002 A846          MOVL      *-SP[6],XAR4          ; |214| 
    1356 00000003 1E44          MOVL      *-SP[4],ACC           ; |214| 
    1357                      .dwpsn  "app_WIRmod_alg.c",218,2
    1358 00000004 0644          MOVL      ACC,*-SP[4]           ; |218| 
    1359 00000005 1E4A          MOVL      *-SP[10],ACC          ; |218| 
    1360 00000006 6304          B         L1,GEQ                ; |218| 
    1361                      ; branchcc occurs ; |218| 
    1362                      .dwpsn  "app_WIRmod_alg.c",219,3
    1363 00000007 0644          MOVL      ACC,*-SP[4]           ; |219| 
    1364 00000008 FF54          NEG       ACC                   ; |219| 
    1365 00000009 1E44          MOVL      *-SP[4],ACC           ; |219| 
    1366              L1:    
    1367                      .dwpsn  "app_WIRmod_alg.c",220,2
    1368 0000000a 2B4B          MOV       *-SP[11],#0           ; |220| 
    1369              L2:    
    1370              DW$L$_itoa$4$B:
    1371                      .dwpsn  "app_WIRmod_alg.c",223,3
    1372 0000000b 0E47          MOVU      ACC,*-SP[7]
    1373 0000000c 1E42          MOVL      *-SP[2],ACC           ; |223| 
    1374 0000000d 0644          MOVL      ACC,*-SP[4]           ; |223| 
    1375 0000000e 00C0!         FFC       XAR7,#L$$MOD          ; |223| 
         0000000f 0000 
    1376                      ; call occurs [#L$$MOD] ; |223| 
    1377 00000010 584B          MOVZ      AR0,*-SP[11]          ; |223| 
    1378 00000011 1EA6          MOVL      XAR6,ACC              ; |223| 
    1379 00000012 0A4B          INC       *-SP[11]              ; |223| 
    1380 00000013 8A46          MOVL      XAR4,*-SP[6]          ; |223| 
TMS320C2000 COFF Assembler PC v4.1.3 Sat Oct 08 14:42:32 2011

Tools Copyright (c) 1996-2006 Texas Instruments Incorporated
C:\DOCUME~1\ADMINI~1\LOCALS~1\Temp\TI8522                            PAGE   32

    1381 00000014 0230          MOVB      ACC,#48
    1382 00000015 07A6          ADDL      ACC,XAR6
    1383 00000016 9694          MOV       *+XAR4[AR0],AL        ; |223| 
    1384                      .dwpsn  "app_WIRmod_alg.c",225,9
    1385 00000017 0E47          MOVU      ACC,*-SP[7]
    1386 00000018 1E42          MOVL      *-SP[2],ACC           ; |225| 
    1387 00000019 0644          MOVL      ACC,*-SP[4]           ; |225| 
    1388 0000001a 00C0!         FFC       XAR7,#L$$DIV          ; |225| 
         0000001b 0000 
    1389                      ; call occurs [#L$$DIV] ; |225| 
    1390 0000001c FF58          TEST      ACC                   ; |225| 
    1391 0000001d 1E44          MOVL      *-SP[4],ACC           ; |225| 
    1392 0000001e 62ED          B         L2,GT                 ; |225| 
    1393                      ; branchcc occurs ; |225| 
    1394              DW$L$_itoa$4$E:
    1395                      .dwpsn  "app_WIRmod_alg.c",226,2
    1396 0000001f 064A          MOVL      ACC,*-SP[10]          ; |226| 
    1397 00000020 6306          B         L3,GEQ                ; |226| 
    1398                      ; branchcc occurs ; |226| 
    1399                      .dwpsn  "app_WIRmod_alg.c",227,3
    1400 00000021 584B          MOVZ      AR0,*-SP[11]          ; |227| 
    1401 00000022 0A4B          INC       *-SP[11]              ; |227| 
    1402 00000023 8A46          MOVL      XAR4,*-SP[6]          ; |227| 
    1403 00000024 2894          MOV       *+XAR4[AR0],#45       ; |227| 
         00000025 002D 
    1404              L3:    
    1405                      .dwpsn  "app_WIRmod_alg.c",228,2
    1406 00000026 584B          MOVZ      AR0,*-SP[11]          ; |228| 
    1407 00000027 8A46          MOVL      XAR4,*-SP[6]          ; |228| 
    1408 00000028 2B94          MOV       *+XAR4[AR0],#0        ; |228| 
    1409                      .dwpsn  "app_WIRmod_alg.c",229,2
    1410 00000029 0B4B          DEC       *-SP[11]              ; |229| 
    1411                      .dwpsn  "app_WIRmod_alg.c",231,8
    1412 0000002a 2B4C          MOV       *-SP[12],#0           ; |231| 
    1413                      .dwpsn  "app_WIRmod_alg.c",231,14
    1414 0000002b 924B          MOV       AL,*-SP[11]           ; |231| 
    1415 0000002c 544C          CMP       AL,*-SP[12]           ; |231| 
    1416 0000002d 6914          B         L5,LOS                ; |231| 
    1417                      ; branchcc occurs ; |231| 
    1418              L4:    
    1419              DW$L$_itoa$8$B:
    1420                      .dwpsn  "app_WIRmod_alg.c",233,3
    1421 0000002e 584C          MOVZ      AR0,*-SP[12]          ; |233| 
    1422 0000002f 8A46          MOVL      XAR4,*-SP[6]          ; |233| 
    1423 00000030 9294          MOV       AL,*+XAR4[AR0]        ; |233| 
    1424 00000031 964D          MOV       *-SP[13],AL           ; |233| 
    1425                      .dwpsn  "app_WIRmod_alg.c",234,3
    1426 00000032 584B          MOVZ      AR0,*-SP[11]          ; |234| 
    1427 00000033 8A46          MOVL      XAR4,*-SP[6]          ; |234| 
    1428 00000034 9294          MOV       AL,*+XAR4[AR0]        ; |234| 
    1429 00000035 584C          MOVZ      AR0,*-SP[12]          ; |234| 
    1430 00000036 8A46          MOVL      XAR4,*-SP[6]          ; |234| 
    1431 00000037 9694          MOV       *+XAR4[AR0],AL        ; |234| 
    1432                      .dwpsn  "app_WIRmod_alg.c",235,3
    1433 00000038 584B          MOVZ      AR0,*-SP[11]          ; |235| 
TMS320C2000 COFF Assembler PC v4.1.3 Sat Oct 08 14:42:32 2011

Tools Copyright (c) 1996-2006 Texas Instruments Incorporated
C:\DOCUME~1\ADMINI~1\LOCALS~1\Temp\TI8522                            PAGE   33

    1434 00000039 8A46          MOVL      XAR4,*-SP[6]          ; |235| 
    1435 0000003a 924D          MOV       AL,*-SP[13]           ; |235| 
    1436 0000003b 9694          MOV       *+XAR4[AR0],AL        ; |235| 
    1437                      .dwpsn  "app_WIRmod_alg.c",231,20
    1438 0000003c 0A4C          INC       *-SP[12]              ; |231| 
    1439 0000003d 0B4B          DEC       *-SP[11]              ; |231| 
    1440                      .dwpsn  "app_WIRmod_alg.c",231,14
    1441 0000003e 924B          MOV       AL,*-SP[11]           ; |231| 
    1442 0000003f 544C          CMP       AL,*-SP[12]           ; |231| 
    1443 00000040 66EE          B         L4,HI                 ; |231| 
    1444                      ; branchcc occurs ; |231| 
    1445              DW$L$_itoa$8$E:
    1446              L5:    
    1447                      .dwpsn  "app_WIRmod_alg.c",237,2
    1448 00000041 8A46          MOVL      XAR4,*-SP[6]          ; |237| 
    1449                      .dwpsn  "app_WIRmod_alg.c",238,1
    1450 00000042 FE8E          SUBB      SP,#14                ; |237| 
    1451                      .dwcfa  0x1d, -2
    1452 00000043 0006          LRETR
    1453                      ; return occurs
    1454              
    1455              DW$79   .dwtag  DW_TAG_loop
    1456                      .dwattr DW$79, DW_AT_name("C:\DOCUME~1\ADMINI~1\LOCALS~1\Temp\TI8522:L4:1:1318056151")
    1457                      .dwattr DW$79, DW_AT_begin_file("app_WIRmod_alg.c")
    1458                      .dwattr DW$79, DW_AT_begin_line(0xe7)
    1459                      .dwattr DW$79, DW_AT_end_line(0xec)
    1460              DW$80   .dwtag  DW_TAG_loop_range
    1461                      .dwattr DW$80, DW_AT_low_pc(DW$L$_itoa$8$B)
    1462                      .dwattr DW$80, DW_AT_high_pc(DW$L$_itoa$8$E)
    1463                      .dwendtag DW$79
    1464              
    1465              
    1466              DW$81   .dwtag  DW_TAG_loop
    1467                      .dwattr DW$81, DW_AT_name("C:\DOCUME~1\ADMINI~1\LOCALS~1\Temp\TI8522:L2:1:1318056151")
    1468                      .dwattr DW$81, DW_AT_begin_file("app_WIRmod_alg.c")
    1469                      .dwattr DW$81, DW_AT_begin_line(0xdd)
    1470                      .dwattr DW$81, DW_AT_end_line(0xe1)
    1471              DW$82   .dwtag  DW_TAG_loop_range
    1472                      .dwattr DW$82, DW_AT_low_pc(DW$L$_itoa$4$B)
    1473                      .dwattr DW$82, DW_AT_high_pc(DW$L$_itoa$4$E)
    1474                      .dwendtag DW$81
    1475              
    1476                      .dwattr DW$68, DW_AT_end_file("app_WIRmod_alg.c")
    1477                      .dwattr DW$68, DW_AT_end_line(0xee)
    1478                      .dwattr DW$68, DW_AT_end_column(0x01)
    1479                      .dwendentry
    1480                      .dwendtag DW$68
    1481              
    1482 00000044               .sect   ".text"
    1483                      .global _fgui
    1484              
    1485              DW$83   .dwtag  DW_TAG_subprogram, DW_AT_name("fgui"), DW_AT_symbol_name("_fgui")
    1486                      .dwattr DW$83, DW_AT_low_pc(_fgui)
    1487                      .dwattr DW$83, DW_AT_high_pc(0x00)
    1488                      .dwattr DW$83, DW_AT_begin_file("app_WIRmod_alg.c")
TMS320C2000 COFF Assembler PC v4.1.3 Sat Oct 08 14:42:32 2011

Tools Copyright (c) 1996-2006 Texas Instruments Incorporated
C:\DOCUME~1\ADMINI~1\LOCALS~1\Temp\TI8522                            PAGE   34

    1489                      .dwattr DW$83, DW_AT_begin_line(0xef)
    1490                      .dwattr DW$83, DW_AT_begin_column(0x05)
    1491                      .dwpsn  "app_WIRmod_alg.c",240,1
    1492              
    1493                      .dwfde DW$CIE
    1494              
    1495              ;***************************************************************
    1496              ;* FNAME: _fgui                         FR SIZE:   2           *
    1497              ;*                                                             *
    1498              ;* FUNCTION ENVIRONMENT                                        *
    1499              ;*                                                             *
    1500              ;* FUNCTION PROPERTIES                                         *
    1501              ;*                            0 Parameter,  1 Auto,  0 SOE     *
    1502              ;***************************************************************
    1503              
    1504              _fgui:
    1505                      .dwcfa  0x1d, -2
    1506                      .dwcfa  0x1c, 26, 0
    1507                      .dwcfa  0x09, 40, 26
    1508 00000044 FE02          ADDB      SP,#2
    1509                      .dwcfa  0x1d, -4
    1510              ;* AL    assigned to _x
    1511              DW$84   .dwtag  DW_TAG_formal_parameter, DW_AT_name("x"), DW_AT_symbol_name("_x")
    1512                      .dwattr DW$84, DW_AT_type(*DW$T$10)
    1513                      .dwattr DW$84, DW_AT_location[DW_OP_reg0]
    1514              DW$85   .dwtag  DW_TAG_variable, DW_AT_name("x"), DW_AT_symbol_name("_x")
    1515                      .dwattr DW$85, DW_AT_type(*DW$T$10)
    1516                      .dwattr DW$85, DW_AT_location[DW_OP_breg20 -1]
    1517 00000045 9641          MOV       *-SP[1],AL            ; |240| 
    1518                      .dwpsn  "app_WIRmod_alg.c",241,2
    1519 00000046 52B4          CMPB      AL,#180               ; |241| 
    1520 00000047 6503          B         L6,LEQ                ; |241| 
    1521                      ; branchcc occurs ; |241| 
    1522                      .dwpsn  "app_WIRmod_alg.c",241,18
    1523 00000048 0841          SUB       *-SP[1],#360          ; |241| 
         00000049 FE98 
    1524              L6:    
    1525                      .dwpsn  "app_WIRmod_alg.c",242,2
    1526 0000004a 1B41          CMP       *-SP[1],#-180         ; |242| 
         0000004b FF4C 
    1527 0000004c 6303          B         L7,GEQ                ; |242| 
    1528                      ; branchcc occurs ; |242| 
    1529                      .dwpsn  "app_WIRmod_alg.c",242,22
    1530 0000004d 0841          ADD       *-SP[1],#360          ; |242| 
         0000004e 0168 
    1531              L7:    
    1532                      .dwpsn  "app_WIRmod_alg.c",243,2
    1533 0000004f 9241          MOV       AL,*-SP[1]            ; |243| 
    1534 00000050 52B4          CMPB      AL,#180               ; |243| 
    1535 00000051 ED03          BF        L8,NEQ                ; |243| 
    1536                      ; branchcc occurs ; |243| 
    1537                      .dwpsn  "app_WIRmod_alg.c",243,22
    1538 00000052 2841          MOV       *-SP[1],#-180         ; |243| 
         00000053 FF4C 
    1539              L8:    
TMS320C2000 COFF Assembler PC v4.1.3 Sat Oct 08 14:42:32 2011

Tools Copyright (c) 1996-2006 Texas Instruments Incorporated
C:\DOCUME~1\ADMINI~1\LOCALS~1\Temp\TI8522                            PAGE   35

    1540                      .dwpsn  "app_WIRmod_alg.c",244,2
    1541 00000054 9241          MOV       AL,*-SP[1]            ; |244| 
    1542                      .dwpsn  "app_WIRmod_alg.c",245,1
    1543 00000055 FE82          SUBB      SP,#2                 ; |244| 
    1544                      .dwcfa  0x1d, -2
    1545 00000056 0006          LRETR
    1546                      ; return occurs
    1547                      .dwattr DW$83, DW_AT_end_file("app_WIRmod_alg.c")
    1548                      .dwattr DW$83, DW_AT_end_line(0xf5)
    1549                      .dwattr DW$83, DW_AT_end_column(0x01)
    1550                      .dwendentry
    1551                      .dwendtag DW$83
    1552              
    1553 00000057               .sect   ".text"
    1554                      .global _jiao
    1555              
    1556              DW$86   .dwtag  DW_TAG_subprogram, DW_AT_name("jiao"), DW_AT_symbol_name("_jiao")
    1557                      .dwattr DW$86, DW_AT_low_pc(_jiao)
    1558                      .dwattr DW$86, DW_AT_high_pc(0x00)
    1559                      .dwattr DW$86, DW_AT_begin_file("app_WIRmod_alg.c")
    1560                      .dwattr DW$86, DW_AT_begin_line(0xf7)
    1561                      .dwattr DW$86, DW_AT_begin_column(0x06)
    1562                      .dwpsn  "app_WIRmod_alg.c",248,1
    1563              
    1564                      .dwfde DW$CIE
    1565              
    1566              ;***************************************************************
    1567              ;* FNAME: _jiao                         FR SIZE:   6           *
    1568              ;*                                                             *
    1569              ;* FUNCTION ENVIRONMENT                                        *
    1570              ;*                                                             *
    1571              ;* FUNCTION PROPERTIES                                         *
    1572              ;*                            0 Parameter,  6 Auto,  0 SOE     *
    1573              ;***************************************************************
    1574              
    1575              _jiao:
    1576                      .dwcfa  0x1d, -2
    1577                      .dwcfa  0x1c, 26, 0
    1578                      .dwcfa  0x09, 40, 26
    1579 00000057 FE06          ADDB      SP,#6
    1580                      .dwcfa  0x1d, -8
    1581              ;* AL    assigned to _cf
    1582              DW$87   .dwtag  DW_TAG_formal_parameter, DW_AT_name("cf"), DW_AT_symbol_name("_cf")
    1583                      .dwattr DW$87, DW_AT_type(*DW$T$10)
    1584                      .dwattr DW$87, DW_AT_location[DW_OP_reg0]
    1585              ;* AR4   assigned to _cf1
    1586              DW$88   .dwtag  DW_TAG_formal_parameter, DW_AT_name("cf1"), DW_AT_symbol_name("_cf1")
    1587                      .dwattr DW$88, DW_AT_type(*DW$T$51)
    1588                      .dwattr DW$88, DW_AT_location[DW_OP_reg12]
    1589              ;* AR5   assigned to _cf2
    1590              DW$89   .dwtag  DW_TAG_formal_parameter, DW_AT_name("cf2"), DW_AT_symbol_name("_cf2")
    1591                      .dwattr DW$89, DW_AT_type(*DW$T$51)
    1592                      .dwattr DW$89, DW_AT_location[DW_OP_reg14]
    1593              DW$90   .dwtag  DW_TAG_formal_parameter, DW_AT_name("cf3"), DW_AT_symbol_name("_cf3")
    1594                      .dwattr DW$90, DW_AT_type(*DW$T$51)
TMS320C2000 COFF Assembler PC v4.1.3 Sat Oct 08 14:42:32 2011

Tools Copyright (c) 1996-2006 Texas Instruments Incorporated
C:\DOCUME~1\ADMINI~1\LOCALS~1\Temp\TI8522                            PAGE   36

    1595                      .dwattr DW$90, DW_AT_location[DW_OP_breg20 -10]
    1596              DW$91   .dwtag  DW_TAG_formal_parameter, DW_AT_name("cf4"), DW_AT_symbol_name("_cf4")
    1597                      .dwattr DW$91, DW_AT_type(*DW$T$51)
    1598                      .dwattr DW$91, DW_AT_location[DW_OP_breg20 -12]
    1599              DW$92   .dwtag  DW_TAG_variable, DW_AT_name("cf"), DW_AT_symbol_name("_cf")
    1600                      .dwattr DW$92, DW_AT_type(*DW$T$10)
    1601                      .dwattr DW$92, DW_AT_location[DW_OP_breg20 -1]
    1602              DW$93   .dwtag  DW_TAG_variable, DW_AT_name("cf1"), DW_AT_symbol_name("_cf1")
    1603                      .dwattr DW$93, DW_AT_type(*DW$T$51)
    1604                      .dwattr DW$93, DW_AT_location[DW_OP_breg20 -4]
    1605              DW$94   .dwtag  DW_TAG_variable, DW_AT_name("cf2"), DW_AT_symbol_name("_cf2")
    1606                      .dwattr DW$94, DW_AT_type(*DW$T$51)
    1607                      .dwattr DW$94, DW_AT_location[DW_OP_breg20 -6]
    1608 00000058 A046          MOVL      *-SP[6],XAR5          ; |248| 
    1609 00000059 A844          MOVL      *-SP[4],XAR4          ; |248| 
    1610 0000005a 9641          MOV       *-SP[1],AL            ; |248| 
    1611                      .dwpsn  "app_WIRmod_alg.c",249,2
    1612 0000005b 5200          CMPB      AL,#0                 ; |249| 
    1613 0000005c 630B          B         L9,GEQ                ; |249| 
    1614                      ; branchcc occurs ; |249| 
    1615                      .dwpsn  "app_WIRmod_alg.c",251,3
    1616 0000005d 8A44          MOVL      XAR4,*-SP[4]          ; |251| 
    1617 0000005e 96C4          MOV       *+XAR4[0],AL          ; |251| 
    1618                      .dwpsn  "app_WIRmod_alg.c",252,3
    1619 0000005f 8A46          MOVL      XAR4,*-SP[6]          ; |252| 
    1620 00000060 2BC4          MOV       *+XAR4[0],#0          ; |252| 
    1621                      .dwpsn  "app_WIRmod_alg.c",253,3
    1622 00000061 8A4A          MOVL      XAR4,*-SP[10]         ; |253| 
    1623 00000062 2BC4          MOV       *+XAR4[0],#0          ; |253| 
    1624                      .dwpsn  "app_WIRmod_alg.c",254,3
    1625 00000063 8A4C          MOVL      XAR4,*-SP[12]         ; |254| 
    1626 00000064 9AB4          MOVB      AL,#180               ; |254| 
    1627 00000065 9441          ADD       AL,*-SP[1]            ; |254| 
    1628 00000066 96C4          MOV       *+XAR4[0],AL          ; |254| 
    1629              L9:    
    1630                      .dwpsn  "app_WIRmod_alg.c",256,2
    1631 00000067 9241          MOV       AL,*-SP[1]            ; |256| 
    1632 00000068 650E          B         L10,LEQ               ; |256| 
    1633                      ; branchcc occurs ; |256| 
    1634                      .dwpsn  "app_WIRmod_alg.c",258,3
    1635 00000069 8A44          MOVL      XAR4,*-SP[4]          ; |258| 
    1636 0000006a 96C4          MOV       *+XAR4[0],AL          ; |258| 
    1637                      .dwpsn  "app_WIRmod_alg.c",259,3
    1638 0000006b 8A46          MOVL      XAR4,*-SP[6]          ; |259| 
    1639 0000006c 28C4          MOV       *+XAR4[0],#180        ; |259| 
         0000006d 00B4 
    1640                      .dwpsn  "app_WIRmod_alg.c",260,3
    1641 0000006e 8A4A          MOVL      XAR4,*-SP[10]         ; |260| 
    1642 0000006f 28C4          MOV       *+XAR4[0],#-180       ; |260| 
         00000070 FF4C 
    1643                      .dwpsn  "app_WIRmod_alg.c",261,3
    1644 00000071 9BB4          MOVB      AH,#180               ; |261| 
    1645 00000072 8A4C          MOVL      XAR4,*-SP[12]         ; |261| 
    1646 00000073 9241          MOV       AL,*-SP[1]            ; |261| 
    1647 00000074 9EA8          SUB       AL,AH                 ; |261| 
TMS320C2000 COFF Assembler PC v4.1.3 Sat Oct 08 14:42:32 2011

Tools Copyright (c) 1996-2006 Texas Instruments Incorporated
C:\DOCUME~1\ADMINI~1\LOCALS~1\Temp\TI8522                            PAGE   37

    1648 00000075 96C4          MOV       *+XAR4[0],AL          ; |261| 
    1649              L10:    
    1650                      .dwpsn  "app_WIRmod_alg.c",263,2
    1651 00000076 9241          MOV       AL,*-SP[1]            ; |263| 
    1652 00000077 ED0A          BF        L11,NEQ               ; |263| 
    1653                      ; branchcc occurs ; |263| 
    1654                      .dwpsn  "app_WIRmod_alg.c",265,3
    1655 00000078 8A44          MOVL      XAR4,*-SP[4]          ; |265| 
    1656 00000079 2BC4          MOV       *+XAR4[0],#0          ; |265| 
    1657                      .dwpsn  "app_WIRmod_alg.c",266,3
    1658 0000007a 8A46          MOVL      XAR4,*-SP[6]          ; |266| 
    1659 0000007b 9AB4          MOVB      AL,#180               ; |266| 
    1660 0000007c 96C4          MOV       *+XAR4[0],AL          ; |266| 
    1661                      .dwpsn  "app_WIRmod_alg.c",267,3
    1662 0000007d 8A4A          MOVL      XAR4,*-SP[10]         ; |267| 
    1663 0000007e 2BC4          MOV       *+XAR4[0],#0          ; |267| 
    1664                      .dwpsn  "app_WIRmod_alg.c",268,3
    1665 0000007f 8A4C          MOVL      XAR4,*-SP[12]         ; |268| 
    1666 00000080 96C4          MOV       *+XAR4[0],AL          ; |268| 
    1667                      .dwpsn  "app_WIRmod_alg.c",269,2
    1668              L11:    
    1669                      .dwpsn  "app_WIRmod_alg.c",270,1
    1670 00000081 FE86          SUBB      SP,#6
    1671                      .dwcfa  0x1d, -2
    1672 00000082 0006          LRETR
    1673                      ; return occurs
    1674                      .dwattr DW$86, DW_AT_end_file("app_WIRmod_alg.c")
    1675                      .dwattr DW$86, DW_AT_end_line(0x10e)
    1676                      .dwattr DW$86, DW_AT_end_column(0x01)
    1677                      .dwendentry
    1678                      .dwendtag DW$86
    1679              
    1680 00000083               .sect   ".text"
    1681                      .global _chasan
    1682              
    1683              DW$95   .dwtag  DW_TAG_subprogram, DW_AT_name("chasan"), DW_AT_symbol_name("_chasan")
    1684                      .dwattr DW$95, DW_AT_low_pc(_chasan)
    1685                      .dwattr DW$95, DW_AT_high_pc(0x00)
    1686                      .dwattr DW$95, DW_AT_begin_file("app_WIRmod_alg.c")
    1687                      .dwattr DW$95, DW_AT_begin_line(0x116)
    1688                      .dwattr DW$95, DW_AT_begin_column(0x06)
    1689                      .dwpsn  "app_WIRmod_alg.c",279,1
    1690              
    1691                      .dwfde DW$CIE
    1692              
    1693              ;***************************************************************
    1694              ;* FNAME: _chasan                       FR SIZE:  54           *
    1695              ;*                                                             *
    1696              ;* FUNCTION ENVIRONMENT                                        *
    1697              ;*                                                             *
    1698              ;* FUNCTION PROPERTIES                                         *
    1699              ;*                            4 Parameter, 47 Auto,  2 SOE     *
    1700              ;***************************************************************
    1701              
    1702              _chasan:
TMS320C2000 COFF Assembler PC v4.1.3 Sat Oct 08 14:42:32 2011

Tools Copyright (c) 1996-2006 Texas Instruments Incorporated
C:\DOCUME~1\ADMINI~1\LOCALS~1\Temp\TI8522                            PAGE   38

    1703                      .dwcfa  0x1d, -2
    1704                      .dwcfa  0x1c, 26, 0
    1705                      .dwcfa  0x09, 40, 26
    1706 00000083 B2BD          MOVL      *SP++,XAR1
    1707                      .dwcfa  0x80, 7, 2
    1708                      .dwcfa  0x1d, -4
    1709 00000084 FE34          ADDB      SP,#52
    1710                      .dwcfa  0x1d, -56
    1711              ;* AL    assigned to _fuac
    1712              DW$96   .dwtag  DW_TAG_formal_parameter, DW_AT_name("fuac"), DW_AT_symbol_name("_fuac")
    1713                      .dwattr DW$96, DW_AT_type(*DW$T$10)
    1714                      .dwattr DW$96, DW_AT_location[DW_OP_reg0]
    1715              ;* AH    assigned to _fiac
    1716              DW$97   .dwtag  DW_TAG_formal_parameter, DW_AT_name("fiac"), DW_AT_symbol_name("_fiac")
    1717                      .dwattr DW$97, DW_AT_type(*DW$T$10)
    1718                      .dwattr DW$97, DW_AT_location[DW_OP_reg1]
    1719              ;* AR5   assigned to _fa
    1720              DW$98   .dwtag  DW_TAG_formal_parameter, DW_AT_name("fa"), DW_AT_symbol_name("_fa")
    1721                      .dwattr DW$98, DW_AT_type(*DW$T$10)
    1722                      .dwattr DW$98, DW_AT_location[DW_OP_reg14]
    1723              DW$99   .dwtag  DW_TAG_formal_parameter, DW_AT_name("fc"), DW_AT_symbol_name("_fc")
    1724                      .dwattr DW$99, DW_AT_type(*DW$T$10)
    1725                      .dwattr DW$99, DW_AT_location[DW_OP_breg20 -57]
    1726              ;* AR4   assigned to _cha_x
    1727              DW$100  .dwtag  DW_TAG_formal_parameter, DW_AT_name("cha_x"), DW_AT_symbol_name("_cha_x")
    1728                      .dwattr DW$100, DW_AT_type(*DW$T$55)
    1729                      .dwattr DW$100, DW_AT_location[DW_OP_reg12]
    1730              DW$101  .dwtag  DW_TAG_variable, DW_AT_name("fuac"), DW_AT_symbol_name("_fuac")
    1731                      .dwattr DW$101, DW_AT_type(*DW$T$10)
    1732                      .dwattr DW$101, DW_AT_location[DW_OP_breg20 -5]
    1733              DW$102  .dwtag  DW_TAG_variable, DW_AT_name("fiac"), DW_AT_symbol_name("_fiac")
    1734                      .dwattr DW$102, DW_AT_type(*DW$T$10)
    1735                      .dwattr DW$102, DW_AT_location[DW_OP_breg20 -6]
    1736              DW$103  .dwtag  DW_TAG_variable, DW_AT_name("fa"), DW_AT_symbol_name("_fa")
    1737                      .dwattr DW$103, DW_AT_type(*DW$T$10)
    1738                      .dwattr DW$103, DW_AT_location[DW_OP_breg20 -7]
    1739              DW$104  .dwtag  DW_TAG_variable, DW_AT_name("cha_x"), DW_AT_symbol_name("_cha_x")
    1740                      .dwattr DW$104, DW_AT_type(*DW$T$55)
    1741                      .dwattr DW$104, DW_AT_location[DW_OP_breg20 -10]
    1742              DW$105  .dwtag  DW_TAG_variable, DW_AT_name("cfuac"), DW_AT_symbol_name("_cfuac")
    1743                      .dwattr DW$105, DW_AT_type(*DW$T$10)
    1744                      .dwattr DW$105, DW_AT_location[DW_OP_breg20 -11]
    1745              DW$106  .dwtag  DW_TAG_variable, DW_AT_name("cfiac"), DW_AT_symbol_name("_cfiac")
    1746                      .dwattr DW$106, DW_AT_type(*DW$T$10)
    1747                      .dwattr DW$106, DW_AT_location[DW_OP_breg20 -12]
    1748              DW$107  .dwtag  DW_TAG_variable, DW_AT_name("famin"), DW_AT_symbol_name("_famin")
    1749                      .dwattr DW$107, DW_AT_type(*DW$T$10)
    1750                      .dwattr DW$107, DW_AT_location[DW_OP_breg20 -13]
    1751              DW$108  .dwtag  DW_TAG_variable, DW_AT_name("famin1"), DW_AT_symbol_name("_famin1")
    1752                      .dwattr DW$108, DW_AT_type(*DW$T$10)
    1753                      .dwattr DW$108, DW_AT_location[DW_OP_breg20 -14]
    1754              DW$109  .dwtag  DW_TAG_variable, DW_AT_name("famax"), DW_AT_symbol_name("_famax")
    1755                      .dwattr DW$109, DW_AT_type(*DW$T$10)
    1756                      .dwattr DW$109, DW_AT_location[DW_OP_breg20 -15]
    1757              DW$110  .dwtag  DW_TAG_variable, DW_AT_name("famax1"), DW_AT_symbol_name("_famax1")
TMS320C2000 COFF Assembler PC v4.1.3 Sat Oct 08 14:42:32 2011

Tools Copyright (c) 1996-2006 Texas Instruments Incorporated
C:\DOCUME~1\ADMINI~1\LOCALS~1\Temp\TI8522                            PAGE   39

    1758                      .dwattr DW$110, DW_AT_type(*DW$T$10)
    1759                      .dwattr DW$110, DW_AT_location[DW_OP_breg20 -16]
    1760              DW$111  .dwtag  DW_TAG_variable, DW_AT_name("fcmin"), DW_AT_symbol_name("_fcmin")
    1761                      .dwattr DW$111, DW_AT_type(*DW$T$10)
    1762                      .dwattr DW$111, DW_AT_location[DW_OP_breg20 -17]
    1763              DW$112  .dwtag  DW_TAG_variable, DW_AT_name("fcmin1"), DW_AT_symbol_name("_fcmin1")
    1764                      .dwattr DW$112, DW_AT_type(*DW$T$10)
    1765                      .dwattr DW$112, DW_AT_location[DW_OP_breg20 -18]
    1766              DW$113  .dwtag  DW_TAG_variable, DW_AT_name("fcmax"), DW_AT_symbol_name("_fcmax")
    1767                      .dwattr DW$113, DW_AT_type(*DW$T$10)
    1768                      .dwattr DW$113, DW_AT_location[DW_OP_breg20 -19]
    1769              DW$114  .dwtag  DW_TAG_variable, DW_AT_name("fcmax1"), DW_AT_symbol_name("_fcmax1")
    1770                      .dwattr DW$114, DW_AT_type(*DW$T$10)
    1771                      .dwattr DW$114, DW_AT_location[DW_OP_breg20 -20]
    1772              DW$115  .dwtag  DW_TAG_variable, DW_AT_name("i"), DW_AT_symbol_name("_i")
    1773                      .dwattr DW$115, DW_AT_type(*DW$T$10)
    1774                      .dwattr DW$115, DW_AT_location[DW_OP_breg20 -21]
    1775              DW$116  .dwtag  DW_TAG_variable, DW_AT_name("j"), DW_AT_symbol_name("_j")
    1776                      .dwattr DW$116, DW_AT_type(*DW$T$10)
    1777                      .dwattr DW$116, DW_AT_location[DW_OP_breg20 -22]
    1778              DW$117  .dwtag  DW_TAG_variable, DW_AT_name("f"), DW_AT_symbol_name("_f")
    1779                      .dwattr DW$117, DW_AT_type(*DW$T$10)
    1780                      .dwattr DW$117, DW_AT_location[DW_OP_breg20 -23]
    1781              DW$118  .dwtag  DW_TAG_variable, DW_AT_name("cosf"), DW_AT_symbol_name("_cosf")
    1782                      .dwattr DW$118, DW_AT_type(*DW$T$17)
    1783                      .dwattr DW$118, DW_AT_location[DW_OP_breg20 -26]
    1784              DW$119  .dwtag  DW_TAG_variable, DW_AT_name("pi"), DW_AT_symbol_name("_pi")
    1785                      .dwattr DW$119, DW_AT_type(*DW$T$17)
    1786                      .dwattr DW$119, DW_AT_location[DW_OP_breg20 -28]
    1787              DW$120  .dwtag  DW_TAG_variable, DW_AT_name("coss"), DW_AT_symbol_name("_coss")
    1788                      .dwattr DW$120, DW_AT_type(*DW$T$35)
    1789                      .dwattr DW$120, DW_AT_location[DW_OP_breg20 -48]
    1790              DW$121  .dwtag  DW_TAG_variable, DW_AT_name("coo"), DW_AT_symbol_name("_coo")
    1791                      .dwattr DW$121, DW_AT_type(*DW$T$32)
    1792                      .dwattr DW$121, DW_AT_location[DW_OP_breg20 -50]
    1793              DW$122  .dwtag  DW_TAG_variable, DW_AT_name("LC_Flag"), DW_AT_symbol_name("_LC_Flag")
    1794                      .dwattr DW$122, DW_AT_type(*DW$T$6)
    1795                      .dwattr DW$122, DW_AT_location[DW_OP_breg20 -51]
    1796 00000085 A84A          MOVL      *-SP[10],XAR4         ; |279| 
    1797 00000086 7D47          MOV       *-SP[7],AR5           ; |279| 
    1798 00000087 9746          MOV       *-SP[6],AH            ; |279| 
    1799 00000088 9645          MOV       *-SP[5],AL            ; |279| 
    1800                      .dwpsn  "app_WIRmod_alg.c",281,15
    1801 00000089 28A8          MOV       AH,#16457
         0000008a 4049 
    1802 0000008b 28A9          MOV       AL,#4058
         0000008c 0FDA 
    1803 0000008d 1E5C          MOVL      *-SP[28],ACC          ; |281| 
    1804                      .dwpsn  "app_WIRmod_alg.c",284,16
    1805 0000008e 2B73          MOV       *-SP[51],#0           ; |284| 
    1806                      .dwpsn  "app_WIRmod_alg.c",285,8
    1807 0000008f 2B55          MOV       *-SP[21],#0           ; |285| 
    1808                      .dwpsn  "app_WIRmod_alg.c",285,14
    1809 00000090 9255          MOV       AL,*-SP[21]           ; |285| 
    1810 00000091 521C          CMPB      AL,#28                ; |285| 
TMS320C2000 COFF Assembler PC v4.1.3 Sat Oct 08 14:42:32 2011

Tools Copyright (c) 1996-2006 Texas Instruments Incorporated
C:\DOCUME~1\ADMINI~1\LOCALS~1\Temp\TI8522                            PAGE   40

    1811 00000092 6321          B         L13,GEQ               ; |285| 
    1812                      ; branchcc occurs ; |285| 
    1813              L12:    
    1814              DW$L$_chasan$2$B:
    1815                      .dwpsn  "app_WIRmod_alg.c",287,3
    1816 00000093 8A4A          MOVL      XAR4,*-SP[10]         ; |287| 
    1817 00000094 3B01          SETC      SXM
    1818 00000095 8555          MOV       ACC,*-SP[21]          ; |287| 
    1819 00000096 5601          ADDL      XAR4,ACC
         00000097 00A4 
    1820 00000098 28C4          MOV       *+XAR4[0],#32         ; |287| 
         00000099 0020 
    1821                      .dwpsn  "app_WIRmod_alg.c",288,3
    1822 0000009a 8A4A          MOVL      XAR4,*-SP[10]         ; |288| 
    1823 0000009b 8555          MOV       ACC,*-SP[21]          ; |288| 
    1824 0000009c 5601          ADDL      XAR4,ACC
         0000009d 00A4 
    1825 0000009e D020          MOVB      XAR0,#32              ; |288| 
    1826 0000009f 2894          MOV       *+XAR4[AR0],#32       ; |288| 
         000000a0 0020 
    1827                      .dwpsn  "app_WIRmod_alg.c",289,3
    1828 000000a1 8A4A          MOVL      XAR4,*-SP[10]         ; |289| 
    1829 000000a2 8555          MOV       ACC,*-SP[21]          ; |289| 
    1830 000000a3 5601          ADDL      XAR4,ACC
         000000a4 00A4 
    1831 000000a5 D040          MOVB      XAR0,#64              ; |289| 
    1832 000000a6 2894          MOV       *+XAR4[AR0],#32       ; |289| 
         000000a7 0020 
    1833                      .dwpsn  "app_WIRmod_alg.c",290,3
    1834 000000a8 8A4A          MOVL      XAR4,*-SP[10]         ; |290| 
    1835 000000a9 8555          MOV       ACC,*-SP[21]          ; |290| 
    1836 000000aa 5601          ADDL      XAR4,ACC
         000000ab 00A4 
    1837 000000ac D060          MOVB      XAR0,#96              ; |290| 
    1838 000000ad 2894          MOV       *+XAR4[AR0],#32       ; |290| 
         000000ae 0020 
    1839                      .dwpsn  "app_WIRmod_alg.c",285,21
    1840 000000af 0A55          INC       *-SP[21]              ; |285| 
    1841                      .dwpsn  "app_WIRmod_alg.c",285,14
    1842 000000b0 9255          MOV       AL,*-SP[21]           ; |285| 
    1843 000000b1 521C          CMPB      AL,#28                ; |285| 
    1844 000000b2 64E1          B         L12,LT                ; |285| 
    1845                      ; branchcc occurs ; |285| 
    1846              DW$L$_chasan$2$E:
    1847              L13:    
    1848                      .dwpsn  "app_WIRmod_alg.c",292,2
    1849 000000b3 8A4A          MOVL      XAR4,*-SP[10]         ; |292| 
    1850 000000b4 D01C          MOVB      XAR0,#28              ; |292| 
    1851 000000b5 2B94          MOV       *+XAR4[AR0],#0        ; |292| 
    1852                      .dwpsn  "app_WIRmod_alg.c",293,2
    1853 000000b6 8A4A          MOVL      XAR4,*-SP[10]         ; |293| 
    1854 000000b7 D03C          MOVB      XAR0,#60              ; |293| 
    1855 000000b8 2B94          MOV       *+XAR4[AR0],#0        ; |293| 
    1856                      .dwpsn  "app_WIRmod_alg.c",294,2
    1857 000000b9 8A4A          MOVL      XAR4,*-SP[10]         ; |294| 
TMS320C2000 COFF Assembler PC v4.1.3 Sat Oct 08 14:42:32 2011

Tools Copyright (c) 1996-2006 Texas Instruments Incorporated
C:\DOCUME~1\ADMINI~1\LOCALS~1\Temp\TI8522                            PAGE   41

    1858 000000ba D05C          MOVB      XAR0,#92              ; |294| 
    1859 000000bb 2B94          MOV       *+XAR4[AR0],#0        ; |294| 
    1860                      .dwpsn  "app_WIRmod_alg.c",295,2
    1861 000000bc 8A4A          MOVL      XAR4,*-SP[10]         ; |295| 
    1862 000000bd D07C          MOVB      XAR0,#124             ; |295| 
    1863 000000be 2B94          MOV       *+XAR4[AR0],#0        ; |295| 
    1864                      .dwpsn  "app_WIRmod_alg.c",296,2
    1865 000000bf 2B55          MOV       *-SP[21],#0           ; |296| 
    1866                      .dwpsn  "app_WIRmod_alg.c",297,2
    1867 000000c0 9245          MOV       AL,*-SP[5]            ; |297| 
    1868 000000c1 5228          CMPB      AL,#40                ; |297| 
    1869 000000c2 6505          B         L14,LEQ               ; |297| 
    1870                      ; branchcc occurs ; |297| 
    1871 000000c3 5250          CMPB      AL,#80                ; |297| 
    1872 000000c4 6303          B         L14,GEQ               ; |297| 
    1873                      ; branchcc occurs ; |297| 
    1874                      .dwpsn  "app_WIRmod_alg.c",298,3
    1875 000000c5 284B          MOV       *-SP[11],#60          ; |298| 
         000000c6 003C 
    1876              L14:    
    1877                      .dwpsn  "app_WIRmod_alg.c",299,2
    1878 000000c7 9245          MOV       AL,*-SP[5]            ; |299| 
    1879 000000c8 1BA9          CMP       AL,#-80               ; |299| 
         000000c9 FFB0 
    1880 000000ca 6506          B         L15,LEQ               ; |299| 
    1881                      ; branchcc occurs ; |299| 
    1882 000000cb 1BA9          CMP       AL,#-40               ; |299| 
         000000cc FFD8 
    1883 000000cd 6303          B         L15,GEQ               ; |299| 
    1884                      ; branchcc occurs ; |299| 
    1885                      .dwpsn  "app_WIRmod_alg.c",300,3
    1886 000000ce 284B          MOV       *-SP[11],#-60         ; |300| 
         000000cf FFC4 
    1887              L15:    
    1888                      .dwpsn  "app_WIRmod_alg.c",301,2
    1889 000000d0 9246          MOV       AL,*-SP[6]            ; |301| 
    1890 000000d1 525B          CMPB      AL,#91                ; |301| 
    1891 000000d2 6505          B         L16,LEQ               ; |301| 
    1892                      ; branchcc occurs ; |301| 
    1893 000000d3 5295          CMPB      AL,#149               ; |301| 
    1894 000000d4 6303          B         L16,GEQ               ; |301| 
    1895                      ; branchcc occurs ; |301| 
    1896                      .dwpsn  "app_WIRmod_alg.c",302,3
    1897 000000d5 284C          MOV       *-SP[12],#120         ; |302| 
         000000d6 0078 
    1898              L16:    
    1899                      .dwpsn  "app_WIRmod_alg.c",303,2
    1900 000000d7 9246          MOV       AL,*-SP[6]            ; |303| 
    1901 000000d8 1BA9          CMP       AL,#-149              ; |303| 
         000000d9 FF6B 
    1902 000000da 6506          B         L17,LEQ               ; |303| 
    1903                      ; branchcc occurs ; |303| 
    1904 000000db 1BA9          CMP       AL,#-91               ; |303| 
         000000dc FFA5 
    1905 000000dd 6303          B         L17,GEQ               ; |303| 
TMS320C2000 COFF Assembler PC v4.1.3 Sat Oct 08 14:42:32 2011

Tools Copyright (c) 1996-2006 Texas Instruments Incorporated
C:\DOCUME~1\ADMINI~1\LOCALS~1\Temp\TI8522                            PAGE   42

    1906                      ; branchcc occurs ; |303| 
    1907                      .dwpsn  "app_WIRmod_alg.c",304,3
    1908 000000de 284C          MOV       *-SP[12],#-120        ; |304| 
         000000df FF88 
    1909              L17:    
    1910                      .dwpsn  "app_WIRmod_alg.c",305,2
    1911 000000e0 9246          MOV       AL,*-SP[6]            ; |305| 
    1912 000000e1 521F          CMPB      AL,#31                ; |305| 
    1913 000000e2 6505          B         L18,LEQ               ; |305| 
    1914                      ; branchcc occurs ; |305| 
    1915 000000e3 5259          CMPB      AL,#89                ; |305| 
    1916 000000e4 6303          B         L18,GEQ               ; |305| 
    1917                      ; branchcc occurs ; |305| 
    1918                      .dwpsn  "app_WIRmod_alg.c",306,3
    1919 000000e5 284C          MOV       *-SP[12],#60          ; |306| 
         000000e6 003C 
    1920              L18:    
    1921                      .dwpsn  "app_WIRmod_alg.c",307,2
    1922 000000e7 9246          MOV       AL,*-SP[6]            ; |307| 
    1923 000000e8 1BA9          CMP       AL,#-89               ; |307| 
         000000e9 FFA7 
    1924 000000ea 6506          B         L19,LEQ               ; |307| 
    1925                      ; branchcc occurs ; |307| 
    1926 000000eb 1BA9          CMP       AL,#-31               ; |307| 
         000000ec FFE1 
    1927 000000ed 6303          B         L19,GEQ               ; |307| 
    1928                      ; branchcc occurs ; |307| 
    1929                      .dwpsn  "app_WIRmod_alg.c",308,3
    1930 000000ee 284C          MOV       *-SP[12],#-60         ; |308| 
         000000ef FFC4 
    1931              L19:    
    1932                      .dwpsn  "app_WIRmod_alg.c",309,8
    1933 000000f0 2B56          MOV       *-SP[22],#0           ; |309| 
    1934                      .dwpsn  "app_WIRmod_alg.c",309,14
    1935 000000f1 9256          MOV       AL,*-SP[22]           ; |309| 
    1936 000000f2 5230          CMPB      AL,#48                ; |309| 
    1937 000000f3 FFE3          B         L31,GEQ               ; |309| 
         000000f4 0156 
    1938                      ; branchcc occurs ; |309| 
    1939              L20:    
    1940              DW$L$_chasan$22$B:
    1941                      .dwpsn  "app_WIRmod_alg.c",311,3
    1942 000000f5 3B01          SETC      SXM
    1943 000000f6 8F00+         MOVL      XAR4,#_cha48          ; |311| 
         000000f7 0000 
    1944 000000f8 5603          MOV       ACC,*-SP[22] << 3     ; |311| 
         000000f9 0356 
    1945 000000fa 5601          ADDL      XAR4,ACC
         000000fb 00A4 
    1946 000000fc 924B          MOV       AL,*-SP[11]           ; |311| 
    1947 000000fd 54C4          CMP       AL,*+XAR4[0]          ; |311| 
    1948 000000fe 56C0          BF        L30,NEQ               ; |311| 
         000000ff 0146 
    1949                      ; branchcc occurs ; |311| 
    1950 00000100       DW$L$_chasan$22$E:
TMS320C2000 COFF Assembler PC v4.1.3 Sat Oct 08 14:42:32 2011

Tools Copyright (c) 1996-2006 Texas Instruments Incorporated
C:\DOCUME~1\ADMINI~1\LOCALS~1\Temp\TI8522                            PAGE   43

    1951 00000100       DW$L$_chasan$23$B:
    1952 00000100 5603          MOV       ACC,*-SP[22] << 3     ; |311| 
         00000101 0356 
    1953 00000102 8F00+         MOVL      XAR4,#_cha48+1        ; |311| 
         00000103 0001 
    1954 00000104 5601          ADDL      XAR4,ACC
         00000105 00A4 
    1955 00000106 924C          MOV       AL,*-SP[12]           ; |311| 
    1956 00000107 54C4          CMP       AL,*+XAR4[0]          ; |311| 
    1957 00000108 56C0          BF        L30,NEQ               ; |311| 
         00000109 013C 
    1958                      ; branchcc occurs ; |311| 
    1959              DW$L$_chasan$23$E:
    1960              DW$L$_chasan$24$B:
    1961                      .dwpsn  "app_WIRmod_alg.c",313,4
    1962 0000010a 5CAD          MOVZ      AR4,SP                ; |313| 
    1963 0000010b DC8F          SUBB      XAR4,#15              ; |313| 
    1964 0000010c A842          MOVL      *-SP[2],XAR4          ; |313| 
    1965 0000010d 5CAD          MOVZ      AR4,SP                ; |313| 
    1966 0000010e 5603          MOV       ACC,*-SP[22] << 3     ; |313| 
         0000010f 0356 
    1967 00000110 DC90          SUBB      XAR4,#16              ; |313| 
    1968 00000111 A844          MOVL      *-SP[4],XAR4          ; |313| 
    1969 00000112 8F00+         MOVL      XAR4,#_cha48+2        ; |313| 
         00000113 0002 
    1970 00000114 5601          ADDL      XAR4,ACC
         00000115 00A4 
    1971 00000116 5DAD          MOVZ      AR5,SP                ; |313| 
    1972 00000117 92C4          MOV       AL,*+XAR4[0]          ; |313| 
    1973 00000118 5CAD          MOVZ      AR4,SP                ; |313| 
    1974 00000119 DD8E          SUBB      XAR5,#14              ; |313| 
    1975 0000011a DC8D          SUBB      XAR4,#13              ; |313| 
    1976 0000011b 7640'         LCR       #_jiao                ; |313| 
         0000011c 0057 
    1977                      ; call occurs [#_jiao] ; |313| 
    1978                      .dwpsn  "app_WIRmod_alg.c",314,4
    1979 0000011d 5CAD          MOVZ      AR4,SP                ; |314| 
    1980 0000011e DC93          SUBB      XAR4,#19              ; |314| 
    1981 0000011f A842          MOVL      *-SP[2],XAR4          ; |314| 
    1982 00000120 5CAD          MOVZ      AR4,SP                ; |314| 
    1983 00000121 DC94          SUBB      XAR4,#20              ; |314| 
    1984 00000122 3B01          SETC      SXM
    1985 00000123 A844          MOVL      *-SP[4],XAR4          ; |314| 
    1986 00000124 5603          MOV       ACC,*-SP[22] << 3     ; |314| 
         00000125 0356 
    1987 00000126 8F00+         MOVL      XAR4,#_cha48+3        ; |314| 
         00000127 0003 
    1988 00000128 5601          ADDL      XAR4,ACC
         00000129 00A4 
    1989 0000012a 5DAD          MOVZ      AR5,SP                ; |314| 
    1990 0000012b 92C4          MOV       AL,*+XAR4[0]          ; |314| 
    1991 0000012c 5CAD          MOVZ      AR4,SP                ; |314| 
    1992 0000012d DD92          SUBB      XAR5,#18              ; |314| 
    1993 0000012e DC91          SUBB      XAR4,#17              ; |314| 
    1994 0000012f 7640'         LCR       #_jiao                ; |314| 
TMS320C2000 COFF Assembler PC v4.1.3 Sat Oct 08 14:42:32 2011

Tools Copyright (c) 1996-2006 Texas Instruments Incorporated
C:\DOCUME~1\ADMINI~1\LOCALS~1\Temp\TI8522                            PAGE   44

         00000130 0057 
    1995                      ; call occurs [#_jiao] ; |314| 
    1996                      .dwpsn  "app_WIRmod_alg.c",315,4
    1997 00000131 3B01          SETC      SXM
    1998 00000132 8F00+         MOVL      XAR4,#_cha48+2        ; |315| 
         00000133 0002 
    1999 00000134 5603          MOV       ACC,*-SP[22] << 3     ; |315| 
         00000135 0356 
    2000 00000136 5601          ADDL      XAR4,ACC
         00000137 00A4 
    2001 00000138 9247          MOV       AL,*-SP[7]            ; |315| 
    2002 00000139 9EC4          SUB       AL,*+XAR4[0]          ; |315| 
    2003 0000013a 7640'         LCR       #_fgui                ; |315| 
         0000013b 0044 
    2004                      ; call occurs [#_fgui] ; |315| 
    2005 0000013c 9CA6          ADDB      AL,#-90
    2006 0000013d 7640'         LCR       #_fgui                ; |315| 
         0000013e 0044 
    2007                      ; call occurs [#_fgui] ; |315| 
    2008 0000013f 3B01          SETC      SXM
    2009 00000140 88A9          MOVZ      AR6,AL                ; |315| 
    2010 00000141 8F00+         MOVL      XAR4,#_cha48+3        ; |315| 
         00000142 0003 
    2011 00000143 5603          MOV       ACC,*-SP[22] << 3     ; |315| 
         00000144 0356 
    2012 00000145 5601          ADDL      XAR4,ACC
         00000146 00A4 
    2013 00000147 92C4          MOV       AL,*+XAR4[0]          ; |315| 
    2014 00000148 7640'         LCR       #_fgui                ; |315| 
         00000149 0044 
    2015                      ; call occurs [#_fgui] ; |315| 
    2016 0000014a 93A9          MOV       AH,AL                 ; |315| 
    2017 0000014b 9279          MOV       AL,*-SP[57]           ; |315| 
    2018 0000014c 9EA8          SUB       AL,AH                 ; |315| 
    2019 0000014d 9CA6          ADDB      AL,#-90
    2020 0000014e 7640'         LCR       #_fgui                ; |315| 
         0000014f 0044 
    2021                      ; call occurs [#_fgui] ; |315| 
    2022 00000150 94A6          ADD       AL,AR6                ; |315| 
    2023 00000151 93A9          MOV       AH,AL                 ; |315| 
    2024 00000152 FFDE          LSR       AH,15                 ; |315| 
    2025 00000153 95A9          ADD       AH,AL                 ; |315| 
    2026 00000154 FFB0          ASR       AH,1                  ; |315| 
    2027 00000155 9757          MOV       *-SP[23],AH           ; |315| 
    2028                      .dwpsn  "app_WIRmod_alg.c",316,4
    2029 00000156 9A00          MOV       AL,#0
    2030 00000157 28A8          MOV       AH,#17204
         00000158 4334 
    2031 00000159 1E42          MOVL      *-SP[2],ACC           ; |316| 
    2032 0000015a 065C          MOVL      ACC,*-SP[28]          ; |316| 
    2033 0000015b 7640!         LCR       #FS$$DIV              ; |316| 
         0000015c 0000 
    2034                      ; call occurs [#FS$$DIV] ; |316| 
    2035 0000015d 8BA9          MOVL      XAR1,ACC              ; |316| 
    2036 0000015e 9257          MOV       AL,*-SP[23]           ; |316| 
TMS320C2000 COFF Assembler PC v4.1.3 Sat Oct 08 14:42:32 2011

Tools Copyright (c) 1996-2006 Texas Instruments Incorporated
C:\DOCUME~1\ADMINI~1\LOCALS~1\Temp\TI8522                            PAGE   45

    2037 0000015f 7640!         LCR       #I$$TOFS              ; |316| 
         00000160 0000 
    2038                      ; call occurs [#I$$TOFS] ; |316| 
    2039 00000161 1E42          MOVL      *-SP[2],ACC           ; |316| 
    2040 00000162 B2A9          MOVL      ACC,XAR1              ; |316| 
    2041 00000163 7640!         LCR       #FS$$MPY              ; |316| 
         00000164 0000 
    2042                      ; call occurs [#FS$$MPY] ; |316| 
    2043 00000165 7640!         LCR       #_cos                 ; |316| 
         00000166 0000 
    2044                      ; call occurs [#_cos] ; |316| 
    2045 00000167 1E5A          MOVL      *-SP[26],ACC          ; |316| 
    2046                      .dwpsn  "app_WIRmod_alg.c",317,4
    2047 00000168 924D          MOV       AL,*-SP[13]           ; |317| 
    2048 00000169 5447          CMP       AL,*-SP[7]            ; |317| 
    2049 0000016a 6204          B         L21,GT                ; |317| 
    2050                      ; branchcc occurs ; |317| 
    2051 0000016b       DW$L$_chasan$24$E:
    2052 0000016b       DW$L$_chasan$25$B:
    2053 0000016b 924E          MOV       AL,*-SP[14]           ; |317| 
    2054 0000016c 5447          CMP       AL,*-SP[7]            ; |317| 
    2055 0000016d 6315          B         L24,GEQ               ; |317| 
    2056                      ; branchcc occurs ; |317| 
    2057 0000016e       DW$L$_chasan$25$E:
    2058 0000016e       L21:    
    2059 0000016e       DW$L$_chasan$26$B:
    2060 0000016e 924F          MOV       AL,*-SP[15]           ; |317| 
    2061 0000016f 5447          CMP       AL,*-SP[7]            ; |317| 
    2062 00000170 6204          B         L22,GT                ; |317| 
    2063                      ; branchcc occurs ; |317| 
    2064 00000171       DW$L$_chasan$26$E:
    2065 00000171       DW$L$_chasan$27$B:
    2066 00000171 9250          MOV       AL,*-SP[16]           ; |317| 
    2067 00000172 5447          CMP       AL,*-SP[7]            ; |317| 
    2068 00000173 630F          B         L24,GEQ               ; |317| 
    2069                      ; branchcc occurs ; |317| 
    2070 00000174       DW$L$_chasan$27$E:
    2071 00000174       L22:    
    2072 00000174       DW$L$_chasan$28$B:
    2073 00000174 9251          MOV       AL,*-SP[17]           ; |317| 
    2074 00000175 5479          CMP       AL,*-SP[57]           ; |317| 
    2075 00000176 6204          B         L23,GT                ; |317| 
    2076                      ; branchcc occurs ; |317| 
    2077 00000177       DW$L$_chasan$28$E:
    2078 00000177       DW$L$_chasan$29$B:
    2079 00000177 9252          MOV       AL,*-SP[18]           ; |317| 
    2080 00000178 5479          CMP       AL,*-SP[57]           ; |317| 
    2081 00000179 6309          B         L24,GEQ               ; |317| 
    2082                      ; branchcc occurs ; |317| 
    2083 0000017a       DW$L$_chasan$29$E:
    2084 0000017a       L23:    
    2085 0000017a       DW$L$_chasan$30$B:
    2086 0000017a 9253          MOV       AL,*-SP[19]           ; |317| 
    2087 0000017b 5479          CMP       AL,*-SP[57]           ; |317| 
    2088 0000017c FFE2          B         L30,GT                ; |317| 
TMS320C2000 COFF Assembler PC v4.1.3 Sat Oct 08 14:42:32 2011

Tools Copyright (c) 1996-2006 Texas Instruments Incorporated
C:\DOCUME~1\ADMINI~1\LOCALS~1\Temp\TI8522                            PAGE   46

         0000017d 00C8 
    2089                      ; branchcc occurs ; |317| 
    2090 0000017e       DW$L$_chasan$30$E:
    2091 0000017e       DW$L$_chasan$31$B:
    2092 0000017e 9254          MOV       AL,*-SP[20]           ; |317| 
    2093 0000017f 5479          CMP       AL,*-SP[57]           ; |317| 
    2094 00000180 FFE4          B         L30,LT                ; |317| 
         00000181 00C4 
    2095                      ; branchcc occurs ; |317| 
    2096              DW$L$_chasan$31$E:
    2097              L24:    
    2098              DW$L$_chasan$32$B:
    2099                      .dwpsn  "app_WIRmod_alg.c",318,5
    2100 00000182 9A00          MOV       AL,#0
    2101 00000183 9B00          MOV       AH,#0
    2102 00000184 1E42          MOVL      *-SP[2],ACC           ; |318| 
    2103 00000185 065A          MOVL      ACC,*-SP[26]          ; |318| 
    2104 00000186 7640!         LCR       #FS$$CMP              ; |318| 
         00000187 0000 
    2105                      ; call occurs [#FS$$CMP] ; |318| 
    2106 00000188 5200          CMPB      AL,#0                 ; |318| 
    2107 00000189 FFE4          B         L30,LT                ; |318| 
         0000018a 00BB 
    2108                      ; branchcc occurs ; |318| 
    2109              DW$L$_chasan$32$E:
    2110              DW$L$_chasan$33$B:
    2111                      .dwpsn  "app_WIRmod_alg.c",320,6
    2112 0000018b 9A00          MOV       AL,#0
    2113 0000018c 28A8          MOV       AH,#17096
         0000018d 42C8 
    2114 0000018e 1E42          MOVL      *-SP[2],ACC           ; |320| 
    2115 0000018f 065A          MOVL      ACC,*-SP[26]          ; |320| 
    2116 00000190 7640!         LCR       #FS$$MPY              ; |320| 
         00000191 0000 
    2117                      ; call occurs [#FS$$MPY] ; |320| 
    2118 00000192 7640!         LCR       #FS$$TOL              ; |320| 
         00000193 0000 
    2119                      ; call occurs [#FS$$TOL] ; |320| 
    2120 00000194 5CAD          MOVZ      AR4,SP                ; |320| 
    2121 00000195 D50A          MOVB      XAR5,#10              ; |320| 
    2122 00000196 DCAB          SUBB      XAR4,#43              ; |320| 
    2123 00000197 7640'         LCR       #_itoa                ; |320| 
         00000198 0000 
    2124                      ; call occurs [#_itoa] ; |320| 
    2125                      .dwpsn  "app_WIRmod_alg.c",321,6
    2126 00000199 5CAD          MOVZ      AR4,SP                ; |321| 
    2127 0000019a DCAB          SUBB      XAR4,#43              ; |321| 
    2128 0000019b A872          MOVL      *-SP[50],XAR4         ; |321| 
    2129                      .dwpsn  "app_WIRmod_alg.c",322,6
    2130 0000019c 8A72          MOVL      XAR4,*-SP[50]         ; |322| 
    2131 0000019d 7640!         LCR       #_strlen              ; |322| 
         0000019e 0000 
    2132                      ; call occurs [#_strlen] ; |322| 
    2133 0000019f 1EA6          MOVL      XAR6,ACC              ; |322| 
    2134 000001a0 0203          MOVB      ACC,#3
TMS320C2000 COFF Assembler PC v4.1.3 Sat Oct 08 14:42:32 2011

Tools Copyright (c) 1996-2006 Texas Instruments Incorporated
C:\DOCUME~1\ADMINI~1\LOCALS~1\Temp\TI8522                            PAGE   47

    2135 000001a1 0FA6          CMPL      ACC,XAR6              ; |322| 
    2136 000001a2 ED09          BF        L25,NEQ               ; |322| 
    2137                      ; branchcc occurs ; |322| 
    2138              DW$L$_chasan$33$E:
    2139              DW$L$_chasan$34$B:
    2140                      .dwpsn  "app_WIRmod_alg.c",324,7
    2141 000001a3 5CAD          MOVZ      AR4,SP                ; |324| 
    2142 000001a4 9A04          MOVB      AL,#4                 ; |324| 
    2143 000001a5 8F40+         MOVL      XAR5,#FSL64           ; |324| 
         000001a6 076E 
    2144 000001a7 DCB0          SUBB      XAR4,#48              ; |324| 
    2145 000001a8 7640!         LCR       #_global_memcpy       ; |324| 
         000001a9 0000 
    2146                      ; call occurs [#_global_memcpy] ; |324| 
    2147                      .dwpsn  "app_WIRmod_alg.c",325,7
    2148 000001aa 0A73          INC       *-SP[51]              ; |325| 
    2149              DW$L$_chasan$34$E:
    2150              L25:    
    2151              DW$L$_chasan$35$B:
    2152                      .dwpsn  "app_WIRmod_alg.c",327,6
    2153 000001ab 8A72          MOVL      XAR4,*-SP[50]         ; |327| 
    2154 000001ac 7640!         LCR       #_strlen              ; |327| 
         000001ad 0000 
    2155                      ; call occurs [#_strlen] ; |327| 
    2156 000001ae 1EA6          MOVL      XAR6,ACC              ; |327| 
    2157 000001af 0202          MOVB      ACC,#2
    2158 000001b0 0FA6          CMPL      ACC,XAR6              ; |327| 
    2159 000001b1 ED23          BF        L27,NEQ               ; |327| 
    2160                      ; branchcc occurs ; |327| 
    2161              DW$L$_chasan$35$E:
    2162              DW$L$_chasan$36$B:
    2163                      .dwpsn  "app_WIRmod_alg.c",329,7
    2164 000001b2 2870          MOV       *-SP[48],#48          ; |329| 
         000001b3 0030 
    2165                      .dwpsn  "app_WIRmod_alg.c",330,7
    2166 000001b4 286F          MOV       *-SP[47],#46          ; |330| 
         000001b5 002E 
    2167                      .dwpsn  "app_WIRmod_alg.c",331,7
    2168 000001b6 5DAD          MOVZ      AR5,SP                ; |331| 
    2169 000001b7 5CAD          MOVZ      AR4,SP                ; |331| 
    2170 000001b8 9A02          MOVB      AL,#2                 ; |331| 
    2171 000001b9 DDAB          SUBB      XAR5,#43              ; |331| 
    2172 000001ba DCAE          SUBB      XAR4,#46              ; |331| 
    2173 000001bb 7640!         LCR       #_global_memcpy       ; |331| 
         000001bc 0000 
    2174                      ; call occurs [#_global_memcpy] ; |331| 
    2175                      .dwpsn  "app_WIRmod_alg.c",332,7
    2176 000001bd 9257          MOV       AL,*-SP[23]           ; |332| 
    2177 000001be 640C          B         L26,LT                ; |332| 
    2178                      ; branchcc occurs ; |332| 
    2179              DW$L$_chasan$36$E:
    2180              DW$L$_chasan$37$B:
    2181                      .dwpsn  "app_WIRmod_alg.c",334,8
    2182 000001bf 0A73          INC       *-SP[51]              ; |334| 
    2183                      .dwpsn  "app_WIRmod_alg.c",335,8
TMS320C2000 COFF Assembler PC v4.1.3 Sat Oct 08 14:42:32 2011

Tools Copyright (c) 1996-2006 Texas Instruments Incorporated
C:\DOCUME~1\ADMINI~1\LOCALS~1\Temp\TI8522                            PAGE   48

    2184 000001c0 9273          MOV       AL,*-SP[51]           ; |335| 
    2185 000001c1 8A4A          MOVL      XAR4,*-SP[10]         ; |335| 
    2186 000001c2 9CFF          ADDB      AL,#-1
    2187 000001c3 0EA9          MOVU      ACC,AL
    2188 000001c4 FF34          LSL       ACC,5                 ; |335| 
    2189 000001c5 5601          ADDL      XAR4,ACC
         000001c6 00A4 
    2190 000001c7 28E4          MOV       *+XAR4[4],#76         ; |335| 
         000001c8 004C 
    2191                      .dwpsn  "app_WIRmod_alg.c",336,7
    2192 000001c9 6F0B          B         L27,UNC               ; |336| 
    2193                      ; branch occurs ; |336| 
    2194              DW$L$_chasan$37$E:
    2195              L26:    
    2196              DW$L$_chasan$38$B:
    2197                      .dwpsn  "app_WIRmod_alg.c",339,8
    2198 000001ca 0A73          INC       *-SP[51]              ; |339| 
    2199                      .dwpsn  "app_WIRmod_alg.c",340,8
    2200 000001cb 9273          MOV       AL,*-SP[51]           ; |340| 
    2201 000001cc 8A4A          MOVL      XAR4,*-SP[10]         ; |340| 
    2202 000001cd 9CFF          ADDB      AL,#-1
    2203 000001ce 0EA9          MOVU      ACC,AL
    2204 000001cf FF34          LSL       ACC,5                 ; |340| 
    2205 000001d0 5601          ADDL      XAR4,ACC
         000001d1 00A4 
    2206 000001d2 28E4          MOV       *+XAR4[4],#67         ; |340| 
         000001d3 0043 
    2207              DW$L$_chasan$38$E:
    2208              L27:    
    2209              DW$L$_chasan$39$B:
    2210                      .dwpsn  "app_WIRmod_alg.c",343,6
    2211 000001d4 8A72          MOVL      XAR4,*-SP[50]         ; |343| 
    2212 000001d5 7640!         LCR       #_strlen              ; |343| 
         000001d6 0000 
    2213                      ; call occurs [#_strlen] ; |343| 
    2214 000001d7 1EA6          MOVL      XAR6,ACC              ; |343| 
    2215 000001d8 0201          MOVB      ACC,#1
    2216 000001d9 0FA6          CMPL      ACC,XAR6              ; |343| 
    2217 000001da ED25          BF        L29,NEQ               ; |343| 
    2218                      ; branchcc occurs ; |343| 
    2219              DW$L$_chasan$39$E:
    2220              DW$L$_chasan$40$B:
    2221                      .dwpsn  "app_WIRmod_alg.c",345,7
    2222 000001db 2870          MOV       *-SP[48],#48          ; |345| 
         000001dc 0030 
    2223                      .dwpsn  "app_WIRmod_alg.c",346,7
    2224 000001dd 286F          MOV       *-SP[47],#46          ; |346| 
         000001de 002E 
    2225                      .dwpsn  "app_WIRmod_alg.c",347,7
    2226 000001df 286E          MOV       *-SP[46],#48          ; |347| 
         000001e0 0030 
    2227                      .dwpsn  "app_WIRmod_alg.c",348,7
    2228 000001e1 5DAD          MOVZ      AR5,SP                ; |348| 
    2229 000001e2 5CAD          MOVZ      AR4,SP                ; |348| 
    2230 000001e3 9A01          MOVB      AL,#1                 ; |348| 
TMS320C2000 COFF Assembler PC v4.1.3 Sat Oct 08 14:42:32 2011

Tools Copyright (c) 1996-2006 Texas Instruments Incorporated
C:\DOCUME~1\ADMINI~1\LOCALS~1\Temp\TI8522                            PAGE   49

    2231 000001e4 DDAB          SUBB      XAR5,#43              ; |348| 
    2232 000001e5 DCAD          SUBB      XAR4,#45              ; |348| 
    2233 000001e6 7640!         LCR       #_global_memcpy       ; |348| 
         000001e7 0000 
    2234                      ; call occurs [#_global_memcpy] ; |348| 
    2235                      .dwpsn  "app_WIRmod_alg.c",349,7
    2236 000001e8 9257          MOV       AL,*-SP[23]           ; |349| 
    2237 000001e9 640C          B         L28,LT                ; |349| 
    2238                      ; branchcc occurs ; |349| 
    2239              DW$L$_chasan$40$E:
    2240              DW$L$_chasan$41$B:
    2241                      .dwpsn  "app_WIRmod_alg.c",351,8
    2242 000001ea 0A73          INC       *-SP[51]              ; |351| 
    2243                      .dwpsn  "app_WIRmod_alg.c",352,8
    2244 000001eb 9273          MOV       AL,*-SP[51]           ; |352| 
    2245 000001ec 8A4A          MOVL      XAR4,*-SP[10]         ; |352| 
    2246 000001ed 9CFF          ADDB      AL,#-1
    2247 000001ee 0EA9          MOVU      ACC,AL
    2248 000001ef FF34          LSL       ACC,5                 ; |352| 
    2249 000001f0 5601          ADDL      XAR4,ACC
         000001f1 00A4 
    2250 000001f2 28E4          MOV       *+XAR4[4],#76         ; |352| 
         000001f3 004C 
    2251                      .dwpsn  "app_WIRmod_alg.c",354,7
    2252 000001f4 6F0B          B         L29,UNC               ; |354| 
    2253                      ; branch occurs ; |354| 
    2254              DW$L$_chasan$41$E:
    2255              L28:    
    2256              DW$L$_chasan$42$B:
    2257                      .dwpsn  "app_WIRmod_alg.c",357,8
    2258 000001f5 0A73          INC       *-SP[51]              ; |357| 
    2259                      .dwpsn  "app_WIRmod_alg.c",358,8
    2260 000001f6 9273          MOV       AL,*-SP[51]           ; |358| 
    2261 000001f7 8A4A          MOVL      XAR4,*-SP[10]         ; |358| 
    2262 000001f8 9CFF          ADDB      AL,#-1
    2263 000001f9 0EA9          MOVU      ACC,AL
    2264 000001fa FF34          LSL       ACC,5                 ; |358| 
    2265 000001fb 5601          ADDL      XAR4,ACC
         000001fc 00A4 
    2266 000001fd 28E4          MOV       *+XAR4[4],#67         ; |358| 
         000001fe 0043 
    2267              DW$L$_chasan$42$E:
    2268              L29:    
    2269              DW$L$_chasan$43$B:
    2270                      .dwpsn  "app_WIRmod_alg.c",361,6
    2271 000001ff 9273          MOV       AL,*-SP[51]           ; |361| 
    2272 00000200 8A4A          MOVL      XAR4,*-SP[10]         ; |361| 
    2273 00000201 9CFF          ADDB      AL,#-1
    2274 00000202 5DAD          MOVZ      AR5,SP                ; |361| 
    2275 00000203 0EA9          MOVU      ACC,AL
    2276 00000204 FF34          LSL       ACC,5                 ; |361| 
    2277 00000205 5601          ADDL      XAR4,ACC
         00000206 00A4 
    2278 00000207 DDB0          SUBB      XAR5,#48              ; |361| 
    2279 00000208 9A04          MOVB      AL,#4                 ; |361| 
TMS320C2000 COFF Assembler PC v4.1.3 Sat Oct 08 14:42:32 2011

Tools Copyright (c) 1996-2006 Texas Instruments Incorporated
C:\DOCUME~1\ADMINI~1\LOCALS~1\Temp\TI8522                            PAGE   50

    2280 00000209 7640!         LCR       #_global_memcpy       ; |361| 
         0000020a 0000 
    2281                      ; call occurs [#_global_memcpy] ; |361| 
    2282                      .dwpsn  "app_WIRmod_alg.c",362,6
    2283 0000020b 9273          MOV       AL,*-SP[51]           ; |362| 
    2284 0000020c 9CFF          ADDB      AL,#-1
    2285 0000020d 8A4A          MOVL      XAR4,*-SP[10]         ; |362| 
    2286 0000020e 0EA9          MOVU      ACC,AL
    2287 0000020f FF34          LSL       ACC,5                 ; |362| 
    2288 00000210 3B01          SETC      SXM
    2289 00000211 5601          ADDL      XAR4,ACC
         00000212 00A4 
    2290 00000213 8F40+         MOVL      XAR5,#_cha48+4        ; |362| 
         00000214 0004 
    2291 00000215 5603          MOV       ACC,*-SP[22] << 3     ; |362| 
         00000216 0356 
    2292 00000217 5601          ADDL      XAR5,ACC
         00000218 00A5 
    2293 00000219 83C5          MOVL      XAR5,*+XAR5[0]        ; |362| 
    2294 0000021a DC06          ADDB      XAR4,#6               ; |362| 
    2295 0000021b 9A08          MOVB      AL,#8                 ; |362| 
    2296 0000021c 7640!         LCR       #_global_memcpy       ; |362| 
         0000021d 0000 
    2297                      ; call occurs [#_global_memcpy] ; |362| 
    2298                      .dwpsn  "app_WIRmod_alg.c",363,6
    2299 0000021e 9273          MOV       AL,*-SP[51]           ; |363| 
    2300 0000021f 9CFF          ADDB      AL,#-1
    2301 00000220 8A4A          MOVL      XAR4,*-SP[10]         ; |363| 
    2302 00000221 0EA9          MOVU      ACC,AL
    2303 00000222 FF34          LSL       ACC,5                 ; |363| 
    2304 00000223 3B01          SETC      SXM
    2305 00000224 5601          ADDL      XAR4,ACC
         00000225 00A4 
    2306 00000226 8F40+         MOVL      XAR5,#_cha48+6        ; |363| 
         00000227 0006 
    2307 00000228 5603          MOV       ACC,*-SP[22] << 3     ; |363| 
         00000229 0356 
    2308 0000022a 5601          ADDL      XAR5,ACC
         0000022b 00A5 
    2309 0000022c 83C5          MOVL      XAR5,*+XAR5[0]        ; |363| 
    2310 0000022d DC10          ADDB      XAR4,#16              ; |363| 
    2311 0000022e 9A0B          MOVB      AL,#11                ; |363| 
    2312 0000022f 7640!         LCR       #_global_memcpy       ; |363| 
         00000230 0000 
    2313                      ; call occurs [#_global_memcpy] ; |363| 
    2314                      .dwpsn  "app_WIRmod_alg.c",364,6
    2315 00000231 9273          MOV       AL,*-SP[51]           ; |364| 
    2316 00000232 8A4A          MOVL      XAR4,*-SP[10]         ; |364| 
    2317 00000233 9CFF          ADDB      AL,#-1
    2318 00000234 0EA9          MOVU      ACC,AL
    2319 00000235 FF34          LSL       ACC,5                 ; |364| 
    2320 00000236 5601          ADDL      XAR4,ACC
         00000237 00A4 
    2321 00000238 D01C          MOVB      XAR0,#28              ; |364| 
    2322 00000239 9256          MOV       AL,*-SP[22]           ; |364| 
TMS320C2000 COFF Assembler PC v4.1.3 Sat Oct 08 14:42:32 2011

Tools Copyright (c) 1996-2006 Texas Instruments Incorporated
C:\DOCUME~1\ADMINI~1\LOCALS~1\Temp\TI8522                            PAGE   51

    2323 0000023a 9694          MOV       *+XAR4[AR0],AL        ; |364| 
    2324                      .dwpsn  "app_WIRmod_alg.c",365,6
    2325 0000023b 9273          MOV       AL,*-SP[51]           ; |365| 
    2326 0000023c 8A4A          MOVL      XAR4,*-SP[10]         ; |365| 
    2327 0000023d 9CFF          ADDB      AL,#-1
    2328 0000023e 0EA9          MOVU      ACC,AL
    2329 0000023f FF34          LSL       ACC,5                 ; |365| 
    2330 00000240 5601          ADDL      XAR4,ACC
         00000241 00A4 
    2331 00000242 D01B          MOVB      XAR0,#27              ; |365| 
    2332 00000243 2B94          MOV       *+XAR4[AR0],#0        ; |365| 
    2333              DW$L$_chasan$43$E:
    2334              L30:    
    2335              DW$L$_chasan$44$B:
    2336                      .dwpsn  "app_WIRmod_alg.c",309,21
    2337 00000244 0A56          INC       *-SP[22]              ; |309| 
    2338                      .dwpsn  "app_WIRmod_alg.c",309,14
    2339 00000245 9256          MOV       AL,*-SP[22]           ; |309| 
    2340 00000246 5230          CMPB      AL,#48                ; |309| 
    2341 00000247 FFE4          B         L20,LT                ; |309| 
         00000248 FEAE 
    2342                      ; branchcc occurs ; |309| 
    2343              DW$L$_chasan$44$E:
    2344              L31:    
    2345                      .dwpsn  "app_WIRmod_alg.c",369,1
    2346 00000249 FEB4          SUBB      SP,#52
    2347                      .dwcfa  0x1d, -4
    2348 0000024a 8BBE          MOVL      XAR1,*--SP
    2349                      .dwcfa  0x1d, -2
    2350                      .dwcfa  0xc0, 7
    2351 0000024b 0006          LRETR
    2352                      ; return occurs
    2353              
    2354              DW$123  .dwtag  DW_TAG_loop
    2355                      .dwattr DW$123, DW_AT_name("C:\DOCUME~1\ADMINI~1\LOCALS~1\Temp\TI8522:L20:1:1318056151")
    2356                      .dwattr DW$123, DW_AT_begin_file("app_WIRmod_alg.c")
    2357                      .dwattr DW$123, DW_AT_begin_line(0x135)
    2358                      .dwattr DW$123, DW_AT_end_line(0x170)
    2359              DW$124  .dwtag  DW_TAG_loop_range
    2360                      .dwattr DW$124, DW_AT_low_pc(DW$L$_chasan$22$B)
    2361                      .dwattr DW$124, DW_AT_high_pc(DW$L$_chasan$22$E)
    2362              DW$125  .dwtag  DW_TAG_loop_range
    2363                      .dwattr DW$125, DW_AT_low_pc(DW$L$_chasan$40$B)
    2364                      .dwattr DW$125, DW_AT_high_pc(DW$L$_chasan$40$E)
    2365              DW$126  .dwtag  DW_TAG_loop_range
    2366                      .dwattr DW$126, DW_AT_low_pc(DW$L$_chasan$36$B)
    2367                      .dwattr DW$126, DW_AT_high_pc(DW$L$_chasan$36$E)
    2368              DW$127  .dwtag  DW_TAG_loop_range
    2369                      .dwattr DW$127, DW_AT_low_pc(DW$L$_chasan$33$B)
    2370                      .dwattr DW$127, DW_AT_high_pc(DW$L$_chasan$33$E)
    2371              DW$128  .dwtag  DW_TAG_loop_range
    2372                      .dwattr DW$128, DW_AT_low_pc(DW$L$_chasan$34$B)
    2373                      .dwattr DW$128, DW_AT_high_pc(DW$L$_chasan$34$E)
    2374              DW$129  .dwtag  DW_TAG_loop_range
    2375                      .dwattr DW$129, DW_AT_low_pc(DW$L$_chasan$35$B)
TMS320C2000 COFF Assembler PC v4.1.3 Sat Oct 08 14:42:32 2011

Tools Copyright (c) 1996-2006 Texas Instruments Incorporated
C:\DOCUME~1\ADMINI~1\LOCALS~1\Temp\TI8522                            PAGE   52

    2376                      .dwattr DW$129, DW_AT_high_pc(DW$L$_chasan$35$E)
    2377              DW$130  .dwtag  DW_TAG_loop_range
    2378                      .dwattr DW$130, DW_AT_low_pc(DW$L$_chasan$37$B)
    2379                      .dwattr DW$130, DW_AT_high_pc(DW$L$_chasan$37$E)
    2380              DW$131  .dwtag  DW_TAG_loop_range
    2381                      .dwattr DW$131, DW_AT_low_pc(DW$L$_chasan$38$B)
    2382                      .dwattr DW$131, DW_AT_high_pc(DW$L$_chasan$38$E)
    2383              DW$132  .dwtag  DW_TAG_loop_range
    2384                      .dwattr DW$132, DW_AT_low_pc(DW$L$_chasan$39$B)
    2385                      .dwattr DW$132, DW_AT_high_pc(DW$L$_chasan$39$E)
    2386              DW$133  .dwtag  DW_TAG_loop_range
    2387                      .dwattr DW$133, DW_AT_low_pc(DW$L$_chasan$41$B)
    2388                      .dwattr DW$133, DW_AT_high_pc(DW$L$_chasan$41$E)
    2389              DW$134  .dwtag  DW_TAG_loop_range
    2390                      .dwattr DW$134, DW_AT_low_pc(DW$L$_chasan$42$B)
    2391                      .dwattr DW$134, DW_AT_high_pc(DW$L$_chasan$42$E)
    2392              DW$135  .dwtag  DW_TAG_loop_range
    2393                      .dwattr DW$135, DW_AT_low_pc(DW$L$_chasan$24$B)
    2394                      .dwattr DW$135, DW_AT_high_pc(DW$L$_chasan$24$E)
    2395              DW$136  .dwtag  DW_TAG_loop_range
    2396                      .dwattr DW$136, DW_AT_low_pc(DW$L$_chasan$25$B)
    2397                      .dwattr DW$136, DW_AT_high_pc(DW$L$_chasan$25$E)
    2398              DW$137  .dwtag  DW_TAG_loop_range
    2399                      .dwattr DW$137, DW_AT_low_pc(DW$L$_chasan$26$B)
    2400                      .dwattr DW$137, DW_AT_high_pc(DW$L$_chasan$26$E)
    2401              DW$138  .dwtag  DW_TAG_loop_range
    2402                      .dwattr DW$138, DW_AT_low_pc(DW$L$_chasan$27$B)
    2403                      .dwattr DW$138, DW_AT_high_pc(DW$L$_chasan$27$E)
    2404              DW$139  .dwtag  DW_TAG_loop_range
    2405                      .dwattr DW$139, DW_AT_low_pc(DW$L$_chasan$28$B)
    2406                      .dwattr DW$139, DW_AT_high_pc(DW$L$_chasan$28$E)
    2407              DW$140  .dwtag  DW_TAG_loop_range
    2408                      .dwattr DW$140, DW_AT_low_pc(DW$L$_chasan$29$B)
    2409                      .dwattr DW$140, DW_AT_high_pc(DW$L$_chasan$29$E)
    2410              DW$141  .dwtag  DW_TAG_loop_range
    2411                      .dwattr DW$141, DW_AT_low_pc(DW$L$_chasan$23$B)
    2412                      .dwattr DW$141, DW_AT_high_pc(DW$L$_chasan$23$E)
    2413              DW$142  .dwtag  DW_TAG_loop_range
    2414                      .dwattr DW$142, DW_AT_low_pc(DW$L$_chasan$30$B)
    2415                      .dwattr DW$142, DW_AT_high_pc(DW$L$_chasan$30$E)
    2416              DW$143  .dwtag  DW_TAG_loop_range
    2417                      .dwattr DW$143, DW_AT_low_pc(DW$L$_chasan$31$B)
    2418                      .dwattr DW$143, DW_AT_high_pc(DW$L$_chasan$31$E)
    2419              DW$144  .dwtag  DW_TAG_loop_range
    2420                      .dwattr DW$144, DW_AT_low_pc(DW$L$_chasan$32$B)
    2421                      .dwattr DW$144, DW_AT_high_pc(DW$L$_chasan$32$E)
    2422              DW$145  .dwtag  DW_TAG_loop_range
    2423                      .dwattr DW$145, DW_AT_low_pc(DW$L$_chasan$43$B)
    2424                      .dwattr DW$145, DW_AT_high_pc(DW$L$_chasan$43$E)
    2425              DW$146  .dwtag  DW_TAG_loop_range
    2426                      .dwattr DW$146, DW_AT_low_pc(DW$L$_chasan$44$B)
    2427                      .dwattr DW$146, DW_AT_high_pc(DW$L$_chasan$44$E)
    2428                      .dwendtag DW$123
    2429              
    2430              
TMS320C2000 COFF Assembler PC v4.1.3 Sat Oct 08 14:42:32 2011

Tools Copyright (c) 1996-2006 Texas Instruments Incorporated
C:\DOCUME~1\ADMINI~1\LOCALS~1\Temp\TI8522                            PAGE   53

    2431              DW$147  .dwtag  DW_TAG_loop
    2432                      .dwattr DW$147, DW_AT_name("C:\DOCUME~1\ADMINI~1\LOCALS~1\Temp\TI8522:L12:1:1318056151")
    2433                      .dwattr DW$147, DW_AT_begin_file("app_WIRmod_alg.c")
    2434                      .dwattr DW$147, DW_AT_begin_line(0x11d)
    2435                      .dwattr DW$147, DW_AT_end_line(0x123)
    2436              DW$148  .dwtag  DW_TAG_loop_range
    2437                      .dwattr DW$148, DW_AT_low_pc(DW$L$_chasan$2$B)
    2438                      .dwattr DW$148, DW_AT_high_pc(DW$L$_chasan$2$E)
    2439                      .dwendtag DW$147
    2440              
    2441                      .dwattr DW$95, DW_AT_end_file("app_WIRmod_alg.c")
    2442                      .dwattr DW$95, DW_AT_end_line(0x171)
    2443                      .dwattr DW$95, DW_AT_end_column(0x01)
    2444                      .dwendentry
    2445                      .dwendtag DW$95
    2446              
    2447 0000024c               .sect   ".text"
    2448                      .global _chashi
    2449              
    2450              DW$149  .dwtag  DW_TAG_subprogram, DW_AT_name("chashi"), DW_AT_symbol_name("_chashi")
    2451                      .dwattr DW$149, DW_AT_low_pc(_chashi)
    2452                      .dwattr DW$149, DW_AT_high_pc(0x00)
    2453                      .dwattr DW$149, DW_AT_begin_file("app_WIRmod_alg.c")
    2454                      .dwattr DW$149, DW_AT_begin_line(0x179)
    2455                      .dwattr DW$149, DW_AT_begin_column(0x06)
    2456                      .dwpsn  "app_WIRmod_alg.c",378,1
    2457              
    2458                      .dwfde DW$CIE
    2459              
    2460              ;***************************************************************
    2461              ;* FNAME: _chashi                       FR SIZE:  58           *
    2462              ;*                                                             *
    2463              ;* FUNCTION ENVIRONMENT                                        *
    2464              ;*                                                             *
    2465              ;* FUNCTION PROPERTIES                                         *
    2466              ;*                            4 Parameter, 52 Auto,  2 SOE     *
    2467              ;***************************************************************
    2468              
    2469              _chashi:
    2470                      .dwcfa  0x1d, -2
    2471                      .dwcfa  0x1c, 26, 0
    2472                      .dwcfa  0x09, 40, 26
    2473 0000024c B2BD          MOVL      *SP++,XAR1
    2474                      .dwcfa  0x80, 7, 2
    2475                      .dwcfa  0x1d, -4
    2476 0000024d FE38          ADDB      SP,#56
    2477                      .dwcfa  0x1d, -60
    2478              ;* AL    assigned to _zhen
    2479              DW$150  .dwtag  DW_TAG_formal_parameter, DW_AT_name("zhen"), DW_AT_symbol_name("_zhen")
    2480                      .dwattr DW$150, DW_AT_type(*DW$T$6)
    2481                      .dwattr DW$150, DW_AT_location[DW_OP_reg0]
    2482              ;* AH    assigned to _fa
    2483              DW$151  .dwtag  DW_TAG_formal_parameter, DW_AT_name("fa"), DW_AT_symbol_name("_fa")
    2484                      .dwattr DW$151, DW_AT_type(*DW$T$10)
    2485                      .dwattr DW$151, DW_AT_location[DW_OP_reg1]
TMS320C2000 COFF Assembler PC v4.1.3 Sat Oct 08 14:42:32 2011

Tools Copyright (c) 1996-2006 Texas Instruments Incorporated
C:\DOCUME~1\ADMINI~1\LOCALS~1\Temp\TI8522                            PAGE   54

    2486              ;* AR5   assigned to _fb
    2487              DW$152  .dwtag  DW_TAG_formal_parameter, DW_AT_name("fb"), DW_AT_symbol_name("_fb")
    2488                      .dwattr DW$152, DW_AT_type(*DW$T$10)
    2489                      .dwattr DW$152, DW_AT_location[DW_OP_reg14]
    2490              DW$153  .dwtag  DW_TAG_formal_parameter, DW_AT_name("fc"), DW_AT_symbol_name("_fc")
    2491                      .dwattr DW$153, DW_AT_type(*DW$T$10)
    2492                      .dwattr DW$153, DW_AT_location[DW_OP_breg20 -61]
    2493              ;* AR4   assigned to _cha_x
    2494              DW$154  .dwtag  DW_TAG_formal_parameter, DW_AT_name("cha_x"), DW_AT_symbol_name("_cha_x")
    2495                      .dwattr DW$154, DW_AT_type(*DW$T$55)
    2496                      .dwattr DW$154, DW_AT_location[DW_OP_reg12]
    2497              DW$155  .dwtag  DW_TAG_variable, DW_AT_name("zhen"), DW_AT_symbol_name("_zhen")
    2498                      .dwattr DW$155, DW_AT_type(*DW$T$6)
    2499                      .dwattr DW$155, DW_AT_location[DW_OP_breg20 -5]
    2500              DW$156  .dwtag  DW_TAG_variable, DW_AT_name("fa"), DW_AT_symbol_name("_fa")
    2501                      .dwattr DW$156, DW_AT_type(*DW$T$10)
    2502                      .dwattr DW$156, DW_AT_location[DW_OP_breg20 -6]
    2503              DW$157  .dwtag  DW_TAG_variable, DW_AT_name("fb"), DW_AT_symbol_name("_fb")
    2504                      .dwattr DW$157, DW_AT_type(*DW$T$10)
    2505                      .dwattr DW$157, DW_AT_location[DW_OP_breg20 -7]
    2506              DW$158  .dwtag  DW_TAG_variable, DW_AT_name("cha_x"), DW_AT_symbol_name("_cha_x")
    2507                      .dwattr DW$158, DW_AT_type(*DW$T$55)
    2508                      .dwattr DW$158, DW_AT_location[DW_OP_breg20 -10]
    2509              DW$159  .dwtag  DW_TAG_variable, DW_AT_name("famin"), DW_AT_symbol_name("_famin")
    2510                      .dwattr DW$159, DW_AT_type(*DW$T$10)
    2511                      .dwattr DW$159, DW_AT_location[DW_OP_breg20 -11]
    2512              DW$160  .dwtag  DW_TAG_variable, DW_AT_name("famin1"), DW_AT_symbol_name("_famin1")
    2513                      .dwattr DW$160, DW_AT_type(*DW$T$10)
    2514                      .dwattr DW$160, DW_AT_location[DW_OP_breg20 -12]
    2515              DW$161  .dwtag  DW_TAG_variable, DW_AT_name("famax"), DW_AT_symbol_name("_famax")
    2516                      .dwattr DW$161, DW_AT_type(*DW$T$10)
    2517                      .dwattr DW$161, DW_AT_location[DW_OP_breg20 -13]
    2518              DW$162  .dwtag  DW_TAG_variable, DW_AT_name("famax1"), DW_AT_symbol_name("_famax1")
    2519                      .dwattr DW$162, DW_AT_type(*DW$T$10)
    2520                      .dwattr DW$162, DW_AT_location[DW_OP_breg20 -14]
    2521              DW$163  .dwtag  DW_TAG_variable, DW_AT_name("fcmin"), DW_AT_symbol_name("_fcmin")
    2522                      .dwattr DW$163, DW_AT_type(*DW$T$10)
    2523                      .dwattr DW$163, DW_AT_location[DW_OP_breg20 -15]
    2524              DW$164  .dwtag  DW_TAG_variable, DW_AT_name("fcmin1"), DW_AT_symbol_name("_fcmin1")
    2525                      .dwattr DW$164, DW_AT_type(*DW$T$10)
    2526                      .dwattr DW$164, DW_AT_location[DW_OP_breg20 -16]
    2527              DW$165  .dwtag  DW_TAG_variable, DW_AT_name("fcmax"), DW_AT_symbol_name("_fcmax")
    2528                      .dwattr DW$165, DW_AT_type(*DW$T$10)
    2529                      .dwattr DW$165, DW_AT_location[DW_OP_breg20 -17]
    2530              DW$166  .dwtag  DW_TAG_variable, DW_AT_name("fcmax1"), DW_AT_symbol_name("_fcmax1")
    2531                      .dwattr DW$166, DW_AT_type(*DW$T$10)
    2532                      .dwattr DW$166, DW_AT_location[DW_OP_breg20 -18]
    2533              DW$167  .dwtag  DW_TAG_variable, DW_AT_name("j"), DW_AT_symbol_name("_j")
    2534                      .dwattr DW$167, DW_AT_type(*DW$T$10)
    2535                      .dwattr DW$167, DW_AT_location[DW_OP_breg20 -19]
    2536              DW$168  .dwtag  DW_TAG_variable, DW_AT_name("f"), DW_AT_symbol_name("_f")
    2537                      .dwattr DW$168, DW_AT_type(*DW$T$10)
    2538                      .dwattr DW$168, DW_AT_location[DW_OP_breg20 -20]
    2539              DW$169  .dwtag  DW_TAG_variable, DW_AT_name("fbmin"), DW_AT_symbol_name("_fbmin")
    2540                      .dwattr DW$169, DW_AT_type(*DW$T$10)
TMS320C2000 COFF Assembler PC v4.1.3 Sat Oct 08 14:42:32 2011

Tools Copyright (c) 1996-2006 Texas Instruments Incorporated
C:\DOCUME~1\ADMINI~1\LOCALS~1\Temp\TI8522                            PAGE   55

    2541                      .dwattr DW$169, DW_AT_location[DW_OP_breg20 -21]
    2542              DW$170  .dwtag  DW_TAG_variable, DW_AT_name("fbmin1"), DW_AT_symbol_name("_fbmin1")
    2543                      .dwattr DW$170, DW_AT_type(*DW$T$10)
    2544                      .dwattr DW$170, DW_AT_location[DW_OP_breg20 -22]
    2545              DW$171  .dwtag  DW_TAG_variable, DW_AT_name("fbmax"), DW_AT_symbol_name("_fbmax")
    2546                      .dwattr DW$171, DW_AT_type(*DW$T$10)
    2547                      .dwattr DW$171, DW_AT_location[DW_OP_breg20 -23]
    2548              DW$172  .dwtag  DW_TAG_variable, DW_AT_name("fbmax1"), DW_AT_symbol_name("_fbmax1")
    2549                      .dwattr DW$172, DW_AT_type(*DW$T$10)
    2550                      .dwattr DW$172, DW_AT_location[DW_OP_breg20 -24]
    2551              DW$173  .dwtag  DW_TAG_variable, DW_AT_name("jiaoa"), DW_AT_symbol_name("_jiaoa")
    2552                      .dwattr DW$173, DW_AT_type(*DW$T$10)
    2553                      .dwattr DW$173, DW_AT_location[DW_OP_breg20 -25]
    2554              DW$174  .dwtag  DW_TAG_variable, DW_AT_name("jiaob"), DW_AT_symbol_name("_jiaob")
    2555                      .dwattr DW$174, DW_AT_type(*DW$T$10)
    2556                      .dwattr DW$174, DW_AT_location[DW_OP_breg20 -26]
    2557              DW$175  .dwtag  DW_TAG_variable, DW_AT_name("jiaoc"), DW_AT_symbol_name("_jiaoc")
    2558                      .dwattr DW$175, DW_AT_type(*DW$T$10)
    2559                      .dwattr DW$175, DW_AT_location[DW_OP_breg20 -27]
    2560              DW$176  .dwtag  DW_TAG_variable, DW_AT_name("cosf"), DW_AT_symbol_name("_cosf")
    2561                      .dwattr DW$176, DW_AT_type(*DW$T$17)
    2562                      .dwattr DW$176, DW_AT_location[DW_OP_breg20 -30]
    2563              DW$177  .dwtag  DW_TAG_variable, DW_AT_name("pi"), DW_AT_symbol_name("_pi")
    2564                      .dwattr DW$177, DW_AT_type(*DW$T$17)
    2565                      .dwattr DW$177, DW_AT_location[DW_OP_breg20 -32]
    2566              DW$178  .dwtag  DW_TAG_variable, DW_AT_name("coss"), DW_AT_symbol_name("_coss")
    2567                      .dwattr DW$178, DW_AT_type(*DW$T$35)
    2568                      .dwattr DW$178, DW_AT_location[DW_OP_breg20 -52]
    2569              DW$179  .dwtag  DW_TAG_variable, DW_AT_name("coo"), DW_AT_symbol_name("_coo")
    2570                      .dwattr DW$179, DW_AT_type(*DW$T$32)
    2571                      .dwattr DW$179, DW_AT_location[DW_OP_breg20 -54]
    2572              DW$180  .dwtag  DW_TAG_variable, DW_AT_name("LC_Flag"), DW_AT_symbol_name("_LC_Flag")
    2573                      .dwattr DW$180, DW_AT_type(*DW$T$6)
    2574                      .dwattr DW$180, DW_AT_location[DW_OP_breg20 -55]
    2575              DW$181  .dwtag  DW_TAG_variable, DW_AT_name("i"), DW_AT_symbol_name("_i")
    2576                      .dwattr DW$181, DW_AT_type(*DW$T$6)
    2577                      .dwattr DW$181, DW_AT_location[DW_OP_breg20 -56]
    2578 0000024e A84A          MOVL      *-SP[10],XAR4         ; |378| 
    2579 0000024f 7D47          MOV       *-SP[7],AR5           ; |378| 
    2580 00000250 9746          MOV       *-SP[6],AH            ; |378| 
    2581 00000251 9645          MOV       *-SP[5],AL            ; |378| 
    2582                      .dwpsn  "app_WIRmod_alg.c",381,15
    2583 00000252 28A8          MOV       AH,#16457
         00000253 4049 
    2584 00000254 28A9          MOV       AL,#4058
         00000255 0FDA 
    2585 00000256 1E60          MOVL      *-SP[32],ACC          ; |381| 
    2586                      .dwpsn  "app_WIRmod_alg.c",384,16
    2587 00000257 2B77          MOV       *-SP[55],#0           ; |384| 
    2588                      .dwpsn  "app_WIRmod_alg.c",385,8
    2589 00000258 2B78          MOV       *-SP[56],#0           ; |385| 
    2590                      .dwpsn  "app_WIRmod_alg.c",385,14
    2591 00000259 9278          MOV       AL,*-SP[56]           ; |385| 
    2592 0000025a 521C          CMPB      AL,#28                ; |385| 
    2593 0000025b 671E          B         L33,HIS               ; |385| 
TMS320C2000 COFF Assembler PC v4.1.3 Sat Oct 08 14:42:32 2011

Tools Copyright (c) 1996-2006 Texas Instruments Incorporated
C:\DOCUME~1\ADMINI~1\LOCALS~1\Temp\TI8522                            PAGE   56

    2594                      ; branchcc occurs ; |385| 
    2595              L32:    
    2596              DW$L$_chashi$2$B:
    2597                      .dwpsn  "app_WIRmod_alg.c",387,3
    2598 0000025c 5878          MOVZ      AR0,*-SP[56]          ; |387| 
    2599 0000025d 8A4A          MOVL      XAR4,*-SP[10]         ; |387| 
    2600 0000025e 2894          MOV       *+XAR4[AR0],#32       ; |387| 
         0000025f 0020 
    2601                      .dwpsn  "app_WIRmod_alg.c",388,3
    2602 00000260 8878          MOVZ      AR6,*-SP[56]          ; |388| 
    2603 00000261 064A          MOVL      ACC,*-SP[10]          ; |388| 
    2604 00000262 0DA6          ADDU      ACC,AR6               ; |388| 
    2605 00000263 8AA9          MOVL      XAR4,ACC              ; |388| 
    2606 00000264 D020          MOVB      XAR0,#32              ; |388| 
    2607 00000265 2894          MOV       *+XAR4[AR0],#32       ; |388| 
         00000266 0020 
    2608                      .dwpsn  "app_WIRmod_alg.c",389,3
    2609 00000267 8878          MOVZ      AR6,*-SP[56]          ; |389| 
    2610 00000268 064A          MOVL      ACC,*-SP[10]          ; |389| 
    2611 00000269 0DA6          ADDU      ACC,AR6               ; |389| 
    2612 0000026a 8AA9          MOVL      XAR4,ACC              ; |389| 
    2613 0000026b D040          MOVB      XAR0,#64              ; |389| 
    2614 0000026c 2894          MOV       *+XAR4[AR0],#32       ; |389| 
         0000026d 0020 
    2615                      .dwpsn  "app_WIRmod_alg.c",390,3
    2616 0000026e 8878          MOVZ      AR6,*-SP[56]          ; |390| 
    2617 0000026f 064A          MOVL      ACC,*-SP[10]          ; |390| 
    2618 00000270 0DA6          ADDU      ACC,AR6               ; |390| 
    2619 00000271 8AA9          MOVL      XAR4,ACC              ; |390| 
    2620 00000272 D060          MOVB      XAR0,#96              ; |390| 
    2621 00000273 2894          MOV       *+XAR4[AR0],#32       ; |390| 
         00000274 0020 
    2622                      .dwpsn  "app_WIRmod_alg.c",385,21
    2623 00000275 0A78          INC       *-SP[56]              ; |385| 
    2624                      .dwpsn  "app_WIRmod_alg.c",385,14
    2625 00000276 9278          MOV       AL,*-SP[56]           ; |385| 
    2626 00000277 521C          CMPB      AL,#28                ; |385| 
    2627 00000278 68E4          B         L32,LO                ; |385| 
    2628                      ; branchcc occurs ; |385| 
    2629              DW$L$_chashi$2$E:
    2630              L33:    
    2631                      .dwpsn  "app_WIRmod_alg.c",392,2
    2632 00000279 8A4A          MOVL      XAR4,*-SP[10]         ; |392| 
    2633 0000027a D01C          MOVB      XAR0,#28              ; |392| 
    2634 0000027b 2B94          MOV       *+XAR4[AR0],#0        ; |392| 
    2635                      .dwpsn  "app_WIRmod_alg.c",393,2
    2636 0000027c 8A4A          MOVL      XAR4,*-SP[10]         ; |393| 
    2637 0000027d D03C          MOVB      XAR0,#60              ; |393| 
    2638 0000027e 2B94          MOV       *+XAR4[AR0],#0        ; |393| 
    2639                      .dwpsn  "app_WIRmod_alg.c",394,2
    2640 0000027f 8A4A          MOVL      XAR4,*-SP[10]         ; |394| 
    2641 00000280 D05C          MOVB      XAR0,#92              ; |394| 
    2642 00000281 2B94          MOV       *+XAR4[AR0],#0        ; |394| 
    2643                      .dwpsn  "app_WIRmod_alg.c",395,2
    2644 00000282 8A4A          MOVL      XAR4,*-SP[10]         ; |395| 
TMS320C2000 COFF Assembler PC v4.1.3 Sat Oct 08 14:42:32 2011

Tools Copyright (c) 1996-2006 Texas Instruments Incorporated
C:\DOCUME~1\ADMINI~1\LOCALS~1\Temp\TI8522                            PAGE   57

    2645 00000283 D07C          MOVB      XAR0,#124             ; |395| 
    2646 00000284 2B94          MOV       *+XAR4[AR0],#0        ; |395| 
    2647                      .dwpsn  "app_WIRmod_alg.c",396,2
    2648 00000285 2B78          MOV       *-SP[56],#0           ; |396| 
    2649                      .dwpsn  "app_WIRmod_alg.c",397,8
    2650 00000286 2B53          MOV       *-SP[19],#0           ; |397| 
    2651                      .dwpsn  "app_WIRmod_alg.c",397,14
    2652 00000287 9253          MOV       AL,*-SP[19]           ; |397| 
    2653 00000288 5260          CMPB      AL,#96                ; |397| 
    2654 00000289 FFE3          B         L47,GEQ               ; |397| 
         0000028a 0196 
    2655                      ; branchcc occurs ; |397| 
    2656              L34:    
    2657              DW$L$_chashi$4$B:
    2658                      .dwpsn  "app_WIRmod_alg.c",399,3
    2659 0000028b 5CAD          MOVZ      AR4,SP                ; |399| 
    2660 0000028c DC8D          SUBB      XAR4,#13              ; |399| 
    2661 0000028d A842          MOVL      *-SP[2],XAR4          ; |399| 
    2662 0000028e 5CAD          MOVZ      AR4,SP                ; |399| 
    2663 0000028f 3B01          SETC      SXM
    2664 00000290 DC8E          SUBB      XAR4,#14              ; |399| 
    2665 00000291 A844          MOVL      *-SP[4],XAR4          ; |399| 
    2666 00000292 5603          MOV       ACC,*-SP[19] << 3     ; |399| 
         00000293 0353 
    2667 00000294 8F00+         MOVL      XAR4,#_cha96+1        ; |399| 
         00000295 0181 
    2668 00000296 5601          ADDL      XAR4,ACC
         00000297 00A4 
    2669 00000298 5DAD          MOVZ      AR5,SP                ; |399| 
    2670 00000299 92C4          MOV       AL,*+XAR4[0]          ; |399| 
    2671 0000029a 5CAD          MOVZ      AR4,SP                ; |399| 
    2672 0000029b DD8C          SUBB      XAR5,#12              ; |399| 
    2673 0000029c DC8B          SUBB      XAR4,#11              ; |399| 
    2674 0000029d 7640'         LCR       #_jiao                ; |399| 
         0000029e 0057 
    2675                      ; call occurs [#_jiao] ; |399| 
    2676                      .dwpsn  "app_WIRmod_alg.c",400,3
    2677 0000029f 5CAD          MOVZ      AR4,SP                ; |400| 
    2678 000002a0 DC91          SUBB      XAR4,#17              ; |400| 
    2679 000002a1 A842          MOVL      *-SP[2],XAR4          ; |400| 
    2680 000002a2 5CAD          MOVZ      AR4,SP                ; |400| 
    2681 000002a3 DC92          SUBB      XAR4,#18              ; |400| 
    2682 000002a4 A844          MOVL      *-SP[4],XAR4          ; |400| 
    2683 000002a5 3B01          SETC      SXM
    2684 000002a6 8F00+         MOVL      XAR4,#_cha96+3        ; |400| 
         000002a7 0183 
    2685 000002a8 5603          MOV       ACC,*-SP[19] << 3     ; |400| 
         000002a9 0353 
    2686 000002aa 5601          ADDL      XAR4,ACC
         000002ab 00A4 
    2687 000002ac 5DAD          MOVZ      AR5,SP                ; |400| 
    2688 000002ad 92C4          MOV       AL,*+XAR4[0]          ; |400| 
    2689 000002ae 5CAD          MOVZ      AR4,SP                ; |400| 
    2690 000002af DD90          SUBB      XAR5,#16              ; |400| 
    2691 000002b0 DC8F          SUBB      XAR4,#15              ; |400| 
TMS320C2000 COFF Assembler PC v4.1.3 Sat Oct 08 14:42:32 2011

Tools Copyright (c) 1996-2006 Texas Instruments Incorporated
C:\DOCUME~1\ADMINI~1\LOCALS~1\Temp\TI8522                            PAGE   58

    2692 000002b1 7640'         LCR       #_jiao                ; |400| 
         000002b2 0057 
    2693                      ; call occurs [#_jiao] ; |400| 
    2694                      .dwpsn  "app_WIRmod_alg.c",401,3
    2695 000002b3 5CAD          MOVZ      AR4,SP                ; |401| 
    2696 000002b4 DC97          SUBB      XAR4,#23              ; |401| 
    2697 000002b5 A842          MOVL      *-SP[2],XAR4          ; |401| 
    2698 000002b6 5CAD          MOVZ      AR4,SP                ; |401| 
    2699 000002b7 DC98          SUBB      XAR4,#24              ; |401| 
    2700 000002b8 A844          MOVL      *-SP[4],XAR4          ; |401| 
    2701 000002b9 3B01          SETC      SXM
    2702 000002ba 8F00+         MOVL      XAR4,#_cha96+2        ; |401| 
         000002bb 0182 
    2703 000002bc 5603          MOV       ACC,*-SP[19] << 3     ; |401| 
         000002bd 0353 
    2704 000002be 5601          ADDL      XAR4,ACC
         000002bf 00A4 
    2705 000002c0 5DAD          MOVZ      AR5,SP                ; |401| 
    2706 000002c1 92C4          MOV       AL,*+XAR4[0]          ; |401| 
    2707 000002c2 5CAD          MOVZ      AR4,SP                ; |401| 
    2708 000002c3 DD96          SUBB      XAR5,#22              ; |401| 
    2709 000002c4 DC95          SUBB      XAR4,#21              ; |401| 
    2710 000002c5 7640'         LCR       #_jiao                ; |401| 
         000002c6 0057 
    2711                      ; call occurs [#_jiao] ; |401| 
    2712                      .dwpsn  "app_WIRmod_alg.c",402,3
    2713 000002c7 3B01          SETC      SXM
    2714 000002c8 8F00+         MOVL      XAR4,#_cha96+1        ; |402| 
         000002c9 0181 
    2715 000002ca 5603          MOV       ACC,*-SP[19] << 3     ; |402| 
         000002cb 0353 
    2716 000002cc 5601          ADDL      XAR4,ACC
         000002cd 00A4 
    2717 000002ce 9246          MOV       AL,*-SP[6]            ; |402| 
    2718 000002cf 9EC4          SUB       AL,*+XAR4[0]          ; |402| 
    2719 000002d0 7640'         LCR       #_fgui                ; |402| 
         000002d1 0044 
    2720                      ; call occurs [#_fgui] ; |402| 
    2721 000002d2 9CA6          ADDB      AL,#-90
    2722 000002d3 7640'         LCR       #_fgui                ; |402| 
         000002d4 0044 
    2723                      ; call occurs [#_fgui] ; |402| 
    2724 000002d5 9659          MOV       *-SP[25],AL           ; |402| 
    2725                      .dwpsn  "app_WIRmod_alg.c",403,3
    2726 000002d6 3B01          SETC      SXM
    2727 000002d7 8F00+         MOVL      XAR4,#_cha96+2        ; |403| 
         000002d8 0182 
    2728 000002d9 5603          MOV       ACC,*-SP[19] << 3     ; |403| 
         000002da 0353 
    2729 000002db 5601          ADDL      XAR4,ACC
         000002dc 00A4 
    2730 000002dd 9247          MOV       AL,*-SP[7]            ; |403| 
    2731 000002de 9EC4          SUB       AL,*+XAR4[0]          ; |403| 
    2732 000002df 7640'         LCR       #_fgui                ; |403| 
         000002e0 0044 
TMS320C2000 COFF Assembler PC v4.1.3 Sat Oct 08 14:42:32 2011

Tools Copyright (c) 1996-2006 Texas Instruments Incorporated
C:\DOCUME~1\ADMINI~1\LOCALS~1\Temp\TI8522                            PAGE   59

    2733                      ; call occurs [#_fgui] ; |403| 
    2734 000002e1 9CA6          ADDB      AL,#-90
    2735 000002e2 7640'         LCR       #_fgui                ; |403| 
         000002e3 0044 
    2736                      ; call occurs [#_fgui] ; |403| 
    2737 000002e4 965A          MOV       *-SP[26],AL           ; |403| 
    2738                      .dwpsn  "app_WIRmod_alg.c",404,3
    2739 000002e5 3B01          SETC      SXM
    2740 000002e6 8F00+         MOVL      XAR4,#_cha96+3        ; |404| 
         000002e7 0183 
    2741 000002e8 5603          MOV       ACC,*-SP[19] << 3     ; |404| 
         000002e9 0353 
    2742 000002ea 5601          ADDL      XAR4,ACC
         000002eb 00A4 
    2743 000002ec 927D          MOV       AL,*-SP[61]           ; |404| 
    2744 000002ed 9EC4          SUB       AL,*+XAR4[0]          ; |404| 
    2745 000002ee 7640'         LCR       #_fgui                ; |404| 
         000002ef 0044 
    2746                      ; call occurs [#_fgui] ; |404| 
    2747 000002f0 9CA6          ADDB      AL,#-90
    2748 000002f1 7640'         LCR       #_fgui                ; |404| 
         000002f2 0044 
    2749                      ; call occurs [#_fgui] ; |404| 
    2750 000002f3 965B          MOV       *-SP[27],AL           ; |404| 
    2751                      .dwpsn  "app_WIRmod_alg.c",405,3
    2752 000002f4 925A          MOV       AL,*-SP[26]           ; |405| 
    2753 000002f5 9459          ADD       AL,*-SP[25]           ; |405| 
    2754 000002f6 945B          ADD       AL,*-SP[27]           ; |405| 
    2755 000002f7 9B03          MOVB      AH,#3                 ; |405| 
    2756 000002f8 00C0!         FFC       XAR7,#I$$DIV          ; |405| 
         000002f9 0000 
    2757                      ; call occurs [#I$$DIV] ; |405| 
    2758 000002fa 9654          MOV       *-SP[20],AL           ; |405| 
    2759                      .dwpsn  "app_WIRmod_alg.c",406,3
    2760 000002fb 9A00          MOV       AL,#0
    2761 000002fc 28A8          MOV       AH,#17204
         000002fd 4334 
    2762 000002fe 1E42          MOVL      *-SP[2],ACC           ; |406| 
    2763 000002ff 0660          MOVL      ACC,*-SP[32]          ; |406| 
    2764 00000300 7640!         LCR       #FS$$DIV              ; |406| 
         00000301 0000 
    2765                      ; call occurs [#FS$$DIV] ; |406| 
    2766 00000302       DW$L$_chashi$4$E:
    2767 00000302       DW$L$_chashi$5$B:
    2768 00000302 8BA9          MOVL      XAR1,ACC              ; |406| 
    2769 00000303 9254          MOV       AL,*-SP[20]           ; |406| 
    2770 00000304 7640!         LCR       #I$$TOFS              ; |406| 
         00000305 0000 
    2771                      ; call occurs [#I$$TOFS] ; |406| 
    2772 00000306 1E42          MOVL      *-SP[2],ACC           ; |406| 
    2773 00000307 B2A9          MOVL      ACC,XAR1              ; |406| 
    2774 00000308 7640!         LCR       #FS$$MPY              ; |406| 
         00000309 0000 
    2775                      ; call occurs [#FS$$MPY] ; |406| 
    2776 0000030a 7640!         LCR       #_cos                 ; |406| 
TMS320C2000 COFF Assembler PC v4.1.3 Sat Oct 08 14:42:32 2011

Tools Copyright (c) 1996-2006 Texas Instruments Incorporated
C:\DOCUME~1\ADMINI~1\LOCALS~1\Temp\TI8522                            PAGE   60

         0000030b 0000 
    2777                      ; call occurs [#_cos] ; |406| 
    2778 0000030c 1E5E          MOVL      *-SP[30],ACC          ; |406| 
    2779                      .dwpsn  "app_WIRmod_alg.c",407,3
    2780 0000030d 3B01          SETC      SXM
    2781 0000030e 8F00+         MOVL      XAR4,#_cha96          ; |407| 
         0000030f 0180 
    2782 00000310 5603          MOV       ACC,*-SP[19] << 3     ; |407| 
         00000311 0353 
    2783 00000312 5601          ADDL      XAR4,ACC
         00000313 00A4 
    2784 00000314 92C4          MOV       AL,*+XAR4[0]          ; |407| 
    2785 00000315 5445          CMP       AL,*-SP[5]            ; |407| 
    2786 00000316 56C0          BF        L46,NEQ               ; |407| 
         00000317 0104 
    2787                      ; branchcc occurs ; |407| 
    2788 00000318       DW$L$_chashi$5$E:
    2789 00000318       DW$L$_chashi$6$B:
    2790 00000318 924B          MOV       AL,*-SP[11]           ; |407| 
    2791 00000319 5446          CMP       AL,*-SP[6]            ; |407| 
    2792 0000031a 6204          B         L35,GT                ; |407| 
    2793                      ; branchcc occurs ; |407| 
    2794 0000031b       DW$L$_chashi$6$E:
    2795 0000031b       DW$L$_chashi$7$B:
    2796 0000031b 924C          MOV       AL,*-SP[12]           ; |407| 
    2797 0000031c 5446          CMP       AL,*-SP[6]            ; |407| 
    2798 0000031d 6309          B         L36,GEQ               ; |407| 
    2799                      ; branchcc occurs ; |407| 
    2800 0000031e       DW$L$_chashi$7$E:
    2801 0000031e       L35:    
    2802 0000031e       DW$L$_chashi$8$B:
    2803 0000031e 924D          MOV       AL,*-SP[13]           ; |407| 
    2804 0000031f 5446          CMP       AL,*-SP[6]            ; |407| 
    2805 00000320 FFE2          B         L46,GT                ; |407| 
         00000321 00FA 
    2806                      ; branchcc occurs ; |407| 
    2807 00000322       DW$L$_chashi$8$E:
    2808 00000322       DW$L$_chashi$9$B:
    2809 00000322 924E          MOV       AL,*-SP[14]           ; |407| 
    2810 00000323 5446          CMP       AL,*-SP[6]            ; |407| 
    2811 00000324 FFE4          B         L46,LT                ; |407| 
         00000325 00F6 
    2812                      ; branchcc occurs ; |407| 
    2813 00000326       DW$L$_chashi$9$E:
    2814 00000326       L36:    
    2815 00000326       DW$L$_chashi$10$B:
    2816 00000326 9255          MOV       AL,*-SP[21]           ; |407| 
    2817 00000327 5447          CMP       AL,*-SP[7]            ; |407| 
    2818 00000328 6204          B         L37,GT                ; |407| 
    2819                      ; branchcc occurs ; |407| 
    2820 00000329       DW$L$_chashi$10$E:
    2821 00000329       DW$L$_chashi$11$B:
    2822 00000329 9256          MOV       AL,*-SP[22]           ; |407| 
    2823 0000032a 5447          CMP       AL,*-SP[7]            ; |407| 
    2824 0000032b 6309          B         L38,GEQ               ; |407| 
TMS320C2000 COFF Assembler PC v4.1.3 Sat Oct 08 14:42:32 2011

Tools Copyright (c) 1996-2006 Texas Instruments Incorporated
C:\DOCUME~1\ADMINI~1\LOCALS~1\Temp\TI8522                            PAGE   61

    2825                      ; branchcc occurs ; |407| 
    2826 0000032c       DW$L$_chashi$11$E:
    2827 0000032c       L37:    
    2828 0000032c       DW$L$_chashi$12$B:
    2829 0000032c 9257          MOV       AL,*-SP[23]           ; |407| 
    2830 0000032d 5447          CMP       AL,*-SP[7]            ; |407| 
    2831 0000032e FFE2          B         L46,GT                ; |407| 
         0000032f 00EC 
    2832                      ; branchcc occurs ; |407| 
    2833 00000330       DW$L$_chashi$12$E:
    2834 00000330       DW$L$_chashi$13$B:
    2835 00000330 9258          MOV       AL,*-SP[24]           ; |407| 
    2836 00000331 5447          CMP       AL,*-SP[7]            ; |407| 
    2837 00000332 FFE4          B         L46,LT                ; |407| 
         00000333 00E8 
    2838                      ; branchcc occurs ; |407| 
    2839 00000334       DW$L$_chashi$13$E:
    2840 00000334       L38:    
    2841 00000334       DW$L$_chashi$14$B:
    2842 00000334 924F          MOV       AL,*-SP[15]           ; |407| 
    2843 00000335 547D          CMP       AL,*-SP[61]           ; |407| 
    2844 00000336 6204          B         L39,GT                ; |407| 
    2845                      ; branchcc occurs ; |407| 
    2846 00000337       DW$L$_chashi$14$E:
    2847 00000337       DW$L$_chashi$15$B:
    2848 00000337 9250          MOV       AL,*-SP[16]           ; |407| 
    2849 00000338 547D          CMP       AL,*-SP[61]           ; |407| 
    2850 00000339 6309          B         L40,GEQ               ; |407| 
    2851                      ; branchcc occurs ; |407| 
    2852 0000033a       DW$L$_chashi$15$E:
    2853 0000033a       L39:    
    2854 0000033a       DW$L$_chashi$16$B:
    2855 0000033a 9251          MOV       AL,*-SP[17]           ; |407| 
    2856 0000033b 547D          CMP       AL,*-SP[61]           ; |407| 
    2857 0000033c FFE2          B         L46,GT                ; |407| 
         0000033d 00DE 
    2858                      ; branchcc occurs ; |407| 
    2859 0000033e       DW$L$_chashi$16$E:
    2860 0000033e       DW$L$_chashi$17$B:
    2861 0000033e 9252          MOV       AL,*-SP[18]           ; |407| 
    2862 0000033f 547D          CMP       AL,*-SP[61]           ; |407| 
    2863 00000340 FFE4          B         L46,LT                ; |407| 
         00000341 00DA 
    2864                      ; branchcc occurs ; |407| 
    2865              DW$L$_chashi$17$E:
    2866              L40:    
    2867              DW$L$_chashi$18$B:
    2868                      .dwpsn  "app_WIRmod_alg.c",408,4
    2869 00000342 9A00          MOV       AL,#0
    2870 00000343 9B00          MOV       AH,#0
    2871 00000344 1E42          MOVL      *-SP[2],ACC           ; |408| 
    2872 00000345 065E          MOVL      ACC,*-SP[30]          ; |408| 
    2873 00000346 7640!         LCR       #FS$$CMP              ; |408| 
         00000347 0000 
    2874                      ; call occurs [#FS$$CMP] ; |408| 
TMS320C2000 COFF Assembler PC v4.1.3 Sat Oct 08 14:42:32 2011

Tools Copyright (c) 1996-2006 Texas Instruments Incorporated
C:\DOCUME~1\ADMINI~1\LOCALS~1\Temp\TI8522                            PAGE   62

    2875 00000348 5200          CMPB      AL,#0                 ; |408| 
    2876 00000349 FFE4          B         L46,LT                ; |408| 
         0000034a 00D1 
    2877                      ; branchcc occurs ; |408| 
    2878              DW$L$_chashi$18$E:
    2879              DW$L$_chashi$19$B:
    2880                      .dwpsn  "app_WIRmod_alg.c",409,5
    2881 0000034b 9259          MOV       AL,*-SP[25]           ; |409| 
    2882 0000034c 3B01          SETC      SXM
    2883 0000034d 9E5A          SUB       AL,*-SP[26]           ; |409| 
    2884 0000034e 85A9          MOV       ACC,AL                ; |409| 
    2885 0000034f FF56          ABS       ACC                   ; |409| 
    2886 00000350 523C          CMPB      AL,#60                ; |409| 
    2887 00000351 FFE3          B         L46,GEQ               ; |409| 
         00000352 00C9 
    2888                      ; branchcc occurs ; |409| 
    2889 00000353       DW$L$_chashi$19$E:
    2890 00000353       DW$L$_chashi$20$B:
    2891 00000353 925A          MOV       AL,*-SP[26]           ; |409| 
    2892 00000354 9E5B          SUB       AL,*-SP[27]           ; |409| 
    2893 00000355 85A9          MOV       ACC,AL                ; |409| 
    2894 00000356 FF56          ABS       ACC                   ; |409| 
    2895 00000357 523C          CMPB      AL,#60                ; |409| 
    2896 00000358 FFE3          B         L46,GEQ               ; |409| 
         00000359 00C2 
    2897                      ; branchcc occurs ; |409| 
    2898 0000035a       DW$L$_chashi$20$E:
    2899 0000035a       DW$L$_chashi$21$B:
    2900 0000035a 9259          MOV       AL,*-SP[25]           ; |409| 
    2901 0000035b 9E5B          SUB       AL,*-SP[27]           ; |409| 
    2902 0000035c 85A9          MOV       ACC,AL                ; |409| 
    2903 0000035d FF56          ABS       ACC                   ; |409| 
    2904 0000035e 523C          CMPB      AL,#60                ; |409| 
    2905 0000035f FFE3          B         L46,GEQ               ; |409| 
         00000360 00BB 
    2906                      ; branchcc occurs ; |409| 
    2907              DW$L$_chashi$21$E:
    2908              DW$L$_chashi$22$B:
    2909                      .dwpsn  "app_WIRmod_alg.c",411,6
    2910 00000361 9A00          MOV       AL,#0
    2911 00000362 28A8          MOV       AH,#17096
         00000363 42C8 
    2912 00000364 1E42          MOVL      *-SP[2],ACC           ; |411| 
    2913 00000365 065E          MOVL      ACC,*-SP[30]          ; |411| 
    2914 00000366 7640!         LCR       #FS$$MPY              ; |411| 
         00000367 0000 
    2915                      ; call occurs [#FS$$MPY] ; |411| 
    2916 00000368 7640!         LCR       #FS$$TOL              ; |411| 
         00000369 0000 
    2917                      ; call occurs [#FS$$TOL] ; |411| 
    2918 0000036a 5CAD          MOVZ      AR4,SP                ; |411| 
    2919 0000036b D50A          MOVB      XAR5,#10              ; |411| 
    2920 0000036c DCAF          SUBB      XAR4,#47              ; |411| 
    2921 0000036d 7640'         LCR       #_itoa                ; |411| 
         0000036e 0000 
TMS320C2000 COFF Assembler PC v4.1.3 Sat Oct 08 14:42:32 2011

Tools Copyright (c) 1996-2006 Texas Instruments Incorporated
C:\DOCUME~1\ADMINI~1\LOCALS~1\Temp\TI8522                            PAGE   63

    2922                      ; call occurs [#_itoa] ; |411| 
    2923                      .dwpsn  "app_WIRmod_alg.c",412,6
    2924 0000036f 5CAD          MOVZ      AR4,SP                ; |412| 
    2925 00000370 DCAF          SUBB      XAR4,#47              ; |412| 
    2926 00000371 A876          MOVL      *-SP[54],XAR4         ; |412| 
    2927                      .dwpsn  "app_WIRmod_alg.c",413,6
    2928 00000372 8A76          MOVL      XAR4,*-SP[54]         ; |413| 
    2929 00000373 7640!         LCR       #_strlen              ; |413| 
         00000374 0000 
    2930                      ; call occurs [#_strlen] ; |413| 
    2931 00000375 1EA6          MOVL      XAR6,ACC              ; |413| 
    2932 00000376 0203          MOVB      ACC,#3
    2933 00000377 0FA6          CMPL      ACC,XAR6              ; |413| 
    2934 00000378 ED09          BF        L41,NEQ               ; |413| 
    2935                      ; branchcc occurs ; |413| 
    2936              DW$L$_chashi$22$E:
    2937              DW$L$_chashi$23$B:
    2938                      .dwpsn  "app_WIRmod_alg.c",415,7
    2939 00000379 5CAD          MOVZ      AR4,SP                ; |415| 
    2940 0000037a 9A04          MOVB      AL,#4                 ; |415| 
    2941 0000037b 8F40+         MOVL      XAR5,#FSL64           ; |415| 
         0000037c 076E 
    2942 0000037d DCB4          SUBB      XAR4,#52              ; |415| 
    2943 0000037e 7640!         LCR       #_global_memcpy       ; |415| 
         0000037f 0000 
    2944                      ; call occurs [#_global_memcpy] ; |415| 
    2945                      .dwpsn  "app_WIRmod_alg.c",416,7
    2946 00000380 0A77          INC       *-SP[55]              ; |416| 
    2947              DW$L$_chashi$23$E:
    2948              L41:    
    2949              DW$L$_chashi$24$B:
    2950                      .dwpsn  "app_WIRmod_alg.c",418,6
    2951 00000381 8A76          MOVL      XAR4,*-SP[54]         ; |418| 
    2952 00000382 7640!         LCR       #_strlen              ; |418| 
         00000383 0000 
    2953                      ; call occurs [#_strlen] ; |418| 
    2954 00000384 1EA6          MOVL      XAR6,ACC              ; |418| 
    2955 00000385 0202          MOVB      ACC,#2
    2956 00000386 0FA6          CMPL      ACC,XAR6              ; |418| 
    2957 00000387 ED23          BF        L43,NEQ               ; |418| 
    2958                      ; branchcc occurs ; |418| 
    2959              DW$L$_chashi$24$E:
    2960              DW$L$_chashi$25$B:
    2961                      .dwpsn  "app_WIRmod_alg.c",420,7
    2962 00000388 2874          MOV       *-SP[52],#48          ; |420| 
         00000389 0030 
    2963                      .dwpsn  "app_WIRmod_alg.c",421,7
    2964 0000038a 2873          MOV       *-SP[51],#46          ; |421| 
         0000038b 002E 
    2965                      .dwpsn  "app_WIRmod_alg.c",422,7
    2966 0000038c 5DAD          MOVZ      AR5,SP                ; |422| 
    2967 0000038d 5CAD          MOVZ      AR4,SP                ; |422| 
    2968 0000038e 9A02          MOVB      AL,#2                 ; |422| 
    2969 0000038f DDAF          SUBB      XAR5,#47              ; |422| 
    2970 00000390 DCB2          SUBB      XAR4,#50              ; |422| 
TMS320C2000 COFF Assembler PC v4.1.3 Sat Oct 08 14:42:32 2011

Tools Copyright (c) 1996-2006 Texas Instruments Incorporated
C:\DOCUME~1\ADMINI~1\LOCALS~1\Temp\TI8522                            PAGE   64

    2971 00000391 7640!         LCR       #_global_memcpy       ; |422| 
         00000392 0000 
    2972                      ; call occurs [#_global_memcpy] ; |422| 
    2973                      .dwpsn  "app_WIRmod_alg.c",423,7
    2974 00000393 9254          MOV       AL,*-SP[20]           ; |423| 
    2975 00000394 640C          B         L42,LT                ; |423| 
    2976                      ; branchcc occurs ; |423| 
    2977              DW$L$_chashi$25$E:
    2978              DW$L$_chashi$26$B:
    2979                      .dwpsn  "app_WIRmod_alg.c",425,8
    2980 00000395 0A77          INC       *-SP[55]              ; |425| 
    2981                      .dwpsn  "app_WIRmod_alg.c",426,8
    2982 00000396 9277          MOV       AL,*-SP[55]           ; |426| 
    2983 00000397 8A4A          MOVL      XAR4,*-SP[10]         ; |426| 
    2984 00000398 9CFF          ADDB      AL,#-1
    2985 00000399 0EA9          MOVU      ACC,AL
    2986 0000039a FF34          LSL       ACC,5                 ; |426| 
    2987 0000039b 5601          ADDL      XAR4,ACC
         0000039c 00A4 
    2988 0000039d 28E4          MOV       *+XAR4[4],#76         ; |426| 
         0000039e 004C 
    2989                      .dwpsn  "app_WIRmod_alg.c",427,7
    2990 0000039f 6F0B          B         L43,UNC               ; |427| 
    2991                      ; branch occurs ; |427| 
    2992              DW$L$_chashi$26$E:
    2993              L42:    
    2994              DW$L$_chashi$27$B:
    2995                      .dwpsn  "app_WIRmod_alg.c",430,8
    2996 000003a0 0A77          INC       *-SP[55]              ; |430| 
    2997                      .dwpsn  "app_WIRmod_alg.c",431,8
    2998 000003a1 9277          MOV       AL,*-SP[55]           ; |431| 
    2999 000003a2 8A4A          MOVL      XAR4,*-SP[10]         ; |431| 
    3000 000003a3 9CFF          ADDB      AL,#-1
    3001 000003a4 0EA9          MOVU      ACC,AL
    3002 000003a5 FF34          LSL       ACC,5                 ; |431| 
    3003 000003a6 5601          ADDL      XAR4,ACC
         000003a7 00A4 
    3004 000003a8 28E4          MOV       *+XAR4[4],#67         ; |431| 
         000003a9 0043 
    3005              DW$L$_chashi$27$E:
    3006              L43:    
    3007              DW$L$_chashi$28$B:
    3008                      .dwpsn  "app_WIRmod_alg.c",434,6
    3009 000003aa 8A76          MOVL      XAR4,*-SP[54]         ; |434| 
    3010 000003ab 7640!         LCR       #_strlen              ; |434| 
         000003ac 0000 
    3011                      ; call occurs [#_strlen] ; |434| 
    3012 000003ad 1EA6          MOVL      XAR6,ACC              ; |434| 
    3013 000003ae 0201          MOVB      ACC,#1
    3014 000003af 0FA6          CMPL      ACC,XAR6              ; |434| 
    3015 000003b0 ED25          BF        L45,NEQ               ; |434| 
    3016                      ; branchcc occurs ; |434| 
    3017              DW$L$_chashi$28$E:
    3018              DW$L$_chashi$29$B:
    3019                      .dwpsn  "app_WIRmod_alg.c",436,7
TMS320C2000 COFF Assembler PC v4.1.3 Sat Oct 08 14:42:32 2011

Tools Copyright (c) 1996-2006 Texas Instruments Incorporated
C:\DOCUME~1\ADMINI~1\LOCALS~1\Temp\TI8522                            PAGE   65

    3020 000003b1 2874          MOV       *-SP[52],#48          ; |436| 
         000003b2 0030 
    3021                      .dwpsn  "app_WIRmod_alg.c",437,7
    3022 000003b3 2873          MOV       *-SP[51],#46          ; |437| 
         000003b4 002E 
    3023                      .dwpsn  "app_WIRmod_alg.c",438,7
    3024 000003b5 2872          MOV       *-SP[50],#48          ; |438| 
         000003b6 0030 
    3025                      .dwpsn  "app_WIRmod_alg.c",439,7
    3026 000003b7 5DAD          MOVZ      AR5,SP                ; |439| 
    3027 000003b8 5CAD          MOVZ      AR4,SP                ; |439| 
    3028 000003b9 9A01          MOVB      AL,#1                 ; |439| 
    3029 000003ba DDAF          SUBB      XAR5,#47              ; |439| 
    3030 000003bb DCB1          SUBB      XAR4,#49              ; |439| 
    3031 000003bc 7640!         LCR       #_global_memcpy       ; |439| 
         000003bd 0000 
    3032                      ; call occurs [#_global_memcpy] ; |439| 
    3033                      .dwpsn  "app_WIRmod_alg.c",440,7
    3034 000003be 9254          MOV       AL,*-SP[20]           ; |440| 
    3035 000003bf 640C          B         L44,LT                ; |440| 
    3036                      ; branchcc occurs ; |440| 
    3037              DW$L$_chashi$29$E:
    3038              DW$L$_chashi$30$B:
    3039                      .dwpsn  "app_WIRmod_alg.c",442,8
    3040 000003c0 0A77          INC       *-SP[55]              ; |442| 
    3041                      .dwpsn  "app_WIRmod_alg.c",443,8
    3042 000003c1 9277          MOV       AL,*-SP[55]           ; |443| 
    3043 000003c2 8A4A          MOVL      XAR4,*-SP[10]         ; |443| 
    3044 000003c3 9CFF          ADDB      AL,#-1
    3045 000003c4 0EA9          MOVU      ACC,AL
    3046 000003c5 FF34          LSL       ACC,5                 ; |443| 
    3047 000003c6 5601          ADDL      XAR4,ACC
         000003c7 00A4 
    3048 000003c8 28E4          MOV       *+XAR4[4],#76         ; |443| 
         000003c9 004C 
    3049                      .dwpsn  "app_WIRmod_alg.c",446,7
    3050 000003ca 6F0B          B         L45,UNC               ; |446| 
    3051                      ; branch occurs ; |446| 
    3052              DW$L$_chashi$30$E:
    3053              L44:    
    3054              DW$L$_chashi$31$B:
    3055                      .dwpsn  "app_WIRmod_alg.c",449,8
    3056 000003cb 0A77          INC       *-SP[55]              ; |449| 
    3057                      .dwpsn  "app_WIRmod_alg.c",450,8
    3058 000003cc 9277          MOV       AL,*-SP[55]           ; |450| 
    3059 000003cd 8A4A          MOVL      XAR4,*-SP[10]         ; |450| 
    3060 000003ce 9CFF          ADDB      AL,#-1
    3061 000003cf 0EA9          MOVU      ACC,AL
    3062 000003d0 FF34          LSL       ACC,5                 ; |450| 
    3063 000003d1 5601          ADDL      XAR4,ACC
         000003d2 00A4 
    3064 000003d3 28E4          MOV       *+XAR4[4],#67         ; |450| 
         000003d4 0043 
    3065              DW$L$_chashi$31$E:
    3066              L45:    
TMS320C2000 COFF Assembler PC v4.1.3 Sat Oct 08 14:42:32 2011

Tools Copyright (c) 1996-2006 Texas Instruments Incorporated
C:\DOCUME~1\ADMINI~1\LOCALS~1\Temp\TI8522                            PAGE   66

    3067              DW$L$_chashi$32$B:
    3068                      .dwpsn  "app_WIRmod_alg.c",453,6
    3069 000003d5 9277          MOV       AL,*-SP[55]           ; |453| 
    3070 000003d6 8A4A          MOVL      XAR4,*-SP[10]         ; |453| 
    3071 000003d7 9CFF          ADDB      AL,#-1
    3072 000003d8 5DAD          MOVZ      AR5,SP                ; |453| 
    3073 000003d9 0EA9          MOVU      ACC,AL
    3074 000003da FF34          LSL       ACC,5                 ; |453| 
    3075 000003db 5601          ADDL      XAR4,ACC
         000003dc 00A4 
    3076 000003dd DDB4          SUBB      XAR5,#52              ; |453| 
    3077 000003de 9A04          MOVB      AL,#4                 ; |453| 
    3078 000003df 7640!         LCR       #_global_memcpy       ; |453| 
         000003e0 0000 
    3079                      ; call occurs [#_global_memcpy] ; |453| 
    3080                      .dwpsn  "app_WIRmod_alg.c",454,6
    3081 000003e1 9277          MOV       AL,*-SP[55]           ; |454| 
    3082 000003e2 9CFF          ADDB      AL,#-1
    3083 000003e3 8A4A          MOVL      XAR4,*-SP[10]         ; |454| 
    3084 000003e4 0EA9          MOVU      ACC,AL
    3085 000003e5 FF34          LSL       ACC,5                 ; |454| 
    3086 000003e6 3B01          SETC      SXM
    3087 000003e7 5601          ADDL      XAR4,ACC
         000003e8 00A4 
    3088 000003e9 8F40+         MOVL      XAR5,#_cha96+4        ; |454| 
         000003ea 0184 
    3089 000003eb 5603          MOV       ACC,*-SP[19] << 3     ; |454| 
         000003ec 0353 
    3090 000003ed 5601          ADDL      XAR5,ACC
         000003ee 00A5 
    3091 000003ef 83C5          MOVL      XAR5,*+XAR5[0]        ; |454| 
    3092 000003f0 DC06          ADDB      XAR4,#6               ; |454| 
    3093 000003f1 9A08          MOVB      AL,#8                 ; |454| 
    3094 000003f2 7640!         LCR       #_global_memcpy       ; |454| 
         000003f3 0000 
    3095                      ; call occurs [#_global_memcpy] ; |454| 
    3096                      .dwpsn  "app_WIRmod_alg.c",455,6
    3097 000003f4 9277          MOV       AL,*-SP[55]           ; |455| 
    3098 000003f5 9CFF          ADDB      AL,#-1
    3099 000003f6 8A4A          MOVL      XAR4,*-SP[10]         ; |455| 
    3100 000003f7 0EA9          MOVU      ACC,AL
    3101 000003f8 FF34          LSL       ACC,5                 ; |455| 
    3102 000003f9 3B01          SETC      SXM
    3103 000003fa 5601          ADDL      XAR4,ACC
         000003fb 00A4 
    3104 000003fc 8F40+         MOVL      XAR5,#_cha96+6        ; |455| 
         000003fd 0186 
    3105 000003fe 5603          MOV       ACC,*-SP[19] << 3     ; |455| 
         000003ff 0353 
    3106 00000400 5601          ADDL      XAR5,ACC
         00000401 00A5 
    3107 00000402 83C5          MOVL      XAR5,*+XAR5[0]        ; |455| 
    3108 00000403 DC10          ADDB      XAR4,#16              ; |455| 
    3109 00000404 9A0B          MOVB      AL,#11                ; |455| 
    3110 00000405 7640!         LCR       #_global_memcpy       ; |455| 
TMS320C2000 COFF Assembler PC v4.1.3 Sat Oct 08 14:42:32 2011

Tools Copyright (c) 1996-2006 Texas Instruments Incorporated
C:\DOCUME~1\ADMINI~1\LOCALS~1\Temp\TI8522                            PAGE   67

         00000406 0000 
    3111                      ; call occurs [#_global_memcpy] ; |455| 
    3112                      .dwpsn  "app_WIRmod_alg.c",456,6
    3113 00000407 9277          MOV       AL,*-SP[55]           ; |456| 
    3114 00000408 8A4A          MOVL      XAR4,*-SP[10]         ; |456| 
    3115 00000409 9CFF          ADDB      AL,#-1
    3116 0000040a 0EA9          MOVU      ACC,AL
    3117 0000040b FF34          LSL       ACC,5                 ; |456| 
    3118 0000040c 5601          ADDL      XAR4,ACC
         0000040d 00A4 
    3119 0000040e D01C          MOVB      XAR0,#28              ; |456| 
    3120 0000040f 9253          MOV       AL,*-SP[19]           ; |456| 
    3121 00000410 9694          MOV       *+XAR4[AR0],AL        ; |456| 
    3122                      .dwpsn  "app_WIRmod_alg.c",457,6
    3123 00000411 9277          MOV       AL,*-SP[55]           ; |457| 
    3124 00000412 8A4A          MOVL      XAR4,*-SP[10]         ; |457| 
    3125 00000413 9CFF          ADDB      AL,#-1
    3126 00000414 0EA9          MOVU      ACC,AL
    3127 00000415 FF34          LSL       ACC,5                 ; |457| 
    3128 00000416 5601          ADDL      XAR4,ACC
         00000417 00A4 
    3129 00000418 D01B          MOVB      XAR0,#27              ; |457| 
    3130 00000419 2B94          MOV       *+XAR4[AR0],#0        ; |457| 
    3131              DW$L$_chashi$32$E:
    3132              L46:    
    3133              DW$L$_chashi$33$B:
    3134                      .dwpsn  "app_WIRmod_alg.c",397,21
    3135 0000041a 0A53          INC       *-SP[19]              ; |397| 
    3136                      .dwpsn  "app_WIRmod_alg.c",397,14
    3137 0000041b 9253          MOV       AL,*-SP[19]           ; |397| 
    3138 0000041c 5260          CMPB      AL,#96                ; |397| 
    3139 0000041d FFE4          B         L34,LT                ; |397| 
         0000041e FE6E 
    3140                      ; branchcc occurs ; |397| 
    3141              DW$L$_chashi$33$E:
    3142              L47:    
    3143                      .dwpsn  "app_WIRmod_alg.c",460,1
    3144 0000041f FEB8          SUBB      SP,#56
    3145                      .dwcfa  0x1d, -4
    3146 00000420 8BBE          MOVL      XAR1,*--SP
    3147                      .dwcfa  0x1d, -2
    3148                      .dwcfa  0xc0, 7
    3149 00000421 0006          LRETR
    3150                      ; return occurs
    3151              
    3152              DW$182  .dwtag  DW_TAG_loop
    3153                      .dwattr DW$182, DW_AT_name("C:\DOCUME~1\ADMINI~1\LOCALS~1\Temp\TI8522:L34:1:1318056151")
    3154                      .dwattr DW$182, DW_AT_begin_file("app_WIRmod_alg.c")
    3155                      .dwattr DW$182, DW_AT_begin_line(0x18d)
    3156                      .dwattr DW$182, DW_AT_end_line(0x1cb)
    3157              DW$183  .dwtag  DW_TAG_loop_range
    3158                      .dwattr DW$183, DW_AT_low_pc(DW$L$_chashi$4$B)
    3159                      .dwattr DW$183, DW_AT_high_pc(DW$L$_chashi$4$E)
    3160              DW$184  .dwtag  DW_TAG_loop_range
    3161                      .dwattr DW$184, DW_AT_low_pc(DW$L$_chashi$29$B)
TMS320C2000 COFF Assembler PC v4.1.3 Sat Oct 08 14:42:32 2011

Tools Copyright (c) 1996-2006 Texas Instruments Incorporated
C:\DOCUME~1\ADMINI~1\LOCALS~1\Temp\TI8522                            PAGE   68

    3162                      .dwattr DW$184, DW_AT_high_pc(DW$L$_chashi$29$E)
    3163              DW$185  .dwtag  DW_TAG_loop_range
    3164                      .dwattr DW$185, DW_AT_low_pc(DW$L$_chashi$25$B)
    3165                      .dwattr DW$185, DW_AT_high_pc(DW$L$_chashi$25$E)
    3166              DW$186  .dwtag  DW_TAG_loop_range
    3167                      .dwattr DW$186, DW_AT_low_pc(DW$L$_chashi$22$B)
    3168                      .dwattr DW$186, DW_AT_high_pc(DW$L$_chashi$22$E)
    3169              DW$187  .dwtag  DW_TAG_loop_range
    3170                      .dwattr DW$187, DW_AT_low_pc(DW$L$_chashi$23$B)
    3171                      .dwattr DW$187, DW_AT_high_pc(DW$L$_chashi$23$E)
    3172              DW$188  .dwtag  DW_TAG_loop_range
    3173                      .dwattr DW$188, DW_AT_low_pc(DW$L$_chashi$24$B)
    3174                      .dwattr DW$188, DW_AT_high_pc(DW$L$_chashi$24$E)
    3175              DW$189  .dwtag  DW_TAG_loop_range
    3176                      .dwattr DW$189, DW_AT_low_pc(DW$L$_chashi$26$B)
    3177                      .dwattr DW$189, DW_AT_high_pc(DW$L$_chashi$26$E)
    3178              DW$190  .dwtag  DW_TAG_loop_range
    3179                      .dwattr DW$190, DW_AT_low_pc(DW$L$_chashi$27$B)
    3180                      .dwattr DW$190, DW_AT_high_pc(DW$L$_chashi$27$E)
    3181              DW$191  .dwtag  DW_TAG_loop_range
    3182                      .dwattr DW$191, DW_AT_low_pc(DW$L$_chashi$28$B)
    3183                      .dwattr DW$191, DW_AT_high_pc(DW$L$_chashi$28$E)
    3184              DW$192  .dwtag  DW_TAG_loop_range
    3185                      .dwattr DW$192, DW_AT_low_pc(DW$L$_chashi$30$B)
    3186                      .dwattr DW$192, DW_AT_high_pc(DW$L$_chashi$30$E)
    3187              DW$193  .dwtag  DW_TAG_loop_range
    3188                      .dwattr DW$193, DW_AT_low_pc(DW$L$_chashi$31$B)
    3189                      .dwattr DW$193, DW_AT_high_pc(DW$L$_chashi$31$E)
    3190              DW$194  .dwtag  DW_TAG_loop_range
    3191                      .dwattr DW$194, DW_AT_low_pc(DW$L$_chashi$14$B)
    3192                      .dwattr DW$194, DW_AT_high_pc(DW$L$_chashi$14$E)
    3193              DW$195  .dwtag  DW_TAG_loop_range
    3194                      .dwattr DW$195, DW_AT_low_pc(DW$L$_chashi$15$B)
    3195                      .dwattr DW$195, DW_AT_high_pc(DW$L$_chashi$15$E)
    3196              DW$196  .dwtag  DW_TAG_loop_range
    3197                      .dwattr DW$196, DW_AT_low_pc(DW$L$_chashi$10$B)
    3198                      .dwattr DW$196, DW_AT_high_pc(DW$L$_chashi$10$E)
    3199              DW$197  .dwtag  DW_TAG_loop_range
    3200                      .dwattr DW$197, DW_AT_low_pc(DW$L$_chashi$11$B)
    3201                      .dwattr DW$197, DW_AT_high_pc(DW$L$_chashi$11$E)
    3202              DW$198  .dwtag  DW_TAG_loop_range
    3203                      .dwattr DW$198, DW_AT_low_pc(DW$L$_chashi$6$B)
    3204                      .dwattr DW$198, DW_AT_high_pc(DW$L$_chashi$6$E)
    3205              DW$199  .dwtag  DW_TAG_loop_range
    3206                      .dwattr DW$199, DW_AT_low_pc(DW$L$_chashi$7$B)
    3207                      .dwattr DW$199, DW_AT_high_pc(DW$L$_chashi$7$E)
    3208              DW$200  .dwtag  DW_TAG_loop_range
    3209                      .dwattr DW$200, DW_AT_low_pc(DW$L$_chashi$5$B)
    3210                      .dwattr DW$200, DW_AT_high_pc(DW$L$_chashi$5$E)
    3211              DW$201  .dwtag  DW_TAG_loop_range
    3212                      .dwattr DW$201, DW_AT_low_pc(DW$L$_chashi$8$B)
    3213                      .dwattr DW$201, DW_AT_high_pc(DW$L$_chashi$8$E)
    3214              DW$202  .dwtag  DW_TAG_loop_range
    3215                      .dwattr DW$202, DW_AT_low_pc(DW$L$_chashi$9$B)
    3216                      .dwattr DW$202, DW_AT_high_pc(DW$L$_chashi$9$E)
TMS320C2000 COFF Assembler PC v4.1.3 Sat Oct 08 14:42:32 2011

Tools Copyright (c) 1996-2006 Texas Instruments Incorporated
C:\DOCUME~1\ADMINI~1\LOCALS~1\Temp\TI8522                            PAGE   69

    3217              DW$203  .dwtag  DW_TAG_loop_range
    3218                      .dwattr DW$203, DW_AT_low_pc(DW$L$_chashi$12$B)
    3219                      .dwattr DW$203, DW_AT_high_pc(DW$L$_chashi$12$E)
    3220              DW$204  .dwtag  DW_TAG_loop_range
    3221                      .dwattr DW$204, DW_AT_low_pc(DW$L$_chashi$13$B)
    3222                      .dwattr DW$204, DW_AT_high_pc(DW$L$_chashi$13$E)
    3223              DW$205  .dwtag  DW_TAG_loop_range
    3224                      .dwattr DW$205, DW_AT_low_pc(DW$L$_chashi$16$B)
    3225                      .dwattr DW$205, DW_AT_high_pc(DW$L$_chashi$16$E)
    3226              DW$206  .dwtag  DW_TAG_loop_range
    3227                      .dwattr DW$206, DW_AT_low_pc(DW$L$_chashi$17$B)
    3228                      .dwattr DW$206, DW_AT_high_pc(DW$L$_chashi$17$E)
    3229              DW$207  .dwtag  DW_TAG_loop_range
    3230                      .dwattr DW$207, DW_AT_low_pc(DW$L$_chashi$18$B)
    3231                      .dwattr DW$207, DW_AT_high_pc(DW$L$_chashi$18$E)
    3232              DW$208  .dwtag  DW_TAG_loop_range
    3233                      .dwattr DW$208, DW_AT_low_pc(DW$L$_chashi$19$B)
    3234                      .dwattr DW$208, DW_AT_high_pc(DW$L$_chashi$19$E)
    3235              DW$209  .dwtag  DW_TAG_loop_range
    3236                      .dwattr DW$209, DW_AT_low_pc(DW$L$_chashi$20$B)
    3237                      .dwattr DW$209, DW_AT_high_pc(DW$L$_chashi$20$E)
    3238              DW$210  .dwtag  DW_TAG_loop_range
    3239                      .dwattr DW$210, DW_AT_low_pc(DW$L$_chashi$21$B)
    3240                      .dwattr DW$210, DW_AT_high_pc(DW$L$_chashi$21$E)
    3241              DW$211  .dwtag  DW_TAG_loop_range
    3242                      .dwattr DW$211, DW_AT_low_pc(DW$L$_chashi$32$B)
    3243                      .dwattr DW$211, DW_AT_high_pc(DW$L$_chashi$32$E)
    3244              DW$212  .dwtag  DW_TAG_loop_range
    3245                      .dwattr DW$212, DW_AT_low_pc(DW$L$_chashi$33$B)
    3246                      .dwattr DW$212, DW_AT_high_pc(DW$L$_chashi$33$E)
    3247                      .dwendtag DW$182
    3248              
    3249              
    3250              DW$213  .dwtag  DW_TAG_loop
    3251                      .dwattr DW$213, DW_AT_name("C:\DOCUME~1\ADMINI~1\LOCALS~1\Temp\TI8522:L32:1:1318056151")
    3252                      .dwattr DW$213, DW_AT_begin_file("app_WIRmod_alg.c")
    3253                      .dwattr DW$213, DW_AT_begin_line(0x181)
    3254                      .dwattr DW$213, DW_AT_end_line(0x187)
    3255              DW$214  .dwtag  DW_TAG_loop_range
    3256                      .dwattr DW$214, DW_AT_low_pc(DW$L$_chashi$2$B)
    3257                      .dwattr DW$214, DW_AT_high_pc(DW$L$_chashi$2$E)
    3258                      .dwendtag DW$213
    3259              
    3260                      .dwattr DW$149, DW_AT_end_file("app_WIRmod_alg.c")
    3261                      .dwattr DW$149, DW_AT_end_line(0x1cc)
    3262                      .dwattr DW$149, DW_AT_end_column(0x01)
    3263                      .dwendentry
    3264                      .dwendtag DW$149
    3265              
    3266 00000422               .sect   ".text"
    3267                      .global _xiangxu
    3268              
    3269              DW$215  .dwtag  DW_TAG_subprogram, DW_AT_name("xiangxu"), DW_AT_symbol_name("_xiangxu")
    3270                      .dwattr DW$215, DW_AT_low_pc(_xiangxu)
    3271                      .dwattr DW$215, DW_AT_high_pc(0x00)
TMS320C2000 COFF Assembler PC v4.1.3 Sat Oct 08 14:42:32 2011

Tools Copyright (c) 1996-2006 Texas Instruments Incorporated
C:\DOCUME~1\ADMINI~1\LOCALS~1\Temp\TI8522                            PAGE   70

    3272                      .dwattr DW$215, DW_AT_begin_file("app_WIRmod_alg.c")
    3273                      .dwattr DW$215, DW_AT_begin_line(0x1ce)
    3274                      .dwattr DW$215, DW_AT_begin_column(0x07)
    3275                      .dwpsn  "app_WIRmod_alg.c",463,1
    3276              
    3277                      .dwfde DW$CIE
    3278              
    3279              ;***************************************************************
    3280              ;* FNAME: _xiangxu                      FR SIZE:   6           *
    3281              ;*                                                             *
    3282              ;* FUNCTION ENVIRONMENT                                        *
    3283              ;*                                                             *
    3284              ;* FUNCTION PROPERTIES                                         *
    3285              ;*                            2 Parameter,  3 Auto,  0 SOE     *
    3286              ;***************************************************************
    3287              
    3288              _xiangxu:
    3289                      .dwcfa  0x1d, -2
    3290                      .dwcfa  0x1c, 26, 0
    3291                      .dwcfa  0x09, 40, 26
    3292 00000422 FE06          ADDB      SP,#6
    3293                      .dwcfa  0x1d, -8
    3294              ;* AL    assigned to _fuab
    3295              DW$216  .dwtag  DW_TAG_formal_parameter, DW_AT_name("fuab"), DW_AT_symbol_name("_fuab")
    3296                      .dwattr DW$216, DW_AT_type(*DW$T$17)
    3297                      .dwattr DW$216, DW_AT_location[DW_OP_reg0]
    3298              DW$217  .dwtag  DW_TAG_formal_parameter, DW_AT_name("fuac"), DW_AT_symbol_name("_fuac")
    3299                      .dwattr DW$217, DW_AT_type(*DW$T$17)
    3300                      .dwattr DW$217, DW_AT_location[DW_OP_breg20 -10]
    3301              DW$218  .dwtag  DW_TAG_variable, DW_AT_name("fuab"), DW_AT_symbol_name("_fuab")
    3302                      .dwattr DW$218, DW_AT_type(*DW$T$17)
    3303                      .dwattr DW$218, DW_AT_location[DW_OP_breg20 -4]
    3304              DW$219  .dwtag  DW_TAG_variable, DW_AT_name("zhen"), DW_AT_symbol_name("_zhen")
    3305                      .dwattr DW$219, DW_AT_type(*DW$T$40)
    3306                      .dwattr DW$219, DW_AT_location[DW_OP_breg20 -5]
    3307 00000423 1E44          MOVL      *-SP[4],ACC           ; |463| 
    3308                      .dwpsn  "app_WIRmod_alg.c",464,10
    3309 00000424 2B45          MOV       *-SP[5],#0            ; |464| 
    3310                      .dwpsn  "app_WIRmod_alg.c",465,2
    3311 00000425 3B01          SETC      SXM
    3312 00000426 FF2F          MOV       ACC,#-31208 << 15
         00000427 8618 
    3313 00000428 1E42          MOVL      *-SP[2],ACC           ; |465| 
    3314 00000429 0644          MOVL      ACC,*-SP[4]           ; |465| 
    3315 0000042a 7640!         LCR       #FS$$CMP              ; |465| 
         0000042b 0000 
    3316                      ; call occurs [#FS$$CMP] ; |465| 
    3317 0000042c 5200          CMPB      AL,#0                 ; |465| 
    3318 0000042d 651E          B         L48,LEQ               ; |465| 
    3319                      ; branchcc occurs ; |465| 
    3320 0000042e 3B01          SETC      SXM
    3321 0000042f FF2F          MOV       ACC,#-31344 << 15
         00000430 8590 
    3322 00000431 1E42          MOVL      *-SP[2],ACC           ; |465| 
    3323 00000432 0644          MOVL      ACC,*-SP[4]           ; |465| 
TMS320C2000 COFF Assembler PC v4.1.3 Sat Oct 08 14:42:32 2011

Tools Copyright (c) 1996-2006 Texas Instruments Incorporated
C:\DOCUME~1\ADMINI~1\LOCALS~1\Temp\TI8522                            PAGE   71

    3324 00000433 7640!         LCR       #FS$$CMP              ; |465| 
         00000434 0000 
    3325                      ; call occurs [#FS$$CMP] ; |465| 
    3326 00000435 5200          CMPB      AL,#0                 ; |465| 
    3327 00000436 6315          B         L48,GEQ               ; |465| 
    3328                      ; branchcc occurs ; |465| 
    3329 00000437 9A00          MOV       AL,#0
    3330 00000438 28A8          MOV       AH,#17096
         00000439 42C8 
    3331 0000043a 1E42          MOVL      *-SP[2],ACC           ; |465| 
    3332 0000043b 064A          MOVL      ACC,*-SP[10]          ; |465| 
    3333 0000043c 7640!         LCR       #FS$$CMP              ; |465| 
         0000043d 0000 
    3334                      ; call occurs [#FS$$CMP] ; |465| 
    3335 0000043e 5200          CMPB      AL,#0                 ; |465| 
    3336 0000043f 650C          B         L48,LEQ               ; |465| 
    3337                      ; branchcc occurs ; |465| 
    3338 00000440 9A00          MOV       AL,#0
    3339 00000441 28A8          MOV       AH,#17164
         00000442 430C 
    3340 00000443 1E42          MOVL      *-SP[2],ACC           ; |465| 
    3341 00000444 064A          MOVL      ACC,*-SP[10]          ; |465| 
    3342 00000445 7640!         LCR       #FS$$CMP              ; |465| 
         00000446 0000 
    3343                      ; call occurs [#FS$$CMP] ; |465| 
    3344 00000447 5200          CMPB      AL,#0                 ; |465| 
    3345 00000448 6303          B         L48,GEQ               ; |465| 
    3346                      ; branchcc occurs ; |465| 
    3347                      .dwpsn  "app_WIRmod_alg.c",465,87
    3348 00000449 2845          MOV       *-SP[5],#2            ; |465| 
         0000044a 0002 
    3349              L48:    
    3350                      .dwpsn  "app_WIRmod_alg.c",466,2
    3351 0000044b 9A00          MOV       AL,#0
    3352 0000044c 28A8          MOV       AH,#17096
         0000044d 42C8 
    3353 0000044e 1E42          MOVL      *-SP[2],ACC           ; |466| 
    3354 0000044f 0644          MOVL      ACC,*-SP[4]           ; |466| 
    3355 00000450 7640!         LCR       #FS$$CMP              ; |466| 
         00000451 0000 
    3356                      ; call occurs [#FS$$CMP] ; |466| 
    3357 00000452 5200          CMPB      AL,#0                 ; |466| 
    3358 00000453 651E          B         L49,LEQ               ; |466| 
    3359                      ; branchcc occurs ; |466| 
    3360 00000454 9A00          MOV       AL,#0
    3361 00000455 28A8          MOV       AH,#17164
         00000456 430C 
    3362 00000457 1E42          MOVL      *-SP[2],ACC           ; |466| 
    3363 00000458 0644          MOVL      ACC,*-SP[4]           ; |466| 
    3364 00000459 7640!         LCR       #FS$$CMP              ; |466| 
         0000045a 0000 
    3365                      ; call occurs [#FS$$CMP] ; |466| 
    3366 0000045b 5200          CMPB      AL,#0                 ; |466| 
    3367 0000045c 6315          B         L49,GEQ               ; |466| 
    3368                      ; branchcc occurs ; |466| 
TMS320C2000 COFF Assembler PC v4.1.3 Sat Oct 08 14:42:32 2011

Tools Copyright (c) 1996-2006 Texas Instruments Incorporated
C:\DOCUME~1\ADMINI~1\LOCALS~1\Temp\TI8522                            PAGE   72

    3369 0000045d 3B01          SETC      SXM
    3370 0000045e FF2F          MOV       ACC,#-31208 << 15
         0000045f 8618 
    3371 00000460 1E42          MOVL      *-SP[2],ACC           ; |466| 
    3372 00000461 064A          MOVL      ACC,*-SP[10]          ; |466| 
    3373 00000462 7640!         LCR       #FS$$CMP              ; |466| 
         00000463 0000 
    3374                      ; call occurs [#FS$$CMP] ; |466| 
    3375 00000464 5200          CMPB      AL,#0                 ; |466| 
    3376 00000465 650C          B         L49,LEQ               ; |466| 
    3377                      ; branchcc occurs ; |466| 
    3378 00000466 3B01          SETC      SXM
    3379 00000467 FF2F          MOV       ACC,#-31344 << 15
         00000468 8590 
    3380 00000469 1E42          MOVL      *-SP[2],ACC           ; |466| 
    3381 0000046a 064A          MOVL      ACC,*-SP[10]          ; |466| 
    3382 0000046b 7640!         LCR       #FS$$CMP              ; |466| 
         0000046c 0000 
    3383                      ; call occurs [#FS$$CMP] ; |466| 
    3384 0000046d 5200          CMPB      AL,#0                 ; |466| 
    3385 0000046e 6303          B         L49,GEQ               ; |466| 
    3386                      ; branchcc occurs ; |466| 
    3387                      .dwpsn  "app_WIRmod_alg.c",466,87
    3388 0000046f 2845          MOV       *-SP[5],#1            ; |466| 
         00000470 0001 
    3389              L49:    
    3390                      .dwpsn  "app_WIRmod_alg.c",467,2
    3391 00000471 9A00          MOV       AL,#0
    3392 00000472 28A8          MOV       AH,#16928
         00000473 4220 
    3393 00000474 1E42          MOVL      *-SP[2],ACC           ; |467| 
    3394 00000475 064A          MOVL      ACC,*-SP[10]          ; |467| 
    3395 00000476 7640!         LCR       #FS$$CMP              ; |467| 
         00000477 0000 
    3396                      ; call occurs [#FS$$CMP] ; |467| 
    3397 00000478 5200          CMPB      AL,#0                 ; |467| 
    3398 00000479 650C          B         L50,LEQ               ; |467| 
    3399                      ; branchcc occurs ; |467| 
    3400 0000047a 9A00          MOV       AL,#0
    3401 0000047b 28A8          MOV       AH,#17056
         0000047c 42A0 
    3402 0000047d 1E42          MOVL      *-SP[2],ACC           ; |467| 
    3403 0000047e 064A          MOVL      ACC,*-SP[10]          ; |467| 
    3404 0000047f 7640!         LCR       #FS$$CMP              ; |467| 
         00000480 0000 
    3405                      ; call occurs [#FS$$CMP] ; |467| 
    3406 00000481 5200          CMPB      AL,#0                 ; |467| 
    3407 00000482 6303          B         L50,GEQ               ; |467| 
    3408                      ; branchcc occurs ; |467| 
    3409                      .dwpsn  "app_WIRmod_alg.c",467,43
    3410 00000483 2845          MOV       *-SP[5],#2            ; |467| 
         00000484 0002 
    3411              L50:    
    3412                      .dwpsn  "app_WIRmod_alg.c",468,2
    3413 00000485 3B01          SETC      SXM
TMS320C2000 COFF Assembler PC v4.1.3 Sat Oct 08 14:42:32 2011

Tools Copyright (c) 1996-2006 Texas Instruments Incorporated
C:\DOCUME~1\ADMINI~1\LOCALS~1\Temp\TI8522                            PAGE   73

    3414 00000486 FF2F          MOV       ACC,#-31424 << 15
         00000487 8540 
    3415 00000488 1E42          MOVL      *-SP[2],ACC           ; |468| 
    3416 00000489 064A          MOVL      ACC,*-SP[10]          ; |468| 
    3417 0000048a 7640!         LCR       #FS$$CMP              ; |468| 
         0000048b 0000 
    3418                      ; call occurs [#FS$$CMP] ; |468| 
    3419 0000048c 5200          CMPB      AL,#0                 ; |468| 
    3420 0000048d 650C          B         L51,LEQ               ; |468| 
    3421                      ; branchcc occurs ; |468| 
    3422 0000048e 3B01          SETC      SXM
    3423 0000048f FF2F          MOV       ACC,#-31680 << 15
         00000490 8440 
    3424 00000491 1E42          MOVL      *-SP[2],ACC           ; |468| 
    3425 00000492 064A          MOVL      ACC,*-SP[10]          ; |468| 
    3426 00000493 7640!         LCR       #FS$$CMP              ; |468| 
         00000494 0000 
    3427                      ; call occurs [#FS$$CMP] ; |468| 
    3428 00000495 5200          CMPB      AL,#0                 ; |468| 
    3429 00000496 6303          B         L51,GEQ               ; |468| 
    3430                      ; branchcc occurs ; |468| 
    3431                      .dwpsn  "app_WIRmod_alg.c",468,45
    3432 00000497 2845          MOV       *-SP[5],#1            ; |468| 
         00000498 0001 
    3433              L51:    
    3434                      .dwpsn  "app_WIRmod_alg.c",469,2
    3435 00000499 9245          MOV       AL,*-SP[5]            ; |469| 
    3436 0000049a 5201          CMPB      AL,#1                 ; |469| 
    3437 0000049b ED07          BF        L52,NEQ               ; |469| 
    3438                      ; branchcc occurs ; |469| 
    3439                      .dwpsn  "app_WIRmod_alg.c",471,3
    3440 0000049c 761F-         MOVW      DP,#_m_alg_presult
         0000049d 0000 
    3441 0000049e 8A0C-         MOVL      XAR4,@_m_alg_presult  ; |471| 
    3442 0000049f 28FC          MOV       *+XAR4[7],#1          ; |471| 
         000004a0 0001 
    3443                      .dwpsn  "app_WIRmod_alg.c",472,2
    3444 000004a1 6F0F          B         L54,UNC               ; |472| 
    3445                      ; branch occurs ; |472| 
    3446              L52:    
    3447                      .dwpsn  "app_WIRmod_alg.c",473,7
    3448 000004a2 5202          CMPB      AL,#2                 ; |473| 
    3449 000004a3 ED07          BF        L53,NEQ               ; |473| 
    3450                      ; branchcc occurs ; |473| 
    3451                      .dwpsn  "app_WIRmod_alg.c",475,3
    3452 000004a4 761F-         MOVW      DP,#_m_alg_presult
         000004a5 0000 
    3453 000004a6 8A0C-         MOVL      XAR4,@_m_alg_presult  ; |475| 
    3454 000004a7 28FC          MOV       *+XAR4[7],#2          ; |475| 
         000004a8 0002 
    3455                      .dwpsn  "app_WIRmod_alg.c",477,2
    3456 000004a9 6F07          B         L54,UNC               ; |477| 
    3457                      ; branch occurs ; |477| 
    3458              L53:    
    3459                      .dwpsn  "app_WIRmod_alg.c",478,7
TMS320C2000 COFF Assembler PC v4.1.3 Sat Oct 08 14:42:32 2011

Tools Copyright (c) 1996-2006 Texas Instruments Incorporated
C:\DOCUME~1\ADMINI~1\LOCALS~1\Temp\TI8522                            PAGE   74

    3460 000004aa 5200          CMPB      AL,#0                 ; |478| 
    3461 000004ab ED05          BF        L54,NEQ               ; |478| 
    3462                      ; branchcc occurs ; |478| 
    3463                      .dwpsn  "app_WIRmod_alg.c",480,3
    3464 000004ac 761F-         MOVW      DP,#_m_alg_presult
         000004ad 0000 
    3465 000004ae 8A0C-         MOVL      XAR4,@_m_alg_presult  ; |480| 
    3466 000004af 2BFC          MOV       *+XAR4[7],#0          ; |480| 
    3467                      .dwpsn  "app_WIRmod_alg.c",482,2
    3468              L54:    
    3469                      .dwpsn  "app_WIRmod_alg.c",483,1
    3470 000004b0 FE86          SUBB      SP,#6
    3471                      .dwcfa  0x1d, -2
    3472 000004b1 0006          LRETR
    3473                      ; return occurs
    3474                      .dwattr DW$215, DW_AT_end_file("app_WIRmod_alg.c")
    3475                      .dwattr DW$215, DW_AT_end_line(0x1e3)
    3476                      .dwattr DW$215, DW_AT_end_column(0x01)
    3477                      .dwendentry
    3478                      .dwendtag DW$215
    3479              
    3480 000004b2               .sect   ".text"
    3481                      .global _CheckLostUorI
    3482              
    3483              DW$220  .dwtag  DW_TAG_subprogram, DW_AT_name("CheckLostUorI"), DW_AT_symbol_name("_CheckLostUorI")
    3484                      .dwattr DW$220, DW_AT_low_pc(_CheckLostUorI)
    3485                      .dwattr DW$220, DW_AT_high_pc(0x00)
    3486                      .dwattr DW$220, DW_AT_begin_file("app_WIRmod_alg.c")
    3487                      .dwattr DW$220, DW_AT_begin_line(0x1e6)
    3488                      .dwattr DW$220, DW_AT_begin_column(0x07)
    3489                      .dwpsn  "app_WIRmod_alg.c",487,1
    3490              
    3491                      .dwfde DW$CIE
    3492              
    3493              ;***************************************************************
    3494              ;* FNAME: _CheckLostUorI                FR SIZE:   4           *
    3495              ;*                                                             *
    3496              ;* FUNCTION ENVIRONMENT                                        *
    3497              ;*                                                             *
    3498              ;* FUNCTION PROPERTIES                                         *
    3499              ;*                            0 Parameter,  3 Auto,  0 SOE     *
    3500              ;***************************************************************
    3501              
    3502              _CheckLostUorI:
    3503                      .dwcfa  0x1d, -2
    3504                      .dwcfa  0x1c, 26, 0
    3505                      .dwcfa  0x09, 40, 26
    3506 000004b2 FE04          ADDB      SP,#4
    3507                      .dwcfa  0x1d, -6
    3508              ;* AR4   assigned to _UIflag
    3509              DW$221  .dwtag  DW_TAG_formal_parameter, DW_AT_name("UIflag"), DW_AT_symbol_name("_UIflag")
    3510                      .dwattr DW$221, DW_AT_type(*DW$T$87)
    3511                      .dwattr DW$221, DW_AT_location[DW_OP_reg12]
    3512              DW$222  .dwtag  DW_TAG_variable, DW_AT_name("UIflag"), DW_AT_symbol_name("_UIflag")
    3513                      .dwattr DW$222, DW_AT_type(*DW$T$87)
TMS320C2000 COFF Assembler PC v4.1.3 Sat Oct 08 14:42:32 2011

Tools Copyright (c) 1996-2006 Texas Instruments Incorporated
C:\DOCUME~1\ADMINI~1\LOCALS~1\Temp\TI8522                            PAGE   75

    3514                      .dwattr DW$222, DW_AT_location[DW_OP_breg20 -2]
    3515              DW$223  .dwtag  DW_TAG_variable, DW_AT_name("ret"), DW_AT_symbol_name("_ret")
    3516                      .dwattr DW$223, DW_AT_type(*DW$T$85)
    3517                      .dwattr DW$223, DW_AT_location[DW_OP_breg20 -3]
    3518 000004b3 A842          MOVL      *-SP[2],XAR4          ; |487| 
    3519                      .dwpsn  "app_WIRmod_alg.c",488,7
    3520 000004b4 2843          MOV       *-SP[3],#1            ; |488| 
         000004b5 0001 
    3521                      .dwpsn  "app_WIRmod_alg.c",489,2
    3522 000004b6 8A42          MOVL      XAR4,*-SP[2]          ; |489| 
    3523 000004b7 CCC4          AND       AL,*+XAR4[0],#0x2000  ; |489| 
         000004b8 2000 
    3524 000004b9 FFCC          LSR       AL,13                 ; |489| 
    3525 000004ba ED76          BF        L61,NEQ               ; |489| 
    3526                      ; branchcc occurs ; |489| 
    3527                      .dwpsn  "app_WIRmod_alg.c",491,3
    3528 000004bb 8A42          MOVL      XAR4,*-SP[2]          ; |491| 
    3529 000004bc CCC4          AND       AL,*+XAR4[0],#0x0100  ; |491| 
         000004bd 0100 
    3530 000004be FFC7          LSR       AL,8                  ; |491| 
    3531 000004bf ED22          BF        L55,NEQ               ; |491| 
    3532                      ; branchcc occurs ; |491| 
    3533 000004c0 8A42          MOVL      XAR4,*-SP[2]          ; |491| 
    3534 000004c1 CCC4          AND       AL,*+XAR4[0],#0x0400  ; |491| 
         000004c2 0400 
    3535 000004c3 FFC9          LSR       AL,10                 ; |491| 
    3536 000004c4 ED1D          BF        L55,NEQ               ; |491| 
    3537                      ; branchcc occurs ; |491| 
    3538 000004c5 8A42          MOVL      XAR4,*-SP[2]          ; |491| 
    3539 000004c6 CCC4          AND       AL,*+XAR4[0],#0x1000  ; |491| 
         000004c7 1000 
    3540 000004c8 FFCB          LSR       AL,12                 ; |491| 
    3541 000004c9 ED18          BF        L55,NEQ               ; |491| 
    3542                      ; branchcc occurs ; |491| 
    3543 000004ca 8A42          MOVL      XAR4,*-SP[2]          ; |491| 
    3544 000004cb CCC4          AND       AL,*+XAR4[0],#0x0080  ; |491| 
         000004cc 0080 
    3545 000004cd FFC6          LSR       AL,7                  ; |491| 
    3546 000004ce ED13          BF        L55,NEQ               ; |491| 
    3547                      ; branchcc occurs ; |491| 
    3548 000004cf 8A42          MOVL      XAR4,*-SP[2]          ; |491| 
    3549 000004d0 CCC4          AND       AL,*+XAR4[0],#0x0200  ; |491| 
         000004d1 0200 
    3550 000004d2 FFC8          LSR       AL,9                  ; |491| 
    3551 000004d3 ED0E          BF        L55,NEQ               ; |491| 
    3552                      ; branchcc occurs ; |491| 
    3553 000004d4 8A42          MOVL      XAR4,*-SP[2]          ; |491| 
    3554 000004d5 CCC4          AND       AL,*+XAR4[0],#0x0800  ; |491| 
         000004d6 0800 
    3555 000004d7 FFCA          LSR       AL,11                 ; |491| 
    3556 000004d8 ED09          BF        L55,NEQ               ; |491| 
    3557                      ; branchcc occurs ; |491| 
    3558                      .dwpsn  "app_WIRmod_alg.c",498,4
    3559 000004d9 761F-         MOVW      DP,#_m_alg_presult
         000004da 0000 
TMS320C2000 COFF Assembler PC v4.1.3 Sat Oct 08 14:42:32 2011

Tools Copyright (c) 1996-2006 Texas Instruments Incorporated
C:\DOCUME~1\ADMINI~1\LOCALS~1\Temp\TI8522                            PAGE   76

    3560 000004db 8A0C-         MOVL      XAR4,@_m_alg_presult  ; |498| 
    3561 000004dc 28C4          MOV       *+XAR4[0],#1          ; |498| 
         000004dd 0001 
    3562                      .dwpsn  "app_WIRmod_alg.c",499,4
    3563 000004de 2B43          MOV       *-SP[3],#0            ; |499| 
    3564                      .dwpsn  "app_WIRmod_alg.c",500,3
    3565 000004df FFEF          B         L66,UNC               ; |500| 
         000004e0 00A6 
    3566                      ; branch occurs ; |500| 
    3567              L55:    
    3568                      .dwpsn  "app_WIRmod_alg.c",503,4
    3569 000004e1 8A42          MOVL      XAR4,*-SP[2]          ; |503| 
    3570 000004e2 CCC4          AND       AL,*+XAR4[0],#0x0100  ; |503| 
         000004e3 0100 
    3571 000004e4 FFC7          LSR       AL,8                  ; |503| 
    3572 000004e5 ED09          BF        L56,NEQ               ; |503| 
    3573                      ; branchcc occurs ; |503| 
    3574                      .dwpsn  "app_WIRmod_alg.c",505,5
    3575 000004e6 761F-         MOVW      DP,#_m_alg_presult
         000004e7 0000 
    3576 000004e8 8A0C-         MOVL      XAR4,@_m_alg_presult  ; |505| 
    3577 000004e9 9A01          MOVB      AL,#1                 ; |505| 
    3578 000004ea 96C4          MOV       *+XAR4[0],AL          ; |505| 
    3579                      .dwpsn  "app_WIRmod_alg.c",506,5
    3580 000004eb 8A0C-         MOVL      XAR4,@_m_alg_presult  ; |506| 
    3581 000004ec 96CC          MOV       *+XAR4[1],AL          ; |506| 
    3582                      .dwpsn  "app_WIRmod_alg.c",507,5
    3583 000004ed 2B43          MOV       *-SP[3],#0            ; |507| 
    3584              L56:    
    3585                      .dwpsn  "app_WIRmod_alg.c",509,4
    3586 000004ee 8A42          MOVL      XAR4,*-SP[2]          ; |509| 
    3587 000004ef CCC4          AND       AL,*+XAR4[0],#0x0400  ; |509| 
         000004f0 0400 
    3588 000004f1 FFC9          LSR       AL,10                 ; |509| 
    3589 000004f2 ED09          BF        L57,NEQ               ; |509| 
    3590                      ; branchcc occurs ; |509| 
    3591                      .dwpsn  "app_WIRmod_alg.c",511,5
    3592 000004f3 761F-         MOVW      DP,#_m_alg_presult
         000004f4 0000 
    3593 000004f5 8A0C-         MOVL      XAR4,@_m_alg_presult  ; |511| 
    3594 000004f6 9A01          MOVB      AL,#1                 ; |511| 
    3595 000004f7 96C4          MOV       *+XAR4[0],AL          ; |511| 
    3596                      .dwpsn  "app_WIRmod_alg.c",512,5
    3597 000004f8 8A0C-         MOVL      XAR4,@_m_alg_presult  ; |512| 
    3598 000004f9 96D4          MOV       *+XAR4[2],AL          ; |512| 
    3599                      .dwpsn  "app_WIRmod_alg.c",513,5
    3600 000004fa 2B43          MOV       *-SP[3],#0            ; |513| 
    3601              L57:    
    3602                      .dwpsn  "app_WIRmod_alg.c",515,4
    3603 000004fb 8A42          MOVL      XAR4,*-SP[2]          ; |515| 
    3604 000004fc CCC4          AND       AL,*+XAR4[0],#0x1000  ; |515| 
         000004fd 1000 
    3605 000004fe FFCB          LSR       AL,12                 ; |515| 
    3606 000004ff ED09          BF        L58,NEQ               ; |515| 
    3607                      ; branchcc occurs ; |515| 
TMS320C2000 COFF Assembler PC v4.1.3 Sat Oct 08 14:42:32 2011

Tools Copyright (c) 1996-2006 Texas Instruments Incorporated
C:\DOCUME~1\ADMINI~1\LOCALS~1\Temp\TI8522                            PAGE   77

    3608                      .dwpsn  "app_WIRmod_alg.c",517,5
    3609 00000500 761F-         MOVW      DP,#_m_alg_presult
         00000501 0000 
    3610 00000502 8A0C-         MOVL      XAR4,@_m_alg_presult  ; |517| 
    3611 00000503 9A01          MOVB      AL,#1                 ; |517| 
    3612 00000504 96C4          MOV       *+XAR4[0],AL          ; |517| 
    3613                      .dwpsn  "app_WIRmod_alg.c",518,5
    3614 00000505 8A0C-         MOVL      XAR4,@_m_alg_presult  ; |518| 
    3615 00000506 96DC          MOV       *+XAR4[3],AL          ; |518| 
    3616                      .dwpsn  "app_WIRmod_alg.c",519,5
    3617 00000507 2B43          MOV       *-SP[3],#0            ; |519| 
    3618              L58:    
    3619                      .dwpsn  "app_WIRmod_alg.c",521,4
    3620 00000508 8A42          MOVL      XAR4,*-SP[2]          ; |521| 
    3621 00000509 CCC4          AND       AL,*+XAR4[0],#0x0080  ; |521| 
         0000050a 0080 
    3622 0000050b FFC6          LSR       AL,7                  ; |521| 
    3623 0000050c ED09          BF        L59,NEQ               ; |521| 
    3624                      ; branchcc occurs ; |521| 
    3625                      .dwpsn  "app_WIRmod_alg.c",523,5
    3626 0000050d 761F-         MOVW      DP,#_m_alg_presult
         0000050e 0000 
    3627 0000050f 8A0C-         MOVL      XAR4,@_m_alg_presult  ; |523| 
    3628 00000510 9A01          MOVB      AL,#1                 ; |523| 
    3629 00000511 96C4          MOV       *+XAR4[0],AL          ; |523| 
    3630                      .dwpsn  "app_WIRmod_alg.c",524,5
    3631 00000512 8A0C-         MOVL      XAR4,@_m_alg_presult  ; |524| 
    3632 00000513 96E4          MOV       *+XAR4[4],AL          ; |524| 
    3633                      .dwpsn  "app_WIRmod_alg.c",525,5
    3634 00000514 2B43          MOV       *-SP[3],#0            ; |525| 
    3635              L59:    
    3636                      .dwpsn  "app_WIRmod_alg.c",527,4
    3637 00000515 8A42          MOVL      XAR4,*-SP[2]          ; |527| 
    3638 00000516 CCC4          AND       AL,*+XAR4[0],#0x0200  ; |527| 
         00000517 0200 
    3639 00000518 FFC8          LSR       AL,9                  ; |527| 
    3640 00000519 ED09          BF        L60,NEQ               ; |527| 
    3641                      ; branchcc occurs ; |527| 
    3642                      .dwpsn  "app_WIRmod_alg.c",529,5
    3643 0000051a 761F-         MOVW      DP,#_m_alg_presult
         0000051b 0000 
    3644 0000051c 8A0C-         MOVL      XAR4,@_m_alg_presult  ; |529| 
    3645 0000051d 9A01          MOVB      AL,#1                 ; |529| 
    3646 0000051e 96C4          MOV       *+XAR4[0],AL          ; |529| 
    3647                      .dwpsn  "app_WIRmod_alg.c",530,5
    3648 0000051f 8A0C-         MOVL      XAR4,@_m_alg_presult  ; |530| 
    3649 00000520 96EC          MOV       *+XAR4[5],AL          ; |530| 
    3650                      .dwpsn  "app_WIRmod_alg.c",531,5
    3651 00000521 2B43          MOV       *-SP[3],#0            ; |531| 
    3652              L60:    
    3653                      .dwpsn  "app_WIRmod_alg.c",533,4
    3654 00000522 8A42          MOVL      XAR4,*-SP[2]          ; |533| 
    3655 00000523 CCC4          AND       AL,*+XAR4[0],#0x0800  ; |533| 
         00000524 0800 
    3656 00000525 FFCA          LSR       AL,11                 ; |533| 
TMS320C2000 COFF Assembler PC v4.1.3 Sat Oct 08 14:42:32 2011

Tools Copyright (c) 1996-2006 Texas Instruments Incorporated
C:\DOCUME~1\ADMINI~1\LOCALS~1\Temp\TI8522                            PAGE   78

    3657 00000526 ED5F          BF        L66,NEQ               ; |533| 
    3658                      ; branchcc occurs ; |533| 
    3659                      .dwpsn  "app_WIRmod_alg.c",535,5
    3660 00000527 761F-         MOVW      DP,#_m_alg_presult
         00000528 0000 
    3661 00000529 8A0C-         MOVL      XAR4,@_m_alg_presult  ; |535| 
    3662 0000052a 9A01          MOVB      AL,#1                 ; |535| 
    3663 0000052b 96C4          MOV       *+XAR4[0],AL          ; |535| 
    3664                      .dwpsn  "app_WIRmod_alg.c",536,5
    3665 0000052c 8A0C-         MOVL      XAR4,@_m_alg_presult  ; |536| 
    3666 0000052d 96F4          MOV       *+XAR4[6],AL          ; |536| 
    3667                      .dwpsn  "app_WIRmod_alg.c",537,5
    3668 0000052e 2B43          MOV       *-SP[3],#0            ; |537| 
    3669                      .dwpsn  "app_WIRmod_alg.c",540,2
    3670 0000052f 6F56          B         L66,UNC               ; |540| 
    3671                      ; branch occurs ; |540| 
    3672              L61:    
    3673                      .dwpsn  "app_WIRmod_alg.c",541,7
    3674 00000530 8A42          MOVL      XAR4,*-SP[2]          ; |541| 
    3675 00000531 CCC4          AND       AL,*+XAR4[0],#0x2000  ; |541| 
         00000532 2000 
    3676 00000533 FFCC          LSR       AL,13                 ; |541| 
    3677 00000534 5201          CMPB      AL,#1                 ; |541| 
    3678 00000535 ED50          BF        L66,NEQ               ; |541| 
    3679                      ; branchcc occurs ; |541| 
    3680                      .dwpsn  "app_WIRmod_alg.c",543,3
    3681 00000536 8A42          MOVL      XAR4,*-SP[2]          ; |543| 
    3682 00000537 CCC4          AND       AL,*+XAR4[0],#0x0100  ; |543| 
         00000538 0100 
    3683 00000539 FFC7          LSR       AL,8                  ; |543| 
    3684 0000053a ED17          BF        L62,NEQ               ; |543| 
    3685                      ; branchcc occurs ; |543| 
    3686 0000053b 8A42          MOVL      XAR4,*-SP[2]          ; |543| 
    3687 0000053c CCC4          AND       AL,*+XAR4[0],#0x1000  ; |543| 
         0000053d 1000 
    3688 0000053e FFCB          LSR       AL,12                 ; |543| 
    3689 0000053f ED12          BF        L62,NEQ               ; |543| 
    3690                      ; branchcc occurs ; |543| 
    3691 00000540 8A42          MOVL      XAR4,*-SP[2]          ; |543| 
    3692 00000541 CCC4          AND       AL,*+XAR4[0],#0x0080  ; |543| 
         00000542 0080 
    3693 00000543 FFC6          LSR       AL,7                  ; |543| 
    3694 00000544 ED0D          BF        L62,NEQ               ; |543| 
    3695                      ; branchcc occurs ; |543| 
    3696 00000545 8A42          MOVL      XAR4,*-SP[2]          ; |543| 
    3697 00000546 CCC4          AND       AL,*+XAR4[0],#0x0800  ; |543| 
         00000547 0800 
    3698 00000548 FFCA          LSR       AL,11                 ; |543| 
    3699 00000549 ED08          BF        L62,NEQ               ; |543| 
    3700                      ; branchcc occurs ; |543| 
    3701                      .dwpsn  "app_WIRmod_alg.c",545,4
    3702 0000054a 761F-         MOVW      DP,#_m_alg_presult
         0000054b 0000 
    3703 0000054c 8A0C-         MOVL      XAR4,@_m_alg_presult  ; |545| 
    3704 0000054d 28C4          MOV       *+XAR4[0],#1          ; |545| 
TMS320C2000 COFF Assembler PC v4.1.3 Sat Oct 08 14:42:32 2011

Tools Copyright (c) 1996-2006 Texas Instruments Incorporated
C:\DOCUME~1\ADMINI~1\LOCALS~1\Temp\TI8522                            PAGE   79

         0000054e 0001 
    3705                      .dwpsn  "app_WIRmod_alg.c",546,4
    3706 0000054f 2B43          MOV       *-SP[3],#0            ; |546| 
    3707                      .dwpsn  "app_WIRmod_alg.c",547,3
    3708 00000550 6F35          B         L66,UNC               ; |547| 
    3709                      ; branch occurs ; |547| 
    3710              L62:    
    3711                      .dwpsn  "app_WIRmod_alg.c",550,4
    3712 00000551 8A42          MOVL      XAR4,*-SP[2]          ; |550| 
    3713 00000552 CCC4          AND       AL,*+XAR4[0],#0x0100  ; |550| 
         00000553 0100 
    3714 00000554 FFC7          LSR       AL,8                  ; |550| 
    3715 00000555 ED09          BF        L63,NEQ               ; |550| 
    3716                      ; branchcc occurs ; |550| 
    3717                      .dwpsn  "app_WIRmod_alg.c",552,5
    3718 00000556 761F-         MOVW      DP,#_m_alg_presult
         00000557 0000 
    3719 00000558 8A0C-         MOVL      XAR4,@_m_alg_presult  ; |552| 
    3720 00000559 9A01          MOVB      AL,#1                 ; |552| 
    3721 0000055a 96C4          MOV       *+XAR4[0],AL          ; |552| 
    3722                      .dwpsn  "app_WIRmod_alg.c",553,5
    3723 0000055b 8A0C-         MOVL      XAR4,@_m_alg_presult  ; |553| 
    3724 0000055c 96CC          MOV       *+XAR4[1],AL          ; |553| 
    3725                      .dwpsn  "app_WIRmod_alg.c",554,5
    3726 0000055d 2B43          MOV       *-SP[3],#0            ; |554| 
    3727              L63:    
    3728                      .dwpsn  "app_WIRmod_alg.c",556,4
    3729 0000055e 8A42          MOVL      XAR4,*-SP[2]          ; |556| 
    3730 0000055f CCC4          AND       AL,*+XAR4[0],#0x1000  ; |556| 
         00000560 1000 
    3731 00000561 FFCB          LSR       AL,12                 ; |556| 
    3732 00000562 ED09          BF        L64,NEQ               ; |556| 
    3733                      ; branchcc occurs ; |556| 
    3734                      .dwpsn  "app_WIRmod_alg.c",558,5
    3735 00000563 761F-         MOVW      DP,#_m_alg_presult
         00000564 0000 
    3736 00000565 8A0C-         MOVL      XAR4,@_m_alg_presult  ; |558| 
    3737 00000566 9A01          MOVB      AL,#1                 ; |558| 
    3738 00000567 96C4          MOV       *+XAR4[0],AL          ; |558| 
    3739                      .dwpsn  "app_WIRmod_alg.c",559,5
    3740 00000568 8A0C-         MOVL      XAR4,@_m_alg_presult  ; |559| 
    3741 00000569 96DC          MOV       *+XAR4[3],AL          ; |559| 
    3742                      .dwpsn  "app_WIRmod_alg.c",560,5
    3743 0000056a 2B43          MOV       *-SP[3],#0            ; |560| 
    3744              L64:    
    3745                      .dwpsn  "app_WIRmod_alg.c",562,4
    3746 0000056b 8A42          MOVL      XAR4,*-SP[2]          ; |562| 
    3747 0000056c CCC4          AND       AL,*+XAR4[0],#0x0080  ; |562| 
         0000056d 0080 
    3748 0000056e FFC6          LSR       AL,7                  ; |562| 
    3749 0000056f ED09          BF        L65,NEQ               ; |562| 
    3750                      ; branchcc occurs ; |562| 
    3751                      .dwpsn  "app_WIRmod_alg.c",564,5
    3752 00000570 761F-         MOVW      DP,#_m_alg_presult
         00000571 0000 
TMS320C2000 COFF Assembler PC v4.1.3 Sat Oct 08 14:42:32 2011

Tools Copyright (c) 1996-2006 Texas Instruments Incorporated
C:\DOCUME~1\ADMINI~1\LOCALS~1\Temp\TI8522                            PAGE   80

    3753 00000572 8A0C-         MOVL      XAR4,@_m_alg_presult  ; |564| 
    3754 00000573 9A01          MOVB      AL,#1                 ; |564| 
    3755 00000574 96C4          MOV       *+XAR4[0],AL          ; |564| 
    3756                      .dwpsn  "app_WIRmod_alg.c",565,5
    3757 00000575 8A0C-         MOVL      XAR4,@_m_alg_presult  ; |565| 
    3758 00000576 96E4          MOV       *+XAR4[4],AL          ; |565| 
    3759                      .dwpsn  "app_WIRmod_alg.c",566,5
    3760 00000577 2B43          MOV       *-SP[3],#0            ; |566| 
    3761              L65:    
    3762                      .dwpsn  "app_WIRmod_alg.c",568,4
    3763 00000578 8A42          MOVL      XAR4,*-SP[2]          ; |568| 
    3764 00000579 CCC4          AND       AL,*+XAR4[0],#0x0800  ; |568| 
         0000057a 0800 
    3765 0000057b FFCA          LSR       AL,11                 ; |568| 
    3766 0000057c ED09          BF        L66,NEQ               ; |568| 
    3767                      ; branchcc occurs ; |568| 
    3768                      .dwpsn  "app_WIRmod_alg.c",570,5
    3769 0000057d 761F-         MOVW      DP,#_m_alg_presult
         0000057e 0000 
    3770 0000057f 8A0C-         MOVL      XAR4,@_m_alg_presult  ; |570| 
    3771 00000580 9A01          MOVB      AL,#1                 ; |570| 
    3772 00000581 96C4          MOV       *+XAR4[0],AL          ; |570| 
    3773                      .dwpsn  "app_WIRmod_alg.c",571,5
    3774 00000582 8A0C-         MOVL      XAR4,@_m_alg_presult  ; |571| 
    3775 00000583 96F4          MOV       *+XAR4[6],AL          ; |571| 
    3776                      .dwpsn  "app_WIRmod_alg.c",572,5
    3777 00000584 2B43          MOV       *-SP[3],#0            ; |572| 
    3778              L66:    
    3779                      .dwpsn  "app_WIRmod_alg.c",576,2
    3780 00000585 9243          MOV       AL,*-SP[3]            ; |576| 
    3781                      .dwpsn  "app_WIRmod_alg.c",577,1
    3782 00000586 FE84          SUBB      SP,#4                 ; |576| 
    3783                      .dwcfa  0x1d, -2
    3784 00000587 0006          LRETR
    3785                      ; return occurs
    3786                      .dwattr DW$220, DW_AT_end_file("app_WIRmod_alg.c")
    3787                      .dwattr DW$220, DW_AT_end_line(0x241)
    3788                      .dwattr DW$220, DW_AT_end_column(0x01)
    3789                      .dwendentry
    3790                      .dwendtag DW$220
    3791              
    3792 00000588               .sect   ".text"
    3793                      .global _Angle0_360To180
    3794              
    3795              DW$224  .dwtag  DW_TAG_subprogram, DW_AT_name("Angle0_360To180"), DW_AT_symbol_name("_Angle0_360To180")
    3796                      .dwattr DW$224, DW_AT_low_pc(_Angle0_360To180)
    3797                      .dwattr DW$224, DW_AT_high_pc(0x00)
    3798                      .dwattr DW$224, DW_AT_begin_file("app_WIRmod_alg.c")
    3799                      .dwattr DW$224, DW_AT_begin_line(0x243)
    3800                      .dwattr DW$224, DW_AT_begin_column(0x06)
    3801                      .dwpsn  "app_WIRmod_alg.c",580,1
    3802              
    3803                      .dwfde DW$CIE
    3804              
    3805              ;***************************************************************
TMS320C2000 COFF Assembler PC v4.1.3 Sat Oct 08 14:42:32 2011

Tools Copyright (c) 1996-2006 Texas Instruments Incorporated
C:\DOCUME~1\ADMINI~1\LOCALS~1\Temp\TI8522                            PAGE   81

    3806              ;* FNAME: _Angle0_360To180              FR SIZE:   6           *
    3807              ;*                                                             *
    3808              ;* FUNCTION ENVIRONMENT                                        *
    3809              ;*                                                             *
    3810              ;* FUNCTION PROPERTIES                                         *
    3811              ;*                            2 Parameter,  2 Auto,  2 SOE     *
    3812              ;***************************************************************
    3813              
    3814              _Angle0_360To180:
    3815                      .dwcfa  0x1d, -2
    3816                      .dwcfa  0x1c, 26, 0
    3817                      .dwcfa  0x09, 40, 26
    3818 00000588 B2BD          MOVL      *SP++,XAR1
    3819                      .dwcfa  0x80, 7, 2
    3820                      .dwcfa  0x1d, -4
    3821 00000589 FE04          ADDB      SP,#4
    3822                      .dwcfa  0x1d, -8
    3823              ;* AR4   assigned to _fAngle
    3824              DW$225  .dwtag  DW_TAG_formal_parameter, DW_AT_name("fAngle"), DW_AT_symbol_name("_fAngle")
    3825                      .dwattr DW$225, DW_AT_type(*DW$T$62)
    3826                      .dwattr DW$225, DW_AT_location[DW_OP_reg12]
    3827              DW$226  .dwtag  DW_TAG_variable, DW_AT_name("fAngle"), DW_AT_symbol_name("_fAngle")
    3828                      .dwattr DW$226, DW_AT_type(*DW$T$62)
    3829                      .dwattr DW$226, DW_AT_location[DW_OP_breg20 -4]
    3830 0000058a A844          MOVL      *-SP[4],XAR4          ; |580| 
    3831                      .dwpsn  "app_WIRmod_alg.c",581,2
    3832 0000058b 28A8          MOV       AH,#17204
         0000058c 4334 
    3833 0000058d 9A00          MOV       AL,#0
    3834 0000058e 1E42          MOVL      *-SP[2],ACC           ; |581| 
    3835 0000058f 8A44          MOVL      XAR4,*-SP[4]          ; |581| 
    3836 00000590 06C4          MOVL      ACC,*+XAR4[0]         ; |581| 
    3837 00000591 FF90          LSL       AH,#1                 ; |581| 
    3838 00000592 FFD0          LSR       AH,#1                 ; |581| 
    3839 00000593 7640!         LCR       #FS$$CMP              ; |581| 
         00000594 0000 
    3840                      ; call occurs [#FS$$CMP] ; |581| 
    3841 00000595 5200          CMPB      AL,#0                 ; |581| 
    3842 00000596 651D          B         L68,LEQ               ; |581| 
    3843                      ; branchcc occurs ; |581| 
    3844                      .dwpsn  "app_WIRmod_alg.c",583,3
    3845 00000597 9A00          MOV       AL,#0
    3846 00000598 9B00          MOV       AH,#0
    3847 00000599 1E42          MOVL      *-SP[2],ACC           ; |583| 
    3848 0000059a 8A44          MOVL      XAR4,*-SP[4]          ; |583| 
    3849 0000059b 06C4          MOVL      ACC,*+XAR4[0]         ; |583| 
    3850 0000059c 7640!         LCR       #FS$$CMP              ; |583| 
         0000059d 0000 
    3851                      ; call occurs [#FS$$CMP] ; |583| 
    3852 0000059e 5200          CMPB      AL,#0                 ; |583| 
    3853 0000059f 650B          B         L67,LEQ               ; |583| 
    3854                      ; branchcc occurs ; |583| 
    3855                      .dwpsn  "app_WIRmod_alg.c",583,22
    3856 000005a0 8B44          MOVL      XAR1,*-SP[4]          ; |583| 
    3857 000005a1 9A00          MOV       AL,#0
TMS320C2000 COFF Assembler PC v4.1.3 Sat Oct 08 14:42:32 2011

Tools Copyright (c) 1996-2006 Texas Instruments Incorporated
C:\DOCUME~1\ADMINI~1\LOCALS~1\Temp\TI8522                            PAGE   82

    3858 000005a2 28A8          MOV       AH,#17332
         000005a3 43B4 
    3859 000005a4 1E42          MOVL      *-SP[2],ACC           ; |583| 
    3860 000005a5 06C1          MOVL      ACC,*+XAR1[0]         ; |583| 
    3861 000005a6 7640!         LCR       #FS$$SUB              ; |583| 
         000005a7 0000 
    3862                      ; call occurs [#FS$$SUB] ; |583| 
    3863 000005a8 1EC1          MOVL      *+XAR1[0],ACC         ; |583| 
    3864 000005a9 6F0A          B         L68,UNC               ; |583| 
    3865                      ; branch occurs ; |583| 
    3866              L67:    
    3867                      .dwpsn  "app_WIRmod_alg.c",584,8
    3868 000005aa 8B44          MOVL      XAR1,*-SP[4]          ; |584| 
    3869 000005ab 9A00          MOV       AL,#0
    3870 000005ac 28A8          MOV       AH,#17332
         000005ad 43B4 
    3871 000005ae 1E42          MOVL      *-SP[2],ACC           ; |584| 
    3872 000005af 06C1          MOVL      ACC,*+XAR1[0]         ; |584| 
    3873 000005b0 7640!         LCR       #FS$$ADD              ; |584| 
         000005b1 0000 
    3874                      ; call occurs [#FS$$ADD] ; |584| 
    3875 000005b2 1EC1          MOVL      *+XAR1[0],ACC         ; |584| 
    3876                      .dwpsn  "app_WIRmod_alg.c",585,2
    3877              L68:    
    3878                      .dwpsn  "app_WIRmod_alg.c",586,1
    3879 000005b3 FE84          SUBB      SP,#4
    3880                      .dwcfa  0x1d, -4
    3881 000005b4 8BBE          MOVL      XAR1,*--SP
    3882                      .dwcfa  0x1d, -2
    3883                      .dwcfa  0xc0, 7
    3884 000005b5 0006          LRETR
    3885                      ; return occurs
    3886                      .dwattr DW$224, DW_AT_end_file("app_WIRmod_alg.c")
    3887                      .dwattr DW$224, DW_AT_end_line(0x24a)
    3888                      .dwattr DW$224, DW_AT_end_column(0x01)
    3889                      .dwendentry
    3890                      .dwendtag DW$224
    3891              
    3892 000005b6               .sect   ".text"
    3893                      .global _AngleDisposal
    3894              
    3895              DW$227  .dwtag  DW_TAG_subprogram, DW_AT_name("AngleDisposal"), DW_AT_symbol_name("_AngleDisposal")
    3896                      .dwattr DW$227, DW_AT_low_pc(_AngleDisposal)
    3897                      .dwattr DW$227, DW_AT_high_pc(0x00)
    3898                      .dwattr DW$227, DW_AT_begin_file("app_WIRmod_alg.c")
    3899                      .dwattr DW$227, DW_AT_begin_line(0x24b)
    3900                      .dwattr DW$227, DW_AT_begin_column(0x06)
    3901                      .dwpsn  "app_WIRmod_alg.c",588,1
    3902              
    3903                      .dwfde DW$CIE
    3904              
    3905              ;***************************************************************
    3906              ;* FNAME: _AngleDisposal                FR SIZE:   0           *
    3907              ;*                                                             *
    3908              ;* FUNCTION ENVIRONMENT                                        *
TMS320C2000 COFF Assembler PC v4.1.3 Sat Oct 08 14:42:32 2011

Tools Copyright (c) 1996-2006 Texas Instruments Incorporated
C:\DOCUME~1\ADMINI~1\LOCALS~1\Temp\TI8522                            PAGE   83

    3909              ;*                                                             *
    3910              ;* FUNCTION PROPERTIES                                         *
    3911              ;*                            0 Parameter,  0 Auto,  0 SOE     *
    3912              ;***************************************************************
    3913              
    3914              _AngleDisposal:
    3915                      .dwcfa  0x1d, -2
    3916                      .dwcfa  0x1c, 26, 0
    3917                      .dwcfa  0x09, 40, 26
    3918                      .dwpsn  "app_WIRmod_alg.c",589,2
    3919 000005b6 8F00-         MOVL      XAR4,#_fJa            ; |589| 
         000005b7 001C 
    3920 000005b8 7640'         LCR       #_Angle0_360To180     ; |589| 
         000005b9 0588 
    3921                      ; call occurs [#_Angle0_360To180] ; |589| 
    3922                      .dwpsn  "app_WIRmod_alg.c",590,2
    3923 000005ba 8F00-         MOVL      XAR4,#_fJb            ; |590| 
         000005bb 0022 
    3924 000005bc 7640'         LCR       #_Angle0_360To180     ; |590| 
         000005bd 0588 
    3925                      ; call occurs [#_Angle0_360To180] ; |590| 
    3926                      .dwpsn  "app_WIRmod_alg.c",591,2
    3927 000005be 8F00-         MOVL      XAR4,#_fJc            ; |591| 
         000005bf 0016 
    3928 000005c0 7640'         LCR       #_Angle0_360To180     ; |591| 
         000005c1 0588 
    3929                      ; call occurs [#_Angle0_360To180] ; |591| 
    3930                      .dwpsn  "app_WIRmod_alg.c",592,2
    3931 000005c2 8F00-         MOVL      XAR4,#_fJUab          ; |592| 
         000005c3 0008 
    3932 000005c4 7640'         LCR       #_Angle0_360To180     ; |592| 
         000005c5 0588 
    3933                      ; call occurs [#_Angle0_360To180] ; |592| 
    3934                      .dwpsn  "app_WIRmod_alg.c",593,2
    3935 000005c6 8F00-         MOVL      XAR4,#_fJUac          ; |593| 
         000005c7 0004 
    3936 000005c8 7640'         LCR       #_Angle0_360To180     ; |593| 
         000005c9 0588 
    3937                      ; call occurs [#_Angle0_360To180] ; |593| 
    3938                      .dwpsn  "app_WIRmod_alg.c",594,2
    3939 000005ca 8F00-         MOVL      XAR4,#_fJIac          ; |594| 
         000005cb 0012 
    3940 000005cc 7640'         LCR       #_Angle0_360To180     ; |594| 
         000005cd 0588 
    3941                      ; call occurs [#_Angle0_360To180] ; |594| 
    3942                      .dwpsn  "app_WIRmod_alg.c",595,2
    3943 000005ce 8F00-         MOVL      XAR4,#_fJUcb          ; |595| 
         000005cf 0006 
    3944 000005d0 7640'         LCR       #_Angle0_360To180     ; |595| 
         000005d1 0588 
    3945                      ; call occurs [#_Angle0_360To180] ; |595| 
    3946                      .dwpsn  "app_WIRmod_alg.c",596,2
    3947                      .dwpsn  "app_WIRmod_alg.c",597,1
    3948 000005d2 0006          LRETR
    3949                      ; return occurs
TMS320C2000 COFF Assembler PC v4.1.3 Sat Oct 08 14:42:32 2011

Tools Copyright (c) 1996-2006 Texas Instruments Incorporated
C:\DOCUME~1\ADMINI~1\LOCALS~1\Temp\TI8522                            PAGE   84

    3950                      .dwattr DW$227, DW_AT_end_file("app_WIRmod_alg.c")
    3951                      .dwattr DW$227, DW_AT_end_line(0x255)
    3952                      .dwattr DW$227, DW_AT_end_column(0x01)
    3953                      .dwendentry
    3954                      .dwendtag DW$227
    3955              
    3956 000005d3               .sect   ".text"
    3957                      .global _app_WIRmod_DL_param_obtain
    3958              
    3959              DW$228  .dwtag  DW_TAG_subprogram, DW_AT_name("app_WIRmod_DL_param_obtain"), DW_AT_symbol_name("_app_WIRmod_D
    3960                      .dwattr DW$228, DW_AT_low_pc(_app_WIRmod_DL_param_obtain)
    3961                      .dwattr DW$228, DW_AT_high_pc(0x00)
    3962                      .dwattr DW$228, DW_AT_begin_file("app_WIRmod_alg.c")
    3963                      .dwattr DW$228, DW_AT_begin_line(0x265)
    3964                      .dwattr DW$228, DW_AT_begin_column(0x06)
    3965                      .dwpsn  "app_WIRmod_alg.c",614,1
    3966              
    3967                      .dwfde DW$CIE
    3968              
    3969              ;***************************************************************
    3970              ;* FNAME: _app_WIRmod_DL_param_obtain   FR SIZE:   0           *
    3971              ;*                                                             *
    3972              ;* FUNCTION ENVIRONMENT                                        *
    3973              ;*                                                             *
    3974              ;* FUNCTION PROPERTIES                                         *
    3975              ;*                            0 Parameter,  0 Auto,  0 SOE     *
    3976              ;***************************************************************
    3977              
    3978              _app_WIRmod_DL_param_obtain:
    3979                      .dwcfa  0x1d, -2
    3980                      .dwcfa  0x1c, 26, 0
    3981                      .dwcfa  0x09, 40, 26
    3982                      .dwpsn  "app_WIRmod_alg.c",615,2
    3983 000005d3 8F00!         MOVL      XAR4,#_g_DL_param     ; |615| 
         000005d4 0000 
    3984 000005d5 7640!         LCR       #_app_global_DLarg_obtain ; |615| 
         000005d6 0000 
    3985                      ; call occurs [#_app_global_DLarg_obtain] ; |615| 
    3986                      .dwpsn  "app_WIRmod_alg.c",616,2
    3987 000005d7 761F!         MOVW      DP,#_g_DL_param
         000005d8 0000 
    3988 000005d9 0600!         MOVL      ACC,@_g_DL_param      ; |616| 
    3989 000005da 761F-         MOVW      DP,#_fUa
         000005db 0000 
    3990 000005dc 1E1E-         MOVL      @_fUa,ACC             ; |616| 
    3991                      .dwpsn  "app_WIRmod_alg.c",617,2
    3992 000005dd 761F!         MOVW      DP,#_g_DL_param+2
         000005de 0000 
    3993 000005df 0602!         MOVL      ACC,@_g_DL_param+2    ; |617| 
    3994 000005e0 761F-         MOVW      DP,#_fIa
         000005e1 0000 
    3995 000005e2 1E20-         MOVL      @_fIa,ACC             ; |617| 
    3996                      .dwpsn  "app_WIRmod_alg.c",618,2
    3997 000005e3 761F!         MOVW      DP,#_g_DL_param+4
         000005e4 0000 
TMS320C2000 COFF Assembler PC v4.1.3 Sat Oct 08 14:42:32 2011

Tools Copyright (c) 1996-2006 Texas Instruments Incorporated
C:\DOCUME~1\ADMINI~1\LOCALS~1\Temp\TI8522                            PAGE   85

    3998 000005e5 0604!         MOVL      ACC,@_g_DL_param+4    ; |618| 
    3999 000005e6 761F-         MOVW      DP,#_fJa
         000005e7 0000 
    4000 000005e8 1E1C-         MOVL      @_fJa,ACC             ; |618| 
    4001                      .dwpsn  "app_WIRmod_alg.c",619,2
    4002 000005e9 761F!         MOVW      DP,#_g_DL_param+10
         000005ea 0000 
    4003 000005eb 060A!         MOVL      ACC,@_g_DL_param+10   ; |619| 
    4004 000005ec 761F-         MOVW      DP,#_fUb
         000005ed 0000 
    4005 000005ee 1E1A-         MOVL      @_fUb,ACC             ; |619| 
    4006                      .dwpsn  "app_WIRmod_alg.c",620,2
    4007 000005ef 761F!         MOVW      DP,#_g_DL_param+12
         000005f0 0000 
    4008 000005f1 060C!         MOVL      ACC,@_g_DL_param+12   ; |620| 
    4009 000005f2 761F-         MOVW      DP,#_fIb
         000005f3 0000 
    4010 000005f4 1E18-         MOVL      @_fIb,ACC             ; |620| 
    4011                      .dwpsn  "app_WIRmod_alg.c",621,2
    4012 000005f5 761F!         MOVW      DP,#_g_DL_param+14
         000005f6 0000 
    4013 000005f7 060E!         MOVL      ACC,@_g_DL_param+14   ; |621| 
    4014 000005f8 761F-         MOVW      DP,#_fJb
         000005f9 0000 
    4015 000005fa 1E22-         MOVL      @_fJb,ACC             ; |621| 
    4016                      .dwpsn  "app_WIRmod_alg.c",622,2
    4017 000005fb 761F!         MOVW      DP,#_g_DL_param+20
         000005fc 0000 
    4018 000005fd 0614!         MOVL      ACC,@_g_DL_param+20   ; |622| 
    4019 000005fe 761F-         MOVW      DP,#_fUc
         000005ff 0000 
    4020 00000600 1E02-         MOVL      @_fUc,ACC             ; |622| 
    4021                      .dwpsn  "app_WIRmod_alg.c",623,2
    4022 00000601 761F!         MOVW      DP,#_g_DL_param+22
         00000602 0000 
    4023 00000603 0616!         MOVL      ACC,@_g_DL_param+22   ; |623| 
    4024 00000604 761F-         MOVW      DP,#_fIc
         00000605 0000 
    4025 00000606 1E0A-         MOVL      @_fIc,ACC             ; |623| 
    4026                      .dwpsn  "app_WIRmod_alg.c",624,2
    4027 00000607 761F!         MOVW      DP,#_g_DL_param+24
         00000608 0000 
    4028 00000609 0618!         MOVL      ACC,@_g_DL_param+24   ; |624| 
    4029 0000060a 761F-         MOVW      DP,#_fJc
         0000060b 0000 
    4030 0000060c 1E16-         MOVL      @_fJc,ACC             ; |624| 
    4031                      .dwpsn  "app_WIRmod_alg.c",625,2
    4032 0000060d 761F!         MOVW      DP,#_g_DL_param+46
         0000060e 0000 
    4033 0000060f 062E!         MOVL      ACC,@_g_DL_param+46   ; |625| 
    4034 00000610 761F-         MOVW      DP,#_fJUab
         00000611 0000 
    4035 00000612 1E08-         MOVL      @_fJUab,ACC           ; |625| 
    4036                      .dwpsn  "app_WIRmod_alg.c",626,2
    4037 00000613 761F!         MOVW      DP,#_g_DL_param+44
TMS320C2000 COFF Assembler PC v4.1.3 Sat Oct 08 14:42:32 2011

Tools Copyright (c) 1996-2006 Texas Instruments Incorporated
C:\DOCUME~1\ADMINI~1\LOCALS~1\Temp\TI8522                            PAGE   86

         00000614 0000 
    4038 00000615 062C!         MOVL      ACC,@_g_DL_param+44   ; |626| 
    4039 00000616 761F-         MOVW      DP,#_fJUcb
         00000617 0000 
    4040 00000618 1E06-         MOVL      @_fJUcb,ACC           ; |626| 
    4041                      .dwpsn  "app_WIRmod_alg.c",627,2
    4042 00000619 761F!         MOVW      DP,#_g_DL_param+42
         0000061a 0000 
    4043 0000061b 062A!         MOVL      ACC,@_g_DL_param+42   ; |627| 
    4044 0000061c 761F-         MOVW      DP,#_fJUac
         0000061d 0000 
    4045 0000061e 1E04-         MOVL      @_fJUac,ACC           ; |627| 
    4046                      .dwpsn  "app_WIRmod_alg.c",628,2
    4047 0000061f 761F!         MOVW      DP,#_g_DL_param+36
         00000620 0000 
    4048 00000621 0624!         MOVL      ACC,@_g_DL_param+36   ; |628| 
    4049 00000622 761F-         MOVW      DP,#_fJIac
         00000623 0000 
    4050 00000624 1E12-         MOVL      @_fJIac,ACC           ; |628| 
    4051                      .dwpsn  "app_WIRmod_alg.c",629,2
    4052 00000625 761F!         MOVW      DP,#_g_DL_param+40
         00000626 0000 
    4053 00000627 0628!         MOVL      ACC,@_g_DL_param+40   ; |629| 
    4054 00000628 761F-         MOVW      DP,#_fJIab
         00000629 0000 
    4055 0000062a 1E14-         MOVL      @_fJIab,ACC           ; |629| 
    4056                      .dwpsn  "app_WIRmod_alg.c",630,2
    4057 0000062b 761F!         MOVW      DP,#_g_DL_param+38
         0000062c 0000 
    4058 0000062d 0626!         MOVL      ACC,@_g_DL_param+38   ; |630| 
    4059 0000062e 761F-         MOVW      DP,#_fJIbc
         0000062f 0000 
    4060 00000630 1E10-         MOVL      @_fJIbc,ACC           ; |630| 
    4061                      .dwpsn  "app_WIRmod_alg.c",631,2
    4062                      .dwpsn  "app_WIRmod_alg.c",632,1
    4063 00000631 0006          LRETR
    4064                      ; return occurs
    4065                      .dwattr DW$228, DW_AT_end_file("app_WIRmod_alg.c")
    4066                      .dwattr DW$228, DW_AT_end_line(0x278)
    4067                      .dwattr DW$228, DW_AT_end_column(0x01)
    4068                      .dwendentry
    4069                      .dwendtag DW$228
    4070              
    4071 00000632               .sect   ".text"
    4072                      .global _app_WIRmod_check_err_task
    4073              
    4074              DW$229  .dwtag  DW_TAG_subprogram, DW_AT_name("app_WIRmod_check_err_task"), DW_AT_symbol_name("_app_WIRmod_ch
    4075                      .dwattr DW$229, DW_AT_low_pc(_app_WIRmod_check_err_task)
    4076                      .dwattr DW$229, DW_AT_high_pc(0x00)
    4077                      .dwattr DW$229, DW_AT_begin_file("app_WIRmod_alg.c")
    4078                      .dwattr DW$229, DW_AT_begin_line(0x281)
    4079                      .dwattr DW$229, DW_AT_begin_column(0x07)
    4080                      .dwpsn  "app_WIRmod_alg.c",642,1
    4081              
    4082                      .dwfde DW$CIE
TMS320C2000 COFF Assembler PC v4.1.3 Sat Oct 08 14:42:32 2011

Tools Copyright (c) 1996-2006 Texas Instruments Incorporated
C:\DOCUME~1\ADMINI~1\LOCALS~1\Temp\TI8522                            PAGE   87

    4083              
    4084              ;***************************************************************
    4085              ;* FNAME: _app_WIRmod_check_err_task    FR SIZE:  38           *
    4086              ;*                                                             *
    4087              ;* FUNCTION ENVIRONMENT                                        *
    4088              ;*                                                             *
    4089              ;* FUNCTION PROPERTIES                                         *
    4090              ;*                            2 Parameter, 30 Auto,  6 SOE     *
    4091              ;***************************************************************
    4092              
    4093              _app_WIRmod_check_err_task:
    4094                      .dwcfa  0x1d, -2
    4095                      .dwcfa  0x1c, 26, 0
    4096                      .dwcfa  0x09, 40, 26
    4097 00000632 B2BD          MOVL      *SP++,XAR1
    4098                      .dwcfa  0x80, 7, 2
    4099                      .dwcfa  0x1d, -4
    4100 00000633 AABD          MOVL      *SP++,XAR2
    4101                      .dwcfa  0x80, 9, 4
    4102                      .dwcfa  0x1d, -6
    4103 00000634 A2BD          MOVL      *SP++,XAR3
    4104                      .dwcfa  0x80, 11, 6
    4105                      .dwcfa  0x1d, -8
    4106 00000635 FE20          ADDB      SP,#32
    4107                      .dwcfa  0x1d, -40
    4108              ;* AR4   assigned to _arg
    4109              DW$230  .dwtag  DW_TAG_formal_parameter, DW_AT_name("arg"), DW_AT_symbol_name("_arg")
    4110                      .dwattr DW$230, DW_AT_type(*DW$T$3)
    4111                      .dwattr DW$230, DW_AT_location[DW_OP_reg12]
    4112              DW$231  .dwtag  DW_TAG_variable, DW_AT_name("arg"), DW_AT_symbol_name("_arg")
    4113                      .dwattr DW$231, DW_AT_type(*DW$T$3)
    4114                      .dwattr DW$231, DW_AT_location[DW_OP_breg20 -4]
    4115              DW$232  .dwtag  DW_TAG_variable, DW_AT_name("xianxu"), DW_AT_symbol_name("_xianxu")
    4116                      .dwattr DW$232, DW_AT_type(*DW$T$6)
    4117                      .dwattr DW$232, DW_AT_location[DW_OP_breg20 -5]
    4118              DW$233  .dwtag  DW_TAG_variable, DW_AT_name("i"), DW_AT_symbol_name("_i")
    4119                      .dwattr DW$233, DW_AT_type(*DW$T$6)
    4120                      .dwattr DW$233, DW_AT_location[DW_OP_breg20 -6]
    4121              DW$234  .dwtag  DW_TAG_variable, DW_AT_name("j"), DW_AT_symbol_name("_j")
    4122                      .dwattr DW$234, DW_AT_type(*DW$T$6)
    4123                      .dwattr DW$234, DW_AT_location[DW_OP_breg20 -7]
    4124              DW$235  .dwtag  DW_TAG_variable, DW_AT_name("string"), DW_AT_symbol_name("_string")
    4125                      .dwattr DW$235, DW_AT_type(*DW$T$35)
    4126                      .dwattr DW$235, DW_AT_location[DW_OP_breg20 -27]
    4127              DW$236  .dwtag  DW_TAG_variable, DW_AT_name("UIflag"), DW_AT_symbol_name("_UIflag")
    4128                      .dwattr DW$236, DW_AT_type(*DW$T$86)
    4129                      .dwattr DW$236, DW_AT_location[DW_OP_breg20 -30]
    4130              DW$237  .dwtag  DW_TAG_variable, DW_AT_name("reflag"), DW_AT_symbol_name("_reflag")
    4131                      .dwattr DW$237, DW_AT_type(*DW$T$125)
    4132                      .dwattr DW$237, DW_AT_location[DW_OP_breg20 -31]
    4133              DW$238  .dwtag  DW_TAG_variable, DW_AT_name("cnt"), DW_AT_symbol_name("_cnt")
    4134                      .dwattr DW$238, DW_AT_type(*DW$T$40)
    4135                      .dwattr DW$238, DW_AT_location[DW_OP_breg20 -32]
    4136 00000636 A844          MOVL      *-SP[4],XAR4          ; |642| 
    4137                      .dwpsn  "app_WIRmod_alg.c",647,10
TMS320C2000 COFF Assembler PC v4.1.3 Sat Oct 08 14:42:32 2011

Tools Copyright (c) 1996-2006 Texas Instruments Incorporated
C:\DOCUME~1\ADMINI~1\LOCALS~1\Temp\TI8522                            PAGE   88

    4138 00000637 2B60          MOV       *-SP[32],#0           ; |647| 
    4139                      .dwpsn  "app_WIRmod_alg.c",648,10
    4140              L69:    
    4141              DW$L$_app_WIRmod_check_err_task$2$B:
    4142                      .dwpsn  "app_WIRmod_alg.c",650,3
    4143 00000638 9A0A          MOVB      AL,#10                ; |650| 
    4144 00000639 7640!         LCR       #_OSTimeDly           ; |650| 
         0000063a 0000 
    4145                      ; call occurs [#_OSTimeDly] ; |650| 
    4146                      .dwpsn  "app_WIRmod_alg.c",651,3
    4147 0000063b 5DAD          MOVZ      AR5,SP                ; |651| 
    4148 0000063c 5CAD          MOVZ      AR4,SP                ; |651| 
    4149 0000063d DD9E          SUBB      XAR5,#30              ; |651| 
    4150 0000063e DC9F          SUBB      XAR4,#31              ; |651| 
    4151 0000063f 7640!         LCR       #_app_global_DLflag_obtain ; |651| 
         00000640 0000 
    4152                      ; call occurs [#_app_global_DLflag_obtain] ; |651| 
    4153                      .dwpsn  "app_WIRmod_alg.c",652,3
    4154 00000641 925F          MOV       AL,*-SP[31]           ; |652| 
    4155 00000642 9001          ANDB      AL,#0x01              ; |652| 
    4156 00000643 5201          CMPB      AL,#1                 ; |652| 
    4157 00000644 EDF4          BF        L69,NEQ               ; |652| 
    4158                      ; branchcc occurs ; |652| 
    4159              DW$L$_app_WIRmod_check_err_task$2$E:
    4160              DW$L$_app_WIRmod_check_err_task$3$B:
    4161                      .dwpsn  "app_WIRmod_alg.c",654,9
    4162 00000645 9260          MOV       AL,*-SP[32]           ; |654| 
    4163 00000646 520B          CMPB      AL,#11                ; |654| 
    4164 00000647 6709          B         L70,HIS               ; |654| 
    4165                      ; branchcc occurs ; |654| 
    4166              DW$L$_app_WIRmod_check_err_task$3$E:
    4167              DW$L$_app_WIRmod_check_err_task$4$B:
    4168                      .dwpsn  "app_WIRmod_alg.c",656,5
    4169 00000648 9C01          ADDB      AL,#1                 ; |656| 
    4170 00000649 9660          MOV       *-SP[32],AL           ; |656| 
    4171 0000064a 9B05          MOVB      AH,#5                 ; |656| 
    4172 0000064b 00C0!         FFC       XAR7,#U$$MOD          ; |656| 
         0000064c 0000 
    4173                      ; call occurs [#U$$MOD] ; |656| 
    4174 0000064d 5200          CMPB      AL,#0                 ; |656| 
    4175 0000064e EDEA          BF        L69,NEQ               ; |656| 
    4176                      ; branchcc occurs ; |656| 
    4177              DW$L$_app_WIRmod_check_err_task$4$E:
    4178              DW$L$_app_WIRmod_check_err_task$5$B:
    4179                      .dwpsn  "app_WIRmod_alg.c",656,30
    4180                      .dwpsn  "app_WIRmod_alg.c",657,10
    4181 0000064f 6F08          B         L71,UNC               ; |657| 
    4182                      ; branch occurs ; |657| 
    4183              DW$L$_app_WIRmod_check_err_task$5$E:
    4184              L70:    
    4185              DW$L$_app_WIRmod_check_err_task$6$B:
    4186                      .dwpsn  "app_WIRmod_alg.c",660,5
    4187 00000650 9C01          ADDB      AL,#1                 ; |660| 
    4188 00000651 9660          MOV       *-SP[32],AL           ; |660| 
    4189 00000652 9B1E          MOVB      AH,#30                ; |660| 
TMS320C2000 COFF Assembler PC v4.1.3 Sat Oct 08 14:42:32 2011

Tools Copyright (c) 1996-2006 Texas Instruments Incorporated
C:\DOCUME~1\ADMINI~1\LOCALS~1\Temp\TI8522                            PAGE   89

    4190 00000653 00C0!         FFC       XAR7,#U$$MOD          ; |660| 
         00000654 0000 
    4191                      ; call occurs [#U$$MOD] ; |660| 
    4192 00000655 5200          CMPB      AL,#0                 ; |660| 
    4193 00000656 EDE2          BF        L69,NEQ               ; |660| 
    4194                      ; branchcc occurs ; |660| 
    4195              DW$L$_app_WIRmod_check_err_task$6$E:
    4196              DW$L$_app_WIRmod_check_err_task$7$B:
    4197                      .dwpsn  "app_WIRmod_alg.c",660,31
    4198              DW$L$_app_WIRmod_check_err_task$7$E:
    4199              L71:    
    4200              DW$L$_app_WIRmod_check_err_task$8$B:
    4201                      .dwpsn  "app_WIRmod_alg.c",662,4
    4202 00000657 7640'         LCR       #_app_WIRmod_DL_param_obtain ; |662| 
         00000658 05D3 
    4203                      ; call occurs [#_app_WIRmod_DL_param_obtain] ; |662| 
    4204                      .dwpsn  "app_WIRmod_alg.c",663,4
    4205 00000659 8A0C-         MOVL      XAR4,@_m_alg_presult  ; |663| 
    4206 0000065a 9A00          MOVB      AL,#0
    4207 0000065b 28A8          MOV       AH,#276               ; |663| 
         0000065c 0114 
    4208 0000065d 7640!         LCR       #_global_memset       ; |663| 
         0000065e 0000 
    4209                      ; call occurs [#_global_memset] ; |663| 
    4210                      .dwpsn  "app_WIRmod_alg.c",664,4
    4211 0000065f 7640'         LCR       #_AngleDisposal       ; |664| 
         00000660 05B6 
    4212                      ; call occurs [#_AngleDisposal] ; |664| 
    4213                      .dwpsn  "app_WIRmod_alg.c",665,4
    4214 00000661 5CAD          MOVZ      AR4,SP                ; |665| 
    4215 00000662 DC9E          SUBB      XAR4,#30              ; |665| 
    4216 00000663 7640'         LCR       #_CheckLostUorI       ; |665| 
         00000664 04B2 
    4217                      ; call occurs [#_CheckLostUorI] ; |665| 
    4218 00000665 5200          CMPB      AL,#0                 ; |665| 
    4219 00000666 56C1          BF        L89,EQ                ; |665| 
         00000667 017C 
    4220                      ; branchcc occurs ; |665| 
    4221              DW$L$_app_WIRmod_check_err_task$8$E:
    4222              DW$L$_app_WIRmod_check_err_task$9$B:
    4223                      .dwpsn  "app_WIRmod_alg.c",667,5
    4224 00000668 7640'         LCR       #_AngleDisposal       ; |667| 
         00000669 05B6 
    4225                      ; call occurs [#_AngleDisposal] ; |667| 
    4226                      .dwpsn  "app_WIRmod_alg.c",668,5
    4227 0000066a CC5E          AND       AL,*-SP[30],#0x2000   ; |668| 
         0000066b 2000 
    4228 0000066c FFCC          LSR       AL,13                 ; |668| 
    4229 0000066d 5201          CMPB      AL,#1                 ; |668| 
    4230 0000066e ED78          BF        L73,NEQ               ; |668| 
    4231                      ; branchcc occurs ; |668| 
    4232              DW$L$_app_WIRmod_check_err_task$9$E:
    4233              DW$L$_app_WIRmod_check_err_task$10$B:
    4234                      .dwpsn  "app_WIRmod_alg.c",670,6
    4235 0000066f 28A8          MOV       AH,#16928
TMS320C2000 COFF Assembler PC v4.1.3 Sat Oct 08 14:42:32 2011

Tools Copyright (c) 1996-2006 Texas Instruments Incorporated
C:\DOCUME~1\ADMINI~1\LOCALS~1\Temp\TI8522                            PAGE   90

         00000670 4220 
    4236 00000671 9A00          MOV       AL,#0
    4237 00000672 761F-         MOVW      DP,#_fJUac
         00000673 0000 
    4238 00000674 1E42          MOVL      *-SP[2],ACC           ; |670| 
    4239 00000675 0604-         MOVL      ACC,@_fJUac           ; |670| 
    4240 00000676 FF90          LSL       AH,#1                 ; |670| 
    4241 00000677 FFD0          LSR       AH,#1                 ; |670| 
    4242 00000678 7640!         LCR       #FS$$CMP              ; |670| 
         00000679 0000 
    4243                      ; call occurs [#FS$$CMP] ; |670| 
    4244 0000067a 5200          CMPB      AL,#0                 ; |670| 
    4245 0000067b 645D          B         L72,LT                ; |670| 
    4246                      ; branchcc occurs ; |670| 
    4247 0000067c       DW$L$_app_WIRmod_check_err_task$10$E:
    4248 0000067c       DW$L$_app_WIRmod_check_err_task$11$B:
    4249 0000067c 28A8          MOV       AH,#17056
         0000067d 42A0 
    4250 0000067e 9A00          MOV       AL,#0
    4251 0000067f 761F-         MOVW      DP,#_fJUac
         00000680 0000 
    4252 00000681 1E42          MOVL      *-SP[2],ACC           ; |670| 
    4253 00000682 0604-         MOVL      ACC,@_fJUac           ; |670| 
    4254 00000683 FF90          LSL       AH,#1                 ; |670| 
    4255 00000684 FFD0          LSR       AH,#1                 ; |670| 
    4256 00000685 7640!         LCR       #FS$$CMP              ; |670| 
         00000686 0000 
    4257                      ; call occurs [#FS$$CMP] ; |670| 
    4258 00000687 5200          CMPB      AL,#0                 ; |670| 
    4259 00000688 6250          B         L72,GT                ; |670| 
    4260                      ; branchcc occurs ; |670| 
    4261 00000689       DW$L$_app_WIRmod_check_err_task$11$E:
    4262 00000689       DW$L$_app_WIRmod_check_err_task$12$B:
    4263 00000689 9A00          MOV       AL,#0
    4264 0000068a 761F-         MOVW      DP,#_fUa
         0000068b 0000 
    4265 0000068c 9B00          MOV       AH,#0
    4266 0000068d 1E42          MOVL      *-SP[2],ACC           ; |670| 
    4267 0000068e 061E-         MOVL      ACC,@_fUa             ; |670| 
    4268 0000068f 7640!         LCR       #FS$$CMP              ; |670| 
         00000690 0000 
    4269                      ; call occurs [#FS$$CMP] ; |670| 
    4270 00000691 5200          CMPB      AL,#0                 ; |670| 
    4271 00000692 EC46          BF        L72,EQ                ; |670| 
    4272                      ; branchcc occurs ; |670| 
    4273 00000693       DW$L$_app_WIRmod_check_err_task$12$E:
    4274 00000693       DW$L$_app_WIRmod_check_err_task$13$B:
    4275 00000693 9A00          MOV       AL,#0
    4276 00000694 761F-         MOVW      DP,#_fUc
         00000695 0000 
    4277 00000696 9B00          MOV       AH,#0
    4278 00000697 1E42          MOVL      *-SP[2],ACC           ; |670| 
    4279 00000698 0602-         MOVL      ACC,@_fUc             ; |670| 
    4280 00000699 7640!         LCR       #FS$$CMP              ; |670| 
         0000069a 0000 
TMS320C2000 COFF Assembler PC v4.1.3 Sat Oct 08 14:42:32 2011

Tools Copyright (c) 1996-2006 Texas Instruments Incorporated
C:\DOCUME~1\ADMINI~1\LOCALS~1\Temp\TI8522                            PAGE   91

    4281                      ; call occurs [#FS$$CMP] ; |670| 
    4282 0000069b 5200          CMPB      AL,#0                 ; |670| 
    4283 0000069c EC3C          BF        L72,EQ                ; |670| 
    4284                      ; branchcc occurs ; |670| 
    4285 0000069d       DW$L$_app_WIRmod_check_err_task$13$E:
    4286 0000069d       DW$L$_app_WIRmod_check_err_task$14$B:
    4287 0000069d 28A8          MOV       AH,#15692
         0000069e 3D4C 
    4288 0000069f 28A9          MOV       AL,#52429
         000006a0 CCCD 
    4289 000006a1 761F-         MOVW      DP,#_fUb
         000006a2 0000 
    4290 000006a3 1E42          MOVL      *-SP[2],ACC           ; |670| 
    4291 000006a4 061A-         MOVL      ACC,@_fUb             ; |670| 
    4292 000006a5 FF90          LSL       AH,#1                 ; |670| 
    4293 000006a6 FFD0          LSR       AH,#1                 ; |670| 
    4294 000006a7 7640!         LCR       #FS$$CMP              ; |670| 
         000006a8 0000 
    4295                      ; call occurs [#FS$$CMP] ; |670| 
    4296 000006a9 5200          CMPB      AL,#0                 ; |670| 
    4297 000006aa 622E          B         L72,GT                ; |670| 
    4298                      ; branchcc occurs ; |670| 
    4299 000006ab       DW$L$_app_WIRmod_check_err_task$14$E:
    4300 000006ab       DW$L$_app_WIRmod_check_err_task$15$B:
    4301 000006ab 28A8          MOV       AH,#15692
         000006ac 3D4C 
    4302 000006ad 28A9          MOV       AL,#52429
         000006ae CCCD 
    4303 000006af 761F-         MOVW      DP,#_fIb
         000006b0 0000 
    4304 000006b1 1E42          MOVL      *-SP[2],ACC           ; |670| 
    4305 000006b2 0618-         MOVL      ACC,@_fIb             ; |670| 
    4306 000006b3 FF90          LSL       AH,#1                 ; |670| 
    4307 000006b4 FFD0          LSR       AH,#1                 ; |670| 
    4308 000006b5 7640!         LCR       #FS$$CMP              ; |670| 
         000006b6 0000 
    4309                      ; call occurs [#FS$$CMP] ; |670| 
    4310 000006b7 5200          CMPB      AL,#0                 ; |670| 
    4311 000006b8 6220          B         L72,GT                ; |670| 
    4312                      ; branchcc occurs ; |670| 
    4313              DW$L$_app_WIRmod_check_err_task$15$E:
    4314              DW$L$_app_WIRmod_check_err_task$16$B:
    4315                      .dwpsn  "app_WIRmod_alg.c",672,7
    4316 000006b9 761F-         MOVW      DP,#_fJUac
         000006ba 0000 
    4317 000006bb 0604-         MOVL      ACC,@_fJUac           ; |672| 
    4318 000006bc 7640!         LCR       #FS$$TOI              ; |672| 
         000006bd 0000 
    4319                      ; call occurs [#FS$$TOI] ; |672| 
    4320 000006be 5BA9          MOVZ      AR3,AL                ; |672| 
    4321 000006bf 761F-         MOVW      DP,#_fJIac
         000006c0 0000 
    4322 000006c1 0612-         MOVL      ACC,@_fJIac           ; |672| 
    4323 000006c2 7640!         LCR       #FS$$TOI              ; |672| 
         000006c3 0000 
TMS320C2000 COFF Assembler PC v4.1.3 Sat Oct 08 14:42:32 2011

Tools Copyright (c) 1996-2006 Texas Instruments Incorporated
C:\DOCUME~1\ADMINI~1\LOCALS~1\Temp\TI8522                            PAGE   92

    4324                      ; call occurs [#FS$$TOI] ; |672| 
    4325 000006c4 5AA9          MOVZ      AR2,AL                ; |672| 
    4326 000006c5 761F-         MOVW      DP,#_fJa
         000006c6 0000 
    4327 000006c7 061C-         MOVL      ACC,@_fJa             ; |672| 
    4328 000006c8 7640!         LCR       #FS$$TOI              ; |672| 
         000006c9 0000 
    4329                      ; call occurs [#FS$$TOI] ; |672| 
    4330 000006ca 59A9          MOVZ      AR1,AL                ; |672| 
    4331 000006cb 761F-         MOVW      DP,#_fJc
         000006cc 0000 
    4332 000006cd 0616-         MOVL      ACC,@_fJc             ; |672| 
    4333 000006ce 7640!         LCR       #FS$$TOI              ; |672| 
         000006cf 0000 
    4334                      ; call occurs [#FS$$TOI] ; |672| 
    4335 000006d0 9641          MOV       *-SP[1],AL            ; |672| 
    4336 000006d1 92A3          MOV       AL,AR3                ; |672| 
    4337 000006d2 5DA1          MOVZ      AR5,AR1               ; |672| 
    4338 000006d3 8F00-         MOVL      XAR4,#_cha_x          ; |672| 
         000006d4 0040 
    4339 000006d5 93A2          MOV       AH,AR2                ; |672| 
    4340 000006d6 7640'         LCR       #_chasan              ; |672| 
         000006d7 0083 
    4341                      ; call occurs [#_chasan] ; |672| 
    4342              DW$L$_app_WIRmod_check_err_task$16$E:
    4343              L72:    
    4344              DW$L$_app_WIRmod_check_err_task$17$B:
    4345                      .dwpsn  "app_WIRmod_alg.c",674,6
    4346 000006d8 761F-         MOVW      DP,#_fJUac
         000006d9 0000 
    4347 000006da 0604-         MOVL      ACC,@_fJUac           ; |674| 
    4348 000006db 1E42          MOVL      *-SP[2],ACC           ; |674| 
    4349 000006dc 0608-         MOVL      ACC,@_fJUab           ; |674| 
    4350 000006dd 7640'         LCR       #_xiangxu             ; |674| 
         000006de 0422 
    4351                      ; call occurs [#_xiangxu] ; |674| 
    4352                      .dwpsn  "app_WIRmod_alg.c",675,6
    4353 000006df 761F-         MOVW      DP,#_m_alg_presult
         000006e0 0000 
    4354 000006e1 8A0C-         MOVL      XAR4,@_m_alg_presult  ; |675| 
    4355 000006e2 D044          MOVB      XAR0,#68              ; |675| 
    4356 000006e3 2894          MOV       *+XAR4[AR0],#1        ; |675| 
         000006e4 0001 
    4357                      .dwpsn  "app_WIRmod_alg.c",676,5
    4358 000006e5 6F39          B         L76,UNC               ; |676| 
    4359                      ; branch occurs ; |676| 
    4360              DW$L$_app_WIRmod_check_err_task$17$E:
    4361              L73:    
    4362              DW$L$_app_WIRmod_check_err_task$18$B:
    4363                      .dwpsn  "app_WIRmod_alg.c",677,10
    4364 000006e6 CC5E          AND       AL,*-SP[30],#0x2000   ; |677| 
         000006e7 2000 
    4365 000006e8 FFCC          LSR       AL,13                 ; |677| 
    4366 000006e9 ED35          BF        L76,NEQ               ; |677| 
    4367                      ; branchcc occurs ; |677| 
TMS320C2000 COFF Assembler PC v4.1.3 Sat Oct 08 14:42:32 2011

Tools Copyright (c) 1996-2006 Texas Instruments Incorporated
C:\DOCUME~1\ADMINI~1\LOCALS~1\Temp\TI8522                            PAGE   93

    4368              DW$L$_app_WIRmod_check_err_task$18$E:
    4369              DW$L$_app_WIRmod_check_err_task$19$B:
    4370                      .dwpsn  "app_WIRmod_alg.c",679,6
    4371 000006ea 9A00          MOV       AL,#0
    4372 000006eb 761F-         MOVW      DP,#_fJUab
         000006ec 0000 
    4373 000006ed 9B00          MOV       AH,#0
    4374 000006ee 1E42          MOVL      *-SP[2],ACC           ; |679| 
    4375 000006ef 0608-         MOVL      ACC,@_fJUab           ; |679| 
    4376 000006f0 7640!         LCR       #FS$$CMP              ; |679| 
         000006f1 0000 
    4377                      ; call occurs [#FS$$CMP] ; |679| 
    4378 000006f2 5200          CMPB      AL,#0                 ; |679| 
    4379 000006f3 6304          B         L74,GEQ               ; |679| 
    4380                      ; branchcc occurs ; |679| 
    4381              DW$L$_app_WIRmod_check_err_task$19$E:
    4382              DW$L$_app_WIRmod_check_err_task$20$B:
    4383                      .dwpsn  "app_WIRmod_alg.c",679,24
    4384 000006f4 2845          MOV       *-SP[5],#95           ; |679| 
         000006f5 005F 
    4385 000006f6 6F03          B         L75,UNC               ; |679| 
    4386                      ; branch occurs ; |679| 
    4387              DW$L$_app_WIRmod_check_err_task$20$E:
    4388              L74:    
    4389              DW$L$_app_WIRmod_check_err_task$21$B:
    4390                      .dwpsn  "app_WIRmod_alg.c",680,16
    4391 000006f7 2845          MOV       *-SP[5],#43           ; |680| 
         000006f8 002B 
    4392              DW$L$_app_WIRmod_check_err_task$21$E:
    4393              L75:    
    4394              DW$L$_app_WIRmod_check_err_task$22$B:
    4395                      .dwpsn  "app_WIRmod_alg.c",681,6
    4396 000006f9 761F-         MOVW      DP,#_fJa
         000006fa 0000 
    4397 000006fb 061C-         MOVL      ACC,@_fJa             ; |681| 
    4398 000006fc 7640!         LCR       #FS$$TOI              ; |681| 
         000006fd 0000 
    4399                      ; call occurs [#FS$$TOI] ; |681| 
    4400 000006fe 5AA9          MOVZ      AR2,AL                ; |681| 
    4401 000006ff 761F-         MOVW      DP,#_fJb
         00000700 0000 
    4402 00000701 0622-         MOVL      ACC,@_fJb             ; |681| 
    4403 00000702 7640!         LCR       #FS$$TOI              ; |681| 
         00000703 0000 
    4404                      ; call occurs [#FS$$TOI] ; |681| 
    4405 00000704 59A9          MOVZ      AR1,AL                ; |681| 
    4406 00000705 761F-         MOVW      DP,#_fJc
         00000706 0000 
    4407 00000707 0616-         MOVL      ACC,@_fJc             ; |681| 
    4408 00000708 7640!         LCR       #FS$$TOI              ; |681| 
         00000709 0000 
    4409                      ; call occurs [#FS$$TOI] ; |681| 
    4410 0000070a 9641          MOV       *-SP[1],AL            ; |681| 
    4411 0000070b 9245          MOV       AL,*-SP[5]            ; |681| 
    4412 0000070c 5DA1          MOVZ      AR5,AR1               ; |681| 
TMS320C2000 COFF Assembler PC v4.1.3 Sat Oct 08 14:42:32 2011

Tools Copyright (c) 1996-2006 Texas Instruments Incorporated
C:\DOCUME~1\ADMINI~1\LOCALS~1\Temp\TI8522                            PAGE   94

    4413 0000070d 8F00-         MOVL      XAR4,#_cha_x          ; |681| 
         0000070e 0040 
    4414 0000070f 93A2          MOV       AH,AR2                ; |681| 
    4415 00000710 7640'         LCR       #_chashi              ; |681| 
         00000711 024C 
    4416                      ; call occurs [#_chashi] ; |681| 
    4417                      .dwpsn  "app_WIRmod_alg.c",682,6
    4418 00000712 761F-         MOVW      DP,#_fJUac
         00000713 0000 
    4419 00000714 0604-         MOVL      ACC,@_fJUac           ; |682| 
    4420 00000715 1E42          MOVL      *-SP[2],ACC           ; |682| 
    4421 00000716 0608-         MOVL      ACC,@_fJUab           ; |682| 
    4422 00000717 7640'         LCR       #_xiangxu             ; |682| 
         00000718 0422 
    4423                      ; call occurs [#_xiangxu] ; |682| 
    4424                      .dwpsn  "app_WIRmod_alg.c",683,6
    4425 00000719 761F-         MOVW      DP,#_m_alg_presult
         0000071a 0000 
    4426 0000071b 8A0C-         MOVL      XAR4,@_m_alg_presult  ; |683| 
    4427 0000071c D044          MOVB      XAR0,#68              ; |683| 
    4428 0000071d 2B94          MOV       *+XAR4[AR0],#0        ; |683| 
    4429              DW$L$_app_WIRmod_check_err_task$22$E:
    4430              L76:    
    4431              DW$L$_app_WIRmod_check_err_task$23$B:
    4432                      .dwpsn  "app_WIRmod_alg.c",685,11
    4433 0000071e 2B46          MOV       *-SP[6],#0            ; |685| 
    4434                      .dwpsn  "app_WIRmod_alg.c",685,17
    4435 0000071f 9246          MOV       AL,*-SP[6]            ; |685| 
    4436 00000720 5204          CMPB      AL,#4                 ; |685| 
    4437 00000721 FFE7          B         L89,HIS               ; |685| 
         00000722 00C1 
    4438                      ; branchcc occurs ; |685| 
    4439              DW$L$_app_WIRmod_check_err_task$23$E:
    4440              L77:    
    4441              DW$L$_app_WIRmod_check_err_task$24$B:
    4442                      .dwpsn  "app_WIRmod_alg.c",687,12
    4443 00000723 2B47          MOV       *-SP[7],#0            ; |687| 
    4444                      .dwpsn  "app_WIRmod_alg.c",687,18
    4445 00000724 9247          MOV       AL,*-SP[7]            ; |687| 
    4446 00000725 5205          CMPB      AL,#5                 ; |687| 
    4447 00000726 6710          B         L79,HIS               ; |687| 
    4448                      ; branchcc occurs ; |687| 
    4449              DW$L$_app_WIRmod_check_err_task$24$E:
    4450              L78:    
    4451              DW$L$_app_WIRmod_check_err_task$25$B:
    4452                      .dwpsn  "app_WIRmod_alg.c",688,7
    4453 00000727 0E46          MOVU      ACC,*-SP[6]
    4454 00000728 5847          MOVZ      AR0,*-SP[7]           ; |688| 
    4455 00000729 8F00-         MOVL      XAR4,#_cha_x          ; |688| 
         0000072a 0040 
    4456 0000072b FF34          LSL       ACC,5                 ; |688| 
    4457 0000072c 5601          ADDL      XAR4,ACC
         0000072d 00A4 
    4458 0000072e 9294          MOV       AL,*+XAR4[AR0]        ; |688| 
    4459 0000072f 5CAD          MOVZ      AR4,SP                ; |688| 
TMS320C2000 COFF Assembler PC v4.1.3 Sat Oct 08 14:42:32 2011

Tools Copyright (c) 1996-2006 Texas Instruments Incorporated
C:\DOCUME~1\ADMINI~1\LOCALS~1\Temp\TI8522                            PAGE   95

    4460 00000730 DC9B          SUBB      XAR4,#27              ; |688| 
    4461 00000731 9694          MOV       *+XAR4[AR0],AL        ; |688| 
    4462                      .dwpsn  "app_WIRmod_alg.c",687,24
    4463 00000732 0A47          INC       *-SP[7]               ; |687| 
    4464                      .dwpsn  "app_WIRmod_alg.c",687,18
    4465 00000733 9247          MOV       AL,*-SP[7]            ; |687| 
    4466 00000734 5205          CMPB      AL,#5                 ; |687| 
    4467 00000735 68F2          B         L78,LO                ; |687| 
    4468                      ; branchcc occurs ; |687| 
    4469              DW$L$_app_WIRmod_check_err_task$25$E:
    4470              L79:    
    4471              DW$L$_app_WIRmod_check_err_task$26$B:
    4472                      .dwpsn  "app_WIRmod_alg.c",689,6
    4473 00000736 5CAD          MOVZ      AR4,SP                ; |689| 
    4474 00000737 5847          MOVZ      AR0,*-SP[7]           ; |689| 
    4475 00000738 DC9B          SUBB      XAR4,#27              ; |689| 
    4476 00000739 2B94          MOV       *+XAR4[AR0],#0        ; |689| 
    4477                      .dwpsn  "app_WIRmod_alg.c",690,6
    4478 0000073a 761F-         MOVW      DP,#_m_alg_presult
         0000073b 0000 
    4479 0000073c 28AC          MOV       T,#69                 ; |690| 
         0000073d 0045 
    4480 0000073e 060C-         MOVL      ACC,@_m_alg_presult   ; |690| 
    4481 0000073f 3246          MPYXU     P,T,*-SP[6]           ; |690| 
    4482 00000740 5DAD          MOVZ      AR5,SP                ; |690| 
    4483 00000741 07AB          ADDL      ACC,P
    4484 00000742 0908          ADDB      ACC,#8                ; |690| 
    4485 00000743 8AA9          MOVL      XAR4,ACC              ; |690| 
    4486 00000744 DD9B          SUBB      XAR5,#27              ; |690| 
    4487 00000745 7640!         LCR       #_global_strcpy       ; |690| 
         00000746 0000 
    4488                      ; call occurs [#_global_strcpy] ; |690| 
    4489                      .dwpsn  "app_WIRmod_alg.c",691,12
    4490 00000747 2B47          MOV       *-SP[7],#0            ; |691| 
    4491                      .dwpsn  "app_WIRmod_alg.c",691,18
    4492 00000748 9247          MOV       AL,*-SP[7]            ; |691| 
    4493 00000749 5208          CMPB      AL,#8                 ; |691| 
    4494 0000074a 6759          B         L86,HIS               ; |691| 
    4495                      ; branchcc occurs ; |691| 
    4496              DW$L$_app_WIRmod_check_err_task$26$E:
    4497              L80:    
    4498              DW$L$_app_WIRmod_check_err_task$27$B:
    4499                      .dwpsn  "app_WIRmod_alg.c",693,7
    4500 0000074b 5202          CMPB      AL,#2                 ; |693| 
    4501 0000074c ED0D          BF        L81,NEQ               ; |693| 
    4502                      ; branchcc occurs ; |693| 
    4503              DW$L$_app_WIRmod_check_err_task$27$E:
    4504              DW$L$_app_WIRmod_check_err_task$28$B:
    4505                      .dwpsn  "app_WIRmod_alg.c",695,8
    4506 0000074d 5CAD          MOVZ      AR4,SP                ; |695| 
    4507 0000074e 5847          MOVZ      AR0,*-SP[7]           ; |695| 
    4508 0000074f DC9B          SUBB      XAR4,#27              ; |695| 
    4509 00000750 2894          MOV       *+XAR4[AR0],#32       ; |695| 
         00000751 0020 
    4510                      .dwpsn  "app_WIRmod_alg.c",696,8
TMS320C2000 COFF Assembler PC v4.1.3 Sat Oct 08 14:42:32 2011

Tools Copyright (c) 1996-2006 Texas Instruments Incorporated
C:\DOCUME~1\ADMINI~1\LOCALS~1\Temp\TI8522                            PAGE   96

    4511 00000752 5CAD          MOVZ      AR4,SP                ; |696| 
    4512 00000753 9247          MOV       AL,*-SP[7]            ; |696| 
    4513 00000754 9C01          ADDB      AL,#1                 ; |696| 
    4514 00000755 58A9          MOVZ      AR0,AL                ; |696| 
    4515 00000756 DC9B          SUBB      XAR4,#27              ; |696| 
    4516 00000757 2894          MOV       *+XAR4[AR0],#32       ; |696| 
         00000758 0020 
    4517              DW$L$_app_WIRmod_check_err_task$28$E:
    4518              L81:    
    4519              DW$L$_app_WIRmod_check_err_task$29$B:
    4520                      .dwpsn  "app_WIRmod_alg.c",698,7
    4521 00000759 9247          MOV       AL,*-SP[7]            ; |698| 
    4522 0000075a 5205          CMPB      AL,#5                 ; |698| 
    4523 0000075b ED10          BF        L82,NEQ               ; |698| 
    4524                      ; branchcc occurs ; |698| 
    4525              DW$L$_app_WIRmod_check_err_task$29$E:
    4526              DW$L$_app_WIRmod_check_err_task$30$B:
    4527                      .dwpsn  "app_WIRmod_alg.c",700,8
    4528 0000075c 5CAD          MOVZ      AR4,SP                ; |700| 
    4529 0000075d 9247          MOV       AL,*-SP[7]            ; |700| 
    4530 0000075e 9C01          ADDB      AL,#1                 ; |700| 
    4531 0000075f 58A9          MOVZ      AR0,AL                ; |700| 
    4532 00000760 DC9B          SUBB      XAR4,#27              ; |700| 
    4533 00000761 2894          MOV       *+XAR4[AR0],#32       ; |700| 
         00000762 0020 
    4534                      .dwpsn  "app_WIRmod_alg.c",701,8
    4535 00000763 5CAD          MOVZ      AR4,SP                ; |701| 
    4536 00000764 9247          MOV       AL,*-SP[7]            ; |701| 
    4537 00000765 9C02          ADDB      AL,#2                 ; |701| 
    4538 00000766 58A9          MOVZ      AR0,AL                ; |701| 
    4539 00000767 DC9B          SUBB      XAR4,#27              ; |701| 
    4540 00000768 2894          MOV       *+XAR4[AR0],#32       ; |701| 
         00000769 0020 
    4541                      .dwpsn  "app_WIRmod_alg.c",702,7
    4542 0000076a 6F35          B         L85,UNC               ; |702| 
    4543                      ; branch occurs ; |702| 
    4544              DW$L$_app_WIRmod_check_err_task$30$E:
    4545              L82:    
    4546              DW$L$_app_WIRmod_check_err_task$31$B:
    4547                      .dwpsn  "app_WIRmod_alg.c",703,12
    4548 0000076b 5204          CMPB      AL,#4                 ; |703| 
    4549 0000076c 6912          B         L83,LOS               ; |703| 
    4550                      ; branchcc occurs ; |703| 
    4551              DW$L$_app_WIRmod_check_err_task$31$E:
    4552              DW$L$_app_WIRmod_check_err_task$32$B:
    4553                      .dwpsn  "app_WIRmod_alg.c",703,25
    4554 0000076d 0E46          MOVU      ACC,*-SP[6]
    4555 0000076e 8F00-         MOVL      XAR4,#_cha_x          ; |703| 
         0000076f 0040 
    4556 00000770 FF34          LSL       ACC,5                 ; |703| 
    4557 00000771 5601          ADDL      XAR4,ACC
         00000772 00A4 
    4558 00000773 9247          MOV       AL,*-SP[7]            ; |703| 
    4559 00000774 9C06          ADDB      AL,#6                 ; |703| 
    4560 00000775 58A9          MOVZ      AR0,AL                ; |703| 
TMS320C2000 COFF Assembler PC v4.1.3 Sat Oct 08 14:42:32 2011

Tools Copyright (c) 1996-2006 Texas Instruments Incorporated
C:\DOCUME~1\ADMINI~1\LOCALS~1\Temp\TI8522                            PAGE   97

    4561 00000776 9394          MOV       AH,*+XAR4[AR0]        ; |703| 
    4562 00000777 5CAD          MOVZ      AR4,SP                ; |703| 
    4563 00000778 9247          MOV       AL,*-SP[7]            ; |703| 
    4564 00000779 9C02          ADDB      AL,#2                 ; |703| 
    4565 0000077a 58A9          MOVZ      AR0,AL                ; |703| 
    4566 0000077b DC9B          SUBB      XAR4,#27              ; |703| 
    4567 0000077c 9794          MOV       *+XAR4[AR0],AH        ; |703| 
    4568 0000077d 6F22          B         L85,UNC               ; |703| 
    4569                      ; branch occurs ; |703| 
    4570              DW$L$_app_WIRmod_check_err_task$32$E:
    4571              L83:    
    4572              DW$L$_app_WIRmod_check_err_task$33$B:
    4573                      .dwpsn  "app_WIRmod_alg.c",704,12
    4574 0000077e 5201          CMPB      AL,#1                 ; |704| 
    4575 0000077f 6912          B         L84,LOS               ; |704| 
    4576                      ; branchcc occurs ; |704| 
    4577              DW$L$_app_WIRmod_check_err_task$33$E:
    4578              DW$L$_app_WIRmod_check_err_task$34$B:
    4579                      .dwpsn  "app_WIRmod_alg.c",704,25
    4580 00000780 0E46          MOVU      ACC,*-SP[6]
    4581 00000781 8F00-         MOVL      XAR4,#_cha_x          ; |704| 
         00000782 0040 
    4582 00000783 FF34          LSL       ACC,5                 ; |704| 
    4583 00000784 5601          ADDL      XAR4,ACC
         00000785 00A4 
    4584 00000786 9247          MOV       AL,*-SP[7]            ; |704| 
    4585 00000787 9C06          ADDB      AL,#6                 ; |704| 
    4586 00000788 58A9          MOVZ      AR0,AL                ; |704| 
    4587 00000789 9394          MOV       AH,*+XAR4[AR0]        ; |704| 
    4588 0000078a 5CAD          MOVZ      AR4,SP                ; |704| 
    4589 0000078b 9247          MOV       AL,*-SP[7]            ; |704| 
    4590 0000078c 9C01          ADDB      AL,#1                 ; |704| 
    4591 0000078d 58A9          MOVZ      AR0,AL                ; |704| 
    4592 0000078e DC9B          SUBB      XAR4,#27              ; |704| 
    4593 0000078f 9794          MOV       *+XAR4[AR0],AH        ; |704| 
    4594 00000790 6F0F          B         L85,UNC               ; |704| 
    4595                      ; branch occurs ; |704| 
    4596              DW$L$_app_WIRmod_check_err_task$34$E:
    4597              L84:    
    4598              DW$L$_app_WIRmod_check_err_task$35$B:
    4599                      .dwpsn  "app_WIRmod_alg.c",705,13
    4600 00000791 0E46          MOVU      ACC,*-SP[6]
    4601 00000792 8F00-         MOVL      XAR4,#_cha_x          ; |705| 
         00000793 0040 
    4602 00000794 FF34          LSL       ACC,5                 ; |705| 
    4603 00000795 5601          ADDL      XAR4,ACC
         00000796 00A4 
    4604 00000797 9247          MOV       AL,*-SP[7]            ; |705| 
    4605 00000798 9C06          ADDB      AL,#6                 ; |705| 
    4606 00000799 58A9          MOVZ      AR0,AL                ; |705| 
    4607 0000079a 9294          MOV       AL,*+XAR4[AR0]        ; |705| 
    4608 0000079b 5CAD          MOVZ      AR4,SP                ; |705| 
    4609 0000079c 5847          MOVZ      AR0,*-SP[7]           ; |705| 
    4610 0000079d DC9B          SUBB      XAR4,#27              ; |705| 
    4611 0000079e 9694          MOV       *+XAR4[AR0],AL        ; |705| 
TMS320C2000 COFF Assembler PC v4.1.3 Sat Oct 08 14:42:32 2011

Tools Copyright (c) 1996-2006 Texas Instruments Incorporated
C:\DOCUME~1\ADMINI~1\LOCALS~1\Temp\TI8522                            PAGE   98

    4612              DW$L$_app_WIRmod_check_err_task$35$E:
    4613              L85:    
    4614              DW$L$_app_WIRmod_check_err_task$36$B:
    4615                      .dwpsn  "app_WIRmod_alg.c",691,24
    4616 0000079f 0A47          INC       *-SP[7]               ; |691| 
    4617                      .dwpsn  "app_WIRmod_alg.c",691,18
    4618 000007a0 9247          MOV       AL,*-SP[7]            ; |691| 
    4619 000007a1 5208          CMPB      AL,#8                 ; |691| 
    4620 000007a2 68A9          B         L80,LO                ; |691| 
    4621                      ; branchcc occurs ; |691| 
    4622              DW$L$_app_WIRmod_check_err_task$36$E:
    4623              L86:    
    4624              DW$L$_app_WIRmod_check_err_task$37$B:
    4625                      .dwpsn  "app_WIRmod_alg.c",707,6
    4626 000007a3 5CAD          MOVZ      AR4,SP                ; |707| 
    4627 000007a4 9247          MOV       AL,*-SP[7]            ; |707| 
    4628 000007a5 9C02          ADDB      AL,#2                 ; |707| 
    4629 000007a6 58A9          MOVZ      AR0,AL                ; |707| 
    4630 000007a7 DC9B          SUBB      XAR4,#27              ; |707| 
    4631 000007a8 2B94          MOV       *+XAR4[AR0],#0        ; |707| 
    4632                      .dwpsn  "app_WIRmod_alg.c",708,6
    4633 000007a9 28AC          MOV       T,#69                 ; |708| 
         000007aa 0045 
    4634 000007ab 761F-         MOVW      DP,#_m_alg_presult
         000007ac 0000 
    4635 000007ad 3246          MPYXU     P,T,*-SP[6]           ; |708| 
    4636 000007ae 060C-         MOVL      ACC,@_m_alg_presult   ; |708| 
    4637 000007af 5DAD          MOVZ      AR5,SP                ; |708| 
    4638 000007b0 07AB          ADDL      ACC,P
    4639 000007b1 091C          ADDB      ACC,#28               ; |708| 
    4640 000007b2 8AA9          MOVL      XAR4,ACC              ; |708| 
    4641 000007b3 DD9B          SUBB      XAR5,#27              ; |708| 
    4642 000007b4 7640!         LCR       #_global_strcpy       ; |708| 
         000007b5 0000 
    4643                      ; call occurs [#_global_strcpy] ; |708| 
    4644                      .dwpsn  "app_WIRmod_alg.c",709,12
    4645 000007b6 2B47          MOV       *-SP[7],#0            ; |709| 
    4646                      .dwpsn  "app_WIRmod_alg.c",709,18
    4647 000007b7 9247          MOV       AL,*-SP[7]            ; |709| 
    4648 000007b8 520B          CMPB      AL,#11                ; |709| 
    4649 000007b9 6713          B         L88,HIS               ; |709| 
    4650                      ; branchcc occurs ; |709| 
    4651              DW$L$_app_WIRmod_check_err_task$37$E:
    4652              L87:    
    4653              DW$L$_app_WIRmod_check_err_task$38$B:
    4654                      .dwpsn  "app_WIRmod_alg.c",710,7
    4655 000007ba 0E46          MOVU      ACC,*-SP[6]
    4656 000007bb 8F00-         MOVL      XAR4,#_cha_x          ; |710| 
         000007bc 0040 
    4657 000007bd FF34          LSL       ACC,5                 ; |710| 
    4658 000007be 5601          ADDL      XAR4,ACC
         000007bf 00A4 
    4659 000007c0 9247          MOV       AL,*-SP[7]            ; |710| 
    4660 000007c1 9C10          ADDB      AL,#16                ; |710| 
    4661 000007c2 58A9          MOVZ      AR0,AL                ; |710| 
TMS320C2000 COFF Assembler PC v4.1.3 Sat Oct 08 14:42:32 2011

Tools Copyright (c) 1996-2006 Texas Instruments Incorporated
C:\DOCUME~1\ADMINI~1\LOCALS~1\Temp\TI8522                            PAGE   99

    4662 000007c3 9294          MOV       AL,*+XAR4[AR0]        ; |710| 
    4663 000007c4 5CAD          MOVZ      AR4,SP                ; |710| 
    4664 000007c5 5847          MOVZ      AR0,*-SP[7]           ; |710| 
    4665 000007c6 DC9B          SUBB      XAR4,#27              ; |710| 
    4666 000007c7 9694          MOV       *+XAR4[AR0],AL        ; |710| 
    4667                      .dwpsn  "app_WIRmod_alg.c",709,25
    4668 000007c8 0A47          INC       *-SP[7]               ; |709| 
    4669                      .dwpsn  "app_WIRmod_alg.c",709,18
    4670 000007c9 9247          MOV       AL,*-SP[7]            ; |709| 
    4671 000007ca 520B          CMPB      AL,#11                ; |709| 
    4672 000007cb 68EF          B         L87,LO                ; |709| 
    4673                      ; branchcc occurs ; |709| 
    4674              DW$L$_app_WIRmod_check_err_task$38$E:
    4675              L88:    
    4676              DW$L$_app_WIRmod_check_err_task$39$B:
    4677                      .dwpsn  "app_WIRmod_alg.c",711,6
    4678 000007cc 5CAD          MOVZ      AR4,SP                ; |711| 
    4679 000007cd 5847          MOVZ      AR0,*-SP[7]           ; |711| 
    4680 000007ce DC9B          SUBB      XAR4,#27              ; |711| 
    4681 000007cf 2B94          MOV       *+XAR4[AR0],#0        ; |711| 
    4682                      .dwpsn  "app_WIRmod_alg.c",712,6
    4683 000007d0 761F-         MOVW      DP,#_m_alg_presult
         000007d1 0000 
    4684 000007d2 28AC          MOV       T,#69                 ; |712| 
         000007d3 0045 
    4685 000007d4 060C-         MOVL      ACC,@_m_alg_presult   ; |712| 
    4686 000007d5 3246          MPYXU     P,T,*-SP[6]           ; |712| 
    4687 000007d6 5DAD          MOVZ      AR5,SP                ; |712| 
    4688 000007d7 07AB          ADDL      ACC,P
    4689 000007d8 0930          ADDB      ACC,#48               ; |712| 
    4690 000007d9 8AA9          MOVL      XAR4,ACC              ; |712| 
    4691 000007da DD9B          SUBB      XAR5,#27              ; |712| 
    4692 000007db 7640!         LCR       #_global_strcpy       ; |712| 
         000007dc 0000 
    4693                      ; call occurs [#_global_strcpy] ; |712| 
    4694                      .dwpsn  "app_WIRmod_alg.c",685,23
    4695 000007dd 0A46          INC       *-SP[6]               ; |685| 
    4696                      .dwpsn  "app_WIRmod_alg.c",685,17
    4697 000007de 9246          MOV       AL,*-SP[6]            ; |685| 
    4698 000007df 5204          CMPB      AL,#4                 ; |685| 
    4699 000007e0 FFE8          B         L77,LO                ; |685| 
         000007e1 FF43 
    4700                      ; branchcc occurs ; |685| 
    4701              DW$L$_app_WIRmod_check_err_task$39$E:
    4702              L89:    
    4703              DW$L$_app_WIRmod_check_err_task$40$B:
    4704                      .dwpsn  "app_WIRmod_alg.c",715,4
    4705 000007e2 761F-         MOVW      DP,#_m_WIRmod_sem
         000007e3 0000 
    4706 000007e4 8A0E-         MOVL      XAR4,@_m_WIRmod_sem   ; |715| 
    4707 000007e5 7640!         LCR       #_OSSemPost           ; |715| 
         000007e6 0000 
    4708                      ; call occurs [#_OSSemPost] ; |715| 
    4709                      .dwpsn  "app_WIRmod_alg.c",648,10
    4710 000007e7 FFEF          B         L69,UNC               ; |648| 
TMS320C2000 COFF Assembler PC v4.1.3 Sat Oct 08 14:42:32 2011

Tools Copyright (c) 1996-2006 Texas Instruments Incorporated
C:\DOCUME~1\ADMINI~1\LOCALS~1\Temp\TI8522                            PAGE  100

         000007e8 FE51 
    4711                      ; branch occurs ; |648| 
    4712              DW$L$_app_WIRmod_check_err_task$40$E:
    4713                      .dwcfa  0x1d, -8
    4714                      .dwcfa  0x1d, -6
    4715                      .dwcfa  0xc0, 11
    4716                      .dwcfa  0x1d, -4
    4717                      .dwcfa  0xc0, 9
    4718                      .dwcfa  0x1d, -2
    4719                      .dwcfa  0xc0, 7
    4720              
    4721              DW$239  .dwtag  DW_TAG_loop
    4722                      .dwattr DW$239, DW_AT_name("C:\DOCUME~1\ADMINI~1\LOCALS~1\Temp\TI8522:L69:1:1318056151")
    4723                      .dwattr DW$239, DW_AT_begin_file("app_WIRmod_alg.c")
    4724                      .dwattr DW$239, DW_AT_begin_line(0x288)
    4725                      .dwattr DW$239, DW_AT_end_line(0x2cd)
    4726              DW$240  .dwtag  DW_TAG_loop_range
    4727                      .dwattr DW$240, DW_AT_low_pc(DW$L$_app_WIRmod_check_err_task$2$B)
    4728                      .dwattr DW$240, DW_AT_high_pc(DW$L$_app_WIRmod_check_err_task$2$E)
    4729              DW$241  .dwtag  DW_TAG_loop_range
    4730                      .dwattr DW$241, DW_AT_low_pc(DW$L$_app_WIRmod_check_err_task$19$B)
    4731                      .dwattr DW$241, DW_AT_high_pc(DW$L$_app_WIRmod_check_err_task$19$E)
    4732              DW$242  .dwtag  DW_TAG_loop_range
    4733                      .dwattr DW$242, DW_AT_low_pc(DW$L$_app_WIRmod_check_err_task$20$B)
    4734                      .dwattr DW$242, DW_AT_high_pc(DW$L$_app_WIRmod_check_err_task$20$E)
    4735              DW$243  .dwtag  DW_TAG_loop_range
    4736                      .dwattr DW$243, DW_AT_low_pc(DW$L$_app_WIRmod_check_err_task$21$B)
    4737                      .dwattr DW$243, DW_AT_high_pc(DW$L$_app_WIRmod_check_err_task$21$E)
    4738              DW$244  .dwtag  DW_TAG_loop_range
    4739                      .dwattr DW$244, DW_AT_low_pc(DW$L$_app_WIRmod_check_err_task$9$B)
    4740                      .dwattr DW$244, DW_AT_high_pc(DW$L$_app_WIRmod_check_err_task$9$E)
    4741              DW$245  .dwtag  DW_TAG_loop_range
    4742                      .dwattr DW$245, DW_AT_low_pc(DW$L$_app_WIRmod_check_err_task$10$B)
    4743                      .dwattr DW$245, DW_AT_high_pc(DW$L$_app_WIRmod_check_err_task$10$E)
    4744              DW$246  .dwtag  DW_TAG_loop_range
    4745                      .dwattr DW$246, DW_AT_low_pc(DW$L$_app_WIRmod_check_err_task$11$B)
    4746                      .dwattr DW$246, DW_AT_high_pc(DW$L$_app_WIRmod_check_err_task$11$E)
    4747              DW$247  .dwtag  DW_TAG_loop_range
    4748                      .dwattr DW$247, DW_AT_low_pc(DW$L$_app_WIRmod_check_err_task$12$B)
    4749                      .dwattr DW$247, DW_AT_high_pc(DW$L$_app_WIRmod_check_err_task$12$E)
    4750              DW$248  .dwtag  DW_TAG_loop_range
    4751                      .dwattr DW$248, DW_AT_low_pc(DW$L$_app_WIRmod_check_err_task$13$B)
    4752                      .dwattr DW$248, DW_AT_high_pc(DW$L$_app_WIRmod_check_err_task$13$E)
    4753              DW$249  .dwtag  DW_TAG_loop_range
    4754                      .dwattr DW$249, DW_AT_low_pc(DW$L$_app_WIRmod_check_err_task$14$B)
    4755                      .dwattr DW$249, DW_AT_high_pc(DW$L$_app_WIRmod_check_err_task$14$E)
    4756              DW$250  .dwtag  DW_TAG_loop_range
    4757                      .dwattr DW$250, DW_AT_low_pc(DW$L$_app_WIRmod_check_err_task$15$B)
    4758                      .dwattr DW$250, DW_AT_high_pc(DW$L$_app_WIRmod_check_err_task$15$E)
    4759              DW$251  .dwtag  DW_TAG_loop_range
    4760                      .dwattr DW$251, DW_AT_low_pc(DW$L$_app_WIRmod_check_err_task$16$B)
    4761                      .dwattr DW$251, DW_AT_high_pc(DW$L$_app_WIRmod_check_err_task$16$E)
    4762              DW$252  .dwtag  DW_TAG_loop_range
    4763                      .dwattr DW$252, DW_AT_low_pc(DW$L$_app_WIRmod_check_err_task$17$B)
    4764                      .dwattr DW$252, DW_AT_high_pc(DW$L$_app_WIRmod_check_err_task$17$E)
TMS320C2000 COFF Assembler PC v4.1.3 Sat Oct 08 14:42:32 2011

Tools Copyright (c) 1996-2006 Texas Instruments Incorporated
C:\DOCUME~1\ADMINI~1\LOCALS~1\Temp\TI8522                            PAGE  101

    4765              DW$253  .dwtag  DW_TAG_loop_range
    4766                      .dwattr DW$253, DW_AT_low_pc(DW$L$_app_WIRmod_check_err_task$18$B)
    4767                      .dwattr DW$253, DW_AT_high_pc(DW$L$_app_WIRmod_check_err_task$18$E)
    4768              DW$254  .dwtag  DW_TAG_loop_range
    4769                      .dwattr DW$254, DW_AT_low_pc(DW$L$_app_WIRmod_check_err_task$22$B)
    4770                      .dwattr DW$254, DW_AT_high_pc(DW$L$_app_WIRmod_check_err_task$22$E)
    4771              DW$255  .dwtag  DW_TAG_loop_range
    4772                      .dwattr DW$255, DW_AT_low_pc(DW$L$_app_WIRmod_check_err_task$5$B)
    4773                      .dwattr DW$255, DW_AT_high_pc(DW$L$_app_WIRmod_check_err_task$5$E)
    4774              DW$256  .dwtag  DW_TAG_loop_range
    4775                      .dwattr DW$256, DW_AT_low_pc(DW$L$_app_WIRmod_check_err_task$7$B)
    4776                      .dwattr DW$256, DW_AT_high_pc(DW$L$_app_WIRmod_check_err_task$7$E)
    4777              DW$257  .dwtag  DW_TAG_loop_range
    4778                      .dwattr DW$257, DW_AT_low_pc(DW$L$_app_WIRmod_check_err_task$8$B)
    4779                      .dwattr DW$257, DW_AT_high_pc(DW$L$_app_WIRmod_check_err_task$8$E)
    4780              DW$258  .dwtag  DW_TAG_loop_range
    4781                      .dwattr DW$258, DW_AT_low_pc(DW$L$_app_WIRmod_check_err_task$23$B)
    4782                      .dwattr DW$258, DW_AT_high_pc(DW$L$_app_WIRmod_check_err_task$23$E)
    4783              DW$259  .dwtag  DW_TAG_loop_range
    4784                      .dwattr DW$259, DW_AT_low_pc(DW$L$_app_WIRmod_check_err_task$3$B)
    4785                      .dwattr DW$259, DW_AT_high_pc(DW$L$_app_WIRmod_check_err_task$3$E)
    4786              DW$260  .dwtag  DW_TAG_loop_range
    4787                      .dwattr DW$260, DW_AT_low_pc(DW$L$_app_WIRmod_check_err_task$40$B)
    4788                      .dwattr DW$260, DW_AT_high_pc(DW$L$_app_WIRmod_check_err_task$40$E)
    4789              DW$261  .dwtag  DW_TAG_loop_range
    4790                      .dwattr DW$261, DW_AT_low_pc(DW$L$_app_WIRmod_check_err_task$6$B)
    4791                      .dwattr DW$261, DW_AT_high_pc(DW$L$_app_WIRmod_check_err_task$6$E)
    4792              DW$262  .dwtag  DW_TAG_loop_range
    4793                      .dwattr DW$262, DW_AT_low_pc(DW$L$_app_WIRmod_check_err_task$4$B)
    4794                      .dwattr DW$262, DW_AT_high_pc(DW$L$_app_WIRmod_check_err_task$4$E)
    4795              
    4796              DW$263  .dwtag  DW_TAG_loop
    4797                      .dwattr DW$263, DW_AT_name("C:\DOCUME~1\ADMINI~1\LOCALS~1\Temp\TI8522:L77:2:1318056151")
    4798                      .dwattr DW$263, DW_AT_begin_file("app_WIRmod_alg.c")
    4799                      .dwattr DW$263, DW_AT_begin_line(0x2ad)
    4800                      .dwattr DW$263, DW_AT_end_line(0x2c9)
    4801              DW$264  .dwtag  DW_TAG_loop_range
    4802                      .dwattr DW$264, DW_AT_low_pc(DW$L$_app_WIRmod_check_err_task$24$B)
    4803                      .dwattr DW$264, DW_AT_high_pc(DW$L$_app_WIRmod_check_err_task$24$E)
    4804              DW$265  .dwtag  DW_TAG_loop_range
    4805                      .dwattr DW$265, DW_AT_low_pc(DW$L$_app_WIRmod_check_err_task$26$B)
    4806                      .dwattr DW$265, DW_AT_high_pc(DW$L$_app_WIRmod_check_err_task$26$E)
    4807              DW$266  .dwtag  DW_TAG_loop_range
    4808                      .dwattr DW$266, DW_AT_low_pc(DW$L$_app_WIRmod_check_err_task$37$B)
    4809                      .dwattr DW$266, DW_AT_high_pc(DW$L$_app_WIRmod_check_err_task$37$E)
    4810              DW$267  .dwtag  DW_TAG_loop_range
    4811                      .dwattr DW$267, DW_AT_low_pc(DW$L$_app_WIRmod_check_err_task$39$B)
    4812                      .dwattr DW$267, DW_AT_high_pc(DW$L$_app_WIRmod_check_err_task$39$E)
    4813              
    4814              DW$268  .dwtag  DW_TAG_loop
    4815                      .dwattr DW$268, DW_AT_name("C:\DOCUME~1\ADMINI~1\LOCALS~1\Temp\TI8522:L78:3:1318056151")
    4816                      .dwattr DW$268, DW_AT_begin_file("app_WIRmod_alg.c")
    4817                      .dwattr DW$268, DW_AT_begin_line(0x2af)
    4818                      .dwattr DW$268, DW_AT_end_line(0x2b0)
    4819              DW$269  .dwtag  DW_TAG_loop_range
TMS320C2000 COFF Assembler PC v4.1.3 Sat Oct 08 14:42:32 2011

Tools Copyright (c) 1996-2006 Texas Instruments Incorporated
C:\DOCUME~1\ADMINI~1\LOCALS~1\Temp\TI8522                            PAGE  102

    4820                      .dwattr DW$269, DW_AT_low_pc(DW$L$_app_WIRmod_check_err_task$25$B)
    4821                      .dwattr DW$269, DW_AT_high_pc(DW$L$_app_WIRmod_check_err_task$25$E)
    4822                      .dwendtag DW$268
    4823              
    4824              
    4825              DW$270  .dwtag  DW_TAG_loop
    4826                      .dwattr DW$270, DW_AT_name("C:\DOCUME~1\ADMINI~1\LOCALS~1\Temp\TI8522:L80:3:1318056151")
    4827                      .dwattr DW$270, DW_AT_begin_file("app_WIRmod_alg.c")
    4828                      .dwattr DW$270, DW_AT_begin_line(0x2b3)
    4829                      .dwattr DW$270, DW_AT_end_line(0x2c2)
    4830              DW$271  .dwtag  DW_TAG_loop_range
    4831                      .dwattr DW$271, DW_AT_low_pc(DW$L$_app_WIRmod_check_err_task$27$B)
    4832                      .dwattr DW$271, DW_AT_high_pc(DW$L$_app_WIRmod_check_err_task$27$E)
    4833              DW$272  .dwtag  DW_TAG_loop_range
    4834                      .dwattr DW$272, DW_AT_low_pc(DW$L$_app_WIRmod_check_err_task$33$B)
    4835                      .dwattr DW$272, DW_AT_high_pc(DW$L$_app_WIRmod_check_err_task$33$E)
    4836              DW$273  .dwtag  DW_TAG_loop_range
    4837                      .dwattr DW$273, DW_AT_low_pc(DW$L$_app_WIRmod_check_err_task$31$B)
    4838                      .dwattr DW$273, DW_AT_high_pc(DW$L$_app_WIRmod_check_err_task$31$E)
    4839              DW$274  .dwtag  DW_TAG_loop_range
    4840                      .dwattr DW$274, DW_AT_low_pc(DW$L$_app_WIRmod_check_err_task$28$B)
    4841                      .dwattr DW$274, DW_AT_high_pc(DW$L$_app_WIRmod_check_err_task$28$E)
    4842              DW$275  .dwtag  DW_TAG_loop_range
    4843                      .dwattr DW$275, DW_AT_low_pc(DW$L$_app_WIRmod_check_err_task$29$B)
    4844                      .dwattr DW$275, DW_AT_high_pc(DW$L$_app_WIRmod_check_err_task$29$E)
    4845              DW$276  .dwtag  DW_TAG_loop_range
    4846                      .dwattr DW$276, DW_AT_low_pc(DW$L$_app_WIRmod_check_err_task$30$B)
    4847                      .dwattr DW$276, DW_AT_high_pc(DW$L$_app_WIRmod_check_err_task$30$E)
    4848              DW$277  .dwtag  DW_TAG_loop_range
    4849                      .dwattr DW$277, DW_AT_low_pc(DW$L$_app_WIRmod_check_err_task$32$B)
    4850                      .dwattr DW$277, DW_AT_high_pc(DW$L$_app_WIRmod_check_err_task$32$E)
    4851              DW$278  .dwtag  DW_TAG_loop_range
    4852                      .dwattr DW$278, DW_AT_low_pc(DW$L$_app_WIRmod_check_err_task$34$B)
    4853                      .dwattr DW$278, DW_AT_high_pc(DW$L$_app_WIRmod_check_err_task$34$E)
    4854              DW$279  .dwtag  DW_TAG_loop_range
    4855                      .dwattr DW$279, DW_AT_low_pc(DW$L$_app_WIRmod_check_err_task$35$B)
    4856                      .dwattr DW$279, DW_AT_high_pc(DW$L$_app_WIRmod_check_err_task$35$E)
    4857              DW$280  .dwtag  DW_TAG_loop_range
    4858                      .dwattr DW$280, DW_AT_low_pc(DW$L$_app_WIRmod_check_err_task$36$B)
    4859                      .dwattr DW$280, DW_AT_high_pc(DW$L$_app_WIRmod_check_err_task$36$E)
    4860                      .dwendtag DW$270
    4861              
    4862              
    4863              DW$281  .dwtag  DW_TAG_loop
    4864                      .dwattr DW$281, DW_AT_name("C:\DOCUME~1\ADMINI~1\LOCALS~1\Temp\TI8522:L87:3:1318056151")
    4865                      .dwattr DW$281, DW_AT_begin_file("app_WIRmod_alg.c")
    4866                      .dwattr DW$281, DW_AT_begin_line(0x2c5)
    4867                      .dwattr DW$281, DW_AT_end_line(0x2c6)
    4868              DW$282  .dwtag  DW_TAG_loop_range
    4869                      .dwattr DW$282, DW_AT_low_pc(DW$L$_app_WIRmod_check_err_task$38$B)
    4870                      .dwattr DW$282, DW_AT_high_pc(DW$L$_app_WIRmod_check_err_task$38$E)
    4871                      .dwendtag DW$281
    4872              
    4873                      .dwendtag DW$263
    4874              
TMS320C2000 COFF Assembler PC v4.1.3 Sat Oct 08 14:42:32 2011

Tools Copyright (c) 1996-2006 Texas Instruments Incorporated
C:\DOCUME~1\ADMINI~1\LOCALS~1\Temp\TI8522                            PAGE  103

    4875                      .dwendtag DW$239
    4876              
    4877                      .dwattr DW$229, DW_AT_end_file("app_WIRmod_alg.c")
    4878                      .dwattr DW$229, DW_AT_end_line(0x2ce)
    4879                      .dwattr DW$229, DW_AT_end_column(0x01)
    4880                      .dwendentry
    4881                      .dwendtag DW$229
    4882              
    4883 000007e9               .sect   ".text"
    4884                      .global _app_WIRmod_alg_entery
    4885              
    4886              DW$283  .dwtag  DW_TAG_subprogram, DW_AT_name("app_WIRmod_alg_entery"), DW_AT_symbol_name("_app_WIRmod_alg_en
    4887                      .dwattr DW$283, DW_AT_low_pc(_app_WIRmod_alg_entery)
    4888                      .dwattr DW$283, DW_AT_high_pc(0x00)
    4889                      .dwattr DW$283, DW_AT_begin_file("app_WIRmod_alg.c")
    4890                      .dwattr DW$283, DW_AT_begin_line(0x2d7)
    4891                      .dwattr DW$283, DW_AT_begin_column(0x06)
    4892                      .dwpsn  "app_WIRmod_alg.c",728,1
    4893              
    4894                      .dwfde DW$CIE
    4895              
    4896              ;***************************************************************
    4897              ;* FNAME: _app_WIRmod_alg_entery        FR SIZE:   0           *
    4898              ;*                                                             *
    4899              ;* FUNCTION ENVIRONMENT                                        *
    4900              ;*                                                             *
    4901              ;* FUNCTION PROPERTIES                                         *
    4902              ;*                            0 Parameter,  0 Auto,  0 SOE     *
    4903              ;***************************************************************
    4904              
    4905              _app_WIRmod_alg_entery:
    4906                      .dwcfa  0x1d, -2
    4907                      .dwcfa  0x1c, 26, 0
    4908                      .dwcfa  0x09, 40, 26
    4909                      .dwpsn  "app_WIRmod_alg.c",729,2
    4910 000007e9 9A1F          MOVB      AL,#31                ; |729| 
    4911 000007ea 8F40+         MOVL      XAR5,#FSL65           ; |729| 
         000007eb 0774 
    4912 000007ec 8F00-         MOVL      XAR4,#_cha_x          ; |729| 
         000007ed 0040 
    4913 000007ee 7640!         LCR       #_global_memcpy       ; |729| 
         000007ef 0000 
    4914                      ; call occurs [#_global_memcpy] ; |729| 
    4915                      .dwpsn  "app_WIRmod_alg.c",730,2
    4916 000007f0 9A1F          MOVB      AL,#31                ; |730| 
    4917 000007f1 8F40+         MOVL      XAR5,#FSL65           ; |730| 
         000007f2 0774 
    4918 000007f3 8F00-         MOVL      XAR4,#_cha_x+32       ; |730| 
         000007f4 0060 
    4919 000007f5 7640!         LCR       #_global_memcpy       ; |730| 
         000007f6 0000 
    4920                      ; call occurs [#_global_memcpy] ; |730| 
    4921                      .dwpsn  "app_WIRmod_alg.c",731,2
    4922 000007f7 9A1F          MOVB      AL,#31                ; |731| 
    4923 000007f8 8F40+         MOVL      XAR5,#FSL65           ; |731| 
TMS320C2000 COFF Assembler PC v4.1.3 Sat Oct 08 14:42:32 2011

Tools Copyright (c) 1996-2006 Texas Instruments Incorporated
C:\DOCUME~1\ADMINI~1\LOCALS~1\Temp\TI8522                            PAGE  104

         000007f9 0774 
    4924 000007fa 8F00-         MOVL      XAR4,#_cha_x+64       ; |731| 
         000007fb 0080 
    4925 000007fc 7640!         LCR       #_global_memcpy       ; |731| 
         000007fd 0000 
    4926                      ; call occurs [#_global_memcpy] ; |731| 
    4927                      .dwpsn  "app_WIRmod_alg.c",732,2
    4928 000007fe 9A1F          MOVB      AL,#31                ; |732| 
    4929 000007ff 8F40+         MOVL      XAR5,#FSL65           ; |732| 
         00000800 0774 
    4930 00000801 8F00-         MOVL      XAR4,#_cha_x+96       ; |732| 
         00000802 00A0 
    4931 00000803 7640!         LCR       #_global_memcpy       ; |732| 
         00000804 0000 
    4932                      ; call occurs [#_global_memcpy] ; |732| 
    4933                      .dwpsn  "app_WIRmod_alg.c",733,2
    4934 00000805 9A00          MOVB      AL,#0
    4935 00000806 8F00-         MOVL      XAR4,#_m_WIRmod_sem   ; |733| 
         00000807 000E 
    4936 00000808 7640!         LCR       #_os_sem_creat        ; |733| 
         00000809 0000 
    4937                      ; call occurs [#_os_sem_creat] ; |733| 
    4938                      .dwpsn  "app_WIRmod_alg.c",734,2
    4939 0000080a 28A9          MOV       AL,#276               ; |734| 
         0000080b 0114 
    4940 0000080c 7640!         LCR       #_app_malloc          ; |734| 
         0000080d 0000 
    4941                      ; call occurs [#_app_malloc] ; |734| 
    4942 0000080e 761F-         MOVW      DP,#_m_alg_presult
         0000080f 0000 
    4943 00000810 A80C-         MOVL      @_m_alg_presult,XAR4  ; |734| 
    4944                      .dwpsn  "app_WIRmod_alg.c",735,2
    4945 00000811 060C-         MOVL      ACC,@_m_alg_presult   ; |735| 
    4946 00000812 ED03          BF        L90,NEQ               ; |735| 
    4947                      ; branchcc occurs ; |735| 
    4948                      .dwpsn  "app_WIRmod_alg.c",735,23
    4949 00000813 7640!         LCR       #_mod_err_inlet       ; |735| 
         00000814 0000 
    4950                      ; call occurs [#_mod_err_inlet] ; |735| 
    4951              L90:    
    4952                      .dwpsn  "app_WIRmod_alg.c",736,2
    4953 00000815 9A04          MOVB      AL,#4                 ; |736| 
    4954 00000816 8F00'         MOVL      XAR4,#_app_WIRmod_check_err_task ; |736| 
         00000817 0632 
    4955 00000818 7640!         LCR       #_os_task_assign_stk_build ; |736| 
         00000819 0000 
    4956                      ; call occurs [#_os_task_assign_stk_build] ; |736| 
    4957 0000081a 761F-         MOVW      DP,#_m_WIRmod_Cline_task_pro
         0000081b 0000 
    4958 0000081c 9601-         MOV       @_m_WIRmod_Cline_task_pro,AL ; |736| 
    4959                      .dwpsn  "app_WIRmod_alg.c",738,2
    4960 0000081d 8F00+         MOVL      XAR4,#FSL66           ; |738| 
         0000081e 0792 
    4961 0000081f 7640!         LCR       #_os_task_name_set    ; |738| 
         00000820 0000 
TMS320C2000 COFF Assembler PC v4.1.3 Sat Oct 08 14:42:32 2011

Tools Copyright (c) 1996-2006 Texas Instruments Incorporated
C:\DOCUME~1\ADMINI~1\LOCALS~1\Temp\TI8522                            PAGE  105

    4962                      ; call occurs [#_os_task_name_set] ; |738| 
    4963                      .dwpsn  "app_WIRmod_alg.c",739,2
    4964 00000821 7640!         LCR       #_app_global_DL_measure_entery ; |739| 
         00000822 0000 
    4965                      ; call occurs [#_app_global_DL_measure_entery] ; |739| 
    4966                      .dwpsn  "app_WIRmod_alg.c",740,2
    4967                      .dwpsn  "app_WIRmod_alg.c",741,1
    4968 00000823 0006          LRETR
    4969                      ; return occurs
    4970                      .dwattr DW$283, DW_AT_end_file("app_WIRmod_alg.c")
    4971                      .dwattr DW$283, DW_AT_end_line(0x2e5)
    4972                      .dwattr DW$283, DW_AT_end_column(0x01)
    4973                      .dwendentry
    4974                      .dwendtag DW$283
    4975              
    4976 00000824               .sect   ".text"
    4977                      .global _app_WIRmod_alg_exit
    4978              
    4979              DW$284  .dwtag  DW_TAG_subprogram, DW_AT_name("app_WIRmod_alg_exit"), DW_AT_symbol_name("_app_WIRmod_alg_exit
    4980                      .dwattr DW$284, DW_AT_low_pc(_app_WIRmod_alg_exit)
    4981                      .dwattr DW$284, DW_AT_high_pc(0x00)
    4982                      .dwattr DW$284, DW_AT_begin_file("app_WIRmod_alg.c")
    4983                      .dwattr DW$284, DW_AT_begin_line(0x2ee)
    4984                      .dwattr DW$284, DW_AT_begin_column(0x06)
    4985                      .dwpsn  "app_WIRmod_alg.c",751,1
    4986              
    4987                      .dwfde DW$CIE
    4988              
    4989              ;***************************************************************
    4990              ;* FNAME: _app_WIRmod_alg_exit          FR SIZE:   0           *
    4991              ;*                                                             *
    4992              ;* FUNCTION ENVIRONMENT                                        *
    4993              ;*                                                             *
    4994              ;* FUNCTION PROPERTIES                                         *
    4995              ;*                            0 Parameter,  0 Auto,  0 SOE     *
    4996              ;***************************************************************
    4997              
    4998              _app_WIRmod_alg_exit:
    4999                      .dwcfa  0x1d, -2
    5000                      .dwcfa  0x1c, 26, 0
    5001                      .dwcfa  0x09, 40, 26
    5002                      .dwpsn  "app_WIRmod_alg.c",752,2
    5003 00000824 761F-         MOVW      DP,#_m_alg_presult
         00000825 0000 
    5004 00000826 8A0C-         MOVL      XAR4,@_m_alg_presult  ; |752| 
    5005 00000827 7640!         LCR       #_app_free            ; |752| 
         00000828 0000 
    5006                      ; call occurs [#_app_free] ; |752| 
    5007                      .dwpsn  "app_WIRmod_alg.c",753,2
    5008 00000829 761F-         MOVW      DP,#_m_WIRmod_Cline_task_pro
         0000082a 0000 
    5009 0000082b 9201-         MOV       AL,@_m_WIRmod_Cline_task_pro ; |753| 
    5010 0000082c 7640!         LCR       #_os_task_delete      ; |753| 
         0000082d 0000 
    5011                      ; call occurs [#_os_task_delete] ; |753| 
TMS320C2000 COFF Assembler PC v4.1.3 Sat Oct 08 14:42:32 2011

Tools Copyright (c) 1996-2006 Texas Instruments Incorporated
C:\DOCUME~1\ADMINI~1\LOCALS~1\Temp\TI8522                            PAGE  106

    5012                      .dwpsn  "app_WIRmod_alg.c",754,2
    5013 0000082e 7640!         LCR       #_app_global_DL_measure_exit ; |754| 
         0000082f 0000 
    5014                      ; call occurs [#_app_global_DL_measure_exit] ; |754| 
    5015                      .dwpsn  "app_WIRmod_alg.c",755,2
    5016                      .dwpsn  "app_WIRmod_alg.c",756,1
    5017 00000830 0006          LRETR
    5018                      ; return occurs
    5019                      .dwattr DW$284, DW_AT_end_file("app_WIRmod_alg.c")
    5020                      .dwattr DW$284, DW_AT_end_line(0x2f4)
    5021                      .dwattr DW$284, DW_AT_end_column(0x01)
    5022                      .dwendentry
    5023                      .dwendtag DW$284
    5024              
    5025              ;***************************************************************
    5026              ;* FAR STRINGS                                                 *
    5027              ;***************************************************************
    5028 00000488               .sect   ".econst"
    5029                      .align  2
    5030 00000488 0055  FSL1:   .string "Ua Ub Uc",0
         00000489 0061 
         0000048a 0020 
         0000048b 0055 
         0000048c 0062 
         0000048d 0020 
         0000048e 0055 
         0000048f 0063 
         00000490 0000 
    5031                      .align  2
    5032 00000492 0020  FSL2:   .string " ia      ic",0
         00000493 0069 
         00000494 0061 
         00000495 0020 
         00000496 0020 
         00000497 0020 
         00000498 0020 
         00000499 0020 
         0000049a 0020 
         0000049b 0069 
         0000049c 0063 
         0000049d 0000 
    5033                      .align  2
    5034 0000049e 0020  FSL3:   .string " ic      ia",0
         0000049f 0069 
         000004a0 0063 
         000004a1 0020 
         000004a2 0020 
         000004a3 0020 
         000004a4 0020 
         000004a5 0020 
         000004a6 0020 
         000004a7 0069 
         000004a8 0061 
         000004a9 0000 
    5035                      .align  2
TMS320C2000 COFF Assembler PC v4.1.3 Sat Oct 08 14:42:32 2011

Tools Copyright (c) 1996-2006 Texas Instruments Incorporated
C:\DOCUME~1\ADMINI~1\LOCALS~1\Temp\TI8522                            PAGE  107

    5036 000004aa 002D  FSL4:   .string "-ia     -ic",0
         000004ab 0069 
         000004ac 0061 
         000004ad 0020 
         000004ae 0020 
         000004af 0020 
         000004b0 0020 
         000004b1 0020 
         000004b2 002D 
         000004b3 0069 
         000004b4 0063 
         000004b5 0000 
    5037                      .align  2
    5038 000004b6 002D  FSL5:   .string "-ic     -ia",0
         000004b7 0069 
         000004b8 0063 
         000004b9 0020 
         000004ba 0020 
         000004bb 0020 
         000004bc 0020 
         000004bd 0020 
         000004be 002D 
         000004bf 0069 
         000004c0 0061 
         000004c1 0000 
    5039                      .align  2
    5040 000004c2 002D  FSL6:   .string "-ia      ic",0
         000004c3 0069 
         000004c4 0061 
         000004c5 0020 
         000004c6 0020 
         000004c7 0020 
         000004c8 0020 
         000004c9 0020 
         000004ca 0020 
         000004cb 0069 
         000004cc 0063 
         000004cd 0000 
    5041                      .align  2
    5042 000004ce 002D  FSL7:   .string "-ic      ia",0
         000004cf 0069 
         000004d0 0063 
         000004d1 0020 
         000004d2 0020 
         000004d3 0020 
         000004d4 0020 
         000004d5 0020 
         000004d6 0020 
         000004d7 0069 
         000004d8 0061 
         000004d9 0000 
    5043                      .align  2
    5044 000004da 0020  FSL8:   .string " ia     -ic",0
         000004db 0069 
         000004dc 0061 
TMS320C2000 COFF Assembler PC v4.1.3 Sat Oct 08 14:42:32 2011

Tools Copyright (c) 1996-2006 Texas Instruments Incorporated
C:\DOCUME~1\ADMINI~1\LOCALS~1\Temp\TI8522                            PAGE  108

         000004dd 0020 
         000004de 0020 
         000004df 0020 
         000004e0 0020 
         000004e1 0020 
         000004e2 002D 
         000004e3 0069 
         000004e4 0063 
         000004e5 0000 
    5045                      .align  2
    5046 000004e6 0020  FSL9:   .string " ic     -ia",0
         000004e7 0069 
         000004e8 0063 
         000004e9 0020 
         000004ea 0020 
         000004eb 0020 
         000004ec 0020 
         000004ed 0020 
         000004ee 002D 
         000004ef 0069 
         000004f0 0061 
         000004f1 0000 
    5047                      .align  2
    5048 000004f2 0055  FSL10:  .string "Ub Uc Ua",0
         000004f3 0062 
         000004f4 0020 
         000004f5 0055 
         000004f6 0063 
         000004f7 0020 
         000004f8 0055 
         000004f9 0061 
         000004fa 0000 
    5049                      .align  2
    5050 000004fc 0055  FSL11:  .string "Uc Ua Ub",0
         000004fd 0063 
         000004fe 0020 
         000004ff 0055 
         00000500 0061 
         00000501 0020 
         00000502 0055 
         00000503 0062 
         00000504 0000 
    5051                      .align  2
    5052 00000506 0055  FSL12:  .string "Ua Uc Ub",0
         00000507 0061 
         00000508 0020 
         00000509 0055 
         0000050a 0063 
         0000050b 0020 
         0000050c 0055 
         0000050d 0062 
         0000050e 0000 
    5053                      .align  2
    5054 00000510 0055  FSL13:  .string "Ub Ua Uc",0
         00000511 0062 
TMS320C2000 COFF Assembler PC v4.1.3 Sat Oct 08 14:42:32 2011

Tools Copyright (c) 1996-2006 Texas Instruments Incorporated
C:\DOCUME~1\ADMINI~1\LOCALS~1\Temp\TI8522                            PAGE  109

         00000512 0020 
         00000513 0055 
         00000514 0061 
         00000515 0020 
         00000516 0055 
         00000517 0063 
         00000518 0000 
    5055                      .align  2
    5056 0000051a 0055  FSL14:  .string "Uc Ub Ua",0
         0000051b 0063 
         0000051c 0020 
         0000051d 0055 
         0000051e 0062 
         0000051f 0020 
         00000520 0055 
         00000521 0061 
         00000522 0000 
    5057                      .align  2
    5058 00000524 0020  FSL15:  .string " ia  ib  ic",0
         00000525 0069 
         00000526 0061 
         00000527 0020 
         00000528 0020 
         00000529 0069 
         0000052a 0062 
         0000052b 0020 
         0000052c 0020 
         0000052d 0069 
         0000052e 0063 
         0000052f 0000 
    5059                      .align  2
    5060 00000530 0020  FSL16:  .string " ia  ib -ic",0
         00000531 0069 
         00000532 0061 
         00000533 0020 
         00000534 0020 
         00000535 0069 
         00000536 0062 
         00000537 0020 
         00000538 002D 
         00000539 0069 
         0000053a 0063 
         0000053b 0000 
    5061                      .align  2
    5062 0000053c 0020  FSL17:  .string " ia -ib  ic",0
         0000053d 0069 
         0000053e 0061 
         0000053f 0020 
         00000540 002D 
         00000541 0069 
         00000542 0062 
         00000543 0020 
         00000544 0020 
         00000545 0069 
         00000546 0063 
TMS320C2000 COFF Assembler PC v4.1.3 Sat Oct 08 14:42:32 2011

Tools Copyright (c) 1996-2006 Texas Instruments Incorporated
C:\DOCUME~1\ADMINI~1\LOCALS~1\Temp\TI8522                            PAGE  110

         00000547 0000 
    5063                      .align  2
    5064 00000548 0020  FSL18:  .string " ia -ib -ic",0
         00000549 0069 
         0000054a 0061 
         0000054b 0020 
         0000054c 002D 
         0000054d 0069 
         0000054e 0062 
         0000054f 0020 
         00000550 002D 
         00000551 0069 
         00000552 0063 
         00000553 0000 
    5065                      .align  2
    5066 00000554 0020  FSL19:  .string " ia  ic  ib",0
         00000555 0069 
         00000556 0061 
         00000557 0020 
         00000558 0020 
         00000559 0069 
         0000055a 0063 
         0000055b 0020 
         0000055c 0020 
         0000055d 0069 
         0000055e 0062 
         0000055f 0000 
    5067                      .align  2
    5068 00000560 0020  FSL20:  .string " ia  ic -ib",0
         00000561 0069 
         00000562 0061 
         00000563 0020 
         00000564 0020 
         00000565 0069 
         00000566 0063 
         00000567 0020 
         00000568 002D 
         00000569 0069 
         0000056a 0062 
         0000056b 0000 
    5069                      .align  2
    5070 0000056c 0020  FSL21:  .string " ia -ic  ib",0
         0000056d 0069 
         0000056e 0061 
         0000056f 0020 
         00000570 002D 
         00000571 0069 
         00000572 0063 
         00000573 0020 
         00000574 0020 
         00000575 0069 
         00000576 0062 
         00000577 0000 
    5071                      .align  2
    5072 00000578 0020  FSL22:  .string " ia -ic -ib",0
TMS320C2000 COFF Assembler PC v4.1.3 Sat Oct 08 14:42:32 2011

Tools Copyright (c) 1996-2006 Texas Instruments Incorporated
C:\DOCUME~1\ADMINI~1\LOCALS~1\Temp\TI8522                            PAGE  111

         00000579 0069 
         0000057a 0061 
         0000057b 0020 
         0000057c 002D 
         0000057d 0069 
         0000057e 0063 
         0000057f 0020 
         00000580 002D 
         00000581 0069 
         00000582 0062 
         00000583 0000 
    5073                      .align  2
    5074 00000584 002D  FSL23:  .string "-ia  ib  ic",0
         00000585 0069 
         00000586 0061 
         00000587 0020 
         00000588 0020 
         00000589 0069 
         0000058a 0062 
         0000058b 0020 
         0000058c 0020 
         0000058d 0069 
         0000058e 0063 
         0000058f 0000 
    5075                      .align  2
    5076 00000590 002D  FSL24:  .string "-ia  ib -ic",0
         00000591 0069 
         00000592 0061 
         00000593 0020 
         00000594 0020 
         00000595 0069 
         00000596 0062 
         00000597 0020 
         00000598 002D 
         00000599 0069 
         0000059a 0063 
         0000059b 0000 
    5077                      .align  2
    5078 0000059c 002D  FSL25:  .string "-ia -ib  ic",0
         0000059d 0069 
         0000059e 0061 
         0000059f 0020 
         000005a0 002D 
         000005a1 0069 
         000005a2 0062 
         000005a3 0020 
         000005a4 0020 
         000005a5 0069 
         000005a6 0063 
         000005a7 0000 
    5079                      .align  2
    5080 000005a8 002D  FSL26:  .string "-ia -ib -ic",0
         000005a9 0069 
         000005aa 0061 
         000005ab 0020 
TMS320C2000 COFF Assembler PC v4.1.3 Sat Oct 08 14:42:32 2011

Tools Copyright (c) 1996-2006 Texas Instruments Incorporated
C:\DOCUME~1\ADMINI~1\LOCALS~1\Temp\TI8522                            PAGE  112

         000005ac 002D 
         000005ad 0069 
         000005ae 0062 
         000005af 0020 
         000005b0 002D 
         000005b1 0069 
         000005b2 0063 
         000005b3 0000 
    5081                      .align  2
    5082 000005b4 002D  FSL27:  .string "-ia  ic  ib",0
         000005b5 0069 
         000005b6 0061 
         000005b7 0020 
         000005b8 0020 
         000005b9 0069 
         000005ba 0063 
         000005bb 0020 
         000005bc 0020 
         000005bd 0069 
         000005be 0062 
         000005bf 0000 
    5083                      .align  2
    5084 000005c0 002D  FSL28:  .string "-ia  ic -ib",0
         000005c1 0069 
         000005c2 0061 
         000005c3 0020 
         000005c4 0020 
         000005c5 0069 
         000005c6 0063 
         000005c7 0020 
         000005c8 002D 
         000005c9 0069 
         000005ca 0062 
         000005cb 0000 
    5085                      .align  2
    5086 000005cc 002D  FSL29:  .string "-ia -ic  ib",0
         000005cd 0069 
         000005ce 0061 
         000005cf 0020 
         000005d0 002D 
         000005d1 0069 
         000005d2 0063 
         000005d3 0020 
         000005d4 0020 
         000005d5 0069 
         000005d6 0062 
         000005d7 0000 
    5087                      .align  2
    5088 000005d8 002D  FSL30:  .string "-ia -ic -ib",0
         000005d9 0069 
         000005da 0061 
         000005db 0020 
         000005dc 002D 
         000005dd 0069 
         000005de 0063 
TMS320C2000 COFF Assembler PC v4.1.3 Sat Oct 08 14:42:32 2011

Tools Copyright (c) 1996-2006 Texas Instruments Incorporated
C:\DOCUME~1\ADMINI~1\LOCALS~1\Temp\TI8522                            PAGE  113

         000005df 0020 
         000005e0 002D 
         000005e1 0069 
         000005e2 0062 
         000005e3 0000 
    5089                      .align  2
    5090 000005e4 0020  FSL31:  .string " ib  ia  ic",0
         000005e5 0069 
         000005e6 0062 
         000005e7 0020 
         000005e8 0020 
         000005e9 0069 
         000005ea 0061 
         000005eb 0020 
         000005ec 0020 
         000005ed 0069 
         000005ee 0063 
         000005ef 0000 
    5091                      .align  2
    5092 000005f0 0020  FSL32:  .string " ib  ia -ic",0
         000005f1 0069 
         000005f2 0062 
         000005f3 0020 
         000005f4 0020 
         000005f5 0069 
         000005f6 0061 
         000005f7 0020 
         000005f8 002D 
         000005f9 0069 
         000005fa 0063 
         000005fb 0000 
    5093                      .align  2
    5094 000005fc 0020  FSL33:  .string " ib -ia  ic",0
         000005fd 0069 
         000005fe 0062 
         000005ff 0020 
         00000600 002D 
         00000601 0069 
         00000602 0061 
         00000603 0020 
         00000604 0020 
         00000605 0069 
         00000606 0063 
         00000607 0000 
    5095                      .align  2
    5096 00000608 0020  FSL34:  .string " ib -ia -ic",0
         00000609 0069 
         0000060a 0062 
         0000060b 0020 
         0000060c 002D 
         0000060d 0069 
         0000060e 0061 
         0000060f 0020 
         00000610 002D 
         00000611 0069 
TMS320C2000 COFF Assembler PC v4.1.3 Sat Oct 08 14:42:32 2011

Tools Copyright (c) 1996-2006 Texas Instruments Incorporated
C:\DOCUME~1\ADMINI~1\LOCALS~1\Temp\TI8522                            PAGE  114

         00000612 0063 
         00000613 0000 
    5097                      .align  2
    5098 00000614 0020  FSL35:  .string " ib  ic  ia",0
         00000615 0069 
         00000616 0062 
         00000617 0020 
         00000618 0020 
         00000619 0069 
         0000061a 0063 
         0000061b 0020 
         0000061c 0020 
         0000061d 0069 
         0000061e 0061 
         0000061f 0000 
    5099                      .align  2
    5100 00000620 0055  FSL36:  .string "Ua ub Uc",0
         00000621 0061 
         00000622 0020 
         00000623 0075 
         00000624 0062 
         00000625 0020 
         00000626 0055 
         00000627 0063 
         00000628 0000 
    5101                      .align  2
    5102 0000062a 0020  FSL37:  .string " ib  ic -ia",0
         0000062b 0069 
         0000062c 0062 
         0000062d 0020 
         0000062e 0020 
         0000062f 0069 
         00000630 0063 
         00000631 0020 
         00000632 002D 
         00000633 0069 
         00000634 0061 
         00000635 0000 
    5103                      .align  2
    5104 00000636 0020  FSL38:  .string " ib -ic  ia",0
         00000637 0069 
         00000638 0062 
         00000639 0020 
         0000063a 002D 
         0000063b 0069 
         0000063c 0063 
         0000063d 0020 
         0000063e 0020 
         0000063f 0069 
         00000640 0061 
         00000641 0000 
    5105                      .align  2
    5106 00000642 0020  FSL39:  .string " ib -ic -ia",0
         00000643 0069 
         00000644 0062 
TMS320C2000 COFF Assembler PC v4.1.3 Sat Oct 08 14:42:32 2011

Tools Copyright (c) 1996-2006 Texas Instruments Incorporated
C:\DOCUME~1\ADMINI~1\LOCALS~1\Temp\TI8522                            PAGE  115

         00000645 0020 
         00000646 002D 
         00000647 0069 
         00000648 0063 
         00000649 0020 
         0000064a 002D 
         0000064b 0069 
         0000064c 0061 
         0000064d 0000 
    5107                      .align  2
    5108 0000064e 002D  FSL40:  .string "-ib  ia  ic",0
         0000064f 0069 
         00000650 0062 
         00000651 0020 
         00000652 0020 
         00000653 0069 
         00000654 0061 
         00000655 0020 
         00000656 0020 
         00000657 0069 
         00000658 0063 
         00000659 0000 
    5109                      .align  2
    5110 0000065a 002D  FSL41:  .string "-ib  ia -ic",0
         0000065b 0069 
         0000065c 0062 
         0000065d 0020 
         0000065e 0020 
         0000065f 0069 
         00000660 0061 
         00000661 0020 
         00000662 002D 
         00000663 0069 
         00000664 0063 
         00000665 0000 
    5111                      .align  2
    5112 00000666 002D  FSL42:  .string "-ib -ia  ic",0
         00000667 0069 
         00000668 0062 
         00000669 0020 
         0000066a 002D 
         0000066b 0069 
         0000066c 0061 
         0000066d 0020 
         0000066e 0020 
         0000066f 0069 
         00000670 0063 
         00000671 0000 
    5113                      .align  2
    5114 00000672 002D  FSL43:  .string "-ib -ia -ic",0
         00000673 0069 
         00000674 0062 
         00000675 0020 
         00000676 002D 
         00000677 0069 
TMS320C2000 COFF Assembler PC v4.1.3 Sat Oct 08 14:42:32 2011

Tools Copyright (c) 1996-2006 Texas Instruments Incorporated
C:\DOCUME~1\ADMINI~1\LOCALS~1\Temp\TI8522                            PAGE  116

         00000678 0061 
         00000679 0020 
         0000067a 002D 
         0000067b 0069 
         0000067c 0063 
         0000067d 0000 
    5115                      .align  2
    5116 0000067e 002D  FSL44:  .string "-ib  ic  ia",0
         0000067f 0069 
         00000680 0062 
         00000681 0020 
         00000682 0020 
         00000683 0069 
         00000684 0063 
         00000685 0020 
         00000686 0020 
         00000687 0069 
         00000688 0061 
         00000689 0000 
    5117                      .align  2
    5118 0000068a 002D  FSL45:  .string "-ib  ic -ia",0
         0000068b 0069 
         0000068c 0062 
         0000068d 0020 
         0000068e 0020 
         0000068f 0069 
         00000690 0063 
         00000691 0020 
         00000692 002D 
         00000693 0069 
         00000694 0061 
         00000695 0000 
    5119                      .align  2
    5120 00000696 002D  FSL46:  .string "-ib -ic  ia",0
         00000697 0069 
         00000698 0062 
         00000699 0020 
         0000069a 002D 
         0000069b 0069 
         0000069c 0063 
         0000069d 0020 
         0000069e 0020 
         0000069f 0069 
         000006a0 0061 
         000006a1 0000 
    5121                      .align  2
    5122 000006a2 002D  FSL47:  .string "-ib -ic -ia",0
         000006a3 0069 
         000006a4 0062 
         000006a5 0020 
         000006a6 002D 
         000006a7 0069 
         000006a8 0063 
         000006a9 0020 
         000006aa 002D 
TMS320C2000 COFF Assembler PC v4.1.3 Sat Oct 08 14:42:32 2011

Tools Copyright (c) 1996-2006 Texas Instruments Incorporated
C:\DOCUME~1\ADMINI~1\LOCALS~1\Temp\TI8522                            PAGE  117

         000006ab 0069 
         000006ac 0061 
         000006ad 0000 
    5123                      .align  2
    5124 000006ae 0020  FSL48:  .string " ic  ib  ia",0
         000006af 0069 
         000006b0 0063 
         000006b1 0020 
         000006b2 0020 
         000006b3 0069 
         000006b4 0062 
         000006b5 0020 
         000006b6 0020 
         000006b7 0069 
         000006b8 0061 
         000006b9 0000 
    5125                      .align  2
    5126 000006ba 0020  FSL49:  .string " ic  ib -ia",0
         000006bb 0069 
         000006bc 0063 
         000006bd 0020 
         000006be 0020 
         000006bf 0069 
         000006c0 0062 
         000006c1 0020 
         000006c2 002D 
         000006c3 0069 
         000006c4 0061 
         000006c5 0000 
    5127                      .align  2
    5128 000006c6 0020  FSL50:  .string " ic -ib  ia",0
         000006c7 0069 
         000006c8 0063 
         000006c9 0020 
         000006ca 002D 
         000006cb 0069 
         000006cc 0062 
         000006cd 0020 
         000006ce 0020 
         000006cf 0069 
         000006d0 0061 
         000006d1 0000 
    5129                      .align  2
    5130 000006d2 0020  FSL51:  .string " ic -ib -ia",0
         000006d3 0069 
         000006d4 0063 
         000006d5 0020 
         000006d6 002D 
         000006d7 0069 
         000006d8 0062 
         000006d9 0020 
         000006da 002D 
         000006db 0069 
         000006dc 0061 
         000006dd 0000 
TMS320C2000 COFF Assembler PC v4.1.3 Sat Oct 08 14:42:32 2011

Tools Copyright (c) 1996-2006 Texas Instruments Incorporated
C:\DOCUME~1\ADMINI~1\LOCALS~1\Temp\TI8522                            PAGE  118

    5131                      .align  2
    5132 000006de 0020  FSL52:  .string " ic  ia  ib",0
         000006df 0069 
         000006e0 0063 
         000006e1 0020 
         000006e2 0020 
         000006e3 0069 
         000006e4 0061 
         000006e5 0020 
         000006e6 0020 
         000006e7 0069 
         000006e8 0062 
         000006e9 0000 
    5133                      .align  2
    5134 000006ea 0020  FSL53:  .string " ic  ia -ib",0
         000006eb 0069 
         000006ec 0063 
         000006ed 0020 
         000006ee 0020 
         000006ef 0069 
         000006f0 0061 
         000006f1 0020 
         000006f2 002D 
         000006f3 0069 
         000006f4 0062 
         000006f5 0000 
    5135                      .align  2
    5136 000006f6 0020  FSL54:  .string " ic -ia  ib",0
         000006f7 0069 
         000006f8 0063 
         000006f9 0020 
         000006fa 002D 
         000006fb 0069 
         000006fc 0061 
         000006fd 0020 
         000006fe 0020 
         000006ff 0069 
         00000700 0062 
         00000701 0000 
    5137                      .align  2
    5138 00000702 0020  FSL55:  .string " ic -ia -ib",0
         00000703 0069 
         00000704 0063 
         00000705 0020 
         00000706 002D 
         00000707 0069 
         00000708 0061 
         00000709 0020 
         0000070a 002D 
         0000070b 0069 
         0000070c 0062 
         0000070d 0000 
    5139                      .align  2
    5140 0000070e 002D  FSL56:  .string "-ic  ib  ia",0
         0000070f 0069 
TMS320C2000 COFF Assembler PC v4.1.3 Sat Oct 08 14:42:32 2011

Tools Copyright (c) 1996-2006 Texas Instruments Incorporated
C:\DOCUME~1\ADMINI~1\LOCALS~1\Temp\TI8522                            PAGE  119

         00000710 0063 
         00000711 0020 
         00000712 0020 
         00000713 0069 
         00000714 0062 
         00000715 0020 
         00000716 0020 
         00000717 0069 
         00000718 0061 
         00000719 0000 
    5141                      .align  2
    5142 0000071a 002D  FSL57:  .string "-ic  ib -ia",0
         0000071b 0069 
         0000071c 0063 
         0000071d 0020 
         0000071e 0020 
         0000071f 0069 
         00000720 0062 
         00000721 0020 
         00000722 002D 
         00000723 0069 
         00000724 0061 
         00000725 0000 
    5143                      .align  2
    5144 00000726 002D  FSL58:  .string "-ic -ib  ia",0
         00000727 0069 
         00000728 0063 
         00000729 0020 
         0000072a 002D 
         0000072b 0069 
         0000072c 0062 
         0000072d 0020 
         0000072e 0020 
         0000072f 0069 
         00000730 0061 
         00000731 0000 
    5145                      .align  2
    5146 00000732 002D  FSL59:  .string "-ic -ib -ia",0
         00000733 0069 
         00000734 0063 
         00000735 0020 
         00000736 002D 
         00000737 0069 
         00000738 0062 
         00000739 0020 
         0000073a 002D 
         0000073b 0069 
         0000073c 0061 
         0000073d 0000 
    5147                      .align  2
    5148 0000073e 002D  FSL60:  .string "-ic  ia  ib",0
         0000073f 0069 
         00000740 0063 
         00000741 0020 
         00000742 0020 
TMS320C2000 COFF Assembler PC v4.1.3 Sat Oct 08 14:42:32 2011

Tools Copyright (c) 1996-2006 Texas Instruments Incorporated
C:\DOCUME~1\ADMINI~1\LOCALS~1\Temp\TI8522                            PAGE  120

         00000743 0069 
         00000744 0061 
         00000745 0020 
         00000746 0020 
         00000747 0069 
         00000748 0062 
         00000749 0000 
    5149                      .align  2
    5150 0000074a 002D  FSL61:  .string "-ic  ia -ib",0
         0000074b 0069 
         0000074c 0063 
         0000074d 0020 
         0000074e 0020 
         0000074f 0069 
         00000750 0061 
         00000751 0020 
         00000752 002D 
         00000753 0069 
         00000754 0062 
         00000755 0000 
    5151                      .align  2
    5152 00000756 002D  FSL62:  .string "-ic -ia  ib",0
         00000757 0069 
         00000758 0063 
         00000759 0020 
         0000075a 002D 
         0000075b 0069 
         0000075c 0061 
         0000075d 0020 
         0000075e 0020 
         0000075f 0069 
         00000760 0062 
         00000761 0000 
    5153                      .align  2
    5154 00000762 002D  FSL63:  .string "-ic -ia -ib",0
         00000763 0069 
         00000764 0063 
         00000765 0020 
         00000766 002D 
         00000767 0069 
         00000768 0061 
         00000769 0020 
         0000076a 002D 
         0000076b 0069 
         0000076c 0062 
         0000076d 0000 
    5155                      .align  2
    5156 0000076e 0031  FSL64:  .string "1.00",0
         0000076f 002E 
         00000770 0030 
         00000771 0030 
         00000772 0000 
    5157                      .align  2
    5158 00000774 0020  FSL65:  .string "                             ",0
         00000775 0020 
TMS320C2000 COFF Assembler PC v4.1.3 Sat Oct 08 14:42:32 2011

Tools Copyright (c) 1996-2006 Texas Instruments Incorporated
C:\DOCUME~1\ADMINI~1\LOCALS~1\Temp\TI8522                            PAGE  121

         00000776 0020 
         00000777 0020 
         00000778 0020 
         00000779 0020 
         0000077a 0020 
         0000077b 0020 
         0000077c 0020 
         0000077d 0020 
         0000077e 0020 
         0000077f 0020 
         00000780 0020 
         00000781 0020 
         00000782 0020 
         00000783 0020 
         00000784 0020 
         00000785 0020 
         00000786 0020 
         00000787 0020 
         00000788 0020 
         00000789 0020 
         0000078a 0020 
         0000078b 0020 
         0000078c 0020 
         0000078d 0020 
         0000078e 0020 
         0000078f 0020 
         00000790 0020 
         00000791 0000 
    5159                      .align  2
    5160 00000792 0057  FSL66:  .string "WIRmod--ALG task",0
         00000793 0049 
         00000794 0052 
         00000795 006D 
         00000796 006F 
         00000797 0064 
         00000798 002D 
         00000799 002D 
         0000079a 0041 
         0000079b 004C 
         0000079c 0047 
         0000079d 0020 
         0000079e 0074 
         0000079f 0061 
         000007a0 0073 
         000007a1 006B 
         000007a2 0000 
    5161              ;***************************************************************
    5162              ;* UNDEFINED EXTERNAL REFERENCES                               *
    5163              ;***************************************************************
    5164                      .global _app_free
    5165                      .global _global_memset
    5166                      .global _global_memcpy
    5167                      .global _OSTimeDly
    5168                      .global _app_global_DLarg_obtain
    5169                      .global _app_global_DLflag_obtain
TMS320C2000 COFF Assembler PC v4.1.3 Sat Oct 08 14:42:32 2011

Tools Copyright (c) 1996-2006 Texas Instruments Incorporated
C:\DOCUME~1\ADMINI~1\LOCALS~1\Temp\TI8522                            PAGE  122

    5170                      .global _OSSemPost
    5171                      .global _app_global_DL_measure_exit
    5172                      .global _mod_err_inlet
    5173                      .global _app_global_DL_measure_entery
    5174                      .global _os_task_delete
    5175                      .global _os_task_name_set
    5176                      .global _os_sem_creat
    5177                      .global _os_task_assign_stk_build
    5178                      .global _cos
    5179                      .global _strlen
    5180                      .global _app_malloc
    5181                      .global _global_strcpy
    5182                      .global _g_DL_param
    5183                      .global L$$MOD
    5184                      .global L$$DIV
    5185                      .global FS$$DIV
    5186                      .global I$$TOFS
    5187                      .global FS$$MPY
    5188                      .global FS$$TOL
    5189                      .global FS$$CMP
    5190                      .global I$$DIV
    5191                      .global FS$$SUB
    5192                      .global FS$$ADD
    5193                      .global FS$$TOI
    5194                      .global U$$MOD
    5195              
    5196              ;***************************************************************
    5197              ;* TYPE INFORMATION                                            *
    5198              ;***************************************************************
    5199              DW$T$3  .dwtag  DW_TAG_pointer_type
    5200                      .dwattr DW$T$3, DW_AT_address_class(0x16)
    5201              
    5202              DW$T$41 .dwtag  DW_TAG_subroutine_type, DW_AT_type(*DW$T$3)
    5203                      .dwattr DW$T$41, DW_AT_language(DW_LANG_C)
    5204              DW$285  .dwtag  DW_TAG_formal_parameter, DW_AT_type(*DW$T$40)
    5205                      .dwendtag DW$T$41
    5206              
    5207              
    5208              DW$T$43 .dwtag  DW_TAG_subroutine_type
    5209                      .dwattr DW$T$43, DW_AT_language(DW_LANG_C)
    5210              DW$286  .dwtag  DW_TAG_formal_parameter, DW_AT_type(*DW$T$20)
    5211                      .dwendtag DW$T$43
    5212              
    5213              
    5214              DW$T$45 .dwtag  DW_TAG_subroutine_type
    5215                      .dwattr DW$T$45, DW_AT_language(DW_LANG_C)
    5216              DW$287  .dwtag  DW_TAG_formal_parameter, DW_AT_type(*DW$T$3)
    5217                      .dwendtag DW$T$45
    5218              
    5219              DW$T$46 .dwtag  DW_TAG_pointer_type, DW_AT_type(*DW$T$45)
    5220                      .dwattr DW$T$46, DW_AT_address_class(0x16)
    5221              
    5222              DW$T$47 .dwtag  DW_TAG_subroutine_type
    5223                      .dwattr DW$T$47, DW_AT_language(DW_LANG_C)
    5224              DW$288  .dwtag  DW_TAG_formal_parameter, DW_AT_type(*DW$T$3)
TMS320C2000 COFF Assembler PC v4.1.3 Sat Oct 08 14:42:32 2011

Tools Copyright (c) 1996-2006 Texas Instruments Incorporated
C:\DOCUME~1\ADMINI~1\LOCALS~1\Temp\TI8522                            PAGE  123

    5225              DW$289  .dwtag  DW_TAG_formal_parameter, DW_AT_type(*DW$T$3)
    5226              DW$290  .dwtag  DW_TAG_formal_parameter, DW_AT_type(*DW$T$40)
    5227                      .dwendtag DW$T$47
    5228              
    5229              
    5230              DW$T$49 .dwtag  DW_TAG_subroutine_type
    5231                      .dwattr DW$T$49, DW_AT_language(DW_LANG_C)
    5232              DW$291  .dwtag  DW_TAG_formal_parameter, DW_AT_type(*DW$T$3)
    5233              DW$292  .dwtag  DW_TAG_formal_parameter, DW_AT_type(*DW$T$6)
    5234              DW$293  .dwtag  DW_TAG_formal_parameter, DW_AT_type(*DW$T$40)
    5235                      .dwendtag DW$T$49
    5236              
    5237              
    5238              DW$T$52 .dwtag  DW_TAG_subroutine_type
    5239                      .dwattr DW$T$52, DW_AT_language(DW_LANG_C)
    5240              DW$294  .dwtag  DW_TAG_formal_parameter, DW_AT_type(*DW$T$10)
    5241              DW$295  .dwtag  DW_TAG_formal_parameter, DW_AT_type(*DW$T$51)
    5242              DW$296  .dwtag  DW_TAG_formal_parameter, DW_AT_type(*DW$T$51)
    5243              DW$297  .dwtag  DW_TAG_formal_parameter, DW_AT_type(*DW$T$51)
    5244              DW$298  .dwtag  DW_TAG_formal_parameter, DW_AT_type(*DW$T$51)
    5245                      .dwendtag DW$T$52
    5246              
    5247              
    5248              DW$T$56 .dwtag  DW_TAG_subroutine_type
    5249                      .dwattr DW$T$56, DW_AT_language(DW_LANG_C)
    5250              DW$299  .dwtag  DW_TAG_formal_parameter, DW_AT_type(*DW$T$10)
    5251              DW$300  .dwtag  DW_TAG_formal_parameter, DW_AT_type(*DW$T$10)
    5252              DW$301  .dwtag  DW_TAG_formal_parameter, DW_AT_type(*DW$T$10)
    5253              DW$302  .dwtag  DW_TAG_formal_parameter, DW_AT_type(*DW$T$10)
    5254              DW$303  .dwtag  DW_TAG_formal_parameter, DW_AT_type(*DW$T$55)
    5255                      .dwendtag DW$T$56
    5256              
    5257              
    5258              DW$T$58 .dwtag  DW_TAG_subroutine_type
    5259                      .dwattr DW$T$58, DW_AT_language(DW_LANG_C)
    5260              DW$304  .dwtag  DW_TAG_formal_parameter, DW_AT_type(*DW$T$6)
    5261              DW$305  .dwtag  DW_TAG_formal_parameter, DW_AT_type(*DW$T$10)
    5262              DW$306  .dwtag  DW_TAG_formal_parameter, DW_AT_type(*DW$T$10)
    5263              DW$307  .dwtag  DW_TAG_formal_parameter, DW_AT_type(*DW$T$10)
    5264              DW$308  .dwtag  DW_TAG_formal_parameter, DW_AT_type(*DW$T$55)
    5265                      .dwendtag DW$T$58
    5266              
    5267              
    5268              DW$T$60 .dwtag  DW_TAG_subroutine_type
    5269                      .dwattr DW$T$60, DW_AT_language(DW_LANG_C)
    5270              DW$309  .dwtag  DW_TAG_formal_parameter, DW_AT_type(*DW$T$17)
    5271              DW$310  .dwtag  DW_TAG_formal_parameter, DW_AT_type(*DW$T$17)
    5272                      .dwendtag DW$T$60
    5273              
    5274              
    5275              DW$T$63 .dwtag  DW_TAG_subroutine_type
    5276                      .dwattr DW$T$63, DW_AT_language(DW_LANG_C)
    5277              DW$311  .dwtag  DW_TAG_formal_parameter, DW_AT_type(*DW$T$62)
    5278                      .dwendtag DW$T$63
    5279              
TMS320C2000 COFF Assembler PC v4.1.3 Sat Oct 08 14:42:32 2011

Tools Copyright (c) 1996-2006 Texas Instruments Incorporated
C:\DOCUME~1\ADMINI~1\LOCALS~1\Temp\TI8522                            PAGE  124

    5280              
    5281              DW$T$65 .dwtag  DW_TAG_subroutine_type
    5282                      .dwattr DW$T$65, DW_AT_language(DW_LANG_C)
    5283              
    5284              DW$T$67 .dwtag  DW_TAG_subroutine_type
    5285                      .dwattr DW$T$67, DW_AT_language(DW_LANG_C)
    5286              DW$T$6  .dwtag  DW_TAG_base_type, DW_AT_name("unsigned char")
    5287                      .dwattr DW$T$6, DW_AT_encoding(DW_ATE_unsigned_char)
    5288                      .dwattr DW$T$6, DW_AT_byte_size(0x01)
    5289              DW$T$19 .dwtag  DW_TAG_typedef, DW_AT_name("INT8U"), DW_AT_type(*DW$T$6)
    5290                      .dwattr DW$T$19, DW_AT_language(DW_LANG_C)
    5291              
    5292              DW$T$71 .dwtag  DW_TAG_subroutine_type, DW_AT_type(*DW$T$19)
    5293                      .dwattr DW$T$71, DW_AT_language(DW_LANG_C)
    5294              DW$312  .dwtag  DW_TAG_formal_parameter, DW_AT_type(*DW$T$70)
    5295                      .dwendtag DW$T$71
    5296              
    5297              DW$T$55 .dwtag  DW_TAG_pointer_type, DW_AT_type(*DW$T$54)
    5298                      .dwattr DW$T$55, DW_AT_address_class(0x16)
    5299              
    5300              DW$T$84 .dwtag  DW_TAG_array_type, DW_AT_type(*DW$T$6)
    5301                      .dwattr DW$T$84, DW_AT_language(DW_LANG_C)
    5302                      .dwattr DW$T$84, DW_AT_byte_size(0x80)
    5303              DW$313  .dwtag  DW_TAG_subrange_type
    5304                      .dwattr DW$313, DW_AT_upper_bound(0x03)
    5305              DW$314  .dwtag  DW_TAG_subrange_type
    5306                      .dwattr DW$314, DW_AT_upper_bound(0x1f)
    5307                      .dwendtag DW$T$84
    5308              
    5309              
    5310              DW$T$76 .dwtag  DW_TAG_subroutine_type, DW_AT_type(*DW$T$6)
    5311                      .dwattr DW$T$76, DW_AT_language(DW_LANG_C)
    5312              DW$315  .dwtag  DW_TAG_formal_parameter, DW_AT_type(*DW$T$75)
    5313              DW$316  .dwtag  DW_TAG_formal_parameter, DW_AT_type(*DW$T$11)
    5314                      .dwendtag DW$T$76
    5315              
    5316              
    5317              DW$T$78 .dwtag  DW_TAG_subroutine_type, DW_AT_type(*DW$T$6)
    5318                      .dwattr DW$T$78, DW_AT_language(DW_LANG_C)
    5319              DW$317  .dwtag  DW_TAG_formal_parameter, DW_AT_type(*DW$T$46)
    5320              DW$318  .dwtag  DW_TAG_formal_parameter, DW_AT_type(*DW$T$40)
    5321                      .dwendtag DW$T$78
    5322              
    5323              
    5324              DW$T$80 .dwtag  DW_TAG_subroutine_type, DW_AT_type(*DW$T$6)
    5325                      .dwattr DW$T$80, DW_AT_language(DW_LANG_C)
    5326              DW$319  .dwtag  DW_TAG_formal_parameter, DW_AT_type(*DW$T$6)
    5327              DW$320  .dwtag  DW_TAG_formal_parameter, DW_AT_type(*DW$T$32)
    5328                      .dwendtag DW$T$80
    5329              
    5330              
    5331              DW$T$82 .dwtag  DW_TAG_subroutine_type, DW_AT_type(*DW$T$6)
    5332                      .dwattr DW$T$82, DW_AT_language(DW_LANG_C)
    5333              DW$321  .dwtag  DW_TAG_formal_parameter, DW_AT_type(*DW$T$6)
    5334                      .dwendtag DW$T$82
TMS320C2000 COFF Assembler PC v4.1.3 Sat Oct 08 14:42:32 2011

Tools Copyright (c) 1996-2006 Texas Instruments Incorporated
C:\DOCUME~1\ADMINI~1\LOCALS~1\Temp\TI8522                            PAGE  125

    5335              
    5336              DW$T$85 .dwtag  DW_TAG_typedef, DW_AT_name("BOOL"), DW_AT_type(*DW$T$6)
    5337                      .dwattr DW$T$85, DW_AT_language(DW_LANG_C)
    5338              
    5339              DW$T$88 .dwtag  DW_TAG_subroutine_type, DW_AT_type(*DW$T$85)
    5340                      .dwattr DW$T$88, DW_AT_language(DW_LANG_C)
    5341              DW$322  .dwtag  DW_TAG_formal_parameter, DW_AT_type(*DW$T$87)
    5342                      .dwendtag DW$T$88
    5343              
    5344              
    5345              DW$T$90 .dwtag  DW_TAG_array_type, DW_AT_type(*DW$T$6)
    5346                      .dwattr DW$T$90, DW_AT_language(DW_LANG_C)
    5347                      .dwattr DW$T$90, DW_AT_byte_size(0x05)
    5348              DW$323  .dwtag  DW_TAG_subrange_type
    5349                      .dwattr DW$323, DW_AT_upper_bound(0x04)
    5350                      .dwendtag DW$T$90
    5351              
    5352              DW$T$10 .dwtag  DW_TAG_base_type, DW_AT_name("int")
    5353                      .dwattr DW$T$10, DW_AT_encoding(DW_ATE_signed)
    5354                      .dwattr DW$T$10, DW_AT_byte_size(0x01)
    5355              DW$T$51 .dwtag  DW_TAG_pointer_type, DW_AT_type(*DW$T$10)
    5356                      .dwattr DW$T$51, DW_AT_address_class(0x16)
    5357              
    5358              DW$T$93 .dwtag  DW_TAG_subroutine_type, DW_AT_type(*DW$T$10)
    5359                      .dwattr DW$T$93, DW_AT_language(DW_LANG_C)
    5360              DW$324  .dwtag  DW_TAG_formal_parameter, DW_AT_type(*DW$T$10)
    5361                      .dwendtag DW$T$93
    5362              
    5363              
    5364              DW$T$95 .dwtag  DW_TAG_subroutine_type, DW_AT_type(*DW$T$10)
    5365                      .dwattr DW$T$95, DW_AT_language(DW_LANG_C)
    5366              DW$T$11 .dwtag  DW_TAG_base_type, DW_AT_name("unsigned int")
    5367                      .dwattr DW$T$11, DW_AT_encoding(DW_ATE_unsigned)
    5368                      .dwattr DW$T$11, DW_AT_byte_size(0x01)
    5369              DW$T$20 .dwtag  DW_TAG_typedef, DW_AT_name("INT16U"), DW_AT_type(*DW$T$11)
    5370                      .dwattr DW$T$20, DW_AT_language(DW_LANG_C)
    5371              DW$T$40 .dwtag  DW_TAG_typedef, DW_AT_name("Bsize_t"), DW_AT_type(*DW$T$11)
    5372                      .dwattr DW$T$40, DW_AT_language(DW_LANG_C)
    5373              DW$T$12 .dwtag  DW_TAG_base_type, DW_AT_name("long")
    5374                      .dwattr DW$T$12, DW_AT_encoding(DW_ATE_signed)
    5375                      .dwattr DW$T$12, DW_AT_byte_size(0x02)
    5376              DW$T$98 .dwtag  DW_TAG_typedef, DW_AT_name("size_t"), DW_AT_type(*DW$T$13)
    5377                      .dwattr DW$T$98, DW_AT_language(DW_LANG_C)
    5378              
    5379              DW$T$101        .dwtag  DW_TAG_subroutine_type, DW_AT_type(*DW$T$98)
    5380                      .dwattr DW$T$101, DW_AT_language(DW_LANG_C)
    5381              DW$325  .dwtag  DW_TAG_formal_parameter, DW_AT_type(*DW$T$100)
    5382                      .dwendtag DW$T$101
    5383              
    5384              DW$T$16 .dwtag  DW_TAG_base_type, DW_AT_name("float")
    5385                      .dwattr DW$T$16, DW_AT_encoding(DW_ATE_float)
    5386                      .dwattr DW$T$16, DW_AT_byte_size(0x02)
    5387              DW$T$62 .dwtag  DW_TAG_pointer_type, DW_AT_type(*DW$T$16)
    5388                      .dwattr DW$T$62, DW_AT_address_class(0x16)
    5389              DW$T$17 .dwtag  DW_TAG_base_type, DW_AT_name("double")
TMS320C2000 COFF Assembler PC v4.1.3 Sat Oct 08 14:42:32 2011

Tools Copyright (c) 1996-2006 Texas Instruments Incorporated
C:\DOCUME~1\ADMINI~1\LOCALS~1\Temp\TI8522                            PAGE  126

    5390                      .dwattr DW$T$17, DW_AT_encoding(DW_ATE_float)
    5391                      .dwattr DW$T$17, DW_AT_byte_size(0x02)
    5392              
    5393              DW$T$103        .dwtag  DW_TAG_subroutine_type, DW_AT_type(*DW$T$17)
    5394                      .dwattr DW$T$103, DW_AT_language(DW_LANG_C)
    5395              DW$326  .dwtag  DW_TAG_formal_parameter, DW_AT_type(*DW$T$17)
    5396                      .dwendtag DW$T$103
    5397              
    5398              DW$T$70 .dwtag  DW_TAG_pointer_type, DW_AT_type(*DW$T$69)
    5399                      .dwattr DW$T$70, DW_AT_address_class(0x16)
    5400              DW$T$74 .dwtag  DW_TAG_pointer_type, DW_AT_type(*DW$T$73)
    5401                      .dwattr DW$T$74, DW_AT_address_class(0x16)
    5402              DW$T$75 .dwtag  DW_TAG_pointer_type, DW_AT_type(*DW$T$74)
    5403                      .dwattr DW$T$75, DW_AT_address_class(0x16)
    5404              DW$T$86 .dwtag  DW_TAG_typedef, DW_AT_name("UIDang_t"), DW_AT_type(*DW$T$26)
    5405                      .dwattr DW$T$86, DW_AT_language(DW_LANG_C)
    5406              DW$T$87 .dwtag  DW_TAG_pointer_type, DW_AT_type(*DW$T$86)
    5407                      .dwattr DW$T$87, DW_AT_address_class(0x16)
    5408              DW$T$115        .dwtag  DW_TAG_typedef, DW_AT_name("measure_param_t"), DW_AT_type(*DW$T$30)
    5409                      .dwattr DW$T$115, DW_AT_language(DW_LANG_C)
    5410              DW$T$31 .dwtag  DW_TAG_base_type, DW_AT_name("signed char")
    5411                      .dwattr DW$T$31, DW_AT_encoding(DW_ATE_signed_char)
    5412                      .dwattr DW$T$31, DW_AT_byte_size(0x01)
    5413              DW$T$32 .dwtag  DW_TAG_pointer_type, DW_AT_type(*DW$T$31)
    5414                      .dwattr DW$T$32, DW_AT_address_class(0x16)
    5415              
    5416              DW$T$105        .dwtag  DW_TAG_subroutine_type, DW_AT_type(*DW$T$32)
    5417                      .dwattr DW$T$105, DW_AT_language(DW_LANG_C)
    5418              DW$327  .dwtag  DW_TAG_formal_parameter, DW_AT_type(*DW$T$32)
    5419              DW$328  .dwtag  DW_TAG_formal_parameter, DW_AT_type(*DW$T$32)
    5420                      .dwendtag DW$T$105
    5421              
    5422              
    5423              DW$T$107        .dwtag  DW_TAG_subroutine_type, DW_AT_type(*DW$T$32)
    5424                      .dwattr DW$T$107, DW_AT_language(DW_LANG_C)
    5425              DW$329  .dwtag  DW_TAG_formal_parameter, DW_AT_type(*DW$T$12)
    5426              DW$330  .dwtag  DW_TAG_formal_parameter, DW_AT_type(*DW$T$32)
    5427              DW$331  .dwtag  DW_TAG_formal_parameter, DW_AT_type(*DW$T$11)
    5428                      .dwendtag DW$T$107
    5429              
    5430              
    5431              DW$T$35 .dwtag  DW_TAG_array_type, DW_AT_type(*DW$T$31)
    5432                      .dwattr DW$T$35, DW_AT_language(DW_LANG_C)
    5433                      .dwattr DW$T$35, DW_AT_byte_size(0x14)
    5434              DW$332  .dwtag  DW_TAG_subrange_type
    5435                      .dwattr DW$332, DW_AT_upper_bound(0x13)
    5436                      .dwendtag DW$T$35
    5437              
    5438              DW$T$100        .dwtag  DW_TAG_pointer_type, DW_AT_type(*DW$T$99)
    5439                      .dwattr DW$T$100, DW_AT_address_class(0x16)
    5440              
    5441              DW$T$118        .dwtag  DW_TAG_array_type, DW_AT_type(*DW$T$117)
    5442                      .dwattr DW$T$118, DW_AT_language(DW_LANG_C)
    5443                      .dwattr DW$T$118, DW_AT_byte_size(0x180)
    5444              DW$333  .dwtag  DW_TAG_subrange_type
TMS320C2000 COFF Assembler PC v4.1.3 Sat Oct 08 14:42:32 2011

Tools Copyright (c) 1996-2006 Texas Instruments Incorporated
C:\DOCUME~1\ADMINI~1\LOCALS~1\Temp\TI8522                            PAGE  127

    5445                      .dwattr DW$333, DW_AT_upper_bound(0x2f)
    5446                      .dwendtag DW$T$118
    5447              
    5448              
    5449              DW$T$121        .dwtag  DW_TAG_array_type, DW_AT_type(*DW$T$120)
    5450                      .dwattr DW$T$121, DW_AT_language(DW_LANG_C)
    5451                      .dwattr DW$T$121, DW_AT_byte_size(0x308)
    5452              DW$334  .dwtag  DW_TAG_subrange_type
    5453                      .dwattr DW$334, DW_AT_upper_bound(0x60)
    5454                      .dwendtag DW$T$121
    5455              
    5456              DW$T$124        .dwtag  DW_TAG_pointer_type, DW_AT_type(*DW$T$123)
    5457                      .dwattr DW$T$124, DW_AT_address_class(0x16)
    5458              DW$T$125        .dwtag  DW_TAG_typedef, DW_AT_name("DL_reflag_u"), DW_AT_type(*DW$T$39)
    5459                      .dwattr DW$T$125, DW_AT_language(DW_LANG_C)
    5460              
    5461              DW$T$54 .dwtag  DW_TAG_array_type, DW_AT_type(*DW$T$6)
    5462                      .dwattr DW$T$54, DW_AT_language(DW_LANG_C)
    5463                      .dwattr DW$T$54, DW_AT_byte_size(0x20)
    5464              DW$335  .dwtag  DW_TAG_subrange_type
    5465                      .dwattr DW$335, DW_AT_upper_bound(0x1f)
    5466                      .dwendtag DW$T$54
    5467              
    5468              DW$T$13 .dwtag  DW_TAG_base_type, DW_AT_name("unsigned long")
    5469                      .dwattr DW$T$13, DW_AT_encoding(DW_ATE_unsigned)
    5470                      .dwattr DW$T$13, DW_AT_byte_size(0x02)
    5471              DW$T$69 .dwtag  DW_TAG_typedef, DW_AT_name("OS_EVENT"), DW_AT_type(*DW$T$22)
    5472                      .dwattr DW$T$69, DW_AT_language(DW_LANG_C)
    5473              DW$T$73 .dwtag  DW_TAG_typedef, DW_AT_name("a_sem_t"), DW_AT_type(*DW$T$69)
    5474                      .dwattr DW$T$73, DW_AT_language(DW_LANG_C)
    5475              
    5476              DW$T$26 .dwtag  DW_TAG_structure_type
    5477                      .dwattr DW$T$26, DW_AT_name("UIDang")
    5478                      .dwattr DW$T$26, DW_AT_byte_size(0x03)
    5479              DW$336  .dwtag  DW_TAG_member, DW_AT_type(*DW$T$25)
    5480                      .dwattr DW$336, DW_AT_name("UIDangN"), DW_AT_symbol_name("_UIDangN")
    5481                      .dwattr DW$336, DW_AT_data_member_location[DW_OP_plus_uconst 0x0]
    5482                      .dwattr DW$336, DW_AT_accessibility(DW_ACCESS_public)
    5483              DW$337  .dwtag  DW_TAG_member, DW_AT_type(*DW$T$11)
    5484                      .dwattr DW$337, DW_AT_name("all"), DW_AT_symbol_name("_all")
    5485                      .dwattr DW$337, DW_AT_data_member_location[DW_OP_plus_uconst 0x2]
    5486                      .dwattr DW$337, DW_AT_accessibility(DW_ACCESS_public)
    5487                      .dwendtag DW$T$26
    5488              
    5489              
    5490              DW$T$30 .dwtag  DW_TAG_structure_type
    5491                      .dwattr DW$T$30, DW_AT_name("_measure_param_t")
    5492                      .dwattr DW$T$30, DW_AT_byte_size(0x48)
    5493              DW$338  .dwtag  DW_TAG_member, DW_AT_type(*DW$T$28)
    5494                      .dwattr DW$338, DW_AT_name("phase_a"), DW_AT_symbol_name("_phase_a")
    5495                      .dwattr DW$338, DW_AT_data_member_location[DW_OP_plus_uconst 0x0]
    5496                      .dwattr DW$338, DW_AT_accessibility(DW_ACCESS_public)
    5497              DW$339  .dwtag  DW_TAG_member, DW_AT_type(*DW$T$28)
    5498                      .dwattr DW$339, DW_AT_name("phase_b"), DW_AT_symbol_name("_phase_b")
    5499                      .dwattr DW$339, DW_AT_data_member_location[DW_OP_plus_uconst 0xa]
TMS320C2000 COFF Assembler PC v4.1.3 Sat Oct 08 14:42:32 2011

Tools Copyright (c) 1996-2006 Texas Instruments Incorporated
C:\DOCUME~1\ADMINI~1\LOCALS~1\Temp\TI8522                            PAGE  128

    5500                      .dwattr DW$339, DW_AT_accessibility(DW_ACCESS_public)
    5501              DW$340  .dwtag  DW_TAG_member, DW_AT_type(*DW$T$28)
    5502                      .dwattr DW$340, DW_AT_name("phase_c"), DW_AT_symbol_name("_phase_c")
    5503                      .dwattr DW$340, DW_AT_data_member_location[DW_OP_plus_uconst 0x14]
    5504                      .dwattr DW$340, DW_AT_accessibility(DW_ACCESS_public)
    5505              DW$341  .dwtag  DW_TAG_member, DW_AT_type(*DW$T$16)
    5506                      .dwattr DW$341, DW_AT_name("f_Uab"), DW_AT_symbol_name("_f_Uab")
    5507                      .dwattr DW$341, DW_AT_data_member_location[DW_OP_plus_uconst 0x1e]
    5508                      .dwattr DW$341, DW_AT_accessibility(DW_ACCESS_public)
    5509              DW$342  .dwtag  DW_TAG_member, DW_AT_type(*DW$T$16)
    5510                      .dwattr DW$342, DW_AT_name("f_Ubc"), DW_AT_symbol_name("_f_Ubc")
    5511                      .dwattr DW$342, DW_AT_data_member_location[DW_OP_plus_uconst 0x20]
    5512                      .dwattr DW$342, DW_AT_accessibility(DW_ACCESS_public)
    5513              DW$343  .dwtag  DW_TAG_member, DW_AT_type(*DW$T$16)
    5514                      .dwattr DW$343, DW_AT_name("f_Uac"), DW_AT_symbol_name("_f_Uac")
    5515                      .dwattr DW$343, DW_AT_data_member_location[DW_OP_plus_uconst 0x22]
    5516                      .dwattr DW$343, DW_AT_accessibility(DW_ACCESS_public)
    5517              DW$344  .dwtag  DW_TAG_member, DW_AT_type(*DW$T$16)
    5518                      .dwattr DW$344, DW_AT_name("f_JIac"), DW_AT_symbol_name("_f_JIac")
    5519                      .dwattr DW$344, DW_AT_data_member_location[DW_OP_plus_uconst 0x24]
    5520                      .dwattr DW$344, DW_AT_accessibility(DW_ACCESS_public)
    5521              DW$345  .dwtag  DW_TAG_member, DW_AT_type(*DW$T$16)
    5522                      .dwattr DW$345, DW_AT_name("f_JIbc"), DW_AT_symbol_name("_f_JIbc")
    5523                      .dwattr DW$345, DW_AT_data_member_location[DW_OP_plus_uconst 0x26]
    5524                      .dwattr DW$345, DW_AT_accessibility(DW_ACCESS_public)
    5525              DW$346  .dwtag  DW_TAG_member, DW_AT_type(*DW$T$16)
    5526                      .dwattr DW$346, DW_AT_name("f_JIab"), DW_AT_symbol_name("_f_JIab")
    5527                      .dwattr DW$346, DW_AT_data_member_location[DW_OP_plus_uconst 0x28]
    5528                      .dwattr DW$346, DW_AT_accessibility(DW_ACCESS_public)
    5529              DW$347  .dwtag  DW_TAG_member, DW_AT_type(*DW$T$16)
    5530                      .dwattr DW$347, DW_AT_name("f_JUac"), DW_AT_symbol_name("_f_JUac")
    5531                      .dwattr DW$347, DW_AT_data_member_location[DW_OP_plus_uconst 0x2a]
    5532                      .dwattr DW$347, DW_AT_accessibility(DW_ACCESS_public)
    5533              DW$348  .dwtag  DW_TAG_member, DW_AT_type(*DW$T$16)
    5534                      .dwattr DW$348, DW_AT_name("f_JUbc"), DW_AT_symbol_name("_f_JUbc")
    5535                      .dwattr DW$348, DW_AT_data_member_location[DW_OP_plus_uconst 0x2c]
    5536                      .dwattr DW$348, DW_AT_accessibility(DW_ACCESS_public)
    5537              DW$349  .dwtag  DW_TAG_member, DW_AT_type(*DW$T$16)
    5538                      .dwattr DW$349, DW_AT_name("f_JUab"), DW_AT_symbol_name("_f_JUab")
    5539                      .dwattr DW$349, DW_AT_data_member_location[DW_OP_plus_uconst 0x2e]
    5540                      .dwattr DW$349, DW_AT_accessibility(DW_ACCESS_public)
    5541              DW$350  .dwtag  DW_TAG_member, DW_AT_type(*DW$T$16)
    5542                      .dwattr DW$350, DW_AT_name("f_Cos"), DW_AT_symbol_name("_f_Cos")
    5543                      .dwattr DW$350, DW_AT_data_member_location[DW_OP_plus_uconst 0x30]
    5544                      .dwattr DW$350, DW_AT_accessibility(DW_ACCESS_public)
    5545              DW$351  .dwtag  DW_TAG_member, DW_AT_type(*DW$T$16)
    5546                      .dwattr DW$351, DW_AT_name("f_Pabc"), DW_AT_symbol_name("_f_Pabc")
    5547                      .dwattr DW$351, DW_AT_data_member_location[DW_OP_plus_uconst 0x32]
    5548                      .dwattr DW$351, DW_AT_accessibility(DW_ACCESS_public)
    5549              DW$352  .dwtag  DW_TAG_member, DW_AT_type(*DW$T$16)
    5550                      .dwattr DW$352, DW_AT_name("f_Qabc"), DW_AT_symbol_name("_f_Qabc")
    5551                      .dwattr DW$352, DW_AT_data_member_location[DW_OP_plus_uconst 0x34]
    5552                      .dwattr DW$352, DW_AT_accessibility(DW_ACCESS_public)
    5553              DW$353  .dwtag  DW_TAG_member, DW_AT_type(*DW$T$29)
    5554                      .dwattr DW$353, DW_AT_name("f_err"), DW_AT_symbol_name("_f_err")
TMS320C2000 COFF Assembler PC v4.1.3 Sat Oct 08 14:42:32 2011

Tools Copyright (c) 1996-2006 Texas Instruments Incorporated
C:\DOCUME~1\ADMINI~1\LOCALS~1\Temp\TI8522                            PAGE  129

    5555                      .dwattr DW$353, DW_AT_data_member_location[DW_OP_plus_uconst 0x36]
    5556                      .dwattr DW$353, DW_AT_accessibility(DW_ACCESS_public)
    5557              DW$354  .dwtag  DW_TAG_member, DW_AT_type(*DW$T$29)
    5558                      .dwattr DW$354, DW_AT_name("f_err_Q"), DW_AT_symbol_name("_f_err_Q")
    5559                      .dwattr DW$354, DW_AT_data_member_location[DW_OP_plus_uconst 0x3e]
    5560                      .dwattr DW$354, DW_AT_accessibility(DW_ACCESS_public)
    5561              DW$355  .dwtag  DW_TAG_member, DW_AT_type(*DW$T$16)
    5562                      .dwattr DW$355, DW_AT_name("f_Feq"), DW_AT_symbol_name("_f_Feq")
    5563                      .dwattr DW$355, DW_AT_data_member_location[DW_OP_plus_uconst 0x46]
    5564                      .dwattr DW$355, DW_AT_accessibility(DW_ACCESS_public)
    5565                      .dwendtag DW$T$30
    5566              
    5567              DW$356  .dwtag  DW_TAG_far_type
    5568                      .dwattr DW$356, DW_AT_type(*DW$T$31)
    5569              DW$T$99 .dwtag  DW_TAG_const_type
    5570                      .dwattr DW$T$99, DW_AT_type(*DW$356)
    5571              DW$357  .dwtag  DW_TAG_far_type
    5572                      .dwattr DW$357, DW_AT_type(*DW$T$33)
    5573              DW$T$117        .dwtag  DW_TAG_const_type
    5574                      .dwattr DW$T$117, DW_AT_type(*DW$357)
    5575              DW$358  .dwtag  DW_TAG_far_type
    5576                      .dwattr DW$358, DW_AT_type(*DW$T$34)
    5577              DW$T$120        .dwtag  DW_TAG_const_type
    5578                      .dwattr DW$T$120, DW_AT_type(*DW$358)
    5579              DW$T$123        .dwtag  DW_TAG_typedef, DW_AT_name("WIR_ALG_t"), DW_AT_type(*DW$T$36)
    5580                      .dwattr DW$T$123, DW_AT_language(DW_LANG_C)
    5581              
    5582              DW$T$39 .dwtag  DW_TAG_union_type
    5583                      .dwattr DW$T$39, DW_AT_byte_size(0x01)
    5584              DW$359  .dwtag  DW_TAG_member, DW_AT_type(*DW$T$11)
    5585                      .dwattr DW$359, DW_AT_name("reflag"), DW_AT_symbol_name("_reflag")
    5586                      .dwattr DW$359, DW_AT_data_member_location[DW_OP_plus_uconst 0x0]
    5587                      .dwattr DW$359, DW_AT_accessibility(DW_ACCESS_public)
    5588              DW$360  .dwtag  DW_TAG_member, DW_AT_type(*DW$T$38)
    5589                      .dwattr DW$360, DW_AT_name("reflag_bits"), DW_AT_symbol_name("_reflag_bits")
    5590                      .dwattr DW$360, DW_AT_data_member_location[DW_OP_plus_uconst 0x0]
    5591                      .dwattr DW$360, DW_AT_accessibility(DW_ACCESS_public)
    5592                      .dwendtag DW$T$39
    5593              
    5594              
    5595              DW$T$29 .dwtag  DW_TAG_array_type, DW_AT_type(*DW$T$16)
    5596                      .dwattr DW$T$29, DW_AT_language(DW_LANG_C)
    5597                      .dwattr DW$T$29, DW_AT_byte_size(0x08)
    5598              DW$361  .dwtag  DW_TAG_subrange_type
    5599                      .dwattr DW$361, DW_AT_upper_bound(0x03)
    5600                      .dwendtag DW$T$29
    5601              
    5602              
    5603              DW$T$22 .dwtag  DW_TAG_structure_type
    5604                      .dwattr DW$T$22, DW_AT_name("os_event")
    5605                      .dwattr DW$T$22, DW_AT_byte_size(0x0e)
    5606              DW$362  .dwtag  DW_TAG_member, DW_AT_type(*DW$T$19)
    5607                      .dwattr DW$362, DW_AT_name("OSEventType"), DW_AT_symbol_name("_OSEventType")
    5608                      .dwattr DW$362, DW_AT_data_member_location[DW_OP_plus_uconst 0x0]
    5609                      .dwattr DW$362, DW_AT_accessibility(DW_ACCESS_public)
TMS320C2000 COFF Assembler PC v4.1.3 Sat Oct 08 14:42:32 2011

Tools Copyright (c) 1996-2006 Texas Instruments Incorporated
C:\DOCUME~1\ADMINI~1\LOCALS~1\Temp\TI8522                            PAGE  130

    5610              DW$363  .dwtag  DW_TAG_member, DW_AT_type(*DW$T$3)
    5611                      .dwattr DW$363, DW_AT_name("OSEventPtr"), DW_AT_symbol_name("_OSEventPtr")
    5612                      .dwattr DW$363, DW_AT_data_member_location[DW_OP_plus_uconst 0x2]
    5613                      .dwattr DW$363, DW_AT_accessibility(DW_ACCESS_public)
    5614              DW$364  .dwtag  DW_TAG_member, DW_AT_type(*DW$T$20)
    5615                      .dwattr DW$364, DW_AT_name("OSEventCnt"), DW_AT_symbol_name("_OSEventCnt")
    5616                      .dwattr DW$364, DW_AT_data_member_location[DW_OP_plus_uconst 0x4]
    5617                      .dwattr DW$364, DW_AT_accessibility(DW_ACCESS_public)
    5618              DW$365  .dwtag  DW_TAG_member, DW_AT_type(*DW$T$19)
    5619                      .dwattr DW$365, DW_AT_name("OSEventGrp"), DW_AT_symbol_name("_OSEventGrp")
    5620                      .dwattr DW$365, DW_AT_data_member_location[DW_OP_plus_uconst 0x5]
    5621                      .dwattr DW$365, DW_AT_accessibility(DW_ACCESS_public)
    5622              DW$366  .dwtag  DW_TAG_member, DW_AT_type(*DW$T$21)
    5623                      .dwattr DW$366, DW_AT_name("OSEventTbl"), DW_AT_symbol_name("_OSEventTbl")
    5624                      .dwattr DW$366, DW_AT_data_member_location[DW_OP_plus_uconst 0x6]
    5625                      .dwattr DW$366, DW_AT_accessibility(DW_ACCESS_public)
    5626                      .dwendtag DW$T$22
    5627              
    5628              
    5629              DW$T$25 .dwtag  DW_TAG_union_type
    5630                      .dwattr DW$T$25, DW_AT_name("UIDangUnion")
    5631                      .dwattr DW$T$25, DW_AT_byte_size(0x02)
    5632              DW$367  .dwtag  DW_TAG_member, DW_AT_type(*DW$T$11)
    5633                      .dwattr DW$367, DW_AT_name("all"), DW_AT_symbol_name("_all")
    5634                      .dwattr DW$367, DW_AT_data_member_location[DW_OP_plus_uconst 0x0]
    5635                      .dwattr DW$367, DW_AT_accessibility(DW_ACCESS_public)
    5636              DW$368  .dwtag  DW_TAG_member, DW_AT_type(*DW$T$23)
    5637                      .dwattr DW$368, DW_AT_name("bit2"), DW_AT_symbol_name("_bit2")
    5638                      .dwattr DW$368, DW_AT_data_member_location[DW_OP_plus_uconst 0x0]
    5639                      .dwattr DW$368, DW_AT_accessibility(DW_ACCESS_public)
    5640              DW$369  .dwtag  DW_TAG_member, DW_AT_type(*DW$T$24)
    5641                      .dwattr DW$369, DW_AT_name("bit1"), DW_AT_symbol_name("_bit1")
    5642                      .dwattr DW$369, DW_AT_data_member_location[DW_OP_plus_uconst 0x0]
    5643                      .dwattr DW$369, DW_AT_accessibility(DW_ACCESS_public)
    5644                      .dwendtag DW$T$25
    5645              
    5646              DW$T$28 .dwtag  DW_TAG_typedef, DW_AT_name("phase_param_t"), DW_AT_type(*DW$T$27)
    5647                      .dwattr DW$T$28, DW_AT_language(DW_LANG_C)
    5648              
    5649              DW$T$33 .dwtag  DW_TAG_structure_type
    5650                      .dwattr DW$T$33, DW_AT_name("cha")
    5651                      .dwattr DW$T$33, DW_AT_byte_size(0x08)
    5652              DW$370  .dwtag  DW_TAG_member, DW_AT_type(*DW$T$10)
    5653                      .dwattr DW$370, DW_AT_name("cfuac"), DW_AT_symbol_name("_cfuac")
    5654                      .dwattr DW$370, DW_AT_data_member_location[DW_OP_plus_uconst 0x0]
    5655                      .dwattr DW$370, DW_AT_accessibility(DW_ACCESS_public)
    5656              DW$371  .dwtag  DW_TAG_member, DW_AT_type(*DW$T$10)
    5657                      .dwattr DW$371, DW_AT_name("cfiac"), DW_AT_symbol_name("_cfiac")
    5658                      .dwattr DW$371, DW_AT_data_member_location[DW_OP_plus_uconst 0x1]
    5659                      .dwattr DW$371, DW_AT_accessibility(DW_ACCESS_public)
    5660              DW$372  .dwtag  DW_TAG_member, DW_AT_type(*DW$T$10)
    5661                      .dwattr DW$372, DW_AT_name("cfa"), DW_AT_symbol_name("_cfa")
    5662                      .dwattr DW$372, DW_AT_data_member_location[DW_OP_plus_uconst 0x2]
    5663                      .dwattr DW$372, DW_AT_accessibility(DW_ACCESS_public)
    5664              DW$373  .dwtag  DW_TAG_member, DW_AT_type(*DW$T$10)
TMS320C2000 COFF Assembler PC v4.1.3 Sat Oct 08 14:42:32 2011

Tools Copyright (c) 1996-2006 Texas Instruments Incorporated
C:\DOCUME~1\ADMINI~1\LOCALS~1\Temp\TI8522                            PAGE  131

    5665                      .dwattr DW$373, DW_AT_name("cfc"), DW_AT_symbol_name("_cfc")
    5666                      .dwattr DW$373, DW_AT_data_member_location[DW_OP_plus_uconst 0x3]
    5667                      .dwattr DW$373, DW_AT_accessibility(DW_ACCESS_public)
    5668              DW$374  .dwtag  DW_TAG_member, DW_AT_type(*DW$T$32)
    5669                      .dwattr DW$374, DW_AT_name("uxian"), DW_AT_symbol_name("_uxian")
    5670                      .dwattr DW$374, DW_AT_data_member_location[DW_OP_plus_uconst 0x4]
    5671                      .dwattr DW$374, DW_AT_accessibility(DW_ACCESS_public)
    5672              DW$375  .dwtag  DW_TAG_member, DW_AT_type(*DW$T$32)
    5673                      .dwattr DW$375, DW_AT_name("ixian"), DW_AT_symbol_name("_ixian")
    5674                      .dwattr DW$375, DW_AT_data_member_location[DW_OP_plus_uconst 0x6]
    5675                      .dwattr DW$375, DW_AT_accessibility(DW_ACCESS_public)
    5676                      .dwendtag DW$T$33
    5677              
    5678              
    5679              DW$T$34 .dwtag  DW_TAG_structure_type
    5680                      .dwattr DW$T$34, DW_AT_name("cha2")
    5681                      .dwattr DW$T$34, DW_AT_byte_size(0x08)
    5682              DW$376  .dwtag  DW_TAG_member, DW_AT_type(*DW$T$6)
    5683                      .dwattr DW$376, DW_AT_name("czhen"), DW_AT_symbol_name("_czhen")
    5684                      .dwattr DW$376, DW_AT_data_member_location[DW_OP_plus_uconst 0x0]
    5685                      .dwattr DW$376, DW_AT_accessibility(DW_ACCESS_public)
    5686              DW$377  .dwtag  DW_TAG_member, DW_AT_type(*DW$T$10)
    5687                      .dwattr DW$377, DW_AT_name("cfa"), DW_AT_symbol_name("_cfa")
    5688                      .dwattr DW$377, DW_AT_data_member_location[DW_OP_plus_uconst 0x1]
    5689                      .dwattr DW$377, DW_AT_accessibility(DW_ACCESS_public)
    5690              DW$378  .dwtag  DW_TAG_member, DW_AT_type(*DW$T$10)
    5691                      .dwattr DW$378, DW_AT_name("cfb"), DW_AT_symbol_name("_cfb")
    5692                      .dwattr DW$378, DW_AT_data_member_location[DW_OP_plus_uconst 0x2]
    5693                      .dwattr DW$378, DW_AT_accessibility(DW_ACCESS_public)
    5694              DW$379  .dwtag  DW_TAG_member, DW_AT_type(*DW$T$10)
    5695                      .dwattr DW$379, DW_AT_name("cfc"), DW_AT_symbol_name("_cfc")
    5696                      .dwattr DW$379, DW_AT_data_member_location[DW_OP_plus_uconst 0x3]
    5697                      .dwattr DW$379, DW_AT_accessibility(DW_ACCESS_public)
    5698              DW$380  .dwtag  DW_TAG_member, DW_AT_type(*DW$T$32)
    5699                      .dwattr DW$380, DW_AT_name("uxian"), DW_AT_symbol_name("_uxian")
    5700                      .dwattr DW$380, DW_AT_data_member_location[DW_OP_plus_uconst 0x4]
    5701                      .dwattr DW$380, DW_AT_accessibility(DW_ACCESS_public)
    5702              DW$381  .dwtag  DW_TAG_member, DW_AT_type(*DW$T$32)
    5703                      .dwattr DW$381, DW_AT_name("ixian"), DW_AT_symbol_name("_ixian")
    5704                      .dwattr DW$381, DW_AT_data_member_location[DW_OP_plus_uconst 0x6]
    5705                      .dwattr DW$381, DW_AT_accessibility(DW_ACCESS_public)
    5706                      .dwendtag DW$T$34
    5707              
    5708              
    5709              DW$T$36 .dwtag  DW_TAG_structure_type
    5710                      .dwattr DW$T$36, DW_AT_byte_size(0x45)
    5711              DW$382  .dwtag  DW_TAG_member, DW_AT_type(*DW$T$6)
    5712                      .dwattr DW$382, DW_AT_name("is_lost_UI"), DW_AT_symbol_name("_is_lost_UI")
    5713                      .dwattr DW$382, DW_AT_data_member_location[DW_OP_plus_uconst 0x0]
    5714                      .dwattr DW$382, DW_AT_accessibility(DW_ACCESS_public)
    5715              DW$383  .dwtag  DW_TAG_member, DW_AT_type(*DW$T$6)
    5716                      .dwattr DW$383, DW_AT_name("Ua_lost"), DW_AT_symbol_name("_Ua_lost")
    5717                      .dwattr DW$383, DW_AT_data_member_location[DW_OP_plus_uconst 0x1]
    5718                      .dwattr DW$383, DW_AT_accessibility(DW_ACCESS_public)
    5719              DW$384  .dwtag  DW_TAG_member, DW_AT_type(*DW$T$6)
TMS320C2000 COFF Assembler PC v4.1.3 Sat Oct 08 14:42:32 2011

Tools Copyright (c) 1996-2006 Texas Instruments Incorporated
C:\DOCUME~1\ADMINI~1\LOCALS~1\Temp\TI8522                            PAGE  132

    5720                      .dwattr DW$384, DW_AT_name("Ub_lost"), DW_AT_symbol_name("_Ub_lost")
    5721                      .dwattr DW$384, DW_AT_data_member_location[DW_OP_plus_uconst 0x2]
    5722                      .dwattr DW$384, DW_AT_accessibility(DW_ACCESS_public)
    5723              DW$385  .dwtag  DW_TAG_member, DW_AT_type(*DW$T$6)
    5724                      .dwattr DW$385, DW_AT_name("Uc_lost"), DW_AT_symbol_name("_Uc_lost")
    5725                      .dwattr DW$385, DW_AT_data_member_location[DW_OP_plus_uconst 0x3]
    5726                      .dwattr DW$385, DW_AT_accessibility(DW_ACCESS_public)
    5727              DW$386  .dwtag  DW_TAG_member, DW_AT_type(*DW$T$6)
    5728                      .dwattr DW$386, DW_AT_name("Ia_lost"), DW_AT_symbol_name("_Ia_lost")
    5729                      .dwattr DW$386, DW_AT_data_member_location[DW_OP_plus_uconst 0x4]
    5730                      .dwattr DW$386, DW_AT_accessibility(DW_ACCESS_public)
    5731              DW$387  .dwtag  DW_TAG_member, DW_AT_type(*DW$T$6)
    5732                      .dwattr DW$387, DW_AT_name("Ib_lost"), DW_AT_symbol_name("_Ib_lost")
    5733                      .dwattr DW$387, DW_AT_data_member_location[DW_OP_plus_uconst 0x5]
    5734                      .dwattr DW$387, DW_AT_accessibility(DW_ACCESS_public)
    5735              DW$388  .dwtag  DW_TAG_member, DW_AT_type(*DW$T$6)
    5736                      .dwattr DW$388, DW_AT_name("Ic_lost"), DW_AT_symbol_name("_Ic_lost")
    5737                      .dwattr DW$388, DW_AT_data_member_location[DW_OP_plus_uconst 0x6]
    5738                      .dwattr DW$388, DW_AT_accessibility(DW_ACCESS_public)
    5739              DW$389  .dwtag  DW_TAG_member, DW_AT_type(*DW$T$6)
    5740                      .dwattr DW$389, DW_AT_name("phaseDir"), DW_AT_symbol_name("_phaseDir")
    5741                      .dwattr DW$389, DW_AT_data_member_location[DW_OP_plus_uconst 0x7]
    5742                      .dwattr DW$389, DW_AT_accessibility(DW_ACCESS_public)
    5743              DW$390  .dwtag  DW_TAG_member, DW_AT_type(*DW$T$35)
    5744                      .dwattr DW$390, DW_AT_name("c_cos"), DW_AT_symbol_name("_c_cos")
    5745                      .dwattr DW$390, DW_AT_data_member_location[DW_OP_plus_uconst 0x8]
    5746                      .dwattr DW$390, DW_AT_accessibility(DW_ACCESS_public)
    5747              DW$391  .dwtag  DW_TAG_member, DW_AT_type(*DW$T$35)
    5748                      .dwattr DW$391, DW_AT_name("c_U"), DW_AT_symbol_name("_c_U")
    5749                      .dwattr DW$391, DW_AT_data_member_location[DW_OP_plus_uconst 0x1c]
    5750                      .dwattr DW$391, DW_AT_accessibility(DW_ACCESS_public)
    5751              DW$392  .dwtag  DW_TAG_member, DW_AT_type(*DW$T$35)
    5752                      .dwattr DW$392, DW_AT_name("c_I"), DW_AT_symbol_name("_c_I")
    5753                      .dwattr DW$392, DW_AT_data_member_location[DW_OP_plus_uconst 0x30]
    5754                      .dwattr DW$392, DW_AT_accessibility(DW_ACCESS_public)
    5755              DW$393  .dwtag  DW_TAG_member, DW_AT_type(*DW$T$6)
    5756                      .dwattr DW$393, DW_AT_name("jxmod"), DW_AT_symbol_name("_jxmod")
    5757                      .dwattr DW$393, DW_AT_data_member_location[DW_OP_plus_uconst 0x44]
    5758                      .dwattr DW$393, DW_AT_accessibility(DW_ACCESS_public)
    5759                      .dwendtag DW$T$36
    5760              
    5761              DW$T$38 .dwtag  DW_TAG_typedef, DW_AT_name("reflag_bits_t"), DW_AT_type(*DW$T$37)
    5762                      .dwattr DW$T$38, DW_AT_language(DW_LANG_C)
    5763              
    5764              DW$T$21 .dwtag  DW_TAG_array_type, DW_AT_type(*DW$T$19)
    5765                      .dwattr DW$T$21, DW_AT_language(DW_LANG_C)
    5766                      .dwattr DW$T$21, DW_AT_byte_size(0x08)
    5767              DW$394  .dwtag  DW_TAG_subrange_type
    5768                      .dwattr DW$394, DW_AT_upper_bound(0x07)
    5769                      .dwendtag DW$T$21
    5770              
    5771              
    5772              DW$T$23 .dwtag  DW_TAG_structure_type
    5773                      .dwattr DW$T$23, DW_AT_name("UIDangBit2")
    5774                      .dwattr DW$T$23, DW_AT_byte_size(0x02)
TMS320C2000 COFF Assembler PC v4.1.3 Sat Oct 08 14:42:32 2011

Tools Copyright (c) 1996-2006 Texas Instruments Incorporated
C:\DOCUME~1\ADMINI~1\LOCALS~1\Temp\TI8522                            PAGE  133

    5775              DW$395  .dwtag  DW_TAG_member, DW_AT_type(*DW$T$11)
    5776                      .dwattr DW$395, DW_AT_name("rsvd1"), DW_AT_symbol_name("_rsvd1")
    5777                      .dwattr DW$395, DW_AT_bit_offset(0x09), DW_AT_bit_size(0x07)
    5778                      .dwattr DW$395, DW_AT_data_member_location[DW_OP_plus_uconst 0x0]
    5779                      .dwattr DW$395, DW_AT_accessibility(DW_ACCESS_public)
    5780              DW$396  .dwtag  DW_TAG_member, DW_AT_type(*DW$T$11)
    5781                      .dwattr DW$396, DW_AT_name("UIa"), DW_AT_symbol_name("_UIa")
    5782                      .dwattr DW$396, DW_AT_bit_offset(0x07), DW_AT_bit_size(0x02)
    5783                      .dwattr DW$396, DW_AT_data_member_location[DW_OP_plus_uconst 0x0]
    5784                      .dwattr DW$396, DW_AT_accessibility(DW_ACCESS_public)
    5785              DW$397  .dwtag  DW_TAG_member, DW_AT_type(*DW$T$11)
    5786                      .dwattr DW$397, DW_AT_name("UIb"), DW_AT_symbol_name("_UIb")
    5787                      .dwattr DW$397, DW_AT_bit_offset(0x05), DW_AT_bit_size(0x02)
    5788                      .dwattr DW$397, DW_AT_data_member_location[DW_OP_plus_uconst 0x0]
    5789                      .dwattr DW$397, DW_AT_accessibility(DW_ACCESS_public)
    5790              DW$398  .dwtag  DW_TAG_member, DW_AT_type(*DW$T$11)
    5791                      .dwattr DW$398, DW_AT_name("UIc"), DW_AT_symbol_name("_UIc")
    5792                      .dwattr DW$398, DW_AT_bit_offset(0x03), DW_AT_bit_size(0x02)
    5793                      .dwattr DW$398, DW_AT_data_member_location[DW_OP_plus_uconst 0x0]
    5794                      .dwattr DW$398, DW_AT_accessibility(DW_ACCESS_public)
    5795              DW$399  .dwtag  DW_TAG_member, DW_AT_type(*DW$T$11)
    5796                      .dwattr DW$399, DW_AT_name("rsvd2"), DW_AT_symbol_name("_rsvd2")
    5797                      .dwattr DW$399, DW_AT_bit_offset(0x0c), DW_AT_bit_size(0x04)
    5798                      .dwattr DW$399, DW_AT_data_member_location[DW_OP_plus_uconst 0x1]
    5799                      .dwattr DW$399, DW_AT_accessibility(DW_ACCESS_public)
    5800                      .dwendtag DW$T$23
    5801              
    5802              
    5803              DW$T$24 .dwtag  DW_TAG_structure_type
    5804                      .dwattr DW$T$24, DW_AT_name("UIDangBit1")
    5805                      .dwattr DW$T$24, DW_AT_byte_size(0x01)
    5806              DW$400  .dwtag  DW_TAG_member, DW_AT_type(*DW$T$11)
    5807                      .dwattr DW$400, DW_AT_name("UDangFlag"), DW_AT_symbol_name("_UDangFlag")
    5808                      .dwattr DW$400, DW_AT_bit_offset(0x0d), DW_AT_bit_size(0x03)
    5809                      .dwattr DW$400, DW_AT_data_member_location[DW_OP_plus_uconst 0x0]
    5810                      .dwattr DW$400, DW_AT_accessibility(DW_ACCESS_public)
    5811              DW$401  .dwtag  DW_TAG_member, DW_AT_type(*DW$T$11)
    5812                      .dwattr DW$401, DW_AT_name("IDangFlag"), DW_AT_symbol_name("_IDangFlag")
    5813                      .dwattr DW$401, DW_AT_bit_offset(0x09), DW_AT_bit_size(0x04)
    5814                      .dwattr DW$401, DW_AT_data_member_location[DW_OP_plus_uconst 0x0]
    5815                      .dwattr DW$401, DW_AT_accessibility(DW_ACCESS_public)
    5816              DW$402  .dwtag  DW_TAG_member, DW_AT_type(*DW$T$11)
    5817                      .dwattr DW$402, DW_AT_name("Ia"), DW_AT_symbol_name("_Ia")
    5818                      .dwattr DW$402, DW_AT_bit_offset(0x08), DW_AT_bit_size(0x01)
    5819                      .dwattr DW$402, DW_AT_data_member_location[DW_OP_plus_uconst 0x0]
    5820                      .dwattr DW$402, DW_AT_accessibility(DW_ACCESS_public)
    5821              DW$403  .dwtag  DW_TAG_member, DW_AT_type(*DW$T$11)
    5822                      .dwattr DW$403, DW_AT_name("Ua"), DW_AT_symbol_name("_Ua")
    5823                      .dwattr DW$403, DW_AT_bit_offset(0x07), DW_AT_bit_size(0x01)
    5824                      .dwattr DW$403, DW_AT_data_member_location[DW_OP_plus_uconst 0x0]
    5825                      .dwattr DW$403, DW_AT_accessibility(DW_ACCESS_public)
    5826              DW$404  .dwtag  DW_TAG_member, DW_AT_type(*DW$T$11)
    5827                      .dwattr DW$404, DW_AT_name("Ib"), DW_AT_symbol_name("_Ib")
    5828                      .dwattr DW$404, DW_AT_bit_offset(0x06), DW_AT_bit_size(0x01)
    5829                      .dwattr DW$404, DW_AT_data_member_location[DW_OP_plus_uconst 0x0]
TMS320C2000 COFF Assembler PC v4.1.3 Sat Oct 08 14:42:32 2011

Tools Copyright (c) 1996-2006 Texas Instruments Incorporated
C:\DOCUME~1\ADMINI~1\LOCALS~1\Temp\TI8522                            PAGE  134

    5830                      .dwattr DW$404, DW_AT_accessibility(DW_ACCESS_public)
    5831              DW$405  .dwtag  DW_TAG_member, DW_AT_type(*DW$T$11)
    5832                      .dwattr DW$405, DW_AT_name("Ub"), DW_AT_symbol_name("_Ub")
    5833                      .dwattr DW$405, DW_AT_bit_offset(0x05), DW_AT_bit_size(0x01)
    5834                      .dwattr DW$405, DW_AT_data_member_location[DW_OP_plus_uconst 0x0]
    5835                      .dwattr DW$405, DW_AT_accessibility(DW_ACCESS_public)
    5836              DW$406  .dwtag  DW_TAG_member, DW_AT_type(*DW$T$11)
    5837                      .dwattr DW$406, DW_AT_name("Ic"), DW_AT_symbol_name("_Ic")
    5838                      .dwattr DW$406, DW_AT_bit_offset(0x04), DW_AT_bit_size(0x01)
    5839                      .dwattr DW$406, DW_AT_data_member_location[DW_OP_plus_uconst 0x0]
    5840                      .dwattr DW$406, DW_AT_accessibility(DW_ACCESS_public)
    5841              DW$407  .dwtag  DW_TAG_member, DW_AT_type(*DW$T$11)
    5842                      .dwattr DW$407, DW_AT_name("Uc"), DW_AT_symbol_name("_Uc")
    5843                      .dwattr DW$407, DW_AT_bit_offset(0x03), DW_AT_bit_size(0x01)
    5844                      .dwattr DW$407, DW_AT_data_member_location[DW_OP_plus_uconst 0x0]
    5845                      .dwattr DW$407, DW_AT_accessibility(DW_ACCESS_public)
    5846              DW$408  .dwtag  DW_TAG_member, DW_AT_type(*DW$T$11)
    5847                      .dwattr DW$408, DW_AT_name("Flag3or4Phase"), DW_AT_symbol_name("_Flag3or4Phase")
    5848                      .dwattr DW$408, DW_AT_bit_offset(0x02), DW_AT_bit_size(0x01)
    5849                      .dwattr DW$408, DW_AT_data_member_location[DW_OP_plus_uconst 0x0]
    5850                      .dwattr DW$408, DW_AT_accessibility(DW_ACCESS_public)
    5851              DW$409  .dwtag  DW_TAG_member, DW_AT_type(*DW$T$11)
    5852                      .dwattr DW$409, DW_AT_name("SiglePhaseDL"), DW_AT_symbol_name("_SiglePhaseDL")
    5853                      .dwattr DW$409, DW_AT_bit_offset(0x00), DW_AT_bit_size(0x02)
    5854                      .dwattr DW$409, DW_AT_data_member_location[DW_OP_plus_uconst 0x0]
    5855                      .dwattr DW$409, DW_AT_accessibility(DW_ACCESS_public)
    5856                      .dwendtag DW$T$24
    5857              
    5858              
    5859              DW$T$27 .dwtag  DW_TAG_structure_type
    5860                      .dwattr DW$T$27, DW_AT_name("_phase_param_t")
    5861                      .dwattr DW$T$27, DW_AT_byte_size(0x0a)
    5862              DW$410  .dwtag  DW_TAG_member, DW_AT_type(*DW$T$16)
    5863                      .dwattr DW$410, DW_AT_name("f_U"), DW_AT_symbol_name("_f_U")
    5864                      .dwattr DW$410, DW_AT_data_member_location[DW_OP_plus_uconst 0x0]
    5865                      .dwattr DW$410, DW_AT_accessibility(DW_ACCESS_public)
    5866              DW$411  .dwtag  DW_TAG_member, DW_AT_type(*DW$T$16)
    5867                      .dwattr DW$411, DW_AT_name("f_I"), DW_AT_symbol_name("_f_I")
    5868                      .dwattr DW$411, DW_AT_data_member_location[DW_OP_plus_uconst 0x2]
    5869                      .dwattr DW$411, DW_AT_accessibility(DW_ACCESS_public)
    5870              DW$412  .dwtag  DW_TAG_member, DW_AT_type(*DW$T$16)
    5871                      .dwattr DW$412, DW_AT_name("f_J"), DW_AT_symbol_name("_f_J")
    5872                      .dwattr DW$412, DW_AT_data_member_location[DW_OP_plus_uconst 0x4]
    5873                      .dwattr DW$412, DW_AT_accessibility(DW_ACCESS_public)
    5874              DW$413  .dwtag  DW_TAG_member, DW_AT_type(*DW$T$16)
    5875                      .dwattr DW$413, DW_AT_name("f_P"), DW_AT_symbol_name("_f_P")
    5876                      .dwattr DW$413, DW_AT_data_member_location[DW_OP_plus_uconst 0x6]
    5877                      .dwattr DW$413, DW_AT_accessibility(DW_ACCESS_public)
    5878              DW$414  .dwtag  DW_TAG_member, DW_AT_type(*DW$T$16)
    5879                      .dwattr DW$414, DW_AT_name("f_Q"), DW_AT_symbol_name("_f_Q")
    5880                      .dwattr DW$414, DW_AT_data_member_location[DW_OP_plus_uconst 0x8]
    5881                      .dwattr DW$414, DW_AT_accessibility(DW_ACCESS_public)
    5882                      .dwendtag DW$T$27
    5883              
    5884              
TMS320C2000 COFF Assembler PC v4.1.3 Sat Oct 08 14:42:32 2011

Tools Copyright (c) 1996-2006 Texas Instruments Incorporated
C:\DOCUME~1\ADMINI~1\LOCALS~1\Temp\TI8522                            PAGE  135

    5885              DW$T$37 .dwtag  DW_TAG_structure_type
    5886                      .dwattr DW$T$37, DW_AT_byte_size(0x01)
    5887              DW$415  .dwtag  DW_TAG_member, DW_AT_type(*DW$T$11)
    5888                      .dwattr DW$415, DW_AT_name("Mdata_reflag"), DW_AT_symbol_name("_Mdata_reflag")
    5889                      .dwattr DW$415, DW_AT_bit_offset(0x0f), DW_AT_bit_size(0x01)
    5890                      .dwattr DW$415, DW_AT_data_member_location[DW_OP_plus_uconst 0x0]
    5891                      .dwattr DW$415, DW_AT_accessibility(DW_ACCESS_public)
    5892              DW$416  .dwtag  DW_TAG_member, DW_AT_type(*DW$T$11)
    5893                      .dwattr DW$416, DW_AT_name("Edata_reflag"), DW_AT_symbol_name("_Edata_reflag")
    5894                      .dwattr DW$416, DW_AT_bit_offset(0x0e), DW_AT_bit_size(0x01)
    5895                      .dwattr DW$416, DW_AT_data_member_location[DW_OP_plus_uconst 0x0]
    5896                      .dwattr DW$416, DW_AT_accessibility(DW_ACCESS_public)
    5897              DW$417  .dwtag  DW_TAG_member, DW_AT_type(*DW$T$11)
    5898                      .dwattr DW$417, DW_AT_name("Edata_Ireflag"), DW_AT_symbol_name("_Edata_Ireflag")
    5899                      .dwattr DW$417, DW_AT_bit_offset(0x0d), DW_AT_bit_size(0x01)
    5900                      .dwattr DW$417, DW_AT_data_member_location[DW_OP_plus_uconst 0x0]
    5901                      .dwattr DW$417, DW_AT_accessibility(DW_ACCESS_public)
    5902              DW$418  .dwtag  DW_TAG_member, DW_AT_type(*DW$T$11)
    5903                      .dwattr DW$418, DW_AT_name("Edata_Preflag"), DW_AT_symbol_name("_Edata_Preflag")
    5904                      .dwattr DW$418, DW_AT_bit_offset(0x0c), DW_AT_bit_size(0x01)
    5905                      .dwattr DW$418, DW_AT_data_member_location[DW_OP_plus_uconst 0x0]
    5906                      .dwattr DW$418, DW_AT_accessibility(DW_ACCESS_public)
    5907              DW$419  .dwtag  DW_TAG_member, DW_AT_type(*DW$T$11)
    5908                      .dwattr DW$419, DW_AT_name("Edata_Qreflag"), DW_AT_symbol_name("_Edata_Qreflag")
    5909                      .dwattr DW$419, DW_AT_bit_offset(0x0b), DW_AT_bit_size(0x01)
    5910                      .dwattr DW$419, DW_AT_data_member_location[DW_OP_plus_uconst 0x0]
    5911                      .dwattr DW$419, DW_AT_accessibility(DW_ACCESS_public)
    5912              DW$420  .dwtag  DW_TAG_member, DW_AT_type(*DW$T$11)
    5913                      .dwattr DW$420, DW_AT_name("Edata_Jreflag"), DW_AT_symbol_name("_Edata_Jreflag")
    5914                      .dwattr DW$420, DW_AT_bit_offset(0x0a), DW_AT_bit_size(0x01)
    5915                      .dwattr DW$420, DW_AT_data_member_location[DW_OP_plus_uconst 0x0]
    5916                      .dwattr DW$420, DW_AT_accessibility(DW_ACCESS_public)
    5917              DW$421  .dwtag  DW_TAG_member, DW_AT_type(*DW$T$11)
    5918                      .dwattr DW$421, DW_AT_name("DLerrdata_reflag"), DW_AT_symbol_name("_DLerrdata_reflag")
    5919                      .dwattr DW$421, DW_AT_bit_offset(0x09), DW_AT_bit_size(0x01)
    5920                      .dwattr DW$421, DW_AT_data_member_location[DW_OP_plus_uconst 0x0]
    5921                      .dwattr DW$421, DW_AT_accessibility(DW_ACCESS_public)
    5922              DW$422  .dwtag  DW_TAG_member, DW_AT_type(*DW$T$11)
    5923                      .dwattr DW$422, DW_AT_name("AU_OV"), DW_AT_symbol_name("_AU_OV")
    5924                      .dwattr DW$422, DW_AT_bit_offset(0x08), DW_AT_bit_size(0x01)
    5925                      .dwattr DW$422, DW_AT_data_member_location[DW_OP_plus_uconst 0x0]
    5926                      .dwattr DW$422, DW_AT_accessibility(DW_ACCESS_public)
    5927              DW$423  .dwtag  DW_TAG_member, DW_AT_type(*DW$T$11)
    5928                      .dwattr DW$423, DW_AT_name("BU_OV"), DW_AT_symbol_name("_BU_OV")
    5929                      .dwattr DW$423, DW_AT_bit_offset(0x07), DW_AT_bit_size(0x01)
    5930                      .dwattr DW$423, DW_AT_data_member_location[DW_OP_plus_uconst 0x0]
    5931                      .dwattr DW$423, DW_AT_accessibility(DW_ACCESS_public)
    5932              DW$424  .dwtag  DW_TAG_member, DW_AT_type(*DW$T$11)
    5933                      .dwattr DW$424, DW_AT_name("CU_OV"), DW_AT_symbol_name("_CU_OV")
    5934                      .dwattr DW$424, DW_AT_bit_offset(0x06), DW_AT_bit_size(0x01)
    5935                      .dwattr DW$424, DW_AT_data_member_location[DW_OP_plus_uconst 0x0]
    5936                      .dwattr DW$424, DW_AT_accessibility(DW_ACCESS_public)
    5937              DW$425  .dwtag  DW_TAG_member, DW_AT_type(*DW$T$11)
    5938                      .dwattr DW$425, DW_AT_name("AI_OV"), DW_AT_symbol_name("_AI_OV")
    5939                      .dwattr DW$425, DW_AT_bit_offset(0x05), DW_AT_bit_size(0x01)
TMS320C2000 COFF Assembler PC v4.1.3 Sat Oct 08 14:42:32 2011

Tools Copyright (c) 1996-2006 Texas Instruments Incorporated
C:\DOCUME~1\ADMINI~1\LOCALS~1\Temp\TI8522                            PAGE  136

    5940                      .dwattr DW$425, DW_AT_data_member_location[DW_OP_plus_uconst 0x0]
    5941                      .dwattr DW$425, DW_AT_accessibility(DW_ACCESS_public)
    5942              DW$426  .dwtag  DW_TAG_member, DW_AT_type(*DW$T$11)
    5943                      .dwattr DW$426, DW_AT_name("BI_OV"), DW_AT_symbol_name("_BI_OV")
    5944                      .dwattr DW$426, DW_AT_bit_offset(0x04), DW_AT_bit_size(0x01)
    5945                      .dwattr DW$426, DW_AT_data_member_location[DW_OP_plus_uconst 0x0]
    5946                      .dwattr DW$426, DW_AT_accessibility(DW_ACCESS_public)
    5947              DW$427  .dwtag  DW_TAG_member, DW_AT_type(*DW$T$11)
    5948                      .dwattr DW$427, DW_AT_name("CI_OV"), DW_AT_symbol_name("_CI_OV")
    5949                      .dwattr DW$427, DW_AT_bit_offset(0x03), DW_AT_bit_size(0x01)
    5950                      .dwattr DW$427, DW_AT_data_member_location[DW_OP_plus_uconst 0x0]
    5951                      .dwattr DW$427, DW_AT_accessibility(DW_ACCESS_public)
    5952              DW$428  .dwtag  DW_TAG_member, DW_AT_type(*DW$T$11)
    5953                      .dwattr DW$428, DW_AT_name("RES"), DW_AT_symbol_name("_RES")
    5954                      .dwattr DW$428, DW_AT_bit_offset(0x01), DW_AT_bit_size(0x02)
    5955                      .dwattr DW$428, DW_AT_data_member_location[DW_OP_plus_uconst 0x0]
    5956                      .dwattr DW$428, DW_AT_accessibility(DW_ACCESS_public)
    5957                      .dwendtag DW$T$37
    5958              
    5959              
    5960                      .dwattr DW$224, DW_AT_external(0x01)
    5961                      .dwattr DW$227, DW_AT_external(0x01)
    5962                      .dwattr DW$220, DW_AT_external(0x01)
    5963                      .dwattr DW$220, DW_AT_type(*DW$T$85)
    5964                      .dwattr DW$228, DW_AT_external(0x01)
    5965                      .dwattr DW$283, DW_AT_external(0x01)
    5966                      .dwattr DW$284, DW_AT_external(0x01)
    5967                      .dwattr DW$229, DW_AT_external(0x01)
    5968                      .dwattr DW$95, DW_AT_external(0x01)
    5969                      .dwattr DW$149, DW_AT_external(0x01)
    5970                      .dwattr DW$83, DW_AT_external(0x01)
    5971                      .dwattr DW$83, DW_AT_type(*DW$T$10)
    5972                      .dwattr DW$68, DW_AT_external(0x01)
    5973                      .dwattr DW$68, DW_AT_type(*DW$T$32)
    5974                      .dwattr DW$86, DW_AT_external(0x01)
    5975                      .dwattr DW$215, DW_AT_external(0x01)
    5976                      .dwattr DW$CU, DW_AT_language(DW_LANG_C)
    5977              
    5978              ;***************************************************************
    5979              ;* DWARF CIE ENTRIES                                           *
    5980              ;***************************************************************
    5981              
    5982              DW$CIE  .dwcie 1, 40
    5983                      .dwcfa  0x0c, 20, 0
    5984                      .dwcfa  0x07, 0
    5985                      .dwcfa  0x07, 1
    5986                      .dwcfa  0x07, 2
    5987                      .dwcfa  0x07, 3
    5988                      .dwcfa  0x07, 4
    5989                      .dwcfa  0x07, 5
    5990                      .dwcfa  0x08, 6
    5991                      .dwcfa  0x08, 7
    5992                      .dwcfa  0x08, 8
    5993                      .dwcfa  0x08, 9
    5994                      .dwcfa  0x08, 10
TMS320C2000 COFF Assembler PC v4.1.3 Sat Oct 08 14:42:32 2011

Tools Copyright (c) 1996-2006 Texas Instruments Incorporated
C:\DOCUME~1\ADMINI~1\LOCALS~1\Temp\TI8522                            PAGE  137

    5995                      .dwcfa  0x08, 11
    5996                      .dwcfa  0x07, 12
    5997                      .dwcfa  0x07, 13
    5998                      .dwcfa  0x07, 14
    5999                      .dwcfa  0x07, 15
    6000                      .dwcfa  0x07, 16
    6001                      .dwcfa  0x07, 17
    6002                      .dwcfa  0x07, 18
    6003                      .dwcfa  0x07, 19
    6004                      .dwcfa  0x07, 20
    6005                      .dwcfa  0x07, 21
    6006                      .dwcfa  0x07, 22
    6007                      .dwcfa  0x07, 23
    6008                      .dwcfa  0x07, 24
    6009                      .dwcfa  0x07, 25
    6010                      .dwcfa  0x07, 26
    6011                      .dwcfa  0x08, 27
    6012                      .dwcfa  0x07, 28
    6013                      .dwcfa  0x07, 29
    6014                      .dwcfa  0x07, 30
    6015                      .dwcfa  0x07, 31
    6016                      .dwcfa  0x07, 32
    6017                      .dwcfa  0x07, 33
    6018                      .dwcfa  0x07, 34
    6019                      .dwcfa  0x07, 35
    6020                      .dwcfa  0x07, 36
    6021                      .dwcfa  0x07, 37
    6022                      .dwcfa  0x07, 38
    6023                      .dwcfa  0x07, 39
    6024                      .dwcfa  0x07, 40
    6025              
    6026              ;***************************************************************
    6027              ;* DWARF REGISTER MAP                                          *
    6028              ;***************************************************************
    6029              
    6030              DW$429  .dwtag  DW_TAG_assign_register, DW_AT_name("AL")
    6031                      .dwattr DW$429, DW_AT_location[DW_OP_reg0]
    6032              DW$430  .dwtag  DW_TAG_assign_register, DW_AT_name("AH")
    6033                      .dwattr DW$430, DW_AT_location[DW_OP_reg1]
    6034              DW$431  .dwtag  DW_TAG_assign_register, DW_AT_name("PL")
    6035                      .dwattr DW$431, DW_AT_location[DW_OP_reg2]
    6036              DW$432  .dwtag  DW_TAG_assign_register, DW_AT_name("PH")
    6037                      .dwattr DW$432, DW_AT_location[DW_OP_reg3]
    6038              DW$433  .dwtag  DW_TAG_assign_register, DW_AT_name("AR0")
    6039                      .dwattr DW$433, DW_AT_location[DW_OP_reg4]
    6040              DW$434  .dwtag  DW_TAG_assign_register, DW_AT_name("XAR0")
    6041                      .dwattr DW$434, DW_AT_location[DW_OP_reg5]
    6042              DW$435  .dwtag  DW_TAG_assign_register, DW_AT_name("AR1")
    6043                      .dwattr DW$435, DW_AT_location[DW_OP_reg6]
    6044              DW$436  .dwtag  DW_TAG_assign_register, DW_AT_name("XAR1")
    6045                      .dwattr DW$436, DW_AT_location[DW_OP_reg7]
    6046              DW$437  .dwtag  DW_TAG_assign_register, DW_AT_name("AR2")
    6047                      .dwattr DW$437, DW_AT_location[DW_OP_reg8]
    6048              DW$438  .dwtag  DW_TAG_assign_register, DW_AT_name("XAR2")
    6049                      .dwattr DW$438, DW_AT_location[DW_OP_reg9]
TMS320C2000 COFF Assembler PC v4.1.3 Sat Oct 08 14:42:32 2011

Tools Copyright (c) 1996-2006 Texas Instruments Incorporated
C:\DOCUME~1\ADMINI~1\LOCALS~1\Temp\TI8522                            PAGE  138

    6050              DW$439  .dwtag  DW_TAG_assign_register, DW_AT_name("AR3")
    6051                      .dwattr DW$439, DW_AT_location[DW_OP_reg10]
    6052              DW$440  .dwtag  DW_TAG_assign_register, DW_AT_name("XAR3")
    6053                      .dwattr DW$440, DW_AT_location[DW_OP_reg11]
    6054              DW$441  .dwtag  DW_TAG_assign_register, DW_AT_name("AR4")
    6055                      .dwattr DW$441, DW_AT_location[DW_OP_reg12]
    6056              DW$442  .dwtag  DW_TAG_assign_register, DW_AT_name("XAR4")
    6057                      .dwattr DW$442, DW_AT_location[DW_OP_reg13]
    6058              DW$443  .dwtag  DW_TAG_assign_register, DW_AT_name("AR5")
    6059                      .dwattr DW$443, DW_AT_location[DW_OP_reg14]
    6060              DW$444  .dwtag  DW_TAG_assign_register, DW_AT_name("XAR5")
    6061                      .dwattr DW$444, DW_AT_location[DW_OP_reg15]
    6062              DW$445  .dwtag  DW_TAG_assign_register, DW_AT_name("AR6")
    6063                      .dwattr DW$445, DW_AT_location[DW_OP_reg16]
    6064              DW$446  .dwtag  DW_TAG_assign_register, DW_AT_name("XAR6")
    6065                      .dwattr DW$446, DW_AT_location[DW_OP_reg17]
    6066              DW$447  .dwtag  DW_TAG_assign_register, DW_AT_name("AR7")
    6067                      .dwattr DW$447, DW_AT_location[DW_OP_reg18]
    6068              DW$448  .dwtag  DW_TAG_assign_register, DW_AT_name("XAR7")
    6069                      .dwattr DW$448, DW_AT_location[DW_OP_reg19]
    6070              DW$449  .dwtag  DW_TAG_assign_register, DW_AT_name("SP")
    6071                      .dwattr DW$449, DW_AT_location[DW_OP_reg20]
    6072              DW$450  .dwtag  DW_TAG_assign_register, DW_AT_name("XT")
    6073                      .dwattr DW$450, DW_AT_location[DW_OP_reg21]
    6074              DW$451  .dwtag  DW_TAG_assign_register, DW_AT_name("T")
    6075                      .dwattr DW$451, DW_AT_location[DW_OP_reg22]
    6076              DW$452  .dwtag  DW_TAG_assign_register, DW_AT_name("ST0")
    6077                      .dwattr DW$452, DW_AT_location[DW_OP_reg23]
    6078              DW$453  .dwtag  DW_TAG_assign_register, DW_AT_name("ST1")
    6079                      .dwattr DW$453, DW_AT_location[DW_OP_reg24]
    6080              DW$454  .dwtag  DW_TAG_assign_register, DW_AT_name("PC")
    6081                      .dwattr DW$454, DW_AT_location[DW_OP_reg25]
    6082              DW$455  .dwtag  DW_TAG_assign_register, DW_AT_name("RPC")
    6083                      .dwattr DW$455, DW_AT_location[DW_OP_reg26]
    6084              DW$456  .dwtag  DW_TAG_assign_register, DW_AT_name("FP")
    6085                      .dwattr DW$456, DW_AT_location[DW_OP_reg27]
    6086              DW$457  .dwtag  DW_TAG_assign_register, DW_AT_name("DP")
    6087                      .dwattr DW$457, DW_AT_location[DW_OP_reg28]
    6088              DW$458  .dwtag  DW_TAG_assign_register, DW_AT_name("SXM")
    6089                      .dwattr DW$458, DW_AT_location[DW_OP_reg29]
    6090              DW$459  .dwtag  DW_TAG_assign_register, DW_AT_name("PM")
    6091                      .dwattr DW$459, DW_AT_location[DW_OP_reg30]
    6092              DW$460  .dwtag  DW_TAG_assign_register, DW_AT_name("OVM")
    6093                      .dwattr DW$460, DW_AT_location[DW_OP_reg31]
    6094              DW$461  .dwtag  DW_TAG_assign_register, DW_AT_name("PAGE0")
    6095                      .dwattr DW$461, DW_AT_location[DW_OP_regx 0x20]
    6096              DW$462  .dwtag  DW_TAG_assign_register, DW_AT_name("AMODE")
    6097                      .dwattr DW$462, DW_AT_location[DW_OP_regx 0x21]
    6098              DW$463  .dwtag  DW_TAG_assign_register, DW_AT_name("IFR")
    6099                      .dwattr DW$463, DW_AT_location[DW_OP_regx 0x22]
    6100              DW$464  .dwtag  DW_TAG_assign_register, DW_AT_name("IER")
    6101                      .dwattr DW$464, DW_AT_location[DW_OP_regx 0x23]
    6102              DW$465  .dwtag  DW_TAG_assign_register, DW_AT_name("IER")
    6103                      .dwattr DW$465, DW_AT_location[DW_OP_regx 0x24]
    6104              DW$466  .dwtag  DW_TAG_assign_register, DW_AT_name("PSEUDO")
TMS320C2000 COFF Assembler PC v4.1.3 Sat Oct 08 14:42:32 2011

Tools Copyright (c) 1996-2006 Texas Instruments Incorporated
C:\DOCUME~1\ADMINI~1\LOCALS~1\Temp\TI8522                            PAGE  139

    6105                      .dwattr DW$466, DW_AT_location[DW_OP_regx 0x25]
    6106              DW$467  .dwtag  DW_TAG_assign_register, DW_AT_name("PSEUDOH")
    6107                      .dwattr DW$467, DW_AT_location[DW_OP_regx 0x26]
    6108              DW$468  .dwtag  DW_TAG_assign_register, DW_AT_name("VOL")
    6109                      .dwattr DW$468, DW_AT_location[DW_OP_regx 0x27]
    6110              DW$469  .dwtag  DW_TAG_assign_register, DW_AT_name("CIE_RETA")
    6111                      .dwattr DW$469, DW_AT_location[DW_OP_regx 0x28]
    6112                      .dwendtag DW$CU
    6113              

No Assembly Errors, No Assembly Warnings
