TMS320C2000 COFF Assembler PC v4.1.3 Thu Sep 15 15:05:07 2011

Tools Copyright (c) 1996-2006 Texas Instruments Incorporated
C:\DOCUME~1\ADMINI~1\LOCALS~1\Temp\TI4802                            PAGE    1

       1              ;***************************************************************
       2              ;* TMS320C2000 C/C++ Codegen                         PC v4.1.3 *
       3              ;* Date/Time created: Thu Sep 15 15:05:06 2011                 *
       4              ;***************************************************************
       5                      .compiler_opts --mem_model:code=flat --mem_model:data=large --silicon_version=28 
       6        0002  FP      .set    XAR2
       7              
       8              DW$CU   .dwtag  DW_TAG_compile_unit
       9                      .dwattr DW$CU, DW_AT_name("app_WIRmod_fun.c")
      10                      .dwattr DW$CU, DW_AT_producer("TMS320C2000 C/C++ Codegen PC v4.1.3 Copyright (c) 1996-2006 Texas Inst
      11                      .dwattr DW$CU, DW_AT_stmt_list(0x00)
      12                      .dwattr DW$CU, DW_AT_TI_VERSION(0x01)
      13              ;**************************************************************
      14              ;* CINIT RECORDS                                              *
      15              ;**************************************************************
      16 00000000               .sect   ".cinit"
      17                      .align  1
      18 00000000 FFFF          .field          -1,16
      19 00000001 0000-         .field          _m_WIR_is_draw+0,32
         00000002 0000 
      20 00000003 0000          .field          0,16                    ; _m_WIR_is_draw @ 0
      21              
      22 00000004               .sect   ".cinit"
      23                      .align  1
      24 00000004 FFFF          .field          -1,16
      25 00000005 0001-         .field          _m_WIR_jxmod+0,32
         00000006 0000 
      26 00000007 0003          .field          3,16                    ; _m_WIR_jxmod @ 0
      27              
      28 00000008               .sect   ".cinit"
      29                      .align  1
      30 00000008 FFFF          .field          -1,16
      31 00000009 0002-         .field          _m_WIR_cosoffset+0,32
         0000000a 0000 
      32 0000000b 000A          .field          10,16                   ; _m_WIR_cosoffset @ 0
      33              
      34 0000000c               .sect   ".cinit"
      35                      .align  1
      36 0000000c FFFF          .field          -1,16
      37 0000000d 0003-         .field          _m_WIR_main_task_pro+0,32
         0000000e 0000 
      38 0000000f 00BE          .field          190,16                  ; _m_WIR_main_task_pro @ 0
      39              
      40              
      41              DW$1    .dwtag  DW_TAG_subprogram, DW_AT_name("app_WIRmod_window_creat"), DW_AT_symbol_name("_app_WIRmod_wind
      42                      .dwattr DW$1, DW_AT_declaration(0x01)
      43                      .dwattr DW$1, DW_AT_external(0x01)
      44              
      45              DW$2    .dwtag  DW_TAG_subprogram, DW_AT_name("app_WIRmod_alg_exit"), DW_AT_symbol_name("_app_WIRmod_alg_exit
      46                      .dwattr DW$2, DW_AT_declaration(0x01)
      47                      .dwattr DW$2, DW_AT_external(0x01)
      48              
      49              DW$3    .dwtag  DW_TAG_subprogram, DW_AT_name("app_WIRmod_result_lostUI_display"), DW_AT_symbol_name("_app_WI
      50                      .dwattr DW$3, DW_AT_declaration(0x01)
      51                      .dwattr DW$3, DW_AT_external(0x01)
TMS320C2000 COFF Assembler PC v4.1.3 Thu Sep 15 15:05:07 2011

Tools Copyright (c) 1996-2006 Texas Instruments Incorporated
C:\DOCUME~1\ADMINI~1\LOCALS~1\Temp\TI4802                            PAGE    2

      52              DW$4    .dwtag  DW_TAG_formal_parameter, DW_AT_type(*DW$T$83)
      53                      .dwendtag DW$3
      54              
      55              
      56              DW$5    .dwtag  DW_TAG_subprogram, DW_AT_name("app_WIRmod_result_display"), DW_AT_symbol_name("_app_WIRmod_re
      57                      .dwattr DW$5, DW_AT_declaration(0x01)
      58                      .dwattr DW$5, DW_AT_external(0x01)
      59              DW$6    .dwtag  DW_TAG_formal_parameter, DW_AT_type(*DW$T$87)
      60                      .dwendtag DW$5
      61              
      62              
      63              DW$7    .dwtag  DW_TAG_subprogram, DW_AT_name("app_WIRmod_componet_auto_link"), DW_AT_symbol_name("_app_WIRmo
      64                      .dwattr DW$7, DW_AT_declaration(0x01)
      65                      .dwattr DW$7, DW_AT_external(0x01)
      66              DW$8    .dwtag  DW_TAG_formal_parameter, DW_AT_type(*DW$T$87)
      67                      .dwendtag DW$7
      68              
      69              
      70              DW$9    .dwtag  DW_TAG_subprogram, DW_AT_name("GUI_clean_window"), DW_AT_symbol_name("_GUI_clean_window")
      71                      .dwattr DW$9, DW_AT_declaration(0x01)
      72                      .dwattr DW$9, DW_AT_external(0x01)
      73              
      74              DW$10   .dwtag  DW_TAG_subprogram, DW_AT_name("GUI_window_hwin_release"), DW_AT_symbol_name("_GUI_window_hwin
      75                      .dwattr DW$10, DW_AT_declaration(0x01)
      76                      .dwattr DW$10, DW_AT_external(0x01)
      77              DW$11   .dwtag  DW_TAG_formal_parameter, DW_AT_type(*DW$T$75)
      78                      .dwendtag DW$10
      79              
      80              
      81              DW$12   .dwtag  DW_TAG_subprogram, DW_AT_name("GUI_3D_window_title_mod"), DW_AT_symbol_name("_GUI_3D_window_t
      82                      .dwattr DW$12, DW_AT_declaration(0x01)
      83                      .dwattr DW$12, DW_AT_external(0x01)
      84              DW$13   .dwtag  DW_TAG_formal_parameter, DW_AT_type(*DW$T$75)
      85              DW$14   .dwtag  DW_TAG_formal_parameter, DW_AT_type(*DW$T$52)
      86                      .dwendtag DW$12
      87              
      88              
      89              DW$15   .dwtag  DW_TAG_subprogram, DW_AT_name("app_WIRmod_alg_entery"), DW_AT_symbol_name("_app_WIRmod_alg_en
      90                      .dwattr DW$15, DW_AT_declaration(0x01)
      91                      .dwattr DW$15, DW_AT_external(0x01)
      92              
      93              DW$16   .dwtag  DW_TAG_subprogram, DW_AT_name("ELEcomponent_maneger_init"), DW_AT_symbol_name("_ELEcomponent_
      94                      .dwattr DW$16, DW_AT_declaration(0x01)
      95                      .dwattr DW$16, DW_AT_external(0x01)
      96              
      97              DW$17   .dwtag  DW_TAG_subprogram, DW_AT_name("app_WIRmod_draw_creat"), DW_AT_symbol_name("_app_WIRmod_draw_c
      98                      .dwattr DW$17, DW_AT_declaration(0x01)
      99                      .dwattr DW$17, DW_AT_external(0x01)
     100              DW$18   .dwtag  DW_TAG_formal_parameter, DW_AT_type(*DW$T$6)
     101                      .dwendtag DW$17
     102              
     103              
     104              DW$19   .dwtag  DW_TAG_subprogram, DW_AT_name("global_memset"), DW_AT_symbol_name("_global_memset")
     105                      .dwattr DW$19, DW_AT_declaration(0x01)
     106                      .dwattr DW$19, DW_AT_external(0x01)
TMS320C2000 COFF Assembler PC v4.1.3 Thu Sep 15 15:05:07 2011

Tools Copyright (c) 1996-2006 Texas Instruments Incorporated
C:\DOCUME~1\ADMINI~1\LOCALS~1\Temp\TI4802                            PAGE    3

     107              DW$20   .dwtag  DW_TAG_formal_parameter, DW_AT_type(*DW$T$3)
     108              DW$21   .dwtag  DW_TAG_formal_parameter, DW_AT_type(*DW$T$6)
     109              DW$22   .dwtag  DW_TAG_formal_parameter, DW_AT_type(*DW$T$23)
     110                      .dwendtag DW$19
     111              
     112              
     113              DW$23   .dwtag  DW_TAG_subprogram, DW_AT_name("global_memcpy"), DW_AT_symbol_name("_global_memcpy")
     114                      .dwattr DW$23, DW_AT_declaration(0x01)
     115                      .dwattr DW$23, DW_AT_external(0x01)
     116              DW$24   .dwtag  DW_TAG_formal_parameter, DW_AT_type(*DW$T$3)
     117              DW$25   .dwtag  DW_TAG_formal_parameter, DW_AT_type(*DW$T$3)
     118              DW$26   .dwtag  DW_TAG_formal_parameter, DW_AT_type(*DW$T$23)
     119                      .dwendtag DW$23
     120              
     121              
     122              DW$27   .dwtag  DW_TAG_subprogram, DW_AT_name("app_free"), DW_AT_symbol_name("_app_free")
     123                      .dwattr DW$27, DW_AT_declaration(0x01)
     124                      .dwattr DW$27, DW_AT_external(0x01)
     125              DW$28   .dwtag  DW_TAG_formal_parameter, DW_AT_type(*DW$T$3)
     126                      .dwendtag DW$27
     127              
     128              
     129              DW$29   .dwtag  DW_TAG_subprogram, DW_AT_name("global_string_filter"), DW_AT_symbol_name("_global_string_filt
     130                      .dwattr DW$29, DW_AT_declaration(0x01)
     131                      .dwattr DW$29, DW_AT_external(0x01)
     132              DW$30   .dwtag  DW_TAG_formal_parameter, DW_AT_type(*DW$T$52)
     133              DW$31   .dwtag  DW_TAG_formal_parameter, DW_AT_type(*DW$T$29)
     134                      .dwendtag DW$29
     135              
     136              
     137              DW$32   .dwtag  DW_TAG_subprogram, DW_AT_name("app_module_switch_last_mod"), DW_AT_symbol_name("_app_module_s
     138                      .dwattr DW$32, DW_AT_declaration(0x01)
     139                      .dwattr DW$32, DW_AT_external(0x01)
     140              
     141              DW$33   .dwtag  DW_TAG_subprogram, DW_AT_name("OSTimeDly"), DW_AT_symbol_name("_OSTimeDly")
     142                      .dwattr DW$33, DW_AT_declaration(0x01)
     143                      .dwattr DW$33, DW_AT_external(0x01)
     144              DW$34   .dwtag  DW_TAG_formal_parameter, DW_AT_type(*DW$T$20)
     145                      .dwendtag DW$33
     146              
     147              
     148              DW$35   .dwtag  DW_TAG_subprogram, DW_AT_name("app_module_pos_name_set"), DW_AT_symbol_name("_app_module_pos_
     149                      .dwattr DW$35, DW_AT_declaration(0x01)
     150                      .dwattr DW$35, DW_AT_external(0x01)
     151              DW$36   .dwtag  DW_TAG_formal_parameter, DW_AT_type(*DW$T$52)
     152                      .dwendtag DW$35
     153              
     154              
     155              DW$37   .dwtag  DW_TAG_subprogram, DW_AT_name("app_module_assign_mod"), DW_AT_symbol_name("_app_module_assign
     156                      .dwattr DW$37, DW_AT_declaration(0x01)
     157                      .dwattr DW$37, DW_AT_external(0x01)
     158              DW$38   .dwtag  DW_TAG_formal_parameter, DW_AT_type(*DW$T$23)
     159                      .dwendtag DW$37
     160              
     161              
TMS320C2000 COFF Assembler PC v4.1.3 Thu Sep 15 15:05:07 2011

Tools Copyright (c) 1996-2006 Texas Instruments Incorporated
C:\DOCUME~1\ADMINI~1\LOCALS~1\Temp\TI4802                            PAGE    4

     162              DW$39   .dwtag  DW_TAG_subprogram, DW_AT_name("GUI_set_Bgcolor"), DW_AT_symbol_name("_GUI_set_Bgcolor")
     163                      .dwattr DW$39, DW_AT_declaration(0x01)
     164                      .dwattr DW$39, DW_AT_external(0x01)
     165              DW$40   .dwtag  DW_TAG_formal_parameter, DW_AT_type(*DW$T$11)
     166                      .dwendtag DW$39
     167              
     168              
     169              DW$41   .dwtag  DW_TAG_subprogram, DW_AT_name("GUI_window_hwin_req"), DW_AT_symbol_name("_GUI_window_hwin_req
     170                      .dwattr DW$41, DW_AT_declaration(0x01)
     171                      .dwattr DW$41, DW_AT_external(0x01)
     172              DW$42   .dwtag  DW_TAG_formal_parameter, DW_AT_type(*DW$T$75)
     173                      .dwendtag DW$41
     174              
     175              
     176              DW$43   .dwtag  DW_TAG_subprogram, DW_AT_name("GUI_set_Fgcolor"), DW_AT_symbol_name("_GUI_set_Fgcolor")
     177                      .dwattr DW$43, DW_AT_declaration(0x01)
     178                      .dwattr DW$43, DW_AT_external(0x01)
     179              DW$44   .dwtag  DW_TAG_formal_parameter, DW_AT_type(*DW$T$11)
     180                      .dwendtag DW$43
     181              
     182              
     183              DW$45   .dwtag  DW_TAG_subprogram, DW_AT_name("app_global_key_dummy_press"), DW_AT_symbol_name("_app_global_k
     184                      .dwattr DW$45, DW_AT_declaration(0x01)
     185                      .dwattr DW$45, DW_AT_external(0x01)
     186              DW$46   .dwtag  DW_TAG_formal_parameter, DW_AT_type(*DW$T$6)
     187                      .dwendtag DW$45
     188              
     189              
     190              DW$47   .dwtag  DW_TAG_subprogram, DW_AT_name("os_task_name_set"), DW_AT_symbol_name("_os_task_name_set")
     191                      .dwattr DW$47, DW_AT_type(*DW$T$6)
     192                      .dwattr DW$47, DW_AT_declaration(0x01)
     193                      .dwattr DW$47, DW_AT_external(0x01)
     194              DW$48   .dwtag  DW_TAG_formal_parameter, DW_AT_type(*DW$T$6)
     195              DW$49   .dwtag  DW_TAG_formal_parameter, DW_AT_type(*DW$T$52)
     196                      .dwendtag DW$47
     197              
     198              
     199              DW$50   .dwtag  DW_TAG_subprogram, DW_AT_name("os_task_delete"), DW_AT_symbol_name("_os_task_delete")
     200                      .dwattr DW$50, DW_AT_type(*DW$T$6)
     201                      .dwattr DW$50, DW_AT_declaration(0x01)
     202                      .dwattr DW$50, DW_AT_external(0x01)
     203              DW$51   .dwtag  DW_TAG_formal_parameter, DW_AT_type(*DW$T$6)
     204                      .dwendtag DW$50
     205              
     206              
     207              DW$52   .dwtag  DW_TAG_subprogram, DW_AT_name("global_strcat"), DW_AT_symbol_name("_global_strcat")
     208                      .dwattr DW$52, DW_AT_type(*DW$T$10)
     209                      .dwattr DW$52, DW_AT_declaration(0x01)
     210                      .dwattr DW$52, DW_AT_external(0x01)
     211                      .global _m_WIR_is_draw
     212 00000000       _m_WIR_is_draw: .usect  ".ebss",1,1,0
     213              DW$53   .dwtag  DW_TAG_variable, DW_AT_name("m_WIR_is_draw"), DW_AT_symbol_name("_m_WIR_is_draw")
     214                      .dwattr DW$53, DW_AT_location[DW_OP_addr _m_WIR_is_draw]
     215                      .dwattr DW$53, DW_AT_type(*DW$T$6)
     216                      .dwattr DW$53, DW_AT_external(0x01)
TMS320C2000 COFF Assembler PC v4.1.3 Thu Sep 15 15:05:07 2011

Tools Copyright (c) 1996-2006 Texas Instruments Incorporated
C:\DOCUME~1\ADMINI~1\LOCALS~1\Temp\TI4802                            PAGE    5

     217                      .global _m_WIR_jxmod
     218 00000001       _m_WIR_jxmod:   .usect  ".ebss",1,1,0
     219              DW$54   .dwtag  DW_TAG_variable, DW_AT_name("m_WIR_jxmod"), DW_AT_symbol_name("_m_WIR_jxmod")
     220                      .dwattr DW$54, DW_AT_location[DW_OP_addr _m_WIR_jxmod]
     221                      .dwattr DW$54, DW_AT_type(*DW$T$6)
     222                      .dwattr DW$54, DW_AT_external(0x01)
     223                      .global _m_WIR_cosoffset
     224 00000002       _m_WIR_cosoffset:       .usect  ".ebss",1,1,0
     225              DW$55   .dwtag  DW_TAG_variable, DW_AT_name("m_WIR_cosoffset"), DW_AT_symbol_name("_m_WIR_cosoffset")
     226                      .dwattr DW$55, DW_AT_location[DW_OP_addr _m_WIR_cosoffset]
     227                      .dwattr DW$55, DW_AT_type(*DW$T$6)
     228                      .dwattr DW$55, DW_AT_external(0x01)
     229              
     230              DW$56   .dwtag  DW_TAG_subprogram, DW_AT_name("os_sem_pend"), DW_AT_symbol_name("_os_sem_pend")
     231                      .dwattr DW$56, DW_AT_type(*DW$T$6)
     232                      .dwattr DW$56, DW_AT_declaration(0x01)
     233                      .dwattr DW$56, DW_AT_external(0x01)
     234              DW$57   .dwtag  DW_TAG_formal_parameter, DW_AT_type(*DW$T$100)
     235              DW$58   .dwtag  DW_TAG_formal_parameter, DW_AT_type(*DW$T$11)
     236                      .dwendtag DW$56
     237              
     238                      .global _m_WIR_main_task_pro
     239 00000003       _m_WIR_main_task_pro:   .usect  ".ebss",1,1,0
     240              DW$59   .dwtag  DW_TAG_variable, DW_AT_name("m_WIR_main_task_pro"), DW_AT_symbol_name("_m_WIR_main_task_pro")
     241                      .dwattr DW$59, DW_AT_location[DW_OP_addr _m_WIR_main_task_pro]
     242                      .dwattr DW$59, DW_AT_type(*DW$T$6)
     243                      .dwattr DW$59, DW_AT_external(0x01)
     244              
     245              DW$60   .dwtag  DW_TAG_subprogram, DW_AT_name("global_memcmp"), DW_AT_symbol_name("_global_memcmp")
     246                      .dwattr DW$60, DW_AT_type(*DW$T$109)
     247                      .dwattr DW$60, DW_AT_declaration(0x01)
     248                      .dwattr DW$60, DW_AT_external(0x01)
     249              DW$61   .dwtag  DW_TAG_formal_parameter, DW_AT_type(*DW$T$3)
     250              DW$62   .dwtag  DW_TAG_formal_parameter, DW_AT_type(*DW$T$3)
     251              DW$63   .dwtag  DW_TAG_formal_parameter, DW_AT_type(*DW$T$23)
     252                      .dwendtag DW$60
     253              
     254              
     255              DW$64   .dwtag  DW_TAG_subprogram, DW_AT_name("app_global_key_obtain"), DW_AT_symbol_name("_app_global_key_ob
     256                      .dwattr DW$64, DW_AT_type(*DW$T$6)
     257                      .dwattr DW$64, DW_AT_declaration(0x01)
     258                      .dwattr DW$64, DW_AT_external(0x01)
     259              DW$65   .dwtag  DW_TAG_formal_parameter, DW_AT_type(*DW$T$114)
     260              DW$66   .dwtag  DW_TAG_formal_parameter, DW_AT_type(*DW$T$23)
     261                      .dwendtag DW$64
     262              
     263              
     264              DW$67   .dwtag  DW_TAG_subprogram, DW_AT_name("GUI_drop_list_unfold"), DW_AT_symbol_name("_GUI_drop_list_unfo
     265                      .dwattr DW$67, DW_AT_type(*DW$T$23)
     266                      .dwattr DW$67, DW_AT_declaration(0x01)
     267                      .dwattr DW$67, DW_AT_external(0x01)
     268              DW$68   .dwtag  DW_TAG_formal_parameter, DW_AT_type(*DW$T$75)
     269                      .dwendtag DW$67
     270              
     271              
TMS320C2000 COFF Assembler PC v4.1.3 Thu Sep 15 15:05:07 2011

Tools Copyright (c) 1996-2006 Texas Instruments Incorporated
C:\DOCUME~1\ADMINI~1\LOCALS~1\Temp\TI4802                            PAGE    6

     272              DW$69   .dwtag  DW_TAG_subprogram, DW_AT_name("os_task_assign_stk_build"), DW_AT_symbol_name("_os_task_assign
     273                      .dwattr DW$69, DW_AT_type(*DW$T$6)
     274                      .dwattr DW$69, DW_AT_declaration(0x01)
     275                      .dwattr DW$69, DW_AT_external(0x01)
     276              DW$70   .dwtag  DW_TAG_formal_parameter, DW_AT_type(*DW$T$32)
     277              DW$71   .dwtag  DW_TAG_formal_parameter, DW_AT_type(*DW$T$23)
     278                      .dwendtag DW$69
     279              
     280              
     281              DW$72   .dwtag  DW_TAG_subprogram, DW_AT_name("f_close"), DW_AT_symbol_name("_f_close")
     282                      .dwattr DW$72, DW_AT_type(*DW$T$151)
     283                      .dwattr DW$72, DW_AT_declaration(0x01)
     284                      .dwattr DW$72, DW_AT_external(0x01)
     285              DW$73   .dwtag  DW_TAG_formal_parameter, DW_AT_type(*DW$T$153)
     286                      .dwendtag DW$72
     287              
     288              
     289              DW$74   .dwtag  DW_TAG_subprogram, DW_AT_name("f_open"), DW_AT_symbol_name("_f_open")
     290                      .dwattr DW$74, DW_AT_type(*DW$T$151)
     291                      .dwattr DW$74, DW_AT_declaration(0x01)
     292                      .dwattr DW$74, DW_AT_external(0x01)
     293              DW$75   .dwtag  DW_TAG_formal_parameter, DW_AT_type(*DW$T$153)
     294              DW$76   .dwtag  DW_TAG_formal_parameter, DW_AT_type(*DW$T$138)
     295              DW$77   .dwtag  DW_TAG_formal_parameter, DW_AT_type(*DW$T$37)
     296                      .dwendtag DW$74
     297              
     298              
     299              DW$78   .dwtag  DW_TAG_subprogram, DW_AT_name("f_write"), DW_AT_symbol_name("_f_write")
     300                      .dwattr DW$78, DW_AT_type(*DW$T$151)
     301                      .dwattr DW$78, DW_AT_declaration(0x01)
     302                      .dwattr DW$78, DW_AT_external(0x01)
     303              DW$79   .dwtag  DW_TAG_formal_parameter, DW_AT_type(*DW$T$153)
     304              DW$80   .dwtag  DW_TAG_formal_parameter, DW_AT_type(*DW$T$81)
     305              DW$81   .dwtag  DW_TAG_formal_parameter, DW_AT_type(*DW$T$127)
     306              DW$82   .dwtag  DW_TAG_formal_parameter, DW_AT_type(*DW$T$128)
     307                      .dwendtag DW$78
     308              
     309              DW$83   .dwtag  DW_TAG_variable, DW_AT_name("m_draw_win"), DW_AT_symbol_name("_m_draw_win")
     310                      .dwattr DW$83, DW_AT_type(*DW$T$75)
     311                      .dwattr DW$83, DW_AT_declaration(0x01)
     312                      .dwattr DW$83, DW_AT_external(0x01)
     313              DW$84   .dwtag  DW_TAG_variable, DW_AT_name("m_WIR_cos_drop_list"), DW_AT_symbol_name("_m_WIR_cos_drop_list")
     314                      .dwattr DW$84, DW_AT_type(*DW$T$75)
     315                      .dwattr DW$84, DW_AT_declaration(0x01)
     316                      .dwattr DW$84, DW_AT_external(0x01)
     317              
     318              DW$85   .dwtag  DW_TAG_subprogram, DW_AT_name("app_malloc"), DW_AT_symbol_name("_app_malloc")
     319                      .dwattr DW$85, DW_AT_type(*DW$T$3)
     320                      .dwattr DW$85, DW_AT_declaration(0x01)
     321                      .dwattr DW$85, DW_AT_external(0x01)
     322              DW$86   .dwtag  DW_TAG_formal_parameter, DW_AT_type(*DW$T$23)
     323                      .dwendtag DW$85
     324              
     325              
     326              DW$87   .dwtag  DW_TAG_subprogram, DW_AT_name("global_atof"), DW_AT_symbol_name("_global_atof")
TMS320C2000 COFF Assembler PC v4.1.3 Thu Sep 15 15:05:07 2011

Tools Copyright (c) 1996-2006 Texas Instruments Incorporated
C:\DOCUME~1\ADMINI~1\LOCALS~1\Temp\TI4802                            PAGE    7

     327                      .dwattr DW$87, DW_AT_type(*DW$T$16)
     328                      .dwattr DW$87, DW_AT_declaration(0x01)
     329                      .dwattr DW$87, DW_AT_external(0x01)
     330              DW$88   .dwtag  DW_TAG_formal_parameter, DW_AT_type(*DW$T$52)
     331                      .dwendtag DW$87
     332              
     333              
     334              DW$89   .dwtag  DW_TAG_subprogram, DW_AT_name("global_string_locate_first"), DW_AT_symbol_name("_global_strin
     335                      .dwattr DW$89, DW_AT_type(*DW$T$52)
     336                      .dwattr DW$89, DW_AT_declaration(0x01)
     337                      .dwattr DW$89, DW_AT_external(0x01)
     338              DW$90   .dwtag  DW_TAG_formal_parameter, DW_AT_type(*DW$T$52)
     339              DW$91   .dwtag  DW_TAG_formal_parameter, DW_AT_type(*DW$T$52)
     340                      .dwendtag DW$89
     341              
     342              
     343              DW$92   .dwtag  DW_TAG_subprogram, DW_AT_name("global_strcpy"), DW_AT_symbol_name("_global_strcpy")
     344                      .dwattr DW$92, DW_AT_type(*DW$T$52)
     345                      .dwattr DW$92, DW_AT_declaration(0x01)
     346                      .dwattr DW$92, DW_AT_external(0x01)
     347              DW$93   .dwtag  DW_TAG_formal_parameter, DW_AT_type(*DW$T$52)
     348              DW$94   .dwtag  DW_TAG_formal_parameter, DW_AT_type(*DW$T$52)
     349                      .dwendtag DW$92
     350              
     351              DW$95   .dwtag  DW_TAG_variable, DW_AT_name("m_alg_presult"), DW_AT_symbol_name("_m_alg_presult")
     352                      .dwattr DW$95, DW_AT_type(*DW$T$83)
     353                      .dwattr DW$95, DW_AT_declaration(0x01)
     354                      .dwattr DW$95, DW_AT_external(0x01)
     355              DW$96   .dwtag  DW_TAG_variable, DW_AT_name("m_WIR_win"), DW_AT_symbol_name("_m_WIR_win")
     356                      .dwattr DW$96, DW_AT_type(*DW$T$75)
     357                      .dwattr DW$96, DW_AT_declaration(0x01)
     358                      .dwattr DW$96, DW_AT_external(0x01)
     359              DW$97   .dwtag  DW_TAG_variable, DW_AT_name("m_WIRmod_sem"), DW_AT_symbol_name("_m_WIRmod_sem")
     360                      .dwattr DW$97, DW_AT_type(*DW$T$100)
     361                      .dwattr DW$97, DW_AT_declaration(0x01)
     362                      .dwattr DW$97, DW_AT_external(0x01)
     363                      .global _m_WIRmod_I_polarity
     364 00000004       _m_WIRmod_I_polarity:   .usect  ".ebss",3,1,0
     365              DW$98   .dwtag  DW_TAG_variable, DW_AT_name("m_WIRmod_I_polarity"), DW_AT_symbol_name("_m_WIRmod_I_polarity")
     366                      .dwattr DW$98, DW_AT_location[DW_OP_addr _m_WIRmod_I_polarity]
     367                      .dwattr DW$98, DW_AT_type(*DW$T$48)
     368                      .dwattr DW$98, DW_AT_external(0x01)
     369 00000000               .sect   ".econst"
     370                      .align  1
     371 00000000       _$T0$1:
     372 00000000 0000          .field          0,16                    ; _$T0$1[0] @ 0
     373 00000001               .space  48
     374              
     375              DW$99   .dwtag  DW_TAG_variable, DW_AT_name("$T0$1"), DW_AT_symbol_name("_$T0$1")
     376                      .dwattr DW$99, DW_AT_type(*DW$T$134)
     377                      .dwattr DW$99, DW_AT_location[DW_OP_addr _$T0$1]
     378 00000004               .sect   ".econst"
     379                      .align  1
     380 00000004       _$T2$3:
     381 00000004 0000          .field          0,16                    ; _$T2$3[0] @ 0
TMS320C2000 COFF Assembler PC v4.1.3 Thu Sep 15 15:05:07 2011

Tools Copyright (c) 1996-2006 Texas Instruments Incorporated
C:\DOCUME~1\ADMINI~1\LOCALS~1\Temp\TI4802                            PAGE    8

     382 00000005               .space  80
     383              
     384              DW$100  .dwtag  DW_TAG_variable, DW_AT_name("$T2$3"), DW_AT_symbol_name("_$T2$3")
     385                      .dwattr DW$100, DW_AT_type(*DW$T$135)
     386                      .dwattr DW$100, DW_AT_location[DW_OP_addr _$T2$3]
     387 0000000a               .sect   ".econst"
     388                      .align  1
     389 0000000a       _$T3$4:
     390 0000000a 0000          .field          0,16                    ; _$T3$4[0] @ 0
     391 0000000b               .space  80
     392              
     393              DW$101  .dwtag  DW_TAG_variable, DW_AT_name("$T3$4"), DW_AT_symbol_name("_$T3$4")
     394                      .dwattr DW$101, DW_AT_type(*DW$T$135)
     395                      .dwattr DW$101, DW_AT_location[DW_OP_addr _$T3$4]
     396 00000010               .sect   ".econst"
     397                      .align  1
     398 00000010       _$T1$2:
     399 00000010 0000          .field          0,16                    ; _$T1$2[0] @ 0
     400 00000011               .space  80
     401              
     402              DW$102  .dwtag  DW_TAG_variable, DW_AT_name("$T1$2"), DW_AT_symbol_name("_$T1$2")
     403                      .dwattr DW$102, DW_AT_type(*DW$T$135)
     404                      .dwattr DW$102, DW_AT_location[DW_OP_addr _$T1$2]
     405              DW$103  .dwtag  DW_TAG_variable, DW_AT_name("g_module_id_array"), DW_AT_symbol_name("_g_module_id_array")
     406                      .dwattr DW$103, DW_AT_type(*DW$T$160)
     407                      .dwattr DW$103, DW_AT_declaration(0x01)
     408                      .dwattr DW$103, DW_AT_external(0x01)
     409                      .global _m_WIR_move_step
     410 00000016               .sect   ".econst"
     411                      .align  2
     412 00000016       _m_WIR_move_step:
     413 00000016 002E+         .field          FSL1,32         ; _m_WIR_move_step[0]._pmove @ 0
         00000017 0000 
     414 00000018 0000          .field          0,16                    ; _m_WIR_move_step[0]._step @ 32
     415 00000019               .space  16
     416 0000001a 0032+         .field          FSL2,32         ; _m_WIR_move_step[1]._pmove @ 64
         0000001b 0000 
     417 0000001c 0001          .field          1,16                    ; _m_WIR_move_step[1]._step @ 96
     418 0000001d               .space  16
     419 0000001e 0036+         .field          FSL3,32         ; _m_WIR_move_step[2]._pmove @ 128
         0000001f 0000 
     420 00000020 0002          .field          2,16                    ; _m_WIR_move_step[2]._step @ 160
     421 00000021               .space  16
     422 00000022 003A+         .field          FSL4,32         ; _m_WIR_move_step[3]._pmove @ 192
         00000023 0000 
     423 00000024 0001          .field          1,16                    ; _m_WIR_move_step[3]._step @ 224
     424 00000025               .space  16
     425 00000026 003E+         .field          FSL5,32         ; _m_WIR_move_step[4]._pmove @ 256
         00000027 0000 
     426 00000028 0001          .field          1,16                    ; _m_WIR_move_step[4]._step @ 288
     427 00000029               .space  16
     428 0000002a 0042+         .field          FSL6,32         ; _m_WIR_move_step[5]._pmove @ 320
         0000002b 0000 
     429 0000002c 0002          .field          2,16                    ; _m_WIR_move_step[5]._step @ 352
     430 0000002d               .space  16
TMS320C2000 COFF Assembler PC v4.1.3 Thu Sep 15 15:05:07 2011

Tools Copyright (c) 1996-2006 Texas Instruments Incorporated
C:\DOCUME~1\ADMINI~1\LOCALS~1\Temp\TI4802                            PAGE    9

     431              
     432              DW$104  .dwtag  DW_TAG_variable, DW_AT_name("m_WIR_move_step"), DW_AT_symbol_name("_m_WIR_move_step")
     433                      .dwattr DW$104, DW_AT_location[DW_OP_addr _m_WIR_move_step]
     434                      .dwattr DW$104, DW_AT_type(*DW$T$163)
     435                      .dwattr DW$104, DW_AT_external(0x01)
     436                      .global _m_WIRresult
     437 00000007       _m_WIRresult:   .usect  ".ebss",25,1,0
     438              DW$105  .dwtag  DW_TAG_variable, DW_AT_name("m_WIRresult"), DW_AT_symbol_name("_m_WIRresult")
     439                      .dwattr DW$105, DW_AT_location[DW_OP_addr _m_WIRresult]
     440                      .dwattr DW$105, DW_AT_type(*DW$T$86)
     441                      .dwattr DW$105, DW_AT_external(0x01)
     442              ;       C:\CCStudio_v3.3\C2000\cgtools\bin\ac2000.exe -@C:\DOCUME~1\ADMINI~1\LOCALS~1\Temp\TI4804 
     443 00000000               .sect   ".text"
     444                      .global _app_WIRmod_seletc_result
     445              
     446              DW$106  .dwtag  DW_TAG_subprogram, DW_AT_name("app_WIRmod_seletc_result"), DW_AT_symbol_name("_app_WIRmod_sel
     447                      .dwattr DW$106, DW_AT_low_pc(_app_WIRmod_seletc_result)
     448                      .dwattr DW$106, DW_AT_high_pc(0x00)
     449                      .dwattr DW$106, DW_AT_begin_file("app_WIRmod_fun.c")
     450                      .dwattr DW$106, DW_AT_begin_line(0x1a)
     451                      .dwattr DW$106, DW_AT_begin_column(0x09)
     452                      .dwpsn  "app_WIRmod_fun.c",27,1
     453              
     454                      .dwfde DW$CIE
     455              
     456              ;***************************************************************
     457              ;* FNAME: _app_WIRmod_seletc_result     FR SIZE:   6           *
     458              ;*                                                             *
     459              ;* FUNCTION ENVIRONMENT                                        *
     460              ;*                                                             *
     461              ;* FUNCTION PROPERTIES                                         *
     462              ;*                            2 Parameter,  4 Auto,  0 SOE     *
     463              ;***************************************************************
     464              
     465              _app_WIRmod_seletc_result:
     466                      .dwcfa  0x1d, -2
     467                      .dwcfa  0x1c, 26, 0
     468                      .dwcfa  0x09, 40, 26
     469 00000000 FE06          ADDB      SP,#6
     470                      .dwcfa  0x1d, -8
     471              DW$107  .dwtag  DW_TAG_variable, DW_AT_name("offset"), DW_AT_symbol_name("_offset")
     472                      .dwattr DW$107, DW_AT_type(*DW$T$23)
     473                      .dwattr DW$107, DW_AT_location[DW_OP_breg20 -3]
     474              DW$108  .dwtag  DW_TAG_variable, DW_AT_name("cos"), DW_AT_symbol_name("_cos")
     475                      .dwattr DW$108, DW_AT_type(*DW$T$16)
     476                      .dwattr DW$108, DW_AT_location[DW_OP_breg20 -6]
     477                      .dwpsn  "app_WIRmod_fun.c",30,8
     478 00000001 2B43          MOV       *-SP[3],#0            ; |30| 
     479                      .dwpsn  "app_WIRmod_fun.c",30,19
     480 00000002 9243          MOV       AL,*-SP[3]            ; |30| 
     481 00000003 5204          CMPB      AL,#4                 ; |30| 
     482 00000004 FFE7          B         L7,HIS                ; |30| 
         00000005 00EC 
     483                      ; branchcc occurs ; |30| 
     484              L1:    
TMS320C2000 COFF Assembler PC v4.1.3 Thu Sep 15 15:05:07 2011

Tools Copyright (c) 1996-2006 Texas Instruments Incorporated
C:\DOCUME~1\ADMINI~1\LOCALS~1\Temp\TI4802                            PAGE   10

     485              DW$L$_app_WIRmod_seletc_result$2$B:
     486                      .dwpsn  "app_WIRmod_fun.c",32,3
     487 00000006 28AC          MOV       T,#69                 ; |32| 
         00000007 0045 
     488 00000008 761F!         MOVW      DP,#_m_alg_presult
         00000009 0000 
     489 0000000a 3243          MPYXU     P,T,*-SP[3]           ; |32| 
     490 0000000b 0600!         MOVL      ACC,@_m_alg_presult   ; |32| 
     491 0000000c 07AB          ADDL      ACC,P
     492 0000000d 0908          ADDB      ACC,#8                ; |32| 
     493 0000000e 8AA9          MOVL      XAR4,ACC              ; |32| 
     494 0000000f 8F40+         MOVL      XAR5,#FSL7            ; |32| 
         00000010 0046 
     495 00000011 9A03          MOVB      AL,#3                 ; |32| 
     496 00000012 7640!         LCR       #_global_memcmp       ; |32| 
         00000013 0000 
     497                      ; call occurs [#_global_memcmp] ; |32| 
     498 00000014 5200          CMPB      AL,#0                 ; |32| 
     499 00000015 EC04          BF        L2,EQ                 ; |32| 
     500                      ; branchcc occurs ; |32| 
     501              DW$L$_app_WIRmod_seletc_result$2$E:
     502                      .dwpsn  "app_WIRmod_fun.c",33,4
     503 00000016 9243          MOV       AL,*-SP[3]            ; |33| 
     504 00000017 FFEF          B         L8,UNC                ; |33| 
         00000018 00DA 
     505                      ; branch occurs ; |33| 
     506              L2:    
     507              DW$L$_app_WIRmod_seletc_result$4$B:
     508                      .dwpsn  "app_WIRmod_fun.c",34,3
     509 00000019 761F-         MOVW      DP,#_m_WIR_cosoffset
         0000001a 0000 
     510 0000001b 9202-         MOV       AL,@_m_WIR_cosoffset  ; |34| 
     511 0000001c ED35          BF        L3,NEQ                ; |34| 
     512                      ; branchcc occurs ; |34| 
     513              DW$L$_app_WIRmod_seletc_result$4$E:
     514              DW$L$_app_WIRmod_seletc_result$5$B:
     515                      .dwpsn  "app_WIRmod_fun.c",36,4
     516 0000001d 761F!         MOVW      DP,#_m_alg_presult
         0000001e 0000 
     517 0000001f 28AC          MOV       T,#69                 ; |36| 
         00000020 0045 
     518 00000021 0600!         MOVL      ACC,@_m_alg_presult   ; |36| 
     519 00000022 3243          MPYXU     P,T,*-SP[3]           ; |36| 
     520 00000023 07AB          ADDL      ACC,P
     521 00000024 0908          ADDB      ACC,#8                ; |36| 
     522 00000025 8AA9          MOVL      XAR4,ACC              ; |36| 
     523 00000026 8F40+         MOVL      XAR5,#FSL8            ; |36| 
         00000027 004C 
     524 00000028 7640!         LCR       #_global_string_locate_first ; |36| 
         00000029 0000 
     525                      ; call occurs [#_global_string_locate_first] ; |36| 
     526 0000002a A8A9          MOVL      ACC,XAR4              ; |36| 
     527 0000002b 56C1          BF        L6,EQ                 ; |36| 
         0000002c 00C0 
     528                      ; branchcc occurs ; |36| 
TMS320C2000 COFF Assembler PC v4.1.3 Thu Sep 15 15:05:07 2011

Tools Copyright (c) 1996-2006 Texas Instruments Incorporated
C:\DOCUME~1\ADMINI~1\LOCALS~1\Temp\TI4802                            PAGE   11

     529              DW$L$_app_WIRmod_seletc_result$5$E:
     530              DW$L$_app_WIRmod_seletc_result$6$B:
     531                      .dwpsn  "app_WIRmod_fun.c",38,5
     532 0000002d 28AC          MOV       T,#69                 ; |38| 
         0000002e 0045 
     533 0000002f 761F!         MOVW      DP,#_m_alg_presult
         00000030 0000 
     534 00000031 3243          MPYXU     P,T,*-SP[3]           ; |38| 
     535 00000032 0600!         MOVL      ACC,@_m_alg_presult   ; |38| 
     536 00000033 07AB          ADDL      ACC,P
     537 00000034 0908          ADDB      ACC,#8                ; |38| 
     538 00000035 8AA9          MOVL      XAR4,ACC              ; |38| 
     539 00000036 9A4C          MOVB      AL,#76                ; |38| 
     540 00000037 7640!         LCR       #_global_string_filter ; |38| 
         00000038 0000 
     541                      ; call occurs [#_global_string_filter] ; |38| 
     542                      .dwpsn  "app_WIRmod_fun.c",39,5
     543 00000039 761F!         MOVW      DP,#_m_alg_presult
         0000003a 0000 
     544 0000003b 28AC          MOV       T,#69                 ; |39| 
         0000003c 0045 
     545 0000003d 0600!         MOVL      ACC,@_m_alg_presult   ; |39| 
     546 0000003e 3243          MPYXU     P,T,*-SP[3]           ; |39| 
     547 0000003f 07AB          ADDL      ACC,P
     548 00000040 0908          ADDB      ACC,#8                ; |39| 
     549 00000041 8AA9          MOVL      XAR4,ACC              ; |39| 
     550 00000042 7640!         LCR       #_global_atof         ; |39| 
         00000043 0000 
     551                      ; call occurs [#_global_atof] ; |39| 
     552 00000044 1E46          MOVL      *-SP[6],ACC           ; |39| 
     553                      .dwpsn  "app_WIRmod_fun.c",40,5
     554 00000045 FF2F          MOV       ACC,#32256 << 15
         00000046 7E00 
     555 00000047 1E42          MOVL      *-SP[2],ACC           ; |40| 
     556 00000048 0646          MOVL      ACC,*-SP[6]           ; |40| 
     557 00000049 7640!         LCR       #FS$$CMP              ; |40| 
         0000004a 0000 
     558                      ; call occurs [#FS$$CMP] ; |40| 
     559 0000004b 5200          CMPB      AL,#0                 ; |40| 
     560 0000004c FFE4          B         L6,LT                 ; |40| 
         0000004d 009F 
     561                      ; branchcc occurs ; |40| 
     562              DW$L$_app_WIRmod_seletc_result$6$E:
     563                      .dwpsn  "app_WIRmod_fun.c",40,23
     564 0000004e 9243          MOV       AL,*-SP[3]            ; |40| 
     565 0000004f FFEF          B         L8,UNC                ; |40| 
         00000050 00A2 
     566                      ; branch occurs ; |40| 
     567              L3:    
     568              DW$L$_app_WIRmod_seletc_result$9$B:
     569                      .dwpsn  "app_WIRmod_fun.c",43,8
     570 00000051 5201          CMPB      AL,#1                 ; |43| 
     571 00000052 ED33          BF        L4,NEQ                ; |43| 
     572                      ; branchcc occurs ; |43| 
     573              DW$L$_app_WIRmod_seletc_result$9$E:
TMS320C2000 COFF Assembler PC v4.1.3 Thu Sep 15 15:05:07 2011

Tools Copyright (c) 1996-2006 Texas Instruments Incorporated
C:\DOCUME~1\ADMINI~1\LOCALS~1\Temp\TI4802                            PAGE   12

     574              DW$L$_app_WIRmod_seletc_result$10$B:
     575                      .dwpsn  "app_WIRmod_fun.c",45,4
     576 00000053 761F!         MOVW      DP,#_m_alg_presult
         00000054 0000 
     577 00000055 28AC          MOV       T,#69                 ; |45| 
         00000056 0045 
     578 00000057 0600!         MOVL      ACC,@_m_alg_presult   ; |45| 
     579 00000058 3243          MPYXU     P,T,*-SP[3]           ; |45| 
     580 00000059 07AB          ADDL      ACC,P
     581 0000005a 0908          ADDB      ACC,#8                ; |45| 
     582 0000005b 8AA9          MOVL      XAR4,ACC              ; |45| 
     583 0000005c 8F40+         MOVL      XAR5,#FSL8            ; |45| 
         0000005d 004C 
     584 0000005e 7640!         LCR       #_global_string_locate_first ; |45| 
         0000005f 0000 
     585                      ; call occurs [#_global_string_locate_first] ; |45| 
     586 00000060 A8A9          MOVL      ACC,XAR4              ; |45| 
     587 00000061 56C1          BF        L6,EQ                 ; |45| 
         00000062 008A 
     588                      ; branchcc occurs ; |45| 
     589              DW$L$_app_WIRmod_seletc_result$10$E:
     590              DW$L$_app_WIRmod_seletc_result$11$B:
     591                      .dwpsn  "app_WIRmod_fun.c",47,5
     592 00000063 28AC          MOV       T,#69                 ; |47| 
         00000064 0045 
     593 00000065 761F!         MOVW      DP,#_m_alg_presult
         00000066 0000 
     594 00000067 3243          MPYXU     P,T,*-SP[3]           ; |47| 
     595 00000068 0600!         MOVL      ACC,@_m_alg_presult   ; |47| 
     596 00000069 07AB          ADDL      ACC,P
     597 0000006a 0908          ADDB      ACC,#8                ; |47| 
     598 0000006b 8AA9          MOVL      XAR4,ACC              ; |47| 
     599 0000006c 9A4C          MOVB      AL,#76                ; |47| 
     600 0000006d 7640!         LCR       #_global_string_filter ; |47| 
         0000006e 0000 
     601                      ; call occurs [#_global_string_filter] ; |47| 
     602                      .dwpsn  "app_WIRmod_fun.c",48,5
     603 0000006f 761F!         MOVW      DP,#_m_alg_presult
         00000070 0000 
     604 00000071 28AC          MOV       T,#69                 ; |48| 
         00000072 0045 
     605 00000073 0600!         MOVL      ACC,@_m_alg_presult   ; |48| 
     606 00000074 3243          MPYXU     P,T,*-SP[3]           ; |48| 
     607 00000075 07AB          ADDL      ACC,P
     608 00000076 0908          ADDB      ACC,#8                ; |48| 
     609 00000077 8AA9          MOVL      XAR4,ACC              ; |48| 
     610 00000078 7640!         LCR       #_global_atof         ; |48| 
         00000079 0000 
     611                      ; call occurs [#_global_atof] ; |48| 
     612 0000007a 1E46          MOVL      *-SP[6],ACC           ; |48| 
     613                      .dwpsn  "app_WIRmod_fun.c",49,5
     614 0000007b FF2F          MOV       ACC,#32256 << 15
         0000007c 7E00 
     615 0000007d 1E42          MOVL      *-SP[2],ACC           ; |49| 
     616 0000007e 0646          MOVL      ACC,*-SP[6]           ; |49| 
TMS320C2000 COFF Assembler PC v4.1.3 Thu Sep 15 15:05:07 2011

Tools Copyright (c) 1996-2006 Texas Instruments Incorporated
C:\DOCUME~1\ADMINI~1\LOCALS~1\Temp\TI4802                            PAGE   13

     617 0000007f 7640!         LCR       #FS$$CMP              ; |49| 
         00000080 0000 
     618                      ; call occurs [#FS$$CMP] ; |49| 
     619 00000081 5200          CMPB      AL,#0                 ; |49| 
     620 00000082 6369          B         L6,GEQ                ; |49| 
     621                      ; branchcc occurs ; |49| 
     622              DW$L$_app_WIRmod_seletc_result$11$E:
     623                      .dwpsn  "app_WIRmod_fun.c",49,22
     624 00000083 9243          MOV       AL,*-SP[3]            ; |49| 
     625 00000084 6F6D          B         L8,UNC                ; |49| 
     626                      ; branch occurs ; |49| 
     627              L4:    
     628              DW$L$_app_WIRmod_seletc_result$14$B:
     629                      .dwpsn  "app_WIRmod_fun.c",52,8
     630 00000085 5202          CMPB      AL,#2                 ; |52| 
     631 00000086 ED32          BF        L5,NEQ                ; |52| 
     632                      ; branchcc occurs ; |52| 
     633              DW$L$_app_WIRmod_seletc_result$14$E:
     634              DW$L$_app_WIRmod_seletc_result$15$B:
     635                      .dwpsn  "app_WIRmod_fun.c",54,4
     636 00000087 761F!         MOVW      DP,#_m_alg_presult
         00000088 0000 
     637 00000089 28AC          MOV       T,#69                 ; |54| 
         0000008a 0045 
     638 0000008b 0600!         MOVL      ACC,@_m_alg_presult   ; |54| 
     639 0000008c 3243          MPYXU     P,T,*-SP[3]           ; |54| 
     640 0000008d 07AB          ADDL      ACC,P
     641 0000008e 0908          ADDB      ACC,#8                ; |54| 
     642 0000008f 8AA9          MOVL      XAR4,ACC              ; |54| 
     643 00000090 8F40+         MOVL      XAR5,#FSL9            ; |54| 
         00000091 004E 
     644 00000092 7640!         LCR       #_global_string_locate_first ; |54| 
         00000093 0000 
     645                      ; call occurs [#_global_string_locate_first] ; |54| 
     646 00000094 A8A9          MOVL      ACC,XAR4              ; |54| 
     647 00000095 EC56          BF        L6,EQ                 ; |54| 
     648                      ; branchcc occurs ; |54| 
     649              DW$L$_app_WIRmod_seletc_result$15$E:
     650              DW$L$_app_WIRmod_seletc_result$16$B:
     651                      .dwpsn  "app_WIRmod_fun.c",56,5
     652 00000096 28AC          MOV       T,#69                 ; |56| 
         00000097 0045 
     653 00000098 761F!         MOVW      DP,#_m_alg_presult
         00000099 0000 
     654 0000009a 3243          MPYXU     P,T,*-SP[3]           ; |56| 
     655 0000009b 0600!         MOVL      ACC,@_m_alg_presult   ; |56| 
     656 0000009c 07AB          ADDL      ACC,P
     657 0000009d 0908          ADDB      ACC,#8                ; |56| 
     658 0000009e 8AA9          MOVL      XAR4,ACC              ; |56| 
     659 0000009f 9A43          MOVB      AL,#67                ; |56| 
     660 000000a0 7640!         LCR       #_global_string_filter ; |56| 
         000000a1 0000 
     661                      ; call occurs [#_global_string_filter] ; |56| 
     662                      .dwpsn  "app_WIRmod_fun.c",57,5
     663 000000a2 761F!         MOVW      DP,#_m_alg_presult
TMS320C2000 COFF Assembler PC v4.1.3 Thu Sep 15 15:05:07 2011

Tools Copyright (c) 1996-2006 Texas Instruments Incorporated
C:\DOCUME~1\ADMINI~1\LOCALS~1\Temp\TI4802                            PAGE   14

         000000a3 0000 
     664 000000a4 28AC          MOV       T,#69                 ; |57| 
         000000a5 0045 
     665 000000a6 0600!         MOVL      ACC,@_m_alg_presult   ; |57| 
     666 000000a7 3243          MPYXU     P,T,*-SP[3]           ; |57| 
     667 000000a8 07AB          ADDL      ACC,P
     668 000000a9 0908          ADDB      ACC,#8                ; |57| 
     669 000000aa 8AA9          MOVL      XAR4,ACC              ; |57| 
     670 000000ab 7640!         LCR       #_global_atof         ; |57| 
         000000ac 0000 
     671                      ; call occurs [#_global_atof] ; |57| 
     672 000000ad 1E46          MOVL      *-SP[6],ACC           ; |57| 
     673                      .dwpsn  "app_WIRmod_fun.c",58,5
     674 000000ae FF2F          MOV       ACC,#32256 << 15
         000000af 7E00 
     675 000000b0 1E42          MOVL      *-SP[2],ACC           ; |58| 
     676 000000b1 0646          MOVL      ACC,*-SP[6]           ; |58| 
     677 000000b2 7640!         LCR       #FS$$CMP              ; |58| 
         000000b3 0000 
     678                      ; call occurs [#FS$$CMP] ; |58| 
     679 000000b4 5200          CMPB      AL,#0                 ; |58| 
     680 000000b5 6436          B         L6,LT                 ; |58| 
     681                      ; branchcc occurs ; |58| 
     682              DW$L$_app_WIRmod_seletc_result$16$E:
     683                      .dwpsn  "app_WIRmod_fun.c",58,23
     684 000000b6 9243          MOV       AL,*-SP[3]            ; |58| 
     685 000000b7 6F3A          B         L8,UNC                ; |58| 
     686                      ; branch occurs ; |58| 
     687              L5:    
     688              DW$L$_app_WIRmod_seletc_result$19$B:
     689                      .dwpsn  "app_WIRmod_fun.c",61,8
     690 000000b8 5203          CMPB      AL,#3                 ; |61| 
     691 000000b9 ED32          BF        L6,NEQ                ; |61| 
     692                      ; branchcc occurs ; |61| 
     693              DW$L$_app_WIRmod_seletc_result$19$E:
     694              DW$L$_app_WIRmod_seletc_result$20$B:
     695                      .dwpsn  "app_WIRmod_fun.c",63,4
     696 000000ba 761F!         MOVW      DP,#_m_alg_presult
         000000bb 0000 
     697 000000bc 28AC          MOV       T,#69                 ; |63| 
         000000bd 0045 
     698 000000be 0600!         MOVL      ACC,@_m_alg_presult   ; |63| 
     699 000000bf 3243          MPYXU     P,T,*-SP[3]           ; |63| 
     700 000000c0 07AB          ADDL      ACC,P
     701 000000c1 0908          ADDB      ACC,#8                ; |63| 
     702 000000c2 8AA9          MOVL      XAR4,ACC              ; |63| 
     703 000000c3 8F40+         MOVL      XAR5,#FSL9            ; |63| 
         000000c4 004E 
     704 000000c5 7640!         LCR       #_global_string_locate_first ; |63| 
         000000c6 0000 
     705                      ; call occurs [#_global_string_locate_first] ; |63| 
     706 000000c7 A8A9          MOVL      ACC,XAR4              ; |63| 
     707 000000c8 EC23          BF        L6,EQ                 ; |63| 
     708                      ; branchcc occurs ; |63| 
     709              DW$L$_app_WIRmod_seletc_result$20$E:
TMS320C2000 COFF Assembler PC v4.1.3 Thu Sep 15 15:05:07 2011

Tools Copyright (c) 1996-2006 Texas Instruments Incorporated
C:\DOCUME~1\ADMINI~1\LOCALS~1\Temp\TI4802                            PAGE   15

     710              DW$L$_app_WIRmod_seletc_result$21$B:
     711                      .dwpsn  "app_WIRmod_fun.c",65,5
     712 000000c9 28AC          MOV       T,#69                 ; |65| 
         000000ca 0045 
     713 000000cb 761F!         MOVW      DP,#_m_alg_presult
         000000cc 0000 
     714 000000cd 3243          MPYXU     P,T,*-SP[3]           ; |65| 
     715 000000ce 0600!         MOVL      ACC,@_m_alg_presult   ; |65| 
     716 000000cf 07AB          ADDL      ACC,P
     717 000000d0 0908          ADDB      ACC,#8                ; |65| 
     718 000000d1 8AA9          MOVL      XAR4,ACC              ; |65| 
     719 000000d2 9A43          MOVB      AL,#67                ; |65| 
     720 000000d3 7640!         LCR       #_global_string_filter ; |65| 
         000000d4 0000 
     721                      ; call occurs [#_global_string_filter] ; |65| 
     722                      .dwpsn  "app_WIRmod_fun.c",66,5
     723 000000d5 761F!         MOVW      DP,#_m_alg_presult
         000000d6 0000 
     724 000000d7 28AC          MOV       T,#69                 ; |66| 
         000000d8 0045 
     725 000000d9 0600!         MOVL      ACC,@_m_alg_presult   ; |66| 
     726 000000da 3243          MPYXU     P,T,*-SP[3]           ; |66| 
     727 000000db 07AB          ADDL      ACC,P
     728 000000dc 0908          ADDB      ACC,#8                ; |66| 
     729 000000dd 8AA9          MOVL      XAR4,ACC              ; |66| 
     730 000000de 7640!         LCR       #_global_atof         ; |66| 
         000000df 0000 
     731                      ; call occurs [#_global_atof] ; |66| 
     732 000000e0 1E46          MOVL      *-SP[6],ACC           ; |66| 
     733                      .dwpsn  "app_WIRmod_fun.c",67,5
     734 000000e1 FF2F          MOV       ACC,#32256 << 15
         000000e2 7E00 
     735 000000e3 1E42          MOVL      *-SP[2],ACC           ; |67| 
     736 000000e4 0646          MOVL      ACC,*-SP[6]           ; |67| 
     737 000000e5 7640!         LCR       #FS$$CMP              ; |67| 
         000000e6 0000 
     738                      ; call occurs [#FS$$CMP] ; |67| 
     739 000000e7 5200          CMPB      AL,#0                 ; |67| 
     740 000000e8 6303          B         L6,GEQ                ; |67| 
     741                      ; branchcc occurs ; |67| 
     742              DW$L$_app_WIRmod_seletc_result$21$E:
     743                      .dwpsn  "app_WIRmod_fun.c",67,22
     744 000000e9 9243          MOV       AL,*-SP[3]            ; |67| 
     745 000000ea 6F07          B         L8,UNC                ; |67| 
     746                      ; branch occurs ; |67| 
     747              L6:    
     748              DW$L$_app_WIRmod_seletc_result$23$B:
     749                      .dwpsn  "app_WIRmod_fun.c",30,30
     750 000000eb 0A43          INC       *-SP[3]               ; |30| 
     751                      .dwpsn  "app_WIRmod_fun.c",30,19
     752 000000ec 9243          MOV       AL,*-SP[3]            ; |30| 
     753 000000ed 5204          CMPB      AL,#4                 ; |30| 
     754 000000ee FFE8          B         L1,LO                 ; |30| 
         000000ef FF18 
     755                      ; branchcc occurs ; |30| 
TMS320C2000 COFF Assembler PC v4.1.3 Thu Sep 15 15:05:07 2011

Tools Copyright (c) 1996-2006 Texas Instruments Incorporated
C:\DOCUME~1\ADMINI~1\LOCALS~1\Temp\TI4802                            PAGE   16

     756              DW$L$_app_WIRmod_seletc_result$23$E:
     757              L7:    
     758                      .dwpsn  "app_WIRmod_fun.c",71,2
     759 000000f0 9A05          MOVB      AL,#5                 ; |71| 
     760              L8:    
     761                      .dwpsn  "app_WIRmod_fun.c",72,1
     762 000000f1 FE86          SUBB      SP,#6                 ; |71| 
     763                      .dwcfa  0x1d, -2
     764 000000f2 0006          LRETR
     765                      ; return occurs
     766              
     767              DW$109  .dwtag  DW_TAG_loop
     768                      .dwattr DW$109, DW_AT_name("C:\DOCUME~1\ADMINI~1\LOCALS~1\Temp\TI4802:L1:1:1316070306")
     769                      .dwattr DW$109, DW_AT_begin_file("app_WIRmod_fun.c")
     770                      .dwattr DW$109, DW_AT_begin_line(0x1e)
     771                      .dwattr DW$109, DW_AT_end_line(0x46)
     772              DW$110  .dwtag  DW_TAG_loop_range
     773                      .dwattr DW$110, DW_AT_low_pc(DW$L$_app_WIRmod_seletc_result$2$B)
     774                      .dwattr DW$110, DW_AT_high_pc(DW$L$_app_WIRmod_seletc_result$2$E)
     775              DW$111  .dwtag  DW_TAG_loop_range
     776                      .dwattr DW$111, DW_AT_low_pc(DW$L$_app_WIRmod_seletc_result$14$B)
     777                      .dwattr DW$111, DW_AT_high_pc(DW$L$_app_WIRmod_seletc_result$14$E)
     778              DW$112  .dwtag  DW_TAG_loop_range
     779                      .dwattr DW$112, DW_AT_low_pc(DW$L$_app_WIRmod_seletc_result$9$B)
     780                      .dwattr DW$112, DW_AT_high_pc(DW$L$_app_WIRmod_seletc_result$9$E)
     781              DW$113  .dwtag  DW_TAG_loop_range
     782                      .dwattr DW$113, DW_AT_low_pc(DW$L$_app_WIRmod_seletc_result$4$B)
     783                      .dwattr DW$113, DW_AT_high_pc(DW$L$_app_WIRmod_seletc_result$4$E)
     784              DW$114  .dwtag  DW_TAG_loop_range
     785                      .dwattr DW$114, DW_AT_low_pc(DW$L$_app_WIRmod_seletc_result$5$B)
     786                      .dwattr DW$114, DW_AT_high_pc(DW$L$_app_WIRmod_seletc_result$5$E)
     787              DW$115  .dwtag  DW_TAG_loop_range
     788                      .dwattr DW$115, DW_AT_low_pc(DW$L$_app_WIRmod_seletc_result$6$B)
     789                      .dwattr DW$115, DW_AT_high_pc(DW$L$_app_WIRmod_seletc_result$6$E)
     790              DW$116  .dwtag  DW_TAG_loop_range
     791                      .dwattr DW$116, DW_AT_low_pc(DW$L$_app_WIRmod_seletc_result$10$B)
     792                      .dwattr DW$116, DW_AT_high_pc(DW$L$_app_WIRmod_seletc_result$10$E)
     793              DW$117  .dwtag  DW_TAG_loop_range
     794                      .dwattr DW$117, DW_AT_low_pc(DW$L$_app_WIRmod_seletc_result$11$B)
     795                      .dwattr DW$117, DW_AT_high_pc(DW$L$_app_WIRmod_seletc_result$11$E)
     796              DW$118  .dwtag  DW_TAG_loop_range
     797                      .dwattr DW$118, DW_AT_low_pc(DW$L$_app_WIRmod_seletc_result$15$B)
     798                      .dwattr DW$118, DW_AT_high_pc(DW$L$_app_WIRmod_seletc_result$15$E)
     799              DW$119  .dwtag  DW_TAG_loop_range
     800                      .dwattr DW$119, DW_AT_low_pc(DW$L$_app_WIRmod_seletc_result$16$B)
     801                      .dwattr DW$119, DW_AT_high_pc(DW$L$_app_WIRmod_seletc_result$16$E)
     802              DW$120  .dwtag  DW_TAG_loop_range
     803                      .dwattr DW$120, DW_AT_low_pc(DW$L$_app_WIRmod_seletc_result$19$B)
     804                      .dwattr DW$120, DW_AT_high_pc(DW$L$_app_WIRmod_seletc_result$19$E)
     805              DW$121  .dwtag  DW_TAG_loop_range
     806                      .dwattr DW$121, DW_AT_low_pc(DW$L$_app_WIRmod_seletc_result$20$B)
     807                      .dwattr DW$121, DW_AT_high_pc(DW$L$_app_WIRmod_seletc_result$20$E)
     808              DW$122  .dwtag  DW_TAG_loop_range
     809                      .dwattr DW$122, DW_AT_low_pc(DW$L$_app_WIRmod_seletc_result$21$B)
     810                      .dwattr DW$122, DW_AT_high_pc(DW$L$_app_WIRmod_seletc_result$21$E)
TMS320C2000 COFF Assembler PC v4.1.3 Thu Sep 15 15:05:07 2011

Tools Copyright (c) 1996-2006 Texas Instruments Incorporated
C:\DOCUME~1\ADMINI~1\LOCALS~1\Temp\TI4802                            PAGE   17

     811              DW$123  .dwtag  DW_TAG_loop_range
     812                      .dwattr DW$123, DW_AT_low_pc(DW$L$_app_WIRmod_seletc_result$23$B)
     813                      .dwattr DW$123, DW_AT_high_pc(DW$L$_app_WIRmod_seletc_result$23$E)
     814                      .dwendtag DW$109
     815              
     816                      .dwattr DW$106, DW_AT_end_file("app_WIRmod_fun.c")
     817                      .dwattr DW$106, DW_AT_end_line(0x48)
     818                      .dwattr DW$106, DW_AT_end_column(0x01)
     819                      .dwendentry
     820                      .dwendtag DW$106
     821              
     822 000000f3               .sect   ".text"
     823                      .global _app_WIRmod_resulst_sys_I
     824              
     825              DW$124  .dwtag  DW_TAG_subprogram, DW_AT_name("app_WIRmod_resulst_sys_I"), DW_AT_symbol_name("_app_WIRmod_res
     826                      .dwattr DW$124, DW_AT_low_pc(_app_WIRmod_resulst_sys_I)
     827                      .dwattr DW$124, DW_AT_high_pc(0x00)
     828                      .dwattr DW$124, DW_AT_begin_file("app_WIRmod_fun.c")
     829                      .dwattr DW$124, DW_AT_begin_line(0x51)
     830                      .dwattr DW$124, DW_AT_begin_column(0x06)
     831                      .dwpsn  "app_WIRmod_fun.c",82,1
     832              
     833                      .dwfde DW$CIE
     834              
     835              ;***************************************************************
     836              ;* FNAME: _app_WIRmod_resulst_sys_I     FR SIZE:   6           *
     837              ;*                                                             *
     838              ;* FUNCTION ENVIRONMENT                                        *
     839              ;*                                                             *
     840              ;* FUNCTION PROPERTIES                                         *
     841              ;*                            0 Parameter,  5 Auto,  0 SOE     *
     842              ;***************************************************************
     843              
     844              _app_WIRmod_resulst_sys_I:
     845                      .dwcfa  0x1d, -2
     846                      .dwcfa  0x1c, 26, 0
     847                      .dwcfa  0x09, 40, 26
     848 000000f3 FE06          ADDB      SP,#6
     849                      .dwcfa  0x1d, -8
     850              ;* AR4   assigned to _presult
     851              DW$125  .dwtag  DW_TAG_formal_parameter, DW_AT_name("presult"), DW_AT_symbol_name("_presult")
     852                      .dwattr DW$125, DW_AT_type(*DW$T$87)
     853                      .dwattr DW$125, DW_AT_location[DW_OP_reg12]
     854              ;* AR5   assigned to _psrc
     855              DW$126  .dwtag  DW_TAG_formal_parameter, DW_AT_name("psrc"), DW_AT_symbol_name("_psrc")
     856                      .dwattr DW$126, DW_AT_type(*DW$T$52)
     857                      .dwattr DW$126, DW_AT_location[DW_OP_reg14]
     858              DW$127  .dwtag  DW_TAG_variable, DW_AT_name("presult"), DW_AT_symbol_name("_presult")
     859                      .dwattr DW$127, DW_AT_type(*DW$T$87)
     860                      .dwattr DW$127, DW_AT_location[DW_OP_breg20 -2]
     861              DW$128  .dwtag  DW_TAG_variable, DW_AT_name("psrc"), DW_AT_symbol_name("_psrc")
     862                      .dwattr DW$128, DW_AT_type(*DW$T$52)
     863                      .dwattr DW$128, DW_AT_location[DW_OP_breg20 -4]
     864              DW$129  .dwtag  DW_TAG_variable, DW_AT_name("offset"), DW_AT_symbol_name("_offset")
     865                      .dwattr DW$129, DW_AT_type(*DW$T$23)
TMS320C2000 COFF Assembler PC v4.1.3 Thu Sep 15 15:05:07 2011

Tools Copyright (c) 1996-2006 Texas Instruments Incorporated
C:\DOCUME~1\ADMINI~1\LOCALS~1\Temp\TI4802                            PAGE   18

     866                      .dwattr DW$129, DW_AT_location[DW_OP_breg20 -5]
     867 000000f4 A044          MOVL      *-SP[4],XAR5          ; |82| 
     868 000000f5 A842          MOVL      *-SP[2],XAR4          ; |82| 
     869                      .dwpsn  "app_WIRmod_fun.c",83,10
     870 000000f6 2B45          MOV       *-SP[5],#0            ; |83| 
     871                      .dwpsn  "app_WIRmod_fun.c",85,2
     872 000000f7 8A44          MOVL      XAR4,*-SP[4]          ; |85| 
     873 000000f8 92C4          MOV       AL,*+XAR4[0]          ; |85| 
     874 000000f9 522D          CMPB      AL,#45                ; |85| 
     875 000000fa ED13          BF        L9,NEQ                ; |85| 
     876                      ; branchcc occurs ; |85| 
     877                      .dwpsn  "app_WIRmod_fun.c",87,3
     878 000000fb 8A42          MOVL      XAR4,*-SP[2]          ; |87| 
     879 000000fc 9A00          MOVB      AL,#0
     880 000000fd 9B04          MOVB      AH,#4                 ; |87| 
     881 000000fe DC09          ADDB      XAR4,#9               ; |87| 
     882 000000ff 7640!         LCR       #_global_memset       ; |87| 
         00000100 0000 
     883                      ; call occurs [#_global_memset] ; |87| 
     884                      .dwpsn  "app_WIRmod_fun.c",88,3
     885 00000101 8845          MOVZ      AR6,*-SP[5]           ; |88| 
     886 00000102 8A42          MOVL      XAR4,*-SP[2]          ; |88| 
     887 00000103 0644          MOVL      ACC,*-SP[4]           ; |88| 
     888 00000104 0DA6          ADDU      ACC,AR6               ; |88| 
     889 00000105 83A9          MOVL      XAR5,ACC              ; |88| 
     890 00000106 DC09          ADDB      XAR4,#9               ; |88| 
     891 00000107 9A03          MOVB      AL,#3                 ; |88| 
     892 00000108 7640!         LCR       #_global_memcpy       ; |88| 
         00000109 0000 
     893                      ; call occurs [#_global_memcpy] ; |88| 
     894                      .dwpsn  "app_WIRmod_fun.c",89,3
     895 0000010a 0845          ADD       *-SP[5],#3            ; |89| 
         0000010b 0003 
     896                      .dwpsn  "app_WIRmod_fun.c",90,2
     897 0000010c 6F12          B         L10,UNC               ; |90| 
     898                      ; branch occurs ; |90| 
     899              L9:    
     900                      .dwpsn  "app_WIRmod_fun.c",93,3
     901 0000010d 8A42          MOVL      XAR4,*-SP[2]          ; |93| 
     902 0000010e 9A00          MOVB      AL,#0
     903 0000010f 9B04          MOVB      AH,#4                 ; |93| 
     904 00000110 DC09          ADDB      XAR4,#9               ; |93| 
     905 00000111 7640!         LCR       #_global_memset       ; |93| 
         00000112 0000 
     906                      ; call occurs [#_global_memset] ; |93| 
     907                      .dwpsn  "app_WIRmod_fun.c",94,3
     908 00000113 8845          MOVZ      AR6,*-SP[5]           ; |94| 
     909 00000114 8A42          MOVL      XAR4,*-SP[2]          ; |94| 
     910 00000115 0644          MOVL      ACC,*-SP[4]           ; |94| 
     911 00000116 0DA6          ADDU      ACC,AR6               ; |94| 
     912 00000117 83A9          MOVL      XAR5,ACC              ; |94| 
     913 00000118 DC09          ADDB      XAR4,#9               ; |94| 
     914 00000119 9A02          MOVB      AL,#2                 ; |94| 
     915 0000011a 7640!         LCR       #_global_memcpy       ; |94| 
         0000011b 0000 
TMS320C2000 COFF Assembler PC v4.1.3 Thu Sep 15 15:05:07 2011

Tools Copyright (c) 1996-2006 Texas Instruments Incorporated
C:\DOCUME~1\ADMINI~1\LOCALS~1\Temp\TI4802                            PAGE   19

     916                      ; call occurs [#_global_memcpy] ; |94| 
     917                      .dwpsn  "app_WIRmod_fun.c",95,3
     918 0000011c 0845          ADD       *-SP[5],#2            ; |95| 
         0000011d 0002 
     919              L10:    
     920                      .dwpsn  "app_WIRmod_fun.c",98,2
     921 0000011e 761F-         MOVW      DP,#_m_WIR_jxmod
         0000011f 0000 
     922 00000120 9201-         MOV       AL,@_m_WIR_jxmod      ; |98| 
     923 00000121 5201          CMPB      AL,#1                 ; |98| 
     924 00000122 ED2A          BF        L12,NEQ               ; |98| 
     925                      ; branchcc occurs ; |98| 
     926                      .dwpsn  "app_WIRmod_fun.c",100,3
     927 00000123 5845          MOVZ      AR0,*-SP[5]           ; |100| 
     928 00000124 8A44          MOVL      XAR4,*-SP[4]          ; |100| 
     929 00000125 9294          MOV       AL,*+XAR4[AR0]        ; |100| 
     930 00000126 522D          CMPB      AL,#45                ; |100| 
     931 00000127 ED13          BF        L11,NEQ               ; |100| 
     932                      ; branchcc occurs ; |100| 
     933                      .dwpsn  "app_WIRmod_fun.c",102,4
     934 00000128 8A42          MOVL      XAR4,*-SP[2]          ; |102| 
     935 00000129 9A00          MOVB      AL,#0
     936 0000012a 9B04          MOVB      AH,#4                 ; |102| 
     937 0000012b DC11          ADDB      XAR4,#17              ; |102| 
     938 0000012c 7640!         LCR       #_global_memset       ; |102| 
         0000012d 0000 
     939                      ; call occurs [#_global_memset] ; |102| 
     940                      .dwpsn  "app_WIRmod_fun.c",103,4
     941 0000012e 8845          MOVZ      AR6,*-SP[5]           ; |103| 
     942 0000012f 0644          MOVL      ACC,*-SP[4]           ; |103| 
     943 00000130 8A42          MOVL      XAR4,*-SP[2]          ; |103| 
     944 00000131 0DA6          ADDU      ACC,AR6               ; |103| 
     945 00000132 83A9          MOVL      XAR5,ACC              ; |103| 
     946 00000133 9A03          MOVB      AL,#3                 ; |103| 
     947 00000134 DC11          ADDB      XAR4,#17              ; |103| 
     948 00000135 7640!         LCR       #_global_memcpy       ; |103| 
         00000136 0000 
     949                      ; call occurs [#_global_memcpy] ; |103| 
     950                      .dwpsn  "app_WIRmod_fun.c",104,4
     951 00000137 0845          ADD       *-SP[5],#3            ; |104| 
         00000138 0003 
     952                      .dwpsn  "app_WIRmod_fun.c",105,3
     953 00000139 6F65          B         L16,UNC               ; |105| 
     954                      ; branch occurs ; |105| 
     955              L11:    
     956                      .dwpsn  "app_WIRmod_fun.c",108,4
     957 0000013a 8A42          MOVL      XAR4,*-SP[2]          ; |108| 
     958 0000013b 9A00          MOVB      AL,#0
     959 0000013c 9B04          MOVB      AH,#4                 ; |108| 
     960 0000013d DC11          ADDB      XAR4,#17              ; |108| 
     961 0000013e 7640!         LCR       #_global_memset       ; |108| 
         0000013f 0000 
     962                      ; call occurs [#_global_memset] ; |108| 
     963                      .dwpsn  "app_WIRmod_fun.c",109,4
     964 00000140 8845          MOVZ      AR6,*-SP[5]           ; |109| 
TMS320C2000 COFF Assembler PC v4.1.3 Thu Sep 15 15:05:07 2011

Tools Copyright (c) 1996-2006 Texas Instruments Incorporated
C:\DOCUME~1\ADMINI~1\LOCALS~1\Temp\TI4802                            PAGE   20

     965 00000141 0644          MOVL      ACC,*-SP[4]           ; |109| 
     966 00000142 8A42          MOVL      XAR4,*-SP[2]          ; |109| 
     967 00000143 0DA6          ADDU      ACC,AR6               ; |109| 
     968 00000144 83A9          MOVL      XAR5,ACC              ; |109| 
     969 00000145 9A02          MOVB      AL,#2                 ; |109| 
     970 00000146 DC11          ADDB      XAR4,#17              ; |109| 
     971 00000147 7640!         LCR       #_global_memcpy       ; |109| 
         00000148 0000 
     972                      ; call occurs [#_global_memcpy] ; |109| 
     973                      .dwpsn  "app_WIRmod_fun.c",110,4
     974 00000149 0845          ADD       *-SP[5],#2            ; |110| 
         0000014a 0002 
     975                      .dwpsn  "app_WIRmod_fun.c",112,2
     976 0000014b 6F53          B         L16,UNC               ; |112| 
     977                      ; branch occurs ; |112| 
     978              L12:    
     979                      .dwpsn  "app_WIRmod_fun.c",113,7
     980 0000014c 5200          CMPB      AL,#0                 ; |113| 
     981 0000014d ED51          BF        L16,NEQ               ; |113| 
     982                      ; branchcc occurs ; |113| 
     983                      .dwpsn  "app_WIRmod_fun.c",115,3
     984 0000014e 5845          MOVZ      AR0,*-SP[5]           ; |115| 
     985 0000014f 8A44          MOVL      XAR4,*-SP[4]          ; |115| 
     986 00000150 9294          MOV       AL,*+XAR4[AR0]        ; |115| 
     987 00000151 522D          CMPB      AL,#45                ; |115| 
     988 00000152 ED13          BF        L13,NEQ               ; |115| 
     989                      ; branchcc occurs ; |115| 
     990                      .dwpsn  "app_WIRmod_fun.c",117,4
     991 00000153 8A42          MOVL      XAR4,*-SP[2]          ; |117| 
     992 00000154 9A00          MOVB      AL,#0
     993 00000155 9B04          MOVB      AH,#4                 ; |117| 
     994 00000156 DC0D          ADDB      XAR4,#13              ; |117| 
     995 00000157 7640!         LCR       #_global_memset       ; |117| 
         00000158 0000 
     996                      ; call occurs [#_global_memset] ; |117| 
     997                      .dwpsn  "app_WIRmod_fun.c",118,4
     998 00000159 8845          MOVZ      AR6,*-SP[5]           ; |118| 
     999 0000015a 8A42          MOVL      XAR4,*-SP[2]          ; |118| 
    1000 0000015b 0644          MOVL      ACC,*-SP[4]           ; |118| 
    1001 0000015c 0DA6          ADDU      ACC,AR6               ; |118| 
    1002 0000015d 83A9          MOVL      XAR5,ACC              ; |118| 
    1003 0000015e DC0D          ADDB      XAR4,#13              ; |118| 
    1004 0000015f 9A03          MOVB      AL,#3                 ; |118| 
    1005 00000160 7640!         LCR       #_global_memcpy       ; |118| 
         00000161 0000 
    1006                      ; call occurs [#_global_memcpy] ; |118| 
    1007                      .dwpsn  "app_WIRmod_fun.c",119,4
    1008 00000162 0845          ADD       *-SP[5],#3            ; |119| 
         00000163 0003 
    1009                      .dwpsn  "app_WIRmod_fun.c",120,3
    1010 00000164 6F12          B         L14,UNC               ; |120| 
    1011                      ; branch occurs ; |120| 
    1012              L13:    
    1013                      .dwpsn  "app_WIRmod_fun.c",123,4
    1014 00000165 8A42          MOVL      XAR4,*-SP[2]          ; |123| 
TMS320C2000 COFF Assembler PC v4.1.3 Thu Sep 15 15:05:07 2011

Tools Copyright (c) 1996-2006 Texas Instruments Incorporated
C:\DOCUME~1\ADMINI~1\LOCALS~1\Temp\TI4802                            PAGE   21

    1015 00000166 9A00          MOVB      AL,#0
    1016 00000167 9B04          MOVB      AH,#4                 ; |123| 
    1017 00000168 DC0D          ADDB      XAR4,#13              ; |123| 
    1018 00000169 7640!         LCR       #_global_memset       ; |123| 
         0000016a 0000 
    1019                      ; call occurs [#_global_memset] ; |123| 
    1020                      .dwpsn  "app_WIRmod_fun.c",124,4
    1021 0000016b 8845          MOVZ      AR6,*-SP[5]           ; |124| 
    1022 0000016c 8A42          MOVL      XAR4,*-SP[2]          ; |124| 
    1023 0000016d 0644          MOVL      ACC,*-SP[4]           ; |124| 
    1024 0000016e 0DA6          ADDU      ACC,AR6               ; |124| 
    1025 0000016f 83A9          MOVL      XAR5,ACC              ; |124| 
    1026 00000170 DC0D          ADDB      XAR4,#13              ; |124| 
    1027 00000171 9A02          MOVB      AL,#2                 ; |124| 
    1028 00000172 7640!         LCR       #_global_memcpy       ; |124| 
         00000173 0000 
    1029                      ; call occurs [#_global_memcpy] ; |124| 
    1030                      .dwpsn  "app_WIRmod_fun.c",125,4
    1031 00000174 0845          ADD       *-SP[5],#2            ; |125| 
         00000175 0002 
    1032              L14:    
    1033                      .dwpsn  "app_WIRmod_fun.c",127,3
    1034 00000176 5845          MOVZ      AR0,*-SP[5]           ; |127| 
    1035 00000177 8A44          MOVL      XAR4,*-SP[4]          ; |127| 
    1036 00000178 9294          MOV       AL,*+XAR4[AR0]        ; |127| 
    1037 00000179 522D          CMPB      AL,#45                ; |127| 
    1038 0000017a ED13          BF        L15,NEQ               ; |127| 
    1039                      ; branchcc occurs ; |127| 
    1040                      .dwpsn  "app_WIRmod_fun.c",129,4
    1041 0000017b 8A42          MOVL      XAR4,*-SP[2]          ; |129| 
    1042 0000017c 9A00          MOVB      AL,#0
    1043 0000017d 9B04          MOVB      AH,#4                 ; |129| 
    1044 0000017e DC11          ADDB      XAR4,#17              ; |129| 
    1045 0000017f 7640!         LCR       #_global_memset       ; |129| 
         00000180 0000 
    1046                      ; call occurs [#_global_memset] ; |129| 
    1047                      .dwpsn  "app_WIRmod_fun.c",130,4
    1048 00000181 8845          MOVZ      AR6,*-SP[5]           ; |130| 
    1049 00000182 0644          MOVL      ACC,*-SP[4]           ; |130| 
    1050 00000183 8A42          MOVL      XAR4,*-SP[2]          ; |130| 
    1051 00000184 0DA6          ADDU      ACC,AR6               ; |130| 
    1052 00000185 83A9          MOVL      XAR5,ACC              ; |130| 
    1053 00000186 9A03          MOVB      AL,#3                 ; |130| 
    1054 00000187 DC11          ADDB      XAR4,#17              ; |130| 
    1055 00000188 7640!         LCR       #_global_memcpy       ; |130| 
         00000189 0000 
    1056                      ; call occurs [#_global_memcpy] ; |130| 
    1057                      .dwpsn  "app_WIRmod_fun.c",131,4
    1058 0000018a 0845          ADD       *-SP[5],#3            ; |131| 
         0000018b 0003 
    1059                      .dwpsn  "app_WIRmod_fun.c",132,3
    1060 0000018c 6F12          B         L16,UNC               ; |132| 
    1061                      ; branch occurs ; |132| 
    1062              L15:    
    1063                      .dwpsn  "app_WIRmod_fun.c",135,4
TMS320C2000 COFF Assembler PC v4.1.3 Thu Sep 15 15:05:07 2011

Tools Copyright (c) 1996-2006 Texas Instruments Incorporated
C:\DOCUME~1\ADMINI~1\LOCALS~1\Temp\TI4802                            PAGE   22

    1064 0000018d 8A42          MOVL      XAR4,*-SP[2]          ; |135| 
    1065 0000018e 9A00          MOVB      AL,#0
    1066 0000018f 9B04          MOVB      AH,#4                 ; |135| 
    1067 00000190 DC11          ADDB      XAR4,#17              ; |135| 
    1068 00000191 7640!         LCR       #_global_memset       ; |135| 
         00000192 0000 
    1069                      ; call occurs [#_global_memset] ; |135| 
    1070                      .dwpsn  "app_WIRmod_fun.c",136,4
    1071 00000193 8845          MOVZ      AR6,*-SP[5]           ; |136| 
    1072 00000194 0644          MOVL      ACC,*-SP[4]           ; |136| 
    1073 00000195 8A42          MOVL      XAR4,*-SP[2]          ; |136| 
    1074 00000196 0DA6          ADDU      ACC,AR6               ; |136| 
    1075 00000197 83A9          MOVL      XAR5,ACC              ; |136| 
    1076 00000198 9A02          MOVB      AL,#2                 ; |136| 
    1077 00000199 DC11          ADDB      XAR4,#17              ; |136| 
    1078 0000019a 7640!         LCR       #_global_memcpy       ; |136| 
         0000019b 0000 
    1079                      ; call occurs [#_global_memcpy] ; |136| 
    1080                      .dwpsn  "app_WIRmod_fun.c",137,4
    1081 0000019c 0845          ADD       *-SP[5],#2            ; |137| 
         0000019d 0002 
    1082                      .dwpsn  "app_WIRmod_fun.c",140,2
    1083              L16:    
    1084                      .dwpsn  "app_WIRmod_fun.c",141,1
    1085 0000019e FE86          SUBB      SP,#6
    1086                      .dwcfa  0x1d, -2
    1087 0000019f 0006          LRETR
    1088                      ; return occurs
    1089                      .dwattr DW$124, DW_AT_end_file("app_WIRmod_fun.c")
    1090                      .dwattr DW$124, DW_AT_end_line(0x8d)
    1091                      .dwattr DW$124, DW_AT_end_column(0x01)
    1092                      .dwendentry
    1093                      .dwendtag DW$124
    1094              
    1095 000001a0               .sect   ".text"
    1096                      .global _app_WIRmod_resulst_sys
    1097              
    1098              DW$130  .dwtag  DW_TAG_subprogram, DW_AT_name("app_WIRmod_resulst_sys"), DW_AT_symbol_name("_app_WIRmod_resul
    1099                      .dwattr DW$130, DW_AT_low_pc(_app_WIRmod_resulst_sys)
    1100                      .dwattr DW$130, DW_AT_high_pc(0x00)
    1101                      .dwattr DW$130, DW_AT_begin_file("app_WIRmod_fun.c")
    1102                      .dwattr DW$130, DW_AT_begin_line(0x96)
    1103                      .dwattr DW$130, DW_AT_begin_column(0x06)
    1104                      .dwpsn  "app_WIRmod_fun.c",151,1
    1105              
    1106                      .dwfde DW$CIE
    1107              
    1108              ;***************************************************************
    1109              ;* FNAME: _app_WIRmod_resulst_sys       FR SIZE:   4           *
    1110              ;*                                                             *
    1111              ;* FUNCTION ENVIRONMENT                                        *
    1112              ;*                                                             *
    1113              ;* FUNCTION PROPERTIES                                         *
    1114              ;*                            0 Parameter,  3 Auto,  0 SOE     *
    1115              ;***************************************************************
TMS320C2000 COFF Assembler PC v4.1.3 Thu Sep 15 15:05:07 2011

Tools Copyright (c) 1996-2006 Texas Instruments Incorporated
C:\DOCUME~1\ADMINI~1\LOCALS~1\Temp\TI4802                            PAGE   23

    1116              
    1117              _app_WIRmod_resulst_sys:
    1118                      .dwcfa  0x1d, -2
    1119                      .dwcfa  0x1c, 26, 0
    1120                      .dwcfa  0x09, 40, 26
    1121 000001a0 FE04          ADDB      SP,#4
    1122                      .dwcfa  0x1d, -6
    1123              ;* AR4   assigned to _presult
    1124              DW$131  .dwtag  DW_TAG_formal_parameter, DW_AT_name("presult"), DW_AT_symbol_name("_presult")
    1125                      .dwattr DW$131, DW_AT_type(*DW$T$87)
    1126                      .dwattr DW$131, DW_AT_location[DW_OP_reg12]
    1127              DW$132  .dwtag  DW_TAG_variable, DW_AT_name("presult"), DW_AT_symbol_name("_presult")
    1128                      .dwattr DW$132, DW_AT_type(*DW$T$87)
    1129                      .dwattr DW$132, DW_AT_location[DW_OP_breg20 -2]
    1130              DW$133  .dwtag  DW_TAG_variable, DW_AT_name("offset"), DW_AT_symbol_name("_offset")
    1131                      .dwattr DW$133, DW_AT_type(*DW$T$23)
    1132                      .dwattr DW$133, DW_AT_location[DW_OP_breg20 -3]
    1133 000001a1 A842          MOVL      *-SP[2],XAR4          ; |151| 
    1134                      .dwpsn  "app_WIRmod_fun.c",153,2
    1135 000001a2 761F!         MOVW      DP,#_m_alg_presult
         000001a3 0000 
    1136 000001a4 8A00!         MOVL      XAR4,@_m_alg_presult  ; |153| 
    1137 000001a5 92C4          MOV       AL,*+XAR4[0]          ; |153| 
    1138 000001a6 EC32          BF        L19,EQ                ; |153| 
    1139                      ; branchcc occurs ; |153| 
    1140                      .dwpsn  "app_WIRmod_fun.c",156,3
    1141 000001a7 8A00!         MOVL      XAR4,@_m_alg_presult  ; |156| 
    1142 000001a8 D044          MOVB      XAR0,#68              ; |156| 
    1143 000001a9 9294          MOV       AL,*+XAR4[AR0]        ; |156| 
    1144 000001aa 5201          CMPB      AL,#1                 ; |156| 
    1145 000001ab ED09          BF        L17,NEQ               ; |156| 
    1146                      ; branchcc occurs ; |156| 
    1147                      .dwpsn  "app_WIRmod_fun.c",158,4
    1148 000001ac 761F!         MOVW      DP,#_m_WIR_win
         000001ad 0000 
    1149 000001ae 8A00!         MOVL      XAR4,@_m_WIR_win      ; |158| 
    1150 000001af 8F40+         MOVL      XAR5,#FSL10           ; |158| 
         000001b0 0050 
    1151 000001b1 7640!         LCR       #_GUI_3D_window_title_mod ; |158| 
         000001b2 0000 
    1152                      ; call occurs [#_GUI_3D_window_title_mod] ; |158| 
    1153                      .dwpsn  "app_WIRmod_fun.c",159,3
    1154 000001b3 6F0B          B         L18,UNC               ; |159| 
    1155                      ; branch occurs ; |159| 
    1156              L17:    
    1157                      .dwpsn  "app_WIRmod_fun.c",160,8
    1158 000001b4 8A00!         MOVL      XAR4,@_m_alg_presult  ; |160| 
    1159 000001b5 9294          MOV       AL,*+XAR4[AR0]        ; |160| 
    1160 000001b6 ED08          BF        L18,NEQ               ; |160| 
    1161                      ; branchcc occurs ; |160| 
    1162                      .dwpsn  "app_WIRmod_fun.c",162,4
    1163 000001b7 761F!         MOVW      DP,#_m_WIR_win
         000001b8 0000 
    1164 000001b9 8A00!         MOVL      XAR4,@_m_WIR_win      ; |162| 
    1165 000001ba 8F40+         MOVL      XAR5,#FSL11           ; |162| 
TMS320C2000 COFF Assembler PC v4.1.3 Thu Sep 15 15:05:07 2011

Tools Copyright (c) 1996-2006 Texas Instruments Incorporated
C:\DOCUME~1\ADMINI~1\LOCALS~1\Temp\TI4802                            PAGE   24

         000001bb 0064 
    1166 000001bc 7640!         LCR       #_GUI_3D_window_title_mod ; |162| 
         000001bd 0000 
    1167                      ; call occurs [#_GUI_3D_window_title_mod] ; |162| 
    1168              L18:    
    1169                      .dwpsn  "app_WIRmod_fun.c",164,3
    1170 000001be 761F!         MOVW      DP,#_m_alg_presult
         000001bf 0000 
    1171 000001c0 8A00!         MOVL      XAR4,@_m_alg_presult  ; |164| 
    1172 000001c1 7640!         LCR       #_app_WIRmod_result_lostUI_display ; |164| 
         000001c2 0000 
    1173                      ; call occurs [#_app_WIRmod_result_lostUI_display] ; |164| 
    1174                      .dwpsn  "app_WIRmod_fun.c",165,3
    1175 000001c3 761F!         MOVW      DP,#_m_draw_win
         000001c4 0000 
    1176 000001c5 8A00!         MOVL      XAR4,@_m_draw_win     ; |165| 
    1177 000001c6 7640!         LCR       #_GUI_window_hwin_req ; |165| 
         000001c7 0000 
    1178                      ; call occurs [#_GUI_window_hwin_req] ; |165| 
    1179                      .dwpsn  "app_WIRmod_fun.c",166,3
    1180 000001c8 9A00          MOVB      AL,#0
    1181 000001c9 7640!         LCR       #_GUI_set_Bgcolor     ; |166| 
         000001ca 0000 
    1182                      ; call occurs [#_GUI_set_Bgcolor] ; |166| 
    1183                      .dwpsn  "app_WIRmod_fun.c",167,3
    1184 000001cb 9AFF          MOVB      AL,#255               ; |167| 
    1185 000001cc 7640!         LCR       #_GUI_set_Fgcolor     ; |167| 
         000001cd 0000 
    1186                      ; call occurs [#_GUI_set_Fgcolor] ; |167| 
    1187                      .dwpsn  "app_WIRmod_fun.c",168,3
    1188 000001ce 7640!         LCR       #_GUI_clean_window    ; |168| 
         000001cf 0000 
    1189                      ; call occurs [#_GUI_clean_window] ; |168| 
    1190                      .dwpsn  "app_WIRmod_fun.c",169,3
    1191 000001d0 761F!         MOVW      DP,#_m_draw_win
         000001d1 0000 
    1192 000001d2 8A00!         MOVL      XAR4,@_m_draw_win     ; |169| 
    1193 000001d3 7640!         LCR       #_GUI_window_hwin_release ; |169| 
         000001d4 0000 
    1194                      ; call occurs [#_GUI_window_hwin_release] ; |169| 
    1195                      .dwpsn  "app_WIRmod_fun.c",170,3
    1196 000001d5 9A00          MOVB      AL,#0
    1197 000001d6 FFEF          B         L25,UNC               ; |170| 
         000001d7 00BC 
    1198                      ; branch occurs ; |170| 
    1199              L19:    
    1200                      .dwpsn  "app_WIRmod_fun.c",174,3
    1201 000001d8 8A42          MOVL      XAR4,*-SP[2]          ; |174| 
    1202 000001d9 9A00          MOVB      AL,#0
    1203 000001da 9B19          MOVB      AH,#25                ; |174| 
    1204 000001db 7640!         LCR       #_global_memset       ; |174| 
         000001dc 0000 
    1205                      ; call occurs [#_global_memset] ; |174| 
    1206                      .dwpsn  "app_WIRmod_fun.c",175,3
    1207 000001dd 761F!         MOVW      DP,#_m_alg_presult
TMS320C2000 COFF Assembler PC v4.1.3 Thu Sep 15 15:05:07 2011

Tools Copyright (c) 1996-2006 Texas Instruments Incorporated
C:\DOCUME~1\ADMINI~1\LOCALS~1\Temp\TI4802                            PAGE   25

         000001de 0000 
    1208 000001df 8A00!         MOVL      XAR4,@_m_alg_presult  ; |175| 
    1209 000001e0 D044          MOVB      XAR0,#68              ; |175| 
    1210 000001e1 761F-         MOVW      DP,#_m_WIR_jxmod
         000001e2 0000 
    1211 000001e3 9294          MOV       AL,*+XAR4[AR0]        ; |175| 
    1212 000001e4 9601-         MOV       @_m_WIR_jxmod,AL      ; |175| 
    1213                      .dwpsn  "app_WIRmod_fun.c",176,3
    1214 000001e5 7640'         LCR       #_app_WIRmod_seletc_result ; |176| 
         000001e6 0000 
    1215                      ; call occurs [#_app_WIRmod_seletc_result] ; |176| 
    1216 000001e7 9643          MOV       *-SP[3],AL            ; |176| 
    1217                      .dwpsn  "app_WIRmod_fun.c",177,3
    1218 000001e8 5205          CMPB      AL,#5                 ; |177| 
    1219 000001e9 ED04          BF        L20,NEQ               ; |177| 
    1220                      ; branchcc occurs ; |177| 
    1221                      .dwpsn  "app_WIRmod_fun.c",177,22
    1222 000001ea 9A00          MOVB      AL,#0
    1223 000001eb FFEF          B         L25,UNC               ; |177| 
         000001ec 00A7 
    1224                      ; branch occurs ; |177| 
    1225              L20:    
    1226                      .dwpsn  "app_WIRmod_fun.c",178,3
    1227 000001ed 28AC          MOV       T,#69                 ; |178| 
         000001ee 0045 
    1228 000001ef 761F!         MOVW      DP,#_m_alg_presult
         000001f0 0000 
    1229 000001f1 3243          MPYXU     P,T,*-SP[3]           ; |178| 
    1230 000001f2 0600!         MOVL      ACC,@_m_alg_presult   ; |178| 
    1231 000001f3 07AB          ADDL      ACC,P
    1232 000001f4 0930          ADDB      ACC,#48               ; |178| 
    1233 000001f5 8AA9          MOVL      XAR4,ACC              ; |178| 
    1234 000001f6 9A20          MOVB      AL,#32                ; |178| 
    1235 000001f7 7640!         LCR       #_global_string_filter ; |178| 
         000001f8 0000 
    1236                      ; call occurs [#_global_string_filter] ; |178| 
    1237                      .dwpsn  "app_WIRmod_fun.c",179,3
    1238 000001f9 761F!         MOVW      DP,#_m_alg_presult
         000001fa 0000 
    1239 000001fb 28AC          MOV       T,#69                 ; |179| 
         000001fc 0045 
    1240 000001fd 0600!         MOVL      ACC,@_m_alg_presult   ; |179| 
    1241 000001fe 3243          MPYXU     P,T,*-SP[3]           ; |179| 
    1242 000001ff 07AB          ADDL      ACC,P
    1243 00000200 091C          ADDB      ACC,#28               ; |179| 
    1244 00000201 8AA9          MOVL      XAR4,ACC              ; |179| 
    1245 00000202 9A20          MOVB      AL,#32                ; |179| 
    1246 00000203 7640!         LCR       #_global_string_filter ; |179| 
         00000204 0000 
    1247                      ; call occurs [#_global_string_filter] ; |179| 
    1248                      .dwpsn  "app_WIRmod_fun.c",180,3
    1249 00000205 761F!         MOVW      DP,#_m_alg_presult
         00000206 0000 
    1250 00000207 28AC          MOV       T,#69                 ; |180| 
         00000208 0045 
TMS320C2000 COFF Assembler PC v4.1.3 Thu Sep 15 15:05:07 2011

Tools Copyright (c) 1996-2006 Texas Instruments Incorporated
C:\DOCUME~1\ADMINI~1\LOCALS~1\Temp\TI4802                            PAGE   26

    1251 00000209 0600!         MOVL      ACC,@_m_alg_presult   ; |180| 
    1252 0000020a 3243          MPYXU     P,T,*-SP[3]           ; |180| 
    1253 0000020b 07AB          ADDL      ACC,P
    1254 0000020c 091C          ADDB      ACC,#28               ; |180| 
    1255 0000020d 83A9          MOVL      XAR5,ACC              ; |180| 
    1256 0000020e 8A42          MOVL      XAR4,*-SP[2]          ; |180| 
    1257 0000020f 9A02          MOVB      AL,#2                 ; |180| 
    1258 00000210 7640!         LCR       #_global_memcpy       ; |180| 
         00000211 0000 
    1259                      ; call occurs [#_global_memcpy] ; |180| 
    1260                      .dwpsn  "app_WIRmod_fun.c",181,3
    1261 00000212 761F!         MOVW      DP,#_m_alg_presult
         00000213 0000 
    1262 00000214 28AC          MOV       T,#69                 ; |181| 
         00000215 0045 
    1263 00000216 0600!         MOVL      ACC,@_m_alg_presult   ; |181| 
    1264 00000217 3243          MPYXU     P,T,*-SP[3]           ; |181| 
    1265 00000218 8A42          MOVL      XAR4,*-SP[2]          ; |181| 
    1266 00000219 07AB          ADDL      ACC,P
    1267 0000021a 091E          ADDB      ACC,#30               ; |181| 
    1268 0000021b 83A9          MOVL      XAR5,ACC              ; |181| 
    1269 0000021c DC03          ADDB      XAR4,#3               ; |181| 
    1270 0000021d 9A02          MOVB      AL,#2                 ; |181| 
    1271 0000021e 7640!         LCR       #_global_memcpy       ; |181| 
         0000021f 0000 
    1272                      ; call occurs [#_global_memcpy] ; |181| 
    1273                      .dwpsn  "app_WIRmod_fun.c",182,3
    1274 00000220 761F!         MOVW      DP,#_m_alg_presult
         00000221 0000 
    1275 00000222 28AC          MOV       T,#69                 ; |182| 
         00000223 0045 
    1276 00000224 0600!         MOVL      ACC,@_m_alg_presult   ; |182| 
    1277 00000225 3243          MPYXU     P,T,*-SP[3]           ; |182| 
    1278 00000226 8A42          MOVL      XAR4,*-SP[2]          ; |182| 
    1279 00000227 07AB          ADDL      ACC,P
    1280 00000228 0920          ADDB      ACC,#32               ; |182| 
    1281 00000229 83A9          MOVL      XAR5,ACC              ; |182| 
    1282 0000022a DC06          ADDB      XAR4,#6               ; |182| 
    1283 0000022b 9A02          MOVB      AL,#2                 ; |182| 
    1284 0000022c 7640!         LCR       #_global_memcpy       ; |182| 
         0000022d 0000 
    1285                      ; call occurs [#_global_memcpy] ; |182| 
    1286                      .dwpsn  "app_WIRmod_fun.c",183,3
    1287 0000022e 761F!         MOVW      DP,#_m_alg_presult
         0000022f 0000 
    1288 00000230 28AC          MOV       T,#69                 ; |183| 
         00000231 0045 
    1289 00000232 0600!         MOVL      ACC,@_m_alg_presult   ; |183| 
    1290 00000233 3243          MPYXU     P,T,*-SP[3]           ; |183| 
    1291 00000234 07AB          ADDL      ACC,P
    1292 00000235 8A42          MOVL      XAR4,*-SP[2]          ; |183| 
    1293 00000236 0930          ADDB      ACC,#48               ; |183| 
    1294 00000237 83A9          MOVL      XAR5,ACC              ; |183| 
    1295 00000238 7640'         LCR       #_app_WIRmod_resulst_sys_I ; |183| 
         00000239 00F3 
TMS320C2000 COFF Assembler PC v4.1.3 Thu Sep 15 15:05:07 2011

Tools Copyright (c) 1996-2006 Texas Instruments Incorporated
C:\DOCUME~1\ADMINI~1\LOCALS~1\Temp\TI4802                            PAGE   27

    1296                      ; call occurs [#_app_WIRmod_resulst_sys_I] ; |183| 
    1297                      .dwpsn  "app_WIRmod_fun.c",184,3
    1298 0000023a 761F!         MOVW      DP,#_m_alg_presult
         0000023b 0000 
    1299 0000023c 8A00!         MOVL      XAR4,@_m_alg_presult  ; |184| 
    1300 0000023d 8342          MOVL      XAR5,*-SP[2]          ; |184| 
    1301 0000023e D015          MOVB      XAR0,#21              ; |184| 
    1302 0000023f 92FC          MOV       AL,*+XAR4[7]          ; |184| 
    1303 00000240 9695          MOV       *+XAR5[AR0],AL        ; |184| 
    1304                      .dwpsn  "app_WIRmod_fun.c",185,3
    1305 00000241 28AC          MOV       T,#69                 ; |185| 
         00000242 0045 
    1306 00000243 0600!         MOVL      ACC,@_m_alg_presult   ; |185| 
    1307 00000244 3243          MPYXU     P,T,*-SP[3]           ; |185| 
    1308 00000245 07AB          ADDL      ACC,P
    1309 00000246 091C          ADDB      ACC,#28               ; |185| 
    1310 00000247 8AA9          MOVL      XAR4,ACC              ; |185| 
    1311 00000248 8F40+         MOVL      XAR5,#FSL12           ; |185| 
         00000249 0078 
    1312 0000024a 9A07          MOVB      AL,#7                 ; |185| 
    1313 0000024b 7640!         LCR       #_global_memcmp       ; |185| 
         0000024c 0000 
    1314                      ; call occurs [#_global_memcmp] ; |185| 
    1315 0000024d 5200          CMPB      AL,#0                 ; |185| 
    1316 0000024e ED06          BF        L21,NEQ               ; |185| 
    1317                      ; branchcc occurs ; |185| 
    1318                      .dwpsn  "app_WIRmod_fun.c",187,4
    1319 0000024f 8A42          MOVL      XAR4,*-SP[2]          ; |187| 
    1320 00000250 D016          MOVB      XAR0,#22              ; |187| 
    1321 00000251 2B94          MOV       *+XAR4[AR0],#0        ; |187| 
    1322                      .dwpsn  "app_WIRmod_fun.c",188,4
    1323 00000252 9A01          MOVB      AL,#1                 ; |188| 
    1324 00000253 6F3F          B         L25,UNC               ; |188| 
    1325                      ; branch occurs ; |188| 
    1326              L21:    
    1327                      .dwpsn  "app_WIRmod_fun.c",190,3
    1328 00000254 761F-         MOVW      DP,#_m_WIR_jxmod
         00000255 0000 
    1329 00000256 9201-         MOV       AL,@_m_WIR_jxmod      ; |190| 
    1330 00000257 5201          CMPB      AL,#1                 ; |190| 
    1331 00000258 ED16          BF        L22,NEQ               ; |190| 
    1332                      ; branchcc occurs ; |190| 
    1333                      .dwpsn  "app_WIRmod_fun.c",192,4
    1334 00000259 28AC          MOV       T,#69                 ; |192| 
         0000025a 0045 
    1335 0000025b 761F!         MOVW      DP,#_m_alg_presult
         0000025c 0000 
    1336 0000025d 3243          MPYXU     P,T,*-SP[3]           ; |192| 
    1337 0000025e 0600!         MOVL      ACC,@_m_alg_presult   ; |192| 
    1338 0000025f 07AB          ADDL      ACC,P
    1339 00000260 0930          ADDB      ACC,#48               ; |192| 
    1340 00000261 8AA9          MOVL      XAR4,ACC              ; |192| 
    1341 00000262 8F40+         MOVL      XAR5,#FSL13           ; |192| 
         00000263 0080 
    1342 00000264 9A05          MOVB      AL,#5                 ; |192| 
TMS320C2000 COFF Assembler PC v4.1.3 Thu Sep 15 15:05:07 2011

Tools Copyright (c) 1996-2006 Texas Instruments Incorporated
C:\DOCUME~1\ADMINI~1\LOCALS~1\Temp\TI4802                            PAGE   28

    1343 00000265 7640!         LCR       #_global_memcmp       ; |192| 
         00000266 0000 
    1344                      ; call occurs [#_global_memcmp] ; |192| 
    1345 00000267 5200          CMPB      AL,#0                 ; |192| 
    1346 00000268 ED1B          BF        L23,NEQ               ; |192| 
    1347                      ; branchcc occurs ; |192| 
    1348                      .dwpsn  "app_WIRmod_fun.c",194,5
    1349 00000269 8A42          MOVL      XAR4,*-SP[2]          ; |194| 
    1350 0000026a D016          MOVB      XAR0,#22              ; |194| 
    1351 0000026b 2B94          MOV       *+XAR4[AR0],#0        ; |194| 
    1352                      .dwpsn  "app_WIRmod_fun.c",195,5
    1353 0000026c 9A01          MOVB      AL,#1                 ; |195| 
    1354 0000026d 6F25          B         L25,UNC               ; |195| 
    1355                      ; branch occurs ; |195| 
    1356              L22:    
    1357                      .dwpsn  "app_WIRmod_fun.c",200,4
    1358 0000026e 28AC          MOV       T,#69                 ; |200| 
         0000026f 0045 
    1359 00000270 761F!         MOVW      DP,#_m_alg_presult
         00000271 0000 
    1360 00000272 3243          MPYXU     P,T,*-SP[3]           ; |200| 
    1361 00000273 0600!         MOVL      ACC,@_m_alg_presult   ; |200| 
    1362 00000274 07AB          ADDL      ACC,P
    1363 00000275 0930          ADDB      ACC,#48               ; |200| 
    1364 00000276 8AA9          MOVL      XAR4,ACC              ; |200| 
    1365 00000277 8F40+         MOVL      XAR5,#FSL14           ; |200| 
         00000278 0086 
    1366 00000279 9A07          MOVB      AL,#7                 ; |200| 
    1367 0000027a 7640!         LCR       #_global_memcmp       ; |200| 
         0000027b 0000 
    1368                      ; call occurs [#_global_memcmp] ; |200| 
    1369 0000027c 5200          CMPB      AL,#0                 ; |200| 
    1370 0000027d ED06          BF        L23,NEQ               ; |200| 
    1371                      ; branchcc occurs ; |200| 
    1372                      .dwpsn  "app_WIRmod_fun.c",202,5
    1373 0000027e 8A42          MOVL      XAR4,*-SP[2]          ; |202| 
    1374 0000027f D016          MOVB      XAR0,#22              ; |202| 
    1375 00000280 2B94          MOV       *+XAR4[AR0],#0        ; |202| 
    1376                      .dwpsn  "app_WIRmod_fun.c",203,5
    1377 00000281 9A01          MOVB      AL,#1                 ; |203| 
    1378 00000282 6F10          B         L25,UNC               ; |203| 
    1379                      ; branch occurs ; |203| 
    1380              L23:    
    1381                      .dwpsn  "app_WIRmod_fun.c",206,3
    1382 00000283 761F!         MOVW      DP,#_m_alg_presult
         00000284 0000 
    1383 00000285 8A00!         MOVL      XAR4,@_m_alg_presult  ; |206| 
    1384 00000286 92FC          MOV       AL,*+XAR4[7]          ; |206| 
    1385 00000287 5201          CMPB      AL,#1                 ; |206| 
    1386 00000288 EC06          BF        L24,EQ                ; |206| 
    1387                      ; branchcc occurs ; |206| 
    1388                      .dwpsn  "app_WIRmod_fun.c",208,4
    1389 00000289 8A42          MOVL      XAR4,*-SP[2]          ; |208| 
    1390 0000028a D016          MOVB      XAR0,#22              ; |208| 
    1391 0000028b 2B94          MOV       *+XAR4[AR0],#0        ; |208| 
TMS320C2000 COFF Assembler PC v4.1.3 Thu Sep 15 15:05:07 2011

Tools Copyright (c) 1996-2006 Texas Instruments Incorporated
C:\DOCUME~1\ADMINI~1\LOCALS~1\Temp\TI4802                            PAGE   29

    1392                      .dwpsn  "app_WIRmod_fun.c",209,4
    1393 0000028c 9A01          MOVB      AL,#1                 ; |209| 
    1394 0000028d 6F05          B         L25,UNC               ; |209| 
    1395                      ; branch occurs ; |209| 
    1396              L24:    
    1397                      .dwpsn  "app_WIRmod_fun.c",211,3
    1398 0000028e 9A01          MOVB      AL,#1                 ; |211| 
    1399 0000028f 8A42          MOVL      XAR4,*-SP[2]          ; |211| 
    1400 00000290 D016          MOVB      XAR0,#22              ; |211| 
    1401 00000291 9694          MOV       *+XAR4[AR0],AL        ; |211| 
    1402                      .dwpsn  "app_WIRmod_fun.c",212,3
    1403              L25:    
    1404                      .dwpsn  "app_WIRmod_fun.c",214,1
    1405 00000292 FE84          SUBB      SP,#4                 ; |212| 
    1406                      .dwcfa  0x1d, -2
    1407 00000293 0006          LRETR
    1408                      ; return occurs
    1409                      .dwattr DW$130, DW_AT_end_file("app_WIRmod_fun.c")
    1410                      .dwattr DW$130, DW_AT_end_line(0xd6)
    1411                      .dwattr DW$130, DW_AT_end_column(0x01)
    1412                      .dwendentry
    1413                      .dwendtag DW$130
    1414              
    1415 00000294               .sect   ".text"
    1416                      .global _app_WIRmod_icon_mod
    1417              
    1418              DW$134  .dwtag  DW_TAG_subprogram, DW_AT_name("app_WIRmod_icon_mod"), DW_AT_symbol_name("_app_WIRmod_icon_mod
    1419                      .dwattr DW$134, DW_AT_low_pc(_app_WIRmod_icon_mod)
    1420                      .dwattr DW$134, DW_AT_high_pc(0x00)
    1421                      .dwattr DW$134, DW_AT_begin_file("app_WIRmod_fun.c")
    1422                      .dwattr DW$134, DW_AT_begin_line(0xe5)
    1423                      .dwattr DW$134, DW_AT_begin_column(0x06)
    1424                      .dwpsn  "app_WIRmod_fun.c",230,1
    1425              
    1426                      .dwfde DW$CIE
    1427              
    1428              ;***************************************************************
    1429              ;* FNAME: _app_WIRmod_icon_mod          FR SIZE:   4           *
    1430              ;*                                                             *
    1431              ;* FUNCTION ENVIRONMENT                                        *
    1432              ;*                                                             *
    1433              ;* FUNCTION PROPERTIES                                         *
    1434              ;*                            0 Parameter,  4 Auto,  0 SOE     *
    1435              ;***************************************************************
    1436              
    1437              _app_WIRmod_icon_mod:
    1438                      .dwcfa  0x1d, -2
    1439                      .dwcfa  0x1c, 26, 0
    1440                      .dwcfa  0x09, 40, 26
    1441 00000294 FE04          ADDB      SP,#4
    1442                      .dwcfa  0x1d, -6
    1443              ;* AR4   assigned to _icon
    1444              DW$135  .dwtag  DW_TAG_formal_parameter, DW_AT_name("icon"), DW_AT_symbol_name("_icon")
    1445                      .dwattr DW$135, DW_AT_type(*DW$T$52)
    1446                      .dwattr DW$135, DW_AT_location[DW_OP_reg12]
TMS320C2000 COFF Assembler PC v4.1.3 Thu Sep 15 15:05:07 2011

Tools Copyright (c) 1996-2006 Texas Instruments Incorporated
C:\DOCUME~1\ADMINI~1\LOCALS~1\Temp\TI4802                            PAGE   30

    1447              ;* AR5   assigned to _pload
    1448              DW$136  .dwtag  DW_TAG_formal_parameter, DW_AT_name("pload"), DW_AT_symbol_name("_pload")
    1449                      .dwattr DW$136, DW_AT_type(*DW$T$52)
    1450                      .dwattr DW$136, DW_AT_location[DW_OP_reg14]
    1451              DW$137  .dwtag  DW_TAG_variable, DW_AT_name("icon"), DW_AT_symbol_name("_icon")
    1452                      .dwattr DW$137, DW_AT_type(*DW$T$52)
    1453                      .dwattr DW$137, DW_AT_location[DW_OP_breg20 -2]
    1454              DW$138  .dwtag  DW_TAG_variable, DW_AT_name("pload"), DW_AT_symbol_name("_pload")
    1455                      .dwattr DW$138, DW_AT_type(*DW$T$52)
    1456                      .dwattr DW$138, DW_AT_location[DW_OP_breg20 -4]
    1457 00000295 A044          MOVL      *-SP[4],XAR5          ; |230| 
    1458 00000296 A842          MOVL      *-SP[2],XAR4          ; |230| 
    1459                      .dwpsn  "app_WIRmod_fun.c",231,9
    1460 00000297 8A42          MOVL      XAR4,*-SP[2]          ; |231| 
    1461 00000298 9A02          MOVB      AL,#2                 ; |231| 
    1462 00000299 8F40+         MOVL      XAR5,#FSL15           ; |231| 
         0000029a 008E 
    1463 0000029b 7640!         LCR       #_global_memcmp       ; |231| 
         0000029c 0000 
    1464                      ; call occurs [#_global_memcmp] ; |231| 
    1465 0000029d 5200          CMPB      AL,#0                 ; |231| 
    1466 0000029e EC05          BF        L26,EQ                ; |231| 
    1467                      ; branchcc occurs ; |231| 
    1468                      .dwpsn  "app_WIRmod_fun.c",231,40
    1469 0000029f 8A44          MOVL      XAR4,*-SP[4]          ; |231| 
    1470 000002a0 28C4          MOV       *+XAR4[0],#97         ; |231| 
         000002a1 0061 
    1471 000002a2 6F60          B         L34,UNC               ; |231| 
    1472                      ; branch occurs ; |231| 
    1473              L26:    
    1474                      .dwpsn  "app_WIRmod_fun.c",232,14
    1475 000002a3 8A42          MOVL      XAR4,*-SP[2]          ; |232| 
    1476 000002a4 9A02          MOVB      AL,#2                 ; |232| 
    1477 000002a5 8F40+         MOVL      XAR5,#FSL16           ; |232| 
         000002a6 0092 
    1478 000002a7 7640!         LCR       #_global_memcmp       ; |232| 
         000002a8 0000 
    1479                      ; call occurs [#_global_memcmp] ; |232| 
    1480 000002a9 5200          CMPB      AL,#0                 ; |232| 
    1481 000002aa EC05          BF        L27,EQ                ; |232| 
    1482                      ; branchcc occurs ; |232| 
    1483                      .dwpsn  "app_WIRmod_fun.c",232,45
    1484 000002ab 8A44          MOVL      XAR4,*-SP[4]          ; |232| 
    1485 000002ac 28C4          MOV       *+XAR4[0],#98         ; |232| 
         000002ad 0062 
    1486 000002ae 6F54          B         L34,UNC               ; |232| 
    1487                      ; branch occurs ; |232| 
    1488              L27:    
    1489                      .dwpsn  "app_WIRmod_fun.c",233,14
    1490 000002af 8A42          MOVL      XAR4,*-SP[2]          ; |233| 
    1491 000002b0 9A02          MOVB      AL,#2                 ; |233| 
    1492 000002b1 8F40+         MOVL      XAR5,#FSL17           ; |233| 
         000002b2 0096 
    1493 000002b3 7640!         LCR       #_global_memcmp       ; |233| 
         000002b4 0000 
TMS320C2000 COFF Assembler PC v4.1.3 Thu Sep 15 15:05:07 2011

Tools Copyright (c) 1996-2006 Texas Instruments Incorporated
C:\DOCUME~1\ADMINI~1\LOCALS~1\Temp\TI4802                            PAGE   31

    1494                      ; call occurs [#_global_memcmp] ; |233| 
    1495 000002b5 5200          CMPB      AL,#0                 ; |233| 
    1496 000002b6 EC05          BF        L28,EQ                ; |233| 
    1497                      ; branchcc occurs ; |233| 
    1498                      .dwpsn  "app_WIRmod_fun.c",233,45
    1499 000002b7 8A44          MOVL      XAR4,*-SP[4]          ; |233| 
    1500 000002b8 28C4          MOV       *+XAR4[0],#99         ; |233| 
         000002b9 0063 
    1501 000002ba 6F48          B         L34,UNC               ; |233| 
    1502                      ; branch occurs ; |233| 
    1503              L28:    
    1504                      .dwpsn  "app_WIRmod_fun.c",234,14
    1505 000002bb 8A42          MOVL      XAR4,*-SP[2]          ; |234| 
    1506 000002bc 9A02          MOVB      AL,#2                 ; |234| 
    1507 000002bd 8F40+         MOVL      XAR5,#FSL18           ; |234| 
         000002be 009A 
    1508 000002bf 7640!         LCR       #_global_memcmp       ; |234| 
         000002c0 0000 
    1509                      ; call occurs [#_global_memcmp] ; |234| 
    1510 000002c1 5200          CMPB      AL,#0                 ; |234| 
    1511 000002c2 EC05          BF        L29,EQ                ; |234| 
    1512                      ; branchcc occurs ; |234| 
    1513                      .dwpsn  "app_WIRmod_fun.c",236,4
    1514 000002c3 8A44          MOVL      XAR4,*-SP[4]          ; |236| 
    1515 000002c4 28C4          MOV       *+XAR4[0],#97         ; |236| 
         000002c5 0061 
    1516                      .dwpsn  "app_WIRmod_fun.c",237,9
    1517 000002c6 6F3C          B         L34,UNC               ; |237| 
    1518                      ; branch occurs ; |237| 
    1519              L29:    
    1520                      .dwpsn  "app_WIRmod_fun.c",238,14
    1521 000002c7 8A42          MOVL      XAR4,*-SP[2]          ; |238| 
    1522 000002c8 9A03          MOVB      AL,#3                 ; |238| 
    1523 000002c9 8F40+         MOVL      XAR5,#FSL19           ; |238| 
         000002ca 009E 
    1524 000002cb 7640!         LCR       #_global_memcmp       ; |238| 
         000002cc 0000 
    1525                      ; call occurs [#_global_memcmp] ; |238| 
    1526 000002cd 5200          CMPB      AL,#0                 ; |238| 
    1527 000002ce EC05          BF        L30,EQ                ; |238| 
    1528                      ; branchcc occurs ; |238| 
    1529                      .dwpsn  "app_WIRmod_fun.c",240,4
    1530 000002cf 8A44          MOVL      XAR4,*-SP[4]          ; |240| 
    1531 000002d0 28C4          MOV       *+XAR4[0],#97         ; |240| 
         000002d1 0061 
    1532                      .dwpsn  "app_WIRmod_fun.c",241,9
    1533 000002d2 6F30          B         L34,UNC               ; |241| 
    1534                      ; branch occurs ; |241| 
    1535              L30:    
    1536                      .dwpsn  "app_WIRmod_fun.c",242,14
    1537 000002d3 8A42          MOVL      XAR4,*-SP[2]          ; |242| 
    1538 000002d4 9A02          MOVB      AL,#2                 ; |242| 
    1539 000002d5 8F40+         MOVL      XAR5,#FSL20           ; |242| 
         000002d6 00A2 
    1540 000002d7 7640!         LCR       #_global_memcmp       ; |242| 
TMS320C2000 COFF Assembler PC v4.1.3 Thu Sep 15 15:05:07 2011

Tools Copyright (c) 1996-2006 Texas Instruments Incorporated
C:\DOCUME~1\ADMINI~1\LOCALS~1\Temp\TI4802                            PAGE   32

         000002d8 0000 
    1541                      ; call occurs [#_global_memcmp] ; |242| 
    1542 000002d9 5200          CMPB      AL,#0                 ; |242| 
    1543 000002da EC05          BF        L31,EQ                ; |242| 
    1544                      ; branchcc occurs ; |242| 
    1545                      .dwpsn  "app_WIRmod_fun.c",244,4
    1546 000002db 8A44          MOVL      XAR4,*-SP[4]          ; |244| 
    1547 000002dc 28C4          MOV       *+XAR4[0],#98         ; |244| 
         000002dd 0062 
    1548                      .dwpsn  "app_WIRmod_fun.c",245,9
    1549 000002de 6F24          B         L34,UNC               ; |245| 
    1550                      ; branch occurs ; |245| 
    1551              L31:    
    1552                      .dwpsn  "app_WIRmod_fun.c",246,14
    1553 000002df 8A42          MOVL      XAR4,*-SP[2]          ; |246| 
    1554 000002e0 9A03          MOVB      AL,#3                 ; |246| 
    1555 000002e1 8F40+         MOVL      XAR5,#FSL21           ; |246| 
         000002e2 00A6 
    1556 000002e3 7640!         LCR       #_global_memcmp       ; |246| 
         000002e4 0000 
    1557                      ; call occurs [#_global_memcmp] ; |246| 
    1558 000002e5 5200          CMPB      AL,#0                 ; |246| 
    1559 000002e6 EC05          BF        L32,EQ                ; |246| 
    1560                      ; branchcc occurs ; |246| 
    1561                      .dwpsn  "app_WIRmod_fun.c",248,4
    1562 000002e7 8A44          MOVL      XAR4,*-SP[4]          ; |248| 
    1563 000002e8 28C4          MOV       *+XAR4[0],#98         ; |248| 
         000002e9 0062 
    1564                      .dwpsn  "app_WIRmod_fun.c",249,9
    1565 000002ea 6F18          B         L34,UNC               ; |249| 
    1566                      ; branch occurs ; |249| 
    1567              L32:    
    1568                      .dwpsn  "app_WIRmod_fun.c",250,9
    1569 000002eb 8A42          MOVL      XAR4,*-SP[2]          ; |250| 
    1570 000002ec 9A02          MOVB      AL,#2                 ; |250| 
    1571 000002ed 8F40+         MOVL      XAR5,#FSL22           ; |250| 
         000002ee 00AA 
    1572 000002ef 7640!         LCR       #_global_memcmp       ; |250| 
         000002f0 0000 
    1573                      ; call occurs [#_global_memcmp] ; |250| 
    1574 000002f1 5200          CMPB      AL,#0                 ; |250| 
    1575 000002f2 EC05          BF        L33,EQ                ; |250| 
    1576                      ; branchcc occurs ; |250| 
    1577                      .dwpsn  "app_WIRmod_fun.c",252,4
    1578 000002f3 8A44          MOVL      XAR4,*-SP[4]          ; |252| 
    1579 000002f4 28C4          MOV       *+XAR4[0],#99         ; |252| 
         000002f5 0063 
    1580                      .dwpsn  "app_WIRmod_fun.c",253,9
    1581 000002f6 6F0C          B         L34,UNC               ; |253| 
    1582                      ; branch occurs ; |253| 
    1583              L33:    
    1584                      .dwpsn  "app_WIRmod_fun.c",254,14
    1585 000002f7 8A42          MOVL      XAR4,*-SP[2]          ; |254| 
    1586 000002f8 9A03          MOVB      AL,#3                 ; |254| 
    1587 000002f9 8F40+         MOVL      XAR5,#FSL23           ; |254| 
TMS320C2000 COFF Assembler PC v4.1.3 Thu Sep 15 15:05:07 2011

Tools Copyright (c) 1996-2006 Texas Instruments Incorporated
C:\DOCUME~1\ADMINI~1\LOCALS~1\Temp\TI4802                            PAGE   33

         000002fa 00AE 
    1588 000002fb 7640!         LCR       #_global_memcmp       ; |254| 
         000002fc 0000 
    1589                      ; call occurs [#_global_memcmp] ; |254| 
    1590 000002fd 5200          CMPB      AL,#0                 ; |254| 
    1591 000002fe EC04          BF        L34,EQ                ; |254| 
    1592                      ; branchcc occurs ; |254| 
    1593                      .dwpsn  "app_WIRmod_fun.c",256,4
    1594 000002ff 8A44          MOVL      XAR4,*-SP[4]          ; |256| 
    1595 00000300 28C4          MOV       *+XAR4[0],#99         ; |256| 
         00000301 0063 
    1596                      .dwpsn  "app_WIRmod_fun.c",258,9
    1597              L34:    
    1598                      .dwpsn  "app_WIRmod_fun.c",259,1
    1599 00000302 FE84          SUBB      SP,#4
    1600                      .dwcfa  0x1d, -2
    1601 00000303 0006          LRETR
    1602                      ; return occurs
    1603                      .dwattr DW$134, DW_AT_end_file("app_WIRmod_fun.c")
    1604                      .dwattr DW$134, DW_AT_end_line(0x103)
    1605                      .dwattr DW$134, DW_AT_end_column(0x01)
    1606                      .dwendentry
    1607                      .dwendtag DW$134
    1608              
    1609 00000304               .sect   ".text"
    1610                      .global _app_WIRmod_pwir_mod
    1611              
    1612              DW$139  .dwtag  DW_TAG_subprogram, DW_AT_name("app_WIRmod_pwir_mod"), DW_AT_symbol_name("_app_WIRmod_pwir_mod
    1613                      .dwattr DW$139, DW_AT_low_pc(_app_WIRmod_pwir_mod)
    1614                      .dwattr DW$139, DW_AT_high_pc(0x00)
    1615                      .dwattr DW$139, DW_AT_begin_file("app_WIRmod_fun.c")
    1616                      .dwattr DW$139, DW_AT_begin_line(0x104)
    1617                      .dwattr DW$139, DW_AT_begin_column(0x06)
    1618                      .dwpsn  "app_WIRmod_fun.c",261,1
    1619              
    1620                      .dwfde DW$CIE
    1621              
    1622              ;***************************************************************
    1623              ;* FNAME: _app_WIRmod_pwir_mod          FR SIZE:   6           *
    1624              ;*                                                             *
    1625              ;* FUNCTION ENVIRONMENT                                        *
    1626              ;*                                                             *
    1627              ;* FUNCTION PROPERTIES                                         *
    1628              ;*                            0 Parameter,  5 Auto,  0 SOE     *
    1629              ;***************************************************************
    1630              
    1631              _app_WIRmod_pwir_mod:
    1632                      .dwcfa  0x1d, -2
    1633                      .dwcfa  0x1c, 26, 0
    1634                      .dwcfa  0x09, 40, 26
    1635 00000304 FE06          ADDB      SP,#6
    1636                      .dwcfa  0x1d, -8
    1637              ;* AL    assigned to _icon
    1638              DW$140  .dwtag  DW_TAG_formal_parameter, DW_AT_name("icon"), DW_AT_symbol_name("_icon")
    1639                      .dwattr DW$140, DW_AT_type(*DW$T$29)
TMS320C2000 COFF Assembler PC v4.1.3 Thu Sep 15 15:05:07 2011

Tools Copyright (c) 1996-2006 Texas Instruments Incorporated
C:\DOCUME~1\ADMINI~1\LOCALS~1\Temp\TI4802                            PAGE   34

    1640                      .dwattr DW$140, DW_AT_location[DW_OP_reg0]
    1641              ;* AR4   assigned to _pload
    1642              DW$141  .dwtag  DW_TAG_formal_parameter, DW_AT_name("pload"), DW_AT_symbol_name("_pload")
    1643                      .dwattr DW$141, DW_AT_type(*DW$T$52)
    1644                      .dwattr DW$141, DW_AT_location[DW_OP_reg12]
    1645              ;* AH    assigned to _mod
    1646              DW$142  .dwtag  DW_TAG_formal_parameter, DW_AT_name("mod"), DW_AT_symbol_name("_mod")
    1647                      .dwattr DW$142, DW_AT_type(*DW$T$29)
    1648                      .dwattr DW$142, DW_AT_location[DW_OP_reg1]
    1649              DW$143  .dwtag  DW_TAG_variable, DW_AT_name("icon"), DW_AT_symbol_name("_icon")
    1650                      .dwattr DW$143, DW_AT_type(*DW$T$29)
    1651                      .dwattr DW$143, DW_AT_location[DW_OP_breg20 -1]
    1652              DW$144  .dwtag  DW_TAG_variable, DW_AT_name("pload"), DW_AT_symbol_name("_pload")
    1653                      .dwattr DW$144, DW_AT_type(*DW$T$52)
    1654                      .dwattr DW$144, DW_AT_location[DW_OP_breg20 -4]
    1655              DW$145  .dwtag  DW_TAG_variable, DW_AT_name("mod"), DW_AT_symbol_name("_mod")
    1656                      .dwattr DW$145, DW_AT_type(*DW$T$29)
    1657                      .dwattr DW$145, DW_AT_location[DW_OP_breg20 -5]
    1658 00000305 9745          MOV       *-SP[5],AH            ; |261| 
    1659 00000306 A844          MOVL      *-SP[4],XAR4          ; |261| 
    1660 00000307 9641          MOV       *-SP[1],AL            ; |261| 
    1661                      .dwpsn  "app_WIRmod_fun.c",262,6
    1662 00000308 9245          MOV       AL,*-SP[5]            ; |262| 
    1663 00000309 5255          CMPB      AL,#85                ; |262| 
    1664 0000030a ED1A          BF        L37,NEQ               ; |262| 
    1665                      ; branchcc occurs ; |262| 
    1666                      .dwpsn  "app_WIRmod_fun.c",264,10
    1667 0000030b 9241          MOV       AL,*-SP[1]            ; |264| 
    1668 0000030c 5261          CMPB      AL,#97                ; |264| 
    1669 0000030d ED07          BF        L35,NEQ               ; |264| 
    1670                      ; branchcc occurs ; |264| 
    1671                      .dwpsn  "app_WIRmod_fun.c",264,24
    1672 0000030e 8A44          MOVL      XAR4,*-SP[4]          ; |264| 
    1673 0000030f 8F40+         MOVL      XAR5,#FSL15           ; |264| 
         00000310 008E 
    1674 00000311 7640!         LCR       #_global_strcpy       ; |264| 
         00000312 0000 
    1675                      ; call occurs [#_global_strcpy] ; |264| 
    1676 00000313 6F2B          B         L40,UNC               ; |264| 
    1677                      ; branch occurs ; |264| 
    1678              L35:    
    1679                      .dwpsn  "app_WIRmod_fun.c",265,15
    1680 00000314 5262          CMPB      AL,#98                ; |265| 
    1681 00000315 ED07          BF        L36,NEQ               ; |265| 
    1682                      ; branchcc occurs ; |265| 
    1683                      .dwpsn  "app_WIRmod_fun.c",265,29
    1684 00000316 8A44          MOVL      XAR4,*-SP[4]          ; |265| 
    1685 00000317 8F40+         MOVL      XAR5,#FSL16           ; |265| 
         00000318 0092 
    1686 00000319 7640!         LCR       #_global_strcpy       ; |265| 
         0000031a 0000 
    1687                      ; call occurs [#_global_strcpy] ; |265| 
    1688 0000031b 6F23          B         L40,UNC               ; |265| 
    1689                      ; branch occurs ; |265| 
    1690              L36:    
TMS320C2000 COFF Assembler PC v4.1.3 Thu Sep 15 15:05:07 2011

Tools Copyright (c) 1996-2006 Texas Instruments Incorporated
C:\DOCUME~1\ADMINI~1\LOCALS~1\Temp\TI4802                            PAGE   35

    1691                      .dwpsn  "app_WIRmod_fun.c",266,15
    1692 0000031c 5263          CMPB      AL,#99                ; |266| 
    1693 0000031d ED21          BF        L40,NEQ               ; |266| 
    1694                      ; branchcc occurs ; |266| 
    1695                      .dwpsn  "app_WIRmod_fun.c",266,29
    1696 0000031e 8A44          MOVL      XAR4,*-SP[4]          ; |266| 
    1697 0000031f 8F40+         MOVL      XAR5,#FSL17           ; |266| 
         00000320 0096 
    1698 00000321 7640!         LCR       #_global_strcpy       ; |266| 
         00000322 0000 
    1699                      ; call occurs [#_global_strcpy] ; |266| 
    1700                      .dwpsn  "app_WIRmod_fun.c",267,7
    1701 00000323 6F1B          B         L40,UNC               ; |267| 
    1702                      ; branch occurs ; |267| 
    1703              L37:    
    1704                      .dwpsn  "app_WIRmod_fun.c",268,11
    1705 00000324 5249          CMPB      AL,#73                ; |268| 
    1706 00000325 ED19          BF        L40,NEQ               ; |268| 
    1707                      ; branchcc occurs ; |268| 
    1708                      .dwpsn  "app_WIRmod_fun.c",270,10
    1709 00000326 9241          MOV       AL,*-SP[1]            ; |270| 
    1710 00000327 5261          CMPB      AL,#97                ; |270| 
    1711 00000328 ED07          BF        L38,NEQ               ; |270| 
    1712                      ; branchcc occurs ; |270| 
    1713                      .dwpsn  "app_WIRmod_fun.c",270,23
    1714 00000329 8A44          MOVL      XAR4,*-SP[4]          ; |270| 
    1715 0000032a 8F40+         MOVL      XAR5,#FSL18           ; |270| 
         0000032b 009A 
    1716 0000032c 7640!         LCR       #_global_strcpy       ; |270| 
         0000032d 0000 
    1717                      ; call occurs [#_global_strcpy] ; |270| 
    1718 0000032e 6F10          B         L40,UNC               ; |270| 
    1719                      ; branch occurs ; |270| 
    1720              L38:    
    1721                      .dwpsn  "app_WIRmod_fun.c",271,15
    1722 0000032f 5262          CMPB      AL,#98                ; |271| 
    1723 00000330 ED07          BF        L39,NEQ               ; |271| 
    1724                      ; branchcc occurs ; |271| 
    1725                      .dwpsn  "app_WIRmod_fun.c",271,28
    1726 00000331 8A44          MOVL      XAR4,*-SP[4]          ; |271| 
    1727 00000332 8F40+         MOVL      XAR5,#FSL20           ; |271| 
         00000333 00A2 
    1728 00000334 7640!         LCR       #_global_strcpy       ; |271| 
         00000335 0000 
    1729                      ; call occurs [#_global_strcpy] ; |271| 
    1730 00000336 6F08          B         L40,UNC               ; |271| 
    1731                      ; branch occurs ; |271| 
    1732              L39:    
    1733                      .dwpsn  "app_WIRmod_fun.c",272,15
    1734 00000337 5263          CMPB      AL,#99                ; |272| 
    1735 00000338 ED06          BF        L40,NEQ               ; |272| 
    1736                      ; branchcc occurs ; |272| 
    1737                      .dwpsn  "app_WIRmod_fun.c",272,28
    1738 00000339 8A44          MOVL      XAR4,*-SP[4]          ; |272| 
    1739 0000033a 8F40+         MOVL      XAR5,#FSL22           ; |272| 
TMS320C2000 COFF Assembler PC v4.1.3 Thu Sep 15 15:05:07 2011

Tools Copyright (c) 1996-2006 Texas Instruments Incorporated
C:\DOCUME~1\ADMINI~1\LOCALS~1\Temp\TI4802                            PAGE   36

         0000033b 00AA 
    1740 0000033c 7640!         LCR       #_global_strcpy       ; |272| 
         0000033d 0000 
    1741                      ; call occurs [#_global_strcpy] ; |272| 
    1742                      .dwpsn  "app_WIRmod_fun.c",274,9
    1743              L40:    
    1744                      .dwpsn  "app_WIRmod_fun.c",275,1
    1745 0000033e FE86          SUBB      SP,#6
    1746                      .dwcfa  0x1d, -2
    1747 0000033f 0006          LRETR
    1748                      ; return occurs
    1749                      .dwattr DW$139, DW_AT_end_file("app_WIRmod_fun.c")
    1750                      .dwattr DW$139, DW_AT_end_line(0x113)
    1751                      .dwattr DW$139, DW_AT_end_column(0x01)
    1752                      .dwendentry
    1753                      .dwendtag DW$139
    1754              
    1755 00000340               .sect   ".text"
    1756                      .global _app_WIRmod_icon_load
    1757              
    1758              DW$146  .dwtag  DW_TAG_subprogram, DW_AT_name("app_WIRmod_icon_load"), DW_AT_symbol_name("_app_WIRmod_icon_lo
    1759                      .dwattr DW$146, DW_AT_low_pc(_app_WIRmod_icon_load)
    1760                      .dwattr DW$146, DW_AT_high_pc(0x00)
    1761                      .dwattr DW$146, DW_AT_begin_file("app_WIRmod_fun.c")
    1762                      .dwattr DW$146, DW_AT_begin_line(0x114)
    1763                      .dwattr DW$146, DW_AT_begin_column(0x06)
    1764                      .dwpsn  "app_WIRmod_fun.c",277,1
    1765              
    1766                      .dwfde DW$CIE
    1767              
    1768              ;***************************************************************
    1769              ;* FNAME: _app_WIRmod_icon_load         FR SIZE:  10           *
    1770              ;*                                                             *
    1771              ;* FUNCTION ENVIRONMENT                                        *
    1772              ;*                                                             *
    1773              ;* FUNCTION PROPERTIES                                         *
    1774              ;*                            0 Parameter,  9 Auto,  0 SOE     *
    1775              ;***************************************************************
    1776              
    1777              _app_WIRmod_icon_load:
    1778                      .dwcfa  0x1d, -2
    1779                      .dwcfa  0x1c, 26, 0
    1780                      .dwcfa  0x09, 40, 26
    1781 00000340 FE0A          ADDB      SP,#10
    1782                      .dwcfa  0x1d, -12
    1783              ;* AR4   assigned to _picon
    1784              DW$147  .dwtag  DW_TAG_formal_parameter, DW_AT_name("picon"), DW_AT_symbol_name("_picon")
    1785                      .dwattr DW$147, DW_AT_type(*DW$T$52)
    1786                      .dwattr DW$147, DW_AT_location[DW_OP_reg12]
    1787              ;* AR5   assigned to _pwir
    1788              DW$148  .dwtag  DW_TAG_formal_parameter, DW_AT_name("pwir"), DW_AT_symbol_name("_pwir")
    1789                      .dwattr DW$148, DW_AT_type(*DW$T$87)
    1790                      .dwattr DW$148, DW_AT_location[DW_OP_reg14]
    1791              ;* AL    assigned to _flag
    1792              DW$149  .dwtag  DW_TAG_formal_parameter, DW_AT_name("flag"), DW_AT_symbol_name("_flag")
TMS320C2000 COFF Assembler PC v4.1.3 Thu Sep 15 15:05:07 2011

Tools Copyright (c) 1996-2006 Texas Instruments Incorporated
C:\DOCUME~1\ADMINI~1\LOCALS~1\Temp\TI4802                            PAGE   37

    1793                      .dwattr DW$149, DW_AT_type(*DW$T$6)
    1794                      .dwattr DW$149, DW_AT_location[DW_OP_reg0]
    1795              DW$150  .dwtag  DW_TAG_variable, DW_AT_name("picon"), DW_AT_symbol_name("_picon")
    1796                      .dwattr DW$150, DW_AT_type(*DW$T$52)
    1797                      .dwattr DW$150, DW_AT_location[DW_OP_breg20 -2]
    1798              DW$151  .dwtag  DW_TAG_variable, DW_AT_name("pwir"), DW_AT_symbol_name("_pwir")
    1799                      .dwattr DW$151, DW_AT_type(*DW$T$87)
    1800                      .dwattr DW$151, DW_AT_location[DW_OP_breg20 -4]
    1801              DW$152  .dwtag  DW_TAG_variable, DW_AT_name("flag"), DW_AT_symbol_name("_flag")
    1802                      .dwattr DW$152, DW_AT_type(*DW$T$6)
    1803                      .dwattr DW$152, DW_AT_location[DW_OP_breg20 -5]
    1804              DW$153  .dwtag  DW_TAG_variable, DW_AT_name("buf"), DW_AT_symbol_name("_buf")
    1805                      .dwattr DW$153, DW_AT_type(*DW$T$49)
    1806                      .dwattr DW$153, DW_AT_location[DW_OP_breg20 -9]
    1807 00000341 9645          MOV       *-SP[5],AL            ; |277| 
    1808 00000342 A044          MOVL      *-SP[4],XAR5          ; |277| 
    1809 00000343 A842          MOVL      *-SP[2],XAR4          ; |277| 
    1810                      .dwpsn  "app_WIRmod_fun.c",278,13
    1811 00000344 5CAD          MOVZ      AR4,SP                ; |278| 
    1812 00000345 76C0+         MOVL      XAR7,#_$T0$1          ; |278| 
         00000346 0000 
    1813 00000347 DC89          SUBB      XAR4,#9               ; |278| 
    1814 00000348 F603          RPT       #3
    1815 00000349 2484  ||     PREAD     *XAR4++,*XAR7         ; |278| 
    1816                      .dwpsn  "app_WIRmod_fun.c",279,8
    1817 0000034a 9245          MOV       AL,*-SP[5]            ; |279| 
    1818 0000034b ED3F          BF        L44,NEQ               ; |279| 
    1819                      ; branchcc occurs ; |279| 
    1820                      .dwpsn  "app_WIRmod_fun.c",281,13
    1821 0000034c 9A2B          MOVB      AL,#43                ; |281| 
    1822 0000034d 761F-         MOVW      DP,#_m_WIRmod_I_polarity
         0000034e 0000 
    1823 0000034f 9604-         MOV       @_m_WIRmod_I_polarity,AL ; |281| 
    1824                      .dwpsn  "app_WIRmod_fun.c",282,8
    1825 00000350 9605-         MOV       @_m_WIRmod_I_polarity+1,AL ; |282| 
    1826                      .dwpsn  "app_WIRmod_fun.c",283,13
    1827 00000351 9606-         MOV       @_m_WIRmod_I_polarity+2,AL ; |283| 
    1828                      .dwpsn  "app_WIRmod_fun.c",284,13
    1829 00000352 8A44          MOVL      XAR4,*-SP[4]          ; |284| 
    1830 00000353 D009          MOVB      XAR0,#9               ; |284| 
    1831 00000354 9294          MOV       AL,*+XAR4[AR0]        ; |284| 
    1832 00000355 522D          CMPB      AL,#45                ; |284| 
    1833 00000356 ED03          BF        L41,NEQ               ; |284| 
    1834                      ; branchcc occurs ; |284| 
    1835                      .dwpsn  "app_WIRmod_fun.c",285,3
    1836 00000357 2804-         MOV       @_m_WIRmod_I_polarity,#45 ; |285| 
         00000358 002D 
    1837              L41:    
    1838                      .dwpsn  "app_WIRmod_fun.c",286,13
    1839 00000359 8A44          MOVL      XAR4,*-SP[4]          ; |286| 
    1840 0000035a D00D          MOVB      XAR0,#13              ; |286| 
    1841 0000035b 9294          MOV       AL,*+XAR4[AR0]        ; |286| 
    1842 0000035c 522D          CMPB      AL,#45                ; |286| 
    1843 0000035d ED03          BF        L42,NEQ               ; |286| 
    1844                      ; branchcc occurs ; |286| 
TMS320C2000 COFF Assembler PC v4.1.3 Thu Sep 15 15:05:07 2011

Tools Copyright (c) 1996-2006 Texas Instruments Incorporated
C:\DOCUME~1\ADMINI~1\LOCALS~1\Temp\TI4802                            PAGE   38

    1845                      .dwpsn  "app_WIRmod_fun.c",287,3
    1846 0000035e 2805-         MOV       @_m_WIRmod_I_polarity+1,#45 ; |287| 
         0000035f 002D 
    1847              L42:    
    1848                      .dwpsn  "app_WIRmod_fun.c",288,13
    1849 00000360 8A44          MOVL      XAR4,*-SP[4]          ; |288| 
    1850 00000361 D011          MOVB      XAR0,#17              ; |288| 
    1851 00000362 9294          MOV       AL,*+XAR4[AR0]        ; |288| 
    1852 00000363 522D          CMPB      AL,#45                ; |288| 
    1853 00000364 ED03          BF        L43,NEQ               ; |288| 
    1854                      ; branchcc occurs ; |288| 
    1855                      .dwpsn  "app_WIRmod_fun.c",289,3
    1856 00000365 2806-         MOV       @_m_WIRmod_I_polarity+2,#45 ; |289| 
         00000366 002D 
    1857              L43:    
    1858                      .dwpsn  "app_WIRmod_fun.c",290,13
    1859 00000367 8342          MOVL      XAR5,*-SP[2]          ; |290| 
    1860 00000368 8A44          MOVL      XAR4,*-SP[4]          ; |290| 
    1861 00000369 7640'         LCR       #_app_WIRmod_icon_mod ; |290| 
         0000036a 0294 
    1862                      ; call occurs [#_app_WIRmod_icon_mod] ; |290| 
    1863                      .dwpsn  "app_WIRmod_fun.c",291,13
    1864 0000036b 8342          MOVL      XAR5,*-SP[2]          ; |291| 
    1865 0000036c 8A44          MOVL      XAR4,*-SP[4]          ; |291| 
    1866 0000036d DD01          ADDB      XAR5,#1               ; |291| 
    1867 0000036e DC03          ADDB      XAR4,#3               ; |291| 
    1868 0000036f 7640'         LCR       #_app_WIRmod_icon_mod ; |291| 
         00000370 0294 
    1869                      ; call occurs [#_app_WIRmod_icon_mod] ; |291| 
    1870                      .dwpsn  "app_WIRmod_fun.c",292,13
    1871 00000371 8342          MOVL      XAR5,*-SP[2]          ; |292| 
    1872 00000372 8A44          MOVL      XAR4,*-SP[4]          ; |292| 
    1873 00000373 DD02          ADDB      XAR5,#2               ; |292| 
    1874 00000374 DC06          ADDB      XAR4,#6               ; |292| 
    1875 00000375 7640'         LCR       #_app_WIRmod_icon_mod ; |292| 
         00000376 0294 
    1876                      ; call occurs [#_app_WIRmod_icon_mod] ; |292| 
    1877                      .dwpsn  "app_WIRmod_fun.c",293,13
    1878 00000377 8342          MOVL      XAR5,*-SP[2]          ; |293| 
    1879 00000378 8A44          MOVL      XAR4,*-SP[4]          ; |293| 
    1880 00000379 DD03          ADDB      XAR5,#3               ; |293| 
    1881 0000037a DC09          ADDB      XAR4,#9               ; |293| 
    1882 0000037b 7640'         LCR       #_app_WIRmod_icon_mod ; |293| 
         0000037c 0294 
    1883                      ; call occurs [#_app_WIRmod_icon_mod] ; |293| 
    1884                      .dwpsn  "app_WIRmod_fun.c",294,13
    1885 0000037d 8342          MOVL      XAR5,*-SP[2]          ; |294| 
    1886 0000037e 8A44          MOVL      XAR4,*-SP[4]          ; |294| 
    1887 0000037f DD04          ADDB      XAR5,#4               ; |294| 
    1888 00000380 DC0D          ADDB      XAR4,#13              ; |294| 
    1889 00000381 7640'         LCR       #_app_WIRmod_icon_mod ; |294| 
         00000382 0294 
    1890                      ; call occurs [#_app_WIRmod_icon_mod] ; |294| 
    1891                      .dwpsn  "app_WIRmod_fun.c",295,13
    1892 00000383 8342          MOVL      XAR5,*-SP[2]          ; |295| 
TMS320C2000 COFF Assembler PC v4.1.3 Thu Sep 15 15:05:07 2011

Tools Copyright (c) 1996-2006 Texas Instruments Incorporated
C:\DOCUME~1\ADMINI~1\LOCALS~1\Temp\TI4802                            PAGE   39

    1893 00000384 8A44          MOVL      XAR4,*-SP[4]          ; |295| 
    1894 00000385 DD05          ADDB      XAR5,#5               ; |295| 
    1895 00000386 DC11          ADDB      XAR4,#17              ; |295| 
    1896 00000387 7640'         LCR       #_app_WIRmod_icon_mod ; |295| 
         00000388 0294 
    1897                      ; call occurs [#_app_WIRmod_icon_mod] ; |295| 
    1898                      .dwpsn  "app_WIRmod_fun.c",297,2
    1899 00000389 6F7A          B         L47,UNC               ; |297| 
    1900                      ; branch occurs ; |297| 
    1901              L44:    
    1902                      .dwpsn  "app_WIRmod_fun.c",298,12
    1903 0000038a 5201          CMPB      AL,#1                 ; |298| 
    1904 0000038b ED78          BF        L47,NEQ               ; |298| 
    1905                      ; branchcc occurs ; |298| 
    1906                      .dwpsn  "app_WIRmod_fun.c",300,3
    1907 0000038c 8A42          MOVL      XAR4,*-SP[2]          ; |300| 
    1908 0000038d 92C4          MOV       AL,*+XAR4[0]          ; |300| 
    1909 0000038e 8A44          MOVL      XAR4,*-SP[4]          ; |300| 
    1910 0000038f 9B55          MOVB      AH,#85                ; |300| 
    1911 00000390 7640'         LCR       #_app_WIRmod_pwir_mod ; |300| 
         00000391 0304 
    1912                      ; call occurs [#_app_WIRmod_pwir_mod] ; |300| 
    1913                      .dwpsn  "app_WIRmod_fun.c",301,3
    1914 00000392 8A42          MOVL      XAR4,*-SP[2]          ; |301| 
    1915 00000393 92CC          MOV       AL,*+XAR4[1]          ; |301| 
    1916 00000394 8A44          MOVL      XAR4,*-SP[4]          ; |301| 
    1917 00000395 9B55          MOVB      AH,#85                ; |301| 
    1918 00000396 DC03          ADDB      XAR4,#3               ; |301| 
    1919 00000397 7640'         LCR       #_app_WIRmod_pwir_mod ; |301| 
         00000398 0304 
    1920                      ; call occurs [#_app_WIRmod_pwir_mod] ; |301| 
    1921                      .dwpsn  "app_WIRmod_fun.c",302,3
    1922 00000399 8A42          MOVL      XAR4,*-SP[2]          ; |302| 
    1923 0000039a 92D4          MOV       AL,*+XAR4[2]          ; |302| 
    1924 0000039b 8A44          MOVL      XAR4,*-SP[4]          ; |302| 
    1925 0000039c 9B55          MOVB      AH,#85                ; |302| 
    1926 0000039d DC06          ADDB      XAR4,#6               ; |302| 
    1927 0000039e 7640'         LCR       #_app_WIRmod_pwir_mod ; |302| 
         0000039f 0304 
    1928                      ; call occurs [#_app_WIRmod_pwir_mod] ; |302| 
    1929                      .dwpsn  "app_WIRmod_fun.c",303,3
    1930 000003a0 8A42          MOVL      XAR4,*-SP[2]          ; |303| 
    1931 000003a1 92DC          MOV       AL,*+XAR4[3]          ; |303| 
    1932 000003a2 8A44          MOVL      XAR4,*-SP[4]          ; |303| 
    1933 000003a3 9B49          MOVB      AH,#73                ; |303| 
    1934 000003a4 DC09          ADDB      XAR4,#9               ; |303| 
    1935 000003a5 7640'         LCR       #_app_WIRmod_pwir_mod ; |303| 
         000003a6 0304 
    1936                      ; call occurs [#_app_WIRmod_pwir_mod] ; |303| 
    1937                      .dwpsn  "app_WIRmod_fun.c",304,3
    1938 000003a7 8A42          MOVL      XAR4,*-SP[2]          ; |304| 
    1939 000003a8 92E4          MOV       AL,*+XAR4[4]          ; |304| 
    1940 000003a9 8A44          MOVL      XAR4,*-SP[4]          ; |304| 
    1941 000003aa 9B49          MOVB      AH,#73                ; |304| 
    1942 000003ab DC0D          ADDB      XAR4,#13              ; |304| 
TMS320C2000 COFF Assembler PC v4.1.3 Thu Sep 15 15:05:07 2011

Tools Copyright (c) 1996-2006 Texas Instruments Incorporated
C:\DOCUME~1\ADMINI~1\LOCALS~1\Temp\TI4802                            PAGE   40

    1943 000003ac 7640'         LCR       #_app_WIRmod_pwir_mod ; |304| 
         000003ad 0304 
    1944                      ; call occurs [#_app_WIRmod_pwir_mod] ; |304| 
    1945                      .dwpsn  "app_WIRmod_fun.c",305,3
    1946 000003ae 8A42          MOVL      XAR4,*-SP[2]          ; |305| 
    1947 000003af 92EC          MOV       AL,*+XAR4[5]          ; |305| 
    1948 000003b0 8A44          MOVL      XAR4,*-SP[4]          ; |305| 
    1949 000003b1 9B49          MOVB      AH,#73                ; |305| 
    1950 000003b2 DC11          ADDB      XAR4,#17              ; |305| 
    1951 000003b3 7640'         LCR       #_app_WIRmod_pwir_mod ; |305| 
         000003b4 0304 
    1952                      ; call occurs [#_app_WIRmod_pwir_mod] ; |305| 
    1953                      .dwpsn  "app_WIRmod_fun.c",306,3
    1954 000003b5 761F-         MOVW      DP,#_m_WIRmod_I_polarity
         000003b6 0000 
    1955 000003b7 9204-         MOV       AL,@_m_WIRmod_I_polarity ; |306| 
    1956 000003b8 522D          CMPB      AL,#45                ; |306| 
    1957 000003b9 ED16          BF        L45,NEQ               ; |306| 
    1958                      ; branchcc occurs ; |306| 
    1959                      .dwpsn  "app_WIRmod_fun.c",308,8
    1960 000003ba 5CAD          MOVZ      AR4,SP                ; |308| 
    1961 000003bb 9A00          MOVB      AL,#0
    1962 000003bc 9B04          MOVB      AH,#4                 ; |308| 
    1963 000003bd DC89          SUBB      XAR4,#9               ; |308| 
    1964 000003be 7640!         LCR       #_global_memset       ; |308| 
         000003bf 0000 
    1965                      ; call occurs [#_global_memset] ; |308| 
    1966                      .dwpsn  "app_WIRmod_fun.c",309,8
    1967 000003c0 2849          MOV       *-SP[9],#45           ; |309| 
         000003c1 002D 
    1968                      .dwpsn  "app_WIRmod_fun.c",310,8
    1969 000003c2 5CAD          MOVZ      AR4,SP                ; |310| 
    1970 000003c3 8344          MOVL      XAR5,*-SP[4]          ; |310| 
    1971 000003c4 DC89          SUBB      XAR4,#9               ; |310| 
    1972 000003c5 DD09          ADDB      XAR5,#9               ; |310| 
    1973 000003c6 7640!         LCR       #_global_strcat       ; |310| 
         000003c7 0000 
    1974                      ; call occurs [#_global_strcat] ; |310| 
    1975                      .dwpsn  "app_WIRmod_fun.c",311,8
    1976 000003c8 5DAD          MOVZ      AR5,SP                ; |311| 
    1977 000003c9 8A44          MOVL      XAR4,*-SP[4]          ; |311| 
    1978 000003ca 9A03          MOVB      AL,#3                 ; |311| 
    1979 000003cb DD89          SUBB      XAR5,#9               ; |311| 
    1980 000003cc DC09          ADDB      XAR4,#9               ; |311| 
    1981 000003cd 7640!         LCR       #_global_memcpy       ; |311| 
         000003ce 0000 
    1982                      ; call occurs [#_global_memcpy] ; |311| 
    1983              L45:    
    1984                      .dwpsn  "app_WIRmod_fun.c",313,3
    1985 000003cf 761F-         MOVW      DP,#_m_WIRmod_I_polarity+1
         000003d0 0000 
    1986 000003d1 9205-         MOV       AL,@_m_WIRmod_I_polarity+1 ; |313| 
    1987 000003d2 522D          CMPB      AL,#45                ; |313| 
    1988 000003d3 ED16          BF        L46,NEQ               ; |313| 
    1989                      ; branchcc occurs ; |313| 
TMS320C2000 COFF Assembler PC v4.1.3 Thu Sep 15 15:05:07 2011

Tools Copyright (c) 1996-2006 Texas Instruments Incorporated
C:\DOCUME~1\ADMINI~1\LOCALS~1\Temp\TI4802                            PAGE   41

    1990                      .dwpsn  "app_WIRmod_fun.c",315,8
    1991 000003d4 5CAD          MOVZ      AR4,SP                ; |315| 
    1992 000003d5 9A00          MOVB      AL,#0
    1993 000003d6 9B04          MOVB      AH,#4                 ; |315| 
    1994 000003d7 DC89          SUBB      XAR4,#9               ; |315| 
    1995 000003d8 7640!         LCR       #_global_memset       ; |315| 
         000003d9 0000 
    1996                      ; call occurs [#_global_memset] ; |315| 
    1997                      .dwpsn  "app_WIRmod_fun.c",316,8
    1998 000003da 2849          MOV       *-SP[9],#45           ; |316| 
         000003db 002D 
    1999                      .dwpsn  "app_WIRmod_fun.c",317,8
    2000 000003dc 5CAD          MOVZ      AR4,SP                ; |317| 
    2001 000003dd 8344          MOVL      XAR5,*-SP[4]          ; |317| 
    2002 000003de DC89          SUBB      XAR4,#9               ; |317| 
    2003 000003df DD0D          ADDB      XAR5,#13              ; |317| 
    2004 000003e0 7640!         LCR       #_global_strcat       ; |317| 
         000003e1 0000 
    2005                      ; call occurs [#_global_strcat] ; |317| 
    2006                      .dwpsn  "app_WIRmod_fun.c",318,8
    2007 000003e2 5DAD          MOVZ      AR5,SP                ; |318| 
    2008 000003e3 8A44          MOVL      XAR4,*-SP[4]          ; |318| 
    2009 000003e4 9A03          MOVB      AL,#3                 ; |318| 
    2010 000003e5 DD89          SUBB      XAR5,#9               ; |318| 
    2011 000003e6 DC0D          ADDB      XAR4,#13              ; |318| 
    2012 000003e7 7640!         LCR       #_global_memcpy       ; |318| 
         000003e8 0000 
    2013                      ; call occurs [#_global_memcpy] ; |318| 
    2014              L46:    
    2015                      .dwpsn  "app_WIRmod_fun.c",320,3
    2016 000003e9 761F-         MOVW      DP,#_m_WIRmod_I_polarity+2
         000003ea 0000 
    2017 000003eb 9206-         MOV       AL,@_m_WIRmod_I_polarity+2 ; |320| 
    2018 000003ec 522D          CMPB      AL,#45                ; |320| 
    2019 000003ed ED16          BF        L47,NEQ               ; |320| 
    2020                      ; branchcc occurs ; |320| 
    2021                      .dwpsn  "app_WIRmod_fun.c",322,8
    2022 000003ee 5CAD          MOVZ      AR4,SP                ; |322| 
    2023 000003ef 9A00          MOVB      AL,#0
    2024 000003f0 9B04          MOVB      AH,#4                 ; |322| 
    2025 000003f1 DC89          SUBB      XAR4,#9               ; |322| 
    2026 000003f2 7640!         LCR       #_global_memset       ; |322| 
         000003f3 0000 
    2027                      ; call occurs [#_global_memset] ; |322| 
    2028                      .dwpsn  "app_WIRmod_fun.c",323,8
    2029 000003f4 2849          MOV       *-SP[9],#45           ; |323| 
         000003f5 002D 
    2030                      .dwpsn  "app_WIRmod_fun.c",324,8
    2031 000003f6 5CAD          MOVZ      AR4,SP                ; |324| 
    2032 000003f7 8344          MOVL      XAR5,*-SP[4]          ; |324| 
    2033 000003f8 DC89          SUBB      XAR4,#9               ; |324| 
    2034 000003f9 DD11          ADDB      XAR5,#17              ; |324| 
    2035 000003fa 7640!         LCR       #_global_strcat       ; |324| 
         000003fb 0000 
    2036                      ; call occurs [#_global_strcat] ; |324| 
TMS320C2000 COFF Assembler PC v4.1.3 Thu Sep 15 15:05:07 2011

Tools Copyright (c) 1996-2006 Texas Instruments Incorporated
C:\DOCUME~1\ADMINI~1\LOCALS~1\Temp\TI4802                            PAGE   42

    2037                      .dwpsn  "app_WIRmod_fun.c",325,8
    2038 000003fc 5DAD          MOVZ      AR5,SP                ; |325| 
    2039 000003fd 8A44          MOVL      XAR4,*-SP[4]          ; |325| 
    2040 000003fe 9A03          MOVB      AL,#3                 ; |325| 
    2041 000003ff DD89          SUBB      XAR5,#9               ; |325| 
    2042 00000400 DC11          ADDB      XAR4,#17              ; |325| 
    2043 00000401 7640!         LCR       #_global_memcpy       ; |325| 
         00000402 0000 
    2044                      ; call occurs [#_global_memcpy] ; |325| 
    2045                      .dwpsn  "app_WIRmod_fun.c",328,6
    2046              L47:    
    2047                      .dwpsn  "app_WIRmod_fun.c",329,1
    2048 00000403 FE8A          SUBB      SP,#10
    2049                      .dwcfa  0x1d, -2
    2050 00000404 0006          LRETR
    2051                      ; return occurs
    2052                      .dwattr DW$146, DW_AT_end_file("app_WIRmod_fun.c")
    2053                      .dwattr DW$146, DW_AT_end_line(0x149)
    2054                      .dwattr DW$146, DW_AT_end_column(0x01)
    2055                      .dwendentry
    2056                      .dwendtag DW$146
    2057              
    2058 00000405               .sect   ".text"
    2059                      .global _app_WIRmod_rank_mod
    2060              
    2061              DW$154  .dwtag  DW_TAG_subprogram, DW_AT_name("app_WIRmod_rank_mod"), DW_AT_symbol_name("_app_WIRmod_rank_mod
    2062                      .dwattr DW$154, DW_AT_low_pc(_app_WIRmod_rank_mod)
    2063                      .dwattr DW$154, DW_AT_high_pc(0x00)
    2064                      .dwattr DW$154, DW_AT_begin_file("app_WIRmod_fun.c")
    2065                      .dwattr DW$154, DW_AT_begin_line(0x152)
    2066                      .dwattr DW$154, DW_AT_begin_column(0x06)
    2067                      .dwpsn  "app_WIRmod_fun.c",339,1
    2068              
    2069                      .dwfde DW$CIE
    2070              
    2071              ;***************************************************************
    2072              ;* FNAME: _app_WIRmod_rank_mod          FR SIZE:   4           *
    2073              ;*                                                             *
    2074              ;* FUNCTION ENVIRONMENT                                        *
    2075              ;*                                                             *
    2076              ;* FUNCTION PROPERTIES                                         *
    2077              ;*                            0 Parameter,  4 Auto,  0 SOE     *
    2078              ;***************************************************************
    2079              
    2080              _app_WIRmod_rank_mod:
    2081                      .dwcfa  0x1d, -2
    2082                      .dwcfa  0x1c, 26, 0
    2083                      .dwcfa  0x09, 40, 26
    2084 00000405 FE04          ADDB      SP,#4
    2085                      .dwcfa  0x1d, -6
    2086              ;* AR4   assigned to _picon1
    2087              DW$155  .dwtag  DW_TAG_formal_parameter, DW_AT_name("picon1"), DW_AT_symbol_name("_picon1")
    2088                      .dwattr DW$155, DW_AT_type(*DW$T$52)
    2089                      .dwattr DW$155, DW_AT_location[DW_OP_reg12]
    2090              ;* AR5   assigned to _picon2
TMS320C2000 COFF Assembler PC v4.1.3 Thu Sep 15 15:05:07 2011

Tools Copyright (c) 1996-2006 Texas Instruments Incorporated
C:\DOCUME~1\ADMINI~1\LOCALS~1\Temp\TI4802                            PAGE   43

    2091              DW$156  .dwtag  DW_TAG_formal_parameter, DW_AT_name("picon2"), DW_AT_symbol_name("_picon2")
    2092                      .dwattr DW$156, DW_AT_type(*DW$T$52)
    2093                      .dwattr DW$156, DW_AT_location[DW_OP_reg14]
    2094              DW$157  .dwtag  DW_TAG_variable, DW_AT_name("picon1"), DW_AT_symbol_name("_picon1")
    2095                      .dwattr DW$157, DW_AT_type(*DW$T$52)
    2096                      .dwattr DW$157, DW_AT_location[DW_OP_breg20 -2]
    2097              DW$158  .dwtag  DW_TAG_variable, DW_AT_name("picon2"), DW_AT_symbol_name("_picon2")
    2098                      .dwattr DW$158, DW_AT_type(*DW$T$52)
    2099                      .dwattr DW$158, DW_AT_location[DW_OP_breg20 -4]
    2100 00000406 A044          MOVL      *-SP[4],XAR5          ; |339| 
    2101 00000407 A842          MOVL      *-SP[2],XAR4          ; |339| 
    2102                      .dwpsn  "app_WIRmod_fun.c",340,6
    2103 00000408 8A42          MOVL      XAR4,*-SP[2]          ; |340| 
    2104 00000409 92C4          MOV       AL,*+XAR4[0]          ; |340| 
    2105 0000040a 5261          CMPB      AL,#97                ; |340| 
    2106 0000040b ED05          BF        L48,NEQ               ; |340| 
    2107                      ; branchcc occurs ; |340| 
    2108                      .dwpsn  "app_WIRmod_fun.c",342,3
    2109 0000040c 8A44          MOVL      XAR4,*-SP[4]          ; |342| 
    2110 0000040d 28C4          MOV       *+XAR4[0],#97         ; |342| 
         0000040e 0061 
    2111                      .dwpsn  "app_WIRmod_fun.c",343,6
    2112 0000040f 6F10          B         L50,UNC               ; |343| 
    2113                      ; branch occurs ; |343| 
    2114              L48:    
    2115                      .dwpsn  "app_WIRmod_fun.c",344,11
    2116 00000410 8A42          MOVL      XAR4,*-SP[2]          ; |344| 
    2117 00000411 92C4          MOV       AL,*+XAR4[0]          ; |344| 
    2118 00000412 5262          CMPB      AL,#98                ; |344| 
    2119 00000413 ED05          BF        L49,NEQ               ; |344| 
    2120                      ; branchcc occurs ; |344| 
    2121                      .dwpsn  "app_WIRmod_fun.c",346,3
    2122 00000414 8A44          MOVL      XAR4,*-SP[4]          ; |346| 
    2123 00000415 28CC          MOV       *+XAR4[1],#97         ; |346| 
         00000416 0061 
    2124                      .dwpsn  "app_WIRmod_fun.c",347,6
    2125 00000417 6F08          B         L50,UNC               ; |347| 
    2126                      ; branch occurs ; |347| 
    2127              L49:    
    2128                      .dwpsn  "app_WIRmod_fun.c",348,11
    2129 00000418 8A42          MOVL      XAR4,*-SP[2]          ; |348| 
    2130 00000419 92C4          MOV       AL,*+XAR4[0]          ; |348| 
    2131 0000041a 5263          CMPB      AL,#99                ; |348| 
    2132 0000041b ED04          BF        L50,NEQ               ; |348| 
    2133                      ; branchcc occurs ; |348| 
    2134                      .dwpsn  "app_WIRmod_fun.c",350,3
    2135 0000041c 8A44          MOVL      XAR4,*-SP[4]          ; |350| 
    2136 0000041d 28D4          MOV       *+XAR4[2],#97         ; |350| 
         0000041e 0061 
    2137              L50:    
    2138                      .dwpsn  "app_WIRmod_fun.c",352,6
    2139 0000041f 8A42          MOVL      XAR4,*-SP[2]          ; |352| 
    2140 00000420 92CC          MOV       AL,*+XAR4[1]          ; |352| 
    2141 00000421 5261          CMPB      AL,#97                ; |352| 
    2142 00000422 ED05          BF        L51,NEQ               ; |352| 
TMS320C2000 COFF Assembler PC v4.1.3 Thu Sep 15 15:05:07 2011

Tools Copyright (c) 1996-2006 Texas Instruments Incorporated
C:\DOCUME~1\ADMINI~1\LOCALS~1\Temp\TI4802                            PAGE   44

    2143                      ; branchcc occurs ; |352| 
    2144                      .dwpsn  "app_WIRmod_fun.c",354,3
    2145 00000423 8A44          MOVL      XAR4,*-SP[4]          ; |354| 
    2146 00000424 28C4          MOV       *+XAR4[0],#98         ; |354| 
         00000425 0062 
    2147                      .dwpsn  "app_WIRmod_fun.c",355,6
    2148 00000426 6F10          B         L53,UNC               ; |355| 
    2149                      ; branch occurs ; |355| 
    2150              L51:    
    2151                      .dwpsn  "app_WIRmod_fun.c",356,11
    2152 00000427 8A42          MOVL      XAR4,*-SP[2]          ; |356| 
    2153 00000428 92CC          MOV       AL,*+XAR4[1]          ; |356| 
    2154 00000429 5262          CMPB      AL,#98                ; |356| 
    2155 0000042a ED05          BF        L52,NEQ               ; |356| 
    2156                      ; branchcc occurs ; |356| 
    2157                      .dwpsn  "app_WIRmod_fun.c",358,3
    2158 0000042b 8A44          MOVL      XAR4,*-SP[4]          ; |358| 
    2159 0000042c 28CC          MOV       *+XAR4[1],#98         ; |358| 
         0000042d 0062 
    2160                      .dwpsn  "app_WIRmod_fun.c",359,6
    2161 0000042e 6F08          B         L53,UNC               ; |359| 
    2162                      ; branch occurs ; |359| 
    2163              L52:    
    2164                      .dwpsn  "app_WIRmod_fun.c",360,11
    2165 0000042f 8A42          MOVL      XAR4,*-SP[2]          ; |360| 
    2166 00000430 92CC          MOV       AL,*+XAR4[1]          ; |360| 
    2167 00000431 5263          CMPB      AL,#99                ; |360| 
    2168 00000432 ED04          BF        L53,NEQ               ; |360| 
    2169                      ; branchcc occurs ; |360| 
    2170                      .dwpsn  "app_WIRmod_fun.c",362,3
    2171 00000433 8A44          MOVL      XAR4,*-SP[4]          ; |362| 
    2172 00000434 28D4          MOV       *+XAR4[2],#98         ; |362| 
         00000435 0062 
    2173              L53:    
    2174                      .dwpsn  "app_WIRmod_fun.c",365,6
    2175 00000436 8A42          MOVL      XAR4,*-SP[2]          ; |365| 
    2176 00000437 92D4          MOV       AL,*+XAR4[2]          ; |365| 
    2177 00000438 5261          CMPB      AL,#97                ; |365| 
    2178 00000439 ED05          BF        L54,NEQ               ; |365| 
    2179                      ; branchcc occurs ; |365| 
    2180                      .dwpsn  "app_WIRmod_fun.c",367,3
    2181 0000043a 8A44          MOVL      XAR4,*-SP[4]          ; |367| 
    2182 0000043b 28C4          MOV       *+XAR4[0],#99         ; |367| 
         0000043c 0063 
    2183                      .dwpsn  "app_WIRmod_fun.c",368,6
    2184 0000043d 6F10          B         L56,UNC               ; |368| 
    2185                      ; branch occurs ; |368| 
    2186              L54:    
    2187                      .dwpsn  "app_WIRmod_fun.c",369,11
    2188 0000043e 8A42          MOVL      XAR4,*-SP[2]          ; |369| 
    2189 0000043f 92D4          MOV       AL,*+XAR4[2]          ; |369| 
    2190 00000440 5262          CMPB      AL,#98                ; |369| 
    2191 00000441 ED05          BF        L55,NEQ               ; |369| 
    2192                      ; branchcc occurs ; |369| 
    2193                      .dwpsn  "app_WIRmod_fun.c",371,3
TMS320C2000 COFF Assembler PC v4.1.3 Thu Sep 15 15:05:07 2011

Tools Copyright (c) 1996-2006 Texas Instruments Incorporated
C:\DOCUME~1\ADMINI~1\LOCALS~1\Temp\TI4802                            PAGE   45

    2194 00000442 8A44          MOVL      XAR4,*-SP[4]          ; |371| 
    2195 00000443 28CC          MOV       *+XAR4[1],#99         ; |371| 
         00000444 0063 
    2196                      .dwpsn  "app_WIRmod_fun.c",372,6
    2197 00000445 6F08          B         L56,UNC               ; |372| 
    2198                      ; branch occurs ; |372| 
    2199              L55:    
    2200                      .dwpsn  "app_WIRmod_fun.c",373,11
    2201 00000446 8A42          MOVL      XAR4,*-SP[2]          ; |373| 
    2202 00000447 92D4          MOV       AL,*+XAR4[2]          ; |373| 
    2203 00000448 5263          CMPB      AL,#99                ; |373| 
    2204 00000449 ED04          BF        L56,NEQ               ; |373| 
    2205                      ; branchcc occurs ; |373| 
    2206                      .dwpsn  "app_WIRmod_fun.c",375,3
    2207 0000044a 8A44          MOVL      XAR4,*-SP[4]          ; |375| 
    2208 0000044b 28D4          MOV       *+XAR4[2],#99         ; |375| 
         0000044c 0063 
    2209                      .dwpsn  "app_WIRmod_fun.c",377,6
    2210              L56:    
    2211                      .dwpsn  "app_WIRmod_fun.c",378,1
    2212 0000044d FE84          SUBB      SP,#4
    2213                      .dwcfa  0x1d, -2
    2214 0000044e 0006          LRETR
    2215                      ; return occurs
    2216                      .dwattr DW$154, DW_AT_end_file("app_WIRmod_fun.c")
    2217                      .dwattr DW$154, DW_AT_end_line(0x17a)
    2218                      .dwattr DW$154, DW_AT_end_column(0x01)
    2219                      .dwendentry
    2220                      .dwendtag DW$154
    2221              
    2222 0000044f               .sect   ".text"
    2223                      .global _app_WIRmod_icon_shift
    2224              
    2225              DW$159  .dwtag  DW_TAG_subprogram, DW_AT_name("app_WIRmod_icon_shift"), DW_AT_symbol_name("_app_WIRmod_icon_s
    2226                      .dwattr DW$159, DW_AT_low_pc(_app_WIRmod_icon_shift)
    2227                      .dwattr DW$159, DW_AT_high_pc(0x00)
    2228                      .dwattr DW$159, DW_AT_begin_file("app_WIRmod_fun.c")
    2229                      .dwattr DW$159, DW_AT_begin_line(0x17b)
    2230                      .dwattr DW$159, DW_AT_begin_column(0x06)
    2231                      .dwpsn  "app_WIRmod_fun.c",380,1
    2232              
    2233                      .dwfde DW$CIE
    2234              
    2235              ;***************************************************************
    2236              ;* FNAME: _app_WIRmod_icon_shift        FR SIZE:   4           *
    2237              ;*                                                             *
    2238              ;* FUNCTION ENVIRONMENT                                        *
    2239              ;*                                                             *
    2240              ;* FUNCTION PROPERTIES                                         *
    2241              ;*                            0 Parameter,  4 Auto,  0 SOE     *
    2242              ;***************************************************************
    2243              
    2244              _app_WIRmod_icon_shift:
    2245                      .dwcfa  0x1d, -2
    2246                      .dwcfa  0x1c, 26, 0
TMS320C2000 COFF Assembler PC v4.1.3 Thu Sep 15 15:05:07 2011

Tools Copyright (c) 1996-2006 Texas Instruments Incorporated
C:\DOCUME~1\ADMINI~1\LOCALS~1\Temp\TI4802                            PAGE   46

    2247                      .dwcfa  0x09, 40, 26
    2248 0000044f FE04          ADDB      SP,#4
    2249                      .dwcfa  0x1d, -6
    2250              ;* AR4   assigned to _psrc
    2251              DW$160  .dwtag  DW_TAG_formal_parameter, DW_AT_name("psrc"), DW_AT_symbol_name("_psrc")
    2252                      .dwattr DW$160, DW_AT_type(*DW$T$52)
    2253                      .dwattr DW$160, DW_AT_location[DW_OP_reg12]
    2254              ;* AR5   assigned to _pdes
    2255              DW$161  .dwtag  DW_TAG_formal_parameter, DW_AT_name("pdes"), DW_AT_symbol_name("_pdes")
    2256                      .dwattr DW$161, DW_AT_type(*DW$T$52)
    2257                      .dwattr DW$161, DW_AT_location[DW_OP_reg14]
    2258              DW$162  .dwtag  DW_TAG_variable, DW_AT_name("psrc"), DW_AT_symbol_name("_psrc")
    2259                      .dwattr DW$162, DW_AT_type(*DW$T$52)
    2260                      .dwattr DW$162, DW_AT_location[DW_OP_breg20 -2]
    2261              DW$163  .dwtag  DW_TAG_variable, DW_AT_name("pdes"), DW_AT_symbol_name("_pdes")
    2262                      .dwattr DW$163, DW_AT_type(*DW$T$52)
    2263                      .dwattr DW$163, DW_AT_location[DW_OP_breg20 -4]
    2264 00000450 A044          MOVL      *-SP[4],XAR5          ; |380| 
    2265 00000451 A842          MOVL      *-SP[2],XAR4          ; |380| 
    2266                      .dwpsn  "app_WIRmod_fun.c",381,7
    2267 00000452 8A42          MOVL      XAR4,*-SP[2]          ; |381| 
    2268 00000453 92CC          MOV       AL,*+XAR4[1]          ; |381| 
    2269 00000454 8A44          MOVL      XAR4,*-SP[4]          ; |381| 
    2270 00000455 96C4          MOV       *+XAR4[0],AL          ; |381| 
    2271                      .dwpsn  "app_WIRmod_fun.c",382,7
    2272 00000456 8A42          MOVL      XAR4,*-SP[2]          ; |382| 
    2273 00000457 92D4          MOV       AL,*+XAR4[2]          ; |382| 
    2274 00000458 8A44          MOVL      XAR4,*-SP[4]          ; |382| 
    2275 00000459 96CC          MOV       *+XAR4[1],AL          ; |382| 
    2276                      .dwpsn  "app_WIRmod_fun.c",383,7
    2277 0000045a 8A42          MOVL      XAR4,*-SP[2]          ; |383| 
    2278 0000045b 92C4          MOV       AL,*+XAR4[0]          ; |383| 
    2279 0000045c 8A44          MOVL      XAR4,*-SP[4]          ; |383| 
    2280 0000045d 96D4          MOV       *+XAR4[2],AL          ; |383| 
    2281                      .dwpsn  "app_WIRmod_fun.c",384,7
    2282 0000045e 8A42          MOVL      XAR4,*-SP[2]          ; |384| 
    2283 0000045f 92E4          MOV       AL,*+XAR4[4]          ; |384| 
    2284 00000460 8A44          MOVL      XAR4,*-SP[4]          ; |384| 
    2285 00000461 96DC          MOV       *+XAR4[3],AL          ; |384| 
    2286                      .dwpsn  "app_WIRmod_fun.c",385,7
    2287 00000462 8A42          MOVL      XAR4,*-SP[2]          ; |385| 
    2288 00000463 92EC          MOV       AL,*+XAR4[5]          ; |385| 
    2289 00000464 8A44          MOVL      XAR4,*-SP[4]          ; |385| 
    2290 00000465 96E4          MOV       *+XAR4[4],AL          ; |385| 
    2291                      .dwpsn  "app_WIRmod_fun.c",386,7
    2292 00000466 8A42          MOVL      XAR4,*-SP[2]          ; |386| 
    2293 00000467 92DC          MOV       AL,*+XAR4[3]          ; |386| 
    2294 00000468 8A44          MOVL      XAR4,*-SP[4]          ; |386| 
    2295 00000469 96EC          MOV       *+XAR4[5],AL          ; |386| 
    2296                      .dwpsn  "app_WIRmod_fun.c",387,2
    2297                      .dwpsn  "app_WIRmod_fun.c",388,1
    2298 0000046a FE84          SUBB      SP,#4
    2299                      .dwcfa  0x1d, -2
    2300 0000046b 0006          LRETR
    2301                      ; return occurs
TMS320C2000 COFF Assembler PC v4.1.3 Thu Sep 15 15:05:07 2011

Tools Copyright (c) 1996-2006 Texas Instruments Incorporated
C:\DOCUME~1\ADMINI~1\LOCALS~1\Temp\TI4802                            PAGE   47

    2302                      .dwattr DW$159, DW_AT_end_file("app_WIRmod_fun.c")
    2303                      .dwattr DW$159, DW_AT_end_line(0x184)
    2304                      .dwattr DW$159, DW_AT_end_column(0x01)
    2305                      .dwendentry
    2306                      .dwendtag DW$159
    2307              
    2308 0000046c               .sect   ".text"
    2309                      .global _app_WIRmod_move_step_obtain
    2310              
    2311              DW$164  .dwtag  DW_TAG_subprogram, DW_AT_name("app_WIRmod_move_step_obtain"), DW_AT_symbol_name("_app_WIRmod_
    2312                      .dwattr DW$164, DW_AT_low_pc(_app_WIRmod_move_step_obtain)
    2313                      .dwattr DW$164, DW_AT_high_pc(0x00)
    2314                      .dwattr DW$164, DW_AT_begin_file("app_WIRmod_fun.c")
    2315                      .dwattr DW$164, DW_AT_begin_line(0x197)
    2316                      .dwattr DW$164, DW_AT_begin_column(0x09)
    2317                      .dwpsn  "app_WIRmod_fun.c",408,1
    2318              
    2319                      .dwfde DW$CIE
    2320              
    2321              ;***************************************************************
    2322              ;* FNAME: _app_WIRmod_move_step_obtain  FR SIZE:   4           *
    2323              ;*                                                             *
    2324              ;* FUNCTION ENVIRONMENT                                        *
    2325              ;*                                                             *
    2326              ;* FUNCTION PROPERTIES                                         *
    2327              ;*                            0 Parameter,  3 Auto,  0 SOE     *
    2328              ;***************************************************************
    2329              
    2330              _app_WIRmod_move_step_obtain:
    2331                      .dwcfa  0x1d, -2
    2332                      .dwcfa  0x1c, 26, 0
    2333                      .dwcfa  0x09, 40, 26
    2334 0000046c FE04          ADDB      SP,#4
    2335                      .dwcfa  0x1d, -6
    2336              ;* AR4   assigned to _src
    2337              DW$165  .dwtag  DW_TAG_formal_parameter, DW_AT_name("src"), DW_AT_symbol_name("_src")
    2338                      .dwattr DW$165, DW_AT_type(*DW$T$52)
    2339                      .dwattr DW$165, DW_AT_location[DW_OP_reg12]
    2340              DW$166  .dwtag  DW_TAG_variable, DW_AT_name("src"), DW_AT_symbol_name("_src")
    2341                      .dwattr DW$166, DW_AT_type(*DW$T$52)
    2342                      .dwattr DW$166, DW_AT_location[DW_OP_breg20 -2]
    2343              DW$167  .dwtag  DW_TAG_variable, DW_AT_name("offset"), DW_AT_symbol_name("_offset")
    2344                      .dwattr DW$167, DW_AT_type(*DW$T$23)
    2345                      .dwattr DW$167, DW_AT_location[DW_OP_breg20 -3]
    2346 0000046d A842          MOVL      *-SP[2],XAR4          ; |408| 
    2347                      .dwpsn  "app_WIRmod_fun.c",410,8
    2348 0000046e 2B43          MOV       *-SP[3],#0            ; |410| 
    2349                      .dwpsn  "app_WIRmod_fun.c",410,17
    2350 0000046f 9243          MOV       AL,*-SP[3]            ; |410| 
    2351 00000470 5206          CMPB      AL,#6                 ; |410| 
    2352 00000471 671A          B         L59,HIS               ; |410| 
    2353                      ; branchcc occurs ; |410| 
    2354              L57:    
    2355              DW$L$_app_WIRmod_move_step_obtain$2$B:
    2356                      .dwpsn  "app_WIRmod_fun.c",412,10
TMS320C2000 COFF Assembler PC v4.1.3 Thu Sep 15 15:05:07 2011

Tools Copyright (c) 1996-2006 Texas Instruments Incorporated
C:\DOCUME~1\ADMINI~1\LOCALS~1\Temp\TI4802                            PAGE   48

    2357 00000472 0E43          MOVU      ACC,*-SP[3]
    2358 00000473 8F00+         MOVL      XAR4,#_m_WIR_move_step ; |412| 
         00000474 0016 
    2359 00000475 FF31          LSL       ACC,2                 ; |412| 
    2360 00000476 5601          ADDL      XAR4,ACC
         00000477 00A4 
    2361 00000478 8342          MOVL      XAR5,*-SP[2]          ; |412| 
    2362 00000479 8AC4          MOVL      XAR4,*+XAR4[0]        ; |412| 
    2363 0000047a 9A03          MOVB      AL,#3                 ; |412| 
    2364 0000047b 7640!         LCR       #_global_memcmp       ; |412| 
         0000047c 0000 
    2365                      ; call occurs [#_global_memcmp] ; |412| 
    2366 0000047d 5200          CMPB      AL,#0                 ; |412| 
    2367 0000047e EC09          BF        L58,EQ                ; |412| 
    2368                      ; branchcc occurs ; |412| 
    2369              DW$L$_app_WIRmod_move_step_obtain$2$E:
    2370                      .dwpsn  "app_WIRmod_fun.c",413,3
    2371 0000047f 0E43          MOVU      ACC,*-SP[3]
    2372 00000480 FF31          LSL       ACC,2                 ; |413| 
    2373 00000481 8F00+         MOVL      XAR4,#_m_WIR_move_step+2 ; |413| 
         00000482 0018 
    2374 00000483 5601          ADDL      XAR4,ACC
         00000484 00A4 
    2375 00000485 92C4          MOV       AL,*+XAR4[0]          ; |413| 
    2376 00000486 6F05          B         L59,UNC               ; |413| 
    2377                      ; branch occurs ; |413| 
    2378              L58:    
    2379              DW$L$_app_WIRmod_move_step_obtain$4$B:
    2380                      .dwpsn  "app_WIRmod_fun.c",410,55
    2381 00000487 0A43          INC       *-SP[3]               ; |410| 
    2382                      .dwpsn  "app_WIRmod_fun.c",410,17
    2383 00000488 9243          MOV       AL,*-SP[3]            ; |410| 
    2384 00000489 5206          CMPB      AL,#6                 ; |410| 
    2385 0000048a 68E8          B         L57,LO                ; |410| 
    2386                      ; branchcc occurs ; |410| 
    2387              DW$L$_app_WIRmod_move_step_obtain$4$E:
    2388                      .dwpsn  "app_WIRmod_fun.c",415,4
    2389              L59:    
    2390                      .dwpsn  "app_WIRmod_fun.c",416,1
    2391 0000048b FE84          SUBB      SP,#4                 ; |415| 
    2392                      .dwcfa  0x1d, -2
    2393 0000048c 0006          LRETR
    2394                      ; return occurs
    2395              
    2396              DW$168  .dwtag  DW_TAG_loop
    2397                      .dwattr DW$168, DW_AT_name("C:\DOCUME~1\ADMINI~1\LOCALS~1\Temp\TI4802:L57:1:1316070306")
    2398                      .dwattr DW$168, DW_AT_begin_file("app_WIRmod_fun.c")
    2399                      .dwattr DW$168, DW_AT_begin_line(0x19a)
    2400                      .dwattr DW$168, DW_AT_end_line(0x19e)
    2401              DW$169  .dwtag  DW_TAG_loop_range
    2402                      .dwattr DW$169, DW_AT_low_pc(DW$L$_app_WIRmod_move_step_obtain$2$B)
    2403                      .dwattr DW$169, DW_AT_high_pc(DW$L$_app_WIRmod_move_step_obtain$2$E)
    2404              DW$170  .dwtag  DW_TAG_loop_range
    2405                      .dwattr DW$170, DW_AT_low_pc(DW$L$_app_WIRmod_move_step_obtain$4$B)
    2406                      .dwattr DW$170, DW_AT_high_pc(DW$L$_app_WIRmod_move_step_obtain$4$E)
TMS320C2000 COFF Assembler PC v4.1.3 Thu Sep 15 15:05:07 2011

Tools Copyright (c) 1996-2006 Texas Instruments Incorporated
C:\DOCUME~1\ADMINI~1\LOCALS~1\Temp\TI4802                            PAGE   49

    2407                      .dwendtag DW$168
    2408              
    2409                      .dwattr DW$164, DW_AT_end_file("app_WIRmod_fun.c")
    2410                      .dwattr DW$164, DW_AT_end_line(0x1a0)
    2411                      .dwattr DW$164, DW_AT_end_column(0x01)
    2412                      .dwendentry
    2413                      .dwendtag DW$164
    2414              
    2415 0000048d               .sect   ".text"
    2416                      .global _app_WIRmod_simpleness_alg
    2417              
    2418              DW$171  .dwtag  DW_TAG_subprogram, DW_AT_name("app_WIRmod_simpleness_alg"), DW_AT_symbol_name("_app_WIRmod_si
    2419                      .dwattr DW$171, DW_AT_low_pc(_app_WIRmod_simpleness_alg)
    2420                      .dwattr DW$171, DW_AT_high_pc(0x00)
    2421                      .dwattr DW$171, DW_AT_begin_file("app_WIRmod_fun.c")
    2422                      .dwattr DW$171, DW_AT_begin_line(0x1a1)
    2423                      .dwattr DW$171, DW_AT_begin_column(0x06)
    2424                      .dwpsn  "app_WIRmod_fun.c",418,1
    2425              
    2426                      .dwfde DW$CIE
    2427              
    2428              ;***************************************************************
    2429              ;* FNAME: _app_WIRmod_simpleness_alg    FR SIZE:  34           *
    2430              ;*                                                             *
    2431              ;* FUNCTION ENVIRONMENT                                        *
    2432              ;*                                                             *
    2433              ;* FUNCTION PROPERTIES                                         *
    2434              ;*                            0 Parameter, 32 Auto,  2 SOE     *
    2435              ;***************************************************************
    2436              
    2437              _app_WIRmod_simpleness_alg:
    2438                      .dwcfa  0x1d, -2
    2439                      .dwcfa  0x1c, 26, 0
    2440                      .dwcfa  0x09, 40, 26
    2441 0000048d B2BD          MOVL      *SP++,XAR1
    2442                      .dwcfa  0x80, 7, 2
    2443                      .dwcfa  0x1d, -4
    2444 0000048e FE20          ADDB      SP,#32
    2445                      .dwcfa  0x1d, -36
    2446              ;* AR4   assigned to _pwir
    2447              DW$172  .dwtag  DW_TAG_formal_parameter, DW_AT_name("pwir"), DW_AT_symbol_name("_pwir")
    2448                      .dwattr DW$172, DW_AT_type(*DW$T$87)
    2449                      .dwattr DW$172, DW_AT_location[DW_OP_reg12]
    2450              DW$173  .dwtag  DW_TAG_variable, DW_AT_name("pwir"), DW_AT_symbol_name("_pwir")
    2451                      .dwattr DW$173, DW_AT_type(*DW$T$87)
    2452                      .dwattr DW$173, DW_AT_location[DW_OP_breg20 -2]
    2453              DW$174  .dwtag  DW_TAG_variable, DW_AT_name("icon_1"), DW_AT_symbol_name("_icon_1")
    2454                      .dwattr DW$174, DW_AT_type(*DW$T$146)
    2455                      .dwattr DW$174, DW_AT_location[DW_OP_breg20 -8]
    2456              DW$175  .dwtag  DW_TAG_variable, DW_AT_name("icon_2"), DW_AT_symbol_name("_icon_2")
    2457                      .dwattr DW$175, DW_AT_type(*DW$T$146)
    2458                      .dwattr DW$175, DW_AT_location[DW_OP_breg20 -14]
    2459              DW$176  .dwtag  DW_TAG_variable, DW_AT_name("icon_3"), DW_AT_symbol_name("_icon_3")
    2460                      .dwattr DW$176, DW_AT_type(*DW$T$146)
    2461                      .dwattr DW$176, DW_AT_location[DW_OP_breg20 -20]
TMS320C2000 COFF Assembler PC v4.1.3 Thu Sep 15 15:05:07 2011

Tools Copyright (c) 1996-2006 Texas Instruments Incorporated
C:\DOCUME~1\ADMINI~1\LOCALS~1\Temp\TI4802                            PAGE   50

    2462              DW$177  .dwtag  DW_TAG_variable, DW_AT_name("icon_temp"), DW_AT_symbol_name("_icon_temp")
    2463                      .dwattr DW$177, DW_AT_type(*DW$T$146)
    2464                      .dwattr DW$177, DW_AT_location[DW_OP_breg20 -26]
    2465              DW$178  .dwtag  DW_TAG_variable, DW_AT_name("step1"), DW_AT_symbol_name("_step1")
    2466                      .dwattr DW$178, DW_AT_type(*DW$T$23)
    2467                      .dwattr DW$178, DW_AT_location[DW_OP_breg20 -27]
    2468              DW$179  .dwtag  DW_TAG_variable, DW_AT_name("step2"), DW_AT_symbol_name("_step2")
    2469                      .dwattr DW$179, DW_AT_type(*DW$T$23)
    2470                      .dwattr DW$179, DW_AT_location[DW_OP_breg20 -28]
    2471              DW$180  .dwtag  DW_TAG_variable, DW_AT_name("step3"), DW_AT_symbol_name("_step3")
    2472                      .dwattr DW$180, DW_AT_type(*DW$T$23)
    2473                      .dwattr DW$180, DW_AT_location[DW_OP_breg20 -29]
    2474              DW$181  .dwtag  DW_TAG_variable, DW_AT_name("step"), DW_AT_symbol_name("_step")
    2475                      .dwattr DW$181, DW_AT_type(*DW$T$23)
    2476                      .dwattr DW$181, DW_AT_location[DW_OP_breg20 -30]
    2477              DW$182  .dwtag  DW_TAG_variable, DW_AT_name("temp1"), DW_AT_symbol_name("_temp1")
    2478                      .dwattr DW$182, DW_AT_type(*DW$T$6)
    2479                      .dwattr DW$182, DW_AT_location[DW_OP_breg20 -31]
    2480              DW$183  .dwtag  DW_TAG_variable, DW_AT_name("temp2"), DW_AT_symbol_name("_temp2")
    2481                      .dwattr DW$183, DW_AT_type(*DW$T$6)
    2482                      .dwattr DW$183, DW_AT_location[DW_OP_breg20 -32]
    2483 0000048f A842          MOVL      *-SP[2],XAR4          ; |418| 
    2484                      .dwpsn  "app_WIRmod_fun.c",419,7
    2485 00000490 5CAD          MOVZ      AR4,SP                ; |419| 
    2486 00000491 76C0+         MOVL      XAR7,#_$T1$2          ; |419| 
         00000492 0010 
    2487 00000493 DC88          SUBB      XAR4,#8               ; |419| 
    2488 00000494 F605          RPT       #5
    2489 00000495 2484  ||     PREAD     *XAR4++,*XAR7         ; |419| 
    2490                      .dwpsn  "app_WIRmod_fun.c",420,7
    2491 00000496 5CAD          MOVZ      AR4,SP                ; |420| 
    2492 00000497 76C0+         MOVL      XAR7,#_$T2$3          ; |420| 
         00000498 0004 
    2493 00000499 DC8E          SUBB      XAR4,#14              ; |420| 
    2494 0000049a F605          RPT       #5
    2495 0000049b 2484  ||     PREAD     *XAR4++,*XAR7         ; |420| 
    2496                      .dwpsn  "app_WIRmod_fun.c",421,7
    2497 0000049c 5CAD          MOVZ      AR4,SP                ; |421| 
    2498 0000049d 76C0+         MOVL      XAR7,#_$T3$4          ; |421| 
         0000049e 000A 
    2499 0000049f DC94          SUBB      XAR4,#20              ; |421| 
    2500 000004a0 F605          RPT       #5
    2501 000004a1 2484  ||     PREAD     *XAR4++,*XAR7         ; |421| 
    2502                      .dwpsn  "app_WIRmod_fun.c",429,2
    2503 000004a2 761F!         MOVW      DP,#_m_alg_presult
         000004a3 0000 
    2504 000004a4 8A00!         MOVL      XAR4,@_m_alg_presult  ; |429| 
    2505 000004a5 D044          MOVB      XAR0,#68              ; |429| 
    2506 000004a6 9294          MOV       AL,*+XAR4[AR0]        ; |429| 
    2507 000004a7 5201          CMPB      AL,#1                 ; |429| 
    2508 000004a8 56C1          BF        L65,EQ                ; |429| 
         000004a9 00A8 
    2509                      ; branchcc occurs ; |429| 
    2510                      .dwpsn  "app_WIRmod_fun.c",430,4
    2511                      .dwpsn  "app_WIRmod_fun.c",431,2
TMS320C2000 COFF Assembler PC v4.1.3 Thu Sep 15 15:05:07 2011

Tools Copyright (c) 1996-2006 Texas Instruments Incorporated
C:\DOCUME~1\ADMINI~1\LOCALS~1\Temp\TI4802                            PAGE   51

    2512 000004aa 8A42          MOVL      XAR4,*-SP[2]          ; |431| 
    2513 000004ab D015          MOVB      XAR0,#21              ; |431| 
    2514 000004ac 9294          MOV       AL,*+XAR4[AR0]        ; |431| 
    2515 000004ad 965F          MOV       *-SP[31],AL           ; |431| 
    2516                      .dwpsn  "app_WIRmod_fun.c",432,2
    2517 000004ae 8A42          MOVL      XAR4,*-SP[2]          ; |432| 
    2518 000004af D016          MOVB      XAR0,#22              ; |432| 
    2519 000004b0 9294          MOV       AL,*+XAR4[AR0]        ; |432| 
    2520 000004b1 9660          MOV       *-SP[32],AL           ; |432| 
    2521                      .dwpsn  "app_WIRmod_fun.c",433,7
    2522 000004b2 5CAD          MOVZ      AR4,SP                ; |433| 
    2523 000004b3 8342          MOVL      XAR5,*-SP[2]          ; |433| 
    2524 000004b4 9A00          MOVB      AL,#0
    2525 000004b5 DC88          SUBB      XAR4,#8               ; |433| 
    2526 000004b6 7640'         LCR       #_app_WIRmod_icon_load ; |433| 
         000004b7 0340 
    2527                      ; call occurs [#_app_WIRmod_icon_load] ; |433| 
    2528                      .dwpsn  "app_WIRmod_fun.c",434,2
    2529 000004b8 5DAD          MOVZ      AR5,SP                ; |434| 
    2530 000004b9 5CAD          MOVZ      AR4,SP                ; |434| 
    2531 000004ba DD97          SUBB      XAR5,#23              ; |434| 
    2532 000004bb DC85          SUBB      XAR4,#5               ; |434| 
    2533 000004bc 7640'         LCR       #_app_WIRmod_rank_mod ; |434| 
         000004bd 0405 
    2534                      ; call occurs [#_app_WIRmod_rank_mod] ; |434| 
    2535                      .dwpsn  "app_WIRmod_fun.c",435,2
    2536 000004be 5DAD          MOVZ      AR5,SP                ; |435| 
    2537 000004bf 5CAD          MOVZ      AR4,SP                ; |435| 
    2538 000004c0 9A03          MOVB      AL,#3                 ; |435| 
    2539 000004c1 DD97          SUBB      XAR5,#23              ; |435| 
    2540 000004c2 DC85          SUBB      XAR4,#5               ; |435| 
    2541 000004c3 7640!         LCR       #_global_memcpy       ; |435| 
         000004c4 0000 
    2542                      ; call occurs [#_global_memcpy] ; |435| 
    2543                      .dwpsn  "app_WIRmod_fun.c",436,2
    2544 000004c5 5DAD          MOVZ      AR5,SP                ; |436| 
    2545 000004c6 5CAD          MOVZ      AR4,SP                ; |436| 
    2546 000004c7 DD8E          SUBB      XAR5,#14              ; |436| 
    2547 000004c8 DC88          SUBB      XAR4,#8               ; |436| 
    2548 000004c9 7640'         LCR       #_app_WIRmod_icon_shift ; |436| 
         000004ca 044F 
    2549                      ; call occurs [#_app_WIRmod_icon_shift] ; |436| 
    2550                      .dwpsn  "app_WIRmod_fun.c",437,2
    2551 000004cb 5DAD          MOVZ      AR5,SP                ; |437| 
    2552 000004cc 5CAD          MOVZ      AR4,SP                ; |437| 
    2553 000004cd DD94          SUBB      XAR5,#20              ; |437| 
    2554 000004ce DC8E          SUBB      XAR4,#14              ; |437| 
    2555 000004cf 7640'         LCR       #_app_WIRmod_icon_shift ; |437| 
         000004d0 044F 
    2556                      ; call occurs [#_app_WIRmod_icon_shift] ; |437| 
    2557                      .dwpsn  "app_WIRmod_fun.c",438,2
    2558 000004d1 5DAD          MOVZ      AR5,SP                ; |438| 
    2559 000004d2 5CAD          MOVZ      AR4,SP                ; |438| 
    2560 000004d3 DD97          SUBB      XAR5,#23              ; |438| 
    2561 000004d4 DC85          SUBB      XAR4,#5               ; |438| 
TMS320C2000 COFF Assembler PC v4.1.3 Thu Sep 15 15:05:07 2011

Tools Copyright (c) 1996-2006 Texas Instruments Incorporated
C:\DOCUME~1\ADMINI~1\LOCALS~1\Temp\TI4802                            PAGE   52

    2562 000004d5 7640'         LCR       #_app_WIRmod_rank_mod ; |438| 
         000004d6 0405 
    2563                      ; call occurs [#_app_WIRmod_rank_mod] ; |438| 
    2564                      .dwpsn  "app_WIRmod_fun.c",439,2
    2565 000004d7 5DAD          MOVZ      AR5,SP                ; |439| 
    2566 000004d8 5CAD          MOVZ      AR4,SP                ; |439| 
    2567 000004d9 DD97          SUBB      XAR5,#23              ; |439| 
    2568 000004da DC85          SUBB      XAR4,#5               ; |439| 
    2569 000004db 9A03          MOVB      AL,#3                 ; |439| 
    2570 000004dc 7640!         LCR       #_global_memcpy       ; |439| 
         000004dd 0000 
    2571                      ; call occurs [#_global_memcpy] ; |439| 
    2572                      .dwpsn  "app_WIRmod_fun.c",440,2
    2573 000004de 5DAD          MOVZ      AR5,SP                ; |440| 
    2574 000004df 5CAD          MOVZ      AR4,SP                ; |440| 
    2575 000004e0 DD97          SUBB      XAR5,#23              ; |440| 
    2576 000004e1 DC8B          SUBB      XAR4,#11              ; |440| 
    2577 000004e2 7640'         LCR       #_app_WIRmod_rank_mod ; |440| 
         000004e3 0405 
    2578                      ; call occurs [#_app_WIRmod_rank_mod] ; |440| 
    2579                      .dwpsn  "app_WIRmod_fun.c",441,2
    2580 000004e4 5DAD          MOVZ      AR5,SP                ; |441| 
    2581 000004e5 5CAD          MOVZ      AR4,SP                ; |441| 
    2582 000004e6 9A03          MOVB      AL,#3                 ; |441| 
    2583 000004e7 DD97          SUBB      XAR5,#23              ; |441| 
    2584 000004e8 DC8B          SUBB      XAR4,#11              ; |441| 
    2585 000004e9 7640!         LCR       #_global_memcpy       ; |441| 
         000004ea 0000 
    2586                      ; call occurs [#_global_memcpy] ; |441| 
    2587                      .dwpsn  "app_WIRmod_fun.c",442,2
    2588 000004eb 5DAD          MOVZ      AR5,SP                ; |442| 
    2589 000004ec 5CAD          MOVZ      AR4,SP                ; |442| 
    2590 000004ed DD97          SUBB      XAR5,#23              ; |442| 
    2591 000004ee DC91          SUBB      XAR4,#17              ; |442| 
    2592 000004ef 7640'         LCR       #_app_WIRmod_rank_mod ; |442| 
         000004f0 0405 
    2593                      ; call occurs [#_app_WIRmod_rank_mod] ; |442| 
    2594                      .dwpsn  "app_WIRmod_fun.c",443,2
    2595 000004f1 5DAD          MOVZ      AR5,SP                ; |443| 
    2596 000004f2 5CAD          MOVZ      AR4,SP                ; |443| 
    2597 000004f3 9A03          MOVB      AL,#3                 ; |443| 
    2598 000004f4 DD97          SUBB      XAR5,#23              ; |443| 
    2599 000004f5 DC91          SUBB      XAR4,#17              ; |443| 
    2600 000004f6 7640!         LCR       #_global_memcpy       ; |443| 
         000004f7 0000 
    2601                      ; call occurs [#_global_memcpy] ; |443| 
    2602                      .dwpsn  "app_WIRmod_fun.c",445,2
    2603 000004f8 5CAD          MOVZ      AR4,SP                ; |445| 
    2604 000004f9 DC85          SUBB      XAR4,#5               ; |445| 
    2605 000004fa 7640'         LCR       #_app_WIRmod_move_step_obtain ; |445| 
         000004fb 046C 
    2606                      ; call occurs [#_app_WIRmod_move_step_obtain] ; |445| 
    2607 000004fc 5CAD          MOVZ      AR4,SP                ; |445| 
    2608 000004fd 59A9          MOVZ      AR1,AL                ; |445| 
    2609 000004fe DC88          SUBB      XAR4,#8               ; |445| 
TMS320C2000 COFF Assembler PC v4.1.3 Thu Sep 15 15:05:07 2011

Tools Copyright (c) 1996-2006 Texas Instruments Incorporated
C:\DOCUME~1\ADMINI~1\LOCALS~1\Temp\TI4802                            PAGE   53

    2610 000004ff 7640'         LCR       #_app_WIRmod_move_step_obtain ; |445| 
         00000500 046C 
    2611                      ; call occurs [#_app_WIRmod_move_step_obtain] ; |445| 
    2612 00000501 93A1          MOV       AH,AR1                ; |445| 
    2613 00000502 95A9          ADD       AH,AL                 ; |445| 
    2614 00000503 975B          MOV       *-SP[27],AH           ; |445| 
    2615                      .dwpsn  "app_WIRmod_fun.c",447,2
    2616 00000504 5CAD          MOVZ      AR4,SP                ; |447| 
    2617 00000505 DC8B          SUBB      XAR4,#11              ; |447| 
    2618 00000506 7640'         LCR       #_app_WIRmod_move_step_obtain ; |447| 
         00000507 046C 
    2619                      ; call occurs [#_app_WIRmod_move_step_obtain] ; |447| 
    2620 00000508 5CAD          MOVZ      AR4,SP                ; |447| 
    2621 00000509 59A9          MOVZ      AR1,AL                ; |447| 
    2622 0000050a DC8E          SUBB      XAR4,#14              ; |447| 
    2623 0000050b 7640'         LCR       #_app_WIRmod_move_step_obtain ; |447| 
         0000050c 046C 
    2624                      ; call occurs [#_app_WIRmod_move_step_obtain] ; |447| 
    2625 0000050d 93A1          MOV       AH,AR1                ; |447| 
    2626 0000050e 95A9          ADD       AH,AL                 ; |447| 
    2627 0000050f 975C          MOV       *-SP[28],AH           ; |447| 
    2628                      .dwpsn  "app_WIRmod_fun.c",449,2
    2629 00000510 5CAD          MOVZ      AR4,SP                ; |449| 
    2630 00000511 DC91          SUBB      XAR4,#17              ; |449| 
    2631 00000512 7640'         LCR       #_app_WIRmod_move_step_obtain ; |449| 
         00000513 046C 
    2632                      ; call occurs [#_app_WIRmod_move_step_obtain] ; |449| 
    2633 00000514 5CAD          MOVZ      AR4,SP                ; |449| 
    2634 00000515 59A9          MOVZ      AR1,AL                ; |449| 
    2635 00000516 DC94          SUBB      XAR4,#20              ; |449| 
    2636 00000517 7640'         LCR       #_app_WIRmod_move_step_obtain ; |449| 
         00000518 046C 
    2637                      ; call occurs [#_app_WIRmod_move_step_obtain] ; |449| 
    2638 00000519 93A1          MOV       AH,AR1                ; |449| 
    2639 0000051a 95A9          ADD       AH,AL                 ; |449| 
    2640 0000051b 975D          MOV       *-SP[29],AH           ; |449| 
    2641                      .dwpsn  "app_WIRmod_fun.c",452,7
    2642 0000051c 925C          MOV       AL,*-SP[28]           ; |452| 
    2643 0000051d 545B          CMP       AL,*-SP[27]           ; |452| 
    2644 0000051e 6902          B         L60,LOS               ; |452| 
    2645                      ; branchcc occurs ; |452| 
    2646 0000051f 925B          MOV       AL,*-SP[27]           ; |452| 
    2647 00000520       L60:    
    2648 00000520 965E          MOV       *-SP[30],AL           ; |452| 
    2649                      .dwpsn  "app_WIRmod_fun.c",453,7
    2650 00000521 925D          MOV       AL,*-SP[29]           ; |453| 
    2651 00000522 545E          CMP       AL,*-SP[30]           ; |453| 
    2652 00000523 6902          B         L61,LOS               ; |453| 
    2653                      ; branchcc occurs ; |453| 
    2654 00000524 925E          MOV       AL,*-SP[30]           ; |453| 
    2655 00000525       L61:    
    2656 00000525 965E          MOV       *-SP[30],AL           ; |453| 
    2657                      .dwpsn  "app_WIRmod_fun.c",454,7
    2658 00000526 8A42          MOVL      XAR4,*-SP[2]          ; |454| 
    2659 00000527 9A00          MOVB      AL,#0
TMS320C2000 COFF Assembler PC v4.1.3 Thu Sep 15 15:05:07 2011

Tools Copyright (c) 1996-2006 Texas Instruments Incorporated
C:\DOCUME~1\ADMINI~1\LOCALS~1\Temp\TI4802                            PAGE   54

    2660 00000528 9B19          MOVB      AH,#25                ; |454| 
    2661 00000529 7640!         LCR       #_global_memset       ; |454| 
         0000052a 0000 
    2662                      ; call occurs [#_global_memset] ; |454| 
    2663                      .dwpsn  "app_WIRmod_fun.c",455,7
    2664 0000052b 925B          MOV       AL,*-SP[27]           ; |455| 
    2665 0000052c 545E          CMP       AL,*-SP[30]           ; |455| 
    2666 0000052d ED08          BF        L62,NEQ               ; |455| 
    2667                      ; branchcc occurs ; |455| 
    2668                      .dwpsn  "app_WIRmod_fun.c",457,8
    2669 0000052e 5CAD          MOVZ      AR4,SP                ; |457| 
    2670 0000052f 8342          MOVL      XAR5,*-SP[2]          ; |457| 
    2671 00000530 9A01          MOVB      AL,#1                 ; |457| 
    2672 00000531 DC88          SUBB      XAR4,#8               ; |457| 
    2673 00000532 7640'         LCR       #_app_WIRmod_icon_load ; |457| 
         00000533 0340 
    2674                      ; call occurs [#_app_WIRmod_icon_load] ; |457| 
    2675                      .dwpsn  "app_WIRmod_fun.c",458,2
    2676 00000534 6F14          B         L64,UNC               ; |458| 
    2677                      ; branch occurs ; |458| 
    2678              L62:    
    2679                      .dwpsn  "app_WIRmod_fun.c",459,12
    2680 00000535 925C          MOV       AL,*-SP[28]           ; |459| 
    2681 00000536 545E          CMP       AL,*-SP[30]           ; |459| 
    2682 00000537 ED08          BF        L63,NEQ               ; |459| 
    2683                      ; branchcc occurs ; |459| 
    2684                      .dwpsn  "app_WIRmod_fun.c",461,8
    2685 00000538 5CAD          MOVZ      AR4,SP                ; |461| 
    2686 00000539 8342          MOVL      XAR5,*-SP[2]          ; |461| 
    2687 0000053a 9A01          MOVB      AL,#1                 ; |461| 
    2688 0000053b DC8E          SUBB      XAR4,#14              ; |461| 
    2689 0000053c 7640'         LCR       #_app_WIRmod_icon_load ; |461| 
         0000053d 0340 
    2690                      ; call occurs [#_app_WIRmod_icon_load] ; |461| 
    2691                      .dwpsn  "app_WIRmod_fun.c",462,2
    2692 0000053e 6F0A          B         L64,UNC               ; |462| 
    2693                      ; branch occurs ; |462| 
    2694              L63:    
    2695                      .dwpsn  "app_WIRmod_fun.c",463,12
    2696 0000053f 925D          MOV       AL,*-SP[29]           ; |463| 
    2697 00000540 545E          CMP       AL,*-SP[30]           ; |463| 
    2698 00000541 ED07          BF        L64,NEQ               ; |463| 
    2699                      ; branchcc occurs ; |463| 
    2700                      .dwpsn  "app_WIRmod_fun.c",465,8
    2701 00000542 5CAD          MOVZ      AR4,SP                ; |465| 
    2702 00000543 8342          MOVL      XAR5,*-SP[2]          ; |465| 
    2703 00000544 9A01          MOVB      AL,#1                 ; |465| 
    2704 00000545 DC94          SUBB      XAR4,#20              ; |465| 
    2705 00000546 7640'         LCR       #_app_WIRmod_icon_load ; |465| 
         00000547 0340 
    2706                      ; call occurs [#_app_WIRmod_icon_load] ; |465| 
    2707              L64:    
    2708                      .dwpsn  "app_WIRmod_fun.c",467,2
    2709 00000548 8A42          MOVL      XAR4,*-SP[2]          ; |467| 
    2710 00000549 925F          MOV       AL,*-SP[31]           ; |467| 
TMS320C2000 COFF Assembler PC v4.1.3 Thu Sep 15 15:05:07 2011

Tools Copyright (c) 1996-2006 Texas Instruments Incorporated
C:\DOCUME~1\ADMINI~1\LOCALS~1\Temp\TI4802                            PAGE   55

    2711 0000054a D015          MOVB      XAR0,#21              ; |467| 
    2712 0000054b 9694          MOV       *+XAR4[AR0],AL        ; |467| 
    2713                      .dwpsn  "app_WIRmod_fun.c",468,2
    2714 0000054c 9260          MOV       AL,*-SP[32]           ; |468| 
    2715 0000054d 8A42          MOVL      XAR4,*-SP[2]          ; |468| 
    2716 0000054e D016          MOVB      XAR0,#22              ; |468| 
    2717 0000054f 9694          MOV       *+XAR4[AR0],AL        ; |468| 
    2718                      .dwpsn  "app_WIRmod_fun.c",469,8
    2719              L65:    
    2720                      .dwpsn  "app_WIRmod_fun.c",470,1
    2721 00000550 FEA0          SUBB      SP,#32
    2722                      .dwcfa  0x1d, -4
    2723 00000551 8BBE          MOVL      XAR1,*--SP
    2724                      .dwcfa  0x1d, -2
    2725                      .dwcfa  0xc0, 7
    2726 00000552 0006          LRETR
    2727                      ; return occurs
    2728                      .dwattr DW$171, DW_AT_end_file("app_WIRmod_fun.c")
    2729                      .dwattr DW$171, DW_AT_end_line(0x1d6)
    2730                      .dwattr DW$171, DW_AT_end_column(0x01)
    2731                      .dwendentry
    2732                      .dwendtag DW$171
    2733              
    2734 00000553               .sect   ".text"
    2735                      .global _app_WIRmod_image_save
    2736              
    2737              DW$184  .dwtag  DW_TAG_subprogram, DW_AT_name("app_WIRmod_image_save"), DW_AT_symbol_name("_app_WIRmod_image_
    2738                      .dwattr DW$184, DW_AT_low_pc(_app_WIRmod_image_save)
    2739                      .dwattr DW$184, DW_AT_high_pc(0x00)
    2740                      .dwattr DW$184, DW_AT_begin_file("app_WIRmod_fun.c")
    2741                      .dwattr DW$184, DW_AT_begin_line(0x1df)
    2742                      .dwattr DW$184, DW_AT_begin_column(0x06)
    2743                      .dwpsn  "app_WIRmod_fun.c",480,1
    2744              
    2745                      .dwfde DW$CIE
    2746              
    2747              ;***************************************************************
    2748              ;* FNAME: _app_WIRmod_image_save        FR SIZE:   6           *
    2749              ;*                                                             *
    2750              ;* FUNCTION ENVIRONMENT                                        *
    2751              ;*                                                             *
    2752              ;* FUNCTION PROPERTIES                                         *
    2753              ;*                            2 Parameter,  4 Auto,  0 SOE     *
    2754              ;***************************************************************
    2755              
    2756              _app_WIRmod_image_save:
    2757                      .dwcfa  0x1d, -2
    2758                      .dwcfa  0x1c, 26, 0
    2759                      .dwcfa  0x09, 40, 26
    2760 00000553 FE06          ADDB      SP,#6
    2761                      .dwcfa  0x1d, -8
    2762              DW$185  .dwtag  DW_TAG_variable, DW_AT_name("w"), DW_AT_symbol_name("_w")
    2763                      .dwattr DW$185, DW_AT_type(*DW$T$10)
    2764                      .dwattr DW$185, DW_AT_location[DW_OP_breg20 -3]
    2765              DW$186  .dwtag  DW_TAG_variable, DW_AT_name("pfile"), DW_AT_symbol_name("_pfile")
TMS320C2000 COFF Assembler PC v4.1.3 Thu Sep 15 15:05:07 2011

Tools Copyright (c) 1996-2006 Texas Instruments Incorporated
C:\DOCUME~1\ADMINI~1\LOCALS~1\Temp\TI4802                            PAGE   56

    2766                      .dwattr DW$186, DW_AT_type(*DW$T$153)
    2767                      .dwattr DW$186, DW_AT_location[DW_OP_breg20 -6]
    2768                      .dwpsn  "app_WIRmod_fun.c",482,6
    2769 00000554 28A9          MOV       AL,#532               ; |482| 
         00000555 0214 
    2770 00000556 7640!         LCR       #_app_malloc          ; |482| 
         00000557 0000 
    2771                      ; call occurs [#_app_malloc] ; |482| 
    2772 00000558 A846          MOVL      *-SP[6],XAR4          ; |482| 
    2773                      .dwpsn  "app_WIRmod_fun.c",483,2
    2774 00000559 0646          MOVL      ACC,*-SP[6]           ; |483| 
    2775 0000055a EC5D          BF        L72,EQ                ; |483| 
    2776                      ; branchcc occurs ; |483| 
    2777                      .dwpsn  "app_WIRmod_fun.c",483,13
    2778                      .dwpsn  "app_WIRmod_fun.c",484,2
    2779 0000055b 761F!         MOVW      DP,#_m_alg_presult
         0000055c 0000 
    2780 0000055d 8A00!         MOVL      XAR4,@_m_alg_presult  ; |484| 
    2781 0000055e 92C4          MOV       AL,*+XAR4[0]          ; |484| 
    2782 0000055f EC41          BF        L71,EQ                ; |484| 
    2783                      ; branchcc occurs ; |484| 
    2784                      .dwpsn  "app_WIRmod_fun.c",486,3
    2785 00000560 8A00!         MOVL      XAR4,@_m_alg_presult  ; |486| 
    2786 00000561 92CC          MOV       AL,*+XAR4[1]          ; |486| 
    2787 00000562 EC07          BF        L66,EQ                ; |486| 
    2788                      ; branchcc occurs ; |486| 
    2789                      .dwpsn  "app_WIRmod_fun.c",487,3
    2790 00000563 8F40+         MOVL      XAR5,#FSL8            ; |487| 
         00000564 004C 
    2791 00000565 8F00-         MOVL      XAR4,#_m_WIRresult    ; |487| 
         00000566 0007 
    2792 00000567 7640!         LCR       #_global_strcpy       ; |487| 
         00000568 0000 
    2793                      ; call occurs [#_global_strcpy] ; |487| 
    2794              L66:    
    2795                      .dwpsn  "app_WIRmod_fun.c",488,3
    2796 00000569 761F!         MOVW      DP,#_m_alg_presult
         0000056a 0000 
    2797 0000056b 8A00!         MOVL      XAR4,@_m_alg_presult  ; |488| 
    2798 0000056c 92D4          MOV       AL,*+XAR4[2]          ; |488| 
    2799 0000056d EC07          BF        L67,EQ                ; |488| 
    2800                      ; branchcc occurs ; |488| 
    2801                      .dwpsn  "app_WIRmod_fun.c",489,3
    2802 0000056e 8F40+         MOVL      XAR5,#FSL8            ; |489| 
         0000056f 004C 
    2803 00000570 8F00-         MOVL      XAR4,#_m_WIRresult+3  ; |489| 
         00000571 000A 
    2804 00000572 7640!         LCR       #_global_strcpy       ; |489| 
         00000573 0000 
    2805                      ; call occurs [#_global_strcpy] ; |489| 
    2806              L67:    
    2807                      .dwpsn  "app_WIRmod_fun.c",490,3
    2808 00000574 761F!         MOVW      DP,#_m_alg_presult
         00000575 0000 
    2809 00000576 8A00!         MOVL      XAR4,@_m_alg_presult  ; |490| 
TMS320C2000 COFF Assembler PC v4.1.3 Thu Sep 15 15:05:07 2011

Tools Copyright (c) 1996-2006 Texas Instruments Incorporated
C:\DOCUME~1\ADMINI~1\LOCALS~1\Temp\TI4802                            PAGE   57

    2810 00000577 92DC          MOV       AL,*+XAR4[3]          ; |490| 
    2811 00000578 EC07          BF        L68,EQ                ; |490| 
    2812                      ; branchcc occurs ; |490| 
    2813                      .dwpsn  "app_WIRmod_fun.c",491,3
    2814 00000579 8F40+         MOVL      XAR5,#FSL8            ; |491| 
         0000057a 004C 
    2815 0000057b 8F00-         MOVL      XAR4,#_m_WIRresult+6  ; |491| 
         0000057c 000D 
    2816 0000057d 7640!         LCR       #_global_strcpy       ; |491| 
         0000057e 0000 
    2817                      ; call occurs [#_global_strcpy] ; |491| 
    2818              L68:    
    2819                      .dwpsn  "app_WIRmod_fun.c",492,3
    2820 0000057f 761F!         MOVW      DP,#_m_alg_presult
         00000580 0000 
    2821 00000581 8A00!         MOVL      XAR4,@_m_alg_presult  ; |492| 
    2822 00000582 92E4          MOV       AL,*+XAR4[4]          ; |492| 
    2823 00000583 EC07          BF        L69,EQ                ; |492| 
    2824                      ; branchcc occurs ; |492| 
    2825                      .dwpsn  "app_WIRmod_fun.c",493,3
    2826 00000584 8F40+         MOVL      XAR5,#FSL8            ; |493| 
         00000585 004C 
    2827 00000586 8F00-         MOVL      XAR4,#_m_WIRresult+9  ; |493| 
         00000587 0010 
    2828 00000588 7640!         LCR       #_global_strcpy       ; |493| 
         00000589 0000 
    2829                      ; call occurs [#_global_strcpy] ; |493| 
    2830              L69:    
    2831                      .dwpsn  "app_WIRmod_fun.c",494,3
    2832 0000058a 761F!         MOVW      DP,#_m_alg_presult
         0000058b 0000 
    2833 0000058c 8A00!         MOVL      XAR4,@_m_alg_presult  ; |494| 
    2834 0000058d 92EC          MOV       AL,*+XAR4[5]          ; |494| 
    2835 0000058e EC07          BF        L70,EQ                ; |494| 
    2836                      ; branchcc occurs ; |494| 
    2837                      .dwpsn  "app_WIRmod_fun.c",495,3
    2838 0000058f 8F40+         MOVL      XAR5,#FSL8            ; |495| 
         00000590 004C 
    2839 00000591 8F00-         MOVL      XAR4,#_m_WIRresult+13 ; |495| 
         00000592 0014 
    2840 00000593 7640!         LCR       #_global_strcpy       ; |495| 
         00000594 0000 
    2841                      ; call occurs [#_global_strcpy] ; |495| 
    2842              L70:    
    2843                      .dwpsn  "app_WIRmod_fun.c",496,3
    2844 00000595 761F!         MOVW      DP,#_m_alg_presult
         00000596 0000 
    2845 00000597 8A00!         MOVL      XAR4,@_m_alg_presult  ; |496| 
    2846 00000598 92F4          MOV       AL,*+XAR4[6]          ; |496| 
    2847 00000599 EC07          BF        L71,EQ                ; |496| 
    2848                      ; branchcc occurs ; |496| 
    2849                      .dwpsn  "app_WIRmod_fun.c",497,3
    2850 0000059a 8F40+         MOVL      XAR5,#FSL8            ; |497| 
         0000059b 004C 
    2851 0000059c 8F00-         MOVL      XAR4,#_m_WIRresult+17 ; |497| 
TMS320C2000 COFF Assembler PC v4.1.3 Thu Sep 15 15:05:07 2011

Tools Copyright (c) 1996-2006 Texas Instruments Incorporated
C:\DOCUME~1\ADMINI~1\LOCALS~1\Temp\TI4802                            PAGE   58

         0000059d 0018 
    2852 0000059e 7640!         LCR       #_global_strcpy       ; |497| 
         0000059f 0000 
    2853                      ; call occurs [#_global_strcpy] ; |497| 
    2854              L71:    
    2855                      .dwpsn  "app_WIRmod_fun.c",499,5
    2856 000005a0 8A46          MOVL      XAR4,*-SP[6]          ; |499| 
    2857 000005a1 9A0A          MOVB      AL,#10                ; |499| 
    2858 000005a2 8F40+         MOVL      XAR5,#FSL24           ; |499| 
         000005a3 00B2 
    2859 000005a4 7640!         LCR       #_f_open              ; |499| 
         000005a5 0000 
    2860                      ; call occurs [#_f_open] ; |499| 
    2861 000005a6 5200          CMPB      AL,#0                 ; |499| 
    2862 000005a7 ED10          BF        L72,NEQ               ; |499| 
    2863                      ; branchcc occurs ; |499| 
    2864                      .dwpsn  "app_WIRmod_fun.c",502,3
    2865                      .dwpsn  "app_WIRmod_fun.c",504,2
    2866 000005a8 5CAD          MOVZ      AR4,SP                ; |504| 
    2867 000005a9 DC83          SUBB      XAR4,#3               ; |504| 
    2868 000005aa A842          MOVL      *-SP[2],XAR4          ; |504| 
    2869 000005ab 8A46          MOVL      XAR4,*-SP[6]          ; |504| 
    2870 000005ac 9A19          MOVB      AL,#25                ; |504| 
    2871 000005ad 8F40-         MOVL      XAR5,#_m_WIRresult    ; |504| 
         000005ae 0007 
    2872 000005af 7640!         LCR       #_f_write             ; |504| 
         000005b0 0000 
    2873                      ; call occurs [#_f_write] ; |504| 
    2874                      .dwpsn  "app_WIRmod_fun.c",505,2
    2875 000005b1 8A46          MOVL      XAR4,*-SP[6]          ; |505| 
    2876 000005b2 7640!         LCR       #_f_close             ; |505| 
         000005b3 0000 
    2877                      ; call occurs [#_f_close] ; |505| 
    2878                      .dwpsn  "app_WIRmod_fun.c",506,5
    2879 000005b4 8A46          MOVL      XAR4,*-SP[6]          ; |506| 
    2880 000005b5 7640!         LCR       #_app_free            ; |506| 
         000005b6 0000 
    2881                      ; call occurs [#_app_free] ; |506| 
    2882                      .dwpsn  "app_WIRmod_fun.c",507,5
    2883              L72:    
    2884                      .dwpsn  "app_WIRmod_fun.c",508,1
    2885 000005b7 FE86          SUBB      SP,#6
    2886                      .dwcfa  0x1d, -2
    2887 000005b8 0006          LRETR
    2888                      ; return occurs
    2889                      .dwattr DW$184, DW_AT_end_file("app_WIRmod_fun.c")
    2890                      .dwattr DW$184, DW_AT_end_line(0x1fc)
    2891                      .dwattr DW$184, DW_AT_end_column(0x01)
    2892                      .dwendentry
    2893                      .dwendtag DW$184
    2894              
    2895 000005b9               .sect   ".text"
    2896                      .global _app_WIRmod_main_task
    2897              
    2898              DW$187  .dwtag  DW_TAG_subprogram, DW_AT_name("app_WIRmod_main_task"), DW_AT_symbol_name("_app_WIRmod_main_ta
TMS320C2000 COFF Assembler PC v4.1.3 Thu Sep 15 15:05:07 2011

Tools Copyright (c) 1996-2006 Texas Instruments Incorporated
C:\DOCUME~1\ADMINI~1\LOCALS~1\Temp\TI4802                            PAGE   59

    2899                      .dwattr DW$187, DW_AT_low_pc(_app_WIRmod_main_task)
    2900                      .dwattr DW$187, DW_AT_high_pc(0x00)
    2901                      .dwattr DW$187, DW_AT_begin_file("app_WIRmod_fun.c")
    2902                      .dwattr DW$187, DW_AT_begin_line(0x205)
    2903                      .dwattr DW$187, DW_AT_begin_column(0x06)
    2904                      .dwpsn  "app_WIRmod_fun.c",518,1
    2905              
    2906                      .dwfde DW$CIE
    2907              
    2908              ;***************************************************************
    2909              ;* FNAME: _app_WIRmod_main_task         FR SIZE:   4           *
    2910              ;*                                                             *
    2911              ;* FUNCTION ENVIRONMENT                                        *
    2912              ;*                                                             *
    2913              ;* FUNCTION PROPERTIES                                         *
    2914              ;*                            0 Parameter,  4 Auto,  0 SOE     *
    2915              ;***************************************************************
    2916              
    2917              _app_WIRmod_main_task:
    2918                      .dwcfa  0x1d, -2
    2919                      .dwcfa  0x1c, 26, 0
    2920                      .dwcfa  0x09, 40, 26
    2921 000005b9 FE04          ADDB      SP,#4
    2922                      .dwcfa  0x1d, -6
    2923              ;* AR4   assigned to _arg
    2924              DW$188  .dwtag  DW_TAG_formal_parameter, DW_AT_name("arg"), DW_AT_symbol_name("_arg")
    2925                      .dwattr DW$188, DW_AT_type(*DW$T$3)
    2926                      .dwattr DW$188, DW_AT_location[DW_OP_reg12]
    2927              DW$189  .dwtag  DW_TAG_variable, DW_AT_name("arg"), DW_AT_symbol_name("_arg")
    2928                      .dwattr DW$189, DW_AT_type(*DW$T$3)
    2929                      .dwattr DW$189, DW_AT_location[DW_OP_breg20 -2]
    2930              DW$190  .dwtag  DW_TAG_variable, DW_AT_name("key_buf"), DW_AT_symbol_name("_key_buf")
    2931                      .dwattr DW$190, DW_AT_type(*DW$T$6)
    2932                      .dwattr DW$190, DW_AT_location[DW_OP_breg20 -3]
    2933              DW$191  .dwtag  DW_TAG_variable, DW_AT_name("cnt"), DW_AT_symbol_name("_cnt")
    2934                      .dwattr DW$191, DW_AT_type(*DW$T$23)
    2935                      .dwattr DW$191, DW_AT_location[DW_OP_breg20 -4]
    2936 000005ba A842          MOVL      *-SP[2],XAR4          ; |518| 
    2937                      .dwpsn  "app_WIRmod_fun.c",520,10
    2938 000005bb 2B44          MOV       *-SP[4],#0            ; |520| 
    2939                      .dwpsn  "app_WIRmod_fun.c",522,2
    2940 000005bc 9A1D          MOVB      AL,#29                ; |522| 
    2941 000005bd 7640!         LCR       #_app_global_key_dummy_press ; |522| 
         000005be 0000 
    2942                      ; call occurs [#_app_global_key_dummy_press] ; |522| 
    2943                      .dwpsn  "app_WIRmod_fun.c",523,2
    2944 000005bf 8F00+         MOVL      XAR4,#FSL25           ; |523| 
         000005c0 00BA 
    2945 000005c1 7640!         LCR       #_app_module_pos_name_set ; |523| 
         000005c2 0000 
    2946                      ; call occurs [#_app_module_pos_name_set] ; |523| 
    2947                      .dwpsn  "app_WIRmod_fun.c",524,10
    2948              L73:    
    2949              DW$L$_app_WIRmod_main_task$2$B:
    2950                      .dwpsn  "app_WIRmod_fun.c",526,3
TMS320C2000 COFF Assembler PC v4.1.3 Thu Sep 15 15:05:07 2011

Tools Copyright (c) 1996-2006 Texas Instruments Incorporated
C:\DOCUME~1\ADMINI~1\LOCALS~1\Temp\TI4802                            PAGE   60

    2951 000005c3 9A03          MOVB      AL,#3                 ; |526| 
    2952 000005c4 7640!         LCR       #_OSTimeDly           ; |526| 
         000005c5 0000 
    2953                      ; call occurs [#_OSTimeDly] ; |526| 
    2954                      .dwpsn  "app_WIRmod_fun.c",527,3
    2955 000005c6 5CAD          MOVZ      AR4,SP                ; |527| 
    2956 000005c7 9A01          MOVB      AL,#1                 ; |527| 
    2957 000005c8 DC83          SUBB      XAR4,#3               ; |527| 
    2958 000005c9 7640!         LCR       #_app_global_key_obtain ; |527| 
         000005ca 0000 
    2959                      ; call occurs [#_app_global_key_obtain] ; |527| 
    2960 000005cb 5201          CMPB      AL,#1                 ; |527| 
    2961 000005cc ED23          BF        L77,NEQ               ; |527| 
    2962                      ; branchcc occurs ; |527| 
    2963              DW$L$_app_WIRmod_main_task$2$E:
    2964              DW$L$_app_WIRmod_main_task$3$B:
    2965                      .dwpsn  "app_WIRmod_fun.c",529,4
    2966 000005cd 9243          MOV       AL,*-SP[3]            ; |529| 
    2967 000005ce 521B          CMPB      AL,#27                ; |529| 
    2968 000005cf ED03          BF        L74,NEQ               ; |529| 
    2969                      ; branchcc occurs ; |529| 
    2970              DW$L$_app_WIRmod_main_task$3$E:
    2971              DW$L$_app_WIRmod_main_task$4$B:
    2972                      .dwpsn  "app_WIRmod_fun.c",531,5
    2973 000005d0 7640!         LCR       #_app_module_switch_last_mod ; |531| 
         000005d1 0000 
    2974                      ; call occurs [#_app_module_switch_last_mod] ; |531| 
    2975              DW$L$_app_WIRmod_main_task$4$E:
    2976              L74:    
    2977              DW$L$_app_WIRmod_main_task$5$B:
    2978                      .dwpsn  "app_WIRmod_fun.c",533,4
    2979 000005d2 9243          MOV       AL,*-SP[3]            ; |533| 
    2980 000005d3 521D          CMPB      AL,#29                ; |533| 
    2981 000005d4 EC03          BF        L75,EQ                ; |533| 
    2982                      ; branchcc occurs ; |533| 
    2983 000005d5       DW$L$_app_WIRmod_main_task$5$E:
    2984 000005d5       DW$L$_app_WIRmod_main_task$6$B:
    2985 000005d5 5264          CMPB      AL,#100               ; |533| 
    2986 000005d6 ED09          BF        L76,NEQ               ; |533| 
    2987                      ; branchcc occurs ; |533| 
    2988              DW$L$_app_WIRmod_main_task$6$E:
    2989              L75:    
    2990              DW$L$_app_WIRmod_main_task$7$B:
    2991                      .dwpsn  "app_WIRmod_fun.c",535,5
    2992 000005d7 761F!         MOVW      DP,#_m_WIR_cos_drop_list
         000005d8 0000 
    2993 000005d9 8A00!         MOVL      XAR4,@_m_WIR_cos_drop_list ; |535| 
    2994 000005da 7640!         LCR       #_GUI_drop_list_unfold ; |535| 
         000005db 0000 
    2995                      ; call occurs [#_GUI_drop_list_unfold] ; |535| 
    2996 000005dc 761F-         MOVW      DP,#_m_WIR_cosoffset
         000005dd 0000 
    2997 000005de 9602-         MOV       @_m_WIR_cosoffset,AL  ; |535| 
    2998              DW$L$_app_WIRmod_main_task$7$E:
    2999              L76:    
TMS320C2000 COFF Assembler PC v4.1.3 Thu Sep 15 15:05:07 2011

Tools Copyright (c) 1996-2006 Texas Instruments Incorporated
C:\DOCUME~1\ADMINI~1\LOCALS~1\Temp\TI4802                            PAGE   61

    3000              DW$L$_app_WIRmod_main_task$8$B:
    3001                      .dwpsn  "app_WIRmod_fun.c",537,4
    3002 000005df 9243          MOV       AL,*-SP[3]            ; |537| 
    3003 000005e0 5205          CMPB      AL,#5                 ; |537| 
    3004 000005e1 ED0E          BF        L77,NEQ               ; |537| 
    3005                      ; branchcc occurs ; |537| 
    3006              DW$L$_app_WIRmod_main_task$8$E:
    3007              DW$L$_app_WIRmod_main_task$9$B:
    3008                      .dwpsn  "app_WIRmod_fun.c",539,5
    3009 000005e2 761F-         MOVW      DP,#_m_WIR_jxmod
         000005e3 0000 
    3010 000005e4 9201-         MOV       AL,@_m_WIR_jxmod      ; |539| 
    3011 000005e5 961E-         MOV       @_m_WIRresult+23,AL   ; |539| 
    3012                      .dwpsn  "app_WIRmod_fun.c",540,5
    3013 000005e6 9202-         MOV       AL,@_m_WIR_cosoffset  ; |540| 
    3014 000005e7 961F-         MOV       @_m_WIRresult+24,AL   ; |540| 
    3015                      .dwpsn  "app_WIRmod_fun.c",541,5
    3016 000005e8 7640'         LCR       #_app_WIRmod_image_save ; |541| 
         000005e9 0553 
    3017                      ; call occurs [#_app_WIRmod_image_save] ; |541| 
    3018                      .dwpsn  "app_WIRmod_fun.c",542,5
    3019 000005ea 761F!         MOVW      DP,#_g_module_id_array+12
         000005eb 0000 
    3020 000005ec 920C!         MOV       AL,@_g_module_id_array+12 ; |542| 
    3021 000005ed 7640!         LCR       #_app_module_assign_mod ; |542| 
         000005ee 0000 
    3022                      ; call occurs [#_app_module_assign_mod] ; |542| 
    3023              DW$L$_app_WIRmod_main_task$9$E:
    3024              L77:    
    3025              DW$L$_app_WIRmod_main_task$10$B:
    3026                      .dwpsn  "app_WIRmod_fun.c",545,3
    3027 000005ef 761F!         MOVW      DP,#_m_WIRmod_sem
         000005f0 0000 
    3028 000005f1 8A00!         MOVL      XAR4,@_m_WIRmod_sem   ; |545| 
    3029 000005f2 9A32          MOVB      AL,#50                ; |545| 
    3030 000005f3 7640!         LCR       #_os_sem_pend         ; |545| 
         000005f4 0000 
    3031                      ; call occurs [#_os_sem_pend] ; |545| 
    3032 000005f5 5200          CMPB      AL,#0                 ; |545| 
    3033 000005f6 EDCD          BF        L73,NEQ               ; |545| 
    3034                      ; branchcc occurs ; |545| 
    3035              DW$L$_app_WIRmod_main_task$10$E:
    3036              DW$L$_app_WIRmod_main_task$11$B:
    3037                      .dwpsn  "app_WIRmod_fun.c",547,4
    3038 000005f7 8F00-         MOVL      XAR4,#_m_WIRresult    ; |547| 
         000005f8 0007 
    3039 000005f9 7640'         LCR       #_app_WIRmod_resulst_sys ; |547| 
         000005fa 01A0 
    3040                      ; call occurs [#_app_WIRmod_resulst_sys] ; |547| 
    3041 000005fb 5200          CMPB      AL,#0                 ; |547| 
    3042 000005fc ECC7          BF        L73,EQ                ; |547| 
    3043                      ; branchcc occurs ; |547| 
    3044              DW$L$_app_WIRmod_main_task$11$E:
    3045              DW$L$_app_WIRmod_main_task$12$B:
    3046                      .dwpsn  "app_WIRmod_fun.c",549,8
TMS320C2000 COFF Assembler PC v4.1.3 Thu Sep 15 15:05:07 2011

Tools Copyright (c) 1996-2006 Texas Instruments Incorporated
C:\DOCUME~1\ADMINI~1\LOCALS~1\Temp\TI4802                            PAGE   62

    3047 000005fd 761F-         MOVW      DP,#_m_WIR_is_draw
         000005fe 0000 
    3048 000005ff 2800-         MOV       @_m_WIR_is_draw,#1    ; |549| 
         00000600 0001 
    3049                      .dwpsn  "app_WIRmod_fun.c",550,5
    3050 00000601 8F00-         MOVL      XAR4,#_m_WIRresult    ; |550| 
         00000602 0007 
    3051 00000603 7640'         LCR       #_app_WIRmod_simpleness_alg ; |550| 
         00000604 048D 
    3052                      ; call occurs [#_app_WIRmod_simpleness_alg] ; |550| 
    3053                      .dwpsn  "app_WIRmod_fun.c",551,5
    3054 00000605 761F!         MOVW      DP,#_m_alg_presult
         00000606 0000 
    3055 00000607 8A00!         MOVL      XAR4,@_m_alg_presult  ; |551| 
    3056 00000608 D044          MOVB      XAR0,#68              ; |551| 
    3057 00000609 9294          MOV       AL,*+XAR4[AR0]        ; |551| 
    3058 0000060a 7640!         LCR       #_app_WIRmod_draw_creat ; |551| 
         0000060b 0000 
    3059                      ; call occurs [#_app_WIRmod_draw_creat] ; |551| 
    3060                      .dwpsn  "app_WIRmod_fun.c",552,5
    3061 0000060c 8F00-         MOVL      XAR4,#_m_WIRresult    ; |552| 
         0000060d 0007 
    3062 0000060e 7640!         LCR       #_app_WIRmod_result_display ; |552| 
         0000060f 0000 
    3063                      ; call occurs [#_app_WIRmod_result_display] ; |552| 
    3064                      .dwpsn  "app_WIRmod_fun.c",553,5
    3065 00000610 8F00-         MOVL      XAR4,#_m_WIRresult    ; |553| 
         00000611 0007 
    3066 00000612 7640!         LCR       #_app_WIRmod_componet_auto_link ; |553| 
         00000613 0000 
    3067                      ; call occurs [#_app_WIRmod_componet_auto_link] ; |553| 
    3068                      .dwpsn  "app_WIRmod_fun.c",524,10
    3069 00000614 6FAF          B         L73,UNC               ; |524| 
    3070                      ; branch occurs ; |524| 
    3071              DW$L$_app_WIRmod_main_task$12$E:
    3072                      .dwcfa  0x1d, -2
    3073              
    3074              DW$192  .dwtag  DW_TAG_loop
    3075                      .dwattr DW$192, DW_AT_name("C:\DOCUME~1\ADMINI~1\LOCALS~1\Temp\TI4802:L73:1:1316070306")
    3076                      .dwattr DW$192, DW_AT_begin_file("app_WIRmod_fun.c")
    3077                      .dwattr DW$192, DW_AT_begin_line(0x20c)
    3078                      .dwattr DW$192, DW_AT_end_line(0x22c)
    3079              DW$193  .dwtag  DW_TAG_loop_range
    3080                      .dwattr DW$193, DW_AT_low_pc(DW$L$_app_WIRmod_main_task$2$B)
    3081                      .dwattr DW$193, DW_AT_high_pc(DW$L$_app_WIRmod_main_task$2$E)
    3082              DW$194  .dwtag  DW_TAG_loop_range
    3083                      .dwattr DW$194, DW_AT_low_pc(DW$L$_app_WIRmod_main_task$3$B)
    3084                      .dwattr DW$194, DW_AT_high_pc(DW$L$_app_WIRmod_main_task$3$E)
    3085              DW$195  .dwtag  DW_TAG_loop_range
    3086                      .dwattr DW$195, DW_AT_low_pc(DW$L$_app_WIRmod_main_task$4$B)
    3087                      .dwattr DW$195, DW_AT_high_pc(DW$L$_app_WIRmod_main_task$4$E)
    3088              DW$196  .dwtag  DW_TAG_loop_range
    3089                      .dwattr DW$196, DW_AT_low_pc(DW$L$_app_WIRmod_main_task$5$B)
    3090                      .dwattr DW$196, DW_AT_high_pc(DW$L$_app_WIRmod_main_task$5$E)
    3091              DW$197  .dwtag  DW_TAG_loop_range
TMS320C2000 COFF Assembler PC v4.1.3 Thu Sep 15 15:05:07 2011

Tools Copyright (c) 1996-2006 Texas Instruments Incorporated
C:\DOCUME~1\ADMINI~1\LOCALS~1\Temp\TI4802                            PAGE   63

    3092                      .dwattr DW$197, DW_AT_low_pc(DW$L$_app_WIRmod_main_task$6$B)
    3093                      .dwattr DW$197, DW_AT_high_pc(DW$L$_app_WIRmod_main_task$6$E)
    3094              DW$198  .dwtag  DW_TAG_loop_range
    3095                      .dwattr DW$198, DW_AT_low_pc(DW$L$_app_WIRmod_main_task$7$B)
    3096                      .dwattr DW$198, DW_AT_high_pc(DW$L$_app_WIRmod_main_task$7$E)
    3097              DW$199  .dwtag  DW_TAG_loop_range
    3098                      .dwattr DW$199, DW_AT_low_pc(DW$L$_app_WIRmod_main_task$8$B)
    3099                      .dwattr DW$199, DW_AT_high_pc(DW$L$_app_WIRmod_main_task$8$E)
    3100              DW$200  .dwtag  DW_TAG_loop_range
    3101                      .dwattr DW$200, DW_AT_low_pc(DW$L$_app_WIRmod_main_task$9$B)
    3102                      .dwattr DW$200, DW_AT_high_pc(DW$L$_app_WIRmod_main_task$9$E)
    3103              DW$201  .dwtag  DW_TAG_loop_range
    3104                      .dwattr DW$201, DW_AT_low_pc(DW$L$_app_WIRmod_main_task$12$B)
    3105                      .dwattr DW$201, DW_AT_high_pc(DW$L$_app_WIRmod_main_task$12$E)
    3106              DW$202  .dwtag  DW_TAG_loop_range
    3107                      .dwattr DW$202, DW_AT_low_pc(DW$L$_app_WIRmod_main_task$11$B)
    3108                      .dwattr DW$202, DW_AT_high_pc(DW$L$_app_WIRmod_main_task$11$E)
    3109              DW$203  .dwtag  DW_TAG_loop_range
    3110                      .dwattr DW$203, DW_AT_low_pc(DW$L$_app_WIRmod_main_task$10$B)
    3111                      .dwattr DW$203, DW_AT_high_pc(DW$L$_app_WIRmod_main_task$10$E)
    3112                      .dwendtag DW$192
    3113              
    3114                      .dwattr DW$187, DW_AT_end_file("app_WIRmod_fun.c")
    3115                      .dwattr DW$187, DW_AT_end_line(0x22d)
    3116                      .dwattr DW$187, DW_AT_end_column(0x01)
    3117                      .dwendentry
    3118                      .dwendtag DW$187
    3119              
    3120 00000615               .sect   ".text"
    3121                      .global _app_WIRmod_fun_entry
    3122              
    3123              DW$204  .dwtag  DW_TAG_subprogram, DW_AT_name("app_WIRmod_fun_entry"), DW_AT_symbol_name("_app_WIRmod_fun_ent
    3124                      .dwattr DW$204, DW_AT_low_pc(_app_WIRmod_fun_entry)
    3125                      .dwattr DW$204, DW_AT_high_pc(0x00)
    3126                      .dwattr DW$204, DW_AT_begin_file("app_WIRmod_fun.c")
    3127                      .dwattr DW$204, DW_AT_begin_line(0x236)
    3128                      .dwattr DW$204, DW_AT_begin_column(0x06)
    3129                      .dwpsn  "app_WIRmod_fun.c",567,1
    3130              
    3131                      .dwfde DW$CIE
    3132              
    3133              ;***************************************************************
    3134              ;* FNAME: _app_WIRmod_fun_entry         FR SIZE:   0           *
    3135              ;*                                                             *
    3136              ;* FUNCTION ENVIRONMENT                                        *
    3137              ;*                                                             *
    3138              ;* FUNCTION PROPERTIES                                         *
    3139              ;*                            0 Parameter,  0 Auto,  0 SOE     *
    3140              ;***************************************************************
    3141              
    3142              _app_WIRmod_fun_entry:
    3143                      .dwcfa  0x1d, -2
    3144                      .dwcfa  0x1c, 26, 0
    3145                      .dwcfa  0x09, 40, 26
    3146                      .dwpsn  "app_WIRmod_fun.c",568,2
TMS320C2000 COFF Assembler PC v4.1.3 Thu Sep 15 15:05:07 2011

Tools Copyright (c) 1996-2006 Texas Instruments Incorporated
C:\DOCUME~1\ADMINI~1\LOCALS~1\Temp\TI4802                            PAGE   64

    3147 00000615 761F-         MOVW      DP,#_m_WIR_cosoffset
         00000616 0000 
    3148 00000617 2802-         MOV       @_m_WIR_cosoffset,#10 ; |568| 
         00000618 000A 
    3149                      .dwpsn  "app_WIRmod_fun.c",569,2
    3150 00000619 2B00-         MOV       @_m_WIR_is_draw,#0    ; |569| 
    3151                      .dwpsn  "app_WIRmod_fun.c",570,2
    3152 0000061a 2801-         MOV       @_m_WIR_jxmod,#3      ; |570| 
         0000061b 0003 
    3153                      .dwpsn  "app_WIRmod_fun.c",571,2
    3154 0000061c 9A00          MOVB      AL,#0
    3155 0000061d 8F00-         MOVL      XAR4,#_m_WIRresult    ; |571| 
         0000061e 0007 
    3156 0000061f 9B19          MOVB      AH,#25                ; |571| 
    3157 00000620 7640!         LCR       #_global_memset       ; |571| 
         00000621 0000 
    3158                      ; call occurs [#_global_memset] ; |571| 
    3159                      .dwpsn  "app_WIRmod_fun.c",572,2
    3160 00000622 7640!         LCR       #_ELEcomponent_maneger_init ; |572| 
         00000623 0000 
    3161                      ; call occurs [#_ELEcomponent_maneger_init] ; |572| 
    3162                      .dwpsn  "app_WIRmod_fun.c",573,2
    3163 00000624 8F00'         MOVL      XAR4,#_app_WIRmod_main_task ; |573| 
         00000625 05B9 
    3164 00000626 9A04          MOVB      AL,#4                 ; |573| 
    3165 00000627 7640!         LCR       #_os_task_assign_stk_build ; |573| 
         00000628 0000 
    3166                      ; call occurs [#_os_task_assign_stk_build] ; |573| 
    3167 00000629 761F-         MOVW      DP,#_m_WIR_main_task_pro
         0000062a 0000 
    3168 0000062b 9603-         MOV       @_m_WIR_main_task_pro,AL ; |573| 
    3169                      .dwpsn  "app_WIRmod_fun.c",575,2
    3170 0000062c 8F00+         MOVL      XAR4,#FSL26           ; |575| 
         0000062d 00C2 
    3171 0000062e 7640!         LCR       #_os_task_name_set    ; |575| 
         0000062f 0000 
    3172                      ; call occurs [#_os_task_name_set] ; |575| 
    3173                      .dwpsn  "app_WIRmod_fun.c",576,2
    3174 00000630 7640!         LCR       #_app_WIRmod_window_creat ; |576| 
         00000631 0000 
    3175                      ; call occurs [#_app_WIRmod_window_creat] ; |576| 
    3176                      .dwpsn  "app_WIRmod_fun.c",577,2
    3177 00000632 7640!         LCR       #_app_WIRmod_alg_entery ; |577| 
         00000633 0000 
    3178                      ; call occurs [#_app_WIRmod_alg_entery] ; |577| 
    3179                      .dwpsn  "app_WIRmod_fun.c",578,2
    3180                      .dwpsn  "app_WIRmod_fun.c",579,1
    3181 00000634 0006          LRETR
    3182                      ; return occurs
    3183                      .dwattr DW$204, DW_AT_end_file("app_WIRmod_fun.c")
    3184                      .dwattr DW$204, DW_AT_end_line(0x243)
    3185                      .dwattr DW$204, DW_AT_end_column(0x01)
    3186                      .dwendentry
    3187                      .dwendtag DW$204
    3188              
TMS320C2000 COFF Assembler PC v4.1.3 Thu Sep 15 15:05:07 2011

Tools Copyright (c) 1996-2006 Texas Instruments Incorporated
C:\DOCUME~1\ADMINI~1\LOCALS~1\Temp\TI4802                            PAGE   65

    3189 00000635               .sect   ".text"
    3190                      .global _app_WIRmod_fun_exit
    3191              
    3192              DW$205  .dwtag  DW_TAG_subprogram, DW_AT_name("app_WIRmod_fun_exit"), DW_AT_symbol_name("_app_WIRmod_fun_exit
    3193                      .dwattr DW$205, DW_AT_low_pc(_app_WIRmod_fun_exit)
    3194                      .dwattr DW$205, DW_AT_high_pc(0x00)
    3195                      .dwattr DW$205, DW_AT_begin_file("app_WIRmod_fun.c")
    3196                      .dwattr DW$205, DW_AT_begin_line(0x24c)
    3197                      .dwattr DW$205, DW_AT_begin_column(0x06)
    3198                      .dwpsn  "app_WIRmod_fun.c",589,1
    3199              
    3200                      .dwfde DW$CIE
    3201              
    3202              ;***************************************************************
    3203              ;* FNAME: _app_WIRmod_fun_exit          FR SIZE:   0           *
    3204              ;*                                                             *
    3205              ;* FUNCTION ENVIRONMENT                                        *
    3206              ;*                                                             *
    3207              ;* FUNCTION PROPERTIES                                         *
    3208              ;*                            0 Parameter,  0 Auto,  0 SOE     *
    3209              ;***************************************************************
    3210              
    3211              _app_WIRmod_fun_exit:
    3212                      .dwcfa  0x1d, -2
    3213                      .dwcfa  0x1c, 26, 0
    3214                      .dwcfa  0x09, 40, 26
    3215                      .dwpsn  "app_WIRmod_fun.c",590,2
    3216 00000635 761F-         MOVW      DP,#_m_WIR_main_task_pro
         00000636 0000 
    3217 00000637 9203-         MOV       AL,@_m_WIR_main_task_pro ; |590| 
    3218 00000638 52BE          CMPB      AL,#190               ; |590| 
    3219 00000639 EC07          BF        L78,EQ                ; |590| 
    3220                      ; branchcc occurs ; |590| 
    3221                      .dwpsn  "app_WIRmod_fun.c",592,3
    3222 0000063a 7640!         LCR       #_os_task_delete      ; |592| 
         0000063b 0000 
    3223                      ; call occurs [#_os_task_delete] ; |592| 
    3224                      .dwpsn  "app_WIRmod_fun.c",593,3
    3225 0000063c 761F-         MOVW      DP,#_m_WIR_main_task_pro
         0000063d 0000 
    3226 0000063e 2803-         MOV       @_m_WIR_main_task_pro,#190 ; |593| 
         0000063f 00BE 
    3227              L78:    
    3228                      .dwpsn  "app_WIRmod_fun.c",595,2
    3229 00000640 7640!         LCR       #_app_WIRmod_alg_exit ; |595| 
         00000641 0000 
    3230                      ; call occurs [#_app_WIRmod_alg_exit] ; |595| 
    3231                      .dwpsn  "app_WIRmod_fun.c",596,2
    3232                      .dwpsn  "app_WIRmod_fun.c",597,1
    3233 00000642 0006          LRETR
    3234                      ; return occurs
    3235                      .dwattr DW$205, DW_AT_end_file("app_WIRmod_fun.c")
    3236                      .dwattr DW$205, DW_AT_end_line(0x255)
    3237                      .dwattr DW$205, DW_AT_end_column(0x01)
    3238                      .dwendentry
TMS320C2000 COFF Assembler PC v4.1.3 Thu Sep 15 15:05:07 2011

Tools Copyright (c) 1996-2006 Texas Instruments Incorporated
C:\DOCUME~1\ADMINI~1\LOCALS~1\Temp\TI4802                            PAGE   66

    3239                      .dwendtag DW$205
    3240              
    3241              ;***************************************************************
    3242              ;* FAR STRINGS                                                 *
    3243              ;***************************************************************
    3244 0000002e               .sect   ".econst"
    3245                      .align  2
    3246 0000002e 0061  FSL1:   .string "abc",0
         0000002f 0062 
         00000030 0063 
         00000031 0000 
    3247                      .align  2
    3248 00000032 0061  FSL2:   .string "acb",0
         00000033 0063 
         00000034 0062 
         00000035 0000 
    3249                      .align  2
    3250 00000036 0062  FSL3:   .string "bca",0
         00000037 0063 
         00000038 0061 
         00000039 0000 
    3251                      .align  2
    3252 0000003a 0062  FSL4:   .string "bac",0
         0000003b 0061 
         0000003c 0063 
         0000003d 0000 
    3253                      .align  2
    3254 0000003e 0063  FSL5:   .string "cba",0
         0000003f 0062 
         00000040 0061 
         00000041 0000 
    3255                      .align  2
    3256 00000042 0063  FSL6:   .string "cab",0
         00000043 0061 
         00000044 0062 
         00000045 0000 
    3257                      .align  2
    3258 00000046 0031  FSL7:   .string "1.00",0
         00000047 002E 
         00000048 0030 
         00000049 0030 
         0000004a 0000 
    3259                      .align  2
    3260 0000004c 004C  FSL8:   .string "L",0
         0000004d 0000 
    3261                      .align  2
    3262 0000004e 0043  FSL9:   .string "C",0
         0000004f 0000 
    3263                      .align  2
    3264 00000050 00BD  FSL10:  .string 189,211,207,223,188,236,178,233,"(",200,253,207,224,200,253,207
         00000051 00D3 
         00000052 00CF 
         00000053 00DF 
         00000054 00BC 
         00000055 00EC 
TMS320C2000 COFF Assembler PC v4.1.3 Thu Sep 15 15:05:07 2011

Tools Copyright (c) 1996-2006 Texas Instruments Incorporated
C:\DOCUME~1\ADMINI~1\LOCALS~1\Temp\TI4802                            PAGE   67

         00000056 00B2 
         00000057 00E9 
         00000058 0028 
         00000059 00C8 
         0000005a 00FD 
         0000005b 00CF 
         0000005c 00E0 
         0000005d 00C8 
         0000005e 00FD 
         0000005f 00CF 
    3265 00000060 00DF          .string 223,")",0
         00000061 0029 
         00000062 0000 
    3266                      .align  2
    3267 00000064 00BD  FSL11:  .string 189,211,207,223,188,236,178,233,"(",200,253,207,224,203,196,207
         00000065 00D3 
         00000066 00CF 
         00000067 00DF 
         00000068 00BC 
         00000069 00EC 
         0000006a 00B2 
         0000006b 00E9 
         0000006c 0028 
         0000006d 00C8 
         0000006e 00FD 
         0000006f 00CF 
         00000070 00E0 
         00000071 00CB 
         00000072 00C4 
         00000073 00CF 
    3268 00000074 00DF          .string 223,")",0
         00000075 0029 
         00000076 0000 
    3269                      .align  2
    3270 00000078 0055  FSL12:  .string "UaUbUc",0
         00000079 0061 
         0000007a 0055 
         0000007b 0062 
         0000007c 0055 
         0000007d 0063 
         0000007e 0000 
    3271                      .align  2
    3272 00000080 0069  FSL13:  .string "iaic",0
         00000081 0061 
         00000082 0069 
         00000083 0063 
         00000084 0000 
    3273                      .align  2
    3274 00000086 0069  FSL14:  .string "iaibic",0
         00000087 0061 
         00000088 0069 
         00000089 0062 
         0000008a 0069 
         0000008b 0063 
         0000008c 0000 
TMS320C2000 COFF Assembler PC v4.1.3 Thu Sep 15 15:05:07 2011

Tools Copyright (c) 1996-2006 Texas Instruments Incorporated
C:\DOCUME~1\ADMINI~1\LOCALS~1\Temp\TI4802                            PAGE   68

    3275                      .align  2
    3276 0000008e 0055  FSL15:  .string "Ua",0
         0000008f 0061 
         00000090 0000 
    3277                      .align  2
    3278 00000092 0055  FSL16:  .string "Ub",0
         00000093 0062 
         00000094 0000 
    3279                      .align  2
    3280 00000096 0055  FSL17:  .string "Uc",0
         00000097 0063 
         00000098 0000 
    3281                      .align  2
    3282 0000009a 0069  FSL18:  .string "ia",0
         0000009b 0061 
         0000009c 0000 
    3283                      .align  2
    3284 0000009e 002D  FSL19:  .string "-ia",0
         0000009f 0069 
         000000a0 0061 
         000000a1 0000 
    3285                      .align  2
    3286 000000a2 0069  FSL20:  .string "ib",0
         000000a3 0062 
         000000a4 0000 
    3287                      .align  2
    3288 000000a6 002D  FSL21:  .string "-ib",0
         000000a7 0069 
         000000a8 0062 
         000000a9 0000 
    3289                      .align  2
    3290 000000aa 0069  FSL22:  .string "ic",0
         000000ab 0063 
         000000ac 0000 
    3291                      .align  2
    3292 000000ae 002D  FSL23:  .string "-ic",0
         000000af 0069 
         000000b0 0063 
         000000b1 0000 
    3293                      .align  2
    3294 000000b2 0057  FSL24:  .string "WIRDATA",0
         000000b3 0049 
         000000b4 0052 
         000000b5 0044 
         000000b6 0041 
         000000b7 0054 
         000000b8 0041 
         000000b9 0000 
    3295                      .align  2
    3296 000000ba 0057  FSL25:  .string "WIRtask",0
         000000bb 0049 
         000000bc 0052 
         000000bd 0074 
         000000be 0061 
         000000bf 0073 
TMS320C2000 COFF Assembler PC v4.1.3 Thu Sep 15 15:05:07 2011

Tools Copyright (c) 1996-2006 Texas Instruments Incorporated
C:\DOCUME~1\ADMINI~1\LOCALS~1\Temp\TI4802                            PAGE   69

         000000c0 006B 
         000000c1 0000 
    3297                      .align  2
    3298 000000c2 0057  FSL26:  .string "WIRmod--Main task",0
         000000c3 0049 
         000000c4 0052 
         000000c5 006D 
         000000c6 006F 
         000000c7 0064 
         000000c8 002D 
         000000c9 002D 
         000000ca 004D 
         000000cb 0061 
         000000cc 0069 
         000000cd 006E 
         000000ce 0020 
         000000cf 0074 
         000000d0 0061 
         000000d1 0073 
         000000d2 006B 
         000000d3 0000 
    3299              ;***************************************************************
    3300              ;* UNDEFINED EXTERNAL REFERENCES                               *
    3301              ;***************************************************************
    3302                      .global _app_WIRmod_window_creat
    3303                      .global _app_WIRmod_alg_exit
    3304                      .global _app_WIRmod_result_lostUI_display
    3305                      .global _app_WIRmod_result_display
    3306                      .global _app_WIRmod_componet_auto_link
    3307                      .global _GUI_clean_window
    3308                      .global _GUI_window_hwin_release
    3309                      .global _GUI_3D_window_title_mod
    3310                      .global _app_WIRmod_alg_entery
    3311                      .global _ELEcomponent_maneger_init
    3312                      .global _app_WIRmod_draw_creat
    3313                      .global _global_memset
    3314                      .global _global_memcpy
    3315                      .global _app_free
    3316                      .global _global_string_filter
    3317                      .global _app_module_switch_last_mod
    3318                      .global _OSTimeDly
    3319                      .global _app_module_pos_name_set
    3320                      .global _app_module_assign_mod
    3321                      .global _GUI_set_Bgcolor
    3322                      .global _GUI_window_hwin_req
    3323                      .global _GUI_set_Fgcolor
    3324                      .global _app_global_key_dummy_press
    3325                      .global _os_task_name_set
    3326                      .global _os_task_delete
    3327                      .global _global_strcat
    3328                      .global _os_sem_pend
    3329                      .global _global_memcmp
    3330                      .global _app_global_key_obtain
    3331                      .global _GUI_drop_list_unfold
    3332                      .global _os_task_assign_stk_build
TMS320C2000 COFF Assembler PC v4.1.3 Thu Sep 15 15:05:07 2011

Tools Copyright (c) 1996-2006 Texas Instruments Incorporated
C:\DOCUME~1\ADMINI~1\LOCALS~1\Temp\TI4802                            PAGE   70

    3333                      .global _f_close
    3334                      .global _f_open
    3335                      .global _f_write
    3336                      .global _m_draw_win
    3337                      .global _m_WIR_cos_drop_list
    3338                      .global _app_malloc
    3339                      .global _global_atof
    3340                      .global _global_string_locate_first
    3341                      .global _global_strcpy
    3342                      .global _m_alg_presult
    3343                      .global _m_WIR_win
    3344                      .global _m_WIRmod_sem
    3345                      .global _g_module_id_array
    3346                      .global FS$$CMP
    3347              
    3348              ;***************************************************************
    3349              ;* TYPE INFORMATION                                            *
    3350              ;***************************************************************
    3351              DW$T$3  .dwtag  DW_TAG_pointer_type
    3352                      .dwattr DW$T$3, DW_AT_address_class(0x16)
    3353              
    3354              DW$T$54 .dwtag  DW_TAG_subroutine_type, DW_AT_type(*DW$T$3)
    3355                      .dwattr DW$T$54, DW_AT_language(DW_LANG_C)
    3356              DW$206  .dwtag  DW_TAG_formal_parameter, DW_AT_type(*DW$T$23)
    3357                      .dwendtag DW$T$54
    3358              
    3359              
    3360              DW$T$31 .dwtag  DW_TAG_subroutine_type
    3361                      .dwattr DW$T$31, DW_AT_language(DW_LANG_C)
    3362              DW$207  .dwtag  DW_TAG_formal_parameter, DW_AT_type(*DW$T$3)
    3363                      .dwendtag DW$T$31
    3364              
    3365              DW$T$32 .dwtag  DW_TAG_pointer_type, DW_AT_type(*DW$T$31)
    3366                      .dwattr DW$T$32, DW_AT_address_class(0x16)
    3367              
    3368              DW$T$56 .dwtag  DW_TAG_subroutine_type
    3369                      .dwattr DW$T$56, DW_AT_language(DW_LANG_C)
    3370              DW$208  .dwtag  DW_TAG_formal_parameter, DW_AT_type(*DW$T$20)
    3371                      .dwendtag DW$T$56
    3372              
    3373              
    3374              DW$T$58 .dwtag  DW_TAG_subroutine_type
    3375                      .dwattr DW$T$58, DW_AT_language(DW_LANG_C)
    3376              
    3377              DW$T$60 .dwtag  DW_TAG_subroutine_type
    3378                      .dwattr DW$T$60, DW_AT_language(DW_LANG_C)
    3379              DW$209  .dwtag  DW_TAG_formal_parameter, DW_AT_type(*DW$T$23)
    3380                      .dwendtag DW$T$60
    3381              
    3382              
    3383              DW$T$62 .dwtag  DW_TAG_subroutine_type
    3384                      .dwattr DW$T$62, DW_AT_language(DW_LANG_C)
    3385              DW$210  .dwtag  DW_TAG_formal_parameter, DW_AT_type(*DW$T$52)
    3386                      .dwendtag DW$T$62
    3387              
TMS320C2000 COFF Assembler PC v4.1.3 Thu Sep 15 15:05:07 2011

Tools Copyright (c) 1996-2006 Texas Instruments Incorporated
C:\DOCUME~1\ADMINI~1\LOCALS~1\Temp\TI4802                            PAGE   71

    3388              
    3389              DW$T$64 .dwtag  DW_TAG_subroutine_type
    3390                      .dwattr DW$T$64, DW_AT_language(DW_LANG_C)
    3391              DW$211  .dwtag  DW_TAG_formal_parameter, DW_AT_type(*DW$T$3)
    3392              DW$212  .dwtag  DW_TAG_formal_parameter, DW_AT_type(*DW$T$3)
    3393              DW$213  .dwtag  DW_TAG_formal_parameter, DW_AT_type(*DW$T$23)
    3394                      .dwendtag DW$T$64
    3395              
    3396              
    3397              DW$T$66 .dwtag  DW_TAG_subroutine_type
    3398                      .dwattr DW$T$66, DW_AT_language(DW_LANG_C)
    3399              DW$214  .dwtag  DW_TAG_formal_parameter, DW_AT_type(*DW$T$3)
    3400              DW$215  .dwtag  DW_TAG_formal_parameter, DW_AT_type(*DW$T$6)
    3401              DW$216  .dwtag  DW_TAG_formal_parameter, DW_AT_type(*DW$T$23)
    3402                      .dwendtag DW$T$66
    3403              
    3404              
    3405              DW$T$68 .dwtag  DW_TAG_subroutine_type
    3406                      .dwattr DW$T$68, DW_AT_language(DW_LANG_C)
    3407              DW$217  .dwtag  DW_TAG_formal_parameter, DW_AT_type(*DW$T$52)
    3408              DW$218  .dwtag  DW_TAG_formal_parameter, DW_AT_type(*DW$T$29)
    3409                      .dwendtag DW$T$68
    3410              
    3411              
    3412              DW$T$70 .dwtag  DW_TAG_subroutine_type
    3413                      .dwattr DW$T$70, DW_AT_language(DW_LANG_C)
    3414              DW$219  .dwtag  DW_TAG_formal_parameter, DW_AT_type(*DW$T$6)
    3415                      .dwendtag DW$T$70
    3416              
    3417              
    3418              DW$T$72 .dwtag  DW_TAG_subroutine_type
    3419                      .dwattr DW$T$72, DW_AT_language(DW_LANG_C)
    3420              DW$220  .dwtag  DW_TAG_formal_parameter, DW_AT_type(*DW$T$11)
    3421                      .dwendtag DW$T$72
    3422              
    3423              
    3424              DW$T$76 .dwtag  DW_TAG_subroutine_type
    3425                      .dwattr DW$T$76, DW_AT_language(DW_LANG_C)
    3426              DW$221  .dwtag  DW_TAG_formal_parameter, DW_AT_type(*DW$T$75)
    3427                      .dwendtag DW$T$76
    3428              
    3429              
    3430              DW$T$78 .dwtag  DW_TAG_subroutine_type
    3431                      .dwattr DW$T$78, DW_AT_language(DW_LANG_C)
    3432              DW$222  .dwtag  DW_TAG_formal_parameter, DW_AT_type(*DW$T$75)
    3433              DW$223  .dwtag  DW_TAG_formal_parameter, DW_AT_type(*DW$T$52)
    3434                      .dwendtag DW$T$78
    3435              
    3436              DW$T$81 .dwtag  DW_TAG_pointer_type, DW_AT_type(*DW$T$80)
    3437                      .dwattr DW$T$81, DW_AT_address_class(0x16)
    3438              
    3439              DW$T$84 .dwtag  DW_TAG_subroutine_type
    3440                      .dwattr DW$T$84, DW_AT_language(DW_LANG_C)
    3441              DW$224  .dwtag  DW_TAG_formal_parameter, DW_AT_type(*DW$T$83)
    3442                      .dwendtag DW$T$84
TMS320C2000 COFF Assembler PC v4.1.3 Thu Sep 15 15:05:07 2011

Tools Copyright (c) 1996-2006 Texas Instruments Incorporated
C:\DOCUME~1\ADMINI~1\LOCALS~1\Temp\TI4802                            PAGE   72

    3443              
    3444              
    3445              DW$T$88 .dwtag  DW_TAG_subroutine_type
    3446                      .dwattr DW$T$88, DW_AT_language(DW_LANG_C)
    3447              DW$225  .dwtag  DW_TAG_formal_parameter, DW_AT_type(*DW$T$87)
    3448                      .dwendtag DW$T$88
    3449              
    3450              
    3451              DW$T$90 .dwtag  DW_TAG_subroutine_type
    3452                      .dwattr DW$T$90, DW_AT_language(DW_LANG_C)
    3453              DW$226  .dwtag  DW_TAG_formal_parameter, DW_AT_type(*DW$T$87)
    3454              DW$227  .dwtag  DW_TAG_formal_parameter, DW_AT_type(*DW$T$52)
    3455                      .dwendtag DW$T$90
    3456              
    3457              
    3458              DW$T$92 .dwtag  DW_TAG_subroutine_type
    3459                      .dwattr DW$T$92, DW_AT_language(DW_LANG_C)
    3460              DW$228  .dwtag  DW_TAG_formal_parameter, DW_AT_type(*DW$T$52)
    3461              DW$229  .dwtag  DW_TAG_formal_parameter, DW_AT_type(*DW$T$52)
    3462                      .dwendtag DW$T$92
    3463              
    3464              
    3465              DW$T$94 .dwtag  DW_TAG_subroutine_type
    3466                      .dwattr DW$T$94, DW_AT_language(DW_LANG_C)
    3467              DW$230  .dwtag  DW_TAG_formal_parameter, DW_AT_type(*DW$T$29)
    3468              DW$231  .dwtag  DW_TAG_formal_parameter, DW_AT_type(*DW$T$52)
    3469              DW$232  .dwtag  DW_TAG_formal_parameter, DW_AT_type(*DW$T$29)
    3470                      .dwendtag DW$T$94
    3471              
    3472              
    3473              DW$T$96 .dwtag  DW_TAG_subroutine_type
    3474                      .dwattr DW$T$96, DW_AT_language(DW_LANG_C)
    3475              DW$233  .dwtag  DW_TAG_formal_parameter, DW_AT_type(*DW$T$52)
    3476              DW$234  .dwtag  DW_TAG_formal_parameter, DW_AT_type(*DW$T$87)
    3477              DW$235  .dwtag  DW_TAG_formal_parameter, DW_AT_type(*DW$T$6)
    3478                      .dwendtag DW$T$96
    3479              
    3480              DW$T$6  .dwtag  DW_TAG_base_type, DW_AT_name("unsigned char")
    3481                      .dwattr DW$T$6, DW_AT_encoding(DW_ATE_unsigned_char)
    3482                      .dwattr DW$T$6, DW_AT_byte_size(0x01)
    3483              DW$T$37 .dwtag  DW_TAG_typedef, DW_AT_name("BYTE"), DW_AT_type(*DW$T$6)
    3484                      .dwattr DW$T$37, DW_AT_language(DW_LANG_C)
    3485              
    3486              DW$T$101        .dwtag  DW_TAG_subroutine_type, DW_AT_type(*DW$T$6)
    3487                      .dwattr DW$T$101, DW_AT_language(DW_LANG_C)
    3488              DW$236  .dwtag  DW_TAG_formal_parameter, DW_AT_type(*DW$T$100)
    3489              DW$237  .dwtag  DW_TAG_formal_parameter, DW_AT_type(*DW$T$11)
    3490                      .dwendtag DW$T$101
    3491              
    3492              
    3493              DW$T$103        .dwtag  DW_TAG_subroutine_type, DW_AT_type(*DW$T$6)
    3494                      .dwattr DW$T$103, DW_AT_language(DW_LANG_C)
    3495              DW$238  .dwtag  DW_TAG_formal_parameter, DW_AT_type(*DW$T$32)
    3496              DW$239  .dwtag  DW_TAG_formal_parameter, DW_AT_type(*DW$T$23)
    3497                      .dwendtag DW$T$103
TMS320C2000 COFF Assembler PC v4.1.3 Thu Sep 15 15:05:07 2011

Tools Copyright (c) 1996-2006 Texas Instruments Incorporated
C:\DOCUME~1\ADMINI~1\LOCALS~1\Temp\TI4802                            PAGE   73

    3498              
    3499              
    3500              DW$T$105        .dwtag  DW_TAG_subroutine_type, DW_AT_type(*DW$T$6)
    3501                      .dwattr DW$T$105, DW_AT_language(DW_LANG_C)
    3502              DW$240  .dwtag  DW_TAG_formal_parameter, DW_AT_type(*DW$T$6)
    3503              DW$241  .dwtag  DW_TAG_formal_parameter, DW_AT_type(*DW$T$52)
    3504                      .dwendtag DW$T$105
    3505              
    3506              
    3507              DW$T$107        .dwtag  DW_TAG_subroutine_type, DW_AT_type(*DW$T$6)
    3508                      .dwattr DW$T$107, DW_AT_language(DW_LANG_C)
    3509              DW$242  .dwtag  DW_TAG_formal_parameter, DW_AT_type(*DW$T$6)
    3510                      .dwendtag DW$T$107
    3511              
    3512              DW$T$109        .dwtag  DW_TAG_typedef, DW_AT_name("BOOL"), DW_AT_type(*DW$T$6)
    3513                      .dwattr DW$T$109, DW_AT_language(DW_LANG_C)
    3514              
    3515              DW$T$110        .dwtag  DW_TAG_subroutine_type, DW_AT_type(*DW$T$109)
    3516                      .dwattr DW$T$110, DW_AT_language(DW_LANG_C)
    3517              DW$243  .dwtag  DW_TAG_formal_parameter, DW_AT_type(*DW$T$3)
    3518              DW$244  .dwtag  DW_TAG_formal_parameter, DW_AT_type(*DW$T$3)
    3519              DW$245  .dwtag  DW_TAG_formal_parameter, DW_AT_type(*DW$T$23)
    3520                      .dwendtag DW$T$110
    3521              
    3522              
    3523              DW$T$112        .dwtag  DW_TAG_subroutine_type, DW_AT_type(*DW$T$109)
    3524                      .dwattr DW$T$112, DW_AT_language(DW_LANG_C)
    3525              DW$246  .dwtag  DW_TAG_formal_parameter, DW_AT_type(*DW$T$87)
    3526                      .dwendtag DW$T$112
    3527              
    3528              DW$T$114        .dwtag  DW_TAG_pointer_type, DW_AT_type(*DW$T$6)
    3529                      .dwattr DW$T$114, DW_AT_address_class(0x16)
    3530              
    3531              DW$T$115        .dwtag  DW_TAG_subroutine_type, DW_AT_type(*DW$T$6)
    3532                      .dwattr DW$T$115, DW_AT_language(DW_LANG_C)
    3533              DW$247  .dwtag  DW_TAG_formal_parameter, DW_AT_type(*DW$T$114)
    3534              DW$248  .dwtag  DW_TAG_formal_parameter, DW_AT_type(*DW$T$23)
    3535                      .dwendtag DW$T$115
    3536              
    3537              DW$T$10 .dwtag  DW_TAG_base_type, DW_AT_name("int")
    3538                      .dwattr DW$T$10, DW_AT_encoding(DW_ATE_signed)
    3539                      .dwattr DW$T$10, DW_AT_byte_size(0x01)
    3540              
    3541              DW$T$117        .dwtag  DW_TAG_subroutine_type, DW_AT_type(*DW$T$10)
    3542                      .dwattr DW$T$117, DW_AT_language(DW_LANG_C)
    3543              DW$T$11 .dwtag  DW_TAG_base_type, DW_AT_name("unsigned int")
    3544                      .dwattr DW$T$11, DW_AT_encoding(DW_ATE_unsigned)
    3545                      .dwattr DW$T$11, DW_AT_byte_size(0x01)
    3546              DW$T$20 .dwtag  DW_TAG_typedef, DW_AT_name("INT16U"), DW_AT_type(*DW$T$11)
    3547                      .dwattr DW$T$20, DW_AT_language(DW_LANG_C)
    3548              DW$T$23 .dwtag  DW_TAG_typedef, DW_AT_name("Bsize_t"), DW_AT_type(*DW$T$11)
    3549                      .dwattr DW$T$23, DW_AT_language(DW_LANG_C)
    3550              
    3551              DW$T$120        .dwtag  DW_TAG_subroutine_type, DW_AT_type(*DW$T$23)
    3552                      .dwattr DW$T$120, DW_AT_language(DW_LANG_C)
TMS320C2000 COFF Assembler PC v4.1.3 Thu Sep 15 15:05:07 2011

Tools Copyright (c) 1996-2006 Texas Instruments Incorporated
C:\DOCUME~1\ADMINI~1\LOCALS~1\Temp\TI4802                            PAGE   74

    3553              DW$249  .dwtag  DW_TAG_formal_parameter, DW_AT_type(*DW$T$75)
    3554                      .dwendtag DW$T$120
    3555              
    3556              
    3557              DW$T$122        .dwtag  DW_TAG_subroutine_type, DW_AT_type(*DW$T$23)
    3558                      .dwattr DW$T$122, DW_AT_language(DW_LANG_C)
    3559              
    3560              DW$T$124        .dwtag  DW_TAG_subroutine_type, DW_AT_type(*DW$T$23)
    3561                      .dwattr DW$T$124, DW_AT_language(DW_LANG_C)
    3562              DW$250  .dwtag  DW_TAG_formal_parameter, DW_AT_type(*DW$T$52)
    3563                      .dwendtag DW$T$124
    3564              
    3565              DW$T$127        .dwtag  DW_TAG_typedef, DW_AT_name("UINT"), DW_AT_type(*DW$T$11)
    3566                      .dwattr DW$T$127, DW_AT_language(DW_LANG_C)
    3567              DW$T$128        .dwtag  DW_TAG_pointer_type, DW_AT_type(*DW$T$127)
    3568                      .dwattr DW$T$128, DW_AT_address_class(0x16)
    3569              DW$T$16 .dwtag  DW_TAG_base_type, DW_AT_name("float")
    3570                      .dwattr DW$T$16, DW_AT_encoding(DW_ATE_float)
    3571                      .dwattr DW$T$16, DW_AT_byte_size(0x02)
    3572              
    3573              DW$T$129        .dwtag  DW_TAG_subroutine_type, DW_AT_type(*DW$T$16)
    3574                      .dwattr DW$T$129, DW_AT_language(DW_LANG_C)
    3575              DW$251  .dwtag  DW_TAG_formal_parameter, DW_AT_type(*DW$T$52)
    3576                      .dwendtag DW$T$129
    3577              
    3578              DW$T$100        .dwtag  DW_TAG_pointer_type, DW_AT_type(*DW$T$99)
    3579                      .dwattr DW$T$100, DW_AT_address_class(0x16)
    3580              DW$T$29 .dwtag  DW_TAG_base_type, DW_AT_name("signed char")
    3581                      .dwattr DW$T$29, DW_AT_encoding(DW_ATE_signed_char)
    3582                      .dwattr DW$T$29, DW_AT_byte_size(0x01)
    3583              
    3584              DW$T$134        .dwtag  DW_TAG_array_type, DW_AT_type(*DW$T$33)
    3585                      .dwattr DW$T$134, DW_AT_language(DW_LANG_C)
    3586                      .dwattr DW$T$134, DW_AT_byte_size(0x04)
    3587              DW$252  .dwtag  DW_TAG_subrange_type
    3588                      .dwattr DW$252, DW_AT_upper_bound(0x03)
    3589                      .dwendtag DW$T$134
    3590              
    3591              
    3592              DW$T$135        .dwtag  DW_TAG_array_type, DW_AT_type(*DW$T$33)
    3593                      .dwattr DW$T$135, DW_AT_language(DW_LANG_C)
    3594                      .dwattr DW$T$135, DW_AT_byte_size(0x06)
    3595              DW$253  .dwtag  DW_TAG_subrange_type
    3596                      .dwattr DW$253, DW_AT_upper_bound(0x05)
    3597                      .dwendtag DW$T$135
    3598              
    3599              
    3600              DW$T$48 .dwtag  DW_TAG_array_type, DW_AT_type(*DW$T$29)
    3601                      .dwattr DW$T$48, DW_AT_language(DW_LANG_C)
    3602                      .dwattr DW$T$48, DW_AT_byte_size(0x03)
    3603              DW$254  .dwtag  DW_TAG_subrange_type
    3604                      .dwattr DW$254, DW_AT_upper_bound(0x02)
    3605                      .dwendtag DW$T$48
    3606              
    3607              
TMS320C2000 COFF Assembler PC v4.1.3 Thu Sep 15 15:05:07 2011

Tools Copyright (c) 1996-2006 Texas Instruments Incorporated
C:\DOCUME~1\ADMINI~1\LOCALS~1\Temp\TI4802                            PAGE   75

    3608              DW$T$49 .dwtag  DW_TAG_array_type, DW_AT_type(*DW$T$29)
    3609                      .dwattr DW$T$49, DW_AT_language(DW_LANG_C)
    3610                      .dwattr DW$T$49, DW_AT_byte_size(0x04)
    3611              DW$255  .dwtag  DW_TAG_subrange_type
    3612                      .dwattr DW$255, DW_AT_upper_bound(0x03)
    3613                      .dwendtag DW$T$49
    3614              
    3615              DW$T$52 .dwtag  DW_TAG_pointer_type, DW_AT_type(*DW$T$29)
    3616                      .dwattr DW$T$52, DW_AT_address_class(0x16)
    3617              
    3618              DW$T$131        .dwtag  DW_TAG_subroutine_type, DW_AT_type(*DW$T$52)
    3619                      .dwattr DW$T$131, DW_AT_language(DW_LANG_C)
    3620              DW$256  .dwtag  DW_TAG_formal_parameter, DW_AT_type(*DW$T$52)
    3621              DW$257  .dwtag  DW_TAG_formal_parameter, DW_AT_type(*DW$T$52)
    3622                      .dwendtag DW$T$131
    3623              
    3624              DW$T$138        .dwtag  DW_TAG_pointer_type, DW_AT_type(*DW$T$137)
    3625                      .dwattr DW$T$138, DW_AT_address_class(0x16)
    3626              
    3627              DW$T$146        .dwtag  DW_TAG_array_type, DW_AT_type(*DW$T$29)
    3628                      .dwattr DW$T$146, DW_AT_language(DW_LANG_C)
    3629                      .dwattr DW$T$146, DW_AT_byte_size(0x06)
    3630              DW$258  .dwtag  DW_TAG_subrange_type
    3631                      .dwattr DW$258, DW_AT_upper_bound(0x05)
    3632                      .dwendtag DW$T$146
    3633              
    3634              DW$T$75 .dwtag  DW_TAG_pointer_type, DW_AT_type(*DW$T$74)
    3635                      .dwattr DW$T$75, DW_AT_address_class(0x16)
    3636              DW$T$153        .dwtag  DW_TAG_pointer_type, DW_AT_type(*DW$T$152)
    3637                      .dwattr DW$T$153, DW_AT_address_class(0x16)
    3638              DW$T$83 .dwtag  DW_TAG_pointer_type, DW_AT_type(*DW$T$82)
    3639                      .dwattr DW$T$83, DW_AT_address_class(0x16)
    3640              DW$T$86 .dwtag  DW_TAG_typedef, DW_AT_name("WIRresult_t"), DW_AT_type(*DW$T$50)
    3641                      .dwattr DW$T$86, DW_AT_language(DW_LANG_C)
    3642              DW$T$87 .dwtag  DW_TAG_pointer_type, DW_AT_type(*DW$T$86)
    3643                      .dwattr DW$T$87, DW_AT_address_class(0x16)
    3644              DW$T$160        .dwtag  DW_TAG_typedef, DW_AT_name("module_id_t"), DW_AT_type(*DW$T$51)
    3645                      .dwattr DW$T$160, DW_AT_language(DW_LANG_C)
    3646              
    3647              DW$T$163        .dwtag  DW_TAG_array_type, DW_AT_type(*DW$T$162)
    3648                      .dwattr DW$T$163, DW_AT_language(DW_LANG_C)
    3649                      .dwattr DW$T$163, DW_AT_byte_size(0x18)
    3650              DW$259  .dwtag  DW_TAG_subrange_type
    3651                      .dwattr DW$259, DW_AT_upper_bound(0x05)
    3652                      .dwendtag DW$T$163
    3653              
    3654              DW$T$151        .dwtag  DW_TAG_typedef, DW_AT_name("FRESULT"), DW_AT_type(*DW$T$150)
    3655                      .dwattr DW$T$151, DW_AT_language(DW_LANG_C)
    3656              
    3657              DW$T$154        .dwtag  DW_TAG_subroutine_type, DW_AT_type(*DW$T$151)
    3658                      .dwattr DW$T$154, DW_AT_language(DW_LANG_C)
    3659              DW$260  .dwtag  DW_TAG_formal_parameter, DW_AT_type(*DW$T$153)
    3660              DW$261  .dwtag  DW_TAG_formal_parameter, DW_AT_type(*DW$T$138)
    3661              DW$262  .dwtag  DW_TAG_formal_parameter, DW_AT_type(*DW$T$37)
    3662                      .dwendtag DW$T$154
TMS320C2000 COFF Assembler PC v4.1.3 Thu Sep 15 15:05:07 2011

Tools Copyright (c) 1996-2006 Texas Instruments Incorporated
C:\DOCUME~1\ADMINI~1\LOCALS~1\Temp\TI4802                            PAGE   76

    3663              
    3664              
    3665              DW$T$156        .dwtag  DW_TAG_subroutine_type, DW_AT_type(*DW$T$151)
    3666                      .dwattr DW$T$156, DW_AT_language(DW_LANG_C)
    3667              DW$263  .dwtag  DW_TAG_formal_parameter, DW_AT_type(*DW$T$153)
    3668                      .dwendtag DW$T$156
    3669              
    3670              
    3671              DW$T$158        .dwtag  DW_TAG_subroutine_type, DW_AT_type(*DW$T$151)
    3672                      .dwattr DW$T$158, DW_AT_language(DW_LANG_C)
    3673              DW$264  .dwtag  DW_TAG_formal_parameter, DW_AT_type(*DW$T$153)
    3674              DW$265  .dwtag  DW_TAG_formal_parameter, DW_AT_type(*DW$T$81)
    3675              DW$266  .dwtag  DW_TAG_formal_parameter, DW_AT_type(*DW$T$127)
    3676              DW$267  .dwtag  DW_TAG_formal_parameter, DW_AT_type(*DW$T$128)
    3677                      .dwendtag DW$T$158
    3678              
    3679              DW$268  .dwtag  DW_TAG_far_type
    3680              DW$T$80 .dwtag  DW_TAG_const_type
    3681                      .dwattr DW$T$80, DW_AT_type(*DW$268)
    3682              DW$T$99 .dwtag  DW_TAG_typedef, DW_AT_name("a_sem_t"), DW_AT_type(*DW$T$98)
    3683                      .dwattr DW$T$99, DW_AT_language(DW_LANG_C)
    3684              DW$269  .dwtag  DW_TAG_far_type
    3685                      .dwattr DW$269, DW_AT_type(*DW$T$29)
    3686              DW$T$33 .dwtag  DW_TAG_const_type
    3687                      .dwattr DW$T$33, DW_AT_type(*DW$269)
    3688              DW$270  .dwtag  DW_TAG_far_type
    3689                      .dwattr DW$270, DW_AT_type(*DW$T$136)
    3690              DW$T$137        .dwtag  DW_TAG_const_type
    3691                      .dwattr DW$T$137, DW_AT_type(*DW$270)
    3692              DW$T$74 .dwtag  DW_TAG_typedef, DW_AT_name("hwin_t"), DW_AT_type(*DW$T$36)
    3693                      .dwattr DW$T$74, DW_AT_language(DW_LANG_C)
    3694              DW$T$152        .dwtag  DW_TAG_typedef, DW_AT_name("FIL"), DW_AT_type(*DW$T$45)
    3695                      .dwattr DW$T$152, DW_AT_language(DW_LANG_C)
    3696              DW$T$82 .dwtag  DW_TAG_typedef, DW_AT_name("WIR_ALG_t"), DW_AT_type(*DW$T$47)
    3697                      .dwattr DW$T$82, DW_AT_language(DW_LANG_C)
    3698              
    3699              DW$T$50 .dwtag  DW_TAG_structure_type
    3700                      .dwattr DW$T$50, DW_AT_byte_size(0x19)
    3701              DW$271  .dwtag  DW_TAG_member, DW_AT_type(*DW$T$48)
    3702                      .dwattr DW$271, DW_AT_name("Result_MUa"), DW_AT_symbol_name("_Result_MUa")
    3703                      .dwattr DW$271, DW_AT_data_member_location[DW_OP_plus_uconst 0x0]
    3704                      .dwattr DW$271, DW_AT_accessibility(DW_ACCESS_public)
    3705              DW$272  .dwtag  DW_TAG_member, DW_AT_type(*DW$T$48)
    3706                      .dwattr DW$272, DW_AT_name("Result_MUb"), DW_AT_symbol_name("_Result_MUb")
    3707                      .dwattr DW$272, DW_AT_data_member_location[DW_OP_plus_uconst 0x3]
    3708                      .dwattr DW$272, DW_AT_accessibility(DW_ACCESS_public)
    3709              DW$273  .dwtag  DW_TAG_member, DW_AT_type(*DW$T$48)
    3710                      .dwattr DW$273, DW_AT_name("Result_MUc"), DW_AT_symbol_name("_Result_MUc")
    3711                      .dwattr DW$273, DW_AT_data_member_location[DW_OP_plus_uconst 0x6]
    3712                      .dwattr DW$273, DW_AT_accessibility(DW_ACCESS_public)
    3713              DW$274  .dwtag  DW_TAG_member, DW_AT_type(*DW$T$49)
    3714                      .dwattr DW$274, DW_AT_name("Result_MIa"), DW_AT_symbol_name("_Result_MIa")
    3715                      .dwattr DW$274, DW_AT_data_member_location[DW_OP_plus_uconst 0x9]
    3716                      .dwattr DW$274, DW_AT_accessibility(DW_ACCESS_public)
    3717              DW$275  .dwtag  DW_TAG_member, DW_AT_type(*DW$T$49)
TMS320C2000 COFF Assembler PC v4.1.3 Thu Sep 15 15:05:07 2011

Tools Copyright (c) 1996-2006 Texas Instruments Incorporated
C:\DOCUME~1\ADMINI~1\LOCALS~1\Temp\TI4802                            PAGE   77

    3718                      .dwattr DW$275, DW_AT_name("Result_MIb"), DW_AT_symbol_name("_Result_MIb")
    3719                      .dwattr DW$275, DW_AT_data_member_location[DW_OP_plus_uconst 0xd]
    3720                      .dwattr DW$275, DW_AT_accessibility(DW_ACCESS_public)
    3721              DW$276  .dwtag  DW_TAG_member, DW_AT_type(*DW$T$49)
    3722                      .dwattr DW$276, DW_AT_name("Result_MIc"), DW_AT_symbol_name("_Result_MIc")
    3723                      .dwattr DW$276, DW_AT_data_member_location[DW_OP_plus_uconst 0x11]
    3724                      .dwattr DW$276, DW_AT_accessibility(DW_ACCESS_public)
    3725              DW$277  .dwtag  DW_TAG_member, DW_AT_type(*DW$T$6)
    3726                      .dwattr DW$277, DW_AT_name("phaseDir"), DW_AT_symbol_name("_phaseDir")
    3727                      .dwattr DW$277, DW_AT_data_member_location[DW_OP_plus_uconst 0x15]
    3728                      .dwattr DW$277, DW_AT_accessibility(DW_ACCESS_public)
    3729              DW$278  .dwtag  DW_TAG_member, DW_AT_type(*DW$T$6)
    3730                      .dwattr DW$278, DW_AT_name("verdict"), DW_AT_symbol_name("_verdict")
    3731                      .dwattr DW$278, DW_AT_data_member_location[DW_OP_plus_uconst 0x16]
    3732                      .dwattr DW$278, DW_AT_accessibility(DW_ACCESS_public)
    3733              DW$279  .dwtag  DW_TAG_member, DW_AT_type(*DW$T$6)
    3734                      .dwattr DW$279, DW_AT_name("jxmod"), DW_AT_symbol_name("_jxmod")
    3735                      .dwattr DW$279, DW_AT_data_member_location[DW_OP_plus_uconst 0x17]
    3736                      .dwattr DW$279, DW_AT_accessibility(DW_ACCESS_public)
    3737              DW$280  .dwtag  DW_TAG_member, DW_AT_type(*DW$T$6)
    3738                      .dwattr DW$280, DW_AT_name("WIR_cosoffset"), DW_AT_symbol_name("_WIR_cosoffset")
    3739                      .dwattr DW$280, DW_AT_data_member_location[DW_OP_plus_uconst 0x18]
    3740                      .dwattr DW$280, DW_AT_accessibility(DW_ACCESS_public)
    3741                      .dwendtag DW$T$50
    3742              
    3743              
    3744              DW$T$51 .dwtag  DW_TAG_structure_type
    3745                      .dwattr DW$T$51, DW_AT_byte_size(0x0e)
    3746              DW$281  .dwtag  DW_TAG_member, DW_AT_type(*DW$T$23)
    3747                      .dwattr DW$281, DW_AT_name("DL_measure_mod_id"), DW_AT_symbol_name("_DL_measure_mod_id")
    3748                      .dwattr DW$281, DW_AT_data_member_location[DW_OP_plus_uconst 0x0]
    3749                      .dwattr DW$281, DW_AT_accessibility(DW_ACCESS_public)
    3750              DW$282  .dwtag  DW_TAG_member, DW_AT_type(*DW$T$23)
    3751                      .dwattr DW$282, DW_AT_name("Sys_setup_mod_id"), DW_AT_symbol_name("_Sys_setup_mod_id")
    3752                      .dwattr DW$282, DW_AT_data_member_location[DW_OP_plus_uconst 0x1]
    3753                      .dwattr DW$282, DW_AT_accessibility(DW_ACCESS_public)
    3754              DW$283  .dwtag  DW_TAG_member, DW_AT_type(*DW$T$23)
    3755                      .dwattr DW$283, DW_AT_name("USB_mod_id"), DW_AT_symbol_name("_USB_mod_id")
    3756                      .dwattr DW$283, DW_AT_data_member_location[DW_OP_plus_uconst 0x2]
    3757                      .dwattr DW$283, DW_AT_accessibility(DW_ACCESS_public)
    3758              DW$284  .dwtag  DW_TAG_member, DW_AT_type(*DW$T$23)
    3759                      .dwattr DW$284, DW_AT_name("RM_mod_id"), DW_AT_symbol_name("_RM_mod_id")
    3760                      .dwattr DW$284, DW_AT_data_member_location[DW_OP_plus_uconst 0x3]
    3761                      .dwattr DW$284, DW_AT_accessibility(DW_ACCESS_public)
    3762              DW$285  .dwtag  DW_TAG_member, DW_AT_type(*DW$T$23)
    3763                      .dwattr DW$285, DW_AT_name("PC_mod_id"), DW_AT_symbol_name("_PC_mod_id")
    3764                      .dwattr DW$285, DW_AT_data_member_location[DW_OP_plus_uconst 0x4]
    3765                      .dwattr DW$285, DW_AT_accessibility(DW_ACCESS_public)
    3766              DW$286  .dwtag  DW_TAG_member, DW_AT_type(*DW$T$23)
    3767                      .dwattr DW$286, DW_AT_name("Help_mod_id"), DW_AT_symbol_name("_Help_mod_id")
    3768                      .dwattr DW$286, DW_AT_data_member_location[DW_OP_plus_uconst 0x5]
    3769                      .dwattr DW$286, DW_AT_accessibility(DW_ACCESS_public)
    3770              DW$287  .dwtag  DW_TAG_member, DW_AT_type(*DW$T$23)
    3771                      .dwattr DW$287, DW_AT_name("HZ_input_mod_id"), DW_AT_symbol_name("_HZ_input_mod_id")
    3772                      .dwattr DW$287, DW_AT_data_member_location[DW_OP_plus_uconst 0x6]
TMS320C2000 COFF Assembler PC v4.1.3 Thu Sep 15 15:05:07 2011

Tools Copyright (c) 1996-2006 Texas Instruments Incorporated
C:\DOCUME~1\ADMINI~1\LOCALS~1\Temp\TI4802                            PAGE   78

    3773                      .dwattr DW$287, DW_AT_accessibility(DW_ACCESS_public)
    3774              DW$288  .dwtag  DW_TAG_member, DW_AT_type(*DW$T$23)
    3775                      .dwattr DW$288, DW_AT_name("Err_correct_mod_id"), DW_AT_symbol_name("_Err_correct_mod_id")
    3776                      .dwattr DW$288, DW_AT_data_member_location[DW_OP_plus_uconst 0x7]
    3777                      .dwattr DW$288, DW_AT_accessibility(DW_ACCESS_public)
    3778              DW$289  .dwtag  DW_TAG_member, DW_AT_type(*DW$T$23)
    3779                      .dwattr DW$289, DW_AT_name("Wave_mod_id"), DW_AT_symbol_name("_Wave_mod_id")
    3780                      .dwattr DW$289, DW_AT_data_member_location[DW_OP_plus_uconst 0x8]
    3781                      .dwattr DW$289, DW_AT_accessibility(DW_ACCESS_public)
    3782              DW$290  .dwtag  DW_TAG_member, DW_AT_type(*DW$T$23)
    3783                      .dwattr DW$290, DW_AT_name("USER_mod_id"), DW_AT_symbol_name("_USER_mod_id")
    3784                      .dwattr DW$290, DW_AT_data_member_location[DW_OP_plus_uconst 0x9]
    3785                      .dwattr DW$290, DW_AT_accessibility(DW_ACCESS_public)
    3786              DW$291  .dwtag  DW_TAG_member, DW_AT_type(*DW$T$23)
    3787                      .dwattr DW$291, DW_AT_name("COMR_mod_id"), DW_AT_symbol_name("_COMR_mod_id")
    3788                      .dwattr DW$291, DW_AT_data_member_location[DW_OP_plus_uconst 0xa]
    3789                      .dwattr DW$291, DW_AT_accessibility(DW_ACCESS_public)
    3790              DW$292  .dwtag  DW_TAG_member, DW_AT_type(*DW$T$23)
    3791                      .dwattr DW$292, DW_AT_name("WIR_mod_id"), DW_AT_symbol_name("_WIR_mod_id")
    3792                      .dwattr DW$292, DW_AT_data_member_location[DW_OP_plus_uconst 0xb]
    3793                      .dwattr DW$292, DW_AT_accessibility(DW_ACCESS_public)
    3794              DW$293  .dwtag  DW_TAG_member, DW_AT_type(*DW$T$23)
    3795                      .dwattr DW$293, DW_AT_name("Save_mod_id"), DW_AT_symbol_name("_Save_mod_id")
    3796                      .dwattr DW$293, DW_AT_data_member_location[DW_OP_plus_uconst 0xc]
    3797                      .dwattr DW$293, DW_AT_accessibility(DW_ACCESS_public)
    3798              DW$294  .dwtag  DW_TAG_member, DW_AT_type(*DW$T$23)
    3799                      .dwattr DW$294, DW_AT_name("Iout_mod_id"), DW_AT_symbol_name("_Iout_mod_id")
    3800                      .dwattr DW$294, DW_AT_data_member_location[DW_OP_plus_uconst 0xd]
    3801                      .dwattr DW$294, DW_AT_accessibility(DW_ACCESS_public)
    3802                      .dwendtag DW$T$51
    3803              
    3804              DW$295  .dwtag  DW_TAG_far_type
    3805                      .dwattr DW$295, DW_AT_type(*DW$T$161)
    3806              DW$T$162        .dwtag  DW_TAG_const_type
    3807                      .dwattr DW$T$162, DW_AT_type(*DW$295)
    3808              
    3809              DW$T$150        .dwtag  DW_TAG_enumeration_type
    3810                      .dwattr DW$T$150, DW_AT_byte_size(0x01)
    3811              DW$296  .dwtag  DW_TAG_enumerator, DW_AT_name("FR_OK"), DW_AT_const_value(0x00)
    3812              DW$297  .dwtag  DW_TAG_enumerator, DW_AT_name("FR_DISK_ERR"), DW_AT_const_value(0x01)
    3813              DW$298  .dwtag  DW_TAG_enumerator, DW_AT_name("FR_INT_ERR"), DW_AT_const_value(0x02)
    3814              DW$299  .dwtag  DW_TAG_enumerator, DW_AT_name("FR_NOT_READY"), DW_AT_const_value(0x03)
    3815              DW$300  .dwtag  DW_TAG_enumerator, DW_AT_name("FR_NO_FILE"), DW_AT_const_value(0x04)
    3816              DW$301  .dwtag  DW_TAG_enumerator, DW_AT_name("FR_NO_PATH"), DW_AT_const_value(0x05)
    3817              DW$302  .dwtag  DW_TAG_enumerator, DW_AT_name("FR_INVALID_NAME"), DW_AT_const_value(0x06)
    3818              DW$303  .dwtag  DW_TAG_enumerator, DW_AT_name("FR_DENIED"), DW_AT_const_value(0x07)
    3819              DW$304  .dwtag  DW_TAG_enumerator, DW_AT_name("FR_EXIST"), DW_AT_const_value(0x08)
    3820              DW$305  .dwtag  DW_TAG_enumerator, DW_AT_name("FR_INVALID_OBJECT"), DW_AT_const_value(0x09)
    3821              DW$306  .dwtag  DW_TAG_enumerator, DW_AT_name("FR_WRITE_PROTECTED"), DW_AT_const_value(0x0a)
    3822              DW$307  .dwtag  DW_TAG_enumerator, DW_AT_name("FR_INVALID_DRIVE"), DW_AT_const_value(0x0b)
    3823              DW$308  .dwtag  DW_TAG_enumerator, DW_AT_name("FR_NOT_ENABLED"), DW_AT_const_value(0x0c)
    3824              DW$309  .dwtag  DW_TAG_enumerator, DW_AT_name("FR_NO_FILESYSTEM"), DW_AT_const_value(0x0d)
    3825              DW$310  .dwtag  DW_TAG_enumerator, DW_AT_name("FR_MKFS_ABORTED"), DW_AT_const_value(0x0e)
    3826              DW$311  .dwtag  DW_TAG_enumerator, DW_AT_name("FR_TIMEOUT"), DW_AT_const_value(0x0f)
    3827              DW$312  .dwtag  DW_TAG_enumerator, DW_AT_name("FR_LOCKED"), DW_AT_const_value(0x10)
TMS320C2000 COFF Assembler PC v4.1.3 Thu Sep 15 15:05:07 2011

Tools Copyright (c) 1996-2006 Texas Instruments Incorporated
C:\DOCUME~1\ADMINI~1\LOCALS~1\Temp\TI4802                            PAGE   79

    3828              DW$313  .dwtag  DW_TAG_enumerator, DW_AT_name("FR_NOT_ENOUGH_CORE"), DW_AT_const_value(0x11)
    3829              DW$314  .dwtag  DW_TAG_enumerator, DW_AT_name("FR_TOO_MANY_OPEN_FILES"), DW_AT_const_value(0x12)
    3830                      .dwendtag DW$T$150
    3831              
    3832              DW$T$98 .dwtag  DW_TAG_typedef, DW_AT_name("OS_EVENT"), DW_AT_type(*DW$T$22)
    3833                      .dwattr DW$T$98, DW_AT_language(DW_LANG_C)
    3834              DW$T$136        .dwtag  DW_TAG_typedef, DW_AT_name("TCHAR"), DW_AT_type(*DW$T$29)
    3835                      .dwattr DW$T$136, DW_AT_language(DW_LANG_C)
    3836              
    3837              DW$T$36 .dwtag  DW_TAG_structure_type
    3838                      .dwattr DW$T$36, DW_AT_name("hwin")
    3839                      .dwattr DW$T$36, DW_AT_byte_size(0x42)
    3840              DW$315  .dwtag  DW_TAG_member, DW_AT_type(*DW$T$23)
    3841                      .dwattr DW$315, DW_AT_name("occupy_flag"), DW_AT_symbol_name("_occupy_flag")
    3842                      .dwattr DW$315, DW_AT_data_member_location[DW_OP_plus_uconst 0x0]
    3843                      .dwattr DW$315, DW_AT_accessibility(DW_ACCESS_public)
    3844              DW$316  .dwtag  DW_TAG_member, DW_AT_type(*DW$T$11)
    3845                      .dwattr DW$316, DW_AT_name("win_x"), DW_AT_symbol_name("_win_x")
    3846                      .dwattr DW$316, DW_AT_data_member_location[DW_OP_plus_uconst 0x1]
    3847                      .dwattr DW$316, DW_AT_accessibility(DW_ACCESS_public)
    3848              DW$317  .dwtag  DW_TAG_member, DW_AT_type(*DW$T$11)
    3849                      .dwattr DW$317, DW_AT_name("win_y"), DW_AT_symbol_name("_win_y")
    3850                      .dwattr DW$317, DW_AT_data_member_location[DW_OP_plus_uconst 0x2]
    3851                      .dwattr DW$317, DW_AT_accessibility(DW_ACCESS_public)
    3852              DW$318  .dwtag  DW_TAG_member, DW_AT_type(*DW$T$23)
    3853                      .dwattr DW$318, DW_AT_name("win_wide"), DW_AT_symbol_name("_win_wide")
    3854                      .dwattr DW$318, DW_AT_data_member_location[DW_OP_plus_uconst 0x3]
    3855                      .dwattr DW$318, DW_AT_accessibility(DW_ACCESS_public)
    3856              DW$319  .dwtag  DW_TAG_member, DW_AT_type(*DW$T$23)
    3857                      .dwattr DW$319, DW_AT_name("win_high"), DW_AT_symbol_name("_win_high")
    3858                      .dwattr DW$319, DW_AT_data_member_location[DW_OP_plus_uconst 0x4]
    3859                      .dwattr DW$319, DW_AT_accessibility(DW_ACCESS_public)
    3860              DW$320  .dwtag  DW_TAG_member, DW_AT_type(*DW$T$11)
    3861                      .dwattr DW$320, DW_AT_name("csr_x_pos"), DW_AT_symbol_name("_csr_x_pos")
    3862                      .dwattr DW$320, DW_AT_data_member_location[DW_OP_plus_uconst 0x5]
    3863                      .dwattr DW$320, DW_AT_accessibility(DW_ACCESS_public)
    3864              DW$321  .dwtag  DW_TAG_member, DW_AT_type(*DW$T$11)
    3865                      .dwattr DW$321, DW_AT_name("csr_y_pos"), DW_AT_symbol_name("_csr_y_pos")
    3866                      .dwattr DW$321, DW_AT_data_member_location[DW_OP_plus_uconst 0x6]
    3867                      .dwattr DW$321, DW_AT_accessibility(DW_ACCESS_public)
    3868              DW$322  .dwtag  DW_TAG_member, DW_AT_type(*DW$T$23)
    3869                      .dwattr DW$322, DW_AT_name("type"), DW_AT_symbol_name("_type")
    3870                      .dwattr DW$322, DW_AT_data_member_location[DW_OP_plus_uconst 0x7]
    3871                      .dwattr DW$322, DW_AT_accessibility(DW_ACCESS_public)
    3872              DW$323  .dwtag  DW_TAG_member, DW_AT_type(*DW$T$26)
    3873                      .dwattr DW$323, DW_AT_name("father_hwin"), DW_AT_symbol_name("_father_hwin")
    3874                      .dwattr DW$323, DW_AT_data_member_location[DW_OP_plus_uconst 0x8]
    3875                      .dwattr DW$323, DW_AT_accessibility(DW_ACCESS_public)
    3876              DW$324  .dwtag  DW_TAG_member, DW_AT_type(*DW$T$26)
    3877                      .dwattr DW$324, DW_AT_name("next_hwin"), DW_AT_symbol_name("_next_hwin")
    3878                      .dwattr DW$324, DW_AT_data_member_location[DW_OP_plus_uconst 0xa]
    3879                      .dwattr DW$324, DW_AT_accessibility(DW_ACCESS_public)
    3880              DW$325  .dwtag  DW_TAG_member, DW_AT_type(*DW$T$26)
    3881                      .dwattr DW$325, DW_AT_name("last_hwin"), DW_AT_symbol_name("_last_hwin")
    3882                      .dwattr DW$325, DW_AT_data_member_location[DW_OP_plus_uconst 0xc]
TMS320C2000 COFF Assembler PC v4.1.3 Thu Sep 15 15:05:07 2011

Tools Copyright (c) 1996-2006 Texas Instruments Incorporated
C:\DOCUME~1\ADMINI~1\LOCALS~1\Temp\TI4802                            PAGE   80

    3883                      .dwattr DW$325, DW_AT_accessibility(DW_ACCESS_public)
    3884              DW$326  .dwtag  DW_TAG_member, DW_AT_type(*DW$T$23)
    3885                      .dwattr DW$326, DW_AT_name("nline"), DW_AT_symbol_name("_nline")
    3886                      .dwattr DW$326, DW_AT_data_member_location[DW_OP_plus_uconst 0xe]
    3887                      .dwattr DW$326, DW_AT_accessibility(DW_ACCESS_public)
    3888              DW$327  .dwtag  DW_TAG_member, DW_AT_type(*DW$T$23)
    3889                      .dwattr DW$327, DW_AT_name("nrow"), DW_AT_symbol_name("_nrow")
    3890                      .dwattr DW$327, DW_AT_data_member_location[DW_OP_plus_uconst 0xf]
    3891                      .dwattr DW$327, DW_AT_accessibility(DW_ACCESS_public)
    3892              DW$328  .dwtag  DW_TAG_member, DW_AT_type(*DW$T$23)
    3893                      .dwattr DW$328, DW_AT_name("grid_wide"), DW_AT_symbol_name("_grid_wide")
    3894                      .dwattr DW$328, DW_AT_data_member_location[DW_OP_plus_uconst 0x10]
    3895                      .dwattr DW$328, DW_AT_accessibility(DW_ACCESS_public)
    3896              DW$329  .dwtag  DW_TAG_member, DW_AT_type(*DW$T$23)
    3897                      .dwattr DW$329, DW_AT_name("grid_high"), DW_AT_symbol_name("_grid_high")
    3898                      .dwattr DW$329, DW_AT_data_member_location[DW_OP_plus_uconst 0x11]
    3899                      .dwattr DW$329, DW_AT_accessibility(DW_ACCESS_public)
    3900              DW$330  .dwtag  DW_TAG_member, DW_AT_type(*DW$T$28)
    3901                      .dwattr DW$330, DW_AT_name("cur_edit_pos"), DW_AT_symbol_name("_cur_edit_pos")
    3902                      .dwattr DW$330, DW_AT_data_member_location[DW_OP_plus_uconst 0x12]
    3903                      .dwattr DW$330, DW_AT_accessibility(DW_ACCESS_public)
    3904              DW$331  .dwtag  DW_TAG_member, DW_AT_type(*DW$T$28)
    3905                      .dwattr DW$331, DW_AT_name("edit_phead"), DW_AT_symbol_name("_edit_phead")
    3906                      .dwattr DW$331, DW_AT_data_member_location[DW_OP_plus_uconst 0x14]
    3907                      .dwattr DW$331, DW_AT_accessibility(DW_ACCESS_public)
    3908              DW$332  .dwtag  DW_TAG_member, DW_AT_type(*DW$T$28)
    3909                      .dwattr DW$332, DW_AT_name("m_cur_pedit"), DW_AT_symbol_name("_m_cur_pedit")
    3910                      .dwattr DW$332, DW_AT_data_member_location[DW_OP_plus_uconst 0x16]
    3911                      .dwattr DW$332, DW_AT_accessibility(DW_ACCESS_public)
    3912              DW$333  .dwtag  DW_TAG_member, DW_AT_type(*DW$T$30)
    3913                      .dwattr DW$333, DW_AT_name("button_title"), DW_AT_symbol_name("_button_title")
    3914                      .dwattr DW$333, DW_AT_data_member_location[DW_OP_plus_uconst 0x18]
    3915                      .dwattr DW$333, DW_AT_accessibility(DW_ACCESS_public)
    3916              DW$334  .dwtag  DW_TAG_member, DW_AT_type(*DW$T$11)
    3917                      .dwattr DW$334, DW_AT_name("button_flags"), DW_AT_symbol_name("_button_flags")
    3918                      .dwattr DW$334, DW_AT_data_member_location[DW_OP_plus_uconst 0x36]
    3919                      .dwattr DW$334, DW_AT_accessibility(DW_ACCESS_public)
    3920              DW$335  .dwtag  DW_TAG_member, DW_AT_type(*DW$T$11)
    3921                      .dwattr DW$335, DW_AT_name("button_bg_color"), DW_AT_symbol_name("_button_bg_color")
    3922                      .dwattr DW$335, DW_AT_data_member_location[DW_OP_plus_uconst 0x37]
    3923                      .dwattr DW$335, DW_AT_accessibility(DW_ACCESS_public)
    3924              DW$336  .dwtag  DW_TAG_member, DW_AT_type(*DW$T$11)
    3925                      .dwattr DW$336, DW_AT_name("button_txt_color"), DW_AT_symbol_name("_button_txt_color")
    3926                      .dwattr DW$336, DW_AT_data_member_location[DW_OP_plus_uconst 0x38]
    3927                      .dwattr DW$336, DW_AT_accessibility(DW_ACCESS_public)
    3928              DW$337  .dwtag  DW_TAG_member, DW_AT_type(*DW$T$32)
    3929                      .dwattr DW$337, DW_AT_name("buttoncallback"), DW_AT_symbol_name("_buttoncallback")
    3930                      .dwattr DW$337, DW_AT_data_member_location[DW_OP_plus_uconst 0x3a]
    3931                      .dwattr DW$337, DW_AT_accessibility(DW_ACCESS_public)
    3932              DW$338  .dwtag  DW_TAG_member, DW_AT_type(*DW$T$35)
    3933                      .dwattr DW$338, DW_AT_name("drop_memeber"), DW_AT_symbol_name("_drop_memeber")
    3934                      .dwattr DW$338, DW_AT_data_member_location[DW_OP_plus_uconst 0x3c]
    3935                      .dwattr DW$338, DW_AT_accessibility(DW_ACCESS_public)
    3936              DW$339  .dwtag  DW_TAG_member, DW_AT_type(*DW$T$6)
    3937                      .dwattr DW$339, DW_AT_name("drop_cur_member"), DW_AT_symbol_name("_drop_cur_member")
TMS320C2000 COFF Assembler PC v4.1.3 Thu Sep 15 15:05:07 2011

Tools Copyright (c) 1996-2006 Texas Instruments Incorporated
C:\DOCUME~1\ADMINI~1\LOCALS~1\Temp\TI4802                            PAGE   81

    3938                      .dwattr DW$339, DW_AT_data_member_location[DW_OP_plus_uconst 0x3e]
    3939                      .dwattr DW$339, DW_AT_accessibility(DW_ACCESS_public)
    3940              DW$340  .dwtag  DW_TAG_member, DW_AT_type(*DW$T$6)
    3941                      .dwattr DW$340, DW_AT_name("drop_member_size"), DW_AT_symbol_name("_drop_member_size")
    3942                      .dwattr DW$340, DW_AT_data_member_location[DW_OP_plus_uconst 0x3f]
    3943                      .dwattr DW$340, DW_AT_accessibility(DW_ACCESS_public)
    3944              DW$341  .dwtag  DW_TAG_member, DW_AT_type(*DW$T$11)
    3945                      .dwattr DW$341, DW_AT_name("win_cnt"), DW_AT_symbol_name("_win_cnt")
    3946                      .dwattr DW$341, DW_AT_data_member_location[DW_OP_plus_uconst 0x40]
    3947                      .dwattr DW$341, DW_AT_accessibility(DW_ACCESS_public)
    3948                      .dwendtag DW$T$36
    3949              
    3950              DW$T$26 .dwtag  DW_TAG_pointer_type, DW_AT_type(*DW$T$36)
    3951                      .dwattr DW$T$26, DW_AT_address_class(0x16)
    3952              
    3953              DW$T$45 .dwtag  DW_TAG_structure_type
    3954                      .dwattr DW$T$45, DW_AT_byte_size(0x214)
    3955              DW$342  .dwtag  DW_TAG_member, DW_AT_type(*DW$T$43)
    3956                      .dwattr DW$342, DW_AT_name("fs"), DW_AT_symbol_name("_fs")
    3957                      .dwattr DW$342, DW_AT_data_member_location[DW_OP_plus_uconst 0x0]
    3958                      .dwattr DW$342, DW_AT_accessibility(DW_ACCESS_public)
    3959              DW$343  .dwtag  DW_TAG_member, DW_AT_type(*DW$T$38)
    3960                      .dwattr DW$343, DW_AT_name("id"), DW_AT_symbol_name("_id")
    3961                      .dwattr DW$343, DW_AT_data_member_location[DW_OP_plus_uconst 0x2]
    3962                      .dwattr DW$343, DW_AT_accessibility(DW_ACCESS_public)
    3963              DW$344  .dwtag  DW_TAG_member, DW_AT_type(*DW$T$37)
    3964                      .dwattr DW$344, DW_AT_name("flag"), DW_AT_symbol_name("_flag")
    3965                      .dwattr DW$344, DW_AT_data_member_location[DW_OP_plus_uconst 0x3]
    3966                      .dwattr DW$344, DW_AT_accessibility(DW_ACCESS_public)
    3967              DW$345  .dwtag  DW_TAG_member, DW_AT_type(*DW$T$37)
    3968                      .dwattr DW$345, DW_AT_name("pad1"), DW_AT_symbol_name("_pad1")
    3969                      .dwattr DW$345, DW_AT_data_member_location[DW_OP_plus_uconst 0x4]
    3970                      .dwattr DW$345, DW_AT_accessibility(DW_ACCESS_public)
    3971              DW$346  .dwtag  DW_TAG_member, DW_AT_type(*DW$T$39)
    3972                      .dwattr DW$346, DW_AT_name("fptr"), DW_AT_symbol_name("_fptr")
    3973                      .dwattr DW$346, DW_AT_data_member_location[DW_OP_plus_uconst 0x6]
    3974                      .dwattr DW$346, DW_AT_accessibility(DW_ACCESS_public)
    3975              DW$347  .dwtag  DW_TAG_member, DW_AT_type(*DW$T$39)
    3976                      .dwattr DW$347, DW_AT_name("fsize"), DW_AT_symbol_name("_fsize")
    3977                      .dwattr DW$347, DW_AT_data_member_location[DW_OP_plus_uconst 0x8]
    3978                      .dwattr DW$347, DW_AT_accessibility(DW_ACCESS_public)
    3979              DW$348  .dwtag  DW_TAG_member, DW_AT_type(*DW$T$39)
    3980                      .dwattr DW$348, DW_AT_name("sclust"), DW_AT_symbol_name("_sclust")
    3981                      .dwattr DW$348, DW_AT_data_member_location[DW_OP_plus_uconst 0xa]
    3982                      .dwattr DW$348, DW_AT_accessibility(DW_ACCESS_public)
    3983              DW$349  .dwtag  DW_TAG_member, DW_AT_type(*DW$T$39)
    3984                      .dwattr DW$349, DW_AT_name("clust"), DW_AT_symbol_name("_clust")
    3985                      .dwattr DW$349, DW_AT_data_member_location[DW_OP_plus_uconst 0xc]
    3986                      .dwattr DW$349, DW_AT_accessibility(DW_ACCESS_public)
    3987              DW$350  .dwtag  DW_TAG_member, DW_AT_type(*DW$T$39)
    3988                      .dwattr DW$350, DW_AT_name("dsect"), DW_AT_symbol_name("_dsect")
    3989                      .dwattr DW$350, DW_AT_data_member_location[DW_OP_plus_uconst 0xe]
    3990                      .dwattr DW$350, DW_AT_accessibility(DW_ACCESS_public)
    3991              DW$351  .dwtag  DW_TAG_member, DW_AT_type(*DW$T$39)
    3992                      .dwattr DW$351, DW_AT_name("dir_sect"), DW_AT_symbol_name("_dir_sect")
TMS320C2000 COFF Assembler PC v4.1.3 Thu Sep 15 15:05:07 2011

Tools Copyright (c) 1996-2006 Texas Instruments Incorporated
C:\DOCUME~1\ADMINI~1\LOCALS~1\Temp\TI4802                            PAGE   82

    3993                      .dwattr DW$351, DW_AT_data_member_location[DW_OP_plus_uconst 0x10]
    3994                      .dwattr DW$351, DW_AT_accessibility(DW_ACCESS_public)
    3995              DW$352  .dwtag  DW_TAG_member, DW_AT_type(*DW$T$44)
    3996                      .dwattr DW$352, DW_AT_name("dir_ptr"), DW_AT_symbol_name("_dir_ptr")
    3997                      .dwattr DW$352, DW_AT_data_member_location[DW_OP_plus_uconst 0x12]
    3998                      .dwattr DW$352, DW_AT_accessibility(DW_ACCESS_public)
    3999              DW$353  .dwtag  DW_TAG_member, DW_AT_type(*DW$T$40)
    4000                      .dwattr DW$353, DW_AT_name("buf"), DW_AT_symbol_name("_buf")
    4001                      .dwattr DW$353, DW_AT_data_member_location[DW_OP_plus_uconst 0x14]
    4002                      .dwattr DW$353, DW_AT_accessibility(DW_ACCESS_public)
    4003                      .dwendtag DW$T$45
    4004              
    4005              
    4006              DW$T$47 .dwtag  DW_TAG_structure_type
    4007                      .dwattr DW$T$47, DW_AT_byte_size(0x45)
    4008              DW$354  .dwtag  DW_TAG_member, DW_AT_type(*DW$T$6)
    4009                      .dwattr DW$354, DW_AT_name("is_lost_UI"), DW_AT_symbol_name("_is_lost_UI")
    4010                      .dwattr DW$354, DW_AT_data_member_location[DW_OP_plus_uconst 0x0]
    4011                      .dwattr DW$354, DW_AT_accessibility(DW_ACCESS_public)
    4012              DW$355  .dwtag  DW_TAG_member, DW_AT_type(*DW$T$6)
    4013                      .dwattr DW$355, DW_AT_name("Ua_lost"), DW_AT_symbol_name("_Ua_lost")
    4014                      .dwattr DW$355, DW_AT_data_member_location[DW_OP_plus_uconst 0x1]
    4015                      .dwattr DW$355, DW_AT_accessibility(DW_ACCESS_public)
    4016              DW$356  .dwtag  DW_TAG_member, DW_AT_type(*DW$T$6)
    4017                      .dwattr DW$356, DW_AT_name("Ub_lost"), DW_AT_symbol_name("_Ub_lost")
    4018                      .dwattr DW$356, DW_AT_data_member_location[DW_OP_plus_uconst 0x2]
    4019                      .dwattr DW$356, DW_AT_accessibility(DW_ACCESS_public)
    4020              DW$357  .dwtag  DW_TAG_member, DW_AT_type(*DW$T$6)
    4021                      .dwattr DW$357, DW_AT_name("Uc_lost"), DW_AT_symbol_name("_Uc_lost")
    4022                      .dwattr DW$357, DW_AT_data_member_location[DW_OP_plus_uconst 0x3]
    4023                      .dwattr DW$357, DW_AT_accessibility(DW_ACCESS_public)
    4024              DW$358  .dwtag  DW_TAG_member, DW_AT_type(*DW$T$6)
    4025                      .dwattr DW$358, DW_AT_name("Ia_lost"), DW_AT_symbol_name("_Ia_lost")
    4026                      .dwattr DW$358, DW_AT_data_member_location[DW_OP_plus_uconst 0x4]
    4027                      .dwattr DW$358, DW_AT_accessibility(DW_ACCESS_public)
    4028              DW$359  .dwtag  DW_TAG_member, DW_AT_type(*DW$T$6)
    4029                      .dwattr DW$359, DW_AT_name("Ib_lost"), DW_AT_symbol_name("_Ib_lost")
    4030                      .dwattr DW$359, DW_AT_data_member_location[DW_OP_plus_uconst 0x5]
    4031                      .dwattr DW$359, DW_AT_accessibility(DW_ACCESS_public)
    4032              DW$360  .dwtag  DW_TAG_member, DW_AT_type(*DW$T$6)
    4033                      .dwattr DW$360, DW_AT_name("Ic_lost"), DW_AT_symbol_name("_Ic_lost")
    4034                      .dwattr DW$360, DW_AT_data_member_location[DW_OP_plus_uconst 0x6]
    4035                      .dwattr DW$360, DW_AT_accessibility(DW_ACCESS_public)
    4036              DW$361  .dwtag  DW_TAG_member, DW_AT_type(*DW$T$6)
    4037                      .dwattr DW$361, DW_AT_name("phaseDir"), DW_AT_symbol_name("_phaseDir")
    4038                      .dwattr DW$361, DW_AT_data_member_location[DW_OP_plus_uconst 0x7]
    4039                      .dwattr DW$361, DW_AT_accessibility(DW_ACCESS_public)
    4040              DW$362  .dwtag  DW_TAG_member, DW_AT_type(*DW$T$46)
    4041                      .dwattr DW$362, DW_AT_name("c_cos"), DW_AT_symbol_name("_c_cos")
    4042                      .dwattr DW$362, DW_AT_data_member_location[DW_OP_plus_uconst 0x8]
    4043                      .dwattr DW$362, DW_AT_accessibility(DW_ACCESS_public)
    4044              DW$363  .dwtag  DW_TAG_member, DW_AT_type(*DW$T$46)
    4045                      .dwattr DW$363, DW_AT_name("c_U"), DW_AT_symbol_name("_c_U")
    4046                      .dwattr DW$363, DW_AT_data_member_location[DW_OP_plus_uconst 0x1c]
    4047                      .dwattr DW$363, DW_AT_accessibility(DW_ACCESS_public)
TMS320C2000 COFF Assembler PC v4.1.3 Thu Sep 15 15:05:07 2011

Tools Copyright (c) 1996-2006 Texas Instruments Incorporated
C:\DOCUME~1\ADMINI~1\LOCALS~1\Temp\TI4802                            PAGE   83

    4048              DW$364  .dwtag  DW_TAG_member, DW_AT_type(*DW$T$46)
    4049                      .dwattr DW$364, DW_AT_name("c_I"), DW_AT_symbol_name("_c_I")
    4050                      .dwattr DW$364, DW_AT_data_member_location[DW_OP_plus_uconst 0x30]
    4051                      .dwattr DW$364, DW_AT_accessibility(DW_ACCESS_public)
    4052              DW$365  .dwtag  DW_TAG_member, DW_AT_type(*DW$T$6)
    4053                      .dwattr DW$365, DW_AT_name("jxmod"), DW_AT_symbol_name("_jxmod")
    4054                      .dwattr DW$365, DW_AT_data_member_location[DW_OP_plus_uconst 0x44]
    4055                      .dwattr DW$365, DW_AT_accessibility(DW_ACCESS_public)
    4056                      .dwendtag DW$T$47
    4057              
    4058              DW$T$161        .dwtag  DW_TAG_typedef, DW_AT_name("WIR_move_step_t"), DW_AT_type(*DW$T$53)
    4059                      .dwattr DW$T$161, DW_AT_language(DW_LANG_C)
    4060              
    4061              DW$T$40 .dwtag  DW_TAG_array_type, DW_AT_type(*DW$T$37)
    4062                      .dwattr DW$T$40, DW_AT_language(DW_LANG_C)
    4063                      .dwattr DW$T$40, DW_AT_byte_size(0x200)
    4064              DW$366  .dwtag  DW_TAG_subrange_type
    4065                      .dwattr DW$366, DW_AT_upper_bound(0x1ff)
    4066                      .dwendtag DW$T$40
    4067              
    4068              DW$T$44 .dwtag  DW_TAG_pointer_type, DW_AT_type(*DW$T$37)
    4069                      .dwattr DW$T$44, DW_AT_address_class(0x16)
    4070              DW$T$38 .dwtag  DW_TAG_typedef, DW_AT_name("WORD"), DW_AT_type(*DW$T$9)
    4071                      .dwattr DW$T$38, DW_AT_language(DW_LANG_C)
    4072              DW$T$39 .dwtag  DW_TAG_typedef, DW_AT_name("DWORD"), DW_AT_type(*DW$T$13)
    4073                      .dwattr DW$T$39, DW_AT_language(DW_LANG_C)
    4074              
    4075              DW$T$22 .dwtag  DW_TAG_structure_type
    4076                      .dwattr DW$T$22, DW_AT_name("os_event")
    4077                      .dwattr DW$T$22, DW_AT_byte_size(0x0e)
    4078              DW$367  .dwtag  DW_TAG_member, DW_AT_type(*DW$T$19)
    4079                      .dwattr DW$367, DW_AT_name("OSEventType"), DW_AT_symbol_name("_OSEventType")
    4080                      .dwattr DW$367, DW_AT_data_member_location[DW_OP_plus_uconst 0x0]
    4081                      .dwattr DW$367, DW_AT_accessibility(DW_ACCESS_public)
    4082              DW$368  .dwtag  DW_TAG_member, DW_AT_type(*DW$T$3)
    4083                      .dwattr DW$368, DW_AT_name("OSEventPtr"), DW_AT_symbol_name("_OSEventPtr")
    4084                      .dwattr DW$368, DW_AT_data_member_location[DW_OP_plus_uconst 0x2]
    4085                      .dwattr DW$368, DW_AT_accessibility(DW_ACCESS_public)
    4086              DW$369  .dwtag  DW_TAG_member, DW_AT_type(*DW$T$20)
    4087                      .dwattr DW$369, DW_AT_name("OSEventCnt"), DW_AT_symbol_name("_OSEventCnt")
    4088                      .dwattr DW$369, DW_AT_data_member_location[DW_OP_plus_uconst 0x4]
    4089                      .dwattr DW$369, DW_AT_accessibility(DW_ACCESS_public)
    4090              DW$370  .dwtag  DW_TAG_member, DW_AT_type(*DW$T$19)
    4091                      .dwattr DW$370, DW_AT_name("OSEventGrp"), DW_AT_symbol_name("_OSEventGrp")
    4092                      .dwattr DW$370, DW_AT_data_member_location[DW_OP_plus_uconst 0x5]
    4093                      .dwattr DW$370, DW_AT_accessibility(DW_ACCESS_public)
    4094              DW$371  .dwtag  DW_TAG_member, DW_AT_type(*DW$T$21)
    4095                      .dwattr DW$371, DW_AT_name("OSEventTbl"), DW_AT_symbol_name("_OSEventTbl")
    4096                      .dwattr DW$371, DW_AT_data_member_location[DW_OP_plus_uconst 0x6]
    4097                      .dwattr DW$371, DW_AT_accessibility(DW_ACCESS_public)
    4098                      .dwendtag DW$T$22
    4099              
    4100              DW$T$28 .dwtag  DW_TAG_pointer_type, DW_AT_type(*DW$T$27)
    4101                      .dwattr DW$T$28, DW_AT_address_class(0x16)
    4102              
TMS320C2000 COFF Assembler PC v4.1.3 Thu Sep 15 15:05:07 2011

Tools Copyright (c) 1996-2006 Texas Instruments Incorporated
C:\DOCUME~1\ADMINI~1\LOCALS~1\Temp\TI4802                            PAGE   84

    4103              DW$T$30 .dwtag  DW_TAG_array_type, DW_AT_type(*DW$T$29)
    4104                      .dwattr DW$T$30, DW_AT_language(DW_LANG_C)
    4105                      .dwattr DW$T$30, DW_AT_byte_size(0x1e)
    4106              DW$372  .dwtag  DW_TAG_subrange_type
    4107                      .dwattr DW$372, DW_AT_upper_bound(0x1d)
    4108                      .dwendtag DW$T$30
    4109              
    4110              DW$T$35 .dwtag  DW_TAG_pointer_type, DW_AT_type(*DW$T$34)
    4111                      .dwattr DW$T$35, DW_AT_address_class(0x16)
    4112              
    4113              DW$T$46 .dwtag  DW_TAG_array_type, DW_AT_type(*DW$T$29)
    4114                      .dwattr DW$T$46, DW_AT_language(DW_LANG_C)
    4115                      .dwattr DW$T$46, DW_AT_byte_size(0x14)
    4116              DW$373  .dwtag  DW_TAG_subrange_type
    4117                      .dwattr DW$373, DW_AT_upper_bound(0x13)
    4118                      .dwendtag DW$T$46
    4119              
    4120              DW$T$43 .dwtag  DW_TAG_pointer_type, DW_AT_type(*DW$T$42)
    4121                      .dwattr DW$T$43, DW_AT_address_class(0x16)
    4122              
    4123              DW$T$53 .dwtag  DW_TAG_structure_type
    4124                      .dwattr DW$T$53, DW_AT_byte_size(0x04)
    4125              DW$374  .dwtag  DW_TAG_member, DW_AT_type(*DW$T$52)
    4126                      .dwattr DW$374, DW_AT_name("pmove"), DW_AT_symbol_name("_pmove")
    4127                      .dwattr DW$374, DW_AT_data_member_location[DW_OP_plus_uconst 0x0]
    4128                      .dwattr DW$374, DW_AT_accessibility(DW_ACCESS_public)
    4129              DW$375  .dwtag  DW_TAG_member, DW_AT_type(*DW$T$23)
    4130                      .dwattr DW$375, DW_AT_name("step"), DW_AT_symbol_name("_step")
    4131                      .dwattr DW$375, DW_AT_data_member_location[DW_OP_plus_uconst 0x2]
    4132                      .dwattr DW$375, DW_AT_accessibility(DW_ACCESS_public)
    4133                      .dwendtag DW$T$53
    4134              
    4135              DW$T$19 .dwtag  DW_TAG_typedef, DW_AT_name("INT8U"), DW_AT_type(*DW$T$6)
    4136                      .dwattr DW$T$19, DW_AT_language(DW_LANG_C)
    4137              
    4138              DW$T$21 .dwtag  DW_TAG_array_type, DW_AT_type(*DW$T$19)
    4139                      .dwattr DW$T$21, DW_AT_language(DW_LANG_C)
    4140                      .dwattr DW$T$21, DW_AT_byte_size(0x08)
    4141              DW$376  .dwtag  DW_TAG_subrange_type
    4142                      .dwattr DW$376, DW_AT_upper_bound(0x07)
    4143                      .dwendtag DW$T$21
    4144              
    4145              DW$T$9  .dwtag  DW_TAG_base_type, DW_AT_name("unsigned short")
    4146                      .dwattr DW$T$9, DW_AT_encoding(DW_ATE_unsigned)
    4147                      .dwattr DW$T$9, DW_AT_byte_size(0x01)
    4148              DW$T$13 .dwtag  DW_TAG_base_type, DW_AT_name("unsigned long")
    4149                      .dwattr DW$T$13, DW_AT_encoding(DW_ATE_unsigned)
    4150                      .dwattr DW$T$13, DW_AT_byte_size(0x02)
    4151              DW$T$27 .dwtag  DW_TAG_typedef, DW_AT_name("edit_mem_t"), DW_AT_type(*DW$T$25)
    4152                      .dwattr DW$T$27, DW_AT_language(DW_LANG_C)
    4153              DW$T$34 .dwtag  DW_TAG_pointer_type, DW_AT_type(*DW$T$33)
    4154                      .dwattr DW$T$34, DW_AT_address_class(0x16)
    4155              DW$T$42 .dwtag  DW_TAG_typedef, DW_AT_name("FATFS"), DW_AT_type(*DW$T$41)
    4156                      .dwattr DW$T$42, DW_AT_language(DW_LANG_C)
    4157              
TMS320C2000 COFF Assembler PC v4.1.3 Thu Sep 15 15:05:07 2011

Tools Copyright (c) 1996-2006 Texas Instruments Incorporated
C:\DOCUME~1\ADMINI~1\LOCALS~1\Temp\TI4802                            PAGE   85

    4158              DW$T$25 .dwtag  DW_TAG_structure_type
    4159                      .dwattr DW$T$25, DW_AT_name("edit_mem")
    4160                      .dwattr DW$T$25, DW_AT_byte_size(0x08)
    4161              DW$377  .dwtag  DW_TAG_member, DW_AT_type(*DW$T$11)
    4162                      .dwattr DW$377, DW_AT_name("x"), DW_AT_symbol_name("_x")
    4163                      .dwattr DW$377, DW_AT_data_member_location[DW_OP_plus_uconst 0x0]
    4164                      .dwattr DW$377, DW_AT_accessibility(DW_ACCESS_public)
    4165              DW$378  .dwtag  DW_TAG_member, DW_AT_type(*DW$T$11)
    4166                      .dwattr DW$378, DW_AT_name("y"), DW_AT_symbol_name("_y")
    4167                      .dwattr DW$378, DW_AT_data_member_location[DW_OP_plus_uconst 0x1]
    4168                      .dwattr DW$378, DW_AT_accessibility(DW_ACCESS_public)
    4169              DW$379  .dwtag  DW_TAG_member, DW_AT_type(*DW$T$23)
    4170                      .dwattr DW$379, DW_AT_name("eidt_lenth"), DW_AT_symbol_name("_eidt_lenth")
    4171                      .dwattr DW$379, DW_AT_data_member_location[DW_OP_plus_uconst 0x2]
    4172                      .dwattr DW$379, DW_AT_accessibility(DW_ACCESS_public)
    4173              DW$380  .dwtag  DW_TAG_member, DW_AT_type(*DW$T$23)
    4174                      .dwattr DW$380, DW_AT_name("surplus_lenth"), DW_AT_symbol_name("_surplus_lenth")
    4175                      .dwattr DW$380, DW_AT_data_member_location[DW_OP_plus_uconst 0x3]
    4176                      .dwattr DW$380, DW_AT_accessibility(DW_ACCESS_public)
    4177              DW$381  .dwtag  DW_TAG_member, DW_AT_type(*DW$T$23)
    4178                      .dwattr DW$381, DW_AT_name("id"), DW_AT_symbol_name("_id")
    4179                      .dwattr DW$381, DW_AT_data_member_location[DW_OP_plus_uconst 0x4]
    4180                      .dwattr DW$381, DW_AT_accessibility(DW_ACCESS_public)
    4181              DW$382  .dwtag  DW_TAG_member, DW_AT_type(*DW$T$6)
    4182                      .dwattr DW$382, DW_AT_name("flag"), DW_AT_symbol_name("_flag")
    4183                      .dwattr DW$382, DW_AT_data_member_location[DW_OP_plus_uconst 0x5]
    4184                      .dwattr DW$382, DW_AT_accessibility(DW_ACCESS_public)
    4185              DW$383  .dwtag  DW_TAG_member, DW_AT_type(*DW$T$24)
    4186                      .dwattr DW$383, DW_AT_name("next_edit"), DW_AT_symbol_name("_next_edit")
    4187                      .dwattr DW$383, DW_AT_data_member_location[DW_OP_plus_uconst 0x6]
    4188                      .dwattr DW$383, DW_AT_accessibility(DW_ACCESS_public)
    4189                      .dwendtag DW$T$25
    4190              
    4191              DW$T$24 .dwtag  DW_TAG_pointer_type, DW_AT_type(*DW$T$25)
    4192                      .dwattr DW$T$24, DW_AT_address_class(0x16)
    4193              
    4194              DW$T$41 .dwtag  DW_TAG_structure_type
    4195                      .dwattr DW$T$41, DW_AT_byte_size(0x21a)
    4196              DW$384  .dwtag  DW_TAG_member, DW_AT_type(*DW$T$37)
    4197                      .dwattr DW$384, DW_AT_name("fs_type"), DW_AT_symbol_name("_fs_type")
    4198                      .dwattr DW$384, DW_AT_data_member_location[DW_OP_plus_uconst 0x0]
    4199                      .dwattr DW$384, DW_AT_accessibility(DW_ACCESS_public)
    4200              DW$385  .dwtag  DW_TAG_member, DW_AT_type(*DW$T$37)
    4201                      .dwattr DW$385, DW_AT_name("drv"), DW_AT_symbol_name("_drv")
    4202                      .dwattr DW$385, DW_AT_data_member_location[DW_OP_plus_uconst 0x1]
    4203                      .dwattr DW$385, DW_AT_accessibility(DW_ACCESS_public)
    4204              DW$386  .dwtag  DW_TAG_member, DW_AT_type(*DW$T$37)
    4205                      .dwattr DW$386, DW_AT_name("csize"), DW_AT_symbol_name("_csize")
    4206                      .dwattr DW$386, DW_AT_data_member_location[DW_OP_plus_uconst 0x2]
    4207                      .dwattr DW$386, DW_AT_accessibility(DW_ACCESS_public)
    4208              DW$387  .dwtag  DW_TAG_member, DW_AT_type(*DW$T$37)
    4209                      .dwattr DW$387, DW_AT_name("n_fats"), DW_AT_symbol_name("_n_fats")
    4210                      .dwattr DW$387, DW_AT_data_member_location[DW_OP_plus_uconst 0x3]
    4211                      .dwattr DW$387, DW_AT_accessibility(DW_ACCESS_public)
    4212              DW$388  .dwtag  DW_TAG_member, DW_AT_type(*DW$T$37)
TMS320C2000 COFF Assembler PC v4.1.3 Thu Sep 15 15:05:07 2011

Tools Copyright (c) 1996-2006 Texas Instruments Incorporated
C:\DOCUME~1\ADMINI~1\LOCALS~1\Temp\TI4802                            PAGE   86

    4213                      .dwattr DW$388, DW_AT_name("wflag"), DW_AT_symbol_name("_wflag")
    4214                      .dwattr DW$388, DW_AT_data_member_location[DW_OP_plus_uconst 0x4]
    4215                      .dwattr DW$388, DW_AT_accessibility(DW_ACCESS_public)
    4216              DW$389  .dwtag  DW_TAG_member, DW_AT_type(*DW$T$37)
    4217                      .dwattr DW$389, DW_AT_name("fsi_flag"), DW_AT_symbol_name("_fsi_flag")
    4218                      .dwattr DW$389, DW_AT_data_member_location[DW_OP_plus_uconst 0x5]
    4219                      .dwattr DW$389, DW_AT_accessibility(DW_ACCESS_public)
    4220              DW$390  .dwtag  DW_TAG_member, DW_AT_type(*DW$T$38)
    4221                      .dwattr DW$390, DW_AT_name("id"), DW_AT_symbol_name("_id")
    4222                      .dwattr DW$390, DW_AT_data_member_location[DW_OP_plus_uconst 0x6]
    4223                      .dwattr DW$390, DW_AT_accessibility(DW_ACCESS_public)
    4224              DW$391  .dwtag  DW_TAG_member, DW_AT_type(*DW$T$38)
    4225                      .dwattr DW$391, DW_AT_name("n_rootdir"), DW_AT_symbol_name("_n_rootdir")
    4226                      .dwattr DW$391, DW_AT_data_member_location[DW_OP_plus_uconst 0x7]
    4227                      .dwattr DW$391, DW_AT_accessibility(DW_ACCESS_public)
    4228              DW$392  .dwtag  DW_TAG_member, DW_AT_type(*DW$T$39)
    4229                      .dwattr DW$392, DW_AT_name("last_clust"), DW_AT_symbol_name("_last_clust")
    4230                      .dwattr DW$392, DW_AT_data_member_location[DW_OP_plus_uconst 0x8]
    4231                      .dwattr DW$392, DW_AT_accessibility(DW_ACCESS_public)
    4232              DW$393  .dwtag  DW_TAG_member, DW_AT_type(*DW$T$39)
    4233                      .dwattr DW$393, DW_AT_name("free_clust"), DW_AT_symbol_name("_free_clust")
    4234                      .dwattr DW$393, DW_AT_data_member_location[DW_OP_plus_uconst 0xa]
    4235                      .dwattr DW$393, DW_AT_accessibility(DW_ACCESS_public)
    4236              DW$394  .dwtag  DW_TAG_member, DW_AT_type(*DW$T$39)
    4237                      .dwattr DW$394, DW_AT_name("fsi_sector"), DW_AT_symbol_name("_fsi_sector")
    4238                      .dwattr DW$394, DW_AT_data_member_location[DW_OP_plus_uconst 0xc]
    4239                      .dwattr DW$394, DW_AT_accessibility(DW_ACCESS_public)
    4240              DW$395  .dwtag  DW_TAG_member, DW_AT_type(*DW$T$39)
    4241                      .dwattr DW$395, DW_AT_name("n_fatent"), DW_AT_symbol_name("_n_fatent")
    4242                      .dwattr DW$395, DW_AT_data_member_location[DW_OP_plus_uconst 0xe]
    4243                      .dwattr DW$395, DW_AT_accessibility(DW_ACCESS_public)
    4244              DW$396  .dwtag  DW_TAG_member, DW_AT_type(*DW$T$39)
    4245                      .dwattr DW$396, DW_AT_name("fsize"), DW_AT_symbol_name("_fsize")
    4246                      .dwattr DW$396, DW_AT_data_member_location[DW_OP_plus_uconst 0x10]
    4247                      .dwattr DW$396, DW_AT_accessibility(DW_ACCESS_public)
    4248              DW$397  .dwtag  DW_TAG_member, DW_AT_type(*DW$T$39)
    4249                      .dwattr DW$397, DW_AT_name("fatbase"), DW_AT_symbol_name("_fatbase")
    4250                      .dwattr DW$397, DW_AT_data_member_location[DW_OP_plus_uconst 0x12]
    4251                      .dwattr DW$397, DW_AT_accessibility(DW_ACCESS_public)
    4252              DW$398  .dwtag  DW_TAG_member, DW_AT_type(*DW$T$39)
    4253                      .dwattr DW$398, DW_AT_name("dirbase"), DW_AT_symbol_name("_dirbase")
    4254                      .dwattr DW$398, DW_AT_data_member_location[DW_OP_plus_uconst 0x14]
    4255                      .dwattr DW$398, DW_AT_accessibility(DW_ACCESS_public)
    4256              DW$399  .dwtag  DW_TAG_member, DW_AT_type(*DW$T$39)
    4257                      .dwattr DW$399, DW_AT_name("database"), DW_AT_symbol_name("_database")
    4258                      .dwattr DW$399, DW_AT_data_member_location[DW_OP_plus_uconst 0x16]
    4259                      .dwattr DW$399, DW_AT_accessibility(DW_ACCESS_public)
    4260              DW$400  .dwtag  DW_TAG_member, DW_AT_type(*DW$T$39)
    4261                      .dwattr DW$400, DW_AT_name("winsect"), DW_AT_symbol_name("_winsect")
    4262                      .dwattr DW$400, DW_AT_data_member_location[DW_OP_plus_uconst 0x18]
    4263                      .dwattr DW$400, DW_AT_accessibility(DW_ACCESS_public)
    4264              DW$401  .dwtag  DW_TAG_member, DW_AT_type(*DW$T$40)
    4265                      .dwattr DW$401, DW_AT_name("win"), DW_AT_symbol_name("_win")
    4266                      .dwattr DW$401, DW_AT_data_member_location[DW_OP_plus_uconst 0x1a]
    4267                      .dwattr DW$401, DW_AT_accessibility(DW_ACCESS_public)
TMS320C2000 COFF Assembler PC v4.1.3 Thu Sep 15 15:05:07 2011

Tools Copyright (c) 1996-2006 Texas Instruments Incorporated
C:\DOCUME~1\ADMINI~1\LOCALS~1\Temp\TI4802                            PAGE   87

    4268                      .dwendtag DW$T$41
    4269              
    4270              
    4271                      .dwattr DW$204, DW_AT_external(0x01)
    4272                      .dwattr DW$205, DW_AT_external(0x01)
    4273                      .dwattr DW$146, DW_AT_external(0x01)
    4274                      .dwattr DW$134, DW_AT_external(0x01)
    4275                      .dwattr DW$159, DW_AT_external(0x01)
    4276                      .dwattr DW$184, DW_AT_external(0x01)
    4277                      .dwattr DW$187, DW_AT_external(0x01)
    4278                      .dwattr DW$164, DW_AT_external(0x01)
    4279                      .dwattr DW$164, DW_AT_type(*DW$T$23)
    4280                      .dwattr DW$139, DW_AT_external(0x01)
    4281                      .dwattr DW$154, DW_AT_external(0x01)
    4282                      .dwattr DW$130, DW_AT_external(0x01)
    4283                      .dwattr DW$130, DW_AT_type(*DW$T$109)
    4284                      .dwattr DW$124, DW_AT_external(0x01)
    4285                      .dwattr DW$106, DW_AT_external(0x01)
    4286                      .dwattr DW$106, DW_AT_type(*DW$T$23)
    4287                      .dwattr DW$171, DW_AT_external(0x01)
    4288                      .dwattr DW$CU, DW_AT_language(DW_LANG_C)
    4289              
    4290              ;***************************************************************
    4291              ;* DWARF CIE ENTRIES                                           *
    4292              ;***************************************************************
    4293              
    4294              DW$CIE  .dwcie 1, 40
    4295                      .dwcfa  0x0c, 20, 0
    4296                      .dwcfa  0x07, 0
    4297                      .dwcfa  0x07, 1
    4298                      .dwcfa  0x07, 2
    4299                      .dwcfa  0x07, 3
    4300                      .dwcfa  0x07, 4
    4301                      .dwcfa  0x07, 5
    4302                      .dwcfa  0x08, 6
    4303                      .dwcfa  0x08, 7
    4304                      .dwcfa  0x08, 8
    4305                      .dwcfa  0x08, 9
    4306                      .dwcfa  0x08, 10
    4307                      .dwcfa  0x08, 11
    4308                      .dwcfa  0x07, 12
    4309                      .dwcfa  0x07, 13
    4310                      .dwcfa  0x07, 14
    4311                      .dwcfa  0x07, 15
    4312                      .dwcfa  0x07, 16
    4313                      .dwcfa  0x07, 17
    4314                      .dwcfa  0x07, 18
    4315                      .dwcfa  0x07, 19
    4316                      .dwcfa  0x07, 20
    4317                      .dwcfa  0x07, 21
    4318                      .dwcfa  0x07, 22
    4319                      .dwcfa  0x07, 23
    4320                      .dwcfa  0x07, 24
    4321                      .dwcfa  0x07, 25
    4322                      .dwcfa  0x07, 26
TMS320C2000 COFF Assembler PC v4.1.3 Thu Sep 15 15:05:07 2011

Tools Copyright (c) 1996-2006 Texas Instruments Incorporated
C:\DOCUME~1\ADMINI~1\LOCALS~1\Temp\TI4802                            PAGE   88

    4323                      .dwcfa  0x08, 27
    4324                      .dwcfa  0x07, 28
    4325                      .dwcfa  0x07, 29
    4326                      .dwcfa  0x07, 30
    4327                      .dwcfa  0x07, 31
    4328                      .dwcfa  0x07, 32
    4329                      .dwcfa  0x07, 33
    4330                      .dwcfa  0x07, 34
    4331                      .dwcfa  0x07, 35
    4332                      .dwcfa  0x07, 36
    4333                      .dwcfa  0x07, 37
    4334                      .dwcfa  0x07, 38
    4335                      .dwcfa  0x07, 39
    4336                      .dwcfa  0x07, 40
    4337              
    4338              ;***************************************************************
    4339              ;* DWARF REGISTER MAP                                          *
    4340              ;***************************************************************
    4341              
    4342              DW$402  .dwtag  DW_TAG_assign_register, DW_AT_name("AL")
    4343                      .dwattr DW$402, DW_AT_location[DW_OP_reg0]
    4344              DW$403  .dwtag  DW_TAG_assign_register, DW_AT_name("AH")
    4345                      .dwattr DW$403, DW_AT_location[DW_OP_reg1]
    4346              DW$404  .dwtag  DW_TAG_assign_register, DW_AT_name("PL")
    4347                      .dwattr DW$404, DW_AT_location[DW_OP_reg2]
    4348              DW$405  .dwtag  DW_TAG_assign_register, DW_AT_name("PH")
    4349                      .dwattr DW$405, DW_AT_location[DW_OP_reg3]
    4350              DW$406  .dwtag  DW_TAG_assign_register, DW_AT_name("AR0")
    4351                      .dwattr DW$406, DW_AT_location[DW_OP_reg4]
    4352              DW$407  .dwtag  DW_TAG_assign_register, DW_AT_name("XAR0")
    4353                      .dwattr DW$407, DW_AT_location[DW_OP_reg5]
    4354              DW$408  .dwtag  DW_TAG_assign_register, DW_AT_name("AR1")
    4355                      .dwattr DW$408, DW_AT_location[DW_OP_reg6]
    4356              DW$409  .dwtag  DW_TAG_assign_register, DW_AT_name("XAR1")
    4357                      .dwattr DW$409, DW_AT_location[DW_OP_reg7]
    4358              DW$410  .dwtag  DW_TAG_assign_register, DW_AT_name("AR2")
    4359                      .dwattr DW$410, DW_AT_location[DW_OP_reg8]
    4360              DW$411  .dwtag  DW_TAG_assign_register, DW_AT_name("XAR2")
    4361                      .dwattr DW$411, DW_AT_location[DW_OP_reg9]
    4362              DW$412  .dwtag  DW_TAG_assign_register, DW_AT_name("AR3")
    4363                      .dwattr DW$412, DW_AT_location[DW_OP_reg10]
    4364              DW$413  .dwtag  DW_TAG_assign_register, DW_AT_name("XAR3")
    4365                      .dwattr DW$413, DW_AT_location[DW_OP_reg11]
    4366              DW$414  .dwtag  DW_TAG_assign_register, DW_AT_name("AR4")
    4367                      .dwattr DW$414, DW_AT_location[DW_OP_reg12]
    4368              DW$415  .dwtag  DW_TAG_assign_register, DW_AT_name("XAR4")
    4369                      .dwattr DW$415, DW_AT_location[DW_OP_reg13]
    4370              DW$416  .dwtag  DW_TAG_assign_register, DW_AT_name("AR5")
    4371                      .dwattr DW$416, DW_AT_location[DW_OP_reg14]
    4372              DW$417  .dwtag  DW_TAG_assign_register, DW_AT_name("XAR5")
    4373                      .dwattr DW$417, DW_AT_location[DW_OP_reg15]
    4374              DW$418  .dwtag  DW_TAG_assign_register, DW_AT_name("AR6")
    4375                      .dwattr DW$418, DW_AT_location[DW_OP_reg16]
    4376              DW$419  .dwtag  DW_TAG_assign_register, DW_AT_name("XAR6")
    4377                      .dwattr DW$419, DW_AT_location[DW_OP_reg17]
TMS320C2000 COFF Assembler PC v4.1.3 Thu Sep 15 15:05:07 2011

Tools Copyright (c) 1996-2006 Texas Instruments Incorporated
C:\DOCUME~1\ADMINI~1\LOCALS~1\Temp\TI4802                            PAGE   89

    4378              DW$420  .dwtag  DW_TAG_assign_register, DW_AT_name("AR7")
    4379                      .dwattr DW$420, DW_AT_location[DW_OP_reg18]
    4380              DW$421  .dwtag  DW_TAG_assign_register, DW_AT_name("XAR7")
    4381                      .dwattr DW$421, DW_AT_location[DW_OP_reg19]
    4382              DW$422  .dwtag  DW_TAG_assign_register, DW_AT_name("SP")
    4383                      .dwattr DW$422, DW_AT_location[DW_OP_reg20]
    4384              DW$423  .dwtag  DW_TAG_assign_register, DW_AT_name("XT")
    4385                      .dwattr DW$423, DW_AT_location[DW_OP_reg21]
    4386              DW$424  .dwtag  DW_TAG_assign_register, DW_AT_name("T")
    4387                      .dwattr DW$424, DW_AT_location[DW_OP_reg22]
    4388              DW$425  .dwtag  DW_TAG_assign_register, DW_AT_name("ST0")
    4389                      .dwattr DW$425, DW_AT_location[DW_OP_reg23]
    4390              DW$426  .dwtag  DW_TAG_assign_register, DW_AT_name("ST1")
    4391                      .dwattr DW$426, DW_AT_location[DW_OP_reg24]
    4392              DW$427  .dwtag  DW_TAG_assign_register, DW_AT_name("PC")
    4393                      .dwattr DW$427, DW_AT_location[DW_OP_reg25]
    4394              DW$428  .dwtag  DW_TAG_assign_register, DW_AT_name("RPC")
    4395                      .dwattr DW$428, DW_AT_location[DW_OP_reg26]
    4396              DW$429  .dwtag  DW_TAG_assign_register, DW_AT_name("FP")
    4397                      .dwattr DW$429, DW_AT_location[DW_OP_reg27]
    4398              DW$430  .dwtag  DW_TAG_assign_register, DW_AT_name("DP")
    4399                      .dwattr DW$430, DW_AT_location[DW_OP_reg28]
    4400              DW$431  .dwtag  DW_TAG_assign_register, DW_AT_name("SXM")
    4401                      .dwattr DW$431, DW_AT_location[DW_OP_reg29]
    4402              DW$432  .dwtag  DW_TAG_assign_register, DW_AT_name("PM")
    4403                      .dwattr DW$432, DW_AT_location[DW_OP_reg30]
    4404              DW$433  .dwtag  DW_TAG_assign_register, DW_AT_name("OVM")
    4405                      .dwattr DW$433, DW_AT_location[DW_OP_reg31]
    4406              DW$434  .dwtag  DW_TAG_assign_register, DW_AT_name("PAGE0")
    4407                      .dwattr DW$434, DW_AT_location[DW_OP_regx 0x20]
    4408              DW$435  .dwtag  DW_TAG_assign_register, DW_AT_name("AMODE")
    4409                      .dwattr DW$435, DW_AT_location[DW_OP_regx 0x21]
    4410              DW$436  .dwtag  DW_TAG_assign_register, DW_AT_name("IFR")
    4411                      .dwattr DW$436, DW_AT_location[DW_OP_regx 0x22]
    4412              DW$437  .dwtag  DW_TAG_assign_register, DW_AT_name("IER")
    4413                      .dwattr DW$437, DW_AT_location[DW_OP_regx 0x23]
    4414              DW$438  .dwtag  DW_TAG_assign_register, DW_AT_name("IER")
    4415                      .dwattr DW$438, DW_AT_location[DW_OP_regx 0x24]
    4416              DW$439  .dwtag  DW_TAG_assign_register, DW_AT_name("PSEUDO")
    4417                      .dwattr DW$439, DW_AT_location[DW_OP_regx 0x25]
    4418              DW$440  .dwtag  DW_TAG_assign_register, DW_AT_name("PSEUDOH")
    4419                      .dwattr DW$440, DW_AT_location[DW_OP_regx 0x26]
    4420              DW$441  .dwtag  DW_TAG_assign_register, DW_AT_name("VOL")
    4421                      .dwattr DW$441, DW_AT_location[DW_OP_regx 0x27]
    4422              DW$442  .dwtag  DW_TAG_assign_register, DW_AT_name("CIE_RETA")
    4423                      .dwattr DW$442, DW_AT_location[DW_OP_regx 0x28]
    4424                      .dwendtag DW$CU
    4425              

No Assembly Errors, No Assembly Warnings
