TMS320C2000 COFF Assembler PC v4.1.3 Thu Sep 15 15:05:03 2011

Tools Copyright (c) 1996-2006 Texas Instruments Incorporated
C:\DOCUME~1\ADMINI~1\LOCALS~1\Temp\TI3002                            PAGE    1

       1              ;***************************************************************
       2              ;* TMS320C2000 C/C++ Codegen                         PC v4.1.3 *
       3              ;* Date/Time created: Thu Sep 15 15:05:02 2011                 *
       4              ;***************************************************************
       5                      .compiler_opts --mem_model:code=flat --mem_model:data=large --silicon_version=28 
       6        0002  FP      .set    XAR2
       7              
       8              DW$CU   .dwtag  DW_TAG_compile_unit
       9                      .dwattr DW$CU, DW_AT_name("app_WIRmod_componentlib.c")
      10                      .dwattr DW$CU, DW_AT_producer("TMS320C2000 C/C++ Codegen PC v4.1.3 Copyright (c) 1996-2006 Texas Inst
      11                      .dwattr DW$CU, DW_AT_stmt_list(0x00)
      12                      .dwattr DW$CU, DW_AT_TI_VERSION(0x01)
      13              ;**************************************************************
      14              ;* CINIT RECORDS                                              *
      15              ;**************************************************************
      16 00000000               .sect   ".cinit"
      17                      .align  1
      18 00000000 FFF8          .field          -IR_1,16
      19 00000001 0000-         .field          _m_ELELIB+0,32
         00000002 0000 
      20 00000003 0227+         .field          _m_ELELIB_BYQ3_4,32             ; _m_ELELIB[0] @ 0
         00000004 0000 
      21 00000005 0130+         .field          _m_ELELIB_BYQ3_3,32             ; _m_ELELIB[1] @ 32
         00000006 0000 
      22 00000007 0082+         .field          _m_ELELIB_MP,32         ; _m_ELELIB[2] @ 64
         00000008 0000 
      23 00000009 0000+         .field          _m_ELELIB_HGQ,32                ; _m_ELELIB[3] @ 96
         0000000a 0000 
      24        0008  IR_1:   .set    8
      25              
      26              
      27              DW$1    .dwtag  DW_TAG_subprogram, DW_AT_name("GUI_string_display_At"), DW_AT_symbol_name("_GUI_string_displa
      28                      .dwattr DW$1, DW_AT_declaration(0x01)
      29                      .dwattr DW$1, DW_AT_external(0x01)
      30              DW$2    .dwtag  DW_TAG_formal_parameter, DW_AT_type(*DW$T$11)
      31              DW$3    .dwtag  DW_TAG_formal_parameter, DW_AT_type(*DW$T$11)
      32              DW$4    .dwtag  DW_TAG_formal_parameter, DW_AT_type(*DW$T$28)
      33                      .dwendtag DW$1
      34              
      35              
      36              DW$5    .dwtag  DW_TAG_subprogram, DW_AT_name("GUI_libASC_display_At"), DW_AT_symbol_name("_GUI_libASC_displa
      37                      .dwattr DW$5, DW_AT_declaration(0x01)
      38                      .dwattr DW$5, DW_AT_external(0x01)
      39              DW$6    .dwtag  DW_TAG_formal_parameter, DW_AT_type(*DW$T$10)
      40              DW$7    .dwtag  DW_TAG_formal_parameter, DW_AT_type(*DW$T$10)
      41              DW$8    .dwtag  DW_TAG_formal_parameter, DW_AT_type(*DW$T$11)
      42              DW$9    .dwtag  DW_TAG_formal_parameter, DW_AT_type(*DW$T$11)
      43              DW$10   .dwtag  DW_TAG_formal_parameter, DW_AT_type(*DW$T$28)
      44                      .dwendtag DW$5
      45              
      46              
      47              DW$11   .dwtag  DW_TAG_subprogram, DW_AT_name("GUI_set_Fgcolor"), DW_AT_symbol_name("_GUI_set_Fgcolor")
      48                      .dwattr DW$11, DW_AT_declaration(0x01)
      49                      .dwattr DW$11, DW_AT_external(0x01)
      50              DW$12   .dwtag  DW_TAG_formal_parameter, DW_AT_type(*DW$T$11)
TMS320C2000 COFF Assembler PC v4.1.3 Thu Sep 15 15:05:03 2011

Tools Copyright (c) 1996-2006 Texas Instruments Incorporated
C:\DOCUME~1\ADMINI~1\LOCALS~1\Temp\TI3002                            PAGE    2

      51                      .dwendtag DW$11
      52              
      53              
      54              DW$13   .dwtag  DW_TAG_subprogram, DW_AT_name("GUI_window_line_display"), DW_AT_symbol_name("_GUI_window_line
      55                      .dwattr DW$13, DW_AT_declaration(0x01)
      56                      .dwattr DW$13, DW_AT_external(0x01)
      57              DW$14   .dwtag  DW_TAG_formal_parameter, DW_AT_type(*DW$T$11)
      58              DW$15   .dwtag  DW_TAG_formal_parameter, DW_AT_type(*DW$T$11)
      59              DW$16   .dwtag  DW_TAG_formal_parameter, DW_AT_type(*DW$T$11)
      60              DW$17   .dwtag  DW_TAG_formal_parameter, DW_AT_type(*DW$T$11)
      61                      .dwendtag DW$13
      62              
      63              
      64              DW$18   .dwtag  DW_TAG_subprogram, DW_AT_name("global_memset"), DW_AT_symbol_name("_global_memset")
      65                      .dwattr DW$18, DW_AT_declaration(0x01)
      66                      .dwattr DW$18, DW_AT_external(0x01)
      67              DW$19   .dwtag  DW_TAG_formal_parameter, DW_AT_type(*DW$T$3)
      68              DW$20   .dwtag  DW_TAG_formal_parameter, DW_AT_type(*DW$T$6)
      69              DW$21   .dwtag  DW_TAG_formal_parameter, DW_AT_type(*DW$T$20)
      70                      .dwendtag DW$18
      71              
      72              
      73              DW$22   .dwtag  DW_TAG_subprogram, DW_AT_name("GUI_window_draw_dot"), DW_AT_symbol_name("_GUI_window_draw_dot
      74                      .dwattr DW$22, DW_AT_type(*DW$T$10)
      75                      .dwattr DW$22, DW_AT_declaration(0x01)
      76                      .dwattr DW$22, DW_AT_external(0x01)
      77                      .global _m_ELELIB
      78 00000000       _m_ELELIB:      .usect  ".ebss",8,1,1
      79              DW$23   .dwtag  DW_TAG_variable, DW_AT_name("m_ELELIB"), DW_AT_symbol_name("_m_ELELIB")
      80                      .dwattr DW$23, DW_AT_location[DW_OP_addr _m_ELELIB]
      81                      .dwattr DW$23, DW_AT_type(*DW$T$55)
      82                      .dwattr DW$23, DW_AT_external(0x01)
      83 00000040       _m_ELEmem:      .usect  ".ebss",80,1,0
      84              DW$24   .dwtag  DW_TAG_variable, DW_AT_name("m_ELEmem"), DW_AT_symbol_name("_m_ELEmem")
      85                      .dwattr DW$24, DW_AT_type(*DW$T$58)
      86                      .dwattr DW$24, DW_AT_location[DW_OP_addr _m_ELEmem]
      87                      .global _m_ELELIB_HGQ
      88 00000000               .sect   ".econst"
      89                      .align  1
      90 00000000       _m_ELELIB_HGQ:
      91 00000000 0020          .field          32,16                   ; _m_ELELIB_HGQ[0] @ 0
      92 00000001 0020          .field          32,16                   ; _m_ELELIB_HGQ[1] @ 16
      93 00000002 0038          .field          56,16                   ; _m_ELELIB_HGQ[2] @ 32
      94 00000003 0000          .field          0,16                    ; _m_ELELIB_HGQ[3] @ 48
      95 00000004 0000          .field          0,16                    ; _m_ELELIB_HGQ[4] @ 64
      96 00000005 0007          .field          7,16                    ; _m_ELELIB_HGQ[5] @ 80
      97 00000006 0038          .field          56,16                   ; _m_ELELIB_HGQ[6] @ 96
      98 00000007 0000          .field          0,16                    ; _m_ELELIB_HGQ[7] @ 112
      99 00000008 0000          .field          0,16                    ; _m_ELELIB_HGQ[8] @ 128
     100 00000009 0007          .field          7,16                    ; _m_ELELIB_HGQ[9] @ 144
     101 0000000a 0018          .field          24,16                   ; _m_ELELIB_HGQ[10] @ 160
     102 0000000b 0000          .field          0,16                    ; _m_ELELIB_HGQ[11] @ 176
     103 0000000c 0000          .field          0,16                    ; _m_ELELIB_HGQ[12] @ 192
     104 0000000d 0003          .field          3,16                    ; _m_ELELIB_HGQ[13] @ 208
     105 0000000e 0010          .field          16,16                   ; _m_ELELIB_HGQ[14] @ 224
TMS320C2000 COFF Assembler PC v4.1.3 Thu Sep 15 15:05:03 2011

Tools Copyright (c) 1996-2006 Texas Instruments Incorporated
C:\DOCUME~1\ADMINI~1\LOCALS~1\Temp\TI3002                            PAGE    3

     106 0000000f 0000          .field          0,16                    ; _m_ELELIB_HGQ[15] @ 240
     107 00000010 0000          .field          0,16                    ; _m_ELELIB_HGQ[16] @ 256
     108 00000011 0002          .field          2,16                    ; _m_ELELIB_HGQ[17] @ 272
     109 00000012 0010          .field          16,16                   ; _m_ELELIB_HGQ[18] @ 288
     110 00000013 0000          .field          0,16                    ; _m_ELELIB_HGQ[19] @ 304
     111 00000014 0000          .field          0,16                    ; _m_ELELIB_HGQ[20] @ 320
     112 00000015 0002          .field          2,16                    ; _m_ELELIB_HGQ[21] @ 336
     113 00000016 0010          .field          16,16                   ; _m_ELELIB_HGQ[22] @ 352
     114 00000017 0000          .field          0,16                    ; _m_ELELIB_HGQ[23] @ 368
     115 00000018 0000          .field          0,16                    ; _m_ELELIB_HGQ[24] @ 384
     116 00000019 0002          .field          2,16                    ; _m_ELELIB_HGQ[25] @ 400
     117 0000001a 0010          .field          16,16                   ; _m_ELELIB_HGQ[26] @ 416
     118 0000001b 0000          .field          0,16                    ; _m_ELELIB_HGQ[27] @ 432
     119 0000001c 0000          .field          0,16                    ; _m_ELELIB_HGQ[28] @ 448
     120 0000001d 0002          .field          2,16                    ; _m_ELELIB_HGQ[29] @ 464
     121 0000001e 0010          .field          16,16                   ; _m_ELELIB_HGQ[30] @ 480
     122 0000001f 0000          .field          0,16                    ; _m_ELELIB_HGQ[31] @ 496
     123 00000020 0000          .field          0,16                    ; _m_ELELIB_HGQ[32] @ 512
     124 00000021 0002          .field          2,16                    ; _m_ELELIB_HGQ[33] @ 528
     125 00000022 0010          .field          16,16                   ; _m_ELELIB_HGQ[34] @ 544
     126 00000023 0000          .field          0,16                    ; _m_ELELIB_HGQ[35] @ 560
     127 00000024 0000          .field          0,16                    ; _m_ELELIB_HGQ[36] @ 576
     128 00000025 0002          .field          2,16                    ; _m_ELELIB_HGQ[37] @ 592
     129 00000026 0010          .field          16,16                   ; _m_ELELIB_HGQ[38] @ 608
     130 00000027 0000          .field          0,16                    ; _m_ELELIB_HGQ[39] @ 624
     131 00000028 0000          .field          0,16                    ; _m_ELELIB_HGQ[40] @ 640
     132 00000029 0002          .field          2,16                    ; _m_ELELIB_HGQ[41] @ 656
     133 0000002a 0010          .field          16,16                   ; _m_ELELIB_HGQ[42] @ 672
     134 0000002b 0000          .field          0,16                    ; _m_ELELIB_HGQ[43] @ 688
     135 0000002c 0000          .field          0,16                    ; _m_ELELIB_HGQ[44] @ 704
     136 0000002d 0002          .field          2,16                    ; _m_ELELIB_HGQ[45] @ 720
     137 0000002e 0010          .field          16,16                   ; _m_ELELIB_HGQ[46] @ 736
     138 0000002f 0000          .field          0,16                    ; _m_ELELIB_HGQ[47] @ 752
     139 00000030 0000          .field          0,16                    ; _m_ELELIB_HGQ[48] @ 768
     140 00000031 0002          .field          2,16                    ; _m_ELELIB_HGQ[49] @ 784
     141 00000032 0010          .field          16,16                   ; _m_ELELIB_HGQ[50] @ 800
     142 00000033 0000          .field          0,16                    ; _m_ELELIB_HGQ[51] @ 816
     143 00000034 0000          .field          0,16                    ; _m_ELELIB_HGQ[52] @ 832
     144 00000035 0002          .field          2,16                    ; _m_ELELIB_HGQ[53] @ 848
     145 00000036 0010          .field          16,16                   ; _m_ELELIB_HGQ[54] @ 864
     146 00000037 0000          .field          0,16                    ; _m_ELELIB_HGQ[55] @ 880
     147 00000038 0000          .field          0,16                    ; _m_ELELIB_HGQ[56] @ 896
     148 00000039 0002          .field          2,16                    ; _m_ELELIB_HGQ[57] @ 912
     149 0000003a 0010          .field          16,16                   ; _m_ELELIB_HGQ[58] @ 928
     150 0000003b 0000          .field          0,16                    ; _m_ELELIB_HGQ[59] @ 944
     151 0000003c 0000          .field          0,16                    ; _m_ELELIB_HGQ[60] @ 960
     152 0000003d 0002          .field          2,16                    ; _m_ELELIB_HGQ[61] @ 976
     153 0000003e 0010          .field          16,16                   ; _m_ELELIB_HGQ[62] @ 992
     154 0000003f 0000          .field          0,16                    ; _m_ELELIB_HGQ[63] @ 1008
     155 00000040 0000          .field          0,16                    ; _m_ELELIB_HGQ[64] @ 1024
     156 00000041 0002          .field          2,16                    ; _m_ELELIB_HGQ[65] @ 1040
     157 00000042 0010          .field          16,16                   ; _m_ELELIB_HGQ[66] @ 1056
     158 00000043 0000          .field          0,16                    ; _m_ELELIB_HGQ[67] @ 1072
     159 00000044 0000          .field          0,16                    ; _m_ELELIB_HGQ[68] @ 1088
     160 00000045 0002          .field          2,16                    ; _m_ELELIB_HGQ[69] @ 1104
TMS320C2000 COFF Assembler PC v4.1.3 Thu Sep 15 15:05:03 2011

Tools Copyright (c) 1996-2006 Texas Instruments Incorporated
C:\DOCUME~1\ADMINI~1\LOCALS~1\Temp\TI3002                            PAGE    4

     161 00000046 0010          .field          16,16                   ; _m_ELELIB_HGQ[70] @ 1120
     162 00000047 0000          .field          0,16                    ; _m_ELELIB_HGQ[71] @ 1136
     163 00000048 0000          .field          0,16                    ; _m_ELELIB_HGQ[72] @ 1152
     164 00000049 0002          .field          2,16                    ; _m_ELELIB_HGQ[73] @ 1168
     165 0000004a 0010          .field          16,16                   ; _m_ELELIB_HGQ[74] @ 1184
     166 0000004b 0000          .field          0,16                    ; _m_ELELIB_HGQ[75] @ 1200
     167 0000004c 0000          .field          0,16                    ; _m_ELELIB_HGQ[76] @ 1216
     168 0000004d 0002          .field          2,16                    ; _m_ELELIB_HGQ[77] @ 1232
     169 0000004e 0010          .field          16,16                   ; _m_ELELIB_HGQ[78] @ 1248
     170 0000004f 0000          .field          0,16                    ; _m_ELELIB_HGQ[79] @ 1264
     171 00000050 0000          .field          0,16                    ; _m_ELELIB_HGQ[80] @ 1280
     172 00000051 0002          .field          2,16                    ; _m_ELELIB_HGQ[81] @ 1296
     173 00000052 0010          .field          16,16                   ; _m_ELELIB_HGQ[82] @ 1312
     174 00000053 0000          .field          0,16                    ; _m_ELELIB_HGQ[83] @ 1328
     175 00000054 0000          .field          0,16                    ; _m_ELELIB_HGQ[84] @ 1344
     176 00000055 0002          .field          2,16                    ; _m_ELELIB_HGQ[85] @ 1360
     177 00000056 00F0          .field          240,16                  ; _m_ELELIB_HGQ[86] @ 1376
     178 00000057 0000          .field          0,16                    ; _m_ELELIB_HGQ[87] @ 1392
     179 00000058 0000          .field          0,16                    ; _m_ELELIB_HGQ[88] @ 1408
     180 00000059 0002          .field          2,16                    ; _m_ELELIB_HGQ[89] @ 1424
     181 0000005a 00F0          .field          240,16                  ; _m_ELELIB_HGQ[90] @ 1440
     182 0000005b 0000          .field          0,16                    ; _m_ELELIB_HGQ[91] @ 1456
     183 0000005c 0000          .field          0,16                    ; _m_ELELIB_HGQ[92] @ 1472
     184 0000005d 0002          .field          2,16                    ; _m_ELELIB_HGQ[93] @ 1488
     185 0000005e 00D0          .field          208,16                  ; _m_ELELIB_HGQ[94] @ 1504
     186 0000005f 0000          .field          0,16                    ; _m_ELELIB_HGQ[95] @ 1520
     187 00000060 0040          .field          64,16                   ; _m_ELELIB_HGQ[96] @ 1536
     188 00000061 0002          .field          2,16                    ; _m_ELELIB_HGQ[97] @ 1552
     189 00000062 0010          .field          16,16                   ; _m_ELELIB_HGQ[98] @ 1568
     190 00000063 0000          .field          0,16                    ; _m_ELELIB_HGQ[99] @ 1584
     191 00000064 0040          .field          64,16                   ; _m_ELELIB_HGQ[100] @ 1600
     192 00000065 0002          .field          2,16                    ; _m_ELELIB_HGQ[101] @ 1616
     193 00000066 0008          .field          8,16                    ; _m_ELELIB_HGQ[102] @ 1632
     194 00000067 0000          .field          0,16                    ; _m_ELELIB_HGQ[103] @ 1648
     195 00000068 00C0          .field          192,16                  ; _m_ELELIB_HGQ[104] @ 1664
     196 00000069 0002          .field          2,16                    ; _m_ELELIB_HGQ[105] @ 1680
     197 0000006a 0008          .field          8,16                    ; _m_ELELIB_HGQ[106] @ 1696
     198 0000006b 0000          .field          0,16                    ; _m_ELELIB_HGQ[107] @ 1712
     199 0000006c 00A0          .field          160,16                  ; _m_ELELIB_HGQ[108] @ 1728
     200 0000006d 0004          .field          4,16                    ; _m_ELELIB_HGQ[109] @ 1744
     201 0000006e 0004          .field          4,16                    ; _m_ELELIB_HGQ[110] @ 1760
     202 0000006f 0001          .field          1,16                    ; _m_ELELIB_HGQ[111] @ 1776
     203 00000070 0010          .field          16,16                   ; _m_ELELIB_HGQ[112] @ 1792
     204 00000071 000C          .field          12,16                   ; _m_ELELIB_HGQ[113] @ 1808
     205 00000072 0003          .field          3,16                    ; _m_ELELIB_HGQ[114] @ 1824
     206 00000073 0006          .field          6,16                    ; _m_ELELIB_HGQ[115] @ 1840
     207 00000074 0008          .field          8,16                    ; _m_ELELIB_HGQ[116] @ 1856
     208 00000075 0010          .field          16,16                   ; _m_ELELIB_HGQ[117] @ 1872
     209 00000076 0005          .field          5,16                    ; _m_ELELIB_HGQ[118] @ 1888
     210 00000077 00FC          .field          252,16                  ; _m_ELELIB_HGQ[119] @ 1904
     211 00000078 0007          .field          7,16                    ; _m_ELELIB_HGQ[120] @ 1920
     212 00000079 00E0          .field          224,16                  ; _m_ELELIB_HGQ[121] @ 1936
     213 0000007a 000E          .field          14,16                   ; _m_ELELIB_HGQ[122] @ 1952
     214 0000007b 0000          .field          0,16                    ; _m_ELELIB_HGQ[123] @ 1968
     215 0000007c 0000          .field          0,16                    ; _m_ELELIB_HGQ[124] @ 1984
TMS320C2000 COFF Assembler PC v4.1.3 Thu Sep 15 15:05:03 2011

Tools Copyright (c) 1996-2006 Texas Instruments Incorporated
C:\DOCUME~1\ADMINI~1\LOCALS~1\Temp\TI3002                            PAGE    5

     216 0000007d 0000          .field          0,16                    ; _m_ELELIB_HGQ[125] @ 2000
     217 0000007e 000E          .field          14,16                   ; _m_ELELIB_HGQ[126] @ 2016
     218 0000007f 0000          .field          0,16                    ; _m_ELELIB_HGQ[127] @ 2032
     219 00000080 0000          .field          0,16                    ; _m_ELELIB_HGQ[128] @ 2048
     220 00000081 0000          .field          0,16                    ; _m_ELELIB_HGQ[129] @ 2064
     221              
     222              DW$25   .dwtag  DW_TAG_variable, DW_AT_name("m_ELELIB_HGQ"), DW_AT_symbol_name("_m_ELELIB_HGQ")
     223                      .dwattr DW$25, DW_AT_location[DW_OP_addr _m_ELELIB_HGQ]
     224                      .dwattr DW$25, DW_AT_type(*DW$T$53)
     225                      .dwattr DW$25, DW_AT_external(0x01)
     226                      .global _m_ELELIB_MP
     227 00000082               .sect   ".econst"
     228                      .align  1
     229 00000082       _m_ELELIB_MP:
     230 00000082 0020          .field          32,16                   ; _m_ELELIB_MP[0] @ 0
     231 00000083 002B          .field          43,16                   ; _m_ELELIB_MP[1] @ 16
     232 00000084 0000          .field          0,16                    ; _m_ELELIB_MP[2] @ 32
     233 00000085 0001          .field          1,16                    ; _m_ELELIB_MP[3] @ 48
     234 00000086 0000          .field          0,16                    ; _m_ELELIB_MP[4] @ 64
     235 00000087 0000          .field          0,16                    ; _m_ELELIB_MP[5] @ 80
     236 00000088 0000          .field          0,16                    ; _m_ELELIB_MP[6] @ 96
     237 00000089 0001          .field          1,16                    ; _m_ELELIB_MP[7] @ 112
     238 0000008a 0000          .field          0,16                    ; _m_ELELIB_MP[8] @ 128
     239 0000008b 0000          .field          0,16                    ; _m_ELELIB_MP[9] @ 144
     240 0000008c 0000          .field          0,16                    ; _m_ELELIB_MP[10] @ 160
     241 0000008d 0001          .field          1,16                    ; _m_ELELIB_MP[11] @ 176
     242 0000008e 0000          .field          0,16                    ; _m_ELELIB_MP[12] @ 192
     243 0000008f 0000          .field          0,16                    ; _m_ELELIB_MP[13] @ 208
     244 00000090 0000          .field          0,16                    ; _m_ELELIB_MP[14] @ 224
     245 00000091 0001          .field          1,16                    ; _m_ELELIB_MP[15] @ 240
     246 00000092 0000          .field          0,16                    ; _m_ELELIB_MP[16] @ 256
     247 00000093 0000          .field          0,16                    ; _m_ELELIB_MP[17] @ 272
     248 00000094 0000          .field          0,16                    ; _m_ELELIB_MP[18] @ 288
     249 00000095 0001          .field          1,16                    ; _m_ELELIB_MP[19] @ 304
     250 00000096 0000          .field          0,16                    ; _m_ELELIB_MP[20] @ 320
     251 00000097 0000          .field          0,16                    ; _m_ELELIB_MP[21] @ 336
     252 00000098 0000          .field          0,16                    ; _m_ELELIB_MP[22] @ 352
     253 00000099 0007          .field          7,16                    ; _m_ELELIB_MP[23] @ 368
     254 0000009a 00E0          .field          224,16                  ; _m_ELELIB_MP[24] @ 384
     255 0000009b 0000          .field          0,16                    ; _m_ELELIB_MP[25] @ 400
     256 0000009c 0038          .field          56,16                   ; _m_ELELIB_MP[26] @ 416
     257 0000009d 0019          .field          25,16                   ; _m_ELELIB_MP[27] @ 432
     258 0000009e 0018          .field          24,16                   ; _m_ELELIB_MP[28] @ 448
     259 0000009f 0000          .field          0,16                    ; _m_ELELIB_MP[29] @ 464
     260 000000a0 0078          .field          120,16                  ; _m_ELELIB_MP[30] @ 480
     261 000000a1 0021          .field          33,16                   ; _m_ELELIB_MP[31] @ 496
     262 000000a2 0004          .field          4,16                    ; _m_ELELIB_MP[32] @ 512
     263 000000a3 0000          .field          0,16                    ; _m_ELELIB_MP[33] @ 528
     264 000000a4 0078          .field          120,16                  ; _m_ELELIB_MP[34] @ 544
     265 000000a5 0041          .field          65,16                   ; _m_ELELIB_MP[35] @ 560
     266 000000a6 0002          .field          2,16                    ; _m_ELELIB_MP[36] @ 576
     267 000000a7 0000          .field          0,16                    ; _m_ELELIB_MP[37] @ 592
     268 000000a8 0038          .field          56,16                   ; _m_ELELIB_MP[38] @ 608
     269 000000a9 0081          .field          129,16                  ; _m_ELELIB_MP[39] @ 624
     270 000000aa 0001          .field          1,16                    ; _m_ELELIB_MP[40] @ 640
TMS320C2000 COFF Assembler PC v4.1.3 Thu Sep 15 15:05:03 2011

Tools Copyright (c) 1996-2006 Texas Instruments Incorporated
C:\DOCUME~1\ADMINI~1\LOCALS~1\Temp\TI3002                            PAGE    6

     271 000000ab 0000          .field          0,16                    ; _m_ELELIB_MP[41] @ 656
     272 000000ac 0001          .field          1,16                    ; _m_ELELIB_MP[42] @ 672
     273 000000ad 0001          .field          1,16                    ; _m_ELELIB_MP[43] @ 688
     274 000000ae 0000          .field          0,16                    ; _m_ELELIB_MP[44] @ 704
     275 000000af 0080          .field          128,16                  ; _m_ELELIB_MP[45] @ 720
     276 000000b0 0002          .field          2,16                    ; _m_ELELIB_MP[46] @ 736
     277 000000b1 0001          .field          1,16                    ; _m_ELELIB_MP[47] @ 752
     278 000000b2 0000          .field          0,16                    ; _m_ELELIB_MP[48] @ 768
     279 000000b3 0080          .field          128,16                  ; _m_ELELIB_MP[49] @ 784
     280 000000b4 0002          .field          2,16                    ; _m_ELELIB_MP[50] @ 800
     281 000000b5 0001          .field          1,16                    ; _m_ELELIB_MP[51] @ 816
     282 000000b6 0000          .field          0,16                    ; _m_ELELIB_MP[52] @ 832
     283 000000b7 0040          .field          64,16                   ; _m_ELELIB_MP[53] @ 848
     284 000000b8 0002          .field          2,16                    ; _m_ELELIB_MP[54] @ 864
     285 000000b9 0001          .field          1,16                    ; _m_ELELIB_MP[55] @ 880
     286 000000ba 0000          .field          0,16                    ; _m_ELELIB_MP[56] @ 896
     287 000000bb 0040          .field          64,16                   ; _m_ELELIB_MP[57] @ 912
     288 000000bc 0002          .field          2,16                    ; _m_ELELIB_MP[58] @ 928
     289 000000bd 0001          .field          1,16                    ; _m_ELELIB_MP[59] @ 944
     290 000000be 0000          .field          0,16                    ; _m_ELELIB_MP[60] @ 960
     291 000000bf 0040          .field          64,16                   ; _m_ELELIB_MP[61] @ 976
     292 000000c0 007F          .field          127,16                  ; _m_ELELIB_MP[62] @ 992
     293 000000c1 00FF          .field          255,16                  ; _m_ELELIB_MP[63] @ 1008
     294 000000c2 00FF          .field          255,16                  ; _m_ELELIB_MP[64] @ 1024
     295 000000c3 00FE          .field          254,16                  ; _m_ELELIB_MP[65] @ 1040
     296 000000c4 0042          .field          66,16                   ; _m_ELELIB_MP[66] @ 1056
     297 000000c5 0001          .field          1,16                    ; _m_ELELIB_MP[67] @ 1072
     298 000000c6 0000          .field          0,16                    ; _m_ELELIB_MP[68] @ 1088
     299 000000c7 0042          .field          66,16                   ; _m_ELELIB_MP[69] @ 1104
     300 000000c8 0042          .field          66,16                   ; _m_ELELIB_MP[70] @ 1120
     301 000000c9 0001          .field          1,16                    ; _m_ELELIB_MP[71] @ 1136
     302 000000ca 0000          .field          0,16                    ; _m_ELELIB_MP[72] @ 1152
     303 000000cb 0042          .field          66,16                   ; _m_ELELIB_MP[73] @ 1168
     304 000000cc 0042          .field          66,16                   ; _m_ELELIB_MP[74] @ 1184
     305 000000cd 0001          .field          1,16                    ; _m_ELELIB_MP[75] @ 1200
     306 000000ce 0000          .field          0,16                    ; _m_ELELIB_MP[76] @ 1216
     307 000000cf 0042          .field          66,16                   ; _m_ELELIB_MP[77] @ 1232
     308 000000d0 0041          .field          65,16                   ; _m_ELELIB_MP[78] @ 1248
     309 000000d1 0001          .field          1,16                    ; _m_ELELIB_MP[79] @ 1264
     310 000000d2 0000          .field          0,16                    ; _m_ELELIB_MP[80] @ 1280
     311 000000d3 0082          .field          130,16                  ; _m_ELELIB_MP[81] @ 1296
     312 000000d4 0041          .field          65,16                   ; _m_ELELIB_MP[82] @ 1312
     313 000000d5 0001          .field          1,16                    ; _m_ELELIB_MP[83] @ 1328
     314 000000d6 0000          .field          0,16                    ; _m_ELELIB_MP[84] @ 1344
     315 000000d7 0082          .field          130,16                  ; _m_ELELIB_MP[85] @ 1360
     316 000000d8 0040          .field          64,16                   ; _m_ELELIB_MP[86] @ 1376
     317 000000d9 0081          .field          129,16                  ; _m_ELELIB_MP[87] @ 1392
     318 000000da 0001          .field          1,16                    ; _m_ELELIB_MP[88] @ 1408
     319 000000db 0002          .field          2,16                    ; _m_ELELIB_MP[89] @ 1424
     320 000000dc 0040          .field          64,16                   ; _m_ELELIB_MP[90] @ 1440
     321 000000dd 0041          .field          65,16                   ; _m_ELELIB_MP[91] @ 1456
     322 000000de 0002          .field          2,16                    ; _m_ELELIB_MP[92] @ 1472
     323 000000df 0002          .field          2,16                    ; _m_ELELIB_MP[93] @ 1488
     324 000000e0 0040          .field          64,16                   ; _m_ELELIB_MP[94] @ 1504
     325 000000e1 0031          .field          49,16                   ; _m_ELELIB_MP[95] @ 1520
TMS320C2000 COFF Assembler PC v4.1.3 Thu Sep 15 15:05:03 2011

Tools Copyright (c) 1996-2006 Texas Instruments Incorporated
C:\DOCUME~1\ADMINI~1\LOCALS~1\Temp\TI3002                            PAGE    7

     326 000000e2 000C          .field          12,16                   ; _m_ELELIB_MP[96] @ 1536
     327 000000e3 0002          .field          2,16                    ; _m_ELELIB_MP[97] @ 1552
     328 000000e4 0040          .field          64,16                   ; _m_ELELIB_MP[98] @ 1568
     329 000000e5 000F          .field          15,16                   ; _m_ELELIB_MP[99] @ 1584
     330 000000e6 00F0          .field          240,16                  ; _m_ELELIB_MP[100] @ 1600
     331 000000e7 0002          .field          2,16                    ; _m_ELELIB_MP[101] @ 1616
     332 000000e8 0040          .field          64,16                   ; _m_ELELIB_MP[102] @ 1632
     333 000000e9 0001          .field          1,16                    ; _m_ELELIB_MP[103] @ 1648
     334 000000ea 0000          .field          0,16                    ; _m_ELELIB_MP[104] @ 1664
     335 000000eb 0002          .field          2,16                    ; _m_ELELIB_MP[105] @ 1680
     336 000000ec 0040          .field          64,16                   ; _m_ELELIB_MP[106] @ 1696
     337 000000ed 0039          .field          57,16                   ; _m_ELELIB_MP[107] @ 1712
     338 000000ee 0000          .field          0,16                    ; _m_ELELIB_MP[108] @ 1728
     339 000000ef 0002          .field          2,16                    ; _m_ELELIB_MP[109] @ 1744
     340 000000f0 0040          .field          64,16                   ; _m_ELELIB_MP[110] @ 1760
     341 000000f1 007D          .field          125,16                  ; _m_ELELIB_MP[111] @ 1776
     342 000000f2 0000          .field          0,16                    ; _m_ELELIB_MP[112] @ 1792
     343 000000f3 0002          .field          2,16                    ; _m_ELELIB_MP[113] @ 1808
     344 000000f4 0040          .field          64,16                   ; _m_ELELIB_MP[114] @ 1824
     345 000000f5 007D          .field          125,16                  ; _m_ELELIB_MP[115] @ 1840
     346 000000f6 0000          .field          0,16                    ; _m_ELELIB_MP[116] @ 1856
     347 000000f7 0002          .field          2,16                    ; _m_ELELIB_MP[117] @ 1872
     348 000000f8 0040          .field          64,16                   ; _m_ELELIB_MP[118] @ 1888
     349 000000f9 0039          .field          57,16                   ; _m_ELELIB_MP[119] @ 1904
     350 000000fa 0000          .field          0,16                    ; _m_ELELIB_MP[120] @ 1920
     351 000000fb 0002          .field          2,16                    ; _m_ELELIB_MP[121] @ 1936
     352 000000fc 0040          .field          64,16                   ; _m_ELELIB_MP[122] @ 1952
     353 000000fd 0001          .field          1,16                    ; _m_ELELIB_MP[123] @ 1968
     354 000000fe 0000          .field          0,16                    ; _m_ELELIB_MP[124] @ 1984
     355 000000ff 0002          .field          2,16                    ; _m_ELELIB_MP[125] @ 2000
     356 00000100 0040          .field          64,16                   ; _m_ELELIB_MP[126] @ 2016
     357 00000101 0001          .field          1,16                    ; _m_ELELIB_MP[127] @ 2032
     358 00000102 0000          .field          0,16                    ; _m_ELELIB_MP[128] @ 2048
     359 00000103 0002          .field          2,16                    ; _m_ELELIB_MP[129] @ 2064
     360 00000104 0040          .field          64,16                   ; _m_ELELIB_MP[130] @ 2080
     361 00000105 0001          .field          1,16                    ; _m_ELELIB_MP[131] @ 2096
     362 00000106 0000          .field          0,16                    ; _m_ELELIB_MP[132] @ 2112
     363 00000107 0002          .field          2,16                    ; _m_ELELIB_MP[133] @ 2128
     364 00000108 0040          .field          64,16                   ; _m_ELELIB_MP[134] @ 2144
     365 00000109 0001          .field          1,16                    ; _m_ELELIB_MP[135] @ 2160
     366 0000010a 0000          .field          0,16                    ; _m_ELELIB_MP[136] @ 2176
     367 0000010b 0002          .field          2,16                    ; _m_ELELIB_MP[137] @ 2192
     368 0000010c 0040          .field          64,16                   ; _m_ELELIB_MP[138] @ 2208
     369 0000010d 0001          .field          1,16                    ; _m_ELELIB_MP[139] @ 2224
     370 0000010e 0000          .field          0,16                    ; _m_ELELIB_MP[140] @ 2240
     371 0000010f 0002          .field          2,16                    ; _m_ELELIB_MP[141] @ 2256
     372 00000110 0040          .field          64,16                   ; _m_ELELIB_MP[142] @ 2272
     373 00000111 0001          .field          1,16                    ; _m_ELELIB_MP[143] @ 2288
     374 00000112 0000          .field          0,16                    ; _m_ELELIB_MP[144] @ 2304
     375 00000113 0002          .field          2,16                    ; _m_ELELIB_MP[145] @ 2320
     376 00000114 0040          .field          64,16                   ; _m_ELELIB_MP[146] @ 2336
     377 00000115 0001          .field          1,16                    ; _m_ELELIB_MP[147] @ 2352
     378 00000116 0000          .field          0,16                    ; _m_ELELIB_MP[148] @ 2368
     379 00000117 0002          .field          2,16                    ; _m_ELELIB_MP[149] @ 2384
     380 00000118 0040          .field          64,16                   ; _m_ELELIB_MP[150] @ 2400
TMS320C2000 COFF Assembler PC v4.1.3 Thu Sep 15 15:05:03 2011

Tools Copyright (c) 1996-2006 Texas Instruments Incorporated
C:\DOCUME~1\ADMINI~1\LOCALS~1\Temp\TI3002                            PAGE    8

     381 00000119 0001          .field          1,16                    ; _m_ELELIB_MP[151] @ 2416
     382 0000011a 0000          .field          0,16                    ; _m_ELELIB_MP[152] @ 2432
     383 0000011b 0002          .field          2,16                    ; _m_ELELIB_MP[153] @ 2448
     384 0000011c 0040          .field          64,16                   ; _m_ELELIB_MP[154] @ 2464
     385 0000011d 0001          .field          1,16                    ; _m_ELELIB_MP[155] @ 2480
     386 0000011e 0000          .field          0,16                    ; _m_ELELIB_MP[156] @ 2496
     387 0000011f 0002          .field          2,16                    ; _m_ELELIB_MP[157] @ 2512
     388 00000120 0060          .field          96,16                   ; _m_ELELIB_MP[158] @ 2528
     389 00000121 0001          .field          1,16                    ; _m_ELELIB_MP[159] @ 2544
     390 00000122 0080          .field          128,16                  ; _m_ELELIB_MP[160] @ 2560
     391 00000123 0006          .field          6,16                    ; _m_ELELIB_MP[161] @ 2576
     392 00000124 00F0          .field          240,16                  ; _m_ELELIB_MP[162] @ 2592
     393 00000125 0003          .field          3,16                    ; _m_ELELIB_MP[163] @ 2608
     394 00000126 00C0          .field          192,16                  ; _m_ELELIB_MP[164] @ 2624
     395 00000127 000F          .field          15,16                   ; _m_ELELIB_MP[165] @ 2640
     396 00000128 00F0          .field          240,16                  ; _m_ELELIB_MP[166] @ 2656
     397 00000129 0003          .field          3,16                    ; _m_ELELIB_MP[167] @ 2672
     398 0000012a 00C0          .field          192,16                  ; _m_ELELIB_MP[168] @ 2688
     399 0000012b 000F          .field          15,16                   ; _m_ELELIB_MP[169] @ 2704
     400 0000012c 00E0          .field          224,16                  ; _m_ELELIB_MP[170] @ 2720
     401 0000012d 0003          .field          3,16                    ; _m_ELELIB_MP[171] @ 2736
     402 0000012e 00C0          .field          192,16                  ; _m_ELELIB_MP[172] @ 2752
     403 0000012f 0007          .field          7,16                    ; _m_ELELIB_MP[173] @ 2768
     404              
     405              DW$26   .dwtag  DW_TAG_variable, DW_AT_name("m_ELELIB_MP"), DW_AT_symbol_name("_m_ELELIB_MP")
     406                      .dwattr DW$26, DW_AT_location[DW_OP_addr _m_ELELIB_MP]
     407                      .dwattr DW$26, DW_AT_type(*DW$T$51)
     408                      .dwattr DW$26, DW_AT_external(0x01)
     409                      .global _m_ELELIB_BYQ3_3
     410 00000130               .sect   ".econst"
     411                      .align  1
     412 00000130       _m_ELELIB_BYQ3_3:
     413 00000130 0028          .field          40,16                   ; _m_ELELIB_BYQ3_3[0] @ 0
     414 00000131 0031          .field          49,16                   ; _m_ELELIB_BYQ3_3[1] @ 16
     415 00000132 00E0          .field          224,16                  ; _m_ELELIB_BYQ3_3[2] @ 32
     416 00000133 0000          .field          0,16                    ; _m_ELELIB_BYQ3_3[3] @ 48
     417 00000134 0018          .field          24,16                   ; _m_ELELIB_BYQ3_3[4] @ 64
     418 00000135 0000          .field          0,16                    ; _m_ELELIB_BYQ3_3[5] @ 80
     419 00000136 0007          .field          7,16                    ; _m_ELELIB_BYQ3_3[6] @ 96
     420 00000137 00C0          .field          192,16                  ; _m_ELELIB_BYQ3_3[7] @ 112
     421 00000138 0000          .field          0,16                    ; _m_ELELIB_BYQ3_3[8] @ 128
     422 00000139 0018          .field          24,16                   ; _m_ELELIB_BYQ3_3[9] @ 144
     423 0000013a 0000          .field          0,16                    ; _m_ELELIB_BYQ3_3[10] @ 160
     424 0000013b 0003          .field          3,16                    ; _m_ELELIB_BYQ3_3[11] @ 176
     425 0000013c 0040          .field          64,16                   ; _m_ELELIB_BYQ3_3[12] @ 192
     426 0000013d 0000          .field          0,16                    ; _m_ELELIB_BYQ3_3[13] @ 208
     427 0000013e 0008          .field          8,16                    ; _m_ELELIB_BYQ3_3[14] @ 224
     428 0000013f 0000          .field          0,16                    ; _m_ELELIB_BYQ3_3[15] @ 240
     429 00000140 0002          .field          2,16                    ; _m_ELELIB_BYQ3_3[16] @ 256
     430 00000141 0040          .field          64,16                   ; _m_ELELIB_BYQ3_3[17] @ 272
     431 00000142 0000          .field          0,16                    ; _m_ELELIB_BYQ3_3[18] @ 288
     432 00000143 0008          .field          8,16                    ; _m_ELELIB_BYQ3_3[19] @ 304
     433 00000144 0000          .field          0,16                    ; _m_ELELIB_BYQ3_3[20] @ 320
     434 00000145 0002          .field          2,16                    ; _m_ELELIB_BYQ3_3[21] @ 336
     435 00000146 0040          .field          64,16                   ; _m_ELELIB_BYQ3_3[22] @ 352
TMS320C2000 COFF Assembler PC v4.1.3 Thu Sep 15 15:05:03 2011

Tools Copyright (c) 1996-2006 Texas Instruments Incorporated
C:\DOCUME~1\ADMINI~1\LOCALS~1\Temp\TI3002                            PAGE    9

     436 00000147 0000          .field          0,16                    ; _m_ELELIB_BYQ3_3[23] @ 368
     437 00000148 0008          .field          8,16                    ; _m_ELELIB_BYQ3_3[24] @ 384
     438 00000149 0000          .field          0,16                    ; _m_ELELIB_BYQ3_3[25] @ 400
     439 0000014a 0002          .field          2,16                    ; _m_ELELIB_BYQ3_3[26] @ 416
     440 0000014b 0040          .field          64,16                   ; _m_ELELIB_BYQ3_3[27] @ 432
     441 0000014c 0000          .field          0,16                    ; _m_ELELIB_BYQ3_3[28] @ 448
     442 0000014d 0008          .field          8,16                    ; _m_ELELIB_BYQ3_3[29] @ 464
     443 0000014e 0000          .field          0,16                    ; _m_ELELIB_BYQ3_3[30] @ 480
     444 0000014f 0002          .field          2,16                    ; _m_ELELIB_BYQ3_3[31] @ 496
     445 00000150 0040          .field          64,16                   ; _m_ELELIB_BYQ3_3[32] @ 512
     446 00000151 0000          .field          0,16                    ; _m_ELELIB_BYQ3_3[33] @ 528
     447 00000152 0008          .field          8,16                    ; _m_ELELIB_BYQ3_3[34] @ 544
     448 00000153 0000          .field          0,16                    ; _m_ELELIB_BYQ3_3[35] @ 560
     449 00000154 0002          .field          2,16                    ; _m_ELELIB_BYQ3_3[36] @ 576
     450 00000155 0040          .field          64,16                   ; _m_ELELIB_BYQ3_3[37] @ 592
     451 00000156 0000          .field          0,16                    ; _m_ELELIB_BYQ3_3[38] @ 608
     452 00000157 0008          .field          8,16                    ; _m_ELELIB_BYQ3_3[39] @ 624
     453 00000158 0000          .field          0,16                    ; _m_ELELIB_BYQ3_3[40] @ 640
     454 00000159 0002          .field          2,16                    ; _m_ELELIB_BYQ3_3[41] @ 656
     455 0000015a 0040          .field          64,16                   ; _m_ELELIB_BYQ3_3[42] @ 672
     456 0000015b 0000          .field          0,16                    ; _m_ELELIB_BYQ3_3[43] @ 688
     457 0000015c 0008          .field          8,16                    ; _m_ELELIB_BYQ3_3[44] @ 704
     458 0000015d 0000          .field          0,16                    ; _m_ELELIB_BYQ3_3[45] @ 720
     459 0000015e 0002          .field          2,16                    ; _m_ELELIB_BYQ3_3[46] @ 736
     460 0000015f 0040          .field          64,16                   ; _m_ELELIB_BYQ3_3[47] @ 752
     461 00000160 0000          .field          0,16                    ; _m_ELELIB_BYQ3_3[48] @ 768
     462 00000161 0008          .field          8,16                    ; _m_ELELIB_BYQ3_3[49] @ 784
     463 00000162 0000          .field          0,16                    ; _m_ELELIB_BYQ3_3[50] @ 800
     464 00000163 0002          .field          2,16                    ; _m_ELELIB_BYQ3_3[51] @ 816
     465 00000164 0040          .field          64,16                   ; _m_ELELIB_BYQ3_3[52] @ 832
     466 00000165 0000          .field          0,16                    ; _m_ELELIB_BYQ3_3[53] @ 848
     467 00000166 0008          .field          8,16                    ; _m_ELELIB_BYQ3_3[54] @ 864
     468 00000167 0000          .field          0,16                    ; _m_ELELIB_BYQ3_3[55] @ 880
     469 00000168 0002          .field          2,16                    ; _m_ELELIB_BYQ3_3[56] @ 896
     470 00000169 0040          .field          64,16                   ; _m_ELELIB_BYQ3_3[57] @ 912
     471 0000016a 0000          .field          0,16                    ; _m_ELELIB_BYQ3_3[58] @ 928
     472 0000016b 0008          .field          8,16                    ; _m_ELELIB_BYQ3_3[59] @ 944
     473 0000016c 0000          .field          0,16                    ; _m_ELELIB_BYQ3_3[60] @ 960
     474 0000016d 0002          .field          2,16                    ; _m_ELELIB_BYQ3_3[61] @ 976
     475 0000016e 0040          .field          64,16                   ; _m_ELELIB_BYQ3_3[62] @ 992
     476 0000016f 0000          .field          0,16                    ; _m_ELELIB_BYQ3_3[63] @ 1008
     477 00000170 0008          .field          8,16                    ; _m_ELELIB_BYQ3_3[64] @ 1024
     478 00000171 0000          .field          0,16                    ; _m_ELELIB_BYQ3_3[65] @ 1040
     479 00000172 0002          .field          2,16                    ; _m_ELELIB_BYQ3_3[66] @ 1056
     480 00000173 0040          .field          64,16                   ; _m_ELELIB_BYQ3_3[67] @ 1072
     481 00000174 0000          .field          0,16                    ; _m_ELELIB_BYQ3_3[68] @ 1088
     482 00000175 0008          .field          8,16                    ; _m_ELELIB_BYQ3_3[69] @ 1104
     483 00000176 0000          .field          0,16                    ; _m_ELELIB_BYQ3_3[70] @ 1120
     484 00000177 0002          .field          2,16                    ; _m_ELELIB_BYQ3_3[71] @ 1136
     485 00000178 0040          .field          64,16                   ; _m_ELELIB_BYQ3_3[72] @ 1152
     486 00000179 0000          .field          0,16                    ; _m_ELELIB_BYQ3_3[73] @ 1168
     487 0000017a 0008          .field          8,16                    ; _m_ELELIB_BYQ3_3[74] @ 1184
     488 0000017b 0000          .field          0,16                    ; _m_ELELIB_BYQ3_3[75] @ 1200
     489 0000017c 0002          .field          2,16                    ; _m_ELELIB_BYQ3_3[76] @ 1216
     490 0000017d 0040          .field          64,16                   ; _m_ELELIB_BYQ3_3[77] @ 1232
TMS320C2000 COFF Assembler PC v4.1.3 Thu Sep 15 15:05:03 2011

Tools Copyright (c) 1996-2006 Texas Instruments Incorporated
C:\DOCUME~1\ADMINI~1\LOCALS~1\Temp\TI3002                            PAGE   10

     491 0000017e 0000          .field          0,16                    ; _m_ELELIB_BYQ3_3[78] @ 1248
     492 0000017f 0008          .field          8,16                    ; _m_ELELIB_BYQ3_3[79] @ 1264
     493 00000180 0000          .field          0,16                    ; _m_ELELIB_BYQ3_3[80] @ 1280
     494 00000181 0002          .field          2,16                    ; _m_ELELIB_BYQ3_3[81] @ 1296
     495 00000182 0040          .field          64,16                   ; _m_ELELIB_BYQ3_3[82] @ 1312
     496 00000183 0020          .field          32,16                   ; _m_ELELIB_BYQ3_3[83] @ 1328
     497 00000184 0018          .field          24,16                   ; _m_ELELIB_BYQ3_3[84] @ 1344
     498 00000185 0004          .field          4,16                    ; _m_ELELIB_BYQ3_3[85] @ 1360
     499 00000186 0002          .field          2,16                    ; _m_ELELIB_BYQ3_3[86] @ 1376
     500 00000187 0040          .field          64,16                   ; _m_ELELIB_BYQ3_3[87] @ 1392
     501 00000188 0020          .field          32,16                   ; _m_ELELIB_BYQ3_3[88] @ 1408
     502 00000189 0018          .field          24,16                   ; _m_ELELIB_BYQ3_3[89] @ 1424
     503 0000018a 0004          .field          4,16                    ; _m_ELELIB_BYQ3_3[90] @ 1440
     504 0000018b 0002          .field          2,16                    ; _m_ELELIB_BYQ3_3[91] @ 1456
     505 0000018c 0040          .field          64,16                   ; _m_ELELIB_BYQ3_3[92] @ 1472
     506 0000018d 0050          .field          80,16                   ; _m_ELELIB_BYQ3_3[93] @ 1488
     507 0000018e 0018          .field          24,16                   ; _m_ELELIB_BYQ3_3[94] @ 1504
     508 0000018f 000A          .field          10,16                   ; _m_ELELIB_BYQ3_3[95] @ 1520
     509 00000190 0002          .field          2,16                    ; _m_ELELIB_BYQ3_3[96] @ 1536
     510 00000191 0020          .field          32,16                   ; _m_ELELIB_BYQ3_3[97] @ 1552
     511 00000192 00C8          .field          200,16                  ; _m_ELELIB_BYQ3_3[98] @ 1568
     512 00000193 0024          .field          36,16                   ; _m_ELELIB_BYQ3_3[99] @ 1584
     513 00000194 0013          .field          19,16                   ; _m_ELELIB_BYQ3_3[100] @ 1600
     514 00000195 0004          .field          4,16                    ; _m_ELELIB_BYQ3_3[101] @ 1616
     515 00000196 001F          .field          31,16                   ; _m_ELELIB_BYQ3_3[102] @ 1632
     516 00000197 0007          .field          7,16                    ; _m_ELELIB_BYQ3_3[103] @ 1648
     517 00000198 00C3          .field          195,16                  ; _m_ELELIB_BYQ3_3[104] @ 1664
     518 00000199 00E0          .field          224,16                  ; _m_ELELIB_BYQ3_3[105] @ 1680
     519 0000019a 00F8          .field          248,16                  ; _m_ELELIB_BYQ3_3[106] @ 1696
     520 0000019b 0000          .field          0,16                    ; _m_ELELIB_BYQ3_3[107] @ 1712
     521 0000019c 0000          .field          0,16                    ; _m_ELELIB_BYQ3_3[108] @ 1728
     522 0000019d 0000          .field          0,16                    ; _m_ELELIB_BYQ3_3[109] @ 1744
     523 0000019e 0000          .field          0,16                    ; _m_ELELIB_BYQ3_3[110] @ 1760
     524 0000019f 0000          .field          0,16                    ; _m_ELELIB_BYQ3_3[111] @ 1776
     525 000001a0 0000          .field          0,16                    ; _m_ELELIB_BYQ3_3[112] @ 1792
     526 000001a1 0000          .field          0,16                    ; _m_ELELIB_BYQ3_3[113] @ 1808
     527 000001a2 0000          .field          0,16                    ; _m_ELELIB_BYQ3_3[114] @ 1824
     528 000001a3 0000          .field          0,16                    ; _m_ELELIB_BYQ3_3[115] @ 1840
     529 000001a4 0000          .field          0,16                    ; _m_ELELIB_BYQ3_3[116] @ 1856
     530 000001a5 0000          .field          0,16                    ; _m_ELELIB_BYQ3_3[117] @ 1872
     531 000001a6 0000          .field          0,16                    ; _m_ELELIB_BYQ3_3[118] @ 1888
     532 000001a7 0000          .field          0,16                    ; _m_ELELIB_BYQ3_3[119] @ 1904
     533 000001a8 0000          .field          0,16                    ; _m_ELELIB_BYQ3_3[120] @ 1920
     534 000001a9 0000          .field          0,16                    ; _m_ELELIB_BYQ3_3[121] @ 1936
     535 000001aa 00FF          .field          255,16                  ; _m_ELELIB_BYQ3_3[122] @ 1952
     536 000001ab 00FF          .field          255,16                  ; _m_ELELIB_BYQ3_3[123] @ 1968
     537 000001ac 00FF          .field          255,16                  ; _m_ELELIB_BYQ3_3[124] @ 1984
     538 000001ad 00FF          .field          255,16                  ; _m_ELELIB_BYQ3_3[125] @ 2000
     539 000001ae 00FF          .field          255,16                  ; _m_ELELIB_BYQ3_3[126] @ 2016
     540 000001af 0000          .field          0,16                    ; _m_ELELIB_BYQ3_3[127] @ 2032
     541 000001b0 0000          .field          0,16                    ; _m_ELELIB_BYQ3_3[128] @ 2048
     542 000001b1 0000          .field          0,16                    ; _m_ELELIB_BYQ3_3[129] @ 2064
     543 000001b2 0000          .field          0,16                    ; _m_ELELIB_BYQ3_3[130] @ 2080
     544 000001b3 0000          .field          0,16                    ; _m_ELELIB_BYQ3_3[131] @ 2096
     545 000001b4 0000          .field          0,16                    ; _m_ELELIB_BYQ3_3[132] @ 2112
TMS320C2000 COFF Assembler PC v4.1.3 Thu Sep 15 15:05:03 2011

Tools Copyright (c) 1996-2006 Texas Instruments Incorporated
C:\DOCUME~1\ADMINI~1\LOCALS~1\Temp\TI3002                            PAGE   11

     546 000001b5 0000          .field          0,16                    ; _m_ELELIB_BYQ3_3[133] @ 2128
     547 000001b6 0000          .field          0,16                    ; _m_ELELIB_BYQ3_3[134] @ 2144
     548 000001b7 0000          .field          0,16                    ; _m_ELELIB_BYQ3_3[135] @ 2160
     549 000001b8 0000          .field          0,16                    ; _m_ELELIB_BYQ3_3[136] @ 2176
     550 000001b9 0000          .field          0,16                    ; _m_ELELIB_BYQ3_3[137] @ 2192
     551 000001ba 0000          .field          0,16                    ; _m_ELELIB_BYQ3_3[138] @ 2208
     552 000001bb 0000          .field          0,16                    ; _m_ELELIB_BYQ3_3[139] @ 2224
     553 000001bc 0000          .field          0,16                    ; _m_ELELIB_BYQ3_3[140] @ 2240
     554 000001bd 0000          .field          0,16                    ; _m_ELELIB_BYQ3_3[141] @ 2256
     555 000001be 001F          .field          31,16                   ; _m_ELELIB_BYQ3_3[142] @ 2272
     556 000001bf 0007          .field          7,16                    ; _m_ELELIB_BYQ3_3[143] @ 2288
     557 000001c0 00C3          .field          195,16                  ; _m_ELELIB_BYQ3_3[144] @ 2304
     558 000001c1 00E0          .field          224,16                  ; _m_ELELIB_BYQ3_3[145] @ 2320
     559 000001c2 00F8          .field          248,16                  ; _m_ELELIB_BYQ3_3[146] @ 2336
     560 000001c3 0020          .field          32,16                   ; _m_ELELIB_BYQ3_3[147] @ 2352
     561 000001c4 00C8          .field          200,16                  ; _m_ELELIB_BYQ3_3[148] @ 2368
     562 000001c5 0024          .field          36,16                   ; _m_ELELIB_BYQ3_3[149] @ 2384
     563 000001c6 0013          .field          19,16                   ; _m_ELELIB_BYQ3_3[150] @ 2400
     564 000001c7 0004          .field          4,16                    ; _m_ELELIB_BYQ3_3[151] @ 2416
     565 000001c8 0040          .field          64,16                   ; _m_ELELIB_BYQ3_3[152] @ 2432
     566 000001c9 0050          .field          80,16                   ; _m_ELELIB_BYQ3_3[153] @ 2448
     567 000001ca 0018          .field          24,16                   ; _m_ELELIB_BYQ3_3[154] @ 2464
     568 000001cb 000A          .field          10,16                   ; _m_ELELIB_BYQ3_3[155] @ 2480
     569 000001cc 0002          .field          2,16                    ; _m_ELELIB_BYQ3_3[156] @ 2496
     570 000001cd 0040          .field          64,16                   ; _m_ELELIB_BYQ3_3[157] @ 2512
     571 000001ce 0020          .field          32,16                   ; _m_ELELIB_BYQ3_3[158] @ 2528
     572 000001cf 0018          .field          24,16                   ; _m_ELELIB_BYQ3_3[159] @ 2544
     573 000001d0 0004          .field          4,16                    ; _m_ELELIB_BYQ3_3[160] @ 2560
     574 000001d1 0002          .field          2,16                    ; _m_ELELIB_BYQ3_3[161] @ 2576
     575 000001d2 0040          .field          64,16                   ; _m_ELELIB_BYQ3_3[162] @ 2592
     576 000001d3 0020          .field          32,16                   ; _m_ELELIB_BYQ3_3[163] @ 2608
     577 000001d4 0018          .field          24,16                   ; _m_ELELIB_BYQ3_3[164] @ 2624
     578 000001d5 0004          .field          4,16                    ; _m_ELELIB_BYQ3_3[165] @ 2640
     579 000001d6 0002          .field          2,16                    ; _m_ELELIB_BYQ3_3[166] @ 2656
     580 000001d7 0040          .field          64,16                   ; _m_ELELIB_BYQ3_3[167] @ 2672
     581 000001d8 0000          .field          0,16                    ; _m_ELELIB_BYQ3_3[168] @ 2688
     582 000001d9 0008          .field          8,16                    ; _m_ELELIB_BYQ3_3[169] @ 2704
     583 000001da 0000          .field          0,16                    ; _m_ELELIB_BYQ3_3[170] @ 2720
     584 000001db 0002          .field          2,16                    ; _m_ELELIB_BYQ3_3[171] @ 2736
     585 000001dc 0040          .field          64,16                   ; _m_ELELIB_BYQ3_3[172] @ 2752
     586 000001dd 0000          .field          0,16                    ; _m_ELELIB_BYQ3_3[173] @ 2768
     587 000001de 0008          .field          8,16                    ; _m_ELELIB_BYQ3_3[174] @ 2784
     588 000001df 0000          .field          0,16                    ; _m_ELELIB_BYQ3_3[175] @ 2800
     589 000001e0 0002          .field          2,16                    ; _m_ELELIB_BYQ3_3[176] @ 2816
     590 000001e1 0040          .field          64,16                   ; _m_ELELIB_BYQ3_3[177] @ 2832
     591 000001e2 0000          .field          0,16                    ; _m_ELELIB_BYQ3_3[178] @ 2848
     592 000001e3 0008          .field          8,16                    ; _m_ELELIB_BYQ3_3[179] @ 2864
     593 000001e4 0000          .field          0,16                    ; _m_ELELIB_BYQ3_3[180] @ 2880
     594 000001e5 0002          .field          2,16                    ; _m_ELELIB_BYQ3_3[181] @ 2896
     595 000001e6 0040          .field          64,16                   ; _m_ELELIB_BYQ3_3[182] @ 2912
     596 000001e7 0000          .field          0,16                    ; _m_ELELIB_BYQ3_3[183] @ 2928
     597 000001e8 0008          .field          8,16                    ; _m_ELELIB_BYQ3_3[184] @ 2944
     598 000001e9 0000          .field          0,16                    ; _m_ELELIB_BYQ3_3[185] @ 2960
     599 000001ea 0002          .field          2,16                    ; _m_ELELIB_BYQ3_3[186] @ 2976
     600 000001eb 0040          .field          64,16                   ; _m_ELELIB_BYQ3_3[187] @ 2992
TMS320C2000 COFF Assembler PC v4.1.3 Thu Sep 15 15:05:03 2011

Tools Copyright (c) 1996-2006 Texas Instruments Incorporated
C:\DOCUME~1\ADMINI~1\LOCALS~1\Temp\TI3002                            PAGE   12

     601 000001ec 0000          .field          0,16                    ; _m_ELELIB_BYQ3_3[188] @ 3008
     602 000001ed 0008          .field          8,16                    ; _m_ELELIB_BYQ3_3[189] @ 3024
     603 000001ee 0000          .field          0,16                    ; _m_ELELIB_BYQ3_3[190] @ 3040
     604 000001ef 0002          .field          2,16                    ; _m_ELELIB_BYQ3_3[191] @ 3056
     605 000001f0 0040          .field          64,16                   ; _m_ELELIB_BYQ3_3[192] @ 3072
     606 000001f1 0000          .field          0,16                    ; _m_ELELIB_BYQ3_3[193] @ 3088
     607 000001f2 0008          .field          8,16                    ; _m_ELELIB_BYQ3_3[194] @ 3104
     608 000001f3 0000          .field          0,16                    ; _m_ELELIB_BYQ3_3[195] @ 3120
     609 000001f4 0002          .field          2,16                    ; _m_ELELIB_BYQ3_3[196] @ 3136
     610 000001f5 0040          .field          64,16                   ; _m_ELELIB_BYQ3_3[197] @ 3152
     611 000001f6 0000          .field          0,16                    ; _m_ELELIB_BYQ3_3[198] @ 3168
     612 000001f7 0008          .field          8,16                    ; _m_ELELIB_BYQ3_3[199] @ 3184
     613 000001f8 0000          .field          0,16                    ; _m_ELELIB_BYQ3_3[200] @ 3200
     614 000001f9 0002          .field          2,16                    ; _m_ELELIB_BYQ3_3[201] @ 3216
     615 000001fa 0040          .field          64,16                   ; _m_ELELIB_BYQ3_3[202] @ 3232
     616 000001fb 0000          .field          0,16                    ; _m_ELELIB_BYQ3_3[203] @ 3248
     617 000001fc 0008          .field          8,16                    ; _m_ELELIB_BYQ3_3[204] @ 3264
     618 000001fd 0000          .field          0,16                    ; _m_ELELIB_BYQ3_3[205] @ 3280
     619 000001fe 0002          .field          2,16                    ; _m_ELELIB_BYQ3_3[206] @ 3296
     620 000001ff 0040          .field          64,16                   ; _m_ELELIB_BYQ3_3[207] @ 3312
     621 00000200 0000          .field          0,16                    ; _m_ELELIB_BYQ3_3[208] @ 3328
     622 00000201 0008          .field          8,16                    ; _m_ELELIB_BYQ3_3[209] @ 3344
     623 00000202 0000          .field          0,16                    ; _m_ELELIB_BYQ3_3[210] @ 3360
     624 00000203 0002          .field          2,16                    ; _m_ELELIB_BYQ3_3[211] @ 3376
     625 00000204 0040          .field          64,16                   ; _m_ELELIB_BYQ3_3[212] @ 3392
     626 00000205 0000          .field          0,16                    ; _m_ELELIB_BYQ3_3[213] @ 3408
     627 00000206 0008          .field          8,16                    ; _m_ELELIB_BYQ3_3[214] @ 3424
     628 00000207 0000          .field          0,16                    ; _m_ELELIB_BYQ3_3[215] @ 3440
     629 00000208 0002          .field          2,16                    ; _m_ELELIB_BYQ3_3[216] @ 3456
     630 00000209 0040          .field          64,16                   ; _m_ELELIB_BYQ3_3[217] @ 3472
     631 0000020a 0000          .field          0,16                    ; _m_ELELIB_BYQ3_3[218] @ 3488
     632 0000020b 0008          .field          8,16                    ; _m_ELELIB_BYQ3_3[219] @ 3504
     633 0000020c 0000          .field          0,16                    ; _m_ELELIB_BYQ3_3[220] @ 3520
     634 0000020d 0002          .field          2,16                    ; _m_ELELIB_BYQ3_3[221] @ 3536
     635 0000020e 0040          .field          64,16                   ; _m_ELELIB_BYQ3_3[222] @ 3552
     636 0000020f 0000          .field          0,16                    ; _m_ELELIB_BYQ3_3[223] @ 3568
     637 00000210 0008          .field          8,16                    ; _m_ELELIB_BYQ3_3[224] @ 3584
     638 00000211 0000          .field          0,16                    ; _m_ELELIB_BYQ3_3[225] @ 3600
     639 00000212 0002          .field          2,16                    ; _m_ELELIB_BYQ3_3[226] @ 3616
     640 00000213 0040          .field          64,16                   ; _m_ELELIB_BYQ3_3[227] @ 3632
     641 00000214 0000          .field          0,16                    ; _m_ELELIB_BYQ3_3[228] @ 3648
     642 00000215 0008          .field          8,16                    ; _m_ELELIB_BYQ3_3[229] @ 3664
     643 00000216 0000          .field          0,16                    ; _m_ELELIB_BYQ3_3[230] @ 3680
     644 00000217 0002          .field          2,16                    ; _m_ELELIB_BYQ3_3[231] @ 3696
     645 00000218 0040          .field          64,16                   ; _m_ELELIB_BYQ3_3[232] @ 3712
     646 00000219 0000          .field          0,16                    ; _m_ELELIB_BYQ3_3[233] @ 3728
     647 0000021a 0008          .field          8,16                    ; _m_ELELIB_BYQ3_3[234] @ 3744
     648 0000021b 0000          .field          0,16                    ; _m_ELELIB_BYQ3_3[235] @ 3760
     649 0000021c 0002          .field          2,16                    ; _m_ELELIB_BYQ3_3[236] @ 3776
     650 0000021d 00C0          .field          192,16                  ; _m_ELELIB_BYQ3_3[237] @ 3792
     651 0000021e 0000          .field          0,16                    ; _m_ELELIB_BYQ3_3[238] @ 3808
     652 0000021f 0018          .field          24,16                   ; _m_ELELIB_BYQ3_3[239] @ 3824
     653 00000220 0000          .field          0,16                    ; _m_ELELIB_BYQ3_3[240] @ 3840
     654 00000221 0003          .field          3,16                    ; _m_ELELIB_BYQ3_3[241] @ 3856
     655 00000222 00E0          .field          224,16                  ; _m_ELELIB_BYQ3_3[242] @ 3872
TMS320C2000 COFF Assembler PC v4.1.3 Thu Sep 15 15:05:03 2011

Tools Copyright (c) 1996-2006 Texas Instruments Incorporated
C:\DOCUME~1\ADMINI~1\LOCALS~1\Temp\TI3002                            PAGE   13

     656 00000223 0000          .field          0,16                    ; _m_ELELIB_BYQ3_3[243] @ 3888
     657 00000224 0018          .field          24,16                   ; _m_ELELIB_BYQ3_3[244] @ 3904
     658 00000225 0000          .field          0,16                    ; _m_ELELIB_BYQ3_3[245] @ 3920
     659 00000226 0007          .field          7,16                    ; _m_ELELIB_BYQ3_3[246] @ 3936
     660              
     661              DW$27   .dwtag  DW_TAG_variable, DW_AT_name("m_ELELIB_BYQ3_3"), DW_AT_symbol_name("_m_ELELIB_BYQ3_3")
     662                      .dwattr DW$27, DW_AT_location[DW_OP_addr _m_ELELIB_BYQ3_3]
     663                      .dwattr DW$27, DW_AT_type(*DW$T$52)
     664                      .dwattr DW$27, DW_AT_external(0x01)
     665                      .global _m_ELELIB_BYQ3_4
     666 00000227               .sect   ".econst"
     667                      .align  1
     668 00000227       _m_ELELIB_BYQ3_4:
     669 00000227 0048          .field          72,16                   ; _m_ELELIB_BYQ3_4[0] @ 0
     670 00000228 0027          .field          39,16                   ; _m_ELELIB_BYQ3_4[1] @ 16
     671 00000229 0060          .field          96,16                   ; _m_ELELIB_BYQ3_4[2] @ 32
     672 0000022a 0000          .field          0,16                    ; _m_ELELIB_BYQ3_4[3] @ 48
     673 0000022b 0001          .field          1,16                    ; _m_ELELIB_BYQ3_4[4] @ 64
     674 0000022c 0080          .field          128,16                  ; _m_ELELIB_BYQ3_4[5] @ 80
     675 0000022d 0000          .field          0,16                    ; _m_ELELIB_BYQ3_4[6] @ 96
     676 0000022e 0003          .field          3,16                    ; _m_ELELIB_BYQ3_4[7] @ 112
     677 0000022f 0000          .field          0,16                    ; _m_ELELIB_BYQ3_4[8] @ 128
     678 00000230 0000          .field          0,16                    ; _m_ELELIB_BYQ3_4[9] @ 144
     679 00000231 0000          .field          0,16                    ; _m_ELELIB_BYQ3_4[10] @ 160
     680 00000232 0040          .field          64,16                   ; _m_ELELIB_BYQ3_4[11] @ 176
     681 00000233 0000          .field          0,16                    ; _m_ELELIB_BYQ3_4[12] @ 192
     682 00000234 0000          .field          0,16                    ; _m_ELELIB_BYQ3_4[13] @ 208
     683 00000235 0080          .field          128,16                  ; _m_ELELIB_BYQ3_4[14] @ 224
     684 00000236 0000          .field          0,16                    ; _m_ELELIB_BYQ3_4[15] @ 240
     685 00000237 0002          .field          2,16                    ; _m_ELELIB_BYQ3_4[16] @ 256
     686 00000238 0000          .field          0,16                    ; _m_ELELIB_BYQ3_4[17] @ 272
     687 00000239 0000          .field          0,16                    ; _m_ELELIB_BYQ3_4[18] @ 288
     688 0000023a 0000          .field          0,16                    ; _m_ELELIB_BYQ3_4[19] @ 304
     689 0000023b 0040          .field          64,16                   ; _m_ELELIB_BYQ3_4[20] @ 320
     690 0000023c 0000          .field          0,16                    ; _m_ELELIB_BYQ3_4[21] @ 336
     691 0000023d 0000          .field          0,16                    ; _m_ELELIB_BYQ3_4[22] @ 352
     692 0000023e 0080          .field          128,16                  ; _m_ELELIB_BYQ3_4[23] @ 368
     693 0000023f 0000          .field          0,16                    ; _m_ELELIB_BYQ3_4[24] @ 384
     694 00000240 0002          .field          2,16                    ; _m_ELELIB_BYQ3_4[25] @ 400
     695 00000241 0000          .field          0,16                    ; _m_ELELIB_BYQ3_4[26] @ 416
     696 00000242 0000          .field          0,16                    ; _m_ELELIB_BYQ3_4[27] @ 432
     697 00000243 0000          .field          0,16                    ; _m_ELELIB_BYQ3_4[28] @ 448
     698 00000244 0040          .field          64,16                   ; _m_ELELIB_BYQ3_4[29] @ 464
     699 00000245 0000          .field          0,16                    ; _m_ELELIB_BYQ3_4[30] @ 480
     700 00000246 0000          .field          0,16                    ; _m_ELELIB_BYQ3_4[31] @ 496
     701 00000247 0080          .field          128,16                  ; _m_ELELIB_BYQ3_4[32] @ 512
     702 00000248 0000          .field          0,16                    ; _m_ELELIB_BYQ3_4[33] @ 528
     703 00000249 0002          .field          2,16                    ; _m_ELELIB_BYQ3_4[34] @ 544
     704 0000024a 0000          .field          0,16                    ; _m_ELELIB_BYQ3_4[35] @ 560
     705 0000024b 0000          .field          0,16                    ; _m_ELELIB_BYQ3_4[36] @ 576
     706 0000024c 0000          .field          0,16                    ; _m_ELELIB_BYQ3_4[37] @ 592
     707 0000024d 0040          .field          64,16                   ; _m_ELELIB_BYQ3_4[38] @ 608
     708 0000024e 0000          .field          0,16                    ; _m_ELELIB_BYQ3_4[39] @ 624
     709 0000024f 0000          .field          0,16                    ; _m_ELELIB_BYQ3_4[40] @ 640
     710 00000250 0080          .field          128,16                  ; _m_ELELIB_BYQ3_4[41] @ 656
TMS320C2000 COFF Assembler PC v4.1.3 Thu Sep 15 15:05:03 2011

Tools Copyright (c) 1996-2006 Texas Instruments Incorporated
C:\DOCUME~1\ADMINI~1\LOCALS~1\Temp\TI3002                            PAGE   14

     711 00000251 0000          .field          0,16                    ; _m_ELELIB_BYQ3_4[42] @ 672
     712 00000252 0002          .field          2,16                    ; _m_ELELIB_BYQ3_4[43] @ 688
     713 00000253 0000          .field          0,16                    ; _m_ELELIB_BYQ3_4[44] @ 704
     714 00000254 0000          .field          0,16                    ; _m_ELELIB_BYQ3_4[45] @ 720
     715 00000255 0000          .field          0,16                    ; _m_ELELIB_BYQ3_4[46] @ 736
     716 00000256 0040          .field          64,16                   ; _m_ELELIB_BYQ3_4[47] @ 752
     717 00000257 0000          .field          0,16                    ; _m_ELELIB_BYQ3_4[48] @ 768
     718 00000258 001F          .field          31,16                   ; _m_ELELIB_BYQ3_4[49] @ 784
     719 00000259 00FF          .field          255,16                  ; _m_ELELIB_BYQ3_4[50] @ 800
     720 0000025a 00FF          .field          255,16                  ; _m_ELELIB_BYQ3_4[51] @ 816
     721 0000025b 00FF          .field          255,16                  ; _m_ELELIB_BYQ3_4[52] @ 832
     722 0000025c 00FF          .field          255,16                  ; _m_ELELIB_BYQ3_4[53] @ 848
     723 0000025d 00FF          .field          255,16                  ; _m_ELELIB_BYQ3_4[54] @ 864
     724 0000025e 00FF          .field          255,16                  ; _m_ELELIB_BYQ3_4[55] @ 880
     725 0000025f 0040          .field          64,16                   ; _m_ELELIB_BYQ3_4[56] @ 896
     726 00000260 0000          .field          0,16                    ; _m_ELELIB_BYQ3_4[57] @ 912
     727 00000261 0008          .field          8,16                    ; _m_ELELIB_BYQ3_4[58] @ 928
     728 00000262 0080          .field          128,16                  ; _m_ELELIB_BYQ3_4[59] @ 944
     729 00000263 0000          .field          0,16                    ; _m_ELELIB_BYQ3_4[60] @ 960
     730 00000264 0022          .field          34,16                   ; _m_ELELIB_BYQ3_4[61] @ 976
     731 00000265 0000          .field          0,16                    ; _m_ELELIB_BYQ3_4[62] @ 992
     732 00000266 0000          .field          0,16                    ; _m_ELELIB_BYQ3_4[63] @ 1008
     733 00000267 00C0          .field          192,16                  ; _m_ELELIB_BYQ3_4[64] @ 1024
     734 00000268 0040          .field          64,16                   ; _m_ELELIB_BYQ3_4[65] @ 1040
     735 00000269 0000          .field          0,16                    ; _m_ELELIB_BYQ3_4[66] @ 1056
     736 0000026a 0008          .field          8,16                    ; _m_ELELIB_BYQ3_4[67] @ 1072
     737 0000026b 0080          .field          128,16                  ; _m_ELELIB_BYQ3_4[68] @ 1088
     738 0000026c 0000          .field          0,16                    ; _m_ELELIB_BYQ3_4[69] @ 1104
     739 0000026d 0022          .field          34,16                   ; _m_ELELIB_BYQ3_4[70] @ 1120
     740 0000026e 0000          .field          0,16                    ; _m_ELELIB_BYQ3_4[71] @ 1136
     741 0000026f 0000          .field          0,16                    ; _m_ELELIB_BYQ3_4[72] @ 1152
     742 00000270 0080          .field          128,16                  ; _m_ELELIB_BYQ3_4[73] @ 1168
     743 00000271 0040          .field          64,16                   ; _m_ELELIB_BYQ3_4[74] @ 1184
     744 00000272 0000          .field          0,16                    ; _m_ELELIB_BYQ3_4[75] @ 1200
     745 00000273 0008          .field          8,16                    ; _m_ELELIB_BYQ3_4[76] @ 1216
     746 00000274 0080          .field          128,16                  ; _m_ELELIB_BYQ3_4[77] @ 1232
     747 00000275 0000          .field          0,16                    ; _m_ELELIB_BYQ3_4[78] @ 1248
     748 00000276 0022          .field          34,16                   ; _m_ELELIB_BYQ3_4[79] @ 1264
     749 00000277 0000          .field          0,16                    ; _m_ELELIB_BYQ3_4[80] @ 1280
     750 00000278 0000          .field          0,16                    ; _m_ELELIB_BYQ3_4[81] @ 1296
     751 00000279 0080          .field          128,16                  ; _m_ELELIB_BYQ3_4[82] @ 1312
     752 0000027a 0040          .field          64,16                   ; _m_ELELIB_BYQ3_4[83] @ 1328
     753 0000027b 0000          .field          0,16                    ; _m_ELELIB_BYQ3_4[84] @ 1344
     754 0000027c 0008          .field          8,16                    ; _m_ELELIB_BYQ3_4[85] @ 1360
     755 0000027d 0080          .field          128,16                  ; _m_ELELIB_BYQ3_4[86] @ 1376
     756 0000027e 0000          .field          0,16                    ; _m_ELELIB_BYQ3_4[87] @ 1392
     757 0000027f 0022          .field          34,16                   ; _m_ELELIB_BYQ3_4[88] @ 1408
     758 00000280 0000          .field          0,16                    ; _m_ELELIB_BYQ3_4[89] @ 1424
     759 00000281 0000          .field          0,16                    ; _m_ELELIB_BYQ3_4[90] @ 1440
     760 00000282 0080          .field          128,16                  ; _m_ELELIB_BYQ3_4[91] @ 1456
     761 00000283 0040          .field          64,16                   ; _m_ELELIB_BYQ3_4[92] @ 1472
     762 00000284 0000          .field          0,16                    ; _m_ELELIB_BYQ3_4[93] @ 1488
     763 00000285 0008          .field          8,16                    ; _m_ELELIB_BYQ3_4[94] @ 1504
     764 00000286 0080          .field          128,16                  ; _m_ELELIB_BYQ3_4[95] @ 1520
     765 00000287 0000          .field          0,16                    ; _m_ELELIB_BYQ3_4[96] @ 1536
TMS320C2000 COFF Assembler PC v4.1.3 Thu Sep 15 15:05:03 2011

Tools Copyright (c) 1996-2006 Texas Instruments Incorporated
C:\DOCUME~1\ADMINI~1\LOCALS~1\Temp\TI3002                            PAGE   15

     766 00000288 0022          .field          34,16                   ; _m_ELELIB_BYQ3_4[97] @ 1552
     767 00000289 0000          .field          0,16                    ; _m_ELELIB_BYQ3_4[98] @ 1568
     768 0000028a 0000          .field          0,16                    ; _m_ELELIB_BYQ3_4[99] @ 1584
     769 0000028b 0080          .field          128,16                  ; _m_ELELIB_BYQ3_4[100] @ 1600
     770 0000028c 0040          .field          64,16                   ; _m_ELELIB_BYQ3_4[101] @ 1616
     771 0000028d 0000          .field          0,16                    ; _m_ELELIB_BYQ3_4[102] @ 1632
     772 0000028e 0008          .field          8,16                    ; _m_ELELIB_BYQ3_4[103] @ 1648
     773 0000028f 0080          .field          128,16                  ; _m_ELELIB_BYQ3_4[104] @ 1664
     774 00000290 0000          .field          0,16                    ; _m_ELELIB_BYQ3_4[105] @ 1680
     775 00000291 0022          .field          34,16                   ; _m_ELELIB_BYQ3_4[106] @ 1696
     776 00000292 0000          .field          0,16                    ; _m_ELELIB_BYQ3_4[107] @ 1712
     777 00000293 0000          .field          0,16                    ; _m_ELELIB_BYQ3_4[108] @ 1728
     778 00000294 0080          .field          128,16                  ; _m_ELELIB_BYQ3_4[109] @ 1744
     779 00000295 0040          .field          64,16                   ; _m_ELELIB_BYQ3_4[110] @ 1760
     780 00000296 0000          .field          0,16                    ; _m_ELELIB_BYQ3_4[111] @ 1776
     781 00000297 0008          .field          8,16                    ; _m_ELELIB_BYQ3_4[112] @ 1792
     782 00000298 0080          .field          128,16                  ; _m_ELELIB_BYQ3_4[113] @ 1808
     783 00000299 0000          .field          0,16                    ; _m_ELELIB_BYQ3_4[114] @ 1824
     784 0000029a 0022          .field          34,16                   ; _m_ELELIB_BYQ3_4[115] @ 1840
     785 0000029b 0000          .field          0,16                    ; _m_ELELIB_BYQ3_4[116] @ 1856
     786 0000029c 0000          .field          0,16                    ; _m_ELELIB_BYQ3_4[117] @ 1872
     787 0000029d 0080          .field          128,16                  ; _m_ELELIB_BYQ3_4[118] @ 1888
     788 0000029e 0040          .field          64,16                   ; _m_ELELIB_BYQ3_4[119] @ 1904
     789 0000029f 0000          .field          0,16                    ; _m_ELELIB_BYQ3_4[120] @ 1920
     790 000002a0 0008          .field          8,16                    ; _m_ELELIB_BYQ3_4[121] @ 1936
     791 000002a1 0080          .field          128,16                  ; _m_ELELIB_BYQ3_4[122] @ 1952
     792 000002a2 0000          .field          0,16                    ; _m_ELELIB_BYQ3_4[123] @ 1968
     793 000002a3 0022          .field          34,16                   ; _m_ELELIB_BYQ3_4[124] @ 1984
     794 000002a4 0000          .field          0,16                    ; _m_ELELIB_BYQ3_4[125] @ 2000
     795 000002a5 0000          .field          0,16                    ; _m_ELELIB_BYQ3_4[126] @ 2016
     796 000002a6 0080          .field          128,16                  ; _m_ELELIB_BYQ3_4[127] @ 2032
     797 000002a7 0040          .field          64,16                   ; _m_ELELIB_BYQ3_4[128] @ 2048
     798 000002a8 0000          .field          0,16                    ; _m_ELELIB_BYQ3_4[129] @ 2064
     799 000002a9 0008          .field          8,16                    ; _m_ELELIB_BYQ3_4[130] @ 2080
     800 000002aa 0080          .field          128,16                  ; _m_ELELIB_BYQ3_4[131] @ 2096
     801 000002ab 0000          .field          0,16                    ; _m_ELELIB_BYQ3_4[132] @ 2112
     802 000002ac 0022          .field          34,16                   ; _m_ELELIB_BYQ3_4[133] @ 2128
     803 000002ad 0000          .field          0,16                    ; _m_ELELIB_BYQ3_4[134] @ 2144
     804 000002ae 0000          .field          0,16                    ; _m_ELELIB_BYQ3_4[135] @ 2160
     805 000002af 0080          .field          128,16                  ; _m_ELELIB_BYQ3_4[136] @ 2176
     806 000002b0 0040          .field          64,16                   ; _m_ELELIB_BYQ3_4[137] @ 2192
     807 000002b1 0000          .field          0,16                    ; _m_ELELIB_BYQ3_4[138] @ 2208
     808 000002b2 0008          .field          8,16                    ; _m_ELELIB_BYQ3_4[139] @ 2224
     809 000002b3 0080          .field          128,16                  ; _m_ELELIB_BYQ3_4[140] @ 2240
     810 000002b4 0000          .field          0,16                    ; _m_ELELIB_BYQ3_4[141] @ 2256
     811 000002b5 0022          .field          34,16                   ; _m_ELELIB_BYQ3_4[142] @ 2272
     812 000002b6 0000          .field          0,16                    ; _m_ELELIB_BYQ3_4[143] @ 2288
     813 000002b7 0000          .field          0,16                    ; _m_ELELIB_BYQ3_4[144] @ 2304
     814 000002b8 0080          .field          128,16                  ; _m_ELELIB_BYQ3_4[145] @ 2320
     815 000002b9 0040          .field          64,16                   ; _m_ELELIB_BYQ3_4[146] @ 2336
     816 000002ba 0082          .field          130,16                  ; _m_ELELIB_BYQ3_4[147] @ 2352
     817 000002bb 0008          .field          8,16                    ; _m_ELELIB_BYQ3_4[148] @ 2368
     818 000002bc 0082          .field          130,16                  ; _m_ELELIB_BYQ3_4[149] @ 2384
     819 000002bd 0008          .field          8,16                    ; _m_ELELIB_BYQ3_4[150] @ 2400
     820 000002be 0022          .field          34,16                   ; _m_ELELIB_BYQ3_4[151] @ 2416
TMS320C2000 COFF Assembler PC v4.1.3 Thu Sep 15 15:05:03 2011

Tools Copyright (c) 1996-2006 Texas Instruments Incorporated
C:\DOCUME~1\ADMINI~1\LOCALS~1\Temp\TI3002                            PAGE   16

     821 000002bf 0008          .field          8,16                    ; _m_ELELIB_BYQ3_4[152] @ 2432
     822 000002c0 0020          .field          32,16                   ; _m_ELELIB_BYQ3_4[153] @ 2448
     823 000002c1 0080          .field          128,16                  ; _m_ELELIB_BYQ3_4[154] @ 2464
     824 000002c2 00C0          .field          192,16                  ; _m_ELELIB_BYQ3_4[155] @ 2480
     825 000002c3 0082          .field          130,16                  ; _m_ELELIB_BYQ3_4[156] @ 2496
     826 000002c4 000B          .field          11,16                   ; _m_ELELIB_BYQ3_4[157] @ 2512
     827 000002c5 0082          .field          130,16                  ; _m_ELELIB_BYQ3_4[158] @ 2528
     828 000002c6 0008          .field          8,16                    ; _m_ELELIB_BYQ3_4[159] @ 2544
     829 000002c7 0026          .field          38,16                   ; _m_ELELIB_BYQ3_4[160] @ 2560
     830 000002c8 0008          .field          8,16                    ; _m_ELELIB_BYQ3_4[161] @ 2576
     831 000002c9 0020          .field          32,16                   ; _m_ELELIB_BYQ3_4[162] @ 2592
     832 000002ca 0080          .field          128,16                  ; _m_ELELIB_BYQ3_4[163] @ 2608
     833 000002cb 00E1          .field          225,16                  ; _m_ELELIB_BYQ3_4[164] @ 2624
     834 000002cc 0086          .field          134,16                  ; _m_ELELIB_BYQ3_4[165] @ 2640
     835 000002cd 000B          .field          11,16                   ; _m_ELELIB_BYQ3_4[166] @ 2656
     836 000002ce 0082          .field          130,16                  ; _m_ELELIB_BYQ3_4[167] @ 2672
     837 000002cf 0008          .field          8,16                    ; _m_ELELIB_BYQ3_4[168] @ 2688
     838 000002d0 002E          .field          46,16                   ; _m_ELELIB_BYQ3_4[169] @ 2704
     839 000002d1 0008          .field          8,16                    ; _m_ELELIB_BYQ3_4[170] @ 2720
     840 000002d2 0030          .field          48,16                   ; _m_ELELIB_BYQ3_4[171] @ 2736
     841 000002d3 0080          .field          128,16                  ; _m_ELELIB_BYQ3_4[172] @ 2752
     842 000002d4 0033          .field          51,16                   ; _m_ELELIB_BYQ3_4[173] @ 2768
     843 000002d5 00CD          .field          205,16                  ; _m_ELELIB_BYQ3_4[174] @ 2784
     844 000002d6 0010          .field          16,16                   ; _m_ELELIB_BYQ3_4[175] @ 2800
     845 000002d7 0045          .field          69,16                   ; _m_ELELIB_BYQ3_4[176] @ 2816
     846 000002d8 0014          .field          20,16                   ; _m_ELELIB_BYQ3_4[177] @ 2832
     847 000002d9 0041          .field          65,16                   ; _m_ELELIB_BYQ3_4[178] @ 2848
     848 000002da 0014          .field          20,16                   ; _m_ELELIB_BYQ3_4[179] @ 2864
     849 000002db 0059          .field          89,16                   ; _m_ELELIB_BYQ3_4[180] @ 2880
     850 000002dc 0080          .field          128,16                  ; _m_ELELIB_BYQ3_4[181] @ 2896
     851 000002dd 001C          .field          28,16                   ; _m_ELELIB_BYQ3_4[182] @ 2912
     852 000002de 0038          .field          56,16                   ; _m_ELELIB_BYQ3_4[183] @ 2928
     853 000002df 00E0          .field          224,16                  ; _m_ELELIB_BYQ3_4[184] @ 2944
     854 000002e0 0038          .field          56,16                   ; _m_ELELIB_BYQ3_4[185] @ 2960
     855 000002e1 00E3          .field          227,16                  ; _m_ELELIB_BYQ3_4[186] @ 2976
     856 000002e2 0080          .field          128,16                  ; _m_ELELIB_BYQ3_4[187] @ 2992
     857 000002e3 00E3          .field          227,16                  ; _m_ELELIB_BYQ3_4[188] @ 3008
     858 000002e4 008E          .field          142,16                  ; _m_ELELIB_BYQ3_4[189] @ 3024
     859 000002e5 0000          .field          0,16                    ; _m_ELELIB_BYQ3_4[190] @ 3040
     860 000002e6 0000          .field          0,16                    ; _m_ELELIB_BYQ3_4[191] @ 3056
     861 000002e7 0000          .field          0,16                    ; _m_ELELIB_BYQ3_4[192] @ 3072
     862 000002e8 0000          .field          0,16                    ; _m_ELELIB_BYQ3_4[193] @ 3088
     863 000002e9 0000          .field          0,16                    ; _m_ELELIB_BYQ3_4[194] @ 3104
     864 000002ea 0000          .field          0,16                    ; _m_ELELIB_BYQ3_4[195] @ 3120
     865 000002eb 0000          .field          0,16                    ; _m_ELELIB_BYQ3_4[196] @ 3136
     866 000002ec 0000          .field          0,16                    ; _m_ELELIB_BYQ3_4[197] @ 3152
     867 000002ed 0000          .field          0,16                    ; _m_ELELIB_BYQ3_4[198] @ 3168
     868 000002ee 0000          .field          0,16                    ; _m_ELELIB_BYQ3_4[199] @ 3184
     869 000002ef 003F          .field          63,16                   ; _m_ELELIB_BYQ3_4[200] @ 3200
     870 000002f0 00FF          .field          255,16                  ; _m_ELELIB_BYQ3_4[201] @ 3216
     871 000002f1 00F8          .field          248,16                  ; _m_ELELIB_BYQ3_4[202] @ 3232
     872 000002f2 00FF          .field          255,16                  ; _m_ELELIB_BYQ3_4[203] @ 3248
     873 000002f3 00FF          .field          255,16                  ; _m_ELELIB_BYQ3_4[204] @ 3264
     874 000002f4 00E3          .field          227,16                  ; _m_ELELIB_BYQ3_4[205] @ 3280
     875 000002f5 00FF          .field          255,16                  ; _m_ELELIB_BYQ3_4[206] @ 3296
TMS320C2000 COFF Assembler PC v4.1.3 Thu Sep 15 15:05:03 2011

Tools Copyright (c) 1996-2006 Texas Instruments Incorporated
C:\DOCUME~1\ADMINI~1\LOCALS~1\Temp\TI3002                            PAGE   17

     876 000002f6 00FF          .field          255,16                  ; _m_ELELIB_BYQ3_4[207] @ 3312
     877 000002f7 0080          .field          128,16                  ; _m_ELELIB_BYQ3_4[208] @ 3328
     878 000002f8 0000          .field          0,16                    ; _m_ELELIB_BYQ3_4[209] @ 3344
     879 000002f9 0000          .field          0,16                    ; _m_ELELIB_BYQ3_4[210] @ 3360
     880 000002fa 0000          .field          0,16                    ; _m_ELELIB_BYQ3_4[211] @ 3376
     881 000002fb 0000          .field          0,16                    ; _m_ELELIB_BYQ3_4[212] @ 3392
     882 000002fc 0000          .field          0,16                    ; _m_ELELIB_BYQ3_4[213] @ 3408
     883 000002fd 0000          .field          0,16                    ; _m_ELELIB_BYQ3_4[214] @ 3424
     884 000002fe 0000          .field          0,16                    ; _m_ELELIB_BYQ3_4[215] @ 3440
     885 000002ff 0000          .field          0,16                    ; _m_ELELIB_BYQ3_4[216] @ 3456
     886 00000300 0000          .field          0,16                    ; _m_ELELIB_BYQ3_4[217] @ 3472
     887 00000301 0008          .field          8,16                    ; _m_ELELIB_BYQ3_4[218] @ 3488
     888 00000302 0010          .field          16,16                   ; _m_ELELIB_BYQ3_4[219] @ 3504
     889 00000303 0040          .field          64,16                   ; _m_ELELIB_BYQ3_4[220] @ 3520
     890 00000304 0010          .field          16,16                   ; _m_ELELIB_BYQ3_4[221] @ 3536
     891 00000305 0041          .field          65,16                   ; _m_ELELIB_BYQ3_4[222] @ 3552
     892 00000306 0000          .field          0,16                    ; _m_ELELIB_BYQ3_4[223] @ 3568
     893 00000307 0041          .field          65,16                   ; _m_ELELIB_BYQ3_4[224] @ 3584
     894 00000308 0004          .field          4,16                    ; _m_ELELIB_BYQ3_4[225] @ 3600
     895 00000309 0000          .field          0,16                    ; _m_ELELIB_BYQ3_4[226] @ 3616
     896 0000030a 001E          .field          30,16                   ; _m_ELELIB_BYQ3_4[227] @ 3632
     897 0000030b 0079          .field          121,16                  ; _m_ELELIB_BYQ3_4[228] @ 3648
     898 0000030c 00B0          .field          176,16                  ; _m_ELELIB_BYQ3_4[229] @ 3664
     899 0000030d 006D          .field          109,16                  ; _m_ELELIB_BYQ3_4[230] @ 3680
     900 0000030e 00B6          .field          182,16                  ; _m_ELELIB_BYQ3_4[231] @ 3696
     901 0000030f 00C1          .field          193,16                  ; _m_ELELIB_BYQ3_4[232] @ 3712
     902 00000310 00B6          .field          182,16                  ; _m_ELELIB_BYQ3_4[233] @ 3728
     903 00000311 00CF          .field          207,16                  ; _m_ELELIB_BYQ3_4[234] @ 3744
     904 00000312 0000          .field          0,16                    ; _m_ELELIB_BYQ3_4[235] @ 3760
     905 00000313 00A1          .field          161,16                  ; _m_ELELIB_BYQ3_4[236] @ 3776
     906 00000314 0086          .field          134,16                  ; _m_ELELIB_BYQ3_4[237] @ 3792
     907 00000315 0013          .field          19,16                   ; _m_ELELIB_BYQ3_4[238] @ 3808
     908 00000316 0086          .field          134,16                  ; _m_ELELIB_BYQ3_4[239] @ 3824
     909 00000317 0008          .field          8,16                    ; _m_ELELIB_BYQ3_4[240] @ 3840
     910 00000318 002E          .field          46,16                   ; _m_ELELIB_BYQ3_4[241] @ 3856
     911 00000319 000C          .field          12,16                   ; _m_ELELIB_BYQ3_4[242] @ 3872
     912 0000031a 0030          .field          48,16                   ; _m_ELELIB_BYQ3_4[243] @ 3888
     913 0000031b 0080          .field          128,16                  ; _m_ELELIB_BYQ3_4[244] @ 3904
     914 0000031c 00C1          .field          193,16                  ; _m_ELELIB_BYQ3_4[245] @ 3920
     915 0000031d 0082          .field          130,16                  ; _m_ELELIB_BYQ3_4[246] @ 3936
     916 0000031e 000B          .field          11,16                   ; _m_ELELIB_BYQ3_4[247] @ 3952
     917 0000031f 0082          .field          130,16                  ; _m_ELELIB_BYQ3_4[248] @ 3968
     918 00000320 0008          .field          8,16                    ; _m_ELELIB_BYQ3_4[249] @ 3984
     919 00000321 002E          .field          46,16                   ; _m_ELELIB_BYQ3_4[250] @ 4000
     920 00000322 0008          .field          8,16                    ; _m_ELELIB_BYQ3_4[251] @ 4016
     921 00000323 0020          .field          32,16                   ; _m_ELELIB_BYQ3_4[252] @ 4032
     922 00000324 0080          .field          128,16                  ; _m_ELELIB_BYQ3_4[253] @ 4048
     923 00000325 0040          .field          64,16                   ; _m_ELELIB_BYQ3_4[254] @ 4064
     924 00000326 0082          .field          130,16                  ; _m_ELELIB_BYQ3_4[255] @ 4080
     925 00000327 0008          .field          8,16                    ; _m_ELELIB_BYQ3_4[256] @ 4096
     926 00000328 0082          .field          130,16                  ; _m_ELELIB_BYQ3_4[257] @ 4112
     927 00000329 0008          .field          8,16                    ; _m_ELELIB_BYQ3_4[258] @ 4128
     928 0000032a 0022          .field          34,16                   ; _m_ELELIB_BYQ3_4[259] @ 4144
     929 0000032b 0008          .field          8,16                    ; _m_ELELIB_BYQ3_4[260] @ 4160
     930 0000032c 0020          .field          32,16                   ; _m_ELELIB_BYQ3_4[261] @ 4176
TMS320C2000 COFF Assembler PC v4.1.3 Thu Sep 15 15:05:03 2011

Tools Copyright (c) 1996-2006 Texas Instruments Incorporated
C:\DOCUME~1\ADMINI~1\LOCALS~1\Temp\TI3002                            PAGE   18

     931 0000032d 0080          .field          128,16                  ; _m_ELELIB_BYQ3_4[262] @ 4192
     932 0000032e 0040          .field          64,16                   ; _m_ELELIB_BYQ3_4[263] @ 4208
     933 0000032f 0000          .field          0,16                    ; _m_ELELIB_BYQ3_4[264] @ 4224
     934 00000330 0008          .field          8,16                    ; _m_ELELIB_BYQ3_4[265] @ 4240
     935 00000331 0080          .field          128,16                  ; _m_ELELIB_BYQ3_4[266] @ 4256
     936 00000332 0000          .field          0,16                    ; _m_ELELIB_BYQ3_4[267] @ 4272
     937 00000333 0022          .field          34,16                   ; _m_ELELIB_BYQ3_4[268] @ 4288
     938 00000334 0000          .field          0,16                    ; _m_ELELIB_BYQ3_4[269] @ 4304
     939 00000335 0000          .field          0,16                    ; _m_ELELIB_BYQ3_4[270] @ 4320
     940 00000336 0080          .field          128,16                  ; _m_ELELIB_BYQ3_4[271] @ 4336
     941 00000337 0040          .field          64,16                   ; _m_ELELIB_BYQ3_4[272] @ 4352
     942 00000338 0000          .field          0,16                    ; _m_ELELIB_BYQ3_4[273] @ 4368
     943 00000339 0008          .field          8,16                    ; _m_ELELIB_BYQ3_4[274] @ 4384
     944 0000033a 0080          .field          128,16                  ; _m_ELELIB_BYQ3_4[275] @ 4400
     945 0000033b 0000          .field          0,16                    ; _m_ELELIB_BYQ3_4[276] @ 4416
     946 0000033c 0022          .field          34,16                   ; _m_ELELIB_BYQ3_4[277] @ 4432
     947 0000033d 0000          .field          0,16                    ; _m_ELELIB_BYQ3_4[278] @ 4448
     948 0000033e 0000          .field          0,16                    ; _m_ELELIB_BYQ3_4[279] @ 4464
     949 0000033f 0080          .field          128,16                  ; _m_ELELIB_BYQ3_4[280] @ 4480
     950 00000340 0040          .field          64,16                   ; _m_ELELIB_BYQ3_4[281] @ 4496
     951 00000341 0000          .field          0,16                    ; _m_ELELIB_BYQ3_4[282] @ 4512
     952 00000342 0008          .field          8,16                    ; _m_ELELIB_BYQ3_4[283] @ 4528
     953 00000343 0080          .field          128,16                  ; _m_ELELIB_BYQ3_4[284] @ 4544
     954 00000344 0000          .field          0,16                    ; _m_ELELIB_BYQ3_4[285] @ 4560
     955 00000345 0022          .field          34,16                   ; _m_ELELIB_BYQ3_4[286] @ 4576
     956 00000346 0000          .field          0,16                    ; _m_ELELIB_BYQ3_4[287] @ 4592
     957 00000347 0000          .field          0,16                    ; _m_ELELIB_BYQ3_4[288] @ 4608
     958 00000348 0080          .field          128,16                  ; _m_ELELIB_BYQ3_4[289] @ 4624
     959 00000349 0040          .field          64,16                   ; _m_ELELIB_BYQ3_4[290] @ 4640
     960 0000034a 0000          .field          0,16                    ; _m_ELELIB_BYQ3_4[291] @ 4656
     961 0000034b 0008          .field          8,16                    ; _m_ELELIB_BYQ3_4[292] @ 4672
     962 0000034c 0080          .field          128,16                  ; _m_ELELIB_BYQ3_4[293] @ 4688
     963 0000034d 0000          .field          0,16                    ; _m_ELELIB_BYQ3_4[294] @ 4704
     964 0000034e 0022          .field          34,16                   ; _m_ELELIB_BYQ3_4[295] @ 4720
     965 0000034f 0000          .field          0,16                    ; _m_ELELIB_BYQ3_4[296] @ 4736
     966 00000350 0000          .field          0,16                    ; _m_ELELIB_BYQ3_4[297] @ 4752
     967 00000351 0080          .field          128,16                  ; _m_ELELIB_BYQ3_4[298] @ 4768
     968 00000352 0040          .field          64,16                   ; _m_ELELIB_BYQ3_4[299] @ 4784
     969 00000353 0000          .field          0,16                    ; _m_ELELIB_BYQ3_4[300] @ 4800
     970 00000354 0008          .field          8,16                    ; _m_ELELIB_BYQ3_4[301] @ 4816
     971 00000355 0080          .field          128,16                  ; _m_ELELIB_BYQ3_4[302] @ 4832
     972 00000356 0000          .field          0,16                    ; _m_ELELIB_BYQ3_4[303] @ 4848
     973 00000357 0022          .field          34,16                   ; _m_ELELIB_BYQ3_4[304] @ 4864
     974 00000358 0000          .field          0,16                    ; _m_ELELIB_BYQ3_4[305] @ 4880
     975 00000359 0000          .field          0,16                    ; _m_ELELIB_BYQ3_4[306] @ 4896
     976 0000035a 0080          .field          128,16                  ; _m_ELELIB_BYQ3_4[307] @ 4912
     977 0000035b 0040          .field          64,16                   ; _m_ELELIB_BYQ3_4[308] @ 4928
     978 0000035c 0000          .field          0,16                    ; _m_ELELIB_BYQ3_4[309] @ 4944
     979 0000035d 0008          .field          8,16                    ; _m_ELELIB_BYQ3_4[310] @ 4960
     980 0000035e 0080          .field          128,16                  ; _m_ELELIB_BYQ3_4[311] @ 4976
     981 0000035f 0000          .field          0,16                    ; _m_ELELIB_BYQ3_4[312] @ 4992
     982 00000360 0022          .field          34,16                   ; _m_ELELIB_BYQ3_4[313] @ 5008
     983 00000361 0000          .field          0,16                    ; _m_ELELIB_BYQ3_4[314] @ 5024
     984 00000362 0000          .field          0,16                    ; _m_ELELIB_BYQ3_4[315] @ 5040
     985 00000363 0080          .field          128,16                  ; _m_ELELIB_BYQ3_4[316] @ 5056
TMS320C2000 COFF Assembler PC v4.1.3 Thu Sep 15 15:05:03 2011

Tools Copyright (c) 1996-2006 Texas Instruments Incorporated
C:\DOCUME~1\ADMINI~1\LOCALS~1\Temp\TI3002                            PAGE   19

     986 00000364 0040          .field          64,16                   ; _m_ELELIB_BYQ3_4[317] @ 5072
     987 00000365 0000          .field          0,16                    ; _m_ELELIB_BYQ3_4[318] @ 5088
     988 00000366 0008          .field          8,16                    ; _m_ELELIB_BYQ3_4[319] @ 5104
     989 00000367 0080          .field          128,16                  ; _m_ELELIB_BYQ3_4[320] @ 5120
     990 00000368 0000          .field          0,16                    ; _m_ELELIB_BYQ3_4[321] @ 5136
     991 00000369 0022          .field          34,16                   ; _m_ELELIB_BYQ3_4[322] @ 5152
     992 0000036a 0000          .field          0,16                    ; _m_ELELIB_BYQ3_4[323] @ 5168
     993 0000036b 0000          .field          0,16                    ; _m_ELELIB_BYQ3_4[324] @ 5184
     994 0000036c 0080          .field          128,16                  ; _m_ELELIB_BYQ3_4[325] @ 5200
     995 0000036d 0040          .field          64,16                   ; _m_ELELIB_BYQ3_4[326] @ 5216
     996 0000036e 0000          .field          0,16                    ; _m_ELELIB_BYQ3_4[327] @ 5232
     997 0000036f 0008          .field          8,16                    ; _m_ELELIB_BYQ3_4[328] @ 5248
     998 00000370 0080          .field          128,16                  ; _m_ELELIB_BYQ3_4[329] @ 5264
     999 00000371 0000          .field          0,16                    ; _m_ELELIB_BYQ3_4[330] @ 5280
    1000 00000372 0022          .field          34,16                   ; _m_ELELIB_BYQ3_4[331] @ 5296
    1001 00000373 0000          .field          0,16                    ; _m_ELELIB_BYQ3_4[332] @ 5312
    1002 00000374 0000          .field          0,16                    ; _m_ELELIB_BYQ3_4[333] @ 5328
    1003 00000375 0080          .field          128,16                  ; _m_ELELIB_BYQ3_4[334] @ 5344
    1004 00000376 0040          .field          64,16                   ; _m_ELELIB_BYQ3_4[335] @ 5360
    1005 00000377 0000          .field          0,16                    ; _m_ELELIB_BYQ3_4[336] @ 5376
    1006 00000378 0008          .field          8,16                    ; _m_ELELIB_BYQ3_4[337] @ 5392
    1007 00000379 0080          .field          128,16                  ; _m_ELELIB_BYQ3_4[338] @ 5408
    1008 0000037a 0000          .field          0,16                    ; _m_ELELIB_BYQ3_4[339] @ 5424
    1009 0000037b 0022          .field          34,16                   ; _m_ELELIB_BYQ3_4[340] @ 5440
    1010 0000037c 0000          .field          0,16                    ; _m_ELELIB_BYQ3_4[341] @ 5456
    1011 0000037d 0000          .field          0,16                    ; _m_ELELIB_BYQ3_4[342] @ 5472
    1012 0000037e 0080          .field          128,16                  ; _m_ELELIB_BYQ3_4[343] @ 5488
    1013 0000037f 0060          .field          96,16                   ; _m_ELELIB_BYQ3_4[344] @ 5504
    1014 00000380 0000          .field          0,16                    ; _m_ELELIB_BYQ3_4[345] @ 5520
    1015 00000381 0019          .field          25,16                   ; _m_ELELIB_BYQ3_4[346] @ 5536
    1016 00000382 0080          .field          128,16                  ; _m_ELELIB_BYQ3_4[347] @ 5552
    1017 00000383 0000          .field          0,16                    ; _m_ELELIB_BYQ3_4[348] @ 5568
    1018 00000384 0033          .field          51,16                   ; _m_ELELIB_BYQ3_4[349] @ 5584
    1019 00000385 0000          .field          0,16                    ; _m_ELELIB_BYQ3_4[350] @ 5600
    1020 00000386 0000          .field          0,16                    ; _m_ELELIB_BYQ3_4[351] @ 5616
    1021 00000387 00C0          .field          192,16                  ; _m_ELELIB_BYQ3_4[352] @ 5632
    1022              
    1023              DW$28   .dwtag  DW_TAG_variable, DW_AT_name("m_ELELIB_BYQ3_4"), DW_AT_symbol_name("_m_ELELIB_BYQ3_4")
    1024                      .dwattr DW$28, DW_AT_location[DW_OP_addr _m_ELELIB_BYQ3_4]
    1025                      .dwattr DW$28, DW_AT_type(*DW$T$50)
    1026                      .dwattr DW$28, DW_AT_external(0x01)
    1027              ;       C:\CCStudio_v3.3\C2000\cgtools\bin\ac2000.exe -@C:\DOCUME~1\ADMINI~1\LOCALS~1\Temp\TI3004 
    1028 00000000               .sect   ".text"
    1029                      .global _ELEcomponent_ponit_display
    1030              
    1031              DW$29   .dwtag  DW_TAG_subprogram, DW_AT_name("ELEcomponent_ponit_display"), DW_AT_symbol_name("_ELEcomponent
    1032                      .dwattr DW$29, DW_AT_low_pc(_ELEcomponent_ponit_display)
    1033                      .dwattr DW$29, DW_AT_high_pc(0x00)
    1034                      .dwattr DW$29, DW_AT_begin_file("app_WIRmod_componentlib.c")
    1035                      .dwattr DW$29, DW_AT_begin_line(0x66)
    1036                      .dwattr DW$29, DW_AT_begin_column(0x06)
    1037                      .dwpsn  "app_WIRmod_componentlib.c",103,1
    1038              
    1039                      .dwfde DW$CIE
    1040              
TMS320C2000 COFF Assembler PC v4.1.3 Thu Sep 15 15:05:03 2011

Tools Copyright (c) 1996-2006 Texas Instruments Incorporated
C:\DOCUME~1\ADMINI~1\LOCALS~1\Temp\TI3002                            PAGE   20

    1041              ;***************************************************************
    1042              ;* FNAME: _ELEcomponent_ponit_display   FR SIZE:   4           *
    1043              ;*                                                             *
    1044              ;* FUNCTION ENVIRONMENT                                        *
    1045              ;*                                                             *
    1046              ;* FUNCTION PROPERTIES                                         *
    1047              ;*                            0 Parameter,  4 Auto,  0 SOE     *
    1048              ;***************************************************************
    1049              
    1050              _ELEcomponent_ponit_display:
    1051                      .dwcfa  0x1d, -2
    1052                      .dwcfa  0x1c, 26, 0
    1053                      .dwcfa  0x09, 40, 26
    1054 00000000 FE04          ADDB      SP,#4
    1055                      .dwcfa  0x1d, -6
    1056              ;* AL    assigned to _x
    1057              DW$30   .dwtag  DW_TAG_formal_parameter, DW_AT_name("x"), DW_AT_symbol_name("_x")
    1058                      .dwattr DW$30, DW_AT_type(*DW$T$11)
    1059                      .dwattr DW$30, DW_AT_location[DW_OP_reg0]
    1060              ;* AH    assigned to _y
    1061              DW$31   .dwtag  DW_TAG_formal_parameter, DW_AT_name("y"), DW_AT_symbol_name("_y")
    1062                      .dwattr DW$31, DW_AT_type(*DW$T$11)
    1063                      .dwattr DW$31, DW_AT_location[DW_OP_reg1]
    1064              DW$32   .dwtag  DW_TAG_variable, DW_AT_name("x"), DW_AT_symbol_name("_x")
    1065                      .dwattr DW$32, DW_AT_type(*DW$T$11)
    1066                      .dwattr DW$32, DW_AT_location[DW_OP_breg20 -1]
    1067              DW$33   .dwtag  DW_TAG_variable, DW_AT_name("y"), DW_AT_symbol_name("_y")
    1068                      .dwattr DW$33, DW_AT_type(*DW$T$11)
    1069                      .dwattr DW$33, DW_AT_location[DW_OP_breg20 -2]
    1070              DW$34   .dwtag  DW_TAG_variable, DW_AT_name("xoffset"), DW_AT_symbol_name("_xoffset")
    1071                      .dwattr DW$34, DW_AT_type(*DW$T$20)
    1072                      .dwattr DW$34, DW_AT_location[DW_OP_breg20 -3]
    1073              DW$35   .dwtag  DW_TAG_variable, DW_AT_name("yoffset"), DW_AT_symbol_name("_yoffset")
    1074                      .dwattr DW$35, DW_AT_type(*DW$T$20)
    1075                      .dwattr DW$35, DW_AT_location[DW_OP_breg20 -4]
    1076 00000001 9742          MOV       *-SP[2],AH            ; |103| 
    1077 00000002 9641          MOV       *-SP[1],AL            ; |103| 
    1078                      .dwpsn  "app_WIRmod_componentlib.c",106,2
    1079 00000003 9A02          MOVB      AL,#2                 ; |106| 
    1080 00000004 7441          SUB       *-SP[1],AL            ; |106| 
    1081                      .dwpsn  "app_WIRmod_componentlib.c",107,2
    1082 00000005 7442          SUB       *-SP[2],AL            ; |107| 
    1083                      .dwpsn  "app_WIRmod_componentlib.c",108,8
    1084 00000006 2B44          MOV       *-SP[4],#0            ; |108| 
    1085                      .dwpsn  "app_WIRmod_componentlib.c",108,20
    1086 00000007 9244          MOV       AL,*-SP[4]            ; |108| 
    1087 00000008 5203          CMPB      AL,#3                 ; |108| 
    1088 00000009 6716          B         L4,HIS                ; |108| 
    1089                      ; branchcc occurs ; |108| 
    1090              L1:    
    1091              DW$L$_ELEcomponent_ponit_display$2$B:
    1092                      .dwpsn  "app_WIRmod_componentlib.c",110,9
    1093 0000000a 2B43          MOV       *-SP[3],#0            ; |110| 
    1094                      .dwpsn  "app_WIRmod_componentlib.c",110,21
    1095 0000000b 9243          MOV       AL,*-SP[3]            ; |110| 
TMS320C2000 COFF Assembler PC v4.1.3 Thu Sep 15 15:05:03 2011

Tools Copyright (c) 1996-2006 Texas Instruments Incorporated
C:\DOCUME~1\ADMINI~1\LOCALS~1\Temp\TI3002                            PAGE   21

    1096 0000000c 5203          CMPB      AL,#3                 ; |110| 
    1097 0000000d 670C          B         L3,HIS                ; |110| 
    1098                      ; branchcc occurs ; |110| 
    1099              DW$L$_ELEcomponent_ponit_display$2$E:
    1100              L2:    
    1101              DW$L$_ELEcomponent_ponit_display$3$B:
    1102                      .dwpsn  "app_WIRmod_componentlib.c",112,4
    1103 0000000e 9241          MOV       AL,*-SP[1]            ; |112| 
    1104 0000000f 0A41          INC       *-SP[1]               ; |112| 
    1105 00000010 D4FF          MOVB      XAR4,#255             ; |112| 
    1106 00000011 9344          MOV       AH,*-SP[4]            ; |112| 
    1107 00000012 9542          ADD       AH,*-SP[2]            ; |112| 
    1108 00000013 7640!         LCR       #_GUI_window_draw_dot ; |112| 
         00000014 0000 
    1109                      ; call occurs [#_GUI_window_draw_dot] ; |112| 
    1110                      .dwpsn  "app_WIRmod_componentlib.c",110,33
    1111 00000015 0A43          INC       *-SP[3]               ; |110| 
    1112                      .dwpsn  "app_WIRmod_componentlib.c",110,21
    1113 00000016 9243          MOV       AL,*-SP[3]            ; |110| 
    1114 00000017 5203          CMPB      AL,#3                 ; |110| 
    1115 00000018 68F6          B         L2,LO                 ; |110| 
    1116                      ; branchcc occurs ; |110| 
    1117              DW$L$_ELEcomponent_ponit_display$3$E:
    1118              L3:    
    1119              DW$L$_ELEcomponent_ponit_display$4$B:
    1120                      .dwpsn  "app_WIRmod_componentlib.c",114,3
    1121 00000019 9A03          MOVB      AL,#3                 ; |114| 
    1122 0000001a 7441          SUB       *-SP[1],AL            ; |114| 
    1123                      .dwpsn  "app_WIRmod_componentlib.c",108,32
    1124 0000001b 0A44          INC       *-SP[4]               ; |108| 
    1125                      .dwpsn  "app_WIRmod_componentlib.c",108,20
    1126 0000001c 9244          MOV       AL,*-SP[4]            ; |108| 
    1127 0000001d 5203          CMPB      AL,#3                 ; |108| 
    1128 0000001e 68EC          B         L1,LO                 ; |108| 
    1129                      ; branchcc occurs ; |108| 
    1130              DW$L$_ELEcomponent_ponit_display$4$E:
    1131                      .dwpsn  "app_WIRmod_componentlib.c",116,2
    1132              L4:    
    1133                      .dwpsn  "app_WIRmod_componentlib.c",117,1
    1134 0000001f FE84          SUBB      SP,#4
    1135                      .dwcfa  0x1d, -2
    1136 00000020 0006          LRETR
    1137                      ; return occurs
    1138              
    1139              DW$36   .dwtag  DW_TAG_loop
    1140                      .dwattr DW$36, DW_AT_name("C:\DOCUME~1\ADMINI~1\LOCALS~1\Temp\TI3002:L1:1:1316070303")
    1141                      .dwattr DW$36, DW_AT_begin_file("app_WIRmod_componentlib.c")
    1142                      .dwattr DW$36, DW_AT_begin_line(0x6c)
    1143                      .dwattr DW$36, DW_AT_end_line(0x73)
    1144              DW$37   .dwtag  DW_TAG_loop_range
    1145                      .dwattr DW$37, DW_AT_low_pc(DW$L$_ELEcomponent_ponit_display$2$B)
    1146                      .dwattr DW$37, DW_AT_high_pc(DW$L$_ELEcomponent_ponit_display$2$E)
    1147              DW$38   .dwtag  DW_TAG_loop_range
    1148                      .dwattr DW$38, DW_AT_low_pc(DW$L$_ELEcomponent_ponit_display$4$B)
    1149                      .dwattr DW$38, DW_AT_high_pc(DW$L$_ELEcomponent_ponit_display$4$E)
TMS320C2000 COFF Assembler PC v4.1.3 Thu Sep 15 15:05:03 2011

Tools Copyright (c) 1996-2006 Texas Instruments Incorporated
C:\DOCUME~1\ADMINI~1\LOCALS~1\Temp\TI3002                            PAGE   22

    1150              
    1151              DW$39   .dwtag  DW_TAG_loop
    1152                      .dwattr DW$39, DW_AT_name("C:\DOCUME~1\ADMINI~1\LOCALS~1\Temp\TI3002:L2:2:1316070303")
    1153                      .dwattr DW$39, DW_AT_begin_file("app_WIRmod_componentlib.c")
    1154                      .dwattr DW$39, DW_AT_begin_line(0x6e)
    1155                      .dwattr DW$39, DW_AT_end_line(0x71)
    1156              DW$40   .dwtag  DW_TAG_loop_range
    1157                      .dwattr DW$40, DW_AT_low_pc(DW$L$_ELEcomponent_ponit_display$3$B)
    1158                      .dwattr DW$40, DW_AT_high_pc(DW$L$_ELEcomponent_ponit_display$3$E)
    1159                      .dwendtag DW$39
    1160              
    1161                      .dwendtag DW$36
    1162              
    1163                      .dwattr DW$29, DW_AT_end_file("app_WIRmod_componentlib.c")
    1164                      .dwattr DW$29, DW_AT_end_line(0x75)
    1165                      .dwattr DW$29, DW_AT_end_column(0x01)
    1166                      .dwendentry
    1167                      .dwendtag DW$29
    1168              
    1169 00000021               .sect   ".text"
    1170              
    1171              DW$41   .dwtag  DW_TAG_subprogram, DW_AT_name("ELEground_display"), DW_AT_symbol_name("_ELEground_display")
    1172                      .dwattr DW$41, DW_AT_low_pc(_ELEground_display)
    1173                      .dwattr DW$41, DW_AT_high_pc(0x00)
    1174                      .dwattr DW$41, DW_AT_begin_file("app_WIRmod_componentlib.c")
    1175                      .dwattr DW$41, DW_AT_begin_line(0x7c)
    1176                      .dwattr DW$41, DW_AT_begin_column(0x0e)
    1177                      .dwpsn  "app_WIRmod_componentlib.c",125,1
    1178              
    1179                      .dwfde DW$CIE
    1180              
    1181              ;***************************************************************
    1182              ;* FNAME: _ELEground_display            FR SIZE:   4           *
    1183              ;*                                                             *
    1184              ;* FUNCTION ENVIRONMENT                                        *
    1185              ;*                                                             *
    1186              ;* FUNCTION PROPERTIES                                         *
    1187              ;*                            0 Parameter,  3 Auto,  0 SOE     *
    1188              ;***************************************************************
    1189              
    1190              _ELEground_display:
    1191                      .dwcfa  0x1d, -2
    1192                      .dwcfa  0x1c, 26, 0
    1193                      .dwcfa  0x09, 40, 26
    1194 00000021 FE04          ADDB      SP,#4
    1195                      .dwcfa  0x1d, -6
    1196              ;* AL    assigned to _x
    1197              DW$42   .dwtag  DW_TAG_formal_parameter, DW_AT_name("x"), DW_AT_symbol_name("_x")
    1198                      .dwattr DW$42, DW_AT_type(*DW$T$11)
    1199                      .dwattr DW$42, DW_AT_location[DW_OP_reg0]
    1200              ;* AH    assigned to _y
    1201              DW$43   .dwtag  DW_TAG_formal_parameter, DW_AT_name("y"), DW_AT_symbol_name("_y")
    1202                      .dwattr DW$43, DW_AT_type(*DW$T$11)
    1203                      .dwattr DW$43, DW_AT_location[DW_OP_reg1]
    1204              ;* AR4   assigned to _direct
TMS320C2000 COFF Assembler PC v4.1.3 Thu Sep 15 15:05:03 2011

Tools Copyright (c) 1996-2006 Texas Instruments Incorporated
C:\DOCUME~1\ADMINI~1\LOCALS~1\Temp\TI3002                            PAGE   23

    1205              DW$44   .dwtag  DW_TAG_formal_parameter, DW_AT_name("direct"), DW_AT_symbol_name("_direct")
    1206                      .dwattr DW$44, DW_AT_type(*DW$T$6)
    1207                      .dwattr DW$44, DW_AT_location[DW_OP_reg12]
    1208              DW$45   .dwtag  DW_TAG_variable, DW_AT_name("x"), DW_AT_symbol_name("_x")
    1209                      .dwattr DW$45, DW_AT_type(*DW$T$11)
    1210                      .dwattr DW$45, DW_AT_location[DW_OP_breg20 -1]
    1211              DW$46   .dwtag  DW_TAG_variable, DW_AT_name("y"), DW_AT_symbol_name("_y")
    1212                      .dwattr DW$46, DW_AT_type(*DW$T$11)
    1213                      .dwattr DW$46, DW_AT_location[DW_OP_breg20 -2]
    1214              DW$47   .dwtag  DW_TAG_variable, DW_AT_name("direct"), DW_AT_symbol_name("_direct")
    1215                      .dwattr DW$47, DW_AT_type(*DW$T$6)
    1216                      .dwattr DW$47, DW_AT_location[DW_OP_breg20 -3]
    1217 00000022 7C43          MOV       *-SP[3],AR4           ; |125| 
    1218 00000023 9742          MOV       *-SP[2],AH            ; |125| 
    1219 00000024 9641          MOV       *-SP[1],AL            ; |125| 
    1220                      .dwpsn  "app_WIRmod_componentlib.c",126,2
    1221 00000025 9243          MOV       AL,*-SP[3]            ; |126| 
    1222 00000026 ED35          BF        L5,NEQ                ; |126| 
    1223                      ; branchcc occurs ; |126| 
    1224                      .dwpsn  "app_WIRmod_componentlib.c",128,3
    1225 00000027 9241          MOV       AL,*-SP[1]            ; |128| 
    1226 00000028 9CF8          ADDB      AL,#-8
    1227 00000029 9342          MOV       AH,*-SP[2]            ; |128| 
    1228 0000002a 88A9          MOVZ      AR6,AL                ; |128| 
    1229 0000002b 9241          MOV       AL,*-SP[1]            ; |128| 
    1230 0000002c 9D05          ADDB      AH,#5                 ; |128| 
    1231 0000002d 9C08          ADDB      AL,#8                 ; |128| 
    1232 0000002e 5CA9          MOVZ      AR4,AL                ; |128| 
    1233 0000002f 9242          MOV       AL,*-SP[2]            ; |128| 
    1234 00000030 9C05          ADDB      AL,#5                 ; |128| 
    1235 00000031 5DA9          MOVZ      AR5,AL                ; |128| 
    1236 00000032 92A6          MOV       AL,AR6                ; |128| 
    1237 00000033 7640!         LCR       #_GUI_window_line_display ; |128| 
         00000034 0000 
    1238                      ; call occurs [#_GUI_window_line_display] ; |128| 
    1239                      .dwpsn  "app_WIRmod_componentlib.c",129,3
    1240 00000035 9241          MOV       AL,*-SP[1]            ; |129| 
    1241 00000036 9CFB          ADDB      AL,#-5
    1242 00000037 88A9          MOVZ      AR6,AL                ; |129| 
    1243 00000038 9241          MOV       AL,*-SP[1]            ; |129| 
    1244 00000039 9C05          ADDB      AL,#5                 ; |129| 
    1245 0000003a 9342          MOV       AH,*-SP[2]            ; |129| 
    1246 0000003b 5CA9          MOVZ      AR4,AL                ; |129| 
    1247 0000003c 9D08          ADDB      AH,#8                 ; |129| 
    1248 0000003d 9242          MOV       AL,*-SP[2]            ; |129| 
    1249 0000003e 9C08          ADDB      AL,#8                 ; |129| 
    1250 0000003f 5DA9          MOVZ      AR5,AL                ; |129| 
    1251 00000040 92A6          MOV       AL,AR6                ; |129| 
    1252 00000041 7640!         LCR       #_GUI_window_line_display ; |129| 
         00000042 0000 
    1253                      ; call occurs [#_GUI_window_line_display] ; |129| 
    1254                      .dwpsn  "app_WIRmod_componentlib.c",130,3
    1255 00000043 9241          MOV       AL,*-SP[1]            ; |130| 
    1256 00000044 9CFE          ADDB      AL,#-2
    1257 00000045 88A9          MOVZ      AR6,AL                ; |130| 
TMS320C2000 COFF Assembler PC v4.1.3 Thu Sep 15 15:05:03 2011

Tools Copyright (c) 1996-2006 Texas Instruments Incorporated
C:\DOCUME~1\ADMINI~1\LOCALS~1\Temp\TI3002                            PAGE   24

    1258 00000046 9241          MOV       AL,*-SP[1]            ; |130| 
    1259 00000047 9C02          ADDB      AL,#2                 ; |130| 
    1260 00000048 9342          MOV       AH,*-SP[2]            ; |130| 
    1261 00000049 5CA9          MOVZ      AR4,AL                ; |130| 
    1262 0000004a 9D0B          ADDB      AH,#11                ; |130| 
    1263 0000004b 9242          MOV       AL,*-SP[2]            ; |130| 
    1264 0000004c 9C0B          ADDB      AL,#11                ; |130| 
    1265 0000004d 5DA9          MOVZ      AR5,AL                ; |130| 
    1266 0000004e 92A6          MOV       AL,AR6                ; |130| 
    1267 0000004f 7640!         LCR       #_GUI_window_line_display ; |130| 
         00000050 0000 
    1268                      ; call occurs [#_GUI_window_line_display] ; |130| 
    1269                      .dwpsn  "app_WIRmod_componentlib.c",131,3
    1270 00000051 9242          MOV       AL,*-SP[2]            ; |131| 
    1271 00000052 9C05          ADDB      AL,#5                 ; |131| 
    1272 00000053 5DA9          MOVZ      AR5,AL                ; |131| 
    1273 00000054 5C41          MOVZ      AR4,*-SP[1]           ; |131| 
    1274 00000055 9241          MOV       AL,*-SP[1]            ; |131| 
    1275 00000056 9342          MOV       AH,*-SP[2]            ; |131| 
    1276 00000057 7640!         LCR       #_GUI_window_line_display ; |131| 
         00000058 0000 
    1277                      ; call occurs [#_GUI_window_line_display] ; |131| 
    1278                      .dwpsn  "app_WIRmod_componentlib.c",132,2
    1279 00000059 FFEF          B         L8,UNC                ; |132| 
         0000005a 00A0 
    1280                      ; branch occurs ; |132| 
    1281              L5:    
    1282                      .dwpsn  "app_WIRmod_componentlib.c",133,7
    1283 0000005b 5201          CMPB      AL,#1                 ; |133| 
    1284 0000005c ED34          BF        L6,NEQ                ; |133| 
    1285                      ; branchcc occurs ; |133| 
    1286                      .dwpsn  "app_WIRmod_componentlib.c",135,3
    1287 0000005d 9242          MOV       AL,*-SP[2]            ; |135| 
    1288 0000005e 9CFB          ADDB      AL,#-5
    1289 0000005f 5C41          MOVZ      AR4,*-SP[1]           ; |135| 
    1290 00000060 5DA9          MOVZ      AR5,AL                ; |135| 
    1291 00000061 9241          MOV       AL,*-SP[1]            ; |135| 
    1292 00000062 9342          MOV       AH,*-SP[2]            ; |135| 
    1293 00000063 7640!         LCR       #_GUI_window_line_display ; |135| 
         00000064 0000 
    1294                      ; call occurs [#_GUI_window_line_display] ; |135| 
    1295                      .dwpsn  "app_WIRmod_componentlib.c",136,3
    1296 00000065 9241          MOV       AL,*-SP[1]            ; |136| 
    1297 00000066 9CF8          ADDB      AL,#-8
    1298 00000067 88A9          MOVZ      AR6,AL                ; |136| 
    1299 00000068 9241          MOV       AL,*-SP[1]            ; |136| 
    1300 00000069 9C08          ADDB      AL,#8                 ; |136| 
    1301 0000006a 9342          MOV       AH,*-SP[2]            ; |136| 
    1302 0000006b 5CA9          MOVZ      AR4,AL                ; |136| 
    1303 0000006c 9DFB          ADDB      AH,#-5
    1304 0000006d 9242          MOV       AL,*-SP[2]            ; |136| 
    1305 0000006e 9CFB          ADDB      AL,#-5
    1306 0000006f 5DA9          MOVZ      AR5,AL                ; |136| 
    1307 00000070 92A6          MOV       AL,AR6                ; |136| 
    1308 00000071 7640!         LCR       #_GUI_window_line_display ; |136| 
TMS320C2000 COFF Assembler PC v4.1.3 Thu Sep 15 15:05:03 2011

Tools Copyright (c) 1996-2006 Texas Instruments Incorporated
C:\DOCUME~1\ADMINI~1\LOCALS~1\Temp\TI3002                            PAGE   25

         00000072 0000 
    1309                      ; call occurs [#_GUI_window_line_display] ; |136| 
    1310                      .dwpsn  "app_WIRmod_componentlib.c",137,3
    1311 00000073 9241          MOV       AL,*-SP[1]            ; |137| 
    1312 00000074 9CFB          ADDB      AL,#-5
    1313 00000075 88A9          MOVZ      AR6,AL                ; |137| 
    1314 00000076 9241          MOV       AL,*-SP[1]            ; |137| 
    1315 00000077 9C05          ADDB      AL,#5                 ; |137| 
    1316 00000078 9342          MOV       AH,*-SP[2]            ; |137| 
    1317 00000079 5CA9          MOVZ      AR4,AL                ; |137| 
    1318 0000007a 9DF8          ADDB      AH,#-8
    1319 0000007b 9242          MOV       AL,*-SP[2]            ; |137| 
    1320 0000007c 9CF8          ADDB      AL,#-8
    1321 0000007d 5DA9          MOVZ      AR5,AL                ; |137| 
    1322 0000007e 92A6          MOV       AL,AR6                ; |137| 
    1323 0000007f 7640!         LCR       #_GUI_window_line_display ; |137| 
         00000080 0000 
    1324                      ; call occurs [#_GUI_window_line_display] ; |137| 
    1325                      .dwpsn  "app_WIRmod_componentlib.c",138,3
    1326 00000081 9241          MOV       AL,*-SP[1]            ; |138| 
    1327 00000082 9CFE          ADDB      AL,#-2
    1328 00000083 88A9          MOVZ      AR6,AL                ; |138| 
    1329 00000084 9241          MOV       AL,*-SP[1]            ; |138| 
    1330 00000085 9C02          ADDB      AL,#2                 ; |138| 
    1331 00000086 9342          MOV       AH,*-SP[2]            ; |138| 
    1332 00000087 5CA9          MOVZ      AR4,AL                ; |138| 
    1333 00000088 9DF5          ADDB      AH,#-11
    1334 00000089 9242          MOV       AL,*-SP[2]            ; |138| 
    1335 0000008a 9CF5          ADDB      AL,#-11
    1336 0000008b 5DA9          MOVZ      AR5,AL                ; |138| 
    1337 0000008c 92A6          MOV       AL,AR6                ; |138| 
    1338 0000008d 7640!         LCR       #_GUI_window_line_display ; |138| 
         0000008e 0000 
    1339                      ; call occurs [#_GUI_window_line_display] ; |138| 
    1340                      .dwpsn  "app_WIRmod_componentlib.c",139,2
    1341 0000008f 6F6A          B         L8,UNC                ; |139| 
    1342                      ; branch occurs ; |139| 
    1343              L6:    
    1344                      .dwpsn  "app_WIRmod_componentlib.c",140,7
    1345 00000090 5202          CMPB      AL,#2                 ; |140| 
    1346 00000091 ED34          BF        L7,NEQ                ; |140| 
    1347                      ; branchcc occurs ; |140| 
    1348                      .dwpsn  "app_WIRmod_componentlib.c",142,3
    1349 00000092 9241          MOV       AL,*-SP[1]            ; |142| 
    1350 00000093 9CFB          ADDB      AL,#-5
    1351 00000094 5D42          MOVZ      AR5,*-SP[2]           ; |142| 
    1352 00000095 5CA9          MOVZ      AR4,AL                ; |142| 
    1353 00000096 9241          MOV       AL,*-SP[1]            ; |142| 
    1354 00000097 9342          MOV       AH,*-SP[2]            ; |142| 
    1355 00000098 7640!         LCR       #_GUI_window_line_display ; |142| 
         00000099 0000 
    1356                      ; call occurs [#_GUI_window_line_display] ; |142| 
    1357                      .dwpsn  "app_WIRmod_componentlib.c",143,3
    1358 0000009a 9241          MOV       AL,*-SP[1]            ; |143| 
    1359 0000009b 9CFB          ADDB      AL,#-5
TMS320C2000 COFF Assembler PC v4.1.3 Thu Sep 15 15:05:03 2011

Tools Copyright (c) 1996-2006 Texas Instruments Incorporated
C:\DOCUME~1\ADMINI~1\LOCALS~1\Temp\TI3002                            PAGE   26

    1360 0000009c 88A9          MOVZ      AR6,AL                ; |143| 
    1361 0000009d 9241          MOV       AL,*-SP[1]            ; |143| 
    1362 0000009e 9CFB          ADDB      AL,#-5
    1363 0000009f 9342          MOV       AH,*-SP[2]            ; |143| 
    1364 000000a0 5CA9          MOVZ      AR4,AL                ; |143| 
    1365 000000a1 9DF8          ADDB      AH,#-8
    1366 000000a2 9242          MOV       AL,*-SP[2]            ; |143| 
    1367 000000a3 9C08          ADDB      AL,#8                 ; |143| 
    1368 000000a4 5DA9          MOVZ      AR5,AL                ; |143| 
    1369 000000a5 92A6          MOV       AL,AR6                ; |143| 
    1370 000000a6 7640!         LCR       #_GUI_window_line_display ; |143| 
         000000a7 0000 
    1371                      ; call occurs [#_GUI_window_line_display] ; |143| 
    1372                      .dwpsn  "app_WIRmod_componentlib.c",144,3
    1373 000000a8 9241          MOV       AL,*-SP[1]            ; |144| 
    1374 000000a9 9CF8          ADDB      AL,#-8
    1375 000000aa 88A9          MOVZ      AR6,AL                ; |144| 
    1376 000000ab 9241          MOV       AL,*-SP[1]            ; |144| 
    1377 000000ac 9CF8          ADDB      AL,#-8
    1378 000000ad 9342          MOV       AH,*-SP[2]            ; |144| 
    1379 000000ae 5CA9          MOVZ      AR4,AL                ; |144| 
    1380 000000af 9DFB          ADDB      AH,#-5
    1381 000000b0 9242          MOV       AL,*-SP[2]            ; |144| 
    1382 000000b1 9C05          ADDB      AL,#5                 ; |144| 
    1383 000000b2 5DA9          MOVZ      AR5,AL                ; |144| 
    1384 000000b3 92A6          MOV       AL,AR6                ; |144| 
    1385 000000b4 7640!         LCR       #_GUI_window_line_display ; |144| 
         000000b5 0000 
    1386                      ; call occurs [#_GUI_window_line_display] ; |144| 
    1387                      .dwpsn  "app_WIRmod_componentlib.c",145,3
    1388 000000b6 9241          MOV       AL,*-SP[1]            ; |145| 
    1389 000000b7 9CF5          ADDB      AL,#-11
    1390 000000b8 88A9          MOVZ      AR6,AL                ; |145| 
    1391 000000b9 9241          MOV       AL,*-SP[1]            ; |145| 
    1392 000000ba 9CF5          ADDB      AL,#-11
    1393 000000bb 9342          MOV       AH,*-SP[2]            ; |145| 
    1394 000000bc 5CA9          MOVZ      AR4,AL                ; |145| 
    1395 000000bd 9DFE          ADDB      AH,#-2
    1396 000000be 9242          MOV       AL,*-SP[2]            ; |145| 
    1397 000000bf 9C02          ADDB      AL,#2                 ; |145| 
    1398 000000c0 5DA9          MOVZ      AR5,AL                ; |145| 
    1399 000000c1 92A6          MOV       AL,AR6                ; |145| 
    1400 000000c2 7640!         LCR       #_GUI_window_line_display ; |145| 
         000000c3 0000 
    1401                      ; call occurs [#_GUI_window_line_display] ; |145| 
    1402                      .dwpsn  "app_WIRmod_componentlib.c",146,2
    1403 000000c4 6F35          B         L8,UNC                ; |146| 
    1404                      ; branch occurs ; |146| 
    1405              L7:    
    1406                      .dwpsn  "app_WIRmod_componentlib.c",147,7
    1407 000000c5 5203          CMPB      AL,#3                 ; |147| 
    1408 000000c6 ED33          BF        L8,NEQ                ; |147| 
    1409                      ; branchcc occurs ; |147| 
    1410                      .dwpsn  "app_WIRmod_componentlib.c",149,3
    1411 000000c7 9241          MOV       AL,*-SP[1]            ; |149| 
TMS320C2000 COFF Assembler PC v4.1.3 Thu Sep 15 15:05:03 2011

Tools Copyright (c) 1996-2006 Texas Instruments Incorporated
C:\DOCUME~1\ADMINI~1\LOCALS~1\Temp\TI3002                            PAGE   27

    1412 000000c8 9C05          ADDB      AL,#5                 ; |149| 
    1413 000000c9 5D42          MOVZ      AR5,*-SP[2]           ; |149| 
    1414 000000ca 5CA9          MOVZ      AR4,AL                ; |149| 
    1415 000000cb 9241          MOV       AL,*-SP[1]            ; |149| 
    1416 000000cc 9342          MOV       AH,*-SP[2]            ; |149| 
    1417 000000cd 7640!         LCR       #_GUI_window_line_display ; |149| 
         000000ce 0000 
    1418                      ; call occurs [#_GUI_window_line_display] ; |149| 
    1419                      .dwpsn  "app_WIRmod_componentlib.c",150,3
    1420 000000cf 9241          MOV       AL,*-SP[1]            ; |150| 
    1421 000000d0 9C05          ADDB      AL,#5                 ; |150| 
    1422 000000d1 88A9          MOVZ      AR6,AL                ; |150| 
    1423 000000d2 9241          MOV       AL,*-SP[1]            ; |150| 
    1424 000000d3 9C05          ADDB      AL,#5                 ; |150| 
    1425 000000d4 9342          MOV       AH,*-SP[2]            ; |150| 
    1426 000000d5 5CA9          MOVZ      AR4,AL                ; |150| 
    1427 000000d6 9DF8          ADDB      AH,#-8
    1428 000000d7 9242          MOV       AL,*-SP[2]            ; |150| 
    1429 000000d8 9C08          ADDB      AL,#8                 ; |150| 
    1430 000000d9 5DA9          MOVZ      AR5,AL                ; |150| 
    1431 000000da 92A6          MOV       AL,AR6                ; |150| 
    1432 000000db 7640!         LCR       #_GUI_window_line_display ; |150| 
         000000dc 0000 
    1433                      ; call occurs [#_GUI_window_line_display] ; |150| 
    1434                      .dwpsn  "app_WIRmod_componentlib.c",151,3
    1435 000000dd 9241          MOV       AL,*-SP[1]            ; |151| 
    1436 000000de 9C08          ADDB      AL,#8                 ; |151| 
    1437 000000df 88A9          MOVZ      AR6,AL                ; |151| 
    1438 000000e0 9241          MOV       AL,*-SP[1]            ; |151| 
    1439 000000e1 9C08          ADDB      AL,#8                 ; |151| 
    1440 000000e2 9342          MOV       AH,*-SP[2]            ; |151| 
    1441 000000e3 5CA9          MOVZ      AR4,AL                ; |151| 
    1442 000000e4 9DFB          ADDB      AH,#-5
    1443 000000e5 9242          MOV       AL,*-SP[2]            ; |151| 
    1444 000000e6 9C05          ADDB      AL,#5                 ; |151| 
    1445 000000e7 5DA9          MOVZ      AR5,AL                ; |151| 
    1446 000000e8 92A6          MOV       AL,AR6                ; |151| 
    1447 000000e9 7640!         LCR       #_GUI_window_line_display ; |151| 
         000000ea 0000 
    1448                      ; call occurs [#_GUI_window_line_display] ; |151| 
    1449                      .dwpsn  "app_WIRmod_componentlib.c",152,3
    1450 000000eb 9241          MOV       AL,*-SP[1]            ; |152| 
    1451 000000ec 9C0B          ADDB      AL,#11                ; |152| 
    1452 000000ed 88A9          MOVZ      AR6,AL                ; |152| 
    1453 000000ee 9241          MOV       AL,*-SP[1]            ; |152| 
    1454 000000ef 9C0B          ADDB      AL,#11                ; |152| 
    1455 000000f0 9342          MOV       AH,*-SP[2]            ; |152| 
    1456 000000f1 5CA9          MOVZ      AR4,AL                ; |152| 
    1457 000000f2 9DFE          ADDB      AH,#-2
    1458 000000f3 9242          MOV       AL,*-SP[2]            ; |152| 
    1459 000000f4 9C02          ADDB      AL,#2                 ; |152| 
    1460 000000f5 5DA9          MOVZ      AR5,AL                ; |152| 
    1461 000000f6 92A6          MOV       AL,AR6                ; |152| 
    1462 000000f7 7640!         LCR       #_GUI_window_line_display ; |152| 
         000000f8 0000 
TMS320C2000 COFF Assembler PC v4.1.3 Thu Sep 15 15:05:03 2011

Tools Copyright (c) 1996-2006 Texas Instruments Incorporated
C:\DOCUME~1\ADMINI~1\LOCALS~1\Temp\TI3002                            PAGE   28

    1463                      ; call occurs [#_GUI_window_line_display] ; |152| 
    1464              L8:    
    1465                      .dwpsn  "app_WIRmod_componentlib.c",154,2
    1466 000000f9 9241          MOV       AL,*-SP[1]            ; |154| 
    1467 000000fa 9342          MOV       AH,*-SP[2]            ; |154| 
    1468 000000fb 7640'         LCR       #_ELEcomponent_ponit_display ; |154| 
         000000fc 0000 
    1469                      ; call occurs [#_ELEcomponent_ponit_display] ; |154| 
    1470                      .dwpsn  "app_WIRmod_componentlib.c",155,2
    1471                      .dwpsn  "app_WIRmod_componentlib.c",156,1
    1472 000000fd FE84          SUBB      SP,#4
    1473                      .dwcfa  0x1d, -2
    1474 000000fe 0006          LRETR
    1475                      ; return occurs
    1476                      .dwattr DW$41, DW_AT_end_file("app_WIRmod_componentlib.c")
    1477                      .dwattr DW$41, DW_AT_end_line(0x9c)
    1478                      .dwattr DW$41, DW_AT_end_column(0x01)
    1479                      .dwendentry
    1480                      .dwendtag DW$41
    1481              
    1482 000000ff               .sect   ".text"
    1483                      .global _ELEcomponent_display
    1484              
    1485              DW$48   .dwtag  DW_TAG_subprogram, DW_AT_name("ELEcomponent_display"), DW_AT_symbol_name("_ELEcomponent_displ
    1486                      .dwattr DW$48, DW_AT_low_pc(_ELEcomponent_display)
    1487                      .dwattr DW$48, DW_AT_high_pc(0x00)
    1488                      .dwattr DW$48, DW_AT_begin_file("app_WIRmod_componentlib.c")
    1489                      .dwattr DW$48, DW_AT_begin_line(0xa3)
    1490                      .dwattr DW$48, DW_AT_begin_column(0x07)
    1491                      .dwpsn  "app_WIRmod_componentlib.c",164,1
    1492              
    1493                      .dwfde DW$CIE
    1494              
    1495              ;***************************************************************
    1496              ;* FNAME: _ELEcomponent_display         FR SIZE:   6           *
    1497              ;*                                                             *
    1498              ;* FUNCTION ENVIRONMENT                                        *
    1499              ;*                                                             *
    1500              ;* FUNCTION PROPERTIES                                         *
    1501              ;*                            1 Parameter,  5 Auto,  0 SOE     *
    1502              ;***************************************************************
    1503              
    1504              _ELEcomponent_display:
    1505                      .dwcfa  0x1d, -2
    1506                      .dwcfa  0x1c, 26, 0
    1507                      .dwcfa  0x09, 40, 26
    1508 000000ff FE06          ADDB      SP,#6
    1509                      .dwcfa  0x1d, -8
    1510              ;* AR4   assigned to _pcomp
    1511              DW$49   .dwtag  DW_TAG_formal_parameter, DW_AT_name("pcomp"), DW_AT_symbol_name("_pcomp")
    1512                      .dwattr DW$49, DW_AT_type(*DW$T$38)
    1513                      .dwattr DW$49, DW_AT_location[DW_OP_reg12]
    1514              DW$50   .dwtag  DW_TAG_variable, DW_AT_name("pcomp"), DW_AT_symbol_name("_pcomp")
    1515                      .dwattr DW$50, DW_AT_type(*DW$T$38)
    1516                      .dwattr DW$50, DW_AT_location[DW_OP_breg20 -4]
TMS320C2000 COFF Assembler PC v4.1.3 Thu Sep 15 15:05:03 2011

Tools Copyright (c) 1996-2006 Texas Instruments Incorporated
C:\DOCUME~1\ADMINI~1\LOCALS~1\Temp\TI3002                            PAGE   29

    1517              DW$51   .dwtag  DW_TAG_variable, DW_AT_name("pch"), DW_AT_symbol_name("_pch")
    1518                      .dwattr DW$51, DW_AT_type(*DW$T$28)
    1519                      .dwattr DW$51, DW_AT_location[DW_OP_breg20 -6]
    1520 00000100 A844          MOVL      *-SP[4],XAR4          ; |164| 
    1521                      .dwpsn  "app_WIRmod_componentlib.c",166,2
    1522 00000101 8A44          MOVL      XAR4,*-SP[4]          ; |166| 
    1523 00000102 92C4          MOV       AL,*+XAR4[0]          ; |166| 
    1524 00000103 5204          CMPB      AL,#4                 ; |166| 
    1525 00000104 ED0A          BF        L9,NEQ                ; |166| 
    1526                      ; branchcc occurs ; |166| 
    1527                      .dwpsn  "app_WIRmod_componentlib.c",168,3
    1528 00000105 8A44          MOVL      XAR4,*-SP[4]          ; |168| 
    1529 00000106 92D4          MOV       AL,*+XAR4[2]          ; |168| 
    1530 00000107 8A44          MOVL      XAR4,*-SP[4]          ; |168| 
    1531 00000108 93DC          MOV       AH,*+XAR4[3]          ; |168| 
    1532 00000109 8A44          MOVL      XAR4,*-SP[4]          ; |168| 
    1533 0000010a 5CCC          MOVZ      AR4,*+XAR4[1]         ; |168| 
    1534 0000010b 7640'         LCR       #_ELEground_display   ; |168| 
         0000010c 0021 
    1535                      ; call occurs [#_ELEground_display] ; |168| 
    1536                      .dwpsn  "app_WIRmod_componentlib.c",169,2
    1537 0000010d 6F22          B         L11,UNC               ; |169| 
    1538                      ; branch occurs ; |169| 
    1539              L9:    
    1540                      .dwpsn  "app_WIRmod_componentlib.c",170,7
    1541 0000010e 8A44          MOVL      XAR4,*-SP[4]          ; |170| 
    1542 0000010f 92C4          MOV       AL,*+XAR4[0]          ; |170| 
    1543 00000110 5205          CMPB      AL,#5                 ; |170| 
    1544 00000111 ED08          BF        L10,NEQ               ; |170| 
    1545                      ; branchcc occurs ; |170| 
    1546                      .dwpsn  "app_WIRmod_componentlib.c",172,3
    1547 00000112 8A44          MOVL      XAR4,*-SP[4]          ; |172| 
    1548 00000113 92D4          MOV       AL,*+XAR4[2]          ; |172| 
    1549 00000114 8A44          MOVL      XAR4,*-SP[4]          ; |172| 
    1550 00000115 93DC          MOV       AH,*+XAR4[3]          ; |172| 
    1551 00000116 7640'         LCR       #_ELEcomponent_ponit_display ; |172| 
         00000117 0000 
    1552                      ; call occurs [#_ELEcomponent_ponit_display] ; |172| 
    1553                      .dwpsn  "app_WIRmod_componentlib.c",173,2
    1554 00000118 6F17          B         L11,UNC               ; |173| 
    1555                      ; branch occurs ; |173| 
    1556              L10:    
    1557                      .dwpsn  "app_WIRmod_componentlib.c",176,3
    1558 00000119 8A44          MOVL      XAR4,*-SP[4]          ; |176| 
    1559 0000011a 0EC4          MOVU      ACC,*+XAR4[0]
    1560 0000011b FF30          LSL       ACC,1                 ; |176| 
    1561 0000011c 8F00-         MOVL      XAR4,#_m_ELELIB       ; |176| 
         0000011d 0000 
    1562 0000011e 5601          ADDL      XAR4,ACC
         0000011f 00A4 
    1563 00000120 06C4          MOVL      ACC,*+XAR4[0]         ; |176| 
    1564 00000121 1E46          MOVL      *-SP[6],ACC           ; |176| 
    1565                      .dwpsn  "app_WIRmod_componentlib.c",177,3
    1566 00000122 8A46          MOVL      XAR4,*-SP[6]          ; |177| 
    1567 00000123 92CC          MOV       AL,*+XAR4[1]          ; |177| 
TMS320C2000 COFF Assembler PC v4.1.3 Thu Sep 15 15:05:03 2011

Tools Copyright (c) 1996-2006 Texas Instruments Incorporated
C:\DOCUME~1\ADMINI~1\LOCALS~1\Temp\TI3002                            PAGE   30

    1568 00000124 9641          MOV       *-SP[1],AL            ; |177| 
    1569 00000125 8A44          MOVL      XAR4,*-SP[4]          ; |177| 
    1570 00000126 92D4          MOV       AL,*+XAR4[2]          ; |177| 
    1571 00000127 8A44          MOVL      XAR4,*-SP[4]          ; |177| 
    1572 00000128 93DC          MOV       AH,*+XAR4[3]          ; |177| 
    1573 00000129 8A46          MOVL      XAR4,*-SP[6]          ; |177| 
    1574 0000012a 5DC4          MOVZ      AR5,*+XAR4[0]         ; |177| 
    1575 0000012b 8A46          MOVL      XAR4,*-SP[6]          ; |177| 
    1576 0000012c DC02          ADDB      XAR4,#2               ; |177| 
    1577 0000012d 7640!         LCR       #_GUI_libASC_display_At ; |177| 
         0000012e 0000 
    1578                      ; call occurs [#_GUI_libASC_display_At] ; |177| 
    1579              L11:    
    1580                      .dwpsn  "app_WIRmod_componentlib.c",179,2
    1581 0000012f 8A44          MOVL      XAR4,*-SP[4]          ; |179| 
    1582 00000130 92C4          MOV       AL,*+XAR4[0]          ; |179| 
    1583 00000131 5203          CMPB      AL,#3                 ; |179| 
    1584 00000132 ED0E          BF        L12,NEQ               ; |179| 
    1585                      ; branchcc occurs ; |179| 
    1586                      .dwpsn  "app_WIRmod_componentlib.c",181,7
    1587 00000133 9AE0          MOVB      AL,#224               ; |181| 
    1588 00000134 7640!         LCR       #_GUI_set_Fgcolor     ; |181| 
         00000135 0000 
    1589                      ; call occurs [#_GUI_set_Fgcolor] ; |181| 
    1590                      .dwpsn  "app_WIRmod_componentlib.c",182,7
    1591 00000136 8A44          MOVL      XAR4,*-SP[4]          ; |182| 
    1592 00000137 92D4          MOV       AL,*+XAR4[2]          ; |182| 
    1593 00000138 8A44          MOVL      XAR4,*-SP[4]          ; |182| 
    1594 00000139 9C0A          ADDB      AL,#10                ; |182| 
    1595 0000013a 93DC          MOV       AH,*+XAR4[3]          ; |182| 
    1596 0000013b 9D05          ADDB      AH,#5                 ; |182| 
    1597 0000013c 8F00+         MOVL      XAR4,#FSL1            ; |182| 
         0000013d 0388 
    1598 0000013e 7640!         LCR       #_GUI_string_display_At ; |182| 
         0000013f 0000 
    1599                      ; call occurs [#_GUI_string_display_At] ; |182| 
    1600              L12:    
    1601                      .dwpsn  "app_WIRmod_componentlib.c",184,2
    1602 00000140 8A44          MOVL      XAR4,*-SP[4]          ; |184| 
    1603 00000141 92C4          MOV       AL,*+XAR4[0]          ; |184| 
    1604 00000142 5201          CMPB      AL,#1                 ; |184| 
    1605 00000143 ED0E          BF        L13,NEQ               ; |184| 
    1606                      ; branchcc occurs ; |184| 
    1607                      .dwpsn  "app_WIRmod_componentlib.c",186,7
    1608 00000144 9AE0          MOVB      AL,#224               ; |186| 
    1609 00000145 7640!         LCR       #_GUI_set_Fgcolor     ; |186| 
         00000146 0000 
    1610                      ; call occurs [#_GUI_set_Fgcolor] ; |186| 
    1611                      .dwpsn  "app_WIRmod_componentlib.c",187,7
    1612 00000147 8A44          MOVL      XAR4,*-SP[4]          ; |187| 
    1613 00000148 92D4          MOV       AL,*+XAR4[2]          ; |187| 
    1614 00000149 8A44          MOVL      XAR4,*-SP[4]          ; |187| 
    1615 0000014a 9C02          ADDB      AL,#2                 ; |187| 
    1616 0000014b 93DC          MOV       AH,*+XAR4[3]          ; |187| 
    1617 0000014c 9D02          ADDB      AH,#2                 ; |187| 
TMS320C2000 COFF Assembler PC v4.1.3 Thu Sep 15 15:05:03 2011

Tools Copyright (c) 1996-2006 Texas Instruments Incorporated
C:\DOCUME~1\ADMINI~1\LOCALS~1\Temp\TI3002                            PAGE   31

    1618 0000014d 8F00+         MOVL      XAR4,#FSL2            ; |187| 
         0000014e 038C 
    1619 0000014f 7640!         LCR       #_GUI_string_display_At ; |187| 
         00000150 0000 
    1620                      ; call occurs [#_GUI_string_display_At] ; |187| 
    1621              L13:    
    1622                      .dwpsn  "app_WIRmod_componentlib.c",189,2
    1623 00000151 8A44          MOVL      XAR4,*-SP[4]          ; |189| 
    1624 00000152 92C4          MOV       AL,*+XAR4[0]          ; |189| 
    1625 00000153 ED28          BF        L14,NEQ               ; |189| 
    1626                      ; branchcc occurs ; |189| 
    1627                      .dwpsn  "app_WIRmod_componentlib.c",191,7
    1628 00000154 9AFC          MOVB      AL,#252               ; |191| 
    1629 00000155 7640!         LCR       #_GUI_set_Fgcolor     ; |191| 
         00000156 0000 
    1630                      ; call occurs [#_GUI_set_Fgcolor] ; |191| 
    1631                      .dwpsn  "app_WIRmod_componentlib.c",192,7
    1632 00000157 8A44          MOVL      XAR4,*-SP[4]          ; |192| 
    1633 00000158 92D4          MOV       AL,*+XAR4[2]          ; |192| 
    1634 00000159 8A44          MOVL      XAR4,*-SP[4]          ; |192| 
    1635 0000015a 9C04          ADDB      AL,#4                 ; |192| 
    1636 0000015b 93DC          MOV       AH,*+XAR4[3]          ; |192| 
    1637 0000015c 9DF1          ADDB      AH,#-15
    1638 0000015d 8F00+         MOVL      XAR4,#FSL3            ; |192| 
         0000015e 0390 
    1639 0000015f 7640!         LCR       #_GUI_string_display_At ; |192| 
         00000160 0000 
    1640                      ; call occurs [#_GUI_string_display_At] ; |192| 
    1641                      .dwpsn  "app_WIRmod_componentlib.c",193,7
    1642 00000161 9A1C          MOVB      AL,#28                ; |193| 
    1643 00000162 7640!         LCR       #_GUI_set_Fgcolor     ; |193| 
         00000163 0000 
    1644                      ; call occurs [#_GUI_set_Fgcolor] ; |193| 
    1645                      .dwpsn  "app_WIRmod_componentlib.c",194,7
    1646 00000164 8A44          MOVL      XAR4,*-SP[4]          ; |194| 
    1647 00000165 92D4          MOV       AL,*+XAR4[2]          ; |194| 
    1648 00000166 8A44          MOVL      XAR4,*-SP[4]          ; |194| 
    1649 00000167 9C19          ADDB      AL,#25                ; |194| 
    1650 00000168 93DC          MOV       AH,*+XAR4[3]          ; |194| 
    1651 00000169 9DF1          ADDB      AH,#-15
    1652 0000016a 8F00+         MOVL      XAR4,#FSL4            ; |194| 
         0000016b 0392 
    1653 0000016c 7640!         LCR       #_GUI_string_display_At ; |194| 
         0000016d 0000 
    1654                      ; call occurs [#_GUI_string_display_At] ; |194| 
    1655                      .dwpsn  "app_WIRmod_componentlib.c",195,7
    1656 0000016e 9AE0          MOVB      AL,#224               ; |195| 
    1657 0000016f 7640!         LCR       #_GUI_set_Fgcolor     ; |195| 
         00000170 0000 
    1658                      ; call occurs [#_GUI_set_Fgcolor] ; |195| 
    1659                      .dwpsn  "app_WIRmod_componentlib.c",196,7
    1660 00000171 8A44          MOVL      XAR4,*-SP[4]          ; |196| 
    1661 00000172 92D4          MOV       AL,*+XAR4[2]          ; |196| 
    1662 00000173 8A44          MOVL      XAR4,*-SP[4]          ; |196| 
    1663 00000174 9C30          ADDB      AL,#48                ; |196| 
TMS320C2000 COFF Assembler PC v4.1.3 Thu Sep 15 15:05:03 2011

Tools Copyright (c) 1996-2006 Texas Instruments Incorporated
C:\DOCUME~1\ADMINI~1\LOCALS~1\Temp\TI3002                            PAGE   32

    1664 00000175 93DC          MOV       AH,*+XAR4[3]          ; |196| 
    1665 00000176 9DF1          ADDB      AH,#-15
    1666 00000177 8F00+         MOVL      XAR4,#FSL5            ; |196| 
         00000178 0394 
    1667 00000179 7640!         LCR       #_GUI_string_display_At ; |196| 
         0000017a 0000 
    1668                      ; call occurs [#_GUI_string_display_At] ; |196| 
    1669              L14:    
    1670                      .dwpsn  "app_WIRmod_componentlib.c",198,2
    1671 0000017b 9AFF          MOVB      AL,#255               ; |198| 
    1672 0000017c 7640!         LCR       #_GUI_set_Fgcolor     ; |198| 
         0000017d 0000 
    1673                      ; call occurs [#_GUI_set_Fgcolor] ; |198| 
    1674                      .dwpsn  "app_WIRmod_componentlib.c",199,2
    1675                      .dwpsn  "app_WIRmod_componentlib.c",200,1
    1676 0000017e FE86          SUBB      SP,#6
    1677                      .dwcfa  0x1d, -2
    1678 0000017f 0006          LRETR
    1679                      ; return occurs
    1680                      .dwattr DW$48, DW_AT_end_file("app_WIRmod_componentlib.c")
    1681                      .dwattr DW$48, DW_AT_end_line(0xc8)
    1682                      .dwattr DW$48, DW_AT_end_column(0x01)
    1683                      .dwendentry
    1684                      .dwendtag DW$48
    1685              
    1686 00000180               .sect   ".text"
    1687                      .global _ELEcomponent_point_link
    1688              
    1689              DW$52   .dwtag  DW_TAG_subprogram, DW_AT_name("ELEcomponent_point_link"), DW_AT_symbol_name("_ELEcomponent_po
    1690                      .dwattr DW$52, DW_AT_low_pc(_ELEcomponent_point_link)
    1691                      .dwattr DW$52, DW_AT_high_pc(0x00)
    1692                      .dwattr DW$52, DW_AT_begin_file("app_WIRmod_componentlib.c")
    1693                      .dwattr DW$52, DW_AT_begin_line(0xcf)
    1694                      .dwattr DW$52, DW_AT_begin_column(0x06)
    1695                      .dwpsn  "app_WIRmod_componentlib.c",208,1
    1696              
    1697                      .dwfde DW$CIE
    1698              
    1699              ;***************************************************************
    1700              ;* FNAME: _ELEcomponent_point_link      FR SIZE:   8           *
    1701              ;*                                                             *
    1702              ;* FUNCTION ENVIRONMENT                                        *
    1703              ;*                                                             *
    1704              ;* FUNCTION PROPERTIES                                         *
    1705              ;*                            0 Parameter,  8 Auto,  0 SOE     *
    1706              ;***************************************************************
    1707              
    1708              _ELEcomponent_point_link:
    1709                      .dwcfa  0x1d, -2
    1710                      .dwcfa  0x1c, 26, 0
    1711                      .dwcfa  0x09, 40, 26
    1712 00000180 FE08          ADDB      SP,#8
    1713                      .dwcfa  0x1d, -10
    1714              ;* AL    assigned to _x1
    1715              DW$53   .dwtag  DW_TAG_formal_parameter, DW_AT_name("x1"), DW_AT_symbol_name("_x1")
TMS320C2000 COFF Assembler PC v4.1.3 Thu Sep 15 15:05:03 2011

Tools Copyright (c) 1996-2006 Texas Instruments Incorporated
C:\DOCUME~1\ADMINI~1\LOCALS~1\Temp\TI3002                            PAGE   33

    1716                      .dwattr DW$53, DW_AT_type(*DW$T$11)
    1717                      .dwattr DW$53, DW_AT_location[DW_OP_reg0]
    1718              ;* AH    assigned to _y1
    1719              DW$54   .dwtag  DW_TAG_formal_parameter, DW_AT_name("y1"), DW_AT_symbol_name("_y1")
    1720                      .dwattr DW$54, DW_AT_type(*DW$T$11)
    1721                      .dwattr DW$54, DW_AT_location[DW_OP_reg1]
    1722              ;* AR4   assigned to _x2
    1723              DW$55   .dwtag  DW_TAG_formal_parameter, DW_AT_name("x2"), DW_AT_symbol_name("_x2")
    1724                      .dwattr DW$55, DW_AT_type(*DW$T$11)
    1725                      .dwattr DW$55, DW_AT_location[DW_OP_reg12]
    1726              ;* AR5   assigned to _y2
    1727              DW$56   .dwtag  DW_TAG_formal_parameter, DW_AT_name("y2"), DW_AT_symbol_name("_y2")
    1728                      .dwattr DW$56, DW_AT_type(*DW$T$11)
    1729                      .dwattr DW$56, DW_AT_location[DW_OP_reg14]
    1730              DW$57   .dwtag  DW_TAG_variable, DW_AT_name("x1"), DW_AT_symbol_name("_x1")
    1731                      .dwattr DW$57, DW_AT_type(*DW$T$11)
    1732                      .dwattr DW$57, DW_AT_location[DW_OP_breg20 -1]
    1733              DW$58   .dwtag  DW_TAG_variable, DW_AT_name("y1"), DW_AT_symbol_name("_y1")
    1734                      .dwattr DW$58, DW_AT_type(*DW$T$11)
    1735                      .dwattr DW$58, DW_AT_location[DW_OP_breg20 -2]
    1736              DW$59   .dwtag  DW_TAG_variable, DW_AT_name("x2"), DW_AT_symbol_name("_x2")
    1737                      .dwattr DW$59, DW_AT_type(*DW$T$11)
    1738                      .dwattr DW$59, DW_AT_location[DW_OP_breg20 -3]
    1739              DW$60   .dwtag  DW_TAG_variable, DW_AT_name("y2"), DW_AT_symbol_name("_y2")
    1740                      .dwattr DW$60, DW_AT_type(*DW$T$11)
    1741                      .dwattr DW$60, DW_AT_location[DW_OP_breg20 -4]
    1742              DW$61   .dwtag  DW_TAG_variable, DW_AT_name("mid_y1"), DW_AT_symbol_name("_mid_y1")
    1743                      .dwattr DW$61, DW_AT_type(*DW$T$11)
    1744                      .dwattr DW$61, DW_AT_location[DW_OP_breg20 -5]
    1745              DW$62   .dwtag  DW_TAG_variable, DW_AT_name("mid_y2"), DW_AT_symbol_name("_mid_y2")
    1746                      .dwattr DW$62, DW_AT_type(*DW$T$11)
    1747                      .dwattr DW$62, DW_AT_location[DW_OP_breg20 -6]
    1748              DW$63   .dwtag  DW_TAG_variable, DW_AT_name("dx"), DW_AT_symbol_name("_dx")
    1749                      .dwattr DW$63, DW_AT_type(*DW$T$11)
    1750                      .dwattr DW$63, DW_AT_location[DW_OP_breg20 -7]
    1751              DW$64   .dwtag  DW_TAG_variable, DW_AT_name("dy"), DW_AT_symbol_name("_dy")
    1752                      .dwattr DW$64, DW_AT_type(*DW$T$11)
    1753                      .dwattr DW$64, DW_AT_location[DW_OP_breg20 -8]
    1754 00000181 7D44          MOV       *-SP[4],AR5           ; |208| 
    1755 00000182 7C43          MOV       *-SP[3],AR4           ; |208| 
    1756 00000183 9742          MOV       *-SP[2],AH            ; |208| 
    1757 00000184 9641          MOV       *-SP[1],AL            ; |208| 
    1758                      .dwpsn  "app_WIRmod_componentlib.c",211,11
    1759 00000185 9243          MOV       AL,*-SP[3]            ; |211| 
    1760 00000186 9E41          SUB       AL,*-SP[1]            ; |211| 
    1761 00000187 EC04          BF        L15,EQ                ; |211| 
    1762                      ; branchcc occurs ; |211| 
    1763 00000188 9243          MOV       AL,*-SP[3]            ; |211| 
    1764 00000189 9E41          SUB       AL,*-SP[1]            ; |211| 
    1765 0000018a 6F03          B         L16,UNC               ; |211| 
    1766                      ; branch occurs ; |211| 
    1767 0000018b       L15:    
    1768 0000018b 9241          MOV       AL,*-SP[1]            ; |211| 
    1769 0000018c 9E43          SUB       AL,*-SP[3]            ; |211| 
    1770 0000018d       L16:    
TMS320C2000 COFF Assembler PC v4.1.3 Thu Sep 15 15:05:03 2011

Tools Copyright (c) 1996-2006 Texas Instruments Incorporated
C:\DOCUME~1\ADMINI~1\LOCALS~1\Temp\TI3002                            PAGE   34

    1771 0000018d 9647          MOV       *-SP[7],AL            ; |211| 
    1772                      .dwpsn  "app_WIRmod_componentlib.c",212,11
    1773 0000018e 9244          MOV       AL,*-SP[4]            ; |212| 
    1774 0000018f 9E42          SUB       AL,*-SP[2]            ; |212| 
    1775 00000190 EC04          BF        L17,EQ                ; |212| 
    1776                      ; branchcc occurs ; |212| 
    1777 00000191 9244          MOV       AL,*-SP[4]            ; |212| 
    1778 00000192 9E42          SUB       AL,*-SP[2]            ; |212| 
    1779 00000193 6F03          B         L18,UNC               ; |212| 
    1780                      ; branch occurs ; |212| 
    1781 00000194       L17:    
    1782 00000194 9242          MOV       AL,*-SP[2]            ; |212| 
    1783 00000195 9E44          SUB       AL,*-SP[4]            ; |212| 
    1784 00000196       L18:    
    1785 00000196 9648          MOV       *-SP[8],AL            ; |212| 
    1786                      .dwpsn  "app_WIRmod_componentlib.c",213,2
    1787 00000197 9247          MOV       AL,*-SP[7]            ; |213| 
    1788 00000198 520A          CMPB      AL,#10                ; |213| 
    1789 00000199 6928          B         L19,LOS               ; |213| 
    1790                      ; branchcc occurs ; |213| 
    1791 0000019a 9248          MOV       AL,*-SP[8]            ; |213| 
    1792 0000019b 5232          CMPB      AL,#50                ; |213| 
    1793 0000019c 6925          B         L19,LOS               ; |213| 
    1794                      ; branchcc occurs ; |213| 
    1795                      .dwpsn  "app_WIRmod_componentlib.c",215,3
    1796 0000019d 9244          MOV       AL,*-SP[4]            ; |215| 
    1797 0000019e 9442          ADD       AL,*-SP[2]            ; |215| 
    1798 0000019f D407          MOVB      XAR4,#7               ; |215| 
    1799 000001a0 2DA9          MOV       T,AL                  ; |215| 
    1800 000001a1 3503          MPYB      ACC,T,#3              ; |215| 
    1801 000001a2 0EA9          MOVU      ACC,AL
    1802 000001a3 F60F          RPT       #15
    1803 000001a4 1FA4  ||     SUBCU     ACC,AR4               ; |215| 
    1804 000001a5 9645          MOV       *-SP[5],AL            ; |215| 
    1805                      .dwpsn  "app_WIRmod_componentlib.c",216,3
    1806 000001a6 5D45          MOVZ      AR5,*-SP[5]           ; |216| 
    1807 000001a7 5C41          MOVZ      AR4,*-SP[1]           ; |216| 
    1808 000001a8 9241          MOV       AL,*-SP[1]            ; |216| 
    1809 000001a9 9342          MOV       AH,*-SP[2]            ; |216| 
    1810 000001aa 7640!         LCR       #_GUI_window_line_display ; |216| 
         000001ab 0000 
    1811                      ; call occurs [#_GUI_window_line_display] ; |216| 
    1812                      .dwpsn  "app_WIRmod_componentlib.c",217,3
    1813 000001ac 9244          MOV       AL,*-SP[4]            ; |217| 
    1814 000001ad 9442          ADD       AL,*-SP[2]            ; |217| 
    1815 000001ae FF81          LSL       AL,2                  ; |217| 
    1816 000001af D407          MOVB      XAR4,#7               ; |217| 
    1817 000001b0 0EA9          MOVU      ACC,AL
    1818 000001b1 F60F          RPT       #15
    1819 000001b2 1FA4  ||     SUBCU     ACC,AR4               ; |217| 
    1820 000001b3 9646          MOV       *-SP[6],AL            ; |217| 
    1821                      .dwpsn  "app_WIRmod_componentlib.c",218,3
    1822 000001b4 5C43          MOVZ      AR4,*-SP[3]           ; |218| 
    1823 000001b5 5D44          MOVZ      AR5,*-SP[4]           ; |218| 
    1824 000001b6 9243          MOV       AL,*-SP[3]            ; |218| 
TMS320C2000 COFF Assembler PC v4.1.3 Thu Sep 15 15:05:03 2011

Tools Copyright (c) 1996-2006 Texas Instruments Incorporated
C:\DOCUME~1\ADMINI~1\LOCALS~1\Temp\TI3002                            PAGE   35

    1825 000001b7 9346          MOV       AH,*-SP[6]            ; |218| 
    1826 000001b8 7640!         LCR       #_GUI_window_line_display ; |218| 
         000001b9 0000 
    1827                      ; call occurs [#_GUI_window_line_display] ; |218| 
    1828                      .dwpsn  "app_WIRmod_componentlib.c",219,3
    1829 000001ba 9241          MOV       AL,*-SP[1]            ; |219| 
    1830 000001bb 5C43          MOVZ      AR4,*-SP[3]           ; |219| 
    1831 000001bc 5D46          MOVZ      AR5,*-SP[6]           ; |219| 
    1832 000001bd 9345          MOV       AH,*-SP[5]            ; |219| 
    1833 000001be 7640!         LCR       #_GUI_window_line_display ; |219| 
         000001bf 0000 
    1834                      ; call occurs [#_GUI_window_line_display] ; |219| 
    1835                      .dwpsn  "app_WIRmod_componentlib.c",220,2
    1836 000001c0 6F17          B         L20,UNC               ; |220| 
    1837                      ; branch occurs ; |220| 
    1838              L19:    
    1839                      .dwpsn  "app_WIRmod_componentlib.c",223,3
    1840 000001c1 9244          MOV       AL,*-SP[4]            ; |223| 
    1841 000001c2 9442          ADD       AL,*-SP[2]            ; |223| 
    1842 000001c3 FFC0          LSR       AL,1                  ; |223| 
    1843 000001c4 9645          MOV       *-SP[5],AL            ; |223| 
    1844                      .dwpsn  "app_WIRmod_componentlib.c",224,3
    1845 000001c5 5C41          MOVZ      AR4,*-SP[1]           ; |224| 
    1846 000001c6 5D45          MOVZ      AR5,*-SP[5]           ; |224| 
    1847 000001c7 9241          MOV       AL,*-SP[1]            ; |224| 
    1848 000001c8 9342          MOV       AH,*-SP[2]            ; |224| 
    1849 000001c9 7640!         LCR       #_GUI_window_line_display ; |224| 
         000001ca 0000 
    1850                      ; call occurs [#_GUI_window_line_display] ; |224| 
    1851                      .dwpsn  "app_WIRmod_componentlib.c",225,3
    1852 000001cb 5C43          MOVZ      AR4,*-SP[3]           ; |225| 
    1853 000001cc 5D45          MOVZ      AR5,*-SP[5]           ; |225| 
    1854 000001cd 9241          MOV       AL,*-SP[1]            ; |225| 
    1855 000001ce 9345          MOV       AH,*-SP[5]            ; |225| 
    1856 000001cf 7640!         LCR       #_GUI_window_line_display ; |225| 
         000001d0 0000 
    1857                      ; call occurs [#_GUI_window_line_display] ; |225| 
    1858                      .dwpsn  "app_WIRmod_componentlib.c",226,3
    1859 000001d1 9243          MOV       AL,*-SP[3]            ; |226| 
    1860 000001d2 5C43          MOVZ      AR4,*-SP[3]           ; |226| 
    1861 000001d3 5D44          MOVZ      AR5,*-SP[4]           ; |226| 
    1862 000001d4 9345          MOV       AH,*-SP[5]            ; |226| 
    1863 000001d5 7640!         LCR       #_GUI_window_line_display ; |226| 
         000001d6 0000 
    1864                      ; call occurs [#_GUI_window_line_display] ; |226| 
    1865                      .dwpsn  "app_WIRmod_componentlib.c",229,2
    1866              L20:    
    1867                      .dwpsn  "app_WIRmod_componentlib.c",230,1
    1868 000001d7 FE88          SUBB      SP,#8
    1869                      .dwcfa  0x1d, -2
    1870 000001d8 0006          LRETR
    1871                      ; return occurs
    1872                      .dwattr DW$52, DW_AT_end_file("app_WIRmod_componentlib.c")
    1873                      .dwattr DW$52, DW_AT_end_line(0xe6)
    1874                      .dwattr DW$52, DW_AT_end_column(0x01)
TMS320C2000 COFF Assembler PC v4.1.3 Thu Sep 15 15:05:03 2011

Tools Copyright (c) 1996-2006 Texas Instruments Incorporated
C:\DOCUME~1\ADMINI~1\LOCALS~1\Temp\TI3002                            PAGE   36

    1875                      .dwendentry
    1876                      .dwendtag DW$52
    1877              
    1878 000001d9               .sect   ".text"
    1879              
    1880              DW$65   .dwtag  DW_TAG_subprogram, DW_AT_name("ELEcomponent_branch_obtain"), DW_AT_symbol_name("_ELEcomponent
    1881                      .dwattr DW$65, DW_AT_low_pc(_ELEcomponent_branch_obtain)
    1882                      .dwattr DW$65, DW_AT_high_pc(0x00)
    1883                      .dwattr DW$65, DW_AT_begin_file("app_WIRmod_componentlib.c")
    1884                      .dwattr DW$65, DW_AT_begin_line(0xe8)
    1885                      .dwattr DW$65, DW_AT_begin_column(0x08)
    1886                      .dwpsn  "app_WIRmod_componentlib.c",237,1
    1887              
    1888                      .dwfde DW$CIE
    1889              
    1890              ;***************************************************************
    1891              ;* FNAME: _ELEcomponent_branch_obtain   FR SIZE:   6           *
    1892              ;*                                                             *
    1893              ;* FUNCTION ENVIRONMENT                                        *
    1894              ;*                                                             *
    1895              ;* FUNCTION PROPERTIES                                         *
    1896              ;*                            0 Parameter,  5 Auto,  0 SOE     *
    1897              ;***************************************************************
    1898              
    1899              _ELEcomponent_branch_obtain:
    1900                      .dwcfa  0x1d, -2
    1901                      .dwcfa  0x1c, 26, 0
    1902                      .dwcfa  0x09, 40, 26
    1903 000001d9 FE06          ADDB      SP,#6
    1904                      .dwcfa  0x1d, -8
    1905              ;* AR4   assigned to _x
    1906              DW$66   .dwtag  DW_TAG_formal_parameter, DW_AT_name("x"), DW_AT_symbol_name("_x")
    1907                      .dwattr DW$66, DW_AT_type(*DW$T$46)
    1908                      .dwattr DW$66, DW_AT_location[DW_OP_reg12]
    1909              ;* AR5   assigned to _y
    1910              DW$67   .dwtag  DW_TAG_formal_parameter, DW_AT_name("y"), DW_AT_symbol_name("_y")
    1911                      .dwattr DW$67, DW_AT_type(*DW$T$46)
    1912                      .dwattr DW$67, DW_AT_location[DW_OP_reg14]
    1913              ;* AL    assigned to _branch
    1914              DW$68   .dwtag  DW_TAG_formal_parameter, DW_AT_name("branch"), DW_AT_symbol_name("_branch")
    1915                      .dwattr DW$68, DW_AT_type(*DW$T$6)
    1916                      .dwattr DW$68, DW_AT_location[DW_OP_reg0]
    1917              DW$69   .dwtag  DW_TAG_formal_parameter, DW_AT_name("pcomp"), DW_AT_symbol_name("_pcomp")
    1918                      .dwattr DW$69, DW_AT_type(*DW$T$38)
    1919                      .dwattr DW$69, DW_AT_location[DW_OP_breg20 -10]
    1920              DW$70   .dwtag  DW_TAG_variable, DW_AT_name("x"), DW_AT_symbol_name("_x")
    1921                      .dwattr DW$70, DW_AT_type(*DW$T$46)
    1922                      .dwattr DW$70, DW_AT_location[DW_OP_breg20 -2]
    1923              DW$71   .dwtag  DW_TAG_variable, DW_AT_name("y"), DW_AT_symbol_name("_y")
    1924                      .dwattr DW$71, DW_AT_type(*DW$T$46)
    1925                      .dwattr DW$71, DW_AT_location[DW_OP_breg20 -4]
    1926              DW$72   .dwtag  DW_TAG_variable, DW_AT_name("branch"), DW_AT_symbol_name("_branch")
    1927                      .dwattr DW$72, DW_AT_type(*DW$T$6)
    1928                      .dwattr DW$72, DW_AT_location[DW_OP_breg20 -5]
    1929 000001da 9645          MOV       *-SP[5],AL            ; |237| 
TMS320C2000 COFF Assembler PC v4.1.3 Thu Sep 15 15:05:03 2011

Tools Copyright (c) 1996-2006 Texas Instruments Incorporated
C:\DOCUME~1\ADMINI~1\LOCALS~1\Temp\TI3002                            PAGE   37

    1930 000001db A044          MOVL      *-SP[4],XAR5          ; |237| 
    1931 000001dc A842          MOVL      *-SP[2],XAR4          ; |237| 
    1932                      .dwpsn  "app_WIRmod_componentlib.c",238,2
    1933 000001dd 8A4A          MOVL      XAR4,*-SP[10]         ; |238| 
    1934 000001de 92C4          MOV       AL,*+XAR4[0]          ; |238| 
    1935 000001df 5201          CMPB      AL,#1                 ; |238| 
    1936 000001e0 ED4B          BF        L30,NEQ               ; |238| 
    1937                      ; branchcc occurs ; |238| 
    1938                      .dwpsn  "app_WIRmod_componentlib.c",240,3
    1939 000001e1 9245          MOV       AL,*-SP[5]            ; |240| 
    1940 000001e2 5201          CMPB      AL,#1                 ; |240| 
    1941 000001e3 EC03          BF        L21,EQ                ; |240| 
    1942                      ; branchcc occurs ; |240| 
    1943 000001e4 5204          CMPB      AL,#4                 ; |240| 
    1944 000001e5 ED07          BF        L22,NEQ               ; |240| 
    1945                      ; branchcc occurs ; |240| 
    1946              L21:    
    1947                      .dwpsn  "app_WIRmod_componentlib.c",241,4
    1948 000001e6 8A4A          MOVL      XAR4,*-SP[10]         ; |241| 
    1949 000001e7 92D4          MOV       AL,*+XAR4[2]          ; |241| 
    1950 000001e8 8A42          MOVL      XAR4,*-SP[2]          ; |241| 
    1951 000001e9 9C02          ADDB      AL,#2                 ; |241| 
    1952 000001ea 96C4          MOV       *+XAR4[0],AL          ; |241| 
    1953 000001eb 6F21          B         L26,UNC               ; |241| 
    1954                      ; branch occurs ; |241| 
    1955              L22:    
    1956                      .dwpsn  "app_WIRmod_componentlib.c",242,8
    1957 000001ec 5202          CMPB      AL,#2                 ; |242| 
    1958 000001ed EC03          BF        L23,EQ                ; |242| 
    1959                      ; branchcc occurs ; |242| 
    1960 000001ee 5205          CMPB      AL,#5                 ; |242| 
    1961 000001ef ED0F          BF        L24,NEQ               ; |242| 
    1962                      ; branchcc occurs ; |242| 
    1963              L23:    
    1964                      .dwpsn  "app_WIRmod_componentlib.c",243,4
    1965 000001f0 761F-         MOVW      DP,#_m_ELELIB+2
         000001f1 0000 
    1966 000001f2 8A02-         MOVL      XAR4,@_m_ELELIB+2     ; |243| 
    1967 000001f3 93C4          MOV       AH,*+XAR4[0]          ; |243| 
    1968 000001f4 92A8          MOV       AL,AH                 ; |243| 
    1969 000001f5 8A4A          MOVL      XAR4,*-SP[10]         ; |243| 
    1970 000001f6 FFCE          LSR       AL,15                 ; |243| 
    1971 000001f7 94A8          ADD       AL,AH                 ; |243| 
    1972 000001f8 FFA0          ASR       AL,1                  ; |243| 
    1973 000001f9 94D4          ADD       AL,*+XAR4[2]          ; |243| 
    1974 000001fa 8A42          MOVL      XAR4,*-SP[2]          ; |243| 
    1975 000001fb 9C01          ADDB      AL,#1                 ; |243| 
    1976 000001fc 96C4          MOV       *+XAR4[0],AL          ; |243| 
    1977 000001fd 6F0F          B         L26,UNC               ; |243| 
    1978                      ; branch occurs ; |243| 
    1979              L24:    
    1980                      .dwpsn  "app_WIRmod_componentlib.c",244,8
    1981 000001fe 5203          CMPB      AL,#3                 ; |244| 
    1982 000001ff EC03          BF        L25,EQ                ; |244| 
    1983                      ; branchcc occurs ; |244| 
TMS320C2000 COFF Assembler PC v4.1.3 Thu Sep 15 15:05:03 2011

Tools Copyright (c) 1996-2006 Texas Instruments Incorporated
C:\DOCUME~1\ADMINI~1\LOCALS~1\Temp\TI3002                            PAGE   38

    1984 00000200 5206          CMPB      AL,#6                 ; |244| 
    1985 00000201 ED0B          BF        L26,NEQ               ; |244| 
    1986                      ; branchcc occurs ; |244| 
    1987              L25:    
    1988                      .dwpsn  "app_WIRmod_componentlib.c",245,4
    1989 00000202 761F-         MOVW      DP,#_m_ELELIB+2
         00000203 0000 
    1990 00000204 8302-         MOVL      XAR5,@_m_ELELIB+2     ; |245| 
    1991 00000205 8A4A          MOVL      XAR4,*-SP[10]         ; |245| 
    1992 00000206 92C5          MOV       AL,*+XAR5[0]          ; |245| 
    1993 00000207 94D4          ADD       AL,*+XAR4[2]          ; |245| 
    1994 00000208 8A42          MOVL      XAR4,*-SP[2]          ; |245| 
    1995 00000209 08A9          ADD       AL,#65535             ; |245| 
         0000020a FFFF 
    1996 0000020b 96C4          MOV       *+XAR4[0],AL          ; |245| 
    1997              L26:    
    1998                      .dwpsn  "app_WIRmod_componentlib.c",246,3
    1999 0000020c 9245          MOV       AL,*-SP[5]            ; |246| 
    2000 0000020d 5201          CMPB      AL,#1                 ; |246| 
    2001 0000020e EC05          BF        L27,EQ                ; |246| 
    2002                      ; branchcc occurs ; |246| 
    2003 0000020f 5202          CMPB      AL,#2                 ; |246| 
    2004 00000210 EC03          BF        L27,EQ                ; |246| 
    2005                      ; branchcc occurs ; |246| 
    2006 00000211 5203          CMPB      AL,#3                 ; |246| 
    2007 00000212 ED08          BF        L28,NEQ               ; |246| 
    2008                      ; branchcc occurs ; |246| 
    2009              L27:    
    2010                      .dwpsn  "app_WIRmod_componentlib.c",247,4
    2011 00000213 8A4A          MOVL      XAR4,*-SP[10]         ; |247| 
    2012 00000214 92DC          MOV       AL,*+XAR4[3]          ; |247| 
    2013 00000215 9C01          ADDB      AL,#1                 ; |247| 
    2014 00000216 8A44          MOVL      XAR4,*-SP[4]          ; |247| 
    2015 00000217 96C4          MOV       *+XAR4[0],AL          ; |247| 
    2016 00000218 FFEF          B         L59,UNC               ; |247| 
         00000219 00EC 
    2017                      ; branch occurs ; |247| 
    2018              L28:    
    2019                      .dwpsn  "app_WIRmod_componentlib.c",248,8
    2020 0000021a 5204          CMPB      AL,#4                 ; |248| 
    2021 0000021b EC06          BF        L29,EQ                ; |248| 
    2022                      ; branchcc occurs ; |248| 
    2023 0000021c 5205          CMPB      AL,#5                 ; |248| 
    2024 0000021d EC04          BF        L29,EQ                ; |248| 
    2025                      ; branchcc occurs ; |248| 
    2026 0000021e 5206          CMPB      AL,#6                 ; |248| 
    2027 0000021f 56C0          BF        L59,NEQ               ; |248| 
         00000220 00E5 
    2028                      ; branchcc occurs ; |248| 
    2029              L29:    
    2030                      .dwpsn  "app_WIRmod_componentlib.c",249,4
    2031 00000221 761F-         MOVW      DP,#_m_ELELIB+2
         00000222 0000 
    2032 00000223 8302-         MOVL      XAR5,@_m_ELELIB+2     ; |249| 
    2033 00000224 8A4A          MOVL      XAR4,*-SP[10]         ; |249| 
TMS320C2000 COFF Assembler PC v4.1.3 Thu Sep 15 15:05:03 2011

Tools Copyright (c) 1996-2006 Texas Instruments Incorporated
C:\DOCUME~1\ADMINI~1\LOCALS~1\Temp\TI3002                            PAGE   39

    2034 00000225 92CD          MOV       AL,*+XAR5[1]          ; |249| 
    2035 00000226 94DC          ADD       AL,*+XAR4[3]          ; |249| 
    2036 00000227 8A44          MOVL      XAR4,*-SP[4]          ; |249| 
    2037 00000228 96C4          MOV       *+XAR4[0],AL          ; |249| 
    2038                      .dwpsn  "app_WIRmod_componentlib.c",250,2
    2039 00000229 FFEF          B         L59,UNC               ; |250| 
         0000022a 00DB 
    2040                      ; branch occurs ; |250| 
    2041              L30:    
    2042                      .dwpsn  "app_WIRmod_componentlib.c",251,7
    2043 0000022b 8A4A          MOVL      XAR4,*-SP[10]         ; |251| 
    2044 0000022c 92C4          MOV       AL,*+XAR4[0]          ; |251| 
    2045 0000022d ED69          BF        L47,NEQ               ; |251| 
    2046                      ; branchcc occurs ; |251| 
    2047                      .dwpsn  "app_WIRmod_componentlib.c",253,3
    2048 0000022e 9245          MOV       AL,*-SP[5]            ; |253| 
    2049 0000022f 5201          CMPB      AL,#1                 ; |253| 
    2050 00000230 EC03          BF        L31,EQ                ; |253| 
    2051                      ; branchcc occurs ; |253| 
    2052 00000231 5207          CMPB      AL,#7                 ; |253| 
    2053 00000232 ED07          BF        L32,NEQ               ; |253| 
    2054                      ; branchcc occurs ; |253| 
    2055              L31:    
    2056                      .dwpsn  "app_WIRmod_componentlib.c",254,4
    2057 00000233 8A4A          MOVL      XAR4,*-SP[10]         ; |254| 
    2058 00000234 92D4          MOV       AL,*+XAR4[2]          ; |254| 
    2059 00000235 8A42          MOVL      XAR4,*-SP[2]          ; |254| 
    2060 00000236 9C02          ADDB      AL,#2                 ; |254| 
    2061 00000237 96C4          MOV       *+XAR4[0],AL          ; |254| 
    2062 00000238 6F32          B         L42,UNC               ; |254| 
    2063                      ; branch occurs ; |254| 
    2064              L32:    
    2065                      .dwpsn  "app_WIRmod_componentlib.c",255,8
    2066 00000239 5202          CMPB      AL,#2                 ; |255| 
    2067 0000023a EC03          BF        L33,EQ                ; |255| 
    2068                      ; branchcc occurs ; |255| 
    2069 0000023b 5208          CMPB      AL,#8                 ; |255| 
    2070 0000023c ED07          BF        L34,NEQ               ; |255| 
    2071                      ; branchcc occurs ; |255| 
    2072              L33:    
    2073                      .dwpsn  "app_WIRmod_componentlib.c",256,4
    2074 0000023d 8A4A          MOVL      XAR4,*-SP[10]         ; |256| 
    2075 0000023e 92D4          MOV       AL,*+XAR4[2]          ; |256| 
    2076 0000023f 8A42          MOVL      XAR4,*-SP[2]          ; |256| 
    2077 00000240 9C15          ADDB      AL,#21                ; |256| 
    2078 00000241 96C4          MOV       *+XAR4[0],AL          ; |256| 
    2079 00000242 6F28          B         L42,UNC               ; |256| 
    2080                      ; branch occurs ; |256| 
    2081              L34:    
    2082                      .dwpsn  "app_WIRmod_componentlib.c",257,8
    2083 00000243 5203          CMPB      AL,#3                 ; |257| 
    2084 00000244 EC03          BF        L35,EQ                ; |257| 
    2085                      ; branchcc occurs ; |257| 
    2086 00000245 5209          CMPB      AL,#9                 ; |257| 
    2087 00000246 ED07          BF        L36,NEQ               ; |257| 
TMS320C2000 COFF Assembler PC v4.1.3 Thu Sep 15 15:05:03 2011

Tools Copyright (c) 1996-2006 Texas Instruments Incorporated
C:\DOCUME~1\ADMINI~1\LOCALS~1\Temp\TI3002                            PAGE   40

    2088                      ; branchcc occurs ; |257| 
    2089              L35:    
    2090                      .dwpsn  "app_WIRmod_componentlib.c",258,4
    2091 00000247 8A4A          MOVL      XAR4,*-SP[10]         ; |258| 
    2092 00000248 92D4          MOV       AL,*+XAR4[2]          ; |258| 
    2093 00000249 8A42          MOVL      XAR4,*-SP[2]          ; |258| 
    2094 0000024a 9C19          ADDB      AL,#25                ; |258| 
    2095 0000024b 96C4          MOV       *+XAR4[0],AL          ; |258| 
    2096 0000024c 6F1E          B         L42,UNC               ; |258| 
    2097                      ; branch occurs ; |258| 
    2098              L36:    
    2099                      .dwpsn  "app_WIRmod_componentlib.c",259,8
    2100 0000024d 5204          CMPB      AL,#4                 ; |259| 
    2101 0000024e EC03          BF        L37,EQ                ; |259| 
    2102                      ; branchcc occurs ; |259| 
    2103 0000024f 520A          CMPB      AL,#10                ; |259| 
    2104 00000250 ED07          BF        L38,NEQ               ; |259| 
    2105                      ; branchcc occurs ; |259| 
    2106              L37:    
    2107                      .dwpsn  "app_WIRmod_componentlib.c",260,4
    2108 00000251 8A4A          MOVL      XAR4,*-SP[10]         ; |260| 
    2109 00000252 92D4          MOV       AL,*+XAR4[2]          ; |260| 
    2110 00000253 8A42          MOVL      XAR4,*-SP[2]          ; |260| 
    2111 00000254 9C2B          ADDB      AL,#43                ; |260| 
    2112 00000255 96C4          MOV       *+XAR4[0],AL          ; |260| 
    2113 00000256 6F14          B         L42,UNC               ; |260| 
    2114                      ; branch occurs ; |260| 
    2115              L38:    
    2116                      .dwpsn  "app_WIRmod_componentlib.c",261,8
    2117 00000257 5205          CMPB      AL,#5                 ; |261| 
    2118 00000258 EC03          BF        L39,EQ                ; |261| 
    2119                      ; branchcc occurs ; |261| 
    2120 00000259 520B          CMPB      AL,#11                ; |261| 
    2121 0000025a ED07          BF        L40,NEQ               ; |261| 
    2122                      ; branchcc occurs ; |261| 
    2123              L39:    
    2124                      .dwpsn  "app_WIRmod_componentlib.c",262,4
    2125 0000025b 8A4A          MOVL      XAR4,*-SP[10]         ; |262| 
    2126 0000025c 92D4          MOV       AL,*+XAR4[2]          ; |262| 
    2127 0000025d 8A42          MOVL      XAR4,*-SP[2]          ; |262| 
    2128 0000025e 9C2F          ADDB      AL,#47                ; |262| 
    2129 0000025f 96C4          MOV       *+XAR4[0],AL          ; |262| 
    2130 00000260 6F0A          B         L42,UNC               ; |262| 
    2131                      ; branch occurs ; |262| 
    2132              L40:    
    2133                      .dwpsn  "app_WIRmod_componentlib.c",263,8
    2134 00000261 5206          CMPB      AL,#6                 ; |263| 
    2135 00000262 EC03          BF        L41,EQ                ; |263| 
    2136                      ; branchcc occurs ; |263| 
    2137 00000263 520C          CMPB      AL,#12                ; |263| 
    2138 00000264 ED06          BF        L42,NEQ               ; |263| 
    2139                      ; branchcc occurs ; |263| 
    2140              L41:    
    2141                      .dwpsn  "app_WIRmod_componentlib.c",264,4
    2142 00000265 8A4A          MOVL      XAR4,*-SP[10]         ; |264| 
TMS320C2000 COFF Assembler PC v4.1.3 Thu Sep 15 15:05:03 2011

Tools Copyright (c) 1996-2006 Texas Instruments Incorporated
C:\DOCUME~1\ADMINI~1\LOCALS~1\Temp\TI3002                            PAGE   41

    2143 00000266 92D4          MOV       AL,*+XAR4[2]          ; |264| 
    2144 00000267 8A42          MOVL      XAR4,*-SP[2]          ; |264| 
    2145 00000268 9C41          ADDB      AL,#65                ; |264| 
    2146 00000269 96C4          MOV       *+XAR4[0],AL          ; |264| 
    2147              L42:    
    2148                      .dwpsn  "app_WIRmod_componentlib.c",265,3
    2149 0000026a 9245          MOV       AL,*-SP[5]            ; |265| 
    2150 0000026b 5201          CMPB      AL,#1                 ; |265| 
    2151 0000026c EC0B          BF        L43,EQ                ; |265| 
    2152                      ; branchcc occurs ; |265| 
    2153 0000026d 5202          CMPB      AL,#2                 ; |265| 
    2154 0000026e EC09          BF        L43,EQ                ; |265| 
    2155                      ; branchcc occurs ; |265| 
    2156 0000026f 5203          CMPB      AL,#3                 ; |265| 
    2157 00000270 EC07          BF        L43,EQ                ; |265| 
    2158                      ; branchcc occurs ; |265| 
    2159 00000271 5204          CMPB      AL,#4                 ; |265| 
    2160 00000272 EC05          BF        L43,EQ                ; |265| 
    2161                      ; branchcc occurs ; |265| 
    2162 00000273 5205          CMPB      AL,#5                 ; |265| 
    2163 00000274 EC03          BF        L43,EQ                ; |265| 
    2164                      ; branchcc occurs ; |265| 
    2165 00000275 5206          CMPB      AL,#6                 ; |265| 
    2166 00000276 ED17          BF        L46,NEQ               ; |265| 
    2167                      ; branchcc occurs ; |265| 
    2168              L43:    
    2169                      .dwpsn  "app_WIRmod_componentlib.c",268,4
    2170 00000277 5201          CMPB      AL,#1                 ; |268| 
    2171 00000278 ED07          BF        L44,NEQ               ; |268| 
    2172                      ; branchcc occurs ; |268| 
    2173                      .dwpsn  "app_WIRmod_componentlib.c",269,5
    2174 00000279 8A4A          MOVL      XAR4,*-SP[10]         ; |269| 
    2175 0000027a 92DC          MOV       AL,*+XAR4[3]          ; |269| 
    2176 0000027b 8A44          MOVL      XAR4,*-SP[4]          ; |269| 
    2177 0000027c 96C4          MOV       *+XAR4[0],AL          ; |269| 
    2178 0000027d FFEF          B         L59,UNC               ; |269| 
         0000027e 0087 
    2179                      ; branch occurs ; |269| 
    2180              L44:    
    2181                      .dwpsn  "app_WIRmod_componentlib.c",270,9
    2182 0000027f 5203          CMPB      AL,#3                 ; |270| 
    2183 00000280 ED07          BF        L45,NEQ               ; |270| 
    2184                      ; branchcc occurs ; |270| 
    2185                      .dwpsn  "app_WIRmod_componentlib.c",271,5
    2186 00000281 8A4A          MOVL      XAR4,*-SP[10]         ; |271| 
    2187 00000282 92DC          MOV       AL,*+XAR4[3]          ; |271| 
    2188 00000283 9C04          ADDB      AL,#4                 ; |271| 
    2189 00000284 8A44          MOVL      XAR4,*-SP[4]          ; |271| 
    2190 00000285 96C4          MOV       *+XAR4[0],AL          ; |271| 
    2191 00000286 6F7E          B         L59,UNC               ; |271| 
    2192                      ; branch occurs ; |271| 
    2193              L45:    
    2194                      .dwpsn  "app_WIRmod_componentlib.c",273,5
    2195 00000287 8A4A          MOVL      XAR4,*-SP[10]         ; |273| 
    2196 00000288 92DC          MOV       AL,*+XAR4[3]          ; |273| 
TMS320C2000 COFF Assembler PC v4.1.3 Thu Sep 15 15:05:03 2011

Tools Copyright (c) 1996-2006 Texas Instruments Incorporated
C:\DOCUME~1\ADMINI~1\LOCALS~1\Temp\TI3002                            PAGE   42

    2197 00000289 9C08          ADDB      AL,#8                 ; |273| 
    2198 0000028a 8A44          MOVL      XAR4,*-SP[4]          ; |273| 
    2199 0000028b 96C4          MOV       *+XAR4[0],AL          ; |273| 
    2200                      .dwpsn  "app_WIRmod_componentlib.c",274,3
    2201 0000028c 6F78          B         L59,UNC               ; |274| 
    2202                      ; branch occurs ; |274| 
    2203              L46:    
    2204                      .dwpsn  "app_WIRmod_componentlib.c",275,8
    2205 0000028d 761F-         MOVW      DP,#_m_ELELIB
         0000028e 0000 
    2206 0000028f 8300-         MOVL      XAR5,@_m_ELELIB       ; |275| 
    2207 00000290 8A4A          MOVL      XAR4,*-SP[10]         ; |275| 
    2208 00000291 92CD          MOV       AL,*+XAR5[1]          ; |275| 
    2209 00000292 94DC          ADD       AL,*+XAR4[3]          ; |275| 
    2210 00000293 8A44          MOVL      XAR4,*-SP[4]          ; |275| 
    2211 00000294 96C4          MOV       *+XAR4[0],AL          ; |275| 
    2212                      .dwpsn  "app_WIRmod_componentlib.c",276,2
    2213 00000295 6F6F          B         L59,UNC               ; |276| 
    2214                      ; branch occurs ; |276| 
    2215              L47:    
    2216                      .dwpsn  "app_WIRmod_componentlib.c",277,7
    2217 00000296 8A4A          MOVL      XAR4,*-SP[10]         ; |277| 
    2218 00000297 92C4          MOV       AL,*+XAR4[0]          ; |277| 
    2219 00000298 5203          CMPB      AL,#3                 ; |277| 
    2220 00000299 ED1A          BF        L50,NEQ               ; |277| 
    2221                      ; branchcc occurs ; |277| 
    2222                      .dwpsn  "app_WIRmod_componentlib.c",279,3
    2223 0000029a 9245          MOV       AL,*-SP[5]            ; |279| 
    2224 0000029b 5201          CMPB      AL,#1                 ; |279| 
    2225 0000029c ED07          BF        L48,NEQ               ; |279| 
    2226                      ; branchcc occurs ; |279| 
    2227                      .dwpsn  "app_WIRmod_componentlib.c",279,22
    2228 0000029d 8A4A          MOVL      XAR4,*-SP[10]         ; |279| 
    2229 0000029e 92D4          MOV       AL,*+XAR4[2]          ; |279| 
    2230 0000029f 8A42          MOVL      XAR4,*-SP[2]          ; |279| 
    2231 000002a0 9C04          ADDB      AL,#4                 ; |279| 
    2232 000002a1 96C4          MOV       *+XAR4[0],AL          ; |279| 
    2233 000002a2 6F0B          B         L49,UNC               ; |279| 
    2234                      ; branch occurs ; |279| 
    2235              L48:    
    2236                      .dwpsn  "app_WIRmod_componentlib.c",280,8
    2237 000002a3 5202          CMPB      AL,#2                 ; |280| 
    2238 000002a4 ED09          BF        L49,NEQ               ; |280| 
    2239                      ; branchcc occurs ; |280| 
    2240                      .dwpsn  "app_WIRmod_componentlib.c",280,27
    2241 000002a5 761F-         MOVW      DP,#_m_ELELIB+6
         000002a6 0000 
    2242 000002a7 8306-         MOVL      XAR5,@_m_ELELIB+6     ; |280| 
    2243 000002a8 8A4A          MOVL      XAR4,*-SP[10]         ; |280| 
    2244 000002a9 92C5          MOV       AL,*+XAR5[0]          ; |280| 
    2245 000002aa 94D4          ADD       AL,*+XAR4[2]          ; |280| 
    2246 000002ab 8A42          MOVL      XAR4,*-SP[2]          ; |280| 
    2247 000002ac 96C4          MOV       *+XAR4[0],AL          ; |280| 
    2248              L49:    
    2249                      .dwpsn  "app_WIRmod_componentlib.c",281,3
TMS320C2000 COFF Assembler PC v4.1.3 Thu Sep 15 15:05:03 2011

Tools Copyright (c) 1996-2006 Texas Instruments Incorporated
C:\DOCUME~1\ADMINI~1\LOCALS~1\Temp\TI3002                            PAGE   43

    2250 000002ad 8A4A          MOVL      XAR4,*-SP[10]         ; |281| 
    2251 000002ae 92DC          MOV       AL,*+XAR4[3]          ; |281| 
    2252 000002af 9C01          ADDB      AL,#1                 ; |281| 
    2253 000002b0 8A44          MOVL      XAR4,*-SP[4]          ; |281| 
    2254 000002b1 96C4          MOV       *+XAR4[0],AL          ; |281| 
    2255                      .dwpsn  "app_WIRmod_componentlib.c",282,2
    2256 000002b2 6F52          B         L59,UNC               ; |282| 
    2257                      ; branch occurs ; |282| 
    2258              L50:    
    2259                      .dwpsn  "app_WIRmod_componentlib.c",283,7
    2260 000002b3 8A4A          MOVL      XAR4,*-SP[10]         ; |283| 
    2261 000002b4 92C4          MOV       AL,*+XAR4[0]          ; |283| 
    2262 000002b5 5202          CMPB      AL,#2                 ; |283| 
    2263 000002b6 ED3E          BF        L57,NEQ               ; |283| 
    2264                      ; branchcc occurs ; |283| 
    2265                      .dwpsn  "app_WIRmod_componentlib.c",285,3
    2266 000002b7 9245          MOV       AL,*-SP[5]            ; |285| 
    2267 000002b8 5201          CMPB      AL,#1                 ; |285| 
    2268 000002b9 EC03          BF        L51,EQ                ; |285| 
    2269                      ; branchcc occurs ; |285| 
    2270 000002ba 5203          CMPB      AL,#3                 ; |285| 
    2271 000002bb ED0E          BF        L52,NEQ               ; |285| 
    2272                      ; branchcc occurs ; |285| 
    2273              L51:    
    2274                      .dwpsn  "app_WIRmod_componentlib.c",285,36
    2275 000002bc 761F-         MOVW      DP,#_m_ELELIB+4
         000002bd 0000 
    2276 000002be 8A04-         MOVL      XAR4,@_m_ELELIB+4     ; |285| 
    2277 000002bf 93C4          MOV       AH,*+XAR4[0]          ; |285| 
    2278 000002c0 92A8          MOV       AL,AH                 ; |285| 
    2279 000002c1 8A4A          MOVL      XAR4,*-SP[10]         ; |285| 
    2280 000002c2 FFCE          LSR       AL,15                 ; |285| 
    2281 000002c3 94A8          ADD       AL,AH                 ; |285| 
    2282 000002c4 FFA0          ASR       AL,1                  ; |285| 
    2283 000002c5 94D4          ADD       AL,*+XAR4[2]          ; |285| 
    2284 000002c6 8A42          MOVL      XAR4,*-SP[2]          ; |285| 
    2285 000002c7 96C4          MOV       *+XAR4[0],AL          ; |285| 
    2286 000002c8 6F14          B         L54,UNC               ; |285| 
    2287                      ; branch occurs ; |285| 
    2288              L52:    
    2289                      .dwpsn  "app_WIRmod_componentlib.c",286,8
    2290 000002c9 5202          CMPB      AL,#2                 ; |286| 
    2291 000002ca ED07          BF        L53,NEQ               ; |286| 
    2292                      ; branchcc occurs ; |286| 
    2293                      .dwpsn  "app_WIRmod_componentlib.c",286,26
    2294 000002cb 8A4A          MOVL      XAR4,*-SP[10]         ; |286| 
    2295 000002cc 92D4          MOV       AL,*+XAR4[2]          ; |286| 
    2296 000002cd 8A42          MOVL      XAR4,*-SP[2]          ; |286| 
    2297 000002ce 9C02          ADDB      AL,#2                 ; |286| 
    2298 000002cf 96C4          MOV       *+XAR4[0],AL          ; |286| 
    2299 000002d0 6F0C          B         L54,UNC               ; |286| 
    2300                      ; branch occurs ; |286| 
    2301              L53:    
    2302                      .dwpsn  "app_WIRmod_componentlib.c",287,8
    2303 000002d1 5204          CMPB      AL,#4                 ; |287| 
TMS320C2000 COFF Assembler PC v4.1.3 Thu Sep 15 15:05:03 2011

Tools Copyright (c) 1996-2006 Texas Instruments Incorporated
C:\DOCUME~1\ADMINI~1\LOCALS~1\Temp\TI3002                            PAGE   44

    2304 000002d2 ED0A          BF        L54,NEQ               ; |287| 
    2305                      ; branchcc occurs ; |287| 
    2306                      .dwpsn  "app_WIRmod_componentlib.c",287,26
    2307 000002d3 761F-         MOVW      DP,#_m_ELELIB+4
         000002d4 0000 
    2308 000002d5 8304-         MOVL      XAR5,@_m_ELELIB+4     ; |287| 
    2309 000002d6 8A4A          MOVL      XAR4,*-SP[10]         ; |287| 
    2310 000002d7 92C5          MOV       AL,*+XAR5[0]          ; |287| 
    2311 000002d8 94D4          ADD       AL,*+XAR4[2]          ; |287| 
    2312 000002d9 8A42          MOVL      XAR4,*-SP[2]          ; |287| 
    2313 000002da 9CFE          ADDB      AL,#-2
    2314 000002db 96C4          MOV       *+XAR4[0],AL          ; |287| 
    2315              L54:    
    2316                      .dwpsn  "app_WIRmod_componentlib.c",288,3
    2317 000002dc 9245          MOV       AL,*-SP[5]            ; |288| 
    2318 000002dd 5201          CMPB      AL,#1                 ; |288| 
    2319 000002de ED06          BF        L55,NEQ               ; |288| 
    2320                      ; branchcc occurs ; |288| 
    2321                      .dwpsn  "app_WIRmod_componentlib.c",289,4
    2322 000002df 8A4A          MOVL      XAR4,*-SP[10]         ; |289| 
    2323 000002e0 92DC          MOV       AL,*+XAR4[3]          ; |289| 
    2324 000002e1 8A44          MOVL      XAR4,*-SP[4]          ; |289| 
    2325 000002e2 96C4          MOV       *+XAR4[0],AL          ; |289| 
    2326 000002e3 6F21          B         L59,UNC               ; |289| 
    2327                      ; branch occurs ; |289| 
    2328              L55:    
    2329                      .dwpsn  "app_WIRmod_componentlib.c",290,8
    2330 000002e4 5202          CMPB      AL,#2                 ; |290| 
    2331 000002e5 EC05          BF        L56,EQ                ; |290| 
    2332                      ; branchcc occurs ; |290| 
    2333 000002e6 5203          CMPB      AL,#3                 ; |290| 
    2334 000002e7 EC03          BF        L56,EQ                ; |290| 
    2335                      ; branchcc occurs ; |290| 
    2336 000002e8 5204          CMPB      AL,#4                 ; |290| 
    2337 000002e9 ED1B          BF        L59,NEQ               ; |290| 
    2338                      ; branchcc occurs ; |290| 
    2339              L56:    
    2340                      .dwpsn  "app_WIRmod_componentlib.c",291,4
    2341 000002ea 761F-         MOVW      DP,#_m_ELELIB+4
         000002eb 0000 
    2342 000002ec 8304-         MOVL      XAR5,@_m_ELELIB+4     ; |291| 
    2343 000002ed 8A4A          MOVL      XAR4,*-SP[10]         ; |291| 
    2344 000002ee 92CD          MOV       AL,*+XAR5[1]          ; |291| 
    2345 000002ef 94DC          ADD       AL,*+XAR4[3]          ; |291| 
    2346 000002f0 9CFF          ADDB      AL,#-1
    2347 000002f1 8A44          MOVL      XAR4,*-SP[4]          ; |291| 
    2348 000002f2 96C4          MOV       *+XAR4[0],AL          ; |291| 
    2349                      .dwpsn  "app_WIRmod_componentlib.c",292,2
    2350 000002f3 6F11          B         L59,UNC               ; |292| 
    2351                      ; branch occurs ; |292| 
    2352              L57:    
    2353                      .dwpsn  "app_WIRmod_componentlib.c",293,7
    2354 000002f4 8A4A          MOVL      XAR4,*-SP[10]         ; |293| 
    2355 000002f5 92C4          MOV       AL,*+XAR4[0]          ; |293| 
    2356 000002f6 5204          CMPB      AL,#4                 ; |293| 
TMS320C2000 COFF Assembler PC v4.1.3 Thu Sep 15 15:05:03 2011

Tools Copyright (c) 1996-2006 Texas Instruments Incorporated
C:\DOCUME~1\ADMINI~1\LOCALS~1\Temp\TI3002                            PAGE   45

    2357 000002f7 EC05          BF        L58,EQ                ; |293| 
    2358                      ; branchcc occurs ; |293| 
    2359 000002f8 8A4A          MOVL      XAR4,*-SP[10]         ; |293| 
    2360 000002f9 92C4          MOV       AL,*+XAR4[0]          ; |293| 
    2361 000002fa 5205          CMPB      AL,#5                 ; |293| 
    2362 000002fb ED09          BF        L59,NEQ               ; |293| 
    2363                      ; branchcc occurs ; |293| 
    2364              L58:    
    2365                      .dwpsn  "app_WIRmod_componentlib.c",295,3
    2366 000002fc 8A4A          MOVL      XAR4,*-SP[10]         ; |295| 
    2367 000002fd 92D4          MOV       AL,*+XAR4[2]          ; |295| 
    2368 000002fe 8A42          MOVL      XAR4,*-SP[2]          ; |295| 
    2369 000002ff 96C4          MOV       *+XAR4[0],AL          ; |295| 
    2370                      .dwpsn  "app_WIRmod_componentlib.c",296,3
    2371 00000300 8A4A          MOVL      XAR4,*-SP[10]         ; |296| 
    2372 00000301 92DC          MOV       AL,*+XAR4[3]          ; |296| 
    2373 00000302 8A44          MOVL      XAR4,*-SP[4]          ; |296| 
    2374 00000303 96C4          MOV       *+XAR4[0],AL          ; |296| 
    2375                      .dwpsn  "app_WIRmod_componentlib.c",298,2
    2376              L59:    
    2377                      .dwpsn  "app_WIRmod_componentlib.c",299,1
    2378 00000304 FE86          SUBB      SP,#6
    2379                      .dwcfa  0x1d, -2
    2380 00000305 0006          LRETR
    2381                      ; return occurs
    2382                      .dwattr DW$65, DW_AT_end_file("app_WIRmod_componentlib.c")
    2383                      .dwattr DW$65, DW_AT_end_line(0x12b)
    2384                      .dwattr DW$65, DW_AT_end_column(0x01)
    2385                      .dwendentry
    2386                      .dwendtag DW$65
    2387              
    2388 00000306               .sect   ".text"
    2389                      .global _ELEcomponent_link
    2390              
    2391              DW$73   .dwtag  DW_TAG_subprogram, DW_AT_name("ELEcomponent_link"), DW_AT_symbol_name("_ELEcomponent_link")
    2392                      .dwattr DW$73, DW_AT_low_pc(_ELEcomponent_link)
    2393                      .dwattr DW$73, DW_AT_high_pc(0x00)
    2394                      .dwattr DW$73, DW_AT_begin_file("app_WIRmod_componentlib.c")
    2395                      .dwattr DW$73, DW_AT_begin_line(0x132)
    2396                      .dwattr DW$73, DW_AT_begin_column(0x06)
    2397                      .dwpsn  "app_WIRmod_componentlib.c",310,1
    2398              
    2399                      .dwfde DW$CIE
    2400              
    2401              ;***************************************************************
    2402              ;* FNAME: _ELEcomponent_link            FR SIZE:  14           *
    2403              ;*                                                             *
    2404              ;* FUNCTION ENVIRONMENT                                        *
    2405              ;*                                                             *
    2406              ;* FUNCTION PROPERTIES                                         *
    2407              ;*                            2 Parameter, 11 Auto,  0 SOE     *
    2408              ;***************************************************************
    2409              
    2410              _ELEcomponent_link:
    2411                      .dwcfa  0x1d, -2
TMS320C2000 COFF Assembler PC v4.1.3 Thu Sep 15 15:05:03 2011

Tools Copyright (c) 1996-2006 Texas Instruments Incorporated
C:\DOCUME~1\ADMINI~1\LOCALS~1\Temp\TI3002                            PAGE   46

    2412                      .dwcfa  0x1c, 26, 0
    2413                      .dwcfa  0x09, 40, 26
    2414 00000306 FE0E          ADDB      SP,#14
    2415                      .dwcfa  0x1d, -16
    2416              ;* AR4   assigned to _pcomp1
    2417              DW$74   .dwtag  DW_TAG_formal_parameter, DW_AT_name("pcomp1"), DW_AT_symbol_name("_pcomp1")
    2418                      .dwattr DW$74, DW_AT_type(*DW$T$38)
    2419                      .dwattr DW$74, DW_AT_location[DW_OP_reg12]
    2420              ;* AL    assigned to _branch1
    2421              DW$75   .dwtag  DW_TAG_formal_parameter, DW_AT_name("branch1"), DW_AT_symbol_name("_branch1")
    2422                      .dwattr DW$75, DW_AT_type(*DW$T$6)
    2423                      .dwattr DW$75, DW_AT_location[DW_OP_reg0]
    2424              ;* AR5   assigned to _pcomp2
    2425              DW$76   .dwtag  DW_TAG_formal_parameter, DW_AT_name("pcomp2"), DW_AT_symbol_name("_pcomp2")
    2426                      .dwattr DW$76, DW_AT_type(*DW$T$38)
    2427                      .dwattr DW$76, DW_AT_location[DW_OP_reg14]
    2428              ;* AH    assigned to _branch2
    2429              DW$77   .dwtag  DW_TAG_formal_parameter, DW_AT_name("branch2"), DW_AT_symbol_name("_branch2")
    2430                      .dwattr DW$77, DW_AT_type(*DW$T$6)
    2431                      .dwattr DW$77, DW_AT_location[DW_OP_reg1]
    2432              DW$78   .dwtag  DW_TAG_variable, DW_AT_name("pcomp1"), DW_AT_symbol_name("_pcomp1")
    2433                      .dwattr DW$78, DW_AT_type(*DW$T$38)
    2434                      .dwattr DW$78, DW_AT_location[DW_OP_breg20 -4]
    2435              DW$79   .dwtag  DW_TAG_variable, DW_AT_name("branch1"), DW_AT_symbol_name("_branch1")
    2436                      .dwattr DW$79, DW_AT_type(*DW$T$6)
    2437                      .dwattr DW$79, DW_AT_location[DW_OP_breg20 -5]
    2438              DW$80   .dwtag  DW_TAG_variable, DW_AT_name("pcomp2"), DW_AT_symbol_name("_pcomp2")
    2439                      .dwattr DW$80, DW_AT_type(*DW$T$38)
    2440                      .dwattr DW$80, DW_AT_location[DW_OP_breg20 -8]
    2441              DW$81   .dwtag  DW_TAG_variable, DW_AT_name("branch2"), DW_AT_symbol_name("_branch2")
    2442                      .dwattr DW$81, DW_AT_type(*DW$T$6)
    2443                      .dwattr DW$81, DW_AT_location[DW_OP_breg20 -9]
    2444              DW$82   .dwtag  DW_TAG_variable, DW_AT_name("x1"), DW_AT_symbol_name("_x1")
    2445                      .dwattr DW$82, DW_AT_type(*DW$T$11)
    2446                      .dwattr DW$82, DW_AT_location[DW_OP_breg20 -10]
    2447              DW$83   .dwtag  DW_TAG_variable, DW_AT_name("y1"), DW_AT_symbol_name("_y1")
    2448                      .dwattr DW$83, DW_AT_type(*DW$T$11)
    2449                      .dwattr DW$83, DW_AT_location[DW_OP_breg20 -11]
    2450              DW$84   .dwtag  DW_TAG_variable, DW_AT_name("x2"), DW_AT_symbol_name("_x2")
    2451                      .dwattr DW$84, DW_AT_type(*DW$T$11)
    2452                      .dwattr DW$84, DW_AT_location[DW_OP_breg20 -12]
    2453              DW$85   .dwtag  DW_TAG_variable, DW_AT_name("y2"), DW_AT_symbol_name("_y2")
    2454                      .dwattr DW$85, DW_AT_type(*DW$T$11)
    2455                      .dwattr DW$85, DW_AT_location[DW_OP_breg20 -13]
    2456 00000307 9749          MOV       *-SP[9],AH            ; |310| 
    2457 00000308 A048          MOVL      *-SP[8],XAR5          ; |310| 
    2458 00000309 9645          MOV       *-SP[5],AL            ; |310| 
    2459 0000030a A844          MOVL      *-SP[4],XAR4          ; |310| 
    2460                      .dwpsn  "app_WIRmod_componentlib.c",312,2
    2461 0000030b 5DAD          MOVZ      AR5,SP                ; |312| 
    2462 0000030c 0644          MOVL      ACC,*-SP[4]           ; |312| 
    2463 0000030d 5CAD          MOVZ      AR4,SP                ; |312| 
    2464 0000030e 1E42          MOVL      *-SP[2],ACC           ; |312| 
    2465 0000030f DD8B          SUBB      XAR5,#11              ; |312| 
    2466 00000310 9245          MOV       AL,*-SP[5]            ; |312| 
TMS320C2000 COFF Assembler PC v4.1.3 Thu Sep 15 15:05:03 2011

Tools Copyright (c) 1996-2006 Texas Instruments Incorporated
C:\DOCUME~1\ADMINI~1\LOCALS~1\Temp\TI3002                            PAGE   47

    2467 00000311 DC8A          SUBB      XAR4,#10              ; |312| 
    2468 00000312 7640'         LCR       #_ELEcomponent_branch_obtain ; |312| 
         00000313 01D9 
    2469                      ; call occurs [#_ELEcomponent_branch_obtain] ; |312| 
    2470                      .dwpsn  "app_WIRmod_componentlib.c",313,2
    2471 00000314 0648          MOVL      ACC,*-SP[8]           ; |313| 
    2472 00000315 5DAD          MOVZ      AR5,SP                ; |313| 
    2473 00000316 5CAD          MOVZ      AR4,SP                ; |313| 
    2474 00000317 1E42          MOVL      *-SP[2],ACC           ; |313| 
    2475 00000318 9249          MOV       AL,*-SP[9]            ; |313| 
    2476 00000319 DD8D          SUBB      XAR5,#13              ; |313| 
    2477 0000031a DC8C          SUBB      XAR4,#12              ; |313| 
    2478 0000031b 7640'         LCR       #_ELEcomponent_branch_obtain ; |313| 
         0000031c 01D9 
    2479                      ; call occurs [#_ELEcomponent_branch_obtain] ; |313| 
    2480                      .dwpsn  "app_WIRmod_componentlib.c",314,2
    2481 0000031d 5C4C          MOVZ      AR4,*-SP[12]          ; |314| 
    2482 0000031e 5D4D          MOVZ      AR5,*-SP[13]          ; |314| 
    2483 0000031f 924A          MOV       AL,*-SP[10]           ; |314| 
    2484 00000320 934B          MOV       AH,*-SP[11]           ; |314| 
    2485 00000321 7640'         LCR       #_ELEcomponent_point_link ; |314| 
         00000322 0180 
    2486                      ; call occurs [#_ELEcomponent_point_link] ; |314| 
    2487                      .dwpsn  "app_WIRmod_componentlib.c",315,2
    2488                      .dwpsn  "app_WIRmod_componentlib.c",316,1
    2489 00000323 FE8E          SUBB      SP,#14
    2490                      .dwcfa  0x1d, -2
    2491 00000324 0006          LRETR
    2492                      ; return occurs
    2493                      .dwattr DW$73, DW_AT_end_file("app_WIRmod_componentlib.c")
    2494                      .dwattr DW$73, DW_AT_end_line(0x13c)
    2495                      .dwattr DW$73, DW_AT_end_column(0x01)
    2496                      .dwendentry
    2497                      .dwendtag DW$73
    2498              
    2499 00000325               .sect   ".text"
    2500                      .global _ELEcomponent_link_EXT
    2501              
    2502              DW$86   .dwtag  DW_TAG_subprogram, DW_AT_name("ELEcomponent_link_EXT"), DW_AT_symbol_name("_ELEcomponent_link
    2503                      .dwattr DW$86, DW_AT_low_pc(_ELEcomponent_link_EXT)
    2504                      .dwattr DW$86, DW_AT_high_pc(0x00)
    2505                      .dwattr DW$86, DW_AT_begin_file("app_WIRmod_componentlib.c")
    2506                      .dwattr DW$86, DW_AT_begin_line(0x13d)
    2507                      .dwattr DW$86, DW_AT_begin_column(0x06)
    2508                      .dwpsn  "app_WIRmod_componentlib.c",321,1
    2509              
    2510                      .dwfde DW$CIE
    2511              
    2512              ;***************************************************************
    2513              ;* FNAME: _ELEcomponent_link_EXT        FR SIZE:  14           *
    2514              ;*                                                             *
    2515              ;* FUNCTION ENVIRONMENT                                        *
    2516              ;*                                                             *
    2517              ;* FUNCTION PROPERTIES                                         *
    2518              ;*                            2 Parameter, 12 Auto,  0 SOE     *
TMS320C2000 COFF Assembler PC v4.1.3 Thu Sep 15 15:05:03 2011

Tools Copyright (c) 1996-2006 Texas Instruments Incorporated
C:\DOCUME~1\ADMINI~1\LOCALS~1\Temp\TI3002                            PAGE   48

    2519              ;***************************************************************
    2520              
    2521              _ELEcomponent_link_EXT:
    2522                      .dwcfa  0x1d, -2
    2523                      .dwcfa  0x1c, 26, 0
    2524                      .dwcfa  0x09, 40, 26
    2525 00000325 FE0E          ADDB      SP,#14
    2526                      .dwcfa  0x1d, -16
    2527              ;* AR4   assigned to _pcomp1
    2528              DW$87   .dwtag  DW_TAG_formal_parameter, DW_AT_name("pcomp1"), DW_AT_symbol_name("_pcomp1")
    2529                      .dwattr DW$87, DW_AT_type(*DW$T$38)
    2530                      .dwattr DW$87, DW_AT_location[DW_OP_reg12]
    2531              ;* AL    assigned to _branch1
    2532              DW$88   .dwtag  DW_TAG_formal_parameter, DW_AT_name("branch1"), DW_AT_symbol_name("_branch1")
    2533                      .dwattr DW$88, DW_AT_type(*DW$T$6)
    2534                      .dwattr DW$88, DW_AT_location[DW_OP_reg0]
    2535              ;* AR5   assigned to _pcomp2
    2536              DW$89   .dwtag  DW_TAG_formal_parameter, DW_AT_name("pcomp2"), DW_AT_symbol_name("_pcomp2")
    2537                      .dwattr DW$89, DW_AT_type(*DW$T$38)
    2538                      .dwattr DW$89, DW_AT_location[DW_OP_reg14]
    2539              ;* AH    assigned to _branch2
    2540              DW$90   .dwtag  DW_TAG_formal_parameter, DW_AT_name("branch2"), DW_AT_symbol_name("_branch2")
    2541                      .dwattr DW$90, DW_AT_type(*DW$T$6)
    2542                      .dwattr DW$90, DW_AT_location[DW_OP_reg1]
    2543              DW$91   .dwtag  DW_TAG_variable, DW_AT_name("pcomp1"), DW_AT_symbol_name("_pcomp1")
    2544                      .dwattr DW$91, DW_AT_type(*DW$T$38)
    2545                      .dwattr DW$91, DW_AT_location[DW_OP_breg20 -4]
    2546              DW$92   .dwtag  DW_TAG_variable, DW_AT_name("branch1"), DW_AT_symbol_name("_branch1")
    2547                      .dwattr DW$92, DW_AT_type(*DW$T$6)
    2548                      .dwattr DW$92, DW_AT_location[DW_OP_breg20 -5]
    2549              DW$93   .dwtag  DW_TAG_variable, DW_AT_name("pcomp2"), DW_AT_symbol_name("_pcomp2")
    2550                      .dwattr DW$93, DW_AT_type(*DW$T$38)
    2551                      .dwattr DW$93, DW_AT_location[DW_OP_breg20 -8]
    2552              DW$94   .dwtag  DW_TAG_variable, DW_AT_name("branch2"), DW_AT_symbol_name("_branch2")
    2553                      .dwattr DW$94, DW_AT_type(*DW$T$6)
    2554                      .dwattr DW$94, DW_AT_location[DW_OP_breg20 -9]
    2555              DW$95   .dwtag  DW_TAG_variable, DW_AT_name("x1"), DW_AT_symbol_name("_x1")
    2556                      .dwattr DW$95, DW_AT_type(*DW$T$11)
    2557                      .dwattr DW$95, DW_AT_location[DW_OP_breg20 -10]
    2558              DW$96   .dwtag  DW_TAG_variable, DW_AT_name("y1"), DW_AT_symbol_name("_y1")
    2559                      .dwattr DW$96, DW_AT_type(*DW$T$11)
    2560                      .dwattr DW$96, DW_AT_location[DW_OP_breg20 -11]
    2561              DW$97   .dwtag  DW_TAG_variable, DW_AT_name("x2"), DW_AT_symbol_name("_x2")
    2562                      .dwattr DW$97, DW_AT_type(*DW$T$11)
    2563                      .dwattr DW$97, DW_AT_location[DW_OP_breg20 -12]
    2564              DW$98   .dwtag  DW_TAG_variable, DW_AT_name("y2"), DW_AT_symbol_name("_y2")
    2565                      .dwattr DW$98, DW_AT_type(*DW$T$11)
    2566                      .dwattr DW$98, DW_AT_location[DW_OP_breg20 -13]
    2567              DW$99   .dwtag  DW_TAG_variable, DW_AT_name("mid_y1"), DW_AT_symbol_name("_mid_y1")
    2568                      .dwattr DW$99, DW_AT_type(*DW$T$11)
    2569                      .dwattr DW$99, DW_AT_location[DW_OP_breg20 -14]
    2570 00000326 9749          MOV       *-SP[9],AH            ; |321| 
    2571 00000327 A048          MOVL      *-SP[8],XAR5          ; |321| 
    2572 00000328 9645          MOV       *-SP[5],AL            ; |321| 
    2573 00000329 A844          MOVL      *-SP[4],XAR4          ; |321| 
TMS320C2000 COFF Assembler PC v4.1.3 Thu Sep 15 15:05:03 2011

Tools Copyright (c) 1996-2006 Texas Instruments Incorporated
C:\DOCUME~1\ADMINI~1\LOCALS~1\Temp\TI3002                            PAGE   49

    2574                      .dwpsn  "app_WIRmod_componentlib.c",323,2
    2575 0000032a 5DAD          MOVZ      AR5,SP                ; |323| 
    2576 0000032b 0644          MOVL      ACC,*-SP[4]           ; |323| 
    2577 0000032c 5CAD          MOVZ      AR4,SP                ; |323| 
    2578 0000032d 1E42          MOVL      *-SP[2],ACC           ; |323| 
    2579 0000032e DD8B          SUBB      XAR5,#11              ; |323| 
    2580 0000032f 9245          MOV       AL,*-SP[5]            ; |323| 
    2581 00000330 DC8A          SUBB      XAR4,#10              ; |323| 
    2582 00000331 7640'         LCR       #_ELEcomponent_branch_obtain ; |323| 
         00000332 01D9 
    2583                      ; call occurs [#_ELEcomponent_branch_obtain] ; |323| 
    2584                      .dwpsn  "app_WIRmod_componentlib.c",324,2
    2585 00000333 0648          MOVL      ACC,*-SP[8]           ; |324| 
    2586 00000334 5DAD          MOVZ      AR5,SP                ; |324| 
    2587 00000335 5CAD          MOVZ      AR4,SP                ; |324| 
    2588 00000336 1E42          MOVL      *-SP[2],ACC           ; |324| 
    2589 00000337 9249          MOV       AL,*-SP[9]            ; |324| 
    2590 00000338 DD8D          SUBB      XAR5,#13              ; |324| 
    2591 00000339 DC8C          SUBB      XAR4,#12              ; |324| 
    2592 0000033a 7640'         LCR       #_ELEcomponent_branch_obtain ; |324| 
         0000033b 01D9 
    2593                      ; call occurs [#_ELEcomponent_branch_obtain] ; |324| 
    2594                      .dwpsn  "app_WIRmod_componentlib.c",325,2
    2595 0000033c 924D          MOV       AL,*-SP[13]           ; |325| 
    2596 0000033d 944B          ADD       AL,*-SP[11]           ; |325| 
    2597 0000033e FFC0          LSR       AL,1                  ; |325| 
    2598 0000033f 964E          MOV       *-SP[14],AL           ; |325| 
    2599                      .dwpsn  "app_WIRmod_componentlib.c",326,2
    2600 00000340 5C4A          MOVZ      AR4,*-SP[10]          ; |326| 
    2601 00000341 5D4E          MOVZ      AR5,*-SP[14]          ; |326| 
    2602 00000342 924A          MOV       AL,*-SP[10]           ; |326| 
    2603 00000343 934B          MOV       AH,*-SP[11]           ; |326| 
    2604 00000344 7640!         LCR       #_GUI_window_line_display ; |326| 
         00000345 0000 
    2605                      ; call occurs [#_GUI_window_line_display] ; |326| 
    2606                      .dwpsn  "app_WIRmod_componentlib.c",327,2
    2607 00000346 5C4C          MOVZ      AR4,*-SP[12]          ; |327| 
    2608 00000347 5D4E          MOVZ      AR5,*-SP[14]          ; |327| 
    2609 00000348 924A          MOV       AL,*-SP[10]           ; |327| 
    2610 00000349 934E          MOV       AH,*-SP[14]           ; |327| 
    2611 0000034a 7640!         LCR       #_GUI_window_line_display ; |327| 
         0000034b 0000 
    2612                      ; call occurs [#_GUI_window_line_display] ; |327| 
    2613                      .dwpsn  "app_WIRmod_componentlib.c",328,2
    2614 0000034c 5C4C          MOVZ      AR4,*-SP[12]          ; |328| 
    2615 0000034d 5D4D          MOVZ      AR5,*-SP[13]          ; |328| 
    2616 0000034e 924C          MOV       AL,*-SP[12]           ; |328| 
    2617 0000034f 934E          MOV       AH,*-SP[14]           ; |328| 
    2618 00000350 7640!         LCR       #_GUI_window_line_display ; |328| 
         00000351 0000 
    2619                      ; call occurs [#_GUI_window_line_display] ; |328| 
    2620                      .dwpsn  "app_WIRmod_componentlib.c",329,2
    2621                      .dwpsn  "app_WIRmod_componentlib.c",330,1
    2622 00000352 FE8E          SUBB      SP,#14
    2623                      .dwcfa  0x1d, -2
TMS320C2000 COFF Assembler PC v4.1.3 Thu Sep 15 15:05:03 2011

Tools Copyright (c) 1996-2006 Texas Instruments Incorporated
C:\DOCUME~1\ADMINI~1\LOCALS~1\Temp\TI3002                            PAGE   50

    2624 00000353 0006          LRETR
    2625                      ; return occurs
    2626                      .dwattr DW$86, DW_AT_end_file("app_WIRmod_componentlib.c")
    2627                      .dwattr DW$86, DW_AT_end_line(0x14a)
    2628                      .dwattr DW$86, DW_AT_end_column(0x01)
    2629                      .dwendentry
    2630                      .dwendtag DW$86
    2631              
    2632 00000354               .sect   ".text"
    2633                      .global _ELEcomponent_link_point
    2634              
    2635              DW$100  .dwtag  DW_TAG_subprogram, DW_AT_name("ELEcomponent_link_point"), DW_AT_symbol_name("_ELEcomponent_li
    2636                      .dwattr DW$100, DW_AT_low_pc(_ELEcomponent_link_point)
    2637                      .dwattr DW$100, DW_AT_high_pc(0x00)
    2638                      .dwattr DW$100, DW_AT_begin_file("app_WIRmod_componentlib.c")
    2639                      .dwattr DW$100, DW_AT_begin_line(0x151)
    2640                      .dwattr DW$100, DW_AT_begin_column(0x06)
    2641                      .dwpsn  "app_WIRmod_componentlib.c",339,1
    2642              
    2643                      .dwfde DW$CIE
    2644              
    2645              ;***************************************************************
    2646              ;* FNAME: _ELEcomponent_link_point      FR SIZE:   8           *
    2647              ;*                                                             *
    2648              ;* FUNCTION ENVIRONMENT                                        *
    2649              ;*                                                             *
    2650              ;* FUNCTION PROPERTIES                                         *
    2651              ;*                            2 Parameter,  6 Auto,  0 SOE     *
    2652              ;***************************************************************
    2653              
    2654              _ELEcomponent_link_point:
    2655                      .dwcfa  0x1d, -2
    2656                      .dwcfa  0x1c, 26, 0
    2657                      .dwcfa  0x09, 40, 26
    2658 00000354 FE08          ADDB      SP,#8
    2659                      .dwcfa  0x1d, -10
    2660              ;* AR4   assigned to _pcomp1
    2661              DW$101  .dwtag  DW_TAG_formal_parameter, DW_AT_name("pcomp1"), DW_AT_symbol_name("_pcomp1")
    2662                      .dwattr DW$101, DW_AT_type(*DW$T$38)
    2663                      .dwattr DW$101, DW_AT_location[DW_OP_reg12]
    2664              ;* AL    assigned to _branch1
    2665              DW$102  .dwtag  DW_TAG_formal_parameter, DW_AT_name("branch1"), DW_AT_symbol_name("_branch1")
    2666                      .dwattr DW$102, DW_AT_type(*DW$T$6)
    2667                      .dwattr DW$102, DW_AT_location[DW_OP_reg0]
    2668              ;* AH    assigned to _y
    2669              DW$103  .dwtag  DW_TAG_formal_parameter, DW_AT_name("y"), DW_AT_symbol_name("_y")
    2670                      .dwattr DW$103, DW_AT_type(*DW$T$11)
    2671                      .dwattr DW$103, DW_AT_location[DW_OP_reg1]
    2672              DW$104  .dwtag  DW_TAG_variable, DW_AT_name("pcomp1"), DW_AT_symbol_name("_pcomp1")
    2673                      .dwattr DW$104, DW_AT_type(*DW$T$38)
    2674                      .dwattr DW$104, DW_AT_location[DW_OP_breg20 -4]
    2675              DW$105  .dwtag  DW_TAG_variable, DW_AT_name("branch1"), DW_AT_symbol_name("_branch1")
    2676                      .dwattr DW$105, DW_AT_type(*DW$T$6)
    2677                      .dwattr DW$105, DW_AT_location[DW_OP_breg20 -5]
    2678              DW$106  .dwtag  DW_TAG_variable, DW_AT_name("y"), DW_AT_symbol_name("_y")
TMS320C2000 COFF Assembler PC v4.1.3 Thu Sep 15 15:05:03 2011

Tools Copyright (c) 1996-2006 Texas Instruments Incorporated
C:\DOCUME~1\ADMINI~1\LOCALS~1\Temp\TI3002                            PAGE   51

    2679                      .dwattr DW$106, DW_AT_type(*DW$T$11)
    2680                      .dwattr DW$106, DW_AT_location[DW_OP_breg20 -6]
    2681              DW$107  .dwtag  DW_TAG_variable, DW_AT_name("x1"), DW_AT_symbol_name("_x1")
    2682                      .dwattr DW$107, DW_AT_type(*DW$T$11)
    2683                      .dwattr DW$107, DW_AT_location[DW_OP_breg20 -7]
    2684              DW$108  .dwtag  DW_TAG_variable, DW_AT_name("y1"), DW_AT_symbol_name("_y1")
    2685                      .dwattr DW$108, DW_AT_type(*DW$T$11)
    2686                      .dwattr DW$108, DW_AT_location[DW_OP_breg20 -8]
    2687 00000355 9746          MOV       *-SP[6],AH            ; |339| 
    2688 00000356 9645          MOV       *-SP[5],AL            ; |339| 
    2689 00000357 A844          MOVL      *-SP[4],XAR4          ; |339| 
    2690                      .dwpsn  "app_WIRmod_componentlib.c",341,2
    2691 00000358 5DAD          MOVZ      AR5,SP                ; |341| 
    2692 00000359 5CAD          MOVZ      AR4,SP                ; |341| 
    2693 0000035a 0644          MOVL      ACC,*-SP[4]           ; |341| 
    2694 0000035b 1E42          MOVL      *-SP[2],ACC           ; |341| 
    2695 0000035c DD88          SUBB      XAR5,#8               ; |341| 
    2696 0000035d DC87          SUBB      XAR4,#7               ; |341| 
    2697 0000035e 9245          MOV       AL,*-SP[5]            ; |341| 
    2698 0000035f 7640'         LCR       #_ELEcomponent_branch_obtain ; |341| 
         00000360 01D9 
    2699                      ; call occurs [#_ELEcomponent_branch_obtain] ; |341| 
    2700                      .dwpsn  "app_WIRmod_componentlib.c",342,2
    2701 00000361 5C47          MOVZ      AR4,*-SP[7]           ; |342| 
    2702 00000362 5D46          MOVZ      AR5,*-SP[6]           ; |342| 
    2703 00000363 9247          MOV       AL,*-SP[7]            ; |342| 
    2704 00000364 9348          MOV       AH,*-SP[8]            ; |342| 
    2705 00000365 7640'         LCR       #_ELEcomponent_point_link ; |342| 
         00000366 0180 
    2706                      ; call occurs [#_ELEcomponent_point_link] ; |342| 
    2707                      .dwpsn  "app_WIRmod_componentlib.c",343,2
    2708                      .dwpsn  "app_WIRmod_componentlib.c",344,1
    2709 00000367 FE88          SUBB      SP,#8
    2710                      .dwcfa  0x1d, -2
    2711 00000368 0006          LRETR
    2712                      ; return occurs
    2713                      .dwattr DW$100, DW_AT_end_file("app_WIRmod_componentlib.c")
    2714                      .dwattr DW$100, DW_AT_end_line(0x158)
    2715                      .dwattr DW$100, DW_AT_end_column(0x01)
    2716                      .dwendentry
    2717                      .dwendtag DW$100
    2718              
    2719 00000369               .sect   ".text"
    2720                      .global _ELEcomponent_creat
    2721              
    2722              DW$109  .dwtag  DW_TAG_subprogram, DW_AT_name("ELEcomponent_creat"), DW_AT_symbol_name("_ELEcomponent_creat")
    2723                      .dwattr DW$109, DW_AT_low_pc(_ELEcomponent_creat)
    2724                      .dwattr DW$109, DW_AT_high_pc(0x00)
    2725                      .dwattr DW$109, DW_AT_begin_file("app_WIRmod_componentlib.c")
    2726                      .dwattr DW$109, DW_AT_begin_line(0x160)
    2727                      .dwattr DW$109, DW_AT_begin_column(0x01)
    2728                      .dwpsn  "app_WIRmod_componentlib.c",353,1
    2729              
    2730                      .dwfde DW$CIE
    2731              
TMS320C2000 COFF Assembler PC v4.1.3 Thu Sep 15 15:05:03 2011

Tools Copyright (c) 1996-2006 Texas Instruments Incorporated
C:\DOCUME~1\ADMINI~1\LOCALS~1\Temp\TI3002                            PAGE   52

    2732              ;***************************************************************
    2733              ;* FNAME: _ELEcomponent_creat           FR SIZE:   6           *
    2734              ;*                                                             *
    2735              ;* FUNCTION ENVIRONMENT                                        *
    2736              ;*                                                             *
    2737              ;* FUNCTION PROPERTIES                                         *
    2738              ;*                            0 Parameter,  5 Auto,  0 SOE     *
    2739              ;***************************************************************
    2740              
    2741              _ELEcomponent_creat:
    2742                      .dwcfa  0x1d, -2
    2743                      .dwcfa  0x1c, 26, 0
    2744                      .dwcfa  0x09, 40, 26
    2745 00000369 FE06          ADDB      SP,#6
    2746                      .dwcfa  0x1d, -8
    2747              ;* AL    assigned to _x
    2748              DW$110  .dwtag  DW_TAG_formal_parameter, DW_AT_name("x"), DW_AT_symbol_name("_x")
    2749                      .dwattr DW$110, DW_AT_type(*DW$T$11)
    2750                      .dwattr DW$110, DW_AT_location[DW_OP_reg0]
    2751              ;* AH    assigned to _y
    2752              DW$111  .dwtag  DW_TAG_formal_parameter, DW_AT_name("y"), DW_AT_symbol_name("_y")
    2753                      .dwattr DW$111, DW_AT_type(*DW$T$11)
    2754                      .dwattr DW$111, DW_AT_location[DW_OP_reg1]
    2755              ;* AR4   assigned to _type
    2756              DW$112  .dwtag  DW_TAG_formal_parameter, DW_AT_name("type"), DW_AT_symbol_name("_type")
    2757                      .dwattr DW$112, DW_AT_type(*DW$T$6)
    2758                      .dwattr DW$112, DW_AT_location[DW_OP_reg12]
    2759              ;* AR5   assigned to _exp
    2760              DW$113  .dwtag  DW_TAG_formal_parameter, DW_AT_name("exp"), DW_AT_symbol_name("_exp")
    2761                      .dwattr DW$113, DW_AT_type(*DW$T$11)
    2762                      .dwattr DW$113, DW_AT_location[DW_OP_reg14]
    2763              DW$114  .dwtag  DW_TAG_variable, DW_AT_name("x"), DW_AT_symbol_name("_x")
    2764                      .dwattr DW$114, DW_AT_type(*DW$T$11)
    2765                      .dwattr DW$114, DW_AT_location[DW_OP_breg20 -1]
    2766              DW$115  .dwtag  DW_TAG_variable, DW_AT_name("y"), DW_AT_symbol_name("_y")
    2767                      .dwattr DW$115, DW_AT_type(*DW$T$11)
    2768                      .dwattr DW$115, DW_AT_location[DW_OP_breg20 -2]
    2769              DW$116  .dwtag  DW_TAG_variable, DW_AT_name("type"), DW_AT_symbol_name("_type")
    2770                      .dwattr DW$116, DW_AT_type(*DW$T$6)
    2771                      .dwattr DW$116, DW_AT_location[DW_OP_breg20 -3]
    2772              DW$117  .dwtag  DW_TAG_variable, DW_AT_name("exp"), DW_AT_symbol_name("_exp")
    2773                      .dwattr DW$117, DW_AT_type(*DW$T$11)
    2774                      .dwattr DW$117, DW_AT_location[DW_OP_breg20 -4]
    2775              DW$118  .dwtag  DW_TAG_variable, DW_AT_name("index"), DW_AT_symbol_name("_index")
    2776                      .dwattr DW$118, DW_AT_type(*DW$T$20)
    2777                      .dwattr DW$118, DW_AT_location[DW_OP_breg20 -5]
    2778 0000036a 7D44          MOV       *-SP[4],AR5           ; |353| 
    2779 0000036b 7C43          MOV       *-SP[3],AR4           ; |353| 
    2780 0000036c 9742          MOV       *-SP[2],AH            ; |353| 
    2781 0000036d 9641          MOV       *-SP[1],AL            ; |353| 
    2782                      .dwpsn  "app_WIRmod_componentlib.c",355,8
    2783 0000036e 2B45          MOV       *-SP[5],#0            ; |355| 
    2784                      .dwpsn  "app_WIRmod_componentlib.c",355,18
    2785 0000036f 9245          MOV       AL,*-SP[5]            ; |355| 
    2786 00000370 5214          CMPB      AL,#20                ; |355| 
TMS320C2000 COFF Assembler PC v4.1.3 Thu Sep 15 15:05:03 2011

Tools Copyright (c) 1996-2006 Texas Instruments Incorporated
C:\DOCUME~1\ADMINI~1\LOCALS~1\Temp\TI3002                            PAGE   53

    2787 00000371 673D          B         L62,HIS               ; |355| 
    2788                      ; branchcc occurs ; |355| 
    2789              L60:    
    2790              DW$L$_ELEcomponent_creat$2$B:
    2791                      .dwpsn  "app_WIRmod_componentlib.c",357,3
    2792 00000372 0E45          MOVU      ACC,*-SP[5]
    2793 00000373 8F00-         MOVL      XAR4,#_m_ELEmem       ; |357| 
         00000374 0040 
    2794 00000375 FF31          LSL       ACC,2                 ; |357| 
    2795 00000376 5601          ADDL      XAR4,ACC
         00000377 00A4 
    2796 00000378 92C4          MOV       AL,*+XAR4[0]          ; |357| 
    2797 00000379 52FF          CMPB      AL,#255               ; |357| 
    2798 0000037a ED30          BF        L61,NEQ               ; |357| 
    2799                      ; branchcc occurs ; |357| 
    2800              DW$L$_ELEcomponent_creat$2$E:
    2801                      .dwpsn  "app_WIRmod_componentlib.c",359,4
    2802 0000037b 0E45          MOVU      ACC,*-SP[5]
    2803 0000037c 8F00-         MOVL      XAR4,#_m_ELEmem       ; |359| 
         0000037d 0040 
    2804 0000037e FF31          LSL       ACC,2                 ; |359| 
    2805 0000037f 5601          ADDL      XAR4,ACC
         00000380 00A4 
    2806 00000381 9243          MOV       AL,*-SP[3]            ; |359| 
    2807 00000382 96C4          MOV       *+XAR4[0],AL          ; |359| 
    2808                      .dwpsn  "app_WIRmod_componentlib.c",360,4
    2809 00000383 0E45          MOVU      ACC,*-SP[5]
    2810 00000384 FF31          LSL       ACC,2                 ; |360| 
    2811 00000385 8F00-         MOVL      XAR4,#_m_ELEmem+2     ; |360| 
         00000386 0042 
    2812 00000387 5601          ADDL      XAR4,ACC
         00000388 00A4 
    2813 00000389 9241          MOV       AL,*-SP[1]            ; |360| 
    2814 0000038a 96C4          MOV       *+XAR4[0],AL          ; |360| 
    2815                      .dwpsn  "app_WIRmod_componentlib.c",361,4
    2816 0000038b 0E45          MOVU      ACC,*-SP[5]
    2817 0000038c 8F00-         MOVL      XAR4,#_m_ELEmem+3     ; |361| 
         0000038d 0043 
    2818 0000038e FF31          LSL       ACC,2                 ; |361| 
    2819 0000038f 5601          ADDL      XAR4,ACC
         00000390 00A4 
    2820 00000391 9242          MOV       AL,*-SP[2]            ; |361| 
    2821 00000392 96C4          MOV       *+XAR4[0],AL          ; |361| 
    2822                      .dwpsn  "app_WIRmod_componentlib.c",362,4
    2823 00000393 0E45          MOVU      ACC,*-SP[5]
    2824 00000394 8F00-         MOVL      XAR4,#_m_ELEmem+1     ; |362| 
         00000395 0041 
    2825 00000396 FF31          LSL       ACC,2                 ; |362| 
    2826 00000397 5601          ADDL      XAR4,ACC
         00000398 00A4 
    2827 00000399 9244          MOV       AL,*-SP[4]            ; |362| 
    2828 0000039a 96C4          MOV       *+XAR4[0],AL          ; |362| 
    2829                      .dwpsn  "app_WIRmod_componentlib.c",363,4
    2830 0000039b 0E45          MOVU      ACC,*-SP[5]
    2831 0000039c 8F00-         MOVL      XAR4,#_m_ELEmem       ; |363| 
TMS320C2000 COFF Assembler PC v4.1.3 Thu Sep 15 15:05:03 2011

Tools Copyright (c) 1996-2006 Texas Instruments Incorporated
C:\DOCUME~1\ADMINI~1\LOCALS~1\Temp\TI3002                            PAGE   54

         0000039d 0040 
    2832 0000039e FF31          LSL       ACC,2                 ; |363| 
    2833 0000039f 5601          ADDL      XAR4,ACC
         000003a0 00A4 
    2834 000003a1 7640'         LCR       #_ELEcomponent_display ; |363| 
         000003a2 00FF 
    2835                      ; call occurs [#_ELEcomponent_display] ; |363| 
    2836                      .dwpsn  "app_WIRmod_componentlib.c",364,4
    2837 000003a3 0E45          MOVU      ACC,*-SP[5]
    2838 000003a4 FF31          LSL       ACC,2                 ; |364| 
    2839 000003a5 8F00-         MOVL      XAR4,#_m_ELEmem       ; |364| 
         000003a6 0040 
    2840 000003a7 5601          ADDL      XAR4,ACC
         000003a8 00A4 
    2841 000003a9 6F06          B         L63,UNC               ; |364| 
    2842                      ; branch occurs ; |364| 
    2843              L61:    
    2844              DW$L$_ELEcomponent_creat$4$B:
    2845                      .dwpsn  "app_WIRmod_componentlib.c",355,44
    2846 000003aa 0A45          INC       *-SP[5]               ; |355| 
    2847                      .dwpsn  "app_WIRmod_componentlib.c",355,18
    2848 000003ab 9245          MOV       AL,*-SP[5]            ; |355| 
    2849 000003ac 5214          CMPB      AL,#20                ; |355| 
    2850 000003ad 68C5          B         L60,LO                ; |355| 
    2851                      ; branchcc occurs ; |355| 
    2852              DW$L$_ELEcomponent_creat$4$E:
    2853              L62:    
    2854                      .dwpsn  "app_WIRmod_componentlib.c",367,2
    2855 000003ae D400          MOVB      XAR4,#0
    2856              L63:    
    2857                      .dwpsn  "app_WIRmod_componentlib.c",368,1
    2858 000003af FE86          SUBB      SP,#6                 ; |367| 
    2859                      .dwcfa  0x1d, -2
    2860 000003b0 0006          LRETR
    2861                      ; return occurs
    2862              
    2863              DW$119  .dwtag  DW_TAG_loop
    2864                      .dwattr DW$119, DW_AT_name("C:\DOCUME~1\ADMINI~1\LOCALS~1\Temp\TI3002:L60:1:1316070303")
    2865                      .dwattr DW$119, DW_AT_begin_file("app_WIRmod_componentlib.c")
    2866                      .dwattr DW$119, DW_AT_begin_line(0x163)
    2867                      .dwattr DW$119, DW_AT_end_line(0x16e)
    2868              DW$120  .dwtag  DW_TAG_loop_range
    2869                      .dwattr DW$120, DW_AT_low_pc(DW$L$_ELEcomponent_creat$2$B)
    2870                      .dwattr DW$120, DW_AT_high_pc(DW$L$_ELEcomponent_creat$2$E)
    2871              DW$121  .dwtag  DW_TAG_loop_range
    2872                      .dwattr DW$121, DW_AT_low_pc(DW$L$_ELEcomponent_creat$4$B)
    2873                      .dwattr DW$121, DW_AT_high_pc(DW$L$_ELEcomponent_creat$4$E)
    2874                      .dwendtag DW$119
    2875              
    2876                      .dwattr DW$109, DW_AT_end_file("app_WIRmod_componentlib.c")
    2877                      .dwattr DW$109, DW_AT_end_line(0x170)
    2878                      .dwattr DW$109, DW_AT_end_column(0x01)
    2879                      .dwendentry
    2880                      .dwendtag DW$109
    2881              
TMS320C2000 COFF Assembler PC v4.1.3 Thu Sep 15 15:05:03 2011

Tools Copyright (c) 1996-2006 Texas Instruments Incorporated
C:\DOCUME~1\ADMINI~1\LOCALS~1\Temp\TI3002                            PAGE   55

    2882 000003b1               .sect   ".text"
    2883                      .global _ELEcomponent_destory
    2884              
    2885              DW$122  .dwtag  DW_TAG_subprogram, DW_AT_name("ELEcomponent_destory"), DW_AT_symbol_name("_ELEcomponent_desto
    2886                      .dwattr DW$122, DW_AT_low_pc(_ELEcomponent_destory)
    2887                      .dwattr DW$122, DW_AT_high_pc(0x00)
    2888                      .dwattr DW$122, DW_AT_begin_file("app_WIRmod_componentlib.c")
    2889                      .dwattr DW$122, DW_AT_begin_line(0x177)
    2890                      .dwattr DW$122, DW_AT_begin_column(0x06)
    2891                      .dwpsn  "app_WIRmod_componentlib.c",376,1
    2892              
    2893                      .dwfde DW$CIE
    2894              
    2895              ;***************************************************************
    2896              ;* FNAME: _ELEcomponent_destory         FR SIZE:   2           *
    2897              ;*                                                             *
    2898              ;* FUNCTION ENVIRONMENT                                        *
    2899              ;*                                                             *
    2900              ;* FUNCTION PROPERTIES                                         *
    2901              ;*                            0 Parameter,  2 Auto,  0 SOE     *
    2902              ;***************************************************************
    2903              
    2904              _ELEcomponent_destory:
    2905                      .dwcfa  0x1d, -2
    2906                      .dwcfa  0x1c, 26, 0
    2907                      .dwcfa  0x09, 40, 26
    2908 000003b1 FE02          ADDB      SP,#2
    2909                      .dwcfa  0x1d, -4
    2910              ;* AR4   assigned to _pcomp
    2911              DW$123  .dwtag  DW_TAG_formal_parameter, DW_AT_name("pcomp"), DW_AT_symbol_name("_pcomp")
    2912                      .dwattr DW$123, DW_AT_type(*DW$T$38)
    2913                      .dwattr DW$123, DW_AT_location[DW_OP_reg12]
    2914              DW$124  .dwtag  DW_TAG_variable, DW_AT_name("pcomp"), DW_AT_symbol_name("_pcomp")
    2915                      .dwattr DW$124, DW_AT_type(*DW$T$38)
    2916                      .dwattr DW$124, DW_AT_location[DW_OP_breg20 -2]
    2917 000003b2 A842          MOVL      *-SP[2],XAR4          ; |376| 
    2918                      .dwpsn  "app_WIRmod_componentlib.c",377,2
    2919 000003b3 8A42          MOVL      XAR4,*-SP[2]          ; |377| 
    2920 000003b4 28C4          MOV       *+XAR4[0],#255        ; |377| 
         000003b5 00FF 
    2921                      .dwpsn  "app_WIRmod_componentlib.c",378,2
    2922 000003b6 8A42          MOVL      XAR4,*-SP[2]          ; |378| 
    2923 000003b7 2BD4          MOV       *+XAR4[2],#0          ; |378| 
    2924                      .dwpsn  "app_WIRmod_componentlib.c",379,2
    2925 000003b8 8A42          MOVL      XAR4,*-SP[2]          ; |379| 
    2926 000003b9 2BDC          MOV       *+XAR4[3],#0          ; |379| 
    2927                      .dwpsn  "app_WIRmod_componentlib.c",380,2
    2928                      .dwpsn  "app_WIRmod_componentlib.c",381,1
    2929 000003ba FE82          SUBB      SP,#2
    2930                      .dwcfa  0x1d, -2
    2931 000003bb 0006          LRETR
    2932                      ; return occurs
    2933                      .dwattr DW$122, DW_AT_end_file("app_WIRmod_componentlib.c")
    2934                      .dwattr DW$122, DW_AT_end_line(0x17d)
    2935                      .dwattr DW$122, DW_AT_end_column(0x01)
TMS320C2000 COFF Assembler PC v4.1.3 Thu Sep 15 15:05:03 2011

Tools Copyright (c) 1996-2006 Texas Instruments Incorporated
C:\DOCUME~1\ADMINI~1\LOCALS~1\Temp\TI3002                            PAGE   56

    2936                      .dwendentry
    2937                      .dwendtag DW$122
    2938              
    2939 000003bc               .sect   ".text"
    2940                      .global _ELEcomponent_destory_all
    2941              
    2942              DW$125  .dwtag  DW_TAG_subprogram, DW_AT_name("ELEcomponent_destory_all"), DW_AT_symbol_name("_ELEcomponent_d
    2943                      .dwattr DW$125, DW_AT_low_pc(_ELEcomponent_destory_all)
    2944                      .dwattr DW$125, DW_AT_high_pc(0x00)
    2945                      .dwattr DW$125, DW_AT_begin_file("app_WIRmod_componentlib.c")
    2946                      .dwattr DW$125, DW_AT_begin_line(0x184)
    2947                      .dwattr DW$125, DW_AT_begin_column(0x06)
    2948                      .dwpsn  "app_WIRmod_componentlib.c",389,1
    2949              
    2950                      .dwfde DW$CIE
    2951              
    2952              ;***************************************************************
    2953              ;* FNAME: _ELEcomponent_destory_all     FR SIZE:   0           *
    2954              ;*                                                             *
    2955              ;* FUNCTION ENVIRONMENT                                        *
    2956              ;*                                                             *
    2957              ;* FUNCTION PROPERTIES                                         *
    2958              ;*                            0 Parameter,  0 Auto,  0 SOE     *
    2959              ;***************************************************************
    2960              
    2961              _ELEcomponent_destory_all:
    2962                      .dwcfa  0x1d, -2
    2963                      .dwcfa  0x1c, 26, 0
    2964                      .dwcfa  0x09, 40, 26
    2965                      .dwpsn  "app_WIRmod_componentlib.c",390,2
    2966 000003bc 9AFF          MOVB      AL,#255               ; |390| 
    2967 000003bd 8F00-         MOVL      XAR4,#_m_ELEmem       ; |390| 
         000003be 0040 
    2968 000003bf 9B50          MOVB      AH,#80                ; |390| 
    2969 000003c0 7640!         LCR       #_global_memset       ; |390| 
         000003c1 0000 
    2970                      ; call occurs [#_global_memset] ; |390| 
    2971                      .dwpsn  "app_WIRmod_componentlib.c",394,2
    2972                      .dwpsn  "app_WIRmod_componentlib.c",395,1
    2973 000003c2 0006          LRETR
    2974                      ; return occurs
    2975                      .dwattr DW$125, DW_AT_end_file("app_WIRmod_componentlib.c")
    2976                      .dwattr DW$125, DW_AT_end_line(0x18b)
    2977                      .dwattr DW$125, DW_AT_end_column(0x01)
    2978                      .dwendentry
    2979                      .dwendtag DW$125
    2980              
    2981 000003c3               .sect   ".text"
    2982                      .global _ELEcomponent_maneger_init
    2983              
    2984              DW$126  .dwtag  DW_TAG_subprogram, DW_AT_name("ELEcomponent_maneger_init"), DW_AT_symbol_name("_ELEcomponent_
    2985                      .dwattr DW$126, DW_AT_low_pc(_ELEcomponent_maneger_init)
    2986                      .dwattr DW$126, DW_AT_high_pc(0x00)
    2987                      .dwattr DW$126, DW_AT_begin_file("app_WIRmod_componentlib.c")
    2988                      .dwattr DW$126, DW_AT_begin_line(0x192)
TMS320C2000 COFF Assembler PC v4.1.3 Thu Sep 15 15:05:03 2011

Tools Copyright (c) 1996-2006 Texas Instruments Incorporated
C:\DOCUME~1\ADMINI~1\LOCALS~1\Temp\TI3002                            PAGE   57

    2989                      .dwattr DW$126, DW_AT_begin_column(0x06)
    2990                      .dwpsn  "app_WIRmod_componentlib.c",403,1
    2991              
    2992                      .dwfde DW$CIE
    2993              
    2994              ;***************************************************************
    2995              ;* FNAME: _ELEcomponent_maneger_init    FR SIZE:   0           *
    2996              ;*                                                             *
    2997              ;* FUNCTION ENVIRONMENT                                        *
    2998              ;*                                                             *
    2999              ;* FUNCTION PROPERTIES                                         *
    3000              ;*                            0 Parameter,  0 Auto,  0 SOE     *
    3001              ;***************************************************************
    3002              
    3003              _ELEcomponent_maneger_init:
    3004                      .dwcfa  0x1d, -2
    3005                      .dwcfa  0x1c, 26, 0
    3006                      .dwcfa  0x09, 40, 26
    3007                      .dwpsn  "app_WIRmod_componentlib.c",404,2
    3008 000003c3 9AFF          MOVB      AL,#255               ; |404| 
    3009 000003c4 8F00-         MOVL      XAR4,#_m_ELEmem       ; |404| 
         000003c5 0040 
    3010 000003c6 9B50          MOVB      AH,#80                ; |404| 
    3011 000003c7 7640!         LCR       #_global_memset       ; |404| 
         000003c8 0000 
    3012                      ; call occurs [#_global_memset] ; |404| 
    3013                      .dwpsn  "app_WIRmod_componentlib.c",408,2
    3014                      .dwpsn  "app_WIRmod_componentlib.c",409,1
    3015 000003c9 0006          LRETR
    3016                      ; return occurs
    3017                      .dwattr DW$126, DW_AT_end_file("app_WIRmod_componentlib.c")
    3018                      .dwattr DW$126, DW_AT_end_line(0x199)
    3019                      .dwattr DW$126, DW_AT_end_column(0x01)
    3020                      .dwendentry
    3021                      .dwendtag DW$126
    3022              
    3023              ;***************************************************************
    3024              ;* FAR STRINGS                                                 *
    3025              ;***************************************************************
    3026 00000388               .sect   ".econst"
    3027                      .align  2
    3028 00000388 0043  FSL1:   .string "CT",0
         00000389 0054 
         0000038a 0000 
    3029                      .align  2
    3030 0000038c 0050  FSL2:   .string "PT",0
         0000038d 0054 
         0000038e 0000 
    3031                      .align  2
    3032 00000390 0041  FSL3:   .string "A",0
         00000391 0000 
    3033                      .align  2
    3034 00000392 0042  FSL4:   .string "B",0
         00000393 0000 
    3035                      .align  2
TMS320C2000 COFF Assembler PC v4.1.3 Thu Sep 15 15:05:03 2011

Tools Copyright (c) 1996-2006 Texas Instruments Incorporated
C:\DOCUME~1\ADMINI~1\LOCALS~1\Temp\TI3002                            PAGE   58

    3036 00000394 0043  FSL5:   .string "C",0
         00000395 0000 
    3037              ;***************************************************************
    3038              ;* UNDEFINED EXTERNAL REFERENCES                               *
    3039              ;***************************************************************
    3040                      .global _GUI_string_display_At
    3041                      .global _GUI_libASC_display_At
    3042                      .global _GUI_set_Fgcolor
    3043                      .global _GUI_window_line_display
    3044                      .global _global_memset
    3045                      .global _GUI_window_draw_dot
    3046              
    3047              ;***************************************************************
    3048              ;* TYPE INFORMATION                                            *
    3049              ;***************************************************************
    3050              DW$T$3  .dwtag  DW_TAG_pointer_type
    3051                      .dwattr DW$T$3, DW_AT_address_class(0x16)
    3052              
    3053              DW$T$21 .dwtag  DW_TAG_subroutine_type
    3054                      .dwattr DW$T$21, DW_AT_language(DW_LANG_C)
    3055              DW$127  .dwtag  DW_TAG_formal_parameter, DW_AT_type(*DW$T$3)
    3056              DW$128  .dwtag  DW_TAG_formal_parameter, DW_AT_type(*DW$T$6)
    3057              DW$129  .dwtag  DW_TAG_formal_parameter, DW_AT_type(*DW$T$20)
    3058                      .dwendtag DW$T$21
    3059              
    3060              
    3061              DW$T$23 .dwtag  DW_TAG_subroutine_type
    3062                      .dwattr DW$T$23, DW_AT_language(DW_LANG_C)
    3063              DW$130  .dwtag  DW_TAG_formal_parameter, DW_AT_type(*DW$T$11)
    3064                      .dwendtag DW$T$23
    3065              
    3066              
    3067              DW$T$25 .dwtag  DW_TAG_subroutine_type
    3068                      .dwattr DW$T$25, DW_AT_language(DW_LANG_C)
    3069              DW$131  .dwtag  DW_TAG_formal_parameter, DW_AT_type(*DW$T$11)
    3070              DW$132  .dwtag  DW_TAG_formal_parameter, DW_AT_type(*DW$T$11)
    3071              DW$133  .dwtag  DW_TAG_formal_parameter, DW_AT_type(*DW$T$11)
    3072              DW$134  .dwtag  DW_TAG_formal_parameter, DW_AT_type(*DW$T$11)
    3073                      .dwendtag DW$T$25
    3074              
    3075              
    3076              DW$T$29 .dwtag  DW_TAG_subroutine_type
    3077                      .dwattr DW$T$29, DW_AT_language(DW_LANG_C)
    3078              DW$135  .dwtag  DW_TAG_formal_parameter, DW_AT_type(*DW$T$11)
    3079              DW$136  .dwtag  DW_TAG_formal_parameter, DW_AT_type(*DW$T$11)
    3080              DW$137  .dwtag  DW_TAG_formal_parameter, DW_AT_type(*DW$T$28)
    3081                      .dwendtag DW$T$29
    3082              
    3083              
    3084              DW$T$31 .dwtag  DW_TAG_subroutine_type
    3085                      .dwattr DW$T$31, DW_AT_language(DW_LANG_C)
    3086              DW$138  .dwtag  DW_TAG_formal_parameter, DW_AT_type(*DW$T$10)
    3087              DW$139  .dwtag  DW_TAG_formal_parameter, DW_AT_type(*DW$T$10)
    3088              DW$140  .dwtag  DW_TAG_formal_parameter, DW_AT_type(*DW$T$11)
    3089              DW$141  .dwtag  DW_TAG_formal_parameter, DW_AT_type(*DW$T$11)
TMS320C2000 COFF Assembler PC v4.1.3 Thu Sep 15 15:05:03 2011

Tools Copyright (c) 1996-2006 Texas Instruments Incorporated
C:\DOCUME~1\ADMINI~1\LOCALS~1\Temp\TI3002                            PAGE   59

    3090              DW$142  .dwtag  DW_TAG_formal_parameter, DW_AT_type(*DW$T$28)
    3091                      .dwendtag DW$T$31
    3092              
    3093              
    3094              DW$T$33 .dwtag  DW_TAG_subroutine_type
    3095                      .dwattr DW$T$33, DW_AT_language(DW_LANG_C)
    3096              DW$143  .dwtag  DW_TAG_formal_parameter, DW_AT_type(*DW$T$11)
    3097              DW$144  .dwtag  DW_TAG_formal_parameter, DW_AT_type(*DW$T$11)
    3098                      .dwendtag DW$T$33
    3099              
    3100              
    3101              DW$T$35 .dwtag  DW_TAG_subroutine_type
    3102                      .dwattr DW$T$35, DW_AT_language(DW_LANG_C)
    3103              DW$145  .dwtag  DW_TAG_formal_parameter, DW_AT_type(*DW$T$11)
    3104              DW$146  .dwtag  DW_TAG_formal_parameter, DW_AT_type(*DW$T$11)
    3105              DW$147  .dwtag  DW_TAG_formal_parameter, DW_AT_type(*DW$T$6)
    3106                      .dwendtag DW$T$35
    3107              
    3108              
    3109              DW$T$39 .dwtag  DW_TAG_subroutine_type
    3110                      .dwattr DW$T$39, DW_AT_language(DW_LANG_C)
    3111              DW$148  .dwtag  DW_TAG_formal_parameter, DW_AT_type(*DW$T$38)
    3112                      .dwendtag DW$T$39
    3113              
    3114              
    3115              DW$T$41 .dwtag  DW_TAG_subroutine_type
    3116                      .dwattr DW$T$41, DW_AT_language(DW_LANG_C)
    3117              DW$149  .dwtag  DW_TAG_formal_parameter, DW_AT_type(*DW$T$38)
    3118              DW$150  .dwtag  DW_TAG_formal_parameter, DW_AT_type(*DW$T$6)
    3119              DW$151  .dwtag  DW_TAG_formal_parameter, DW_AT_type(*DW$T$38)
    3120              DW$152  .dwtag  DW_TAG_formal_parameter, DW_AT_type(*DW$T$6)
    3121                      .dwendtag DW$T$41
    3122              
    3123              
    3124              DW$T$42 .dwtag  DW_TAG_subroutine_type
    3125                      .dwattr DW$T$42, DW_AT_language(DW_LANG_C)
    3126              DW$153  .dwtag  DW_TAG_formal_parameter, DW_AT_type(*DW$T$38)
    3127              DW$154  .dwtag  DW_TAG_formal_parameter, DW_AT_type(*DW$T$6)
    3128              DW$155  .dwtag  DW_TAG_formal_parameter, DW_AT_type(*DW$T$11)
    3129                      .dwendtag DW$T$42
    3130              
    3131              
    3132              DW$T$43 .dwtag  DW_TAG_subroutine_type
    3133                      .dwattr DW$T$43, DW_AT_language(DW_LANG_C)
    3134              DW$T$6  .dwtag  DW_TAG_base_type, DW_AT_name("unsigned char")
    3135                      .dwattr DW$T$6, DW_AT_encoding(DW_ATE_unsigned_char)
    3136                      .dwattr DW$T$6, DW_AT_byte_size(0x01)
    3137              DW$T$10 .dwtag  DW_TAG_base_type, DW_AT_name("int")
    3138                      .dwattr DW$T$10, DW_AT_encoding(DW_ATE_signed)
    3139                      .dwattr DW$T$10, DW_AT_byte_size(0x01)
    3140              
    3141              DW$T$44 .dwtag  DW_TAG_subroutine_type, DW_AT_type(*DW$T$10)
    3142                      .dwattr DW$T$44, DW_AT_language(DW_LANG_C)
    3143              
    3144              DW$T$47 .dwtag  DW_TAG_subroutine_type, DW_AT_type(*DW$T$10)
TMS320C2000 COFF Assembler PC v4.1.3 Thu Sep 15 15:05:03 2011

Tools Copyright (c) 1996-2006 Texas Instruments Incorporated
C:\DOCUME~1\ADMINI~1\LOCALS~1\Temp\TI3002                            PAGE   60

    3145                      .dwattr DW$T$47, DW_AT_language(DW_LANG_C)
    3146              DW$156  .dwtag  DW_TAG_formal_parameter, DW_AT_type(*DW$T$46)
    3147              DW$157  .dwtag  DW_TAG_formal_parameter, DW_AT_type(*DW$T$46)
    3148              DW$158  .dwtag  DW_TAG_formal_parameter, DW_AT_type(*DW$T$6)
    3149              DW$159  .dwtag  DW_TAG_formal_parameter, DW_AT_type(*DW$T$38)
    3150                      .dwendtag DW$T$47
    3151              
    3152              DW$T$11 .dwtag  DW_TAG_base_type, DW_AT_name("unsigned int")
    3153                      .dwattr DW$T$11, DW_AT_encoding(DW_ATE_unsigned)
    3154                      .dwattr DW$T$11, DW_AT_byte_size(0x01)
    3155              DW$T$20 .dwtag  DW_TAG_typedef, DW_AT_name("Bsize_t"), DW_AT_type(*DW$T$11)
    3156                      .dwattr DW$T$20, DW_AT_language(DW_LANG_C)
    3157              DW$T$46 .dwtag  DW_TAG_pointer_type, DW_AT_type(*DW$T$11)
    3158                      .dwattr DW$T$46, DW_AT_address_class(0x16)
    3159              DW$T$38 .dwtag  DW_TAG_pointer_type, DW_AT_type(*DW$T$37)
    3160                      .dwattr DW$T$38, DW_AT_address_class(0x16)
    3161              
    3162              DW$T$57 .dwtag  DW_TAG_subroutine_type, DW_AT_type(*DW$T$38)
    3163                      .dwattr DW$T$57, DW_AT_language(DW_LANG_C)
    3164              DW$160  .dwtag  DW_TAG_formal_parameter, DW_AT_type(*DW$T$11)
    3165              DW$161  .dwtag  DW_TAG_formal_parameter, DW_AT_type(*DW$T$11)
    3166              DW$162  .dwtag  DW_TAG_formal_parameter, DW_AT_type(*DW$T$6)
    3167              DW$163  .dwtag  DW_TAG_formal_parameter, DW_AT_type(*DW$T$11)
    3168                      .dwendtag DW$T$57
    3169              
    3170              
    3171              DW$T$58 .dwtag  DW_TAG_array_type, DW_AT_type(*DW$T$37)
    3172                      .dwattr DW$T$58, DW_AT_language(DW_LANG_C)
    3173                      .dwattr DW$T$58, DW_AT_byte_size(0x50)
    3174              DW$164  .dwtag  DW_TAG_subrange_type
    3175                      .dwattr DW$164, DW_AT_upper_bound(0x13)
    3176                      .dwendtag DW$T$58
    3177              
    3178              DW$T$28 .dwtag  DW_TAG_pointer_type, DW_AT_type(*DW$T$27)
    3179                      .dwattr DW$T$28, DW_AT_address_class(0x16)
    3180              
    3181              DW$T$50 .dwtag  DW_TAG_array_type, DW_AT_type(*DW$T$49)
    3182                      .dwattr DW$T$50, DW_AT_language(DW_LANG_C)
    3183                      .dwattr DW$T$50, DW_AT_byte_size(0x161)
    3184              DW$165  .dwtag  DW_TAG_subrange_type
    3185                      .dwattr DW$165, DW_AT_upper_bound(0x160)
    3186                      .dwendtag DW$T$50
    3187              
    3188              
    3189              DW$T$51 .dwtag  DW_TAG_array_type, DW_AT_type(*DW$T$49)
    3190                      .dwattr DW$T$51, DW_AT_language(DW_LANG_C)
    3191                      .dwattr DW$T$51, DW_AT_byte_size(0xae)
    3192              DW$166  .dwtag  DW_TAG_subrange_type
    3193                      .dwattr DW$166, DW_AT_upper_bound(0xad)
    3194                      .dwendtag DW$T$51
    3195              
    3196              
    3197              DW$T$52 .dwtag  DW_TAG_array_type, DW_AT_type(*DW$T$49)
    3198                      .dwattr DW$T$52, DW_AT_language(DW_LANG_C)
    3199                      .dwattr DW$T$52, DW_AT_byte_size(0xf7)
TMS320C2000 COFF Assembler PC v4.1.3 Thu Sep 15 15:05:03 2011

Tools Copyright (c) 1996-2006 Texas Instruments Incorporated
C:\DOCUME~1\ADMINI~1\LOCALS~1\Temp\TI3002                            PAGE   61

    3200              DW$167  .dwtag  DW_TAG_subrange_type
    3201                      .dwattr DW$167, DW_AT_upper_bound(0xf6)
    3202                      .dwendtag DW$T$52
    3203              
    3204              
    3205              DW$T$53 .dwtag  DW_TAG_array_type, DW_AT_type(*DW$T$49)
    3206                      .dwattr DW$T$53, DW_AT_language(DW_LANG_C)
    3207                      .dwattr DW$T$53, DW_AT_byte_size(0x82)
    3208              DW$168  .dwtag  DW_TAG_subrange_type
    3209                      .dwattr DW$168, DW_AT_upper_bound(0x81)
    3210                      .dwendtag DW$T$53
    3211              
    3212              
    3213              DW$T$55 .dwtag  DW_TAG_array_type, DW_AT_type(*DW$T$54)
    3214                      .dwattr DW$T$55, DW_AT_language(DW_LANG_C)
    3215                      .dwattr DW$T$55, DW_AT_byte_size(0x08)
    3216              DW$169  .dwtag  DW_TAG_subrange_type
    3217                      .dwattr DW$169, DW_AT_upper_bound(0x03)
    3218                      .dwendtag DW$T$55
    3219              
    3220              DW$T$37 .dwtag  DW_TAG_typedef, DW_AT_name("ELEcomponent_t"), DW_AT_type(*DW$T$19)
    3221                      .dwattr DW$T$37, DW_AT_language(DW_LANG_C)
    3222              DW$T$27 .dwtag  DW_TAG_base_type, DW_AT_name("signed char")
    3223                      .dwattr DW$T$27, DW_AT_encoding(DW_ATE_signed_char)
    3224                      .dwattr DW$T$27, DW_AT_byte_size(0x01)
    3225              DW$170  .dwtag  DW_TAG_far_type
    3226                      .dwattr DW$170, DW_AT_type(*DW$T$27)
    3227              DW$T$49 .dwtag  DW_TAG_const_type
    3228                      .dwattr DW$T$49, DW_AT_type(*DW$170)
    3229              DW$T$54 .dwtag  DW_TAG_pointer_type, DW_AT_type(*DW$T$49)
    3230                      .dwattr DW$T$54, DW_AT_address_class(0x16)
    3231              
    3232              DW$T$19 .dwtag  DW_TAG_structure_type
    3233                      .dwattr DW$T$19, DW_AT_byte_size(0x04)
    3234              DW$171  .dwtag  DW_TAG_member, DW_AT_type(*DW$T$6)
    3235                      .dwattr DW$171, DW_AT_name("type"), DW_AT_symbol_name("_type")
    3236                      .dwattr DW$171, DW_AT_data_member_location[DW_OP_plus_uconst 0x0]
    3237                      .dwattr DW$171, DW_AT_accessibility(DW_ACCESS_public)
    3238              DW$172  .dwtag  DW_TAG_member, DW_AT_type(*DW$T$11)
    3239                      .dwattr DW$172, DW_AT_name("exp"), DW_AT_symbol_name("_exp")
    3240                      .dwattr DW$172, DW_AT_data_member_location[DW_OP_plus_uconst 0x1]
    3241                      .dwattr DW$172, DW_AT_accessibility(DW_ACCESS_public)
    3242              DW$173  .dwtag  DW_TAG_member, DW_AT_type(*DW$T$11)
    3243                      .dwattr DW$173, DW_AT_name("x"), DW_AT_symbol_name("_x")
    3244                      .dwattr DW$173, DW_AT_data_member_location[DW_OP_plus_uconst 0x2]
    3245                      .dwattr DW$173, DW_AT_accessibility(DW_ACCESS_public)
    3246              DW$174  .dwtag  DW_TAG_member, DW_AT_type(*DW$T$11)
    3247                      .dwattr DW$174, DW_AT_name("y"), DW_AT_symbol_name("_y")
    3248                      .dwattr DW$174, DW_AT_data_member_location[DW_OP_plus_uconst 0x3]
    3249                      .dwattr DW$174, DW_AT_accessibility(DW_ACCESS_public)
    3250                      .dwendtag DW$T$19
    3251              
    3252              
    3253                      .dwattr DW$65, DW_AT_type(*DW$T$10)
    3254                      .dwattr DW$109, DW_AT_external(0x01)
TMS320C2000 COFF Assembler PC v4.1.3 Thu Sep 15 15:05:03 2011

Tools Copyright (c) 1996-2006 Texas Instruments Incorporated
C:\DOCUME~1\ADMINI~1\LOCALS~1\Temp\TI3002                            PAGE   62

    3255                      .dwattr DW$109, DW_AT_type(*DW$T$38)
    3256                      .dwattr DW$122, DW_AT_external(0x01)
    3257                      .dwattr DW$125, DW_AT_external(0x01)
    3258                      .dwattr DW$48, DW_AT_external(0x01)
    3259                      .dwattr DW$73, DW_AT_external(0x01)
    3260                      .dwattr DW$86, DW_AT_external(0x01)
    3261                      .dwattr DW$100, DW_AT_external(0x01)
    3262                      .dwattr DW$126, DW_AT_external(0x01)
    3263                      .dwattr DW$52, DW_AT_external(0x01)
    3264                      .dwattr DW$29, DW_AT_external(0x01)
    3265                      .dwattr DW$CU, DW_AT_language(DW_LANG_C)
    3266              
    3267              ;***************************************************************
    3268              ;* DWARF CIE ENTRIES                                           *
    3269              ;***************************************************************
    3270              
    3271              DW$CIE  .dwcie 1, 40
    3272                      .dwcfa  0x0c, 20, 0
    3273                      .dwcfa  0x07, 0
    3274                      .dwcfa  0x07, 1
    3275                      .dwcfa  0x07, 2
    3276                      .dwcfa  0x07, 3
    3277                      .dwcfa  0x07, 4
    3278                      .dwcfa  0x07, 5
    3279                      .dwcfa  0x08, 6
    3280                      .dwcfa  0x08, 7
    3281                      .dwcfa  0x08, 8
    3282                      .dwcfa  0x08, 9
    3283                      .dwcfa  0x08, 10
    3284                      .dwcfa  0x08, 11
    3285                      .dwcfa  0x07, 12
    3286                      .dwcfa  0x07, 13
    3287                      .dwcfa  0x07, 14
    3288                      .dwcfa  0x07, 15
    3289                      .dwcfa  0x07, 16
    3290                      .dwcfa  0x07, 17
    3291                      .dwcfa  0x07, 18
    3292                      .dwcfa  0x07, 19
    3293                      .dwcfa  0x07, 20
    3294                      .dwcfa  0x07, 21
    3295                      .dwcfa  0x07, 22
    3296                      .dwcfa  0x07, 23
    3297                      .dwcfa  0x07, 24
    3298                      .dwcfa  0x07, 25
    3299                      .dwcfa  0x07, 26
    3300                      .dwcfa  0x08, 27
    3301                      .dwcfa  0x07, 28
    3302                      .dwcfa  0x07, 29
    3303                      .dwcfa  0x07, 30
    3304                      .dwcfa  0x07, 31
    3305                      .dwcfa  0x07, 32
    3306                      .dwcfa  0x07, 33
    3307                      .dwcfa  0x07, 34
    3308                      .dwcfa  0x07, 35
    3309                      .dwcfa  0x07, 36
TMS320C2000 COFF Assembler PC v4.1.3 Thu Sep 15 15:05:03 2011

Tools Copyright (c) 1996-2006 Texas Instruments Incorporated
C:\DOCUME~1\ADMINI~1\LOCALS~1\Temp\TI3002                            PAGE   63

    3310                      .dwcfa  0x07, 37
    3311                      .dwcfa  0x07, 38
    3312                      .dwcfa  0x07, 39
    3313                      .dwcfa  0x07, 40
    3314              
    3315              ;***************************************************************
    3316              ;* DWARF REGISTER MAP                                          *
    3317              ;***************************************************************
    3318              
    3319              DW$175  .dwtag  DW_TAG_assign_register, DW_AT_name("AL")
    3320                      .dwattr DW$175, DW_AT_location[DW_OP_reg0]
    3321              DW$176  .dwtag  DW_TAG_assign_register, DW_AT_name("AH")
    3322                      .dwattr DW$176, DW_AT_location[DW_OP_reg1]
    3323              DW$177  .dwtag  DW_TAG_assign_register, DW_AT_name("PL")
    3324                      .dwattr DW$177, DW_AT_location[DW_OP_reg2]
    3325              DW$178  .dwtag  DW_TAG_assign_register, DW_AT_name("PH")
    3326                      .dwattr DW$178, DW_AT_location[DW_OP_reg3]
    3327              DW$179  .dwtag  DW_TAG_assign_register, DW_AT_name("AR0")
    3328                      .dwattr DW$179, DW_AT_location[DW_OP_reg4]
    3329              DW$180  .dwtag  DW_TAG_assign_register, DW_AT_name("XAR0")
    3330                      .dwattr DW$180, DW_AT_location[DW_OP_reg5]
    3331              DW$181  .dwtag  DW_TAG_assign_register, DW_AT_name("AR1")
    3332                      .dwattr DW$181, DW_AT_location[DW_OP_reg6]
    3333              DW$182  .dwtag  DW_TAG_assign_register, DW_AT_name("XAR1")
    3334                      .dwattr DW$182, DW_AT_location[DW_OP_reg7]
    3335              DW$183  .dwtag  DW_TAG_assign_register, DW_AT_name("AR2")
    3336                      .dwattr DW$183, DW_AT_location[DW_OP_reg8]
    3337              DW$184  .dwtag  DW_TAG_assign_register, DW_AT_name("XAR2")
    3338                      .dwattr DW$184, DW_AT_location[DW_OP_reg9]
    3339              DW$185  .dwtag  DW_TAG_assign_register, DW_AT_name("AR3")
    3340                      .dwattr DW$185, DW_AT_location[DW_OP_reg10]
    3341              DW$186  .dwtag  DW_TAG_assign_register, DW_AT_name("XAR3")
    3342                      .dwattr DW$186, DW_AT_location[DW_OP_reg11]
    3343              DW$187  .dwtag  DW_TAG_assign_register, DW_AT_name("AR4")
    3344                      .dwattr DW$187, DW_AT_location[DW_OP_reg12]
    3345              DW$188  .dwtag  DW_TAG_assign_register, DW_AT_name("XAR4")
    3346                      .dwattr DW$188, DW_AT_location[DW_OP_reg13]
    3347              DW$189  .dwtag  DW_TAG_assign_register, DW_AT_name("AR5")
    3348                      .dwattr DW$189, DW_AT_location[DW_OP_reg14]
    3349              DW$190  .dwtag  DW_TAG_assign_register, DW_AT_name("XAR5")
    3350                      .dwattr DW$190, DW_AT_location[DW_OP_reg15]
    3351              DW$191  .dwtag  DW_TAG_assign_register, DW_AT_name("AR6")
    3352                      .dwattr DW$191, DW_AT_location[DW_OP_reg16]
    3353              DW$192  .dwtag  DW_TAG_assign_register, DW_AT_name("XAR6")
    3354                      .dwattr DW$192, DW_AT_location[DW_OP_reg17]
    3355              DW$193  .dwtag  DW_TAG_assign_register, DW_AT_name("AR7")
    3356                      .dwattr DW$193, DW_AT_location[DW_OP_reg18]
    3357              DW$194  .dwtag  DW_TAG_assign_register, DW_AT_name("XAR7")
    3358                      .dwattr DW$194, DW_AT_location[DW_OP_reg19]
    3359              DW$195  .dwtag  DW_TAG_assign_register, DW_AT_name("SP")
    3360                      .dwattr DW$195, DW_AT_location[DW_OP_reg20]
    3361              DW$196  .dwtag  DW_TAG_assign_register, DW_AT_name("XT")
    3362                      .dwattr DW$196, DW_AT_location[DW_OP_reg21]
    3363              DW$197  .dwtag  DW_TAG_assign_register, DW_AT_name("T")
    3364                      .dwattr DW$197, DW_AT_location[DW_OP_reg22]
TMS320C2000 COFF Assembler PC v4.1.3 Thu Sep 15 15:05:03 2011

Tools Copyright (c) 1996-2006 Texas Instruments Incorporated
C:\DOCUME~1\ADMINI~1\LOCALS~1\Temp\TI3002                            PAGE   64

    3365              DW$198  .dwtag  DW_TAG_assign_register, DW_AT_name("ST0")
    3366                      .dwattr DW$198, DW_AT_location[DW_OP_reg23]
    3367              DW$199  .dwtag  DW_TAG_assign_register, DW_AT_name("ST1")
    3368                      .dwattr DW$199, DW_AT_location[DW_OP_reg24]
    3369              DW$200  .dwtag  DW_TAG_assign_register, DW_AT_name("PC")
    3370                      .dwattr DW$200, DW_AT_location[DW_OP_reg25]
    3371              DW$201  .dwtag  DW_TAG_assign_register, DW_AT_name("RPC")
    3372                      .dwattr DW$201, DW_AT_location[DW_OP_reg26]
    3373              DW$202  .dwtag  DW_TAG_assign_register, DW_AT_name("FP")
    3374                      .dwattr DW$202, DW_AT_location[DW_OP_reg27]
    3375              DW$203  .dwtag  DW_TAG_assign_register, DW_AT_name("DP")
    3376                      .dwattr DW$203, DW_AT_location[DW_OP_reg28]
    3377              DW$204  .dwtag  DW_TAG_assign_register, DW_AT_name("SXM")
    3378                      .dwattr DW$204, DW_AT_location[DW_OP_reg29]
    3379              DW$205  .dwtag  DW_TAG_assign_register, DW_AT_name("PM")
    3380                      .dwattr DW$205, DW_AT_location[DW_OP_reg30]
    3381              DW$206  .dwtag  DW_TAG_assign_register, DW_AT_name("OVM")
    3382                      .dwattr DW$206, DW_AT_location[DW_OP_reg31]
    3383              DW$207  .dwtag  DW_TAG_assign_register, DW_AT_name("PAGE0")
    3384                      .dwattr DW$207, DW_AT_location[DW_OP_regx 0x20]
    3385              DW$208  .dwtag  DW_TAG_assign_register, DW_AT_name("AMODE")
    3386                      .dwattr DW$208, DW_AT_location[DW_OP_regx 0x21]
    3387              DW$209  .dwtag  DW_TAG_assign_register, DW_AT_name("IFR")
    3388                      .dwattr DW$209, DW_AT_location[DW_OP_regx 0x22]
    3389              DW$210  .dwtag  DW_TAG_assign_register, DW_AT_name("IER")
    3390                      .dwattr DW$210, DW_AT_location[DW_OP_regx 0x23]
    3391              DW$211  .dwtag  DW_TAG_assign_register, DW_AT_name("IER")
    3392                      .dwattr DW$211, DW_AT_location[DW_OP_regx 0x24]
    3393              DW$212  .dwtag  DW_TAG_assign_register, DW_AT_name("PSEUDO")
    3394                      .dwattr DW$212, DW_AT_location[DW_OP_regx 0x25]
    3395              DW$213  .dwtag  DW_TAG_assign_register, DW_AT_name("PSEUDOH")
    3396                      .dwattr DW$213, DW_AT_location[DW_OP_regx 0x26]
    3397              DW$214  .dwtag  DW_TAG_assign_register, DW_AT_name("VOL")
    3398                      .dwattr DW$214, DW_AT_location[DW_OP_regx 0x27]
    3399              DW$215  .dwtag  DW_TAG_assign_register, DW_AT_name("CIE_RETA")
    3400                      .dwattr DW$215, DW_AT_location[DW_OP_regx 0x28]
    3401                      .dwendtag DW$CU
    3402              

No Assembly Errors, No Assembly Warnings
