TMS320C2000 COFF Assembler PC v4.1.3 Thu Nov 29 16:02:59 2012

Tools Copyright (c) 1996-2006 Texas Instruments Incorporated
C:\DOCUME~1\ADMINI~1\LOCALS~1\Temp\TI4002                            PAGE    1

       1              ;***************************************************************
       2              ;* TMS320C2000 C/C++ Codegen                         PC v4.1.3 *
       3              ;* Date/Time created: Thu Nov 29 16:02:59 2012                 *
       4              ;***************************************************************
       5                      .compiler_opts --mem_model:code=flat --mem_model:data=large --silicon_version=28 
       6        0002  FP      .set    XAR2
       7              
       8              DW$CU   .dwtag  DW_TAG_compile_unit
       9                      .dwattr DW$CU, DW_AT_name("app_XBmod.c")
      10                      .dwattr DW$CU, DW_AT_producer("TMS320C2000 C/C++ Codegen PC v4.1.3 Copyright (c) 1996-2006 Texas Inst
      11                      .dwattr DW$CU, DW_AT_stmt_list(0x00)
      12                      .dwattr DW$CU, DW_AT_TI_VERSION(0x01)
      13              ;**************************************************************
      14              ;* CINIT RECORDS                                              *
      15              ;**************************************************************
      16 00000000               .sect   ".cinit"
      17                      .align  1
      18 00000000 FFFF          .field          -1,16
      19 00000001 0000-         .field          _m_XBmod_display_task_pro+0,32
         00000002 0000 
      20 00000003 00BE          .field          190,16                  ; _m_XBmod_display_task_pro @ 0
      21              
      22 00000004               .sect   ".cinit"
      23                      .align  1
      24 00000004 FFFF          .field          -1,16
      25 00000005 0001-         .field          _m_XBmod_main_task_pro+0,32
         00000006 0000 
      26 00000007 00BE          .field          190,16                  ; _m_XBmod_main_task_pro @ 0
      27              
      28 00000008               .sect   ".cinit"
      29                      .align  1
      30 00000008 FFFE          .field          -2,16
      31 00000009 0002-         .field          _m_XBmod_win_Obj+0,32
         0000000a 0000 
      32 0000000b 0000          .field          0,32                    ; _m_XBmod_win_Obj @ 0
         0000000c 0000 
      33              
      34 0000000d               .sect   ".cinit"
      35                      .align  1
      36 0000000d FFFE          .field          -2,16
      37 0000000e 0004-         .field          _m_XBmod_win_drop_list+0,32
         0000000f 0000 
      38 00000010 0000          .field          0,32                    ; _m_XBmod_win_drop_list @ 0
         00000011 0000 
      39              
      40 00000012               .sect   ".cinit"
      41                      .align  1
      42 00000012 FFFE          .field          -2,16
      43 00000013 0006-         .field          _m_XBmod_win_radio+0,32
         00000014 0000 
      44 00000015 0000          .field          0,32                    ; _m_XBmod_win_radio @ 0
         00000016 0000 
      45              
      46 00000017               .sect   ".cinit"
      47                      .align  1
TMS320C2000 COFF Assembler PC v4.1.3 Thu Nov 29 16:02:59 2012

Tools Copyright (c) 1996-2006 Texas Instruments Incorporated
C:\DOCUME~1\ADMINI~1\LOCALS~1\Temp\TI4002                            PAGE    2

      48 00000017 FFFC          .field          -IR_1,16
      49 00000018 0008-         .field          _m_xbmod_mod_select+0,32
         00000019 0000 
      50 0000001a 002A+         .field          FSL1,32         ; _m_xbmod_mod_select[0] @ 0
         0000001b 0000 
      51 0000001c 0036+         .field          FSL2,32         ; _m_xbmod_mod_select[1] @ 32
         0000001d 0000 
      52        0004  IR_1:   .set    4
      53              
      54              
      55              DW$1    .dwtag  DW_TAG_subprogram, DW_AT_name("GUI_radio_memeber_add"), DW_AT_symbol_name("_GUI_radio_memeber
      56                      .dwattr DW$1, DW_AT_declaration(0x01)
      57                      .dwattr DW$1, DW_AT_external(0x01)
      58              DW$2    .dwtag  DW_TAG_formal_parameter, DW_AT_type(*DW$T$11)
      59              DW$3    .dwtag  DW_TAG_formal_parameter, DW_AT_type(*DW$T$11)
      60              DW$4    .dwtag  DW_TAG_formal_parameter, DW_AT_type(*DW$T$70)
      61              DW$5    .dwtag  DW_TAG_formal_parameter, DW_AT_type(*DW$T$19)
      62                      .dwendtag DW$1
      63              
      64              
      65              DW$6    .dwtag  DW_TAG_subprogram, DW_AT_name("GUI_clean_screen"), DW_AT_symbol_name("_GUI_clean_screen")
      66                      .dwattr DW$6, DW_AT_declaration(0x01)
      67                      .dwattr DW$6, DW_AT_external(0x01)
      68              
      69              DW$7    .dwtag  DW_TAG_subprogram, DW_AT_name("GUI_radio_select"), DW_AT_symbol_name("_GUI_radio_select")
      70                      .dwattr DW$7, DW_AT_declaration(0x01)
      71                      .dwattr DW$7, DW_AT_external(0x01)
      72              DW$8    .dwtag  DW_TAG_formal_parameter, DW_AT_type(*DW$T$65)
      73              DW$9    .dwtag  DW_TAG_formal_parameter, DW_AT_type(*DW$T$19)
      74                      .dwendtag DW$7
      75              
      76              
      77              DW$10   .dwtag  DW_TAG_subprogram, DW_AT_name("GUI_x_shift"), DW_AT_symbol_name("_GUI_x_shift")
      78                      .dwattr DW$10, DW_AT_declaration(0x01)
      79                      .dwattr DW$10, DW_AT_external(0x01)
      80              DW$11   .dwtag  DW_TAG_formal_parameter, DW_AT_type(*DW$T$10)
      81                      .dwendtag DW$10
      82              
      83              
      84              DW$12   .dwtag  DW_TAG_subprogram, DW_AT_name("GUI_float_display_At"), DW_AT_symbol_name("_GUI_float_display_
      85                      .dwattr DW$12, DW_AT_declaration(0x01)
      86                      .dwattr DW$12, DW_AT_external(0x01)
      87              DW$13   .dwtag  DW_TAG_formal_parameter, DW_AT_type(*DW$T$11)
      88              DW$14   .dwtag  DW_TAG_formal_parameter, DW_AT_type(*DW$T$11)
      89              DW$15   .dwtag  DW_TAG_formal_parameter, DW_AT_type(*DW$T$16)
      90              DW$16   .dwtag  DW_TAG_formal_parameter, DW_AT_type(*DW$T$19)
      91                      .dwendtag DW$12
      92              
      93              
      94              DW$17   .dwtag  DW_TAG_subprogram, DW_AT_name("GUI_window_line_display"), DW_AT_symbol_name("_GUI_window_line
      95                      .dwattr DW$17, DW_AT_declaration(0x01)
      96                      .dwattr DW$17, DW_AT_external(0x01)
      97              DW$18   .dwtag  DW_TAG_formal_parameter, DW_AT_type(*DW$T$11)
      98              DW$19   .dwtag  DW_TAG_formal_parameter, DW_AT_type(*DW$T$11)
      99              DW$20   .dwtag  DW_TAG_formal_parameter, DW_AT_type(*DW$T$11)
TMS320C2000 COFF Assembler PC v4.1.3 Thu Nov 29 16:02:59 2012

Tools Copyright (c) 1996-2006 Texas Instruments Incorporated
C:\DOCUME~1\ADMINI~1\LOCALS~1\Temp\TI4002                            PAGE    3

     100              DW$21   .dwtag  DW_TAG_formal_parameter, DW_AT_type(*DW$T$11)
     101                      .dwendtag DW$17
     102              
     103              
     104              DW$22   .dwtag  DW_TAG_subprogram, DW_AT_name("GUI_string_display_At"), DW_AT_symbol_name("_GUI_string_displa
     105                      .dwattr DW$22, DW_AT_declaration(0x01)
     106                      .dwattr DW$22, DW_AT_external(0x01)
     107              DW$23   .dwtag  DW_TAG_formal_parameter, DW_AT_type(*DW$T$11)
     108              DW$24   .dwtag  DW_TAG_formal_parameter, DW_AT_type(*DW$T$11)
     109              DW$25   .dwtag  DW_TAG_formal_parameter, DW_AT_type(*DW$T$70)
     110                      .dwendtag DW$22
     111              
     112              
     113              DW$26   .dwtag  DW_TAG_subprogram, DW_AT_name("GUI_fill_window_area"), DW_AT_symbol_name("_GUI_fill_window_ar
     114                      .dwattr DW$26, DW_AT_declaration(0x01)
     115                      .dwattr DW$26, DW_AT_external(0x01)
     116              DW$27   .dwtag  DW_TAG_formal_parameter, DW_AT_type(*DW$T$11)
     117              DW$28   .dwtag  DW_TAG_formal_parameter, DW_AT_type(*DW$T$11)
     118              DW$29   .dwtag  DW_TAG_formal_parameter, DW_AT_type(*DW$T$11)
     119              DW$30   .dwtag  DW_TAG_formal_parameter, DW_AT_type(*DW$T$11)
     120                      .dwendtag DW$26
     121              
     122              
     123              DW$31   .dwtag  DW_TAG_subprogram, DW_AT_name("GUI_window_angle_line_display"), DW_AT_symbol_name("_GUI_windo
     124                      .dwattr DW$31, DW_AT_declaration(0x01)
     125                      .dwattr DW$31, DW_AT_external(0x01)
     126              DW$32   .dwtag  DW_TAG_formal_parameter, DW_AT_type(*DW$T$11)
     127              DW$33   .dwtag  DW_TAG_formal_parameter, DW_AT_type(*DW$T$11)
     128              DW$34   .dwtag  DW_TAG_formal_parameter, DW_AT_type(*DW$T$16)
     129              DW$35   .dwtag  DW_TAG_formal_parameter, DW_AT_type(*DW$T$11)
     130              DW$36   .dwtag  DW_TAG_formal_parameter, DW_AT_type(*DW$T$6)
     131              DW$37   .dwtag  DW_TAG_formal_parameter, DW_AT_type(*DW$T$70)
     132                      .dwendtag DW$31
     133              
     134              
     135              DW$38   .dwtag  DW_TAG_subprogram, DW_AT_name("GUI_string_display"), DW_AT_symbol_name("_GUI_string_display")
     136                      .dwattr DW$38, DW_AT_declaration(0x01)
     137                      .dwattr DW$38, DW_AT_external(0x01)
     138              DW$39   .dwtag  DW_TAG_formal_parameter, DW_AT_type(*DW$T$70)
     139                      .dwendtag DW$38
     140              
     141              
     142              DW$40   .dwtag  DW_TAG_subprogram, DW_AT_name("app_global_DL_measure_entery"), DW_AT_symbol_name("_app_global
     143                      .dwattr DW$40, DW_AT_declaration(0x01)
     144                      .dwattr DW$40, DW_AT_external(0x01)
     145              
     146              DW$41   .dwtag  DW_TAG_subprogram, DW_AT_name("app_global_DLflag_obtain"), DW_AT_symbol_name("_app_global_DLf
     147                      .dwattr DW$41, DW_AT_declaration(0x01)
     148                      .dwattr DW$41, DW_AT_external(0x01)
     149              DW$42   .dwtag  DW_TAG_formal_parameter, DW_AT_type(*DW$T$3)
     150                      .dwendtag DW$41
     151              
     152              
     153              DW$43   .dwtag  DW_TAG_subprogram, DW_AT_name("global_memset"), DW_AT_symbol_name("_global_memset")
     154                      .dwattr DW$43, DW_AT_declaration(0x01)
TMS320C2000 COFF Assembler PC v4.1.3 Thu Nov 29 16:02:59 2012

Tools Copyright (c) 1996-2006 Texas Instruments Incorporated
C:\DOCUME~1\ADMINI~1\LOCALS~1\Temp\TI4002                            PAGE    4

     155                      .dwattr DW$43, DW_AT_external(0x01)
     156              DW$44   .dwtag  DW_TAG_formal_parameter, DW_AT_type(*DW$T$3)
     157              DW$45   .dwtag  DW_TAG_formal_parameter, DW_AT_type(*DW$T$6)
     158              DW$46   .dwtag  DW_TAG_formal_parameter, DW_AT_type(*DW$T$19)
     159                      .dwendtag DW$43
     160              
     161              
     162              DW$47   .dwtag  DW_TAG_subprogram, DW_AT_name("global_memcpy"), DW_AT_symbol_name("_global_memcpy")
     163                      .dwattr DW$47, DW_AT_declaration(0x01)
     164                      .dwattr DW$47, DW_AT_external(0x01)
     165              DW$48   .dwtag  DW_TAG_formal_parameter, DW_AT_type(*DW$T$3)
     166              DW$49   .dwtag  DW_TAG_formal_parameter, DW_AT_type(*DW$T$3)
     167              DW$50   .dwtag  DW_TAG_formal_parameter, DW_AT_type(*DW$T$19)
     168                      .dwendtag DW$47
     169              
     170              
     171              DW$51   .dwtag  DW_TAG_subprogram, DW_AT_name("app_global_resouce_req"), DW_AT_symbol_name("_app_global_resou
     172                      .dwattr DW$51, DW_AT_declaration(0x01)
     173                      .dwattr DW$51, DW_AT_external(0x01)
     174              DW$52   .dwtag  DW_TAG_formal_parameter, DW_AT_type(*DW$T$3)
     175                      .dwendtag DW$51
     176              
     177              
     178              DW$53   .dwtag  DW_TAG_subprogram, DW_AT_name("app_module_assign_mod"), DW_AT_symbol_name("_app_module_assign
     179                      .dwattr DW$53, DW_AT_declaration(0x01)
     180                      .dwattr DW$53, DW_AT_external(0x01)
     181              DW$54   .dwtag  DW_TAG_formal_parameter, DW_AT_type(*DW$T$19)
     182                      .dwendtag DW$53
     183              
     184              
     185              DW$55   .dwtag  DW_TAG_subprogram, DW_AT_name("os_driver_ioctl"), DW_AT_symbol_name("_os_driver_ioctl")
     186                      .dwattr DW$55, DW_AT_declaration(0x01)
     187                      .dwattr DW$55, DW_AT_external(0x01)
     188              DW$56   .dwtag  DW_TAG_formal_parameter, DW_AT_type(*DW$T$51)
     189              DW$57   .dwtag  DW_TAG_formal_parameter, DW_AT_type(*DW$T$6)
     190              DW$58   .dwtag  DW_TAG_formal_parameter, DW_AT_type(*DW$T$3)
     191                      .dwendtag DW$55
     192              
     193              
     194              DW$59   .dwtag  DW_TAG_subprogram, DW_AT_name("app_global_resouce_release"), DW_AT_symbol_name("_app_global_r
     195                      .dwattr DW$59, DW_AT_declaration(0x01)
     196                      .dwattr DW$59, DW_AT_external(0x01)
     197              DW$60   .dwtag  DW_TAG_formal_parameter, DW_AT_type(*DW$T$3)
     198                      .dwendtag DW$59
     199              
     200              
     201              DW$61   .dwtag  DW_TAG_subprogram, DW_AT_name("GUI_set_Bgcolor"), DW_AT_symbol_name("_GUI_set_Bgcolor")
     202                      .dwattr DW$61, DW_AT_declaration(0x01)
     203                      .dwattr DW$61, DW_AT_external(0x01)
     204              DW$62   .dwtag  DW_TAG_formal_parameter, DW_AT_type(*DW$T$11)
     205                      .dwendtag DW$61
     206              
     207              
     208              DW$63   .dwtag  DW_TAG_subprogram, DW_AT_name("GUI_set_Fgcolor"), DW_AT_symbol_name("_GUI_set_Fgcolor")
     209                      .dwattr DW$63, DW_AT_declaration(0x01)
TMS320C2000 COFF Assembler PC v4.1.3 Thu Nov 29 16:02:59 2012

Tools Copyright (c) 1996-2006 Texas Instruments Incorporated
C:\DOCUME~1\ADMINI~1\LOCALS~1\Temp\TI4002                            PAGE    5

     210                      .dwattr DW$63, DW_AT_external(0x01)
     211              DW$64   .dwtag  DW_TAG_formal_parameter, DW_AT_type(*DW$T$11)
     212                      .dwendtag DW$63
     213              
     214              
     215              DW$65   .dwtag  DW_TAG_subprogram, DW_AT_name("GUI_window_hwin_req"), DW_AT_symbol_name("_GUI_window_hwin_req
     216                      .dwattr DW$65, DW_AT_declaration(0x01)
     217                      .dwattr DW$65, DW_AT_external(0x01)
     218              DW$66   .dwtag  DW_TAG_formal_parameter, DW_AT_type(*DW$T$65)
     219                      .dwendtag DW$65
     220              
     221              
     222              DW$67   .dwtag  DW_TAG_subprogram, DW_AT_name("GUI_window_destory"), DW_AT_symbol_name("_GUI_window_destory")
     223                      .dwattr DW$67, DW_AT_declaration(0x01)
     224                      .dwattr DW$67, DW_AT_external(0x01)
     225              DW$68   .dwtag  DW_TAG_formal_parameter, DW_AT_type(*DW$T$65)
     226                      .dwendtag DW$67
     227              
     228              
     229              DW$69   .dwtag  DW_TAG_subprogram, DW_AT_name("app_global_DL_measure_exit"), DW_AT_symbol_name("_app_global_D
     230                      .dwattr DW$69, DW_AT_declaration(0x01)
     231                      .dwattr DW$69, DW_AT_external(0x01)
     232              
     233              DW$70   .dwtag  DW_TAG_subprogram, DW_AT_name("OSTimeDly"), DW_AT_symbol_name("_OSTimeDly")
     234                      .dwattr DW$70, DW_AT_declaration(0x01)
     235                      .dwattr DW$70, DW_AT_external(0x01)
     236              DW$71   .dwtag  DW_TAG_formal_parameter, DW_AT_type(*DW$T$46)
     237                      .dwendtag DW$70
     238              
     239              
     240              DW$72   .dwtag  DW_TAG_subprogram, DW_AT_name("GUI_SetFront"), DW_AT_symbol_name("_GUI_SetFront")
     241                      .dwattr DW$72, DW_AT_declaration(0x01)
     242                      .dwattr DW$72, DW_AT_external(0x01)
     243              DW$73   .dwtag  DW_TAG_formal_parameter, DW_AT_type(*DW$T$35)
     244                      .dwendtag DW$72
     245              
     246              
     247              DW$74   .dwtag  DW_TAG_subprogram, DW_AT_name("GUI_window_hwin_release"), DW_AT_symbol_name("_GUI_window_hwin
     248                      .dwattr DW$74, DW_AT_declaration(0x01)
     249                      .dwattr DW$74, DW_AT_external(0x01)
     250              DW$75   .dwtag  DW_TAG_formal_parameter, DW_AT_type(*DW$T$65)
     251                      .dwendtag DW$74
     252              
     253              
     254              DW$76   .dwtag  DW_TAG_subprogram, DW_AT_name("global_strlen"), DW_AT_symbol_name("_global_strlen")
     255                      .dwattr DW$76, DW_AT_type(*DW$T$19)
     256                      .dwattr DW$76, DW_AT_declaration(0x01)
     257                      .dwattr DW$76, DW_AT_external(0x01)
     258              DW$77   .dwtag  DW_TAG_formal_parameter, DW_AT_type(*DW$T$70)
     259                      .dwendtag DW$76
     260              
     261              
     262              DW$78   .dwtag  DW_TAG_subprogram, DW_AT_name("global_strcat"), DW_AT_symbol_name("_global_strcat")
     263                      .dwattr DW$78, DW_AT_type(*DW$T$10)
     264                      .dwattr DW$78, DW_AT_declaration(0x01)
TMS320C2000 COFF Assembler PC v4.1.3 Thu Nov 29 16:02:59 2012

Tools Copyright (c) 1996-2006 Texas Instruments Incorporated
C:\DOCUME~1\ADMINI~1\LOCALS~1\Temp\TI4002                            PAGE    6

     265                      .dwattr DW$78, DW_AT_external(0x01)
     266              
     267              DW$79   .dwtag  DW_TAG_subprogram, DW_AT_name("os_task_assign_stk_build"), DW_AT_symbol_name("_os_task_assign
     268                      .dwattr DW$79, DW_AT_type(*DW$T$6)
     269                      .dwattr DW$79, DW_AT_declaration(0x01)
     270                      .dwattr DW$79, DW_AT_external(0x01)
     271              DW$80   .dwtag  DW_TAG_formal_parameter, DW_AT_type(*DW$T$50)
     272              DW$81   .dwtag  DW_TAG_formal_parameter, DW_AT_type(*DW$T$19)
     273                      .dwendtag DW$79
     274              
     275              DW$82   .dwtag  DW_TAG_variable, DW_AT_name("g_DL_dev"), DW_AT_symbol_name("_g_DL_dev")
     276                      .dwattr DW$82, DW_AT_type(*DW$T$51)
     277                      .dwattr DW$82, DW_AT_declaration(0x01)
     278                      .dwattr DW$82, DW_AT_external(0x01)
     279              
     280              DW$83   .dwtag  DW_TAG_subprogram, DW_AT_name("os_task_delete"), DW_AT_symbol_name("_os_task_delete")
     281                      .dwattr DW$83, DW_AT_type(*DW$T$6)
     282                      .dwattr DW$83, DW_AT_declaration(0x01)
     283                      .dwattr DW$83, DW_AT_external(0x01)
     284              DW$84   .dwtag  DW_TAG_formal_parameter, DW_AT_type(*DW$T$6)
     285                      .dwendtag DW$83
     286              
     287              
     288              DW$85   .dwtag  DW_TAG_subprogram, DW_AT_name("os_task_name_set"), DW_AT_symbol_name("_os_task_name_set")
     289                      .dwattr DW$85, DW_AT_type(*DW$T$6)
     290                      .dwattr DW$85, DW_AT_declaration(0x01)
     291                      .dwattr DW$85, DW_AT_external(0x01)
     292              DW$86   .dwtag  DW_TAG_formal_parameter, DW_AT_type(*DW$T$6)
     293              DW$87   .dwtag  DW_TAG_formal_parameter, DW_AT_type(*DW$T$70)
     294                      .dwendtag DW$85
     295              
     296              
     297              DW$88   .dwtag  DW_TAG_subprogram, DW_AT_name("app_module_add"), DW_AT_symbol_name("_app_module_add")
     298                      .dwattr DW$88, DW_AT_type(*DW$T$19)
     299                      .dwattr DW$88, DW_AT_declaration(0x01)
     300                      .dwattr DW$88, DW_AT_external(0x01)
     301              DW$89   .dwtag  DW_TAG_formal_parameter, DW_AT_type(*DW$T$112)
     302                      .dwendtag DW$88
     303              
     304              
     305              DW$90   .dwtag  DW_TAG_subprogram, DW_AT_name("app_global_key_obtain"), DW_AT_symbol_name("_app_global_key_ob
     306                      .dwattr DW$90, DW_AT_type(*DW$T$6)
     307                      .dwattr DW$90, DW_AT_declaration(0x01)
     308                      .dwattr DW$90, DW_AT_external(0x01)
     309              DW$91   .dwtag  DW_TAG_formal_parameter, DW_AT_type(*DW$T$104)
     310              DW$92   .dwtag  DW_TAG_formal_parameter, DW_AT_type(*DW$T$19)
     311                      .dwendtag DW$90
     312              
     313                      .global _m_XBmod_display_task_pro
     314 00000000       _m_XBmod_display_task_pro:      .usect  ".ebss",1,1,0
     315              DW$93   .dwtag  DW_TAG_variable, DW_AT_name("m_XBmod_display_task_pro"), DW_AT_symbol_name("_m_XBmod_display_
     316                      .dwattr DW$93, DW_AT_location[DW_OP_addr _m_XBmod_display_task_pro]
     317                      .dwattr DW$93, DW_AT_type(*DW$T$6)
     318                      .dwattr DW$93, DW_AT_external(0x01)
     319                      .global _m_XBmod_main_task_pro
TMS320C2000 COFF Assembler PC v4.1.3 Thu Nov 29 16:02:59 2012

Tools Copyright (c) 1996-2006 Texas Instruments Incorporated
C:\DOCUME~1\ADMINI~1\LOCALS~1\Temp\TI4002                            PAGE    7

     320 00000001       _m_XBmod_main_task_pro: .usect  ".ebss",1,1,0
     321              DW$94   .dwtag  DW_TAG_variable, DW_AT_name("m_XBmod_main_task_pro"), DW_AT_symbol_name("_m_XBmod_main_task_p
     322                      .dwattr DW$94, DW_AT_location[DW_OP_addr _m_XBmod_main_task_pro]
     323                      .dwattr DW$94, DW_AT_type(*DW$T$6)
     324                      .dwattr DW$94, DW_AT_external(0x01)
     325              
     326              DW$95   .dwtag  DW_TAG_subprogram, DW_AT_name("GUI_drop_list_unfold"), DW_AT_symbol_name("_GUI_drop_list_unfo
     327                      .dwattr DW$95, DW_AT_type(*DW$T$19)
     328                      .dwattr DW$95, DW_AT_declaration(0x01)
     329                      .dwattr DW$95, DW_AT_external(0x01)
     330              DW$96   .dwtag  DW_TAG_formal_parameter, DW_AT_type(*DW$T$65)
     331                      .dwendtag DW$95
     332              
     333              
     334              DW$97   .dwtag  DW_TAG_subprogram, DW_AT_name("global_itoa"), DW_AT_symbol_name("_global_itoa")
     335                      .dwattr DW$97, DW_AT_type(*DW$T$19)
     336                      .dwattr DW$97, DW_AT_declaration(0x01)
     337                      .dwattr DW$97, DW_AT_external(0x01)
     338              DW$98   .dwtag  DW_TAG_formal_parameter, DW_AT_type(*DW$T$10)
     339              DW$99   .dwtag  DW_TAG_formal_parameter, DW_AT_type(*DW$T$70)
     340                      .dwendtag DW$97
     341              
     342              
     343              DW$100  .dwtag  DW_TAG_subprogram, DW_AT_name("global_ftoa"), DW_AT_symbol_name("_global_ftoa")
     344                      .dwattr DW$100, DW_AT_type(*DW$T$19)
     345                      .dwattr DW$100, DW_AT_declaration(0x01)
     346                      .dwattr DW$100, DW_AT_external(0x01)
     347              DW$101  .dwtag  DW_TAG_formal_parameter, DW_AT_type(*DW$T$16)
     348              DW$102  .dwtag  DW_TAG_formal_parameter, DW_AT_type(*DW$T$70)
     349              DW$103  .dwtag  DW_TAG_formal_parameter, DW_AT_type(*DW$T$19)
     350                      .dwendtag DW$100
     351              
     352              
     353              DW$104  .dwtag  DW_TAG_subprogram, DW_AT_name("global_ltoa"), DW_AT_symbol_name("_global_ltoa")
     354                      .dwattr DW$104, DW_AT_type(*DW$T$19)
     355                      .dwattr DW$104, DW_AT_declaration(0x01)
     356                      .dwattr DW$104, DW_AT_external(0x01)
     357              DW$105  .dwtag  DW_TAG_formal_parameter, DW_AT_type(*DW$T$12)
     358              DW$106  .dwtag  DW_TAG_formal_parameter, DW_AT_type(*DW$T$70)
     359                      .dwendtag DW$104
     360              
     361                      .global _m_XBmod_win_Obj
     362 00000002       _m_XBmod_win_Obj:       .usect  ".ebss",2,1,1
     363              DW$107  .dwtag  DW_TAG_variable, DW_AT_name("m_XBmod_win_Obj"), DW_AT_symbol_name("_m_XBmod_win_Obj")
     364                      .dwattr DW$107, DW_AT_location[DW_OP_addr _m_XBmod_win_Obj]
     365                      .dwattr DW$107, DW_AT_type(*DW$T$65)
     366                      .dwattr DW$107, DW_AT_external(0x01)
     367                      .global _m_XBmod_win_drop_list
     368 00000004       _m_XBmod_win_drop_list: .usect  ".ebss",2,1,1
     369              DW$108  .dwtag  DW_TAG_variable, DW_AT_name("m_XBmod_win_drop_list"), DW_AT_symbol_name("_m_XBmod_win_drop_li
     370                      .dwattr DW$108, DW_AT_location[DW_OP_addr _m_XBmod_win_drop_list]
     371                      .dwattr DW$108, DW_AT_type(*DW$T$65)
     372                      .dwattr DW$108, DW_AT_external(0x01)
     373                      .global _m_XBmod_win_radio
     374 00000006       _m_XBmod_win_radio:     .usect  ".ebss",2,1,1
TMS320C2000 COFF Assembler PC v4.1.3 Thu Nov 29 16:02:59 2012

Tools Copyright (c) 1996-2006 Texas Instruments Incorporated
C:\DOCUME~1\ADMINI~1\LOCALS~1\Temp\TI4002                            PAGE    8

     375              DW$109  .dwtag  DW_TAG_variable, DW_AT_name("m_XBmod_win_radio"), DW_AT_symbol_name("_m_XBmod_win_radio")
     376                      .dwattr DW$109, DW_AT_location[DW_OP_addr _m_XBmod_win_radio]
     377                      .dwattr DW$109, DW_AT_type(*DW$T$65)
     378                      .dwattr DW$109, DW_AT_external(0x01)
     379              
     380              DW$110  .dwtag  DW_TAG_subprogram, DW_AT_name("GUI_hwin_obtain"), DW_AT_symbol_name("_GUI_hwin_obtain")
     381                      .dwattr DW$110, DW_AT_type(*DW$T$65)
     382                      .dwattr DW$110, DW_AT_declaration(0x01)
     383                      .dwattr DW$110, DW_AT_external(0x01)
     384              
     385              DW$111  .dwtag  DW_TAG_subprogram, DW_AT_name("global_strcpy"), DW_AT_symbol_name("_global_strcpy")
     386                      .dwattr DW$111, DW_AT_type(*DW$T$70)
     387                      .dwattr DW$111, DW_AT_declaration(0x01)
     388                      .dwattr DW$111, DW_AT_external(0x01)
     389              DW$112  .dwtag  DW_TAG_formal_parameter, DW_AT_type(*DW$T$70)
     390              DW$113  .dwtag  DW_TAG_formal_parameter, DW_AT_type(*DW$T$70)
     391                      .dwendtag DW$111
     392              
     393              
     394              DW$114  .dwtag  DW_TAG_subprogram, DW_AT_name("Gui_3D_window_creat"), DW_AT_symbol_name("_Gui_3D_window_creat
     395                      .dwattr DW$114, DW_AT_type(*DW$T$65)
     396                      .dwattr DW$114, DW_AT_declaration(0x01)
     397                      .dwattr DW$114, DW_AT_external(0x01)
     398              DW$115  .dwtag  DW_TAG_formal_parameter, DW_AT_type(*DW$T$11)
     399              DW$116  .dwtag  DW_TAG_formal_parameter, DW_AT_type(*DW$T$11)
     400              DW$117  .dwtag  DW_TAG_formal_parameter, DW_AT_type(*DW$T$19)
     401              DW$118  .dwtag  DW_TAG_formal_parameter, DW_AT_type(*DW$T$19)
     402              DW$119  .dwtag  DW_TAG_formal_parameter, DW_AT_type(*DW$T$70)
     403              DW$120  .dwtag  DW_TAG_formal_parameter, DW_AT_type(*DW$T$19)
     404              DW$121  .dwtag  DW_TAG_formal_parameter, DW_AT_type(*DW$T$65)
     405                      .dwendtag DW$114
     406              
     407              
     408              DW$122  .dwtag  DW_TAG_subprogram, DW_AT_name("Gui_drop_list_creat"), DW_AT_symbol_name("_Gui_drop_list_creat
     409                      .dwattr DW$122, DW_AT_type(*DW$T$65)
     410                      .dwattr DW$122, DW_AT_declaration(0x01)
     411                      .dwattr DW$122, DW_AT_external(0x01)
     412              DW$123  .dwtag  DW_TAG_formal_parameter, DW_AT_type(*DW$T$11)
     413              DW$124  .dwtag  DW_TAG_formal_parameter, DW_AT_type(*DW$T$11)
     414              DW$125  .dwtag  DW_TAG_formal_parameter, DW_AT_type(*DW$T$41)
     415              DW$126  .dwtag  DW_TAG_formal_parameter, DW_AT_type(*DW$T$6)
     416              DW$127  .dwtag  DW_TAG_formal_parameter, DW_AT_type(*DW$T$19)
     417              DW$128  .dwtag  DW_TAG_formal_parameter, DW_AT_type(*DW$T$65)
     418                      .dwendtag DW$122
     419              
     420              
     421              DW$129  .dwtag  DW_TAG_subprogram, DW_AT_name("GUI_radio_create"), DW_AT_symbol_name("_GUI_radio_create")
     422                      .dwattr DW$129, DW_AT_type(*DW$T$65)
     423                      .dwattr DW$129, DW_AT_declaration(0x01)
     424                      .dwattr DW$129, DW_AT_external(0x01)
     425              DW$130  .dwtag  DW_TAG_formal_parameter, DW_AT_type(*DW$T$11)
     426              DW$131  .dwtag  DW_TAG_formal_parameter, DW_AT_type(*DW$T$11)
     427              DW$132  .dwtag  DW_TAG_formal_parameter, DW_AT_type(*DW$T$19)
     428              DW$133  .dwtag  DW_TAG_formal_parameter, DW_AT_type(*DW$T$19)
     429              DW$134  .dwtag  DW_TAG_formal_parameter, DW_AT_type(*DW$T$19)
TMS320C2000 COFF Assembler PC v4.1.3 Thu Nov 29 16:02:59 2012

Tools Copyright (c) 1996-2006 Texas Instruments Incorporated
C:\DOCUME~1\ADMINI~1\LOCALS~1\Temp\TI4002                            PAGE    9

     430              DW$135  .dwtag  DW_TAG_formal_parameter, DW_AT_type(*DW$T$65)
     431                      .dwendtag DW$129
     432              
     433                      .global _m_xbmod_mod_select
     434 00000008       _m_xbmod_mod_select:    .usect  ".ebss",4,1,1
     435              DW$136  .dwtag  DW_TAG_variable, DW_AT_name("m_xbmod_mod_select"), DW_AT_symbol_name("_m_xbmod_mod_select")
     436                      .dwattr DW$136, DW_AT_location[DW_OP_addr _m_xbmod_mod_select]
     437                      .dwattr DW$136, DW_AT_type(*DW$T$132)
     438                      .dwattr DW$136, DW_AT_external(0x01)
     439 00000000               .sect   ".econst"
     440                      .align  1
     441 00000000       _$T1$2:
     442 00000000 0000          .field          0,16                    ; _$T1$2[0] @ 0
     443 00000001               .space  144
     444              
     445              DW$137  .dwtag  DW_TAG_variable, DW_AT_name("$T1$2"), DW_AT_symbol_name("_$T1$2")
     446                      .dwattr DW$137, DW_AT_type(*DW$T$138)
     447                      .dwattr DW$137, DW_AT_location[DW_OP_addr _$T1$2]
     448              DW$138  .dwtag  DW_TAG_variable, DW_AT_name("GUI_F8X11_ASCII"), DW_AT_symbol_name("_GUI_F8X11_ASCII")
     449                      .dwattr DW$138, DW_AT_type(*DW$T$34)
     450                      .dwattr DW$138, DW_AT_declaration(0x01)
     451                      .dwattr DW$138, DW_AT_external(0x01)
     452              DW$139  .dwtag  DW_TAG_variable, DW_AT_name("GUI_F8X16_EXTASCII"), DW_AT_symbol_name("_GUI_F8X16_EXTASCII")
     453                      .dwattr DW$139, DW_AT_type(*DW$T$34)
     454                      .dwattr DW$139, DW_AT_declaration(0x01)
     455                      .dwattr DW$139, DW_AT_external(0x01)
     456 0000000a               .sect   ".econst"
     457                      .align  2
     458 0000000a       _$T2$3:
     459 0000000a 0042+         .field          FSL3,32         ; _$T2$3[0] @ 0
         0000000b 0000 
     460 0000000c 0046+         .field          FSL4,32         ; _$T2$3[1] @ 32
         0000000d 0000 
     461 0000000e 004A+         .field          FSL5,32         ; _$T2$3[2] @ 64
         0000000f 0000 
     462 00000010 004E+         .field          FSL6,32         ; _$T2$3[3] @ 96
         00000011 0000 
     463 00000012 0052+         .field          FSL7,32         ; _$T2$3[4] @ 128
         00000013 0000 
     464 00000014 0056+         .field          FSL8,32         ; _$T2$3[5] @ 160
         00000015 0000 
     465              
     466              DW$140  .dwtag  DW_TAG_variable, DW_AT_name("$T2$3"), DW_AT_symbol_name("_$T2$3")
     467                      .dwattr DW$140, DW_AT_type(*DW$T$136)
     468                      .dwattr DW$140, DW_AT_location[DW_OP_addr _$T2$3]
     469 00000016               .sect   ".econst"
     470                      .align  1
     471 00000016       _$T0$1:
     472 00000016 0000          .field          0,16                    ; _$T0$1[0] @ 0
     473 00000017               .space  304
     474              
     475              DW$141  .dwtag  DW_TAG_variable, DW_AT_name("$T0$1"), DW_AT_symbol_name("_$T0$1")
     476                      .dwattr DW$141, DW_AT_type(*DW$T$137)
     477                      .dwattr DW$141, DW_AT_location[DW_OP_addr _$T0$1]
     478                      .global _m_xb_data
TMS320C2000 COFF Assembler PC v4.1.3 Thu Nov 29 16:02:59 2012

Tools Copyright (c) 1996-2006 Texas Instruments Incorporated
C:\DOCUME~1\ADMINI~1\LOCALS~1\Temp\TI4002                            PAGE   10

     479 00000040       _m_xb_data:     .usect  ".ebss",208,1,1
     480              DW$142  .dwtag  DW_TAG_variable, DW_AT_name("m_xb_data"), DW_AT_symbol_name("_m_xb_data")
     481                      .dwattr DW$142, DW_AT_location[DW_OP_addr _m_xb_data]
     482                      .dwattr DW$142, DW_AT_type(*DW$T$155)
     483                      .dwattr DW$142, DW_AT_external(0x01)
     484                      .global _m_xb_buf
     485 00000140       _m_xb_buf:      .usect  ".ebss",624,1,1
     486              DW$143  .dwtag  DW_TAG_variable, DW_AT_name("m_xb_buf"), DW_AT_symbol_name("_m_xb_buf")
     487                      .dwattr DW$143, DW_AT_location[DW_OP_addr _m_xb_buf]
     488                      .dwattr DW$143, DW_AT_type(*DW$T$127)
     489                      .dwattr DW$143, DW_AT_external(0x01)
     490              ;       C:\CCStudio_v3.3\C2000\cgtools\bin\ac2000.exe -@C:\DOCUME~1\ADMINI~1\LOCALS~1\Temp\TI4004 
     491 00000000               .sect   ".text"
     492                      .global _app_XBmod_resource_init
     493              
     494              DW$144  .dwtag  DW_TAG_subprogram, DW_AT_name("app_XBmod_resource_init"), DW_AT_symbol_name("_app_XBmod_resou
     495                      .dwattr DW$144, DW_AT_low_pc(_app_XBmod_resource_init)
     496                      .dwattr DW$144, DW_AT_high_pc(0x00)
     497                      .dwattr DW$144, DW_AT_begin_file("src\app_XBmod_connect.c")
     498                      .dwattr DW$144, DW_AT_begin_line(0x16)
     499                      .dwattr DW$144, DW_AT_begin_column(0x06)
     500                      .dwpsn  "src\app_XBmod_connect.c",23,1
     501              
     502                      .dwfde DW$CIE
     503              
     504              ;***************************************************************
     505              ;* FNAME: _app_XBmod_resource_init      FR SIZE:   0           *
     506              ;*                                                             *
     507              ;* FUNCTION ENVIRONMENT                                        *
     508              ;*                                                             *
     509              ;* FUNCTION PROPERTIES                                         *
     510              ;*                            0 Parameter,  0 Auto,  0 SOE     *
     511              ;***************************************************************
     512              
     513              _app_XBmod_resource_init:
     514                      .dwcfa  0x1d, -2
     515                      .dwcfa  0x1c, 26, 0
     516                      .dwcfa  0x09, 40, 26
     517                      .dwpsn  "src\app_XBmod_connect.c",24,2
     518                      .dwpsn  "src\app_XBmod_connect.c",25,1
     519 00000000 0006          LRETR
     520                      ; return occurs
     521                      .dwattr DW$144, DW_AT_end_file("src\app_XBmod_connect.c")
     522                      .dwattr DW$144, DW_AT_end_line(0x19)
     523                      .dwattr DW$144, DW_AT_end_column(0x01)
     524                      .dwendentry
     525                      .dwendtag DW$144
     526              
     527 00000001               .sect   ".text"
     528                      .global _app_XBmod_insmod
     529              
     530              DW$145  .dwtag  DW_TAG_subprogram, DW_AT_name("app_XBmod_insmod"), DW_AT_symbol_name("_app_XBmod_insmod")
     531                      .dwattr DW$145, DW_AT_low_pc(_app_XBmod_insmod)
     532                      .dwattr DW$145, DW_AT_high_pc(0x00)
     533                      .dwattr DW$145, DW_AT_begin_file("src\app_XBmod_connect.c")
TMS320C2000 COFF Assembler PC v4.1.3 Thu Nov 29 16:02:59 2012

Tools Copyright (c) 1996-2006 Texas Instruments Incorporated
C:\DOCUME~1\ADMINI~1\LOCALS~1\Temp\TI4002                            PAGE   11

     534                      .dwattr DW$145, DW_AT_begin_line(0x22)
     535                      .dwattr DW$145, DW_AT_begin_column(0x06)
     536                      .dwpsn  "src\app_XBmod_connect.c",35,1
     537              
     538                      .dwfde DW$CIE
     539              
     540              ;***************************************************************
     541              ;* FNAME: _app_XBmod_insmod             FR SIZE:   0           *
     542              ;*                                                             *
     543              ;* FUNCTION ENVIRONMENT                                        *
     544              ;*                                                             *
     545              ;* FUNCTION PROPERTIES                                         *
     546              ;*                            0 Parameter,  0 Auto,  0 SOE     *
     547              ;***************************************************************
     548              
     549              _app_XBmod_insmod:
     550                      .dwcfa  0x1d, -2
     551                      .dwcfa  0x1c, 26, 0
     552                      .dwcfa  0x09, 40, 26
     553                      .dwpsn  "src\app_XBmod_connect.c",36,2
     554 00000001 D400          MOVB      XAR4,#0
     555 00000002 7640!         LCR       #_app_global_resouce_req ; |36| 
         00000003 0000 
     556                      ; call occurs [#_app_global_resouce_req] ; |36| 
     557                      .dwpsn  "src\app_XBmod_connect.c",37,2
     558 00000004 7640'         LCR       #_app_XBmod_resource_init ; |37| 
         00000005 0000 
     559                      ; call occurs [#_app_XBmod_resource_init] ; |37| 
     560                      .dwpsn  "src\app_XBmod_connect.c",38,2
     561 00000006 7640'         LCR       #_app_XBmod_fun_entry ; |38| 
         00000007 022B 
     562                      ; call occurs [#_app_XBmod_fun_entry] ; |38| 
     563                      .dwpsn  "src\app_XBmod_connect.c",40,2
     564                      .dwpsn  "src\app_XBmod_connect.c",41,1
     565 00000008 0006          LRETR
     566                      ; return occurs
     567                      .dwattr DW$145, DW_AT_end_file("src\app_XBmod_connect.c")
     568                      .dwattr DW$145, DW_AT_end_line(0x29)
     569                      .dwattr DW$145, DW_AT_end_column(0x01)
     570                      .dwendentry
     571                      .dwendtag DW$145
     572              
     573 00000009               .sect   ".text"
     574                      .global _app_XBmod_exit
     575              
     576              DW$146  .dwtag  DW_TAG_subprogram, DW_AT_name("app_XBmod_exit"), DW_AT_symbol_name("_app_XBmod_exit")
     577                      .dwattr DW$146, DW_AT_low_pc(_app_XBmod_exit)
     578                      .dwattr DW$146, DW_AT_high_pc(0x00)
     579                      .dwattr DW$146, DW_AT_begin_file("src\app_XBmod_connect.c")
     580                      .dwattr DW$146, DW_AT_begin_line(0x32)
     581                      .dwattr DW$146, DW_AT_begin_column(0x06)
     582                      .dwpsn  "src\app_XBmod_connect.c",51,1
     583              
     584                      .dwfde DW$CIE
     585              
TMS320C2000 COFF Assembler PC v4.1.3 Thu Nov 29 16:02:59 2012

Tools Copyright (c) 1996-2006 Texas Instruments Incorporated
C:\DOCUME~1\ADMINI~1\LOCALS~1\Temp\TI4002                            PAGE   12

     586              ;***************************************************************
     587              ;* FNAME: _app_XBmod_exit               FR SIZE:   0           *
     588              ;*                                                             *
     589              ;* FUNCTION ENVIRONMENT                                        *
     590              ;*                                                             *
     591              ;* FUNCTION PROPERTIES                                         *
     592              ;*                            0 Parameter,  0 Auto,  0 SOE     *
     593              ;***************************************************************
     594              
     595              _app_XBmod_exit:
     596                      .dwcfa  0x1d, -2
     597                      .dwcfa  0x1c, 26, 0
     598                      .dwcfa  0x09, 40, 26
     599                      .dwpsn  "src\app_XBmod_connect.c",52,2
     600 00000009 D400          MOVB      XAR4,#0
     601 0000000a 7640!         LCR       #_app_global_resouce_release ; |52| 
         0000000b 0000 
     602                      ; call occurs [#_app_global_resouce_release] ; |52| 
     603                      .dwpsn  "src\app_XBmod_connect.c",53,2
     604 0000000c 7640'         LCR       #_app_XBmod_fun_exit  ; |53| 
         0000000d 023A 
     605                      ; call occurs [#_app_XBmod_fun_exit] ; |53| 
     606                      .dwpsn  "src\app_XBmod_connect.c",55,2
     607                      .dwpsn  "src\app_XBmod_connect.c",56,1
     608 0000000e 0006          LRETR
     609                      ; return occurs
     610                      .dwattr DW$146, DW_AT_end_file("src\app_XBmod_connect.c")
     611                      .dwattr DW$146, DW_AT_end_line(0x38)
     612                      .dwattr DW$146, DW_AT_end_column(0x01)
     613                      .dwendentry
     614                      .dwendtag DW$146
     615              
     616 0000000f               .sect   ".text"
     617                      .global _app_XBmod_add
     618              
     619              DW$147  .dwtag  DW_TAG_subprogram, DW_AT_name("app_XBmod_add"), DW_AT_symbol_name("_app_XBmod_add")
     620                      .dwattr DW$147, DW_AT_low_pc(_app_XBmod_add)
     621                      .dwattr DW$147, DW_AT_high_pc(0x00)
     622                      .dwattr DW$147, DW_AT_begin_file("src\app_XBmod_connect.c")
     623                      .dwattr DW$147, DW_AT_begin_line(0x41)
     624                      .dwattr DW$147, DW_AT_begin_column(0x09)
     625                      .dwpsn  "src\app_XBmod_connect.c",66,1
     626              
     627                      .dwfde DW$CIE
     628              
     629              ;***************************************************************
     630              ;* FNAME: _app_XBmod_add                FR SIZE:   8           *
     631              ;*                                                             *
     632              ;* FUNCTION ENVIRONMENT                                        *
     633              ;*                                                             *
     634              ;* FUNCTION PROPERTIES                                         *
     635              ;*                            0 Parameter,  7 Auto,  0 SOE     *
     636              ;***************************************************************
     637              
     638              _app_XBmod_add:
TMS320C2000 COFF Assembler PC v4.1.3 Thu Nov 29 16:02:59 2012

Tools Copyright (c) 1996-2006 Texas Instruments Incorporated
C:\DOCUME~1\ADMINI~1\LOCALS~1\Temp\TI4002                            PAGE   13

     639                      .dwcfa  0x1d, -2
     640                      .dwcfa  0x1c, 26, 0
     641                      .dwcfa  0x09, 40, 26
     642 0000000f FE08          ADDB      SP,#8
     643                      .dwcfa  0x1d, -10
     644              DW$148  .dwtag  DW_TAG_variable, DW_AT_name("temp"), DW_AT_symbol_name("_temp")
     645                      .dwattr DW$148, DW_AT_type(*DW$T$111)
     646                      .dwattr DW$148, DW_AT_location[DW_OP_breg20 -6]
     647              DW$149  .dwtag  DW_TAG_variable, DW_AT_name("mod_id"), DW_AT_symbol_name("_mod_id")
     648                      .dwattr DW$149, DW_AT_type(*DW$T$19)
     649                      .dwattr DW$149, DW_AT_location[DW_OP_breg20 -7]
     650                      .dwpsn  "src\app_XBmod_connect.c",69,2
     651 00000010 8F00'         MOVL      XAR4,#_app_XBmod_insmod ; |69| 
         00000011 0001 
     652 00000012 A844          MOVL      *-SP[4],XAR4          ; |69| 
     653                      .dwpsn  "src\app_XBmod_connect.c",70,2
     654 00000013 8F00'         MOVL      XAR4,#_app_XBmod_exit ; |70| 
         00000014 0009 
     655 00000015 A842          MOVL      *-SP[2],XAR4          ; |70| 
     656                      .dwpsn  "src\app_XBmod_connect.c",71,2
     657 00000016 5CAD          MOVZ      AR4,SP                ; |71| 
     658 00000017 DC86          SUBB      XAR4,#6               ; |71| 
     659 00000018 7640!         LCR       #_app_module_add      ; |71| 
         00000019 0000 
     660                      ; call occurs [#_app_module_add] ; |71| 
     661 0000001a 9647          MOV       *-SP[7],AL            ; |71| 
     662                      .dwpsn  "src\app_XBmod_connect.c",72,2
     663                      .dwpsn  "src\app_XBmod_connect.c",73,1
     664 0000001b FE88          SUBB      SP,#8                 ; |72| 
     665                      .dwcfa  0x1d, -2
     666 0000001c 0006          LRETR
     667                      ; return occurs
     668                      .dwattr DW$147, DW_AT_end_file("src\app_XBmod_connect.c")
     669                      .dwattr DW$147, DW_AT_end_line(0x49)
     670                      .dwattr DW$147, DW_AT_end_column(0x01)
     671                      .dwendentry
     672                      .dwendtag DW$147
     673              
     674 0000001d               .sect   ".text"
     675                      .global _app_XBmod_data_sort
     676              
     677              DW$150  .dwtag  DW_TAG_subprogram, DW_AT_name("app_XBmod_data_sort"), DW_AT_symbol_name("_app_XBmod_data_sort
     678                      .dwattr DW$150, DW_AT_low_pc(_app_XBmod_data_sort)
     679                      .dwattr DW$150, DW_AT_high_pc(0x00)
     680                      .dwattr DW$150, DW_AT_begin_file("src\app_XBmod_fun.c")
     681                      .dwattr DW$150, DW_AT_begin_line(0x18)
     682                      .dwattr DW$150, DW_AT_begin_column(0x06)
     683                      .dwpsn  "src\app_XBmod_fun.c",25,1
     684              
     685                      .dwfde DW$CIE
     686              
     687              ;***************************************************************
     688              ;* FNAME: _app_XBmod_data_sort          FR SIZE:  14           *
     689              ;*                                                             *
     690              ;* FUNCTION ENVIRONMENT                                        *
TMS320C2000 COFF Assembler PC v4.1.3 Thu Nov 29 16:02:59 2012

Tools Copyright (c) 1996-2006 Texas Instruments Incorporated
C:\DOCUME~1\ADMINI~1\LOCALS~1\Temp\TI4002                            PAGE   14

     691              ;*                                                             *
     692              ;* FUNCTION PROPERTIES                                         *
     693              ;*                            2 Parameter, 12 Auto,  0 SOE     *
     694              ;***************************************************************
     695              
     696              _app_XBmod_data_sort:
     697                      .dwcfa  0x1d, -2
     698                      .dwcfa  0x1c, 26, 0
     699                      .dwcfa  0x09, 40, 26
     700 0000001d FE0E          ADDB      SP,#14
     701                      .dwcfa  0x1d, -16
     702              ;* AL    assigned to _flag
     703              DW$151  .dwtag  DW_TAG_formal_parameter, DW_AT_name("flag"), DW_AT_symbol_name("_flag")
     704                      .dwattr DW$151, DW_AT_type(*DW$T$19)
     705                      .dwattr DW$151, DW_AT_location[DW_OP_reg0]
     706              ;* AR4   assigned to _pdata
     707              DW$152  .dwtag  DW_TAG_formal_parameter, DW_AT_name("pdata"), DW_AT_symbol_name("_pdata")
     708                      .dwattr DW$152, DW_AT_type(*DW$T$86)
     709                      .dwattr DW$152, DW_AT_location[DW_OP_reg12]
     710              ;* AR5   assigned to _fdata
     711              DW$153  .dwtag  DW_TAG_formal_parameter, DW_AT_name("fdata"), DW_AT_symbol_name("_fdata")
     712                      .dwattr DW$153, DW_AT_type(*DW$T$87)
     713                      .dwattr DW$153, DW_AT_location[DW_OP_reg14]
     714              DW$154  .dwtag  DW_TAG_variable, DW_AT_name("flag"), DW_AT_symbol_name("_flag")
     715                      .dwattr DW$154, DW_AT_type(*DW$T$19)
     716                      .dwattr DW$154, DW_AT_location[DW_OP_breg20 -3]
     717              DW$155  .dwtag  DW_TAG_variable, DW_AT_name("pdata"), DW_AT_symbol_name("_pdata")
     718                      .dwattr DW$155, DW_AT_type(*DW$T$86)
     719                      .dwattr DW$155, DW_AT_location[DW_OP_breg20 -6]
     720              DW$156  .dwtag  DW_TAG_variable, DW_AT_name("fdata"), DW_AT_symbol_name("_fdata")
     721                      .dwattr DW$156, DW_AT_type(*DW$T$87)
     722                      .dwattr DW$156, DW_AT_location[DW_OP_breg20 -8]
     723              DW$157  .dwtag  DW_TAG_variable, DW_AT_name("xoffset"), DW_AT_symbol_name("_xoffset")
     724                      .dwattr DW$157, DW_AT_type(*DW$T$19)
     725                      .dwattr DW$157, DW_AT_location[DW_OP_breg20 -9]
     726              DW$158  .dwtag  DW_TAG_variable, DW_AT_name("yoffset"), DW_AT_symbol_name("_yoffset")
     727                      .dwattr DW$158, DW_AT_type(*DW$T$19)
     728                      .dwattr DW$158, DW_AT_location[DW_OP_breg20 -10]
     729              DW$159  .dwtag  DW_TAG_variable, DW_AT_name("bak"), DW_AT_symbol_name("_bak")
     730                      .dwattr DW$159, DW_AT_type(*DW$T$85)
     731                      .dwattr DW$159, DW_AT_location[DW_OP_breg20 -14]
     732 0000001e A048          MOVL      *-SP[8],XAR5          ; |25| 
     733 0000001f A846          MOVL      *-SP[6],XAR4          ; |25| 
     734 00000020 9643          MOV       *-SP[3],AL            ; |25| 
     735                      .dwpsn  "src\app_XBmod_fun.c",28,8
     736 00000021 2B49          MOV       *-SP[9],#0            ; |28| 
     737                      .dwpsn  "src\app_XBmod_fun.c",28,18
     738 00000022 9249          MOV       AL,*-SP[9]            ; |28| 
     739 00000023 5234          CMPB      AL,#52                ; |28| 
     740 00000024 6718          B         L2,HIS                ; |28| 
     741                      ; branchcc occurs ; |28| 
     742              L1:    
     743              DW$L$_app_XBmod_data_sort$2$B:
     744                      .dwpsn  "src\app_XBmod_fun.c",30,7
     745 00000025 8A46          MOVL      XAR4,*-SP[6]          ; |30| 
TMS320C2000 COFF Assembler PC v4.1.3 Thu Nov 29 16:02:59 2012

Tools Copyright (c) 1996-2006 Texas Instruments Incorporated
C:\DOCUME~1\ADMINI~1\LOCALS~1\Temp\TI4002                            PAGE   15

     746 00000026 0E49          MOVU      ACC,*-SP[9]
     747 00000027 FF31          LSL       ACC,2                 ; |30| 
     748 00000028 5601          ADDL      XAR4,ACC
         00000029 00A4 
     749 0000002a 9249          MOV       AL,*-SP[9]            ; |30| 
     750 0000002b 96C4          MOV       *+XAR4[0],AL          ; |30| 
     751                      .dwpsn  "src\app_XBmod_fun.c",31,4
     752 0000002c 8A48          MOVL      XAR4,*-SP[8]          ; |31| 
     753 0000002d 0E49          MOVU      ACC,*-SP[9]
     754 0000002e FF30          LSL       ACC,1                 ; |31| 
     755 0000002f 5601          ADDL      XAR4,ACC
         00000030 00A4 
     756 00000031 C4C4          MOVL      XAR6,*+XAR4[0]        ; |31| 
     757 00000032 8A46          MOVL      XAR4,*-SP[6]          ; |31| 
     758 00000033 0E49          MOVU      ACC,*-SP[9]
     759 00000034 FF31          LSL       ACC,2                 ; |31| 
     760 00000035 5601          ADDL      XAR4,ACC
         00000036 00A4 
     761 00000037 C2D4          MOVL      *+XAR4[2],XAR6        ; |31| 
     762                      .dwpsn  "src\app_XBmod_fun.c",28,29
     763 00000038 0A49          INC       *-SP[9]               ; |28| 
     764                      .dwpsn  "src\app_XBmod_fun.c",28,18
     765 00000039 9249          MOV       AL,*-SP[9]            ; |28| 
     766 0000003a 5234          CMPB      AL,#52                ; |28| 
     767 0000003b 68EA          B         L1,LO                 ; |28| 
     768                      ; branchcc occurs ; |28| 
     769              DW$L$_app_XBmod_data_sort$2$E:
     770              L2:    
     771                      .dwpsn  "src\app_XBmod_fun.c",33,4
     772 0000003c 9243          MOV       AL,*-SP[3]            ; |33| 
     773 0000003d 5201          CMPB      AL,#1                 ; |33| 
     774 0000003e ED43          BF        L7,NEQ                ; |33| 
     775                      ; branchcc occurs ; |33| 
     776                      .dwpsn  "src\app_XBmod_fun.c",35,10
     777 0000003f 9A02          MOVB      AL,#2                 ; |35| 
     778 00000040 9649          MOV       *-SP[9],AL            ; |35| 
     779                      .dwpsn  "src\app_XBmod_fun.c",35,20
     780 00000041 5234          CMPB      AL,#52                ; |35| 
     781 00000042 673F          B         L7,HIS                ; |35| 
     782                      ; branchcc occurs ; |35| 
     783              L3:    
     784              DW$L$_app_XBmod_data_sort$5$B:
     785                      .dwpsn  "src\app_XBmod_fun.c",37,11
     786 00000043 9C01          ADDB      AL,#1                 ; |37| 
     787 00000044 964A          MOV       *-SP[10],AL           ; |37| 
     788                      .dwpsn  "src\app_XBmod_fun.c",37,29
     789 00000045 5234          CMPB      AL,#52                ; |37| 
     790 00000046 6737          B         L6,HIS                ; |37| 
     791                      ; branchcc occurs ; |37| 
     792              DW$L$_app_XBmod_data_sort$5$E:
     793              L4:    
     794              DW$L$_app_XBmod_data_sort$6$B:
     795                      .dwpsn  "src\app_XBmod_fun.c",39,14
     796 00000047 8A46          MOVL      XAR4,*-SP[6]          ; |39| 
     797 00000048 0E49          MOVU      ACC,*-SP[9]
TMS320C2000 COFF Assembler PC v4.1.3 Thu Nov 29 16:02:59 2012

Tools Copyright (c) 1996-2006 Texas Instruments Incorporated
C:\DOCUME~1\ADMINI~1\LOCALS~1\Temp\TI4002                            PAGE   16

     798 00000049 FF31          LSL       ACC,2                 ; |39| 
     799 0000004a 5601          ADDL      XAR4,ACC
         0000004b 00A4 
     800 0000004c 06D4          MOVL      ACC,*+XAR4[2]         ; |39| 
     801 0000004d 1E42          MOVL      *-SP[2],ACC           ; |39| 
     802 0000004e 8A46          MOVL      XAR4,*-SP[6]          ; |39| 
     803 0000004f 0E4A          MOVU      ACC,*-SP[10]
     804 00000050 FF31          LSL       ACC,2                 ; |39| 
     805 00000051 5601          ADDL      XAR4,ACC
         00000052 00A4 
     806 00000053 06D4          MOVL      ACC,*+XAR4[2]         ; |39| 
     807 00000054 7640!         LCR       #FS$$CMP              ; |39| 
         00000055 0000 
     808                      ; call occurs [#FS$$CMP] ; |39| 
     809 00000056 5200          CMPB      AL,#0                 ; |39| 
     810 00000057 6522          B         L5,LEQ                ; |39| 
     811                      ; branchcc occurs ; |39| 
     812              DW$L$_app_XBmod_data_sort$6$E:
     813              DW$L$_app_XBmod_data_sort$7$B:
     814                      .dwpsn  "src\app_XBmod_fun.c",41,20
     815 00000058 8346          MOVL      XAR5,*-SP[6]          ; |41| 
     816 00000059 5CAD          MOVZ      AR4,SP                ; |41| 
     817 0000005a 0E49          MOVU      ACC,*-SP[9]
     818 0000005b FF31          LSL       ACC,2                 ; |41| 
     819 0000005c 5601          ADDL      XAR5,ACC
         0000005d 00A5 
     820 0000005e DC8E          SUBB      XAR4,#14              ; |41| 
     821 0000005f 9A04          MOVB      AL,#4                 ; |41| 
     822 00000060 7640!         LCR       #_global_memcpy       ; |41| 
         00000061 0000 
     823                      ; call occurs [#_global_memcpy] ; |41| 
     824                      .dwpsn  "src\app_XBmod_fun.c",42,20
     825 00000062 8A46          MOVL      XAR4,*-SP[6]          ; |42| 
     826 00000063 0E49          MOVU      ACC,*-SP[9]
     827 00000064 FF31          LSL       ACC,2                 ; |42| 
     828 00000065 8346          MOVL      XAR5,*-SP[6]          ; |42| 
     829 00000066 5601          ADDL      XAR4,ACC
         00000067 00A4 
     830 00000068 0E4A          MOVU      ACC,*-SP[10]
     831 00000069 FF31          LSL       ACC,2                 ; |42| 
     832 0000006a 5601          ADDL      XAR5,ACC
         0000006b 00A5 
     833 0000006c 9A04          MOVB      AL,#4                 ; |42| 
     834 0000006d 7640!         LCR       #_global_memcpy       ; |42| 
         0000006e 0000 
     835                      ; call occurs [#_global_memcpy] ; |42| 
     836                      .dwpsn  "src\app_XBmod_fun.c",43,20
     837 0000006f 8A46          MOVL      XAR4,*-SP[6]          ; |43| 
     838 00000070 5DAD          MOVZ      AR5,SP                ; |43| 
     839 00000071 0E4A          MOVU      ACC,*-SP[10]
     840 00000072 FF31          LSL       ACC,2                 ; |43| 
     841 00000073 5601          ADDL      XAR4,ACC
         00000074 00A4 
     842 00000075 DD8E          SUBB      XAR5,#14              ; |43| 
     843 00000076 9A04          MOVB      AL,#4                 ; |43| 
TMS320C2000 COFF Assembler PC v4.1.3 Thu Nov 29 16:02:59 2012

Tools Copyright (c) 1996-2006 Texas Instruments Incorporated
C:\DOCUME~1\ADMINI~1\LOCALS~1\Temp\TI4002                            PAGE   17

     844 00000077 7640!         LCR       #_global_memcpy       ; |43| 
         00000078 0000 
     845                      ; call occurs [#_global_memcpy] ; |43| 
     846              DW$L$_app_XBmod_data_sort$7$E:
     847              L5:    
     848              DW$L$_app_XBmod_data_sort$8$B:
     849                      .dwpsn  "src\app_XBmod_fun.c",37,40
     850 00000079 0A4A          INC       *-SP[10]              ; |37| 
     851                      .dwpsn  "src\app_XBmod_fun.c",37,29
     852 0000007a 924A          MOV       AL,*-SP[10]           ; |37| 
     853 0000007b 5234          CMPB      AL,#52                ; |37| 
     854 0000007c 68CB          B         L4,LO                 ; |37| 
     855                      ; branchcc occurs ; |37| 
     856              DW$L$_app_XBmod_data_sort$8$E:
     857              L6:    
     858              DW$L$_app_XBmod_data_sort$9$B:
     859                      .dwpsn  "src\app_XBmod_fun.c",35,31
     860 0000007d 0A49          INC       *-SP[9]               ; |35| 
     861                      .dwpsn  "src\app_XBmod_fun.c",35,20
     862 0000007e 9249          MOV       AL,*-SP[9]            ; |35| 
     863 0000007f 5234          CMPB      AL,#52                ; |35| 
     864 00000080 68C3          B         L3,LO                 ; |35| 
     865                      ; branchcc occurs ; |35| 
     866              DW$L$_app_XBmod_data_sort$9$E:
     867                      .dwpsn  "src\app_XBmod_fun.c",48,4
     868              L7:    
     869                      .dwpsn  "src\app_XBmod_fun.c",49,1
     870 00000081 FE8E          SUBB      SP,#14
     871                      .dwcfa  0x1d, -2
     872 00000082 0006          LRETR
     873                      ; return occurs
     874              
     875              DW$160  .dwtag  DW_TAG_loop
     876                      .dwattr DW$160, DW_AT_name("C:\DOCUME~1\ADMINI~1\LOCALS~1\Temp\TI4002:L3:1:1354176179")
     877                      .dwattr DW$160, DW_AT_begin_file("src\app_XBmod_fun.c")
     878                      .dwattr DW$160, DW_AT_begin_line(0x23)
     879                      .dwattr DW$160, DW_AT_end_line(0x2e)
     880              DW$161  .dwtag  DW_TAG_loop_range
     881                      .dwattr DW$161, DW_AT_low_pc(DW$L$_app_XBmod_data_sort$5$B)
     882                      .dwattr DW$161, DW_AT_high_pc(DW$L$_app_XBmod_data_sort$5$E)
     883              DW$162  .dwtag  DW_TAG_loop_range
     884                      .dwattr DW$162, DW_AT_low_pc(DW$L$_app_XBmod_data_sort$9$B)
     885                      .dwattr DW$162, DW_AT_high_pc(DW$L$_app_XBmod_data_sort$9$E)
     886              
     887              DW$163  .dwtag  DW_TAG_loop
     888                      .dwattr DW$163, DW_AT_name("C:\DOCUME~1\ADMINI~1\LOCALS~1\Temp\TI4002:L4:2:1354176179")
     889                      .dwattr DW$163, DW_AT_begin_file("src\app_XBmod_fun.c")
     890                      .dwattr DW$163, DW_AT_begin_line(0x25)
     891                      .dwattr DW$163, DW_AT_end_line(0x2d)
     892              DW$164  .dwtag  DW_TAG_loop_range
     893                      .dwattr DW$164, DW_AT_low_pc(DW$L$_app_XBmod_data_sort$6$B)
     894                      .dwattr DW$164, DW_AT_high_pc(DW$L$_app_XBmod_data_sort$6$E)
     895              DW$165  .dwtag  DW_TAG_loop_range
     896                      .dwattr DW$165, DW_AT_low_pc(DW$L$_app_XBmod_data_sort$7$B)
     897                      .dwattr DW$165, DW_AT_high_pc(DW$L$_app_XBmod_data_sort$7$E)
TMS320C2000 COFF Assembler PC v4.1.3 Thu Nov 29 16:02:59 2012

Tools Copyright (c) 1996-2006 Texas Instruments Incorporated
C:\DOCUME~1\ADMINI~1\LOCALS~1\Temp\TI4002                            PAGE   18

     898              DW$166  .dwtag  DW_TAG_loop_range
     899                      .dwattr DW$166, DW_AT_low_pc(DW$L$_app_XBmod_data_sort$8$B)
     900                      .dwattr DW$166, DW_AT_high_pc(DW$L$_app_XBmod_data_sort$8$E)
     901                      .dwendtag DW$163
     902              
     903                      .dwendtag DW$160
     904              
     905              
     906              DW$167  .dwtag  DW_TAG_loop
     907                      .dwattr DW$167, DW_AT_name("C:\DOCUME~1\ADMINI~1\LOCALS~1\Temp\TI4002:L1:1:1354176179")
     908                      .dwattr DW$167, DW_AT_begin_file("src\app_XBmod_fun.c")
     909                      .dwattr DW$167, DW_AT_begin_line(0x1c)
     910                      .dwattr DW$167, DW_AT_end_line(0x20)
     911              DW$168  .dwtag  DW_TAG_loop_range
     912                      .dwattr DW$168, DW_AT_low_pc(DW$L$_app_XBmod_data_sort$2$B)
     913                      .dwattr DW$168, DW_AT_high_pc(DW$L$_app_XBmod_data_sort$2$E)
     914                      .dwendtag DW$167
     915              
     916                      .dwattr DW$150, DW_AT_end_file("src\app_XBmod_fun.c")
     917                      .dwattr DW$150, DW_AT_end_line(0x31)
     918                      .dwattr DW$150, DW_AT_end_column(0x01)
     919                      .dwendentry
     920                      .dwendtag DW$150
     921              
     922 00000083               .sect   ".text"
     923                      .global _app_XBmod_GETmax
     924              
     925              DW$169  .dwtag  DW_TAG_subprogram, DW_AT_name("app_XBmod_GETmax"), DW_AT_symbol_name("_app_XBmod_GETmax")
     926                      .dwattr DW$169, DW_AT_low_pc(_app_XBmod_GETmax)
     927                      .dwattr DW$169, DW_AT_high_pc(0x00)
     928                      .dwattr DW$169, DW_AT_begin_file("src\app_XBmod_fun.c")
     929                      .dwattr DW$169, DW_AT_begin_line(0x38)
     930                      .dwattr DW$169, DW_AT_begin_column(0x06)
     931                      .dwpsn  "src\app_XBmod_fun.c",57,1
     932              
     933                      .dwfde DW$CIE
     934              
     935              ;***************************************************************
     936              ;* FNAME: _app_XBmod_GETmax             FR SIZE:  10           *
     937              ;*                                                             *
     938              ;* FUNCTION ENVIRONMENT                                        *
     939              ;*                                                             *
     940              ;* FUNCTION PROPERTIES                                         *
     941              ;*                            2 Parameter,  8 Auto,  0 SOE     *
     942              ;***************************************************************
     943              
     944              _app_XBmod_GETmax:
     945                      .dwcfa  0x1d, -2
     946                      .dwcfa  0x1c, 26, 0
     947                      .dwcfa  0x09, 40, 26
     948 00000083 FE0A          ADDB      SP,#10
     949                      .dwcfa  0x1d, -12
     950              ;* AR4   assigned to _pmax
     951              DW$170  .dwtag  DW_TAG_formal_parameter, DW_AT_name("pmax"), DW_AT_symbol_name("_pmax")
     952                      .dwattr DW$170, DW_AT_type(*DW$T$87)
TMS320C2000 COFF Assembler PC v4.1.3 Thu Nov 29 16:02:59 2012

Tools Copyright (c) 1996-2006 Texas Instruments Incorporated
C:\DOCUME~1\ADMINI~1\LOCALS~1\Temp\TI4002                            PAGE   19

     953                      .dwattr DW$170, DW_AT_location[DW_OP_reg12]
     954              ;* AR5   assigned to _fdata
     955              DW$171  .dwtag  DW_TAG_formal_parameter, DW_AT_name("fdata"), DW_AT_symbol_name("_fdata")
     956                      .dwattr DW$171, DW_AT_type(*DW$T$87)
     957                      .dwattr DW$171, DW_AT_location[DW_OP_reg14]
     958              DW$172  .dwtag  DW_TAG_variable, DW_AT_name("pmax"), DW_AT_symbol_name("_pmax")
     959                      .dwattr DW$172, DW_AT_type(*DW$T$87)
     960                      .dwattr DW$172, DW_AT_location[DW_OP_breg20 -4]
     961              DW$173  .dwtag  DW_TAG_variable, DW_AT_name("fdata"), DW_AT_symbol_name("_fdata")
     962                      .dwattr DW$173, DW_AT_type(*DW$T$87)
     963                      .dwattr DW$173, DW_AT_location[DW_OP_breg20 -6]
     964              DW$174  .dwtag  DW_TAG_variable, DW_AT_name("xoffset"), DW_AT_symbol_name("_xoffset")
     965                      .dwattr DW$174, DW_AT_type(*DW$T$19)
     966                      .dwattr DW$174, DW_AT_location[DW_OP_breg20 -7]
     967              DW$175  .dwtag  DW_TAG_variable, DW_AT_name("fbak"), DW_AT_symbol_name("_fbak")
     968                      .dwattr DW$175, DW_AT_type(*DW$T$16)
     969                      .dwattr DW$175, DW_AT_location[DW_OP_breg20 -10]
     970 00000084 A046          MOVL      *-SP[6],XAR5          ; |57| 
     971 00000085 A844          MOVL      *-SP[4],XAR4          ; |57| 
     972                      .dwpsn  "src\app_XBmod_fun.c",60,2
     973 00000086 8A46          MOVL      XAR4,*-SP[6]          ; |60| 
     974 00000087 0E47          MOVU      ACC,*-SP[7]
     975 00000088 FF30          LSL       ACC,1                 ; |60| 
     976 00000089 5601          ADDL      XAR4,ACC
         0000008a 00A4 
     977 0000008b 06C4          MOVL      ACC,*+XAR4[0]         ; |60| 
     978 0000008c 1E4A          MOVL      *-SP[10],ACC          ; |60| 
     979                      .dwpsn  "src\app_XBmod_fun.c",61,6
     980 0000008d 9A02          MOVB      AL,#2                 ; |61| 
     981 0000008e 9647          MOV       *-SP[7],AL            ; |61| 
     982                      .dwpsn  "src\app_XBmod_fun.c",61,16
     983 0000008f 5234          CMPB      AL,#52                ; |61| 
     984 00000090 671A          B         L11,HIS               ; |61| 
     985                      ; branchcc occurs ; |61| 
     986              L8:    
     987              DW$L$_app_XBmod_GETmax$2$B:
     988                      .dwpsn  "src\app_XBmod_fun.c",63,10
     989 00000091 064A          MOVL      ACC,*-SP[10]          ; |63| 
     990 00000092 1E42          MOVL      *-SP[2],ACC           ; |63| 
     991 00000093 8A46          MOVL      XAR4,*-SP[6]          ; |63| 
     992 00000094 0E47          MOVU      ACC,*-SP[7]
     993 00000095 FF30          LSL       ACC,1                 ; |63| 
     994 00000096 5601          ADDL      XAR4,ACC
         00000097 00A4 
     995 00000098 06C4          MOVL      ACC,*+XAR4[0]         ; |63| 
     996 00000099 7640!         LCR       #FS$$CMP              ; |63| 
         0000009a 0000 
     997                      ; call occurs [#FS$$CMP] ; |63| 
     998 0000009b 5200          CMPB      AL,#0                 ; |63| 
     999 0000009c 6508          B         L9,LEQ                ; |63| 
    1000                      ; branchcc occurs ; |63| 
    1001 0000009d       DW$L$_app_XBmod_GETmax$2$E:
    1002 0000009d       DW$L$_app_XBmod_GETmax$3$B:
    1003 0000009d 8A46          MOVL      XAR4,*-SP[6]          ; |63| 
    1004 0000009e 0E47          MOVU      ACC,*-SP[7]
TMS320C2000 COFF Assembler PC v4.1.3 Thu Nov 29 16:02:59 2012

Tools Copyright (c) 1996-2006 Texas Instruments Incorporated
C:\DOCUME~1\ADMINI~1\LOCALS~1\Temp\TI4002                            PAGE   20

    1005 0000009f FF30          LSL       ACC,1                 ; |63| 
    1006 000000a0 5601          ADDL      XAR4,ACC
         000000a1 00A4 
    1007 000000a2 06C4          MOVL      ACC,*+XAR4[0]         ; |63| 
    1008 000000a3 6F02          B         L10,UNC               ; |63| 
    1009                      ; branch occurs ; |63| 
    1010 000000a4       DW$L$_app_XBmod_GETmax$3$E:
    1011 000000a4       L9:    
    1012 000000a4       DW$L$_app_XBmod_GETmax$4$B:
    1013 000000a4 064A          MOVL      ACC,*-SP[10]          ; |63| 
    1014 000000a5       DW$L$_app_XBmod_GETmax$4$E:
    1015 000000a5       L10:    
    1016 000000a5       DW$L$_app_XBmod_GETmax$5$B:
    1017 000000a5 1E4A          MOVL      *-SP[10],ACC          ; |63| 
    1018                      .dwpsn  "src\app_XBmod_fun.c",61,27
    1019 000000a6 0A47          INC       *-SP[7]               ; |61| 
    1020                      .dwpsn  "src\app_XBmod_fun.c",61,16
    1021 000000a7 9247          MOV       AL,*-SP[7]            ; |61| 
    1022 000000a8 5234          CMPB      AL,#52                ; |61| 
    1023 000000a9 68E8          B         L8,LO                 ; |61| 
    1024                      ; branchcc occurs ; |61| 
    1025              DW$L$_app_XBmod_GETmax$5$E:
    1026              L11:    
    1027                      .dwpsn  "src\app_XBmod_fun.c",65,2
    1028 000000aa 064A          MOVL      ACC,*-SP[10]          ; |65| 
    1029 000000ab 8A44          MOVL      XAR4,*-SP[4]          ; |65| 
    1030 000000ac 1EC4          MOVL      *+XAR4[0],ACC         ; |65| 
    1031                      .dwpsn  "src\app_XBmod_fun.c",66,2
    1032                      .dwpsn  "src\app_XBmod_fun.c",67,1
    1033 000000ad FE8A          SUBB      SP,#10
    1034                      .dwcfa  0x1d, -2
    1035 000000ae 0006          LRETR
    1036                      ; return occurs
    1037              
    1038              DW$176  .dwtag  DW_TAG_loop
    1039                      .dwattr DW$176, DW_AT_name("C:\DOCUME~1\ADMINI~1\LOCALS~1\Temp\TI4002:L8:1:1354176179")
    1040                      .dwattr DW$176, DW_AT_begin_file("src\app_XBmod_fun.c")
    1041                      .dwattr DW$176, DW_AT_begin_line(0x3d)
    1042                      .dwattr DW$176, DW_AT_end_line(0x40)
    1043              DW$177  .dwtag  DW_TAG_loop_range
    1044                      .dwattr DW$177, DW_AT_low_pc(DW$L$_app_XBmod_GETmax$2$B)
    1045                      .dwattr DW$177, DW_AT_high_pc(DW$L$_app_XBmod_GETmax$2$E)
    1046              DW$178  .dwtag  DW_TAG_loop_range
    1047                      .dwattr DW$178, DW_AT_low_pc(DW$L$_app_XBmod_GETmax$3$B)
    1048                      .dwattr DW$178, DW_AT_high_pc(DW$L$_app_XBmod_GETmax$3$E)
    1049              DW$179  .dwtag  DW_TAG_loop_range
    1050                      .dwattr DW$179, DW_AT_low_pc(DW$L$_app_XBmod_GETmax$4$B)
    1051                      .dwattr DW$179, DW_AT_high_pc(DW$L$_app_XBmod_GETmax$4$E)
    1052              DW$180  .dwtag  DW_TAG_loop_range
    1053                      .dwattr DW$180, DW_AT_low_pc(DW$L$_app_XBmod_GETmax$5$B)
    1054                      .dwattr DW$180, DW_AT_high_pc(DW$L$_app_XBmod_GETmax$5$E)
    1055                      .dwendtag DW$176
    1056              
    1057                      .dwattr DW$169, DW_AT_end_file("src\app_XBmod_fun.c")
    1058                      .dwattr DW$169, DW_AT_end_line(0x43)
TMS320C2000 COFF Assembler PC v4.1.3 Thu Nov 29 16:02:59 2012

Tools Copyright (c) 1996-2006 Texas Instruments Incorporated
C:\DOCUME~1\ADMINI~1\LOCALS~1\Temp\TI4002                            PAGE   21

    1059                      .dwattr DW$169, DW_AT_end_column(0x01)
    1060                      .dwendentry
    1061                      .dwendtag DW$169
    1062              
    1063 000000af               .sect   ".text"
    1064                      .global _app_XBmod_GETlen
    1065              
    1066              DW$181  .dwtag  DW_TAG_subprogram, DW_AT_name("app_XBmod_GETlen"), DW_AT_symbol_name("_app_XBmod_GETlen")
    1067                      .dwattr DW$181, DW_AT_low_pc(_app_XBmod_GETlen)
    1068                      .dwattr DW$181, DW_AT_high_pc(0x00)
    1069                      .dwattr DW$181, DW_AT_begin_file("src\app_XBmod_fun.c")
    1070                      .dwattr DW$181, DW_AT_begin_line(0x44)
    1071                      .dwattr DW$181, DW_AT_begin_column(0x05)
    1072                      .dwpsn  "src\app_XBmod_fun.c",69,1
    1073              
    1074                      .dwfde DW$CIE
    1075              
    1076              ;***************************************************************
    1077              ;* FNAME: _app_XBmod_GETlen             FR SIZE:   8           *
    1078              ;*                                                             *
    1079              ;* FUNCTION ENVIRONMENT                                        *
    1080              ;*                                                             *
    1081              ;* FUNCTION PROPERTIES                                         *
    1082              ;*                            2 Parameter,  6 Auto,  0 SOE     *
    1083              ;***************************************************************
    1084              
    1085              _app_XBmod_GETlen:
    1086                      .dwcfa  0x1d, -2
    1087                      .dwcfa  0x1c, 26, 0
    1088                      .dwcfa  0x09, 40, 26
    1089 000000af FE08          ADDB      SP,#8
    1090                      .dwcfa  0x1d, -10
    1091              ;* AL    assigned to _data
    1092              DW$182  .dwtag  DW_TAG_formal_parameter, DW_AT_name("data"), DW_AT_symbol_name("_data")
    1093                      .dwattr DW$182, DW_AT_type(*DW$T$16)
    1094                      .dwattr DW$182, DW_AT_location[DW_OP_reg0]
    1095              ;* AR4   assigned to _max
    1096              DW$183  .dwtag  DW_TAG_formal_parameter, DW_AT_name("max"), DW_AT_symbol_name("_max")
    1097                      .dwattr DW$183, DW_AT_type(*DW$T$10)
    1098                      .dwattr DW$183, DW_AT_location[DW_OP_reg12]
    1099              DW$184  .dwtag  DW_TAG_formal_parameter, DW_AT_name("fmax"), DW_AT_symbol_name("_fmax")
    1100                      .dwattr DW$184, DW_AT_type(*DW$T$16)
    1101                      .dwattr DW$184, DW_AT_location[DW_OP_breg20 -12]
    1102              DW$185  .dwtag  DW_TAG_variable, DW_AT_name("data"), DW_AT_symbol_name("_data")
    1103                      .dwattr DW$185, DW_AT_type(*DW$T$16)
    1104                      .dwattr DW$185, DW_AT_location[DW_OP_breg20 -4]
    1105              DW$186  .dwtag  DW_TAG_variable, DW_AT_name("max"), DW_AT_symbol_name("_max")
    1106                      .dwattr DW$186, DW_AT_type(*DW$T$10)
    1107                      .dwattr DW$186, DW_AT_location[DW_OP_breg20 -5]
    1108              DW$187  .dwtag  DW_TAG_variable, DW_AT_name("relen"), DW_AT_symbol_name("_relen")
    1109                      .dwattr DW$187, DW_AT_type(*DW$T$16)
    1110                      .dwattr DW$187, DW_AT_location[DW_OP_breg20 -8]
    1111 000000b0 7C45          MOV       *-SP[5],AR4           ; |69| 
    1112 000000b1 1E44          MOVL      *-SP[4],ACC           ; |69| 
    1113                      .dwpsn  "src\app_XBmod_fun.c",71,5
TMS320C2000 COFF Assembler PC v4.1.3 Thu Nov 29 16:02:59 2012

Tools Copyright (c) 1996-2006 Texas Instruments Incorporated
C:\DOCUME~1\ADMINI~1\LOCALS~1\Temp\TI4002                            PAGE   22

    1114 000000b2 9245          MOV       AL,*-SP[5]            ; |71| 
    1115 000000b3 7640!         LCR       #I$$TOFS              ; |71| 
         000000b4 0000 
    1116                      ; call occurs [#I$$TOFS] ; |71| 
    1117 000000b5 1E42          MOVL      *-SP[2],ACC           ; |71| 
    1118 000000b6 0644          MOVL      ACC,*-SP[4]           ; |71| 
    1119 000000b7 7640!         LCR       #FS$$MPY              ; |71| 
         000000b8 0000 
    1120                      ; call occurs [#FS$$MPY] ; |71| 
    1121 000000b9 C44C          MOVL      XAR6,*-SP[12]         ; |71| 
    1122 000000ba C242          MOVL      *-SP[2],XAR6          ; |71| 
    1123 000000bb 7640!         LCR       #FS$$DIV              ; |71| 
         000000bc 0000 
    1124                      ; call occurs [#FS$$DIV] ; |71| 
    1125 000000bd 1E48          MOVL      *-SP[8],ACC           ; |71| 
    1126                      .dwpsn  "src\app_XBmod_fun.c",72,2
    1127 000000be FF2F          MOV       ACC,#32512 << 15
         000000bf 7F00 
    1128 000000c0 1E42          MOVL      *-SP[2],ACC           ; |72| 
    1129 000000c1 0648          MOVL      ACC,*-SP[8]           ; |72| 
    1130 000000c2 7640!         LCR       #FS$$CMP              ; |72| 
         000000c3 0000 
    1131                      ; call occurs [#FS$$CMP] ; |72| 
    1132 000000c4 5200          CMPB      AL,#0                 ; |72| 
    1133 000000c5 630C          B         L12,GEQ               ; |72| 
    1134                      ; branchcc occurs ; |72| 
    1135 000000c6 9A00          MOV       AL,#0
    1136 000000c7 9B00          MOV       AH,#0
    1137 000000c8 1E42          MOVL      *-SP[2],ACC           ; |72| 
    1138 000000c9 0644          MOVL      ACC,*-SP[4]           ; |72| 
    1139 000000ca 7640!         LCR       #FS$$CMP              ; |72| 
         000000cb 0000 
    1140                      ; call occurs [#FS$$CMP] ; |72| 
    1141 000000cc 5200          CMPB      AL,#0                 ; |72| 
    1142 000000cd EC04          BF        L12,EQ                ; |72| 
    1143                      ; branchcc occurs ; |72| 
    1144                      .dwpsn  "src\app_XBmod_fun.c",74,8
    1145 000000ce FF2F          MOV       ACC,#32512 << 15
         000000cf 7F00 
    1146 000000d0 1E48          MOVL      *-SP[8],ACC           ; |74| 
    1147              L12:    
    1148                      .dwpsn  "src\app_XBmod_fun.c",76,2
    1149 000000d1 0648          MOVL      ACC,*-SP[8]           ; |76| 
    1150 000000d2 7640!         LCR       #FS$$TOI              ; |76| 
         000000d3 0000 
    1151                      ; call occurs [#FS$$TOI] ; |76| 
    1152                      .dwpsn  "src\app_XBmod_fun.c",77,1
    1153 000000d4 FE88          SUBB      SP,#8                 ; |76| 
    1154                      .dwcfa  0x1d, -2
    1155 000000d5 0006          LRETR
    1156                      ; return occurs
    1157                      .dwattr DW$181, DW_AT_end_file("src\app_XBmod_fun.c")
    1158                      .dwattr DW$181, DW_AT_end_line(0x4d)
    1159                      .dwattr DW$181, DW_AT_end_column(0x01)
    1160                      .dwendentry
TMS320C2000 COFF Assembler PC v4.1.3 Thu Nov 29 16:02:59 2012

Tools Copyright (c) 1996-2006 Texas Instruments Incorporated
C:\DOCUME~1\ADMINI~1\LOCALS~1\Temp\TI4002                            PAGE   23

    1161                      .dwendtag DW$181
    1162              
    1163 000000d6               .sect   ".text"
    1164                      .global _app_XBmod_graph_main_task
    1165              
    1166              DW$188  .dwtag  DW_TAG_subprogram, DW_AT_name("app_XBmod_graph_main_task"), DW_AT_symbol_name("_app_XBmod_gra
    1167                      .dwattr DW$188, DW_AT_low_pc(_app_XBmod_graph_main_task)
    1168                      .dwattr DW$188, DW_AT_high_pc(0x00)
    1169                      .dwattr DW$188, DW_AT_begin_file("src\app_XBmod_fun.c")
    1170                      .dwattr DW$188, DW_AT_begin_line(0x56)
    1171                      .dwattr DW$188, DW_AT_begin_column(0x06)
    1172                      .dwpsn  "src\app_XBmod_fun.c",87,2
    1173              
    1174                      .dwfde DW$CIE
    1175              
    1176              ;***************************************************************
    1177              ;* FNAME: _app_XBmod_graph_main_task    FR SIZE:  26           *
    1178              ;*                                                             *
    1179              ;* FUNCTION ENVIRONMENT                                        *
    1180              ;*                                                             *
    1181              ;* FUNCTION PROPERTIES                                         *
    1182              ;*                            2 Parameter, 24 Auto,  0 SOE     *
    1183              ;***************************************************************
    1184              
    1185              _app_XBmod_graph_main_task:
    1186                      .dwcfa  0x1d, -2
    1187                      .dwcfa  0x1c, 26, 0
    1188                      .dwcfa  0x09, 40, 26
    1189 000000d6 FE1A          ADDB      SP,#26
    1190                      .dwcfa  0x1d, -28
    1191              ;* AR4   assigned to _arg
    1192              DW$189  .dwtag  DW_TAG_formal_parameter, DW_AT_name("arg"), DW_AT_symbol_name("_arg")
    1193                      .dwattr DW$189, DW_AT_type(*DW$T$3)
    1194                      .dwattr DW$189, DW_AT_location[DW_OP_reg12]
    1195              DW$190  .dwtag  DW_TAG_variable, DW_AT_name("arg"), DW_AT_symbol_name("_arg")
    1196                      .dwattr DW$190, DW_AT_type(*DW$T$3)
    1197                      .dwattr DW$190, DW_AT_location[DW_OP_breg20 -4]
    1198              DW$191  .dwtag  DW_TAG_variable, DW_AT_name("key_buf"), DW_AT_symbol_name("_key_buf")
    1199                      .dwattr DW$191, DW_AT_type(*DW$T$6)
    1200                      .dwattr DW$191, DW_AT_location[DW_OP_breg20 -5]
    1201              DW$192  .dwtag  DW_TAG_variable, DW_AT_name("dl_flag"), DW_AT_symbol_name("_dl_flag")
    1202                      .dwattr DW$192, DW_AT_type(*DW$T$156)
    1203                      .dwattr DW$192, DW_AT_location[DW_OP_breg20 -18]
    1204              DW$193  .dwtag  DW_TAG_variable, DW_AT_name("cnt"), DW_AT_symbol_name("_cnt")
    1205                      .dwattr DW$193, DW_AT_type(*DW$T$19)
    1206                      .dwattr DW$193, DW_AT_location[DW_OP_breg20 -19]
    1207              DW$194  .dwtag  DW_TAG_variable, DW_AT_name("phase"), DW_AT_symbol_name("_phase")
    1208                      .dwattr DW$194, DW_AT_type(*DW$T$19)
    1209                      .dwattr DW$194, DW_AT_location[DW_OP_breg20 -20]
    1210              DW$195  .dwtag  DW_TAG_variable, DW_AT_name("start_n"), DW_AT_symbol_name("_start_n")
    1211                      .dwattr DW$195, DW_AT_type(*DW$T$10)
    1212                      .dwattr DW$195, DW_AT_location[DW_OP_breg20 -21]
    1213              DW$196  .dwtag  DW_TAG_variable, DW_AT_name("end_n"), DW_AT_symbol_name("_end_n")
    1214                      .dwattr DW$196, DW_AT_type(*DW$T$10)
    1215                      .dwattr DW$196, DW_AT_location[DW_OP_breg20 -22]
TMS320C2000 COFF Assembler PC v4.1.3 Thu Nov 29 16:02:59 2012

Tools Copyright (c) 1996-2006 Texas Instruments Incorporated
C:\DOCUME~1\ADMINI~1\LOCALS~1\Temp\TI4002                            PAGE   24

    1216              DW$197  .dwtag  DW_TAG_variable, DW_AT_name("page"), DW_AT_symbol_name("_page")
    1217                      .dwattr DW$197, DW_AT_type(*DW$T$10)
    1218                      .dwattr DW$197, DW_AT_location[DW_OP_breg20 -23]
    1219              DW$198  .dwtag  DW_TAG_variable, DW_AT_name("len"), DW_AT_symbol_name("_len")
    1220                      .dwattr DW$198, DW_AT_type(*DW$T$10)
    1221                      .dwattr DW$198, DW_AT_location[DW_OP_breg20 -24]
    1222              DW$199  .dwtag  DW_TAG_variable, DW_AT_name("fmax"), DW_AT_symbol_name("_fmax")
    1223                      .dwattr DW$199, DW_AT_type(*DW$T$16)
    1224                      .dwattr DW$199, DW_AT_location[DW_OP_breg20 -26]
    1225 000000d7 A844          MOVL      *-SP[4],XAR4          ; |87| 
    1226                      .dwpsn  "src\app_XBmod_fun.c",90,10
    1227 000000d8 2853          MOV       *-SP[19],#30          ; |90| 
         000000d9 001E 
    1228                      .dwpsn  "src\app_XBmod_fun.c",91,10
    1229 000000da 2854          MOV       *-SP[20],#1           ; |91| 
         000000db 0001 
    1230                      .dwpsn  "src\app_XBmod_fun.c",92,10
    1231 000000dc 2855          MOV       *-SP[21],#2           ; |92| 
         000000dd 0002 
    1232                      .dwpsn  "src\app_XBmod_fun.c",93,10
    1233 000000de 2856          MOV       *-SP[22],#22          ; |93| 
         000000df 0016 
    1234                      .dwpsn  "src\app_XBmod_fun.c",94,10
    1235 000000e0 2B57          MOV       *-SP[23],#0           ; |94| 
    1236                      .dwpsn  "src\app_XBmod_fun.c",97,2
    1237 000000e1 9A0A          MOVB      AL,#10                ; |97| 
    1238 000000e2 7640!         LCR       #_OSTimeDly           ; |97| 
         000000e3 0000 
    1239                      ; call occurs [#_OSTimeDly] ; |97| 
    1240                      .dwpsn  "src\app_XBmod_fun.c",98,2
    1241 000000e4 7640'         LCR       #_app_XBmod_graph_window_create ; |98| 
         000000e5 04AE 
    1242                      ; call occurs [#_app_XBmod_graph_window_create] ; |98| 
    1243                      .dwpsn  "src\app_XBmod_fun.c",99,2
    1244 000000e6 9254          MOV       AL,*-SP[20]           ; |99| 
    1245 000000e7 7640'         LCR       #_app_XBmod_graph_display_pahse ; |99| 
         000000e8 0473 
    1246                      ; call occurs [#_app_XBmod_graph_display_pahse] ; |99| 
    1247                      .dwpsn  "src\app_XBmod_fun.c",100,8
    1248              L13:    
    1249              DW$L$_app_XBmod_graph_main_task$2$B:
    1250                      .dwpsn  "src\app_XBmod_fun.c",102,3
    1251 000000e9 9A03          MOVB      AL,#3                 ; |102| 
    1252 000000ea 7640!         LCR       #_OSTimeDly           ; |102| 
         000000eb 0000 
    1253                      ; call occurs [#_OSTimeDly] ; |102| 
    1254                      .dwpsn  "src\app_XBmod_fun.c",103,3
    1255 000000ec 5CAD          MOVZ      AR4,SP                ; |103| 
    1256 000000ed 9A01          MOVB      AL,#1                 ; |103| 
    1257 000000ee DC85          SUBB      XAR4,#5               ; |103| 
    1258 000000ef 7640!         LCR       #_app_global_key_obtain ; |103| 
         000000f0 0000 
    1259                      ; call occurs [#_app_global_key_obtain] ; |103| 
    1260 000000f1 5201          CMPB      AL,#1                 ; |103| 
    1261 000000f2 ED65          BF        L31,NEQ               ; |103| 
TMS320C2000 COFF Assembler PC v4.1.3 Thu Nov 29 16:02:59 2012

Tools Copyright (c) 1996-2006 Texas Instruments Incorporated
C:\DOCUME~1\ADMINI~1\LOCALS~1\Temp\TI4002                            PAGE   25

    1262                      ; branchcc occurs ; |103| 
    1263              DW$L$_app_XBmod_graph_main_task$2$E:
    1264              DW$L$_app_XBmod_graph_main_task$3$B:
    1265                      .dwpsn  "src\app_XBmod_fun.c",105,4
    1266 000000f3 9245          MOV       AL,*-SP[5]            ; |105| 
    1267 000000f4 521B          CMPB      AL,#27                ; |105| 
    1268 000000f5 ED05          BF        L14,NEQ               ; |105| 
    1269                      ; branchcc occurs ; |105| 
    1270              DW$L$_app_XBmod_graph_main_task$3$E:
    1271              DW$L$_app_XBmod_graph_main_task$4$B:
    1272                      .dwpsn  "src\app_XBmod_fun.c",105,26
    1273 000000f6 9A01          MOVB      AL,#1                 ; |105| 
    1274 000000f7 7640!         LCR       #_app_module_assign_mod ; |105| 
         000000f8 0000 
    1275                      ; call occurs [#_app_module_assign_mod] ; |105| 
    1276 000000f9 6F5E          B         L31,UNC               ; |105| 
    1277                      ; branch occurs ; |105| 
    1278              DW$L$_app_XBmod_graph_main_task$4$E:
    1279              L14:    
    1280              DW$L$_app_XBmod_graph_main_task$5$B:
    1281                      .dwpsn  "src\app_XBmod_fun.c",106,9
    1282 000000fa 521C          CMPB      AL,#28                ; |106| 
    1283 000000fb ED0D          BF        L17,NEQ               ; |106| 
    1284                      ; branchcc occurs ; |106| 
    1285              DW$L$_app_XBmod_graph_main_task$5$E:
    1286              DW$L$_app_XBmod_graph_main_task$6$B:
    1287                      .dwpsn  "src\app_XBmod_fun.c",108,17
    1288 000000fc 9254          MOV       AL,*-SP[20]           ; |108| 
    1289 000000fd 5205          CMPB      AL,#5                 ; |108| 
    1290 000000fe ED03          BF        L15,NEQ               ; |108| 
    1291                      ; branchcc occurs ; |108| 
    1292 000000ff       DW$L$_app_XBmod_graph_main_task$6$E:
    1293 000000ff       DW$L$_app_XBmod_graph_main_task$7$B:
    1294 000000ff 9A00          MOVB      AL,#0
    1295 00000100 6F02          B         L16,UNC               ; |108| 
    1296                      ; branch occurs ; |108| 
    1297 00000101       DW$L$_app_XBmod_graph_main_task$7$E:
    1298 00000101       L15:    
    1299 00000101       DW$L$_app_XBmod_graph_main_task$8$B:
    1300 00000101 9C01          ADDB      AL,#1                 ; |108| 
    1301 00000102       DW$L$_app_XBmod_graph_main_task$8$E:
    1302 00000102       L16:    
    1303 00000102       DW$L$_app_XBmod_graph_main_task$9$B:
    1304 00000102 9654          MOV       *-SP[20],AL           ; |108| 
    1305                      .dwpsn  "src\app_XBmod_fun.c",109,5
    1306 00000103 7640'         LCR       #_app_XBmod_graph_display_pahse ; |109| 
         00000104 0473 
    1307                      ; call occurs [#_app_XBmod_graph_display_pahse] ; |109| 
    1308                      .dwpsn  "src\app_XBmod_fun.c",110,5
    1309 00000105 2853          MOV       *-SP[19],#49          ; |110| 
         00000106 0031 
    1310                      .dwpsn  "src\app_XBmod_fun.c",111,4
    1311 00000107 6F50          B         L31,UNC               ; |111| 
    1312                      ; branch occurs ; |111| 
    1313              DW$L$_app_XBmod_graph_main_task$9$E:
TMS320C2000 COFF Assembler PC v4.1.3 Thu Nov 29 16:02:59 2012

Tools Copyright (c) 1996-2006 Texas Instruments Incorporated
C:\DOCUME~1\ADMINI~1\LOCALS~1\Temp\TI4002                            PAGE   26

    1314              L17:    
    1315              DW$L$_app_XBmod_graph_main_task$10$B:
    1316                      .dwpsn  "src\app_XBmod_fun.c",112,9
    1317 00000108 520A          CMPB      AL,#10                ; |112| 
    1318 00000109 ED0C          BF        L20,NEQ               ; |112| 
    1319                      ; branchcc occurs ; |112| 
    1320              DW$L$_app_XBmod_graph_main_task$10$E:
    1321              DW$L$_app_XBmod_graph_main_task$11$B:
    1322                      .dwpsn  "src\app_XBmod_fun.c",114,17
    1323 0000010a 9254          MOV       AL,*-SP[20]           ; |114| 
    1324 0000010b ED03          BF        L18,NEQ               ; |114| 
    1325                      ; branchcc occurs ; |114| 
    1326 0000010c       DW$L$_app_XBmod_graph_main_task$11$E:
    1327 0000010c       DW$L$_app_XBmod_graph_main_task$12$B:
    1328 0000010c 9A05          MOVB      AL,#5                 ; |114| 
    1329 0000010d 6F02          B         L19,UNC               ; |114| 
    1330                      ; branch occurs ; |114| 
    1331 0000010e       DW$L$_app_XBmod_graph_main_task$12$E:
    1332 0000010e       L18:    
    1333 0000010e       DW$L$_app_XBmod_graph_main_task$13$B:
    1334 0000010e 9CFF          ADDB      AL,#-1
    1335 0000010f       DW$L$_app_XBmod_graph_main_task$13$E:
    1336 0000010f       L19:    
    1337 0000010f       DW$L$_app_XBmod_graph_main_task$14$B:
    1338 0000010f 9654          MOV       *-SP[20],AL           ; |114| 
    1339                      .dwpsn  "src\app_XBmod_fun.c",115,5
    1340 00000110 7640'         LCR       #_app_XBmod_graph_display_pahse ; |115| 
         00000111 0473 
    1341                      ; call occurs [#_app_XBmod_graph_display_pahse] ; |115| 
    1342                      .dwpsn  "src\app_XBmod_fun.c",116,5
    1343 00000112 2853          MOV       *-SP[19],#49          ; |116| 
         00000113 0031 
    1344                      .dwpsn  "src\app_XBmod_fun.c",117,4
    1345 00000114 6F43          B         L31,UNC               ; |117| 
    1346                      ; branch occurs ; |117| 
    1347              DW$L$_app_XBmod_graph_main_task$14$E:
    1348              L20:    
    1349              DW$L$_app_XBmod_graph_main_task$15$B:
    1350                      .dwpsn  "src\app_XBmod_fun.c",118,9
    1351 00000115 5210          CMPB      AL,#16                ; |118| 
    1352 00000116 ED1A          BF        L25,NEQ               ; |118| 
    1353                      ; branchcc occurs ; |118| 
    1354              DW$L$_app_XBmod_graph_main_task$15$E:
    1355              DW$L$_app_XBmod_graph_main_task$16$B:
    1356                      .dwpsn  "src\app_XBmod_fun.c",120,17
    1357 00000117 9257          MOV       AL,*-SP[23]           ; |120| 
    1358 00000118 5202          CMPB      AL,#2                 ; |120| 
    1359 00000119 ED03          BF        L21,NEQ               ; |120| 
    1360                      ; branchcc occurs ; |120| 
    1361 0000011a       DW$L$_app_XBmod_graph_main_task$16$E:
    1362 0000011a       DW$L$_app_XBmod_graph_main_task$17$B:
    1363 0000011a 9A00          MOVB      AL,#0
    1364 0000011b 6F02          B         L22,UNC               ; |120| 
    1365                      ; branch occurs ; |120| 
    1366 0000011c       DW$L$_app_XBmod_graph_main_task$17$E:
TMS320C2000 COFF Assembler PC v4.1.3 Thu Nov 29 16:02:59 2012

Tools Copyright (c) 1996-2006 Texas Instruments Incorporated
C:\DOCUME~1\ADMINI~1\LOCALS~1\Temp\TI4002                            PAGE   27

    1367 0000011c       L21:    
    1368 0000011c       DW$L$_app_XBmod_graph_main_task$18$B:
    1369 0000011c 9C01          ADDB      AL,#1                 ; |120| 
    1370 0000011d       DW$L$_app_XBmod_graph_main_task$18$E:
    1371 0000011d       L22:    
    1372 0000011d       DW$L$_app_XBmod_graph_main_task$19$B:
    1373 0000011d 9657          MOV       *-SP[23],AL           ; |120| 
    1374                      .dwpsn  "src\app_XBmod_fun.c",121,5
    1375 0000011e 2D57          MOV       T,*-SP[23]            ; |121| 
    1376 0000011f 3514          MPYB      ACC,T,#20             ; |121| 
    1377 00000120 9C02          ADDB      AL,#2                 ; |121| 
    1378 00000121 9655          MOV       *-SP[21],AL           ; |121| 
    1379                      .dwpsn  "src\app_XBmod_fun.c",122,5
    1380 00000122 9257          MOV       AL,*-SP[23]           ; |122| 
    1381 00000123 5202          CMPB      AL,#2                 ; |122| 
    1382 00000124 ED04          BF        L23,NEQ               ; |122| 
    1383                      ; branchcc occurs ; |122| 
    1384              DW$L$_app_XBmod_graph_main_task$19$E:
    1385              DW$L$_app_XBmod_graph_main_task$20$B:
    1386                      .dwpsn  "src\app_XBmod_fun.c",122,16
    1387 00000125 2856          MOV       *-SP[22],#51          ; |122| 
         00000126 0033 
    1388 00000127 6F04          B         L24,UNC               ; |122| 
    1389                      ; branch occurs ; |122| 
    1390              DW$L$_app_XBmod_graph_main_task$20$E:
    1391              L23:    
    1392              DW$L$_app_XBmod_graph_main_task$21$B:
    1393                      .dwpsn  "src\app_XBmod_fun.c",123,10
    1394 00000128 9255          MOV       AL,*-SP[21]           ; |123| 
    1395 00000129 9C14          ADDB      AL,#20                ; |123| 
    1396 0000012a 9656          MOV       *-SP[22],AL           ; |123| 
    1397              DW$L$_app_XBmod_graph_main_task$21$E:
    1398              L24:    
    1399              DW$L$_app_XBmod_graph_main_task$22$B:
    1400                      .dwpsn  "src\app_XBmod_fun.c",124,5
    1401 0000012b 2853          MOV       *-SP[19],#49          ; |124| 
         0000012c 0031 
    1402                      .dwpsn  "src\app_XBmod_fun.c",125,5
    1403 0000012d 7640'         LCR       #_app_XBmod_ruler_clean ; |125| 
         0000012e 0449 
    1404                      ; call occurs [#_app_XBmod_ruler_clean] ; |125| 
    1405                      .dwpsn  "src\app_XBmod_fun.c",126,4
    1406 0000012f 6F28          B         L31,UNC               ; |126| 
    1407                      ; branch occurs ; |126| 
    1408              DW$L$_app_XBmod_graph_main_task$22$E:
    1409              L25:    
    1410              DW$L$_app_XBmod_graph_main_task$23$B:
    1411                      .dwpsn  "src\app_XBmod_fun.c",127,9
    1412 00000130 520A          CMPB      AL,#10                ; |127| 
    1413 00000131 ED19          BF        L30,NEQ               ; |127| 
    1414                      ; branchcc occurs ; |127| 
    1415              DW$L$_app_XBmod_graph_main_task$23$E:
    1416              DW$L$_app_XBmod_graph_main_task$24$B:
    1417                      .dwpsn  "src\app_XBmod_fun.c",129,17
    1418 00000132 9257          MOV       AL,*-SP[23]           ; |129| 
TMS320C2000 COFF Assembler PC v4.1.3 Thu Nov 29 16:02:59 2012

Tools Copyright (c) 1996-2006 Texas Instruments Incorporated
C:\DOCUME~1\ADMINI~1\LOCALS~1\Temp\TI4002                            PAGE   28

    1419 00000133 ED03          BF        L26,NEQ               ; |129| 
    1420                      ; branchcc occurs ; |129| 
    1421 00000134       DW$L$_app_XBmod_graph_main_task$24$E:
    1422 00000134       DW$L$_app_XBmod_graph_main_task$25$B:
    1423 00000134 9A02          MOVB      AL,#2                 ; |129| 
    1424 00000135 6F02          B         L27,UNC               ; |129| 
    1425                      ; branch occurs ; |129| 
    1426 00000136       DW$L$_app_XBmod_graph_main_task$25$E:
    1427 00000136       L26:    
    1428 00000136       DW$L$_app_XBmod_graph_main_task$26$B:
    1429 00000136 9CFF          ADDB      AL,#-1
    1430 00000137       DW$L$_app_XBmod_graph_main_task$26$E:
    1431 00000137       L27:    
    1432 00000137       DW$L$_app_XBmod_graph_main_task$27$B:
    1433 00000137 9657          MOV       *-SP[23],AL           ; |129| 
    1434                      .dwpsn  "src\app_XBmod_fun.c",130,5
    1435 00000138 2D57          MOV       T,*-SP[23]            ; |130| 
    1436 00000139 350A          MPYB      ACC,T,#10             ; |130| 
    1437 0000013a 9C02          ADDB      AL,#2                 ; |130| 
    1438 0000013b 9655          MOV       *-SP[21],AL           ; |130| 
    1439                      .dwpsn  "src\app_XBmod_fun.c",131,5
    1440 0000013c 9257          MOV       AL,*-SP[23]           ; |131| 
    1441 0000013d 5202          CMPB      AL,#2                 ; |131| 
    1442 0000013e ED04          BF        L28,NEQ               ; |131| 
    1443                      ; branchcc occurs ; |131| 
    1444              DW$L$_app_XBmod_graph_main_task$27$E:
    1445              DW$L$_app_XBmod_graph_main_task$28$B:
    1446                      .dwpsn  "src\app_XBmod_fun.c",131,16
    1447 0000013f 2856          MOV       *-SP[22],#51          ; |131| 
         00000140 0033 
    1448 00000141 6F04          B         L29,UNC               ; |131| 
    1449                      ; branch occurs ; |131| 
    1450              DW$L$_app_XBmod_graph_main_task$28$E:
    1451              L28:    
    1452              DW$L$_app_XBmod_graph_main_task$29$B:
    1453                      .dwpsn  "src\app_XBmod_fun.c",132,10
    1454 00000142 9255          MOV       AL,*-SP[21]           ; |132| 
    1455 00000143 9C14          ADDB      AL,#20                ; |132| 
    1456 00000144 9656          MOV       *-SP[22],AL           ; |132| 
    1457              DW$L$_app_XBmod_graph_main_task$29$E:
    1458              L29:    
    1459              DW$L$_app_XBmod_graph_main_task$30$B:
    1460                      .dwpsn  "src\app_XBmod_fun.c",133,5
    1461 00000145 2853          MOV       *-SP[19],#49          ; |133| 
         00000146 0031 
    1462                      .dwpsn  "src\app_XBmod_fun.c",134,5
    1463 00000147 7640'         LCR       #_app_XBmod_ruler_clean ; |134| 
         00000148 0449 
    1464                      ; call occurs [#_app_XBmod_ruler_clean] ; |134| 
    1465                      .dwpsn  "src\app_XBmod_fun.c",135,4
    1466 00000149 6F0E          B         L31,UNC               ; |135| 
    1467                      ; branch occurs ; |135| 
    1468              DW$L$_app_XBmod_graph_main_task$30$E:
    1469              L30:    
    1470              DW$L$_app_XBmod_graph_main_task$31$B:
TMS320C2000 COFF Assembler PC v4.1.3 Thu Nov 29 16:02:59 2012

Tools Copyright (c) 1996-2006 Texas Instruments Incorporated
C:\DOCUME~1\ADMINI~1\LOCALS~1\Temp\TI4002                            PAGE   29

    1471                      .dwpsn  "src\app_XBmod_fun.c",136,9
    1472 0000014a 5217          CMPB      AL,#23                ; |136| 
    1473 0000014b ED0C          BF        L31,NEQ               ; |136| 
    1474                      ; branchcc occurs ; |136| 
    1475              DW$L$_app_XBmod_graph_main_task$31$E:
    1476              DW$L$_app_XBmod_graph_main_task$32$B:
    1477                      .dwpsn  "src\app_XBmod_fun.c",138,5
    1478 0000014c 9A05          MOVB      AL,#5                 ; |138| 
    1479 0000014d 8F00'         MOVL      XAR4,#_app_XBmod_main_task ; |138| 
         0000014e 01AC 
    1480 0000014f 7640!         LCR       #_os_task_assign_stk_build ; |138| 
         00000150 0000 
    1481                      ; call occurs [#_os_task_assign_stk_build] ; |138| 
    1482 00000151 761F-         MOVW      DP,#_m_XBmod_main_task_pro
         00000152 0000 
    1483 00000153 9601-         MOV       @_m_XBmod_main_task_pro,AL ; |138| 
    1484                      .dwpsn  "src\app_XBmod_fun.c",140,5
    1485 00000154 9AFF          MOVB      AL,#255               ; |140| 
    1486 00000155 7640!         LCR       #_os_task_delete      ; |140| 
         00000156 0000 
    1487                      ; call occurs [#_os_task_delete] ; |140| 
    1488              DW$L$_app_XBmod_graph_main_task$32$E:
    1489              L31:    
    1490              DW$L$_app_XBmod_graph_main_task$33$B:
    1491                      .dwpsn  "src\app_XBmod_fun.c",143,3
    1492 00000157 5CAD          MOVZ      AR4,SP                ; |143| 
    1493 00000158 DC92          SUBB      XAR4,#18              ; |143| 
    1494 00000159 7640!         LCR       #_app_global_DLflag_obtain ; |143| 
         0000015a 0000 
    1495                      ; call occurs [#_app_global_DLflag_obtain] ; |143| 
    1496                      .dwpsn  "src\app_XBmod_fun.c",144,3
    1497 0000015b 924F          MOV       AL,*-SP[15]           ; |144| 
    1498 0000015c EC8D          BF        L13,EQ                ; |144| 
    1499                      ; branchcc occurs ; |144| 
    1500 0000015d       DW$L$_app_XBmod_graph_main_task$33$E:
    1501 0000015d       DW$L$_app_XBmod_graph_main_task$34$B:
    1502 0000015d 0A53          INC       *-SP[19]              ; |144| 
    1503 0000015e 9253          MOV       AL,*-SP[19]           ; |144| 
    1504 0000015f 5232          CMPB      AL,#50                ; |144| 
    1505 00000160 6989          B         L13,LOS               ; |144| 
    1506                      ; branchcc occurs ; |144| 
    1507              DW$L$_app_XBmod_graph_main_task$34$E:
    1508              DW$L$_app_XBmod_graph_main_task$35$B:
    1509                      .dwpsn  "src\app_XBmod_fun.c",146,4
    1510 00000161 761F!         MOVW      DP,#_g_DL_dev
         00000162 0000 
    1511 00000163 9200!         MOV       AL,@_g_DL_dev         ; |146| 
    1512 00000164 8F00-         MOVL      XAR4,#_m_xb_buf       ; |146| 
         00000165 0140 
    1513 00000166 9B06          MOVB      AH,#6                 ; |146| 
    1514 00000167 7640!         LCR       #_os_driver_ioctl     ; |146| 
         00000168 0000 
    1515                      ; call occurs [#_os_driver_ioctl] ; |146| 
    1516                      .dwpsn  "src\app_XBmod_fun.c",147,4
    1517 00000169 28AC          MOV       T,#104                ; |147| 
TMS320C2000 COFF Assembler PC v4.1.3 Thu Nov 29 16:02:59 2012

Tools Copyright (c) 1996-2006 Texas Instruments Incorporated
C:\DOCUME~1\ADMINI~1\LOCALS~1\Temp\TI4002                            PAGE   30

         0000016a 0068 
    1518 0000016b 8F00-         MOVL      XAR4,#_m_xb_buf       ; |147| 
         0000016c 0140 
    1519 0000016d 3054          MPYXU     ACC,T,*-SP[20]        ; |147| 
    1520 0000016e 5601          ADDL      XAR4,ACC
         0000016f 00A4 
    1521 00000170 06C4          MOVL      ACC,*+XAR4[0]         ; |147| 
    1522 00000171 7640'         LCR       #_app_XBmod_graph_JBdisplay ; |147| 
         00000172 04AA 
    1523                      ; call occurs [#_app_XBmod_graph_JBdisplay] ; |147| 
    1524                      .dwpsn  "src\app_XBmod_fun.c",148,4
    1525 00000173 28AC          MOV       T,#104                ; |148| 
         00000174 0068 
    1526 00000175 5CAD          MOVZ      AR4,SP                ; |148| 
    1527 00000176 8F40-         MOVL      XAR5,#_m_xb_buf       ; |148| 
         00000177 0140 
    1528 00000178 3054          MPYXU     ACC,T,*-SP[20]        ; |148| 
    1529 00000179 5601          ADDL      XAR5,ACC
         0000017a 00A5 
    1530 0000017b DC9A          SUBB      XAR4,#26              ; |148| 
    1531 0000017c 7640'         LCR       #_app_XBmod_GETmax    ; |148| 
         0000017d 0083 
    1532                      ; call occurs [#_app_XBmod_GETmax] ; |148| 
    1533                      .dwpsn  "src\app_XBmod_fun.c",149,8
    1534 0000017e 9255          MOV       AL,*-SP[21]           ; |149| 
    1535 0000017f 9653          MOV       *-SP[19],AL           ; |149| 
    1536                      .dwpsn  "src\app_XBmod_fun.c",149,22
    1537 00000180 9256          MOV       AL,*-SP[22]           ; |149| 
    1538 00000181 5453          CMP       AL,*-SP[19]           ; |149| 
    1539 00000182 6927          B         L33,LOS               ; |149| 
    1540                      ; branchcc occurs ; |149| 
    1541              DW$L$_app_XBmod_graph_main_task$35$E:
    1542              L32:    
    1543              DW$L$_app_XBmod_graph_main_task$36$B:
    1544                      .dwpsn  "src\app_XBmod_fun.c",151,5
    1545 00000183 065A          MOVL      ACC,*-SP[26]          ; |151| 
    1546 00000184 28AC          MOV       T,#104                ; |151| 
         00000185 0068 
    1547 00000186 8F00-         MOVL      XAR4,#_m_xb_buf       ; |151| 
         00000187 0140 
    1548 00000188 1E42          MOVL      *-SP[2],ACC           ; |151| 
    1549 00000189 3054          MPYXU     ACC,T,*-SP[20]        ; |151| 
    1550 0000018a 5601          ADDL      XAR4,ACC
         0000018b 00A4 
    1551 0000018c 0E53          MOVU      ACC,*-SP[19]
    1552 0000018d FF30          LSL       ACC,1                 ; |151| 
    1553 0000018e 5601          ADDL      XAR4,ACC
         0000018f 00A4 
    1554 00000190 06C4          MOVL      ACC,*+XAR4[0]         ; |151| 
    1555 00000191 D428          MOVB      XAR4,#40              ; |151| 
    1556 00000192 7640'         LCR       #_app_XBmod_GETlen    ; |151| 
         00000193 00AF 
    1557                      ; call occurs [#_app_XBmod_GETlen] ; |151| 
    1558 00000194 9658          MOV       *-SP[24],AL           ; |151| 
    1559                      .dwpsn  "src\app_XBmod_fun.c",152,5
TMS320C2000 COFF Assembler PC v4.1.3 Thu Nov 29 16:02:59 2012

Tools Copyright (c) 1996-2006 Texas Instruments Incorporated
C:\DOCUME~1\ADMINI~1\LOCALS~1\Temp\TI4002                            PAGE   31

    1560 00000195 28AC          MOV       T,#104                ; |152| 
         00000196 0068 
    1561 00000197 8F00-         MOVL      XAR4,#_m_xb_buf       ; |152| 
         00000198 0140 
    1562 00000199 3054          MPYXU     ACC,T,*-SP[20]        ; |152| 
    1563 0000019a 5601          ADDL      XAR4,ACC
         0000019b 00A4 
    1564 0000019c 0E53          MOVU      ACC,*-SP[19]
    1565 0000019d FF30          LSL       ACC,1                 ; |152| 
    1566 0000019e 5601          ADDL      XAR4,ACC
         0000019f 00A4 
    1567 000001a0 5D53          MOVZ      AR5,*-SP[19]          ; |152| 
    1568 000001a1 06C4          MOVL      ACC,*+XAR4[0]         ; |152| 
    1569 000001a2 5C58          MOVZ      AR4,*-SP[24]          ; |152| 
    1570 000001a3 7640'         LCR       #_app_XBmod_graph_display ; |152| 
         000001a4 037A 
    1571                      ; call occurs [#_app_XBmod_graph_display] ; |152| 
    1572                      .dwpsn  "src\app_XBmod_fun.c",149,34
    1573 000001a5 0A53          INC       *-SP[19]              ; |149| 
    1574                      .dwpsn  "src\app_XBmod_fun.c",149,22
    1575 000001a6 9256          MOV       AL,*-SP[22]           ; |149| 
    1576 000001a7 5453          CMP       AL,*-SP[19]           ; |149| 
    1577 000001a8 66DB          B         L32,HI                ; |149| 
    1578                      ; branchcc occurs ; |149| 
    1579              DW$L$_app_XBmod_graph_main_task$36$E:
    1580              L33:    
    1581              DW$L$_app_XBmod_graph_main_task$37$B:
    1582                      .dwpsn  "src\app_XBmod_fun.c",154,7
    1583 000001a9 2B53          MOV       *-SP[19],#0           ; |154| 
    1584                      .dwpsn  "src\app_XBmod_fun.c",100,8
    1585 000001aa FFEF          B         L13,UNC               ; |100| 
         000001ab FF3F 
    1586                      ; branch occurs ; |100| 
    1587              DW$L$_app_XBmod_graph_main_task$37$E:
    1588                      .dwcfa  0x1d, -2
    1589              
    1590              DW$200  .dwtag  DW_TAG_loop
    1591                      .dwattr DW$200, DW_AT_name("C:\DOCUME~1\ADMINI~1\LOCALS~1\Temp\TI4002:L13:1:1354176179")
    1592                      .dwattr DW$200, DW_AT_begin_file("src\app_XBmod_fun.c")
    1593                      .dwattr DW$200, DW_AT_begin_line(0x64)
    1594                      .dwattr DW$200, DW_AT_end_line(0x9c)
    1595              DW$201  .dwtag  DW_TAG_loop_range
    1596                      .dwattr DW$201, DW_AT_low_pc(DW$L$_app_XBmod_graph_main_task$2$B)
    1597                      .dwattr DW$201, DW_AT_high_pc(DW$L$_app_XBmod_graph_main_task$2$E)
    1598              DW$202  .dwtag  DW_TAG_loop_range
    1599                      .dwattr DW$202, DW_AT_low_pc(DW$L$_app_XBmod_graph_main_task$35$B)
    1600                      .dwattr DW$202, DW_AT_high_pc(DW$L$_app_XBmod_graph_main_task$35$E)
    1601              DW$203  .dwtag  DW_TAG_loop_range
    1602                      .dwattr DW$203, DW_AT_low_pc(DW$L$_app_XBmod_graph_main_task$23$B)
    1603                      .dwattr DW$203, DW_AT_high_pc(DW$L$_app_XBmod_graph_main_task$23$E)
    1604              DW$204  .dwtag  DW_TAG_loop_range
    1605                      .dwattr DW$204, DW_AT_low_pc(DW$L$_app_XBmod_graph_main_task$24$B)
    1606                      .dwattr DW$204, DW_AT_high_pc(DW$L$_app_XBmod_graph_main_task$24$E)
    1607              DW$205  .dwtag  DW_TAG_loop_range
    1608                      .dwattr DW$205, DW_AT_low_pc(DW$L$_app_XBmod_graph_main_task$25$B)
TMS320C2000 COFF Assembler PC v4.1.3 Thu Nov 29 16:02:59 2012

Tools Copyright (c) 1996-2006 Texas Instruments Incorporated
C:\DOCUME~1\ADMINI~1\LOCALS~1\Temp\TI4002                            PAGE   32

    1609                      .dwattr DW$205, DW_AT_high_pc(DW$L$_app_XBmod_graph_main_task$25$E)
    1610              DW$206  .dwtag  DW_TAG_loop_range
    1611                      .dwattr DW$206, DW_AT_low_pc(DW$L$_app_XBmod_graph_main_task$26$B)
    1612                      .dwattr DW$206, DW_AT_high_pc(DW$L$_app_XBmod_graph_main_task$26$E)
    1613              DW$207  .dwtag  DW_TAG_loop_range
    1614                      .dwattr DW$207, DW_AT_low_pc(DW$L$_app_XBmod_graph_main_task$27$B)
    1615                      .dwattr DW$207, DW_AT_high_pc(DW$L$_app_XBmod_graph_main_task$27$E)
    1616              DW$208  .dwtag  DW_TAG_loop_range
    1617                      .dwattr DW$208, DW_AT_low_pc(DW$L$_app_XBmod_graph_main_task$28$B)
    1618                      .dwattr DW$208, DW_AT_high_pc(DW$L$_app_XBmod_graph_main_task$28$E)
    1619              DW$209  .dwtag  DW_TAG_loop_range
    1620                      .dwattr DW$209, DW_AT_low_pc(DW$L$_app_XBmod_graph_main_task$29$B)
    1621                      .dwattr DW$209, DW_AT_high_pc(DW$L$_app_XBmod_graph_main_task$29$E)
    1622              DW$210  .dwtag  DW_TAG_loop_range
    1623                      .dwattr DW$210, DW_AT_low_pc(DW$L$_app_XBmod_graph_main_task$15$B)
    1624                      .dwattr DW$210, DW_AT_high_pc(DW$L$_app_XBmod_graph_main_task$15$E)
    1625              DW$211  .dwtag  DW_TAG_loop_range
    1626                      .dwattr DW$211, DW_AT_low_pc(DW$L$_app_XBmod_graph_main_task$16$B)
    1627                      .dwattr DW$211, DW_AT_high_pc(DW$L$_app_XBmod_graph_main_task$16$E)
    1628              DW$212  .dwtag  DW_TAG_loop_range
    1629                      .dwattr DW$212, DW_AT_low_pc(DW$L$_app_XBmod_graph_main_task$17$B)
    1630                      .dwattr DW$212, DW_AT_high_pc(DW$L$_app_XBmod_graph_main_task$17$E)
    1631              DW$213  .dwtag  DW_TAG_loop_range
    1632                      .dwattr DW$213, DW_AT_low_pc(DW$L$_app_XBmod_graph_main_task$18$B)
    1633                      .dwattr DW$213, DW_AT_high_pc(DW$L$_app_XBmod_graph_main_task$18$E)
    1634              DW$214  .dwtag  DW_TAG_loop_range
    1635                      .dwattr DW$214, DW_AT_low_pc(DW$L$_app_XBmod_graph_main_task$19$B)
    1636                      .dwattr DW$214, DW_AT_high_pc(DW$L$_app_XBmod_graph_main_task$19$E)
    1637              DW$215  .dwtag  DW_TAG_loop_range
    1638                      .dwattr DW$215, DW_AT_low_pc(DW$L$_app_XBmod_graph_main_task$20$B)
    1639                      .dwattr DW$215, DW_AT_high_pc(DW$L$_app_XBmod_graph_main_task$20$E)
    1640              DW$216  .dwtag  DW_TAG_loop_range
    1641                      .dwattr DW$216, DW_AT_low_pc(DW$L$_app_XBmod_graph_main_task$21$B)
    1642                      .dwattr DW$216, DW_AT_high_pc(DW$L$_app_XBmod_graph_main_task$21$E)
    1643              DW$217  .dwtag  DW_TAG_loop_range
    1644                      .dwattr DW$217, DW_AT_low_pc(DW$L$_app_XBmod_graph_main_task$10$B)
    1645                      .dwattr DW$217, DW_AT_high_pc(DW$L$_app_XBmod_graph_main_task$10$E)
    1646              DW$218  .dwtag  DW_TAG_loop_range
    1647                      .dwattr DW$218, DW_AT_low_pc(DW$L$_app_XBmod_graph_main_task$11$B)
    1648                      .dwattr DW$218, DW_AT_high_pc(DW$L$_app_XBmod_graph_main_task$11$E)
    1649              DW$219  .dwtag  DW_TAG_loop_range
    1650                      .dwattr DW$219, DW_AT_low_pc(DW$L$_app_XBmod_graph_main_task$12$B)
    1651                      .dwattr DW$219, DW_AT_high_pc(DW$L$_app_XBmod_graph_main_task$12$E)
    1652              DW$220  .dwtag  DW_TAG_loop_range
    1653                      .dwattr DW$220, DW_AT_low_pc(DW$L$_app_XBmod_graph_main_task$13$B)
    1654                      .dwattr DW$220, DW_AT_high_pc(DW$L$_app_XBmod_graph_main_task$13$E)
    1655              DW$221  .dwtag  DW_TAG_loop_range
    1656                      .dwattr DW$221, DW_AT_low_pc(DW$L$_app_XBmod_graph_main_task$5$B)
    1657                      .dwattr DW$221, DW_AT_high_pc(DW$L$_app_XBmod_graph_main_task$5$E)
    1658              DW$222  .dwtag  DW_TAG_loop_range
    1659                      .dwattr DW$222, DW_AT_low_pc(DW$L$_app_XBmod_graph_main_task$6$B)
    1660                      .dwattr DW$222, DW_AT_high_pc(DW$L$_app_XBmod_graph_main_task$6$E)
    1661              DW$223  .dwtag  DW_TAG_loop_range
    1662                      .dwattr DW$223, DW_AT_low_pc(DW$L$_app_XBmod_graph_main_task$7$B)
    1663                      .dwattr DW$223, DW_AT_high_pc(DW$L$_app_XBmod_graph_main_task$7$E)
TMS320C2000 COFF Assembler PC v4.1.3 Thu Nov 29 16:02:59 2012

Tools Copyright (c) 1996-2006 Texas Instruments Incorporated
C:\DOCUME~1\ADMINI~1\LOCALS~1\Temp\TI4002                            PAGE   33

    1664              DW$224  .dwtag  DW_TAG_loop_range
    1665                      .dwattr DW$224, DW_AT_low_pc(DW$L$_app_XBmod_graph_main_task$8$B)
    1666                      .dwattr DW$224, DW_AT_high_pc(DW$L$_app_XBmod_graph_main_task$8$E)
    1667              DW$225  .dwtag  DW_TAG_loop_range
    1668                      .dwattr DW$225, DW_AT_low_pc(DW$L$_app_XBmod_graph_main_task$3$B)
    1669                      .dwattr DW$225, DW_AT_high_pc(DW$L$_app_XBmod_graph_main_task$3$E)
    1670              DW$226  .dwtag  DW_TAG_loop_range
    1671                      .dwattr DW$226, DW_AT_low_pc(DW$L$_app_XBmod_graph_main_task$4$B)
    1672                      .dwattr DW$226, DW_AT_high_pc(DW$L$_app_XBmod_graph_main_task$4$E)
    1673              DW$227  .dwtag  DW_TAG_loop_range
    1674                      .dwattr DW$227, DW_AT_low_pc(DW$L$_app_XBmod_graph_main_task$9$B)
    1675                      .dwattr DW$227, DW_AT_high_pc(DW$L$_app_XBmod_graph_main_task$9$E)
    1676              DW$228  .dwtag  DW_TAG_loop_range
    1677                      .dwattr DW$228, DW_AT_low_pc(DW$L$_app_XBmod_graph_main_task$14$B)
    1678                      .dwattr DW$228, DW_AT_high_pc(DW$L$_app_XBmod_graph_main_task$14$E)
    1679              DW$229  .dwtag  DW_TAG_loop_range
    1680                      .dwattr DW$229, DW_AT_low_pc(DW$L$_app_XBmod_graph_main_task$22$B)
    1681                      .dwattr DW$229, DW_AT_high_pc(DW$L$_app_XBmod_graph_main_task$22$E)
    1682              DW$230  .dwtag  DW_TAG_loop_range
    1683                      .dwattr DW$230, DW_AT_low_pc(DW$L$_app_XBmod_graph_main_task$30$B)
    1684                      .dwattr DW$230, DW_AT_high_pc(DW$L$_app_XBmod_graph_main_task$30$E)
    1685              DW$231  .dwtag  DW_TAG_loop_range
    1686                      .dwattr DW$231, DW_AT_low_pc(DW$L$_app_XBmod_graph_main_task$31$B)
    1687                      .dwattr DW$231, DW_AT_high_pc(DW$L$_app_XBmod_graph_main_task$31$E)
    1688              DW$232  .dwtag  DW_TAG_loop_range
    1689                      .dwattr DW$232, DW_AT_low_pc(DW$L$_app_XBmod_graph_main_task$32$B)
    1690                      .dwattr DW$232, DW_AT_high_pc(DW$L$_app_XBmod_graph_main_task$32$E)
    1691              DW$233  .dwtag  DW_TAG_loop_range
    1692                      .dwattr DW$233, DW_AT_low_pc(DW$L$_app_XBmod_graph_main_task$37$B)
    1693                      .dwattr DW$233, DW_AT_high_pc(DW$L$_app_XBmod_graph_main_task$37$E)
    1694              DW$234  .dwtag  DW_TAG_loop_range
    1695                      .dwattr DW$234, DW_AT_low_pc(DW$L$_app_XBmod_graph_main_task$34$B)
    1696                      .dwattr DW$234, DW_AT_high_pc(DW$L$_app_XBmod_graph_main_task$34$E)
    1697              DW$235  .dwtag  DW_TAG_loop_range
    1698                      .dwattr DW$235, DW_AT_low_pc(DW$L$_app_XBmod_graph_main_task$33$B)
    1699                      .dwattr DW$235, DW_AT_high_pc(DW$L$_app_XBmod_graph_main_task$33$E)
    1700              
    1701              DW$236  .dwtag  DW_TAG_loop
    1702                      .dwattr DW$236, DW_AT_name("C:\DOCUME~1\ADMINI~1\LOCALS~1\Temp\TI4002:L32:2:1354176179")
    1703                      .dwattr DW$236, DW_AT_begin_file("src\app_XBmod_fun.c")
    1704                      .dwattr DW$236, DW_AT_begin_line(0x95)
    1705                      .dwattr DW$236, DW_AT_end_line(0x99)
    1706              DW$237  .dwtag  DW_TAG_loop_range
    1707                      .dwattr DW$237, DW_AT_low_pc(DW$L$_app_XBmod_graph_main_task$36$B)
    1708                      .dwattr DW$237, DW_AT_high_pc(DW$L$_app_XBmod_graph_main_task$36$E)
    1709                      .dwendtag DW$236
    1710              
    1711                      .dwendtag DW$200
    1712              
    1713                      .dwattr DW$188, DW_AT_end_file("src\app_XBmod_fun.c")
    1714                      .dwattr DW$188, DW_AT_end_line(0x9d)
    1715                      .dwattr DW$188, DW_AT_end_column(0x01)
    1716                      .dwendentry
    1717                      .dwendtag DW$188
    1718              
TMS320C2000 COFF Assembler PC v4.1.3 Thu Nov 29 16:02:59 2012

Tools Copyright (c) 1996-2006 Texas Instruments Incorporated
C:\DOCUME~1\ADMINI~1\LOCALS~1\Temp\TI4002                            PAGE   34

    1719 000001ac               .sect   ".text"
    1720                      .global _app_XBmod_main_task
    1721              
    1722              DW$238  .dwtag  DW_TAG_subprogram, DW_AT_name("app_XBmod_main_task"), DW_AT_symbol_name("_app_XBmod_main_task
    1723                      .dwattr DW$238, DW_AT_low_pc(_app_XBmod_main_task)
    1724                      .dwattr DW$238, DW_AT_high_pc(0x00)
    1725                      .dwattr DW$238, DW_AT_begin_file("src\app_XBmod_fun.c")
    1726                      .dwattr DW$238, DW_AT_begin_line(0xa6)
    1727                      .dwattr DW$238, DW_AT_begin_column(0x06)
    1728                      .dwpsn  "src\app_XBmod_fun.c",167,1
    1729              
    1730                      .dwfde DW$CIE
    1731              
    1732              ;***************************************************************
    1733              ;* FNAME: _app_XBmod_main_task          FR SIZE:  20           *
    1734              ;*                                                             *
    1735              ;* FUNCTION ENVIRONMENT                                        *
    1736              ;*                                                             *
    1737              ;* FUNCTION PROPERTIES                                         *
    1738              ;*                            0 Parameter, 19 Auto,  0 SOE     *
    1739              ;***************************************************************
    1740              
    1741              _app_XBmod_main_task:
    1742                      .dwcfa  0x1d, -2
    1743                      .dwcfa  0x1c, 26, 0
    1744                      .dwcfa  0x09, 40, 26
    1745 000001ac FE14          ADDB      SP,#20
    1746                      .dwcfa  0x1d, -22
    1747              ;* AR4   assigned to _arg
    1748              DW$239  .dwtag  DW_TAG_formal_parameter, DW_AT_name("arg"), DW_AT_symbol_name("_arg")
    1749                      .dwattr DW$239, DW_AT_type(*DW$T$3)
    1750                      .dwattr DW$239, DW_AT_location[DW_OP_reg12]
    1751              DW$240  .dwtag  DW_TAG_variable, DW_AT_name("arg"), DW_AT_symbol_name("_arg")
    1752                      .dwattr DW$240, DW_AT_type(*DW$T$3)
    1753                      .dwattr DW$240, DW_AT_location[DW_OP_breg20 -2]
    1754              DW$241  .dwtag  DW_TAG_variable, DW_AT_name("key_buf"), DW_AT_symbol_name("_key_buf")
    1755                      .dwattr DW$241, DW_AT_type(*DW$T$6)
    1756                      .dwattr DW$241, DW_AT_location[DW_OP_breg20 -3]
    1757              DW$242  .dwtag  DW_TAG_variable, DW_AT_name("dl_flag"), DW_AT_symbol_name("_dl_flag")
    1758                      .dwattr DW$242, DW_AT_type(*DW$T$156)
    1759                      .dwattr DW$242, DW_AT_location[DW_OP_breg20 -16]
    1760              DW$243  .dwtag  DW_TAG_variable, DW_AT_name("cnt"), DW_AT_symbol_name("_cnt")
    1761                      .dwattr DW$243, DW_AT_type(*DW$T$19)
    1762                      .dwattr DW$243, DW_AT_location[DW_OP_breg20 -17]
    1763              DW$244  .dwtag  DW_TAG_variable, DW_AT_name("phase"), DW_AT_symbol_name("_phase")
    1764                      .dwattr DW$244, DW_AT_type(*DW$T$19)
    1765                      .dwattr DW$244, DW_AT_location[DW_OP_breg20 -18]
    1766              DW$245  .dwtag  DW_TAG_variable, DW_AT_name("flag"), DW_AT_symbol_name("_flag")
    1767                      .dwattr DW$245, DW_AT_type(*DW$T$19)
    1768                      .dwattr DW$245, DW_AT_location[DW_OP_breg20 -19]
    1769 000001ad A842          MOVL      *-SP[2],XAR4          ; |167| 
    1770                      .dwpsn  "src\app_XBmod_fun.c",170,10
    1771 000001ae 2851          MOV       *-SP[17],#30          ; |170| 
         000001af 001E 
    1772                      .dwpsn  "src\app_XBmod_fun.c",171,10
TMS320C2000 COFF Assembler PC v4.1.3 Thu Nov 29 16:02:59 2012

Tools Copyright (c) 1996-2006 Texas Instruments Incorporated
C:\DOCUME~1\ADMINI~1\LOCALS~1\Temp\TI4002                            PAGE   35

    1773 000001b0 2B52          MOV       *-SP[18],#0           ; |171| 
    1774                      .dwpsn  "src\app_XBmod_fun.c",172,10
    1775 000001b1 2B53          MOV       *-SP[19],#0           ; |172| 
    1776                      .dwpsn  "src\app_XBmod_fun.c",173,2
    1777 000001b2 9A0A          MOVB      AL,#10                ; |173| 
    1778 000001b3 7640!         LCR       #_OSTimeDly           ; |173| 
         000001b4 0000 
    1779                      ; call occurs [#_OSTimeDly] ; |173| 
    1780                      .dwpsn  "src\app_XBmod_fun.c",174,2
    1781 000001b5 7640'         LCR       #_app_XBmod_window_creat ; |174| 
         000001b6 02CF 
    1782                      ; call occurs [#_app_XBmod_window_creat] ; |174| 
    1783                      .dwpsn  "src\app_XBmod_fun.c",175,2
    1784 000001b7 761F-         MOVW      DP,#_m_XBmod_win_radio
         000001b8 0000 
    1785 000001b9 8A06-         MOVL      XAR4,@_m_XBmod_win_radio ; |175| 
    1786 000001ba 9252          MOV       AL,*-SP[18]           ; |175| 
    1787 000001bb 7640!         LCR       #_GUI_radio_select    ; |175| 
         000001bc 0000 
    1788                      ; call occurs [#_GUI_radio_select] ; |175| 
    1789                      .dwpsn  "src\app_XBmod_fun.c",176,10
    1790              L34:    
    1791              DW$L$_app_XBmod_main_task$2$B:
    1792                      .dwpsn  "src\app_XBmod_fun.c",178,3
    1793 000001bd 9A03          MOVB      AL,#3                 ; |178| 
    1794 000001be 7640!         LCR       #_OSTimeDly           ; |178| 
         000001bf 0000 
    1795                      ; call occurs [#_OSTimeDly] ; |178| 
    1796                      .dwpsn  "src\app_XBmod_fun.c",179,3
    1797 000001c0 5CAD          MOVZ      AR4,SP                ; |179| 
    1798 000001c1 9A01          MOVB      AL,#1                 ; |179| 
    1799 000001c2 DC83          SUBB      XAR4,#3               ; |179| 
    1800 000001c3 7640!         LCR       #_app_global_key_obtain ; |179| 
         000001c4 0000 
    1801                      ; call occurs [#_app_global_key_obtain] ; |179| 
    1802 000001c5 5201          CMPB      AL,#1                 ; |179| 
    1803 000001c6 ED41          BF        L43,NEQ               ; |179| 
    1804                      ; branchcc occurs ; |179| 
    1805              DW$L$_app_XBmod_main_task$2$E:
    1806              DW$L$_app_XBmod_main_task$3$B:
    1807                      .dwpsn  "src\app_XBmod_fun.c",181,4
    1808 000001c7 9243          MOV       AL,*-SP[3]            ; |181| 
    1809 000001c8 521B          CMPB      AL,#27                ; |181| 
    1810 000001c9 ED05          BF        L35,NEQ               ; |181| 
    1811                      ; branchcc occurs ; |181| 
    1812              DW$L$_app_XBmod_main_task$3$E:
    1813              DW$L$_app_XBmod_main_task$4$B:
    1814                      .dwpsn  "src\app_XBmod_fun.c",181,26
    1815 000001ca 9A01          MOVB      AL,#1                 ; |181| 
    1816 000001cb 7640!         LCR       #_app_module_assign_mod ; |181| 
         000001cc 0000 
    1817                      ; call occurs [#_app_module_assign_mod] ; |181| 
    1818 000001cd 6F3A          B         L43,UNC               ; |181| 
    1819                      ; branch occurs ; |181| 
    1820              DW$L$_app_XBmod_main_task$4$E:
TMS320C2000 COFF Assembler PC v4.1.3 Thu Nov 29 16:02:59 2012

Tools Copyright (c) 1996-2006 Texas Instruments Incorporated
C:\DOCUME~1\ADMINI~1\LOCALS~1\Temp\TI4002                            PAGE   36

    1821              L35:    
    1822              DW$L$_app_XBmod_main_task$5$B:
    1823                      .dwpsn  "src\app_XBmod_fun.c",182,9
    1824 000001ce 521C          CMPB      AL,#28                ; |182| 
    1825 000001cf ED10          BF        L38,NEQ               ; |182| 
    1826                      ; branchcc occurs ; |182| 
    1827              DW$L$_app_XBmod_main_task$5$E:
    1828              DW$L$_app_XBmod_main_task$6$B:
    1829                      .dwpsn  "src\app_XBmod_fun.c",184,17
    1830 000001d0 9252          MOV       AL,*-SP[18]           ; |184| 
    1831 000001d1 5205          CMPB      AL,#5                 ; |184| 
    1832 000001d2 ED03          BF        L36,NEQ               ; |184| 
    1833                      ; branchcc occurs ; |184| 
    1834 000001d3       DW$L$_app_XBmod_main_task$6$E:
    1835 000001d3       DW$L$_app_XBmod_main_task$7$B:
    1836 000001d3 9A00          MOVB      AL,#0
    1837 000001d4 6F02          B         L37,UNC               ; |184| 
    1838                      ; branch occurs ; |184| 
    1839 000001d5       DW$L$_app_XBmod_main_task$7$E:
    1840 000001d5       L36:    
    1841 000001d5       DW$L$_app_XBmod_main_task$8$B:
    1842 000001d5 9C01          ADDB      AL,#1                 ; |184| 
    1843 000001d6       DW$L$_app_XBmod_main_task$8$E:
    1844 000001d6       L37:    
    1845 000001d6       DW$L$_app_XBmod_main_task$9$B:
    1846 000001d6 9652          MOV       *-SP[18],AL           ; |184| 
    1847                      .dwpsn  "src\app_XBmod_fun.c",185,5
    1848 000001d7 761F-         MOVW      DP,#_m_XBmod_win_radio
         000001d8 0000 
    1849 000001d9 8A06-         MOVL      XAR4,@_m_XBmod_win_radio ; |185| 
    1850 000001da 7640!         LCR       #_GUI_radio_select    ; |185| 
         000001db 0000 
    1851                      ; call occurs [#_GUI_radio_select] ; |185| 
    1852                      .dwpsn  "src\app_XBmod_fun.c",186,5
    1853 000001dc 2851          MOV       *-SP[17],#49          ; |186| 
         000001dd 0031 
    1854                      .dwpsn  "src\app_XBmod_fun.c",187,4
    1855 000001de 6F29          B         L43,UNC               ; |187| 
    1856                      ; branch occurs ; |187| 
    1857              DW$L$_app_XBmod_main_task$9$E:
    1858              L38:    
    1859              DW$L$_app_XBmod_main_task$10$B:
    1860                      .dwpsn  "src\app_XBmod_fun.c",188,9
    1861 000001df 520A          CMPB      AL,#10                ; |188| 
    1862 000001e0 ED0F          BF        L41,NEQ               ; |188| 
    1863                      ; branchcc occurs ; |188| 
    1864              DW$L$_app_XBmod_main_task$10$E:
    1865              DW$L$_app_XBmod_main_task$11$B:
    1866                      .dwpsn  "src\app_XBmod_fun.c",190,17
    1867 000001e1 9252          MOV       AL,*-SP[18]           ; |190| 
    1868 000001e2 ED03          BF        L39,NEQ               ; |190| 
    1869                      ; branchcc occurs ; |190| 
    1870 000001e3       DW$L$_app_XBmod_main_task$11$E:
    1871 000001e3       DW$L$_app_XBmod_main_task$12$B:
    1872 000001e3 9A05          MOVB      AL,#5                 ; |190| 
TMS320C2000 COFF Assembler PC v4.1.3 Thu Nov 29 16:02:59 2012

Tools Copyright (c) 1996-2006 Texas Instruments Incorporated
C:\DOCUME~1\ADMINI~1\LOCALS~1\Temp\TI4002                            PAGE   37

    1873 000001e4 6F02          B         L40,UNC               ; |190| 
    1874                      ; branch occurs ; |190| 
    1875 000001e5       DW$L$_app_XBmod_main_task$12$E:
    1876 000001e5       L39:    
    1877 000001e5       DW$L$_app_XBmod_main_task$13$B:
    1878 000001e5 9CFF          ADDB      AL,#-1
    1879 000001e6       DW$L$_app_XBmod_main_task$13$E:
    1880 000001e6       L40:    
    1881 000001e6       DW$L$_app_XBmod_main_task$14$B:
    1882 000001e6 9652          MOV       *-SP[18],AL           ; |190| 
    1883                      .dwpsn  "src\app_XBmod_fun.c",191,5
    1884 000001e7 761F-         MOVW      DP,#_m_XBmod_win_radio
         000001e8 0000 
    1885 000001e9 8A06-         MOVL      XAR4,@_m_XBmod_win_radio ; |191| 
    1886 000001ea 7640!         LCR       #_GUI_radio_select    ; |191| 
         000001eb 0000 
    1887                      ; call occurs [#_GUI_radio_select] ; |191| 
    1888                      .dwpsn  "src\app_XBmod_fun.c",192,5
    1889 000001ec 2851          MOV       *-SP[17],#49          ; |192| 
         000001ed 0031 
    1890                      .dwpsn  "src\app_XBmod_fun.c",193,4
    1891 000001ee 6F19          B         L43,UNC               ; |193| 
    1892                      ; branch occurs ; |193| 
    1893              DW$L$_app_XBmod_main_task$14$E:
    1894              L41:    
    1895              DW$L$_app_XBmod_main_task$15$B:
    1896                      .dwpsn  "src\app_XBmod_fun.c",194,9
    1897 000001ef 520C          CMPB      AL,#12                ; |194| 
    1898 000001f0 ED0A          BF        L42,NEQ               ; |194| 
    1899                      ; branchcc occurs ; |194| 
    1900              DW$L$_app_XBmod_main_task$15$E:
    1901              DW$L$_app_XBmod_main_task$16$B:
    1902                      .dwpsn  "src\app_XBmod_fun.c",196,19
    1903 000001f1 761F-         MOVW      DP,#_m_XBmod_win_drop_list
         000001f2 0000 
    1904 000001f3 8A04-         MOVL      XAR4,@_m_XBmod_win_drop_list ; |196| 
    1905 000001f4 7640!         LCR       #_GUI_drop_list_unfold ; |196| 
         000001f5 0000 
    1906                      ; call occurs [#_GUI_drop_list_unfold] ; |196| 
    1907 000001f6 9653          MOV       *-SP[19],AL           ; |196| 
    1908                      .dwpsn  "src\app_XBmod_fun.c",197,7
    1909 000001f7 2851          MOV       *-SP[17],#49          ; |197| 
         000001f8 0031 
    1910                      .dwpsn  "src\app_XBmod_fun.c",198,4
    1911 000001f9 6F0E          B         L43,UNC               ; |198| 
    1912                      ; branch occurs ; |198| 
    1913              DW$L$_app_XBmod_main_task$16$E:
    1914              L42:    
    1915              DW$L$_app_XBmod_main_task$17$B:
    1916                      .dwpsn  "src\app_XBmod_fun.c",199,9
    1917 000001fa 5217          CMPB      AL,#23                ; |199| 
    1918 000001fb ED0C          BF        L43,NEQ               ; |199| 
    1919                      ; branchcc occurs ; |199| 
    1920              DW$L$_app_XBmod_main_task$17$E:
    1921              DW$L$_app_XBmod_main_task$18$B:
TMS320C2000 COFF Assembler PC v4.1.3 Thu Nov 29 16:02:59 2012

Tools Copyright (c) 1996-2006 Texas Instruments Incorporated
C:\DOCUME~1\ADMINI~1\LOCALS~1\Temp\TI4002                            PAGE   38

    1922                      .dwpsn  "src\app_XBmod_fun.c",201,5
    1923 000001fc 9A05          MOVB      AL,#5                 ; |201| 
    1924 000001fd 8F00'         MOVL      XAR4,#_app_XBmod_graph_main_task ; |201| 
         000001fe 00D6 
    1925 000001ff 7640!         LCR       #_os_task_assign_stk_build ; |201| 
         00000200 0000 
    1926                      ; call occurs [#_os_task_assign_stk_build] ; |201| 
    1927 00000201 761F-         MOVW      DP,#_m_XBmod_main_task_pro
         00000202 0000 
    1928 00000203 9601-         MOV       @_m_XBmod_main_task_pro,AL ; |201| 
    1929                      .dwpsn  "src\app_XBmod_fun.c",203,5
    1930 00000204 9AFF          MOVB      AL,#255               ; |203| 
    1931 00000205 7640!         LCR       #_os_task_delete      ; |203| 
         00000206 0000 
    1932                      ; call occurs [#_os_task_delete] ; |203| 
    1933              DW$L$_app_XBmod_main_task$18$E:
    1934              L43:    
    1935              DW$L$_app_XBmod_main_task$19$B:
    1936                      .dwpsn  "src\app_XBmod_fun.c",206,3
    1937 00000207 5CAD          MOVZ      AR4,SP                ; |206| 
    1938 00000208 DC90          SUBB      XAR4,#16              ; |206| 
    1939 00000209 7640!         LCR       #_app_global_DLflag_obtain ; |206| 
         0000020a 0000 
    1940                      ; call occurs [#_app_global_DLflag_obtain] ; |206| 
    1941                      .dwpsn  "src\app_XBmod_fun.c",207,3
    1942 0000020b 924D          MOV       AL,*-SP[13]           ; |207| 
    1943 0000020c ECB1          BF        L34,EQ                ; |207| 
    1944                      ; branchcc occurs ; |207| 
    1945 0000020d       DW$L$_app_XBmod_main_task$19$E:
    1946 0000020d       DW$L$_app_XBmod_main_task$20$B:
    1947 0000020d 0A51          INC       *-SP[17]              ; |207| 
    1948 0000020e 9251          MOV       AL,*-SP[17]           ; |207| 
    1949 0000020f 5232          CMPB      AL,#50                ; |207| 
    1950 00000210 69AD          B         L34,LOS               ; |207| 
    1951                      ; branchcc occurs ; |207| 
    1952              DW$L$_app_XBmod_main_task$20$E:
    1953              DW$L$_app_XBmod_main_task$21$B:
    1954                      .dwpsn  "src\app_XBmod_fun.c",209,7
    1955 00000211 2B51          MOV       *-SP[17],#0           ; |209| 
    1956                      .dwpsn  "src\app_XBmod_fun.c",210,4
    1957 00000212 761F!         MOVW      DP,#_g_DL_dev
         00000213 0000 
    1958 00000214 9200!         MOV       AL,@_g_DL_dev         ; |210| 
    1959 00000215 8F00-         MOVL      XAR4,#_m_xb_buf       ; |210| 
         00000216 0140 
    1960 00000217 9B06          MOVB      AH,#6                 ; |210| 
    1961 00000218 7640!         LCR       #_os_driver_ioctl     ; |210| 
         00000219 0000 
    1962                      ; call occurs [#_os_driver_ioctl] ; |210| 
    1963                      .dwpsn  "src\app_XBmod_fun.c",211,4
    1964 0000021a 28AC          MOV       T,#104                ; |211| 
         0000021b 0068 
    1965 0000021c 8F40-         MOVL      XAR5,#_m_xb_buf       ; |211| 
         0000021d 0140 
    1966 0000021e 3052          MPYXU     ACC,T,*-SP[18]        ; |211| 
TMS320C2000 COFF Assembler PC v4.1.3 Thu Nov 29 16:02:59 2012

Tools Copyright (c) 1996-2006 Texas Instruments Incorporated
C:\DOCUME~1\ADMINI~1\LOCALS~1\Temp\TI4002                            PAGE   39

    1967 0000021f 5601          ADDL      XAR5,ACC
         00000220 00A5 
    1968 00000221 9253          MOV       AL,*-SP[19]           ; |211| 
    1969 00000222 8F00-         MOVL      XAR4,#_m_xb_data      ; |211| 
         00000223 0040 
    1970 00000224 7640'         LCR       #_app_XBmod_data_sort ; |211| 
         00000225 001D 
    1971                      ; call occurs [#_app_XBmod_data_sort] ; |211| 
    1972                      .dwpsn  "src\app_XBmod_fun.c",212,4
    1973 00000226 8F00-         MOVL      XAR4,#_m_xb_data      ; |212| 
         00000227 0040 
    1974 00000228 7640'         LCR       #_app_XBmod_data_string_display ; |212| 
         00000229 0248 
    1975                      ; call occurs [#_app_XBmod_data_string_display] ; |212| 
    1976                      .dwpsn  "src\app_XBmod_fun.c",176,10
    1977 0000022a 6F93          B         L34,UNC               ; |176| 
    1978                      ; branch occurs ; |176| 
    1979              DW$L$_app_XBmod_main_task$21$E:
    1980                      .dwcfa  0x1d, -2
    1981              
    1982              DW$246  .dwtag  DW_TAG_loop
    1983                      .dwattr DW$246, DW_AT_name("C:\DOCUME~1\ADMINI~1\LOCALS~1\Temp\TI4002:L34:1:1354176179")
    1984                      .dwattr DW$246, DW_AT_begin_file("src\app_XBmod_fun.c")
    1985                      .dwattr DW$246, DW_AT_begin_line(0xb0)
    1986                      .dwattr DW$246, DW_AT_end_line(0xd6)
    1987              DW$247  .dwtag  DW_TAG_loop_range
    1988                      .dwattr DW$247, DW_AT_low_pc(DW$L$_app_XBmod_main_task$2$B)
    1989                      .dwattr DW$247, DW_AT_high_pc(DW$L$_app_XBmod_main_task$2$E)
    1990              DW$248  .dwtag  DW_TAG_loop_range
    1991                      .dwattr DW$248, DW_AT_low_pc(DW$L$_app_XBmod_main_task$15$B)
    1992                      .dwattr DW$248, DW_AT_high_pc(DW$L$_app_XBmod_main_task$15$E)
    1993              DW$249  .dwtag  DW_TAG_loop_range
    1994                      .dwattr DW$249, DW_AT_low_pc(DW$L$_app_XBmod_main_task$10$B)
    1995                      .dwattr DW$249, DW_AT_high_pc(DW$L$_app_XBmod_main_task$10$E)
    1996              DW$250  .dwtag  DW_TAG_loop_range
    1997                      .dwattr DW$250, DW_AT_low_pc(DW$L$_app_XBmod_main_task$11$B)
    1998                      .dwattr DW$250, DW_AT_high_pc(DW$L$_app_XBmod_main_task$11$E)
    1999              DW$251  .dwtag  DW_TAG_loop_range
    2000                      .dwattr DW$251, DW_AT_low_pc(DW$L$_app_XBmod_main_task$12$B)
    2001                      .dwattr DW$251, DW_AT_high_pc(DW$L$_app_XBmod_main_task$12$E)
    2002              DW$252  .dwtag  DW_TAG_loop_range
    2003                      .dwattr DW$252, DW_AT_low_pc(DW$L$_app_XBmod_main_task$13$B)
    2004                      .dwattr DW$252, DW_AT_high_pc(DW$L$_app_XBmod_main_task$13$E)
    2005              DW$253  .dwtag  DW_TAG_loop_range
    2006                      .dwattr DW$253, DW_AT_low_pc(DW$L$_app_XBmod_main_task$5$B)
    2007                      .dwattr DW$253, DW_AT_high_pc(DW$L$_app_XBmod_main_task$5$E)
    2008              DW$254  .dwtag  DW_TAG_loop_range
    2009                      .dwattr DW$254, DW_AT_low_pc(DW$L$_app_XBmod_main_task$6$B)
    2010                      .dwattr DW$254, DW_AT_high_pc(DW$L$_app_XBmod_main_task$6$E)
    2011              DW$255  .dwtag  DW_TAG_loop_range
    2012                      .dwattr DW$255, DW_AT_low_pc(DW$L$_app_XBmod_main_task$7$B)
    2013                      .dwattr DW$255, DW_AT_high_pc(DW$L$_app_XBmod_main_task$7$E)
    2014              DW$256  .dwtag  DW_TAG_loop_range
    2015                      .dwattr DW$256, DW_AT_low_pc(DW$L$_app_XBmod_main_task$8$B)
    2016                      .dwattr DW$256, DW_AT_high_pc(DW$L$_app_XBmod_main_task$8$E)
TMS320C2000 COFF Assembler PC v4.1.3 Thu Nov 29 16:02:59 2012

Tools Copyright (c) 1996-2006 Texas Instruments Incorporated
C:\DOCUME~1\ADMINI~1\LOCALS~1\Temp\TI4002                            PAGE   40

    2017              DW$257  .dwtag  DW_TAG_loop_range
    2018                      .dwattr DW$257, DW_AT_low_pc(DW$L$_app_XBmod_main_task$3$B)
    2019                      .dwattr DW$257, DW_AT_high_pc(DW$L$_app_XBmod_main_task$3$E)
    2020              DW$258  .dwtag  DW_TAG_loop_range
    2021                      .dwattr DW$258, DW_AT_low_pc(DW$L$_app_XBmod_main_task$4$B)
    2022                      .dwattr DW$258, DW_AT_high_pc(DW$L$_app_XBmod_main_task$4$E)
    2023              DW$259  .dwtag  DW_TAG_loop_range
    2024                      .dwattr DW$259, DW_AT_low_pc(DW$L$_app_XBmod_main_task$9$B)
    2025                      .dwattr DW$259, DW_AT_high_pc(DW$L$_app_XBmod_main_task$9$E)
    2026              DW$260  .dwtag  DW_TAG_loop_range
    2027                      .dwattr DW$260, DW_AT_low_pc(DW$L$_app_XBmod_main_task$14$B)
    2028                      .dwattr DW$260, DW_AT_high_pc(DW$L$_app_XBmod_main_task$14$E)
    2029              DW$261  .dwtag  DW_TAG_loop_range
    2030                      .dwattr DW$261, DW_AT_low_pc(DW$L$_app_XBmod_main_task$16$B)
    2031                      .dwattr DW$261, DW_AT_high_pc(DW$L$_app_XBmod_main_task$16$E)
    2032              DW$262  .dwtag  DW_TAG_loop_range
    2033                      .dwattr DW$262, DW_AT_low_pc(DW$L$_app_XBmod_main_task$17$B)
    2034                      .dwattr DW$262, DW_AT_high_pc(DW$L$_app_XBmod_main_task$17$E)
    2035              DW$263  .dwtag  DW_TAG_loop_range
    2036                      .dwattr DW$263, DW_AT_low_pc(DW$L$_app_XBmod_main_task$18$B)
    2037                      .dwattr DW$263, DW_AT_high_pc(DW$L$_app_XBmod_main_task$18$E)
    2038              DW$264  .dwtag  DW_TAG_loop_range
    2039                      .dwattr DW$264, DW_AT_low_pc(DW$L$_app_XBmod_main_task$21$B)
    2040                      .dwattr DW$264, DW_AT_high_pc(DW$L$_app_XBmod_main_task$21$E)
    2041              DW$265  .dwtag  DW_TAG_loop_range
    2042                      .dwattr DW$265, DW_AT_low_pc(DW$L$_app_XBmod_main_task$20$B)
    2043                      .dwattr DW$265, DW_AT_high_pc(DW$L$_app_XBmod_main_task$20$E)
    2044              DW$266  .dwtag  DW_TAG_loop_range
    2045                      .dwattr DW$266, DW_AT_low_pc(DW$L$_app_XBmod_main_task$19$B)
    2046                      .dwattr DW$266, DW_AT_high_pc(DW$L$_app_XBmod_main_task$19$E)
    2047                      .dwendtag DW$246
    2048              
    2049                      .dwattr DW$238, DW_AT_end_file("src\app_XBmod_fun.c")
    2050                      .dwattr DW$238, DW_AT_end_line(0xd7)
    2051                      .dwattr DW$238, DW_AT_end_column(0x01)
    2052                      .dwendentry
    2053                      .dwendtag DW$238
    2054              
    2055 0000022b               .sect   ".text"
    2056                      .global _app_XBmod_fun_entry
    2057              
    2058              DW$267  .dwtag  DW_TAG_subprogram, DW_AT_name("app_XBmod_fun_entry"), DW_AT_symbol_name("_app_XBmod_fun_entry
    2059                      .dwattr DW$267, DW_AT_low_pc(_app_XBmod_fun_entry)
    2060                      .dwattr DW$267, DW_AT_high_pc(0x00)
    2061                      .dwattr DW$267, DW_AT_begin_file("src\app_XBmod_fun.c")
    2062                      .dwattr DW$267, DW_AT_begin_line(0xe0)
    2063                      .dwattr DW$267, DW_AT_begin_column(0x06)
    2064                      .dwpsn  "src\app_XBmod_fun.c",225,1
    2065              
    2066                      .dwfde DW$CIE
    2067              
    2068              ;***************************************************************
    2069              ;* FNAME: _app_XBmod_fun_entry          FR SIZE:   0           *
    2070              ;*                                                             *
    2071              ;* FUNCTION ENVIRONMENT                                        *
TMS320C2000 COFF Assembler PC v4.1.3 Thu Nov 29 16:02:59 2012

Tools Copyright (c) 1996-2006 Texas Instruments Incorporated
C:\DOCUME~1\ADMINI~1\LOCALS~1\Temp\TI4002                            PAGE   41

    2072              ;*                                                             *
    2073              ;* FUNCTION PROPERTIES                                         *
    2074              ;*                            0 Parameter,  0 Auto,  0 SOE     *
    2075              ;***************************************************************
    2076              
    2077              _app_XBmod_fun_entry:
    2078                      .dwcfa  0x1d, -2
    2079                      .dwcfa  0x1c, 26, 0
    2080                      .dwcfa  0x09, 40, 26
    2081                      .dwpsn  "src\app_XBmod_fun.c",226,2
    2082 0000022b 9A05          MOVB      AL,#5                 ; |226| 
    2083 0000022c 8F00'         MOVL      XAR4,#_app_XBmod_graph_main_task ; |226| 
         0000022d 00D6 
    2084 0000022e 7640!         LCR       #_os_task_assign_stk_build ; |226| 
         0000022f 0000 
    2085                      ; call occurs [#_os_task_assign_stk_build] ; |226| 
    2086 00000230 761F-         MOVW      DP,#_m_XBmod_main_task_pro
         00000231 0000 
    2087 00000232 9601-         MOV       @_m_XBmod_main_task_pro,AL ; |226| 
    2088                      .dwpsn  "src\app_XBmod_fun.c",228,2
    2089 00000233 8F00+         MOVL      XAR4,#FSL9            ; |228| 
         00000234 005A 
    2090 00000235 7640!         LCR       #_os_task_name_set    ; |228| 
         00000236 0000 
    2091                      ; call occurs [#_os_task_name_set] ; |228| 
    2092                      .dwpsn  "src\app_XBmod_fun.c",229,2
    2093 00000237 7640!         LCR       #_app_global_DL_measure_entery ; |229| 
         00000238 0000 
    2094                      ; call occurs [#_app_global_DL_measure_entery] ; |229| 
    2095                      .dwpsn  "src\app_XBmod_fun.c",230,2
    2096                      .dwpsn  "src\app_XBmod_fun.c",231,1
    2097 00000239 0006          LRETR
    2098                      ; return occurs
    2099                      .dwattr DW$267, DW_AT_end_file("src\app_XBmod_fun.c")
    2100                      .dwattr DW$267, DW_AT_end_line(0xe7)
    2101                      .dwattr DW$267, DW_AT_end_column(0x01)
    2102                      .dwendentry
    2103                      .dwendtag DW$267
    2104              
    2105 0000023a               .sect   ".text"
    2106                      .global _app_XBmod_fun_exit
    2107              
    2108              DW$268  .dwtag  DW_TAG_subprogram, DW_AT_name("app_XBmod_fun_exit"), DW_AT_symbol_name("_app_XBmod_fun_exit")
    2109                      .dwattr DW$268, DW_AT_low_pc(_app_XBmod_fun_exit)
    2110                      .dwattr DW$268, DW_AT_high_pc(0x00)
    2111                      .dwattr DW$268, DW_AT_begin_file("src\app_XBmod_fun.c")
    2112                      .dwattr DW$268, DW_AT_begin_line(0xf0)
    2113                      .dwattr DW$268, DW_AT_begin_column(0x06)
    2114                      .dwpsn  "src\app_XBmod_fun.c",241,1
    2115              
    2116                      .dwfde DW$CIE
    2117              
    2118              ;***************************************************************
    2119              ;* FNAME: _app_XBmod_fun_exit           FR SIZE:   0           *
    2120              ;*                                                             *
TMS320C2000 COFF Assembler PC v4.1.3 Thu Nov 29 16:02:59 2012

Tools Copyright (c) 1996-2006 Texas Instruments Incorporated
C:\DOCUME~1\ADMINI~1\LOCALS~1\Temp\TI4002                            PAGE   42

    2121              ;* FUNCTION ENVIRONMENT                                        *
    2122              ;*                                                             *
    2123              ;* FUNCTION PROPERTIES                                         *
    2124              ;*                            0 Parameter,  0 Auto,  0 SOE     *
    2125              ;***************************************************************
    2126              
    2127              _app_XBmod_fun_exit:
    2128                      .dwcfa  0x1d, -2
    2129                      .dwcfa  0x1c, 26, 0
    2130                      .dwcfa  0x09, 40, 26
    2131                      .dwpsn  "src\app_XBmod_fun.c",242,2
    2132 0000023a 761F-         MOVW      DP,#_m_XBmod_main_task_pro
         0000023b 0000 
    2133 0000023c 9201-         MOV       AL,@_m_XBmod_main_task_pro ; |242| 
    2134 0000023d 52BE          CMPB      AL,#190               ; |242| 
    2135 0000023e EC07          BF        L44,EQ                ; |242| 
    2136                      ; branchcc occurs ; |242| 
    2137                      .dwpsn  "src\app_XBmod_fun.c",244,3
    2138 0000023f 7640!         LCR       #_os_task_delete      ; |244| 
         00000240 0000 
    2139                      ; call occurs [#_os_task_delete] ; |244| 
    2140                      .dwpsn  "src\app_XBmod_fun.c",245,3
    2141 00000241 761F-         MOVW      DP,#_m_XBmod_main_task_pro
         00000242 0000 
    2142 00000243 2801-         MOV       @_m_XBmod_main_task_pro,#190 ; |245| 
         00000244 00BE 
    2143              L44:    
    2144                      .dwpsn  "src\app_XBmod_fun.c",247,2
    2145 00000245 7640!         LCR       #_app_global_DL_measure_exit ; |247| 
         00000246 0000 
    2146                      ; call occurs [#_app_global_DL_measure_exit] ; |247| 
    2147                      .dwpsn  "src\app_XBmod_fun.c",248,2
    2148                      .dwpsn  "src\app_XBmod_fun.c",249,1
    2149 00000247 0006          LRETR
    2150                      ; return occurs
    2151                      .dwattr DW$268, DW_AT_end_file("src\app_XBmod_fun.c")
    2152                      .dwattr DW$268, DW_AT_end_line(0xf9)
    2153                      .dwattr DW$268, DW_AT_end_column(0x01)
    2154                      .dwendentry
    2155                      .dwendtag DW$268
    2156              
    2157 00000248               .sect   ".text"
    2158                      .global _app_XBmod_data_string_display
    2159              
    2160              DW$269  .dwtag  DW_TAG_subprogram, DW_AT_name("app_XBmod_data_string_display"), DW_AT_symbol_name("_app_XBmod
    2161                      .dwattr DW$269, DW_AT_low_pc(_app_XBmod_data_string_display)
    2162                      .dwattr DW$269, DW_AT_high_pc(0x00)
    2163                      .dwattr DW$269, DW_AT_begin_file("src\app_XBmod_interface.c")
    2164                      .dwattr DW$269, DW_AT_begin_line(0x12)
    2165                      .dwattr DW$269, DW_AT_begin_column(0x06)
    2166                      .dwpsn  "src\app_XBmod_interface.c",19,1
    2167              
    2168                      .dwfde DW$CIE
    2169              
    2170              ;***************************************************************
TMS320C2000 COFF Assembler PC v4.1.3 Thu Nov 29 16:02:59 2012

Tools Copyright (c) 1996-2006 Texas Instruments Incorporated
C:\DOCUME~1\ADMINI~1\LOCALS~1\Temp\TI4002                            PAGE   43

    2171              ;* FNAME: _app_XBmod_data_string_display FR SIZE:  30           *
    2172              ;*                                                             *
    2173              ;* FUNCTION ENVIRONMENT                                        *
    2174              ;*                                                             *
    2175              ;* FUNCTION PROPERTIES                                         *
    2176              ;*                            1 Parameter, 29 Auto,  0 SOE     *
    2177              ;***************************************************************
    2178              
    2179              _app_XBmod_data_string_display:
    2180                      .dwcfa  0x1d, -2
    2181                      .dwcfa  0x1c, 26, 0
    2182                      .dwcfa  0x09, 40, 26
    2183 00000248 FE1E          ADDB      SP,#30
    2184                      .dwcfa  0x1d, -32
    2185              ;* AR4   assigned to _pdata
    2186              DW$270  .dwtag  DW_TAG_formal_parameter, DW_AT_name("pdata"), DW_AT_symbol_name("_pdata")
    2187                      .dwattr DW$270, DW_AT_type(*DW$T$86)
    2188                      .dwattr DW$270, DW_AT_location[DW_OP_reg12]
    2189              DW$271  .dwtag  DW_TAG_variable, DW_AT_name("pdata"), DW_AT_symbol_name("_pdata")
    2190                      .dwattr DW$271, DW_AT_type(*DW$T$86)
    2191                      .dwattr DW$271, DW_AT_location[DW_OP_breg20 -4]
    2192              DW$272  .dwtag  DW_TAG_variable, DW_AT_name("xoffset"), DW_AT_symbol_name("_xoffset")
    2193                      .dwattr DW$272, DW_AT_type(*DW$T$19)
    2194                      .dwattr DW$272, DW_AT_location[DW_OP_breg20 -5]
    2195              DW$273  .dwtag  DW_TAG_variable, DW_AT_name("yoffset"), DW_AT_symbol_name("_yoffset")
    2196                      .dwattr DW$273, DW_AT_type(*DW$T$19)
    2197                      .dwattr DW$273, DW_AT_location[DW_OP_breg20 -6]
    2198              DW$274  .dwtag  DW_TAG_variable, DW_AT_name("offset"), DW_AT_symbol_name("_offset")
    2199                      .dwattr DW$274, DW_AT_type(*DW$T$19)
    2200                      .dwattr DW$274, DW_AT_location[DW_OP_breg20 -7]
    2201              DW$275  .dwtag  DW_TAG_variable, DW_AT_name("cnt"), DW_AT_symbol_name("_cnt")
    2202                      .dwattr DW$275, DW_AT_type(*DW$T$19)
    2203                      .dwattr DW$275, DW_AT_location[DW_OP_breg20 -8]
    2204              DW$276  .dwtag  DW_TAG_variable, DW_AT_name("temp"), DW_AT_symbol_name("_temp")
    2205                      .dwattr DW$276, DW_AT_type(*DW$T$139)
    2206                      .dwattr DW$276, DW_AT_location[DW_OP_breg20 -28]
    2207              DW$277  .dwtag  DW_TAG_variable, DW_AT_name("x"), DW_AT_symbol_name("_x")
    2208                      .dwattr DW$277, DW_AT_type(*DW$T$10)
    2209                      .dwattr DW$277, DW_AT_location[DW_OP_breg20 -29]
    2210              DW$278  .dwtag  DW_TAG_variable, DW_AT_name("y"), DW_AT_symbol_name("_y")
    2211                      .dwattr DW$278, DW_AT_type(*DW$T$10)
    2212                      .dwattr DW$278, DW_AT_location[DW_OP_breg20 -30]
    2213 00000249 A844          MOVL      *-SP[4],XAR4          ; |19| 
    2214                      .dwpsn  "src\app_XBmod_interface.c",22,10
    2215 0000024a 2B48          MOV       *-SP[8],#0            ; |22| 
    2216                      .dwpsn  "src\app_XBmod_interface.c",23,7
    2217 0000024b 5CAD          MOVZ      AR4,SP                ; |23| 
    2218 0000024c 76C0+         MOVL      XAR7,#_$T0$1          ; |23| 
         0000024d 0016 
    2219 0000024e DC9C          SUBB      XAR4,#28              ; |23| 
    2220 0000024f F613          RPT       #19
    2221 00000250 2484  ||     PREAD     *XAR4++,*XAR7         ; |23| 
    2222                      .dwpsn  "src\app_XBmod_interface.c",25,5
    2223 00000251 761F-         MOVW      DP,#_m_XBmod_win_Obj
         00000252 0000 
TMS320C2000 COFF Assembler PC v4.1.3 Thu Nov 29 16:02:59 2012

Tools Copyright (c) 1996-2006 Texas Instruments Incorporated
C:\DOCUME~1\ADMINI~1\LOCALS~1\Temp\TI4002                            PAGE   44

    2224 00000253 8A02-         MOVL      XAR4,@_m_XBmod_win_Obj ; |25| 
    2225 00000254 7640!         LCR       #_GUI_window_hwin_req ; |25| 
         00000255 0000 
    2226                      ; call occurs [#_GUI_window_hwin_req] ; |25| 
    2227                      .dwpsn  "src\app_XBmod_interface.c",26,5
    2228 00000256 9AFC          MOVB      AL,#252               ; |26| 
    2229 00000257 7640!         LCR       #_GUI_set_Fgcolor     ; |26| 
         00000258 0000 
    2230                      ; call occurs [#_GUI_set_Fgcolor] ; |26| 
    2231                      .dwpsn  "src\app_XBmod_interface.c",27,5
    2232 00000259 9A4A          MOVB      AL,#74                ; |27| 
    2233 0000025a 8F00+         MOVL      XAR4,#FSL10           ; |27| 
         0000025b 006C 
    2234 0000025c 9B02          MOVB      AH,#2                 ; |27| 
    2235 0000025d 7640!         LCR       #_GUI_string_display_At ; |27| 
         0000025e 0000 
    2236                      ; call occurs [#_GUI_string_display_At] ; |27| 
    2237                      .dwpsn  "src\app_XBmod_interface.c",28,5
    2238 0000025f 2841          MOV       *-SP[1],#2            ; |28| 
         00000260 0002 
    2239 00000261 8A44          MOVL      XAR4,*-SP[4]          ; |28| 
    2240 00000262 06D4          MOVL      ACC,*+XAR4[2]         ; |28| 
    2241 00000263 D502          MOVB      XAR5,#2               ; |28| 
    2242 00000264 D44A          MOVB      XAR4,#74              ; |28| 
    2243 00000265 7640!         LCR       #_GUI_float_display_At ; |28| 
         00000266 0000 
    2244                      ; call occurs [#_GUI_float_display_At] ; |28| 
    2245                      .dwpsn  "src\app_XBmod_interface.c",29,6
    2246 00000267 9A02          MOVB      AL,#2                 ; |29| 
    2247 00000268 9647          MOV       *-SP[7],AL            ; |29| 
    2248                      .dwpsn  "src\app_XBmod_interface.c",29,15
    2249 00000269 5234          CMPB      AL,#52                ; |29| 
    2250 0000026a 675E          B         L47,HIS               ; |29| 
    2251                      ; branchcc occurs ; |29| 
    2252              L45:    
    2253              DW$L$_app_XBmod_data_string_display$2$B:
    2254                      .dwpsn  "src\app_XBmod_interface.c",31,5
    2255 0000026b 0E48          MOVU      ACC,*-SP[8]
    2256 0000026c D40A          MOVB      XAR4,#10              ; |31| 
    2257 0000026d F60F          RPT       #15
    2258 0000026e 1FA4  ||     SUBCU     ACC,AR4               ; |31| 
    2259 0000026f 9645          MOV       *-SP[5],AL            ; |31| 
    2260                      .dwpsn  "src\app_XBmod_interface.c",32,5
    2261 00000270 2D45          MOV       T,*-SP[5]             ; |32| 
    2262 00000271 310A          MPYB      P,T,#10               ; |32| 
    2263 00000272 9248          MOV       AL,*-SP[8]            ; |32| 
    2264 00000273 9EAB          SUB       AL,PL                 ; |32| 
    2265 00000274 9646          MOV       *-SP[6],AL            ; |32| 
    2266                      .dwpsn  "src\app_XBmod_interface.c",33,5
    2267 00000275 0A48          INC       *-SP[8]               ; |33| 
    2268                      .dwpsn  "src\app_XBmod_interface.c",34,5
    2269 00000276 5CAD          MOVZ      AR4,SP                ; |34| 
    2270 00000277 9A00          MOVB      AL,#0
    2271 00000278 DC9C          SUBB      XAR4,#28              ; |34| 
    2272 00000279 9B05          MOVB      AH,#5                 ; |34| 
TMS320C2000 COFF Assembler PC v4.1.3 Thu Nov 29 16:02:59 2012

Tools Copyright (c) 1996-2006 Texas Instruments Incorporated
C:\DOCUME~1\ADMINI~1\LOCALS~1\Temp\TI4002                            PAGE   45

    2273 0000027a 7640!         LCR       #_global_memset       ; |34| 
         0000027b 0000 
    2274                      ; call occurs [#_global_memset] ; |34| 
    2275                      .dwpsn  "src\app_XBmod_interface.c",35,5
    2276 0000027c 9AE0          MOVB      AL,#224               ; |35| 
    2277 0000027d 7640!         LCR       #_GUI_set_Fgcolor     ; |35| 
         0000027e 0000 
    2278                      ; call occurs [#_GUI_set_Fgcolor] ; |35| 
    2279                      .dwpsn  "src\app_XBmod_interface.c",36,5
    2280 0000027f 8A44          MOVL      XAR4,*-SP[4]          ; |36| 
    2281 00000280 0E47          MOVU      ACC,*-SP[7]
    2282 00000281 FF31          LSL       ACC,2                 ; |36| 
    2283 00000282 5601          ADDL      XAR4,ACC
         00000283 00A4 
    2284 00000284 92C4          MOV       AL,*+XAR4[0]          ; |36| 
    2285 00000285 5CAD          MOVZ      AR4,SP                ; |36| 
    2286 00000286 DC9C          SUBB      XAR4,#28              ; |36| 
    2287 00000287 7640!         LCR       #_global_itoa         ; |36| 
         00000288 0000 
    2288                      ; call occurs [#_global_itoa] ; |36| 
    2289                      .dwpsn  "src\app_XBmod_interface.c",37,5
    2290 00000289 8A44          MOVL      XAR4,*-SP[4]          ; |37| 
    2291 0000028a 0E47          MOVU      ACC,*-SP[7]
    2292 0000028b FF31          LSL       ACC,2                 ; |37| 
    2293 0000028c 5601          ADDL      XAR4,ACC
         0000028d 00A4 
    2294 0000028e 92C4          MOV       AL,*+XAR4[0]          ; |37| 
    2295 0000028f 520A          CMPB      AL,#10                ; |37| 
    2296 00000290 6705          B         L46,HIS               ; |37| 
    2297                      ; branchcc occurs ; |37| 
    2298              DW$L$_app_XBmod_data_string_display$2$E:
    2299              DW$L$_app_XBmod_data_string_display$3$B:
    2300                      .dwpsn  "src\app_XBmod_interface.c",39,4
    2301 00000291 925C          MOV       AL,*-SP[28]           ; |39| 
    2302 00000292 965B          MOV       *-SP[27],AL           ; |39| 
    2303                      .dwpsn  "src\app_XBmod_interface.c",40,4
    2304 00000293 285C          MOV       *-SP[28],#48          ; |40| 
         00000294 0030 
    2305              DW$L$_app_XBmod_data_string_display$3$E:
    2306              L46:    
    2307              DW$L$_app_XBmod_data_string_display$4$B:
    2308                      .dwpsn  "src\app_XBmod_interface.c",42,5
    2309 00000295 5CAD          MOVZ      AR4,SP                ; |42| 
    2310 00000296 8F40+         MOVL      XAR5,#FSL11           ; |42| 
         00000297 0072 
    2311 00000298 DC9C          SUBB      XAR4,#28              ; |42| 
    2312 00000299 7640!         LCR       #_global_strcat       ; |42| 
         0000029a 0000 
    2313                      ; call occurs [#_global_strcat] ; |42| 
    2314                      .dwpsn  "src\app_XBmod_interface.c",43,5
    2315 0000029b 2D45          MOV       T,*-SP[5]             ; |43| 
    2316 0000029c 353B          MPYB      ACC,T,#59             ; |43| 
    2317 0000029d 9C0A          ADDB      AL,#10                ; |43| 
    2318 0000029e 965D          MOV       *-SP[29],AL           ; |43| 
    2319                      .dwpsn  "src\app_XBmod_interface.c",44,5
TMS320C2000 COFF Assembler PC v4.1.3 Thu Nov 29 16:02:59 2012

Tools Copyright (c) 1996-2006 Texas Instruments Incorporated
C:\DOCUME~1\ADMINI~1\LOCALS~1\Temp\TI4002                            PAGE   46

    2320 0000029f 5603          MOV       ACC,*-SP[6] << #4     ; |44| 
         000002a0 0446 
    2321 000002a1 9C19          ADDB      AL,#25                ; |44| 
    2322 000002a2 965E          MOV       *-SP[30],AL           ; |44| 
    2323                      .dwpsn  "src\app_XBmod_interface.c",45,5
    2324 000002a3 5CAD          MOVZ      AR4,SP                ; |45| 
    2325 000002a4 925D          MOV       AL,*-SP[29]           ; |45| 
    2326 000002a5 935E          MOV       AH,*-SP[30]           ; |45| 
    2327 000002a6 DC9C          SUBB      XAR4,#28              ; |45| 
    2328 000002a7 7640!         LCR       #_GUI_string_display_At ; |45| 
         000002a8 0000 
    2329                      ; call occurs [#_GUI_string_display_At] ; |45| 
    2330                      .dwpsn  "src\app_XBmod_interface.c",46,5
    2331 000002a9 9AFC          MOVB      AL,#252               ; |46| 
    2332 000002aa 7640!         LCR       #_GUI_set_Fgcolor     ; |46| 
         000002ab 0000 
    2333                      ; call occurs [#_GUI_set_Fgcolor] ; |46| 
    2334                      .dwpsn  "src\app_XBmod_interface.c",47,5
    2335 000002ac 8F00+         MOVL      XAR4,#FSL10           ; |47| 
         000002ad 006C 
    2336 000002ae 7640!         LCR       #_GUI_string_display  ; |47| 
         000002af 0000 
    2337                      ; call occurs [#_GUI_string_display] ; |47| 
    2338                      .dwpsn  "src\app_XBmod_interface.c",48,5
    2339 000002b0 28A9          MOV       AL,#-32               ; |48| 
         000002b1 FFE0 
    2340 000002b2 7640!         LCR       #_GUI_x_shift         ; |48| 
         000002b3 0000 
    2341                      ; call occurs [#_GUI_x_shift] ; |48| 
    2342                      .dwpsn  "src\app_XBmod_interface.c",49,5
    2343 000002b4 8A44          MOVL      XAR4,*-SP[4]          ; |49| 
    2344 000002b5 0E47          MOVU      ACC,*-SP[7]
    2345 000002b6 FF31          LSL       ACC,2                 ; |49| 
    2346 000002b7 5601          ADDL      XAR4,ACC
         000002b8 00A4 
    2347 000002b9 06D4          MOVL      ACC,*+XAR4[2]         ; |49| 
    2348 000002ba 5CAD          MOVZ      AR4,SP                ; |49| 
    2349 000002bb D502          MOVB      XAR5,#2               ; |49| 
    2350 000002bc DC9C          SUBB      XAR4,#28              ; |49| 
    2351 000002bd 7640!         LCR       #_global_ftoa         ; |49| 
         000002be 0000 
    2352                      ; call occurs [#_global_ftoa] ; |49| 
    2353                      .dwpsn  "src\app_XBmod_interface.c",50,5
    2354 000002bf 2B58          MOV       *-SP[24],#0           ; |50| 
    2355                      .dwpsn  "src\app_XBmod_interface.c",51,8
    2356 000002c0 5CAD          MOVZ      AR4,SP                ; |51| 
    2357 000002c1 DC9C          SUBB      XAR4,#28              ; |51| 
    2358 000002c2 7640!         LCR       #_GUI_string_display  ; |51| 
         000002c3 0000 
    2359                      ; call occurs [#_GUI_string_display] ; |51| 
    2360                      .dwpsn  "src\app_XBmod_interface.c",29,25
    2361 000002c4 0A47          INC       *-SP[7]               ; |29| 
    2362                      .dwpsn  "src\app_XBmod_interface.c",29,15
    2363 000002c5 9247          MOV       AL,*-SP[7]            ; |29| 
    2364 000002c6 5234          CMPB      AL,#52                ; |29| 
TMS320C2000 COFF Assembler PC v4.1.3 Thu Nov 29 16:02:59 2012

Tools Copyright (c) 1996-2006 Texas Instruments Incorporated
C:\DOCUME~1\ADMINI~1\LOCALS~1\Temp\TI4002                            PAGE   47

    2365 000002c7 68A4          B         L45,LO                ; |29| 
    2366                      ; branchcc occurs ; |29| 
    2367              DW$L$_app_XBmod_data_string_display$4$E:
    2368              L47:    
    2369                      .dwpsn  "src\app_XBmod_interface.c",53,5
    2370 000002c8 761F-         MOVW      DP,#_m_XBmod_win_Obj
         000002c9 0000 
    2371 000002ca 8A02-         MOVL      XAR4,@_m_XBmod_win_Obj ; |53| 
    2372 000002cb 7640!         LCR       #_GUI_window_hwin_release ; |53| 
         000002cc 0000 
    2373                      ; call occurs [#_GUI_window_hwin_release] ; |53| 
    2374                      .dwpsn  "src\app_XBmod_interface.c",54,5
    2375                      .dwpsn  "src\app_XBmod_interface.c",55,1
    2376 000002cd FE9E          SUBB      SP,#30
    2377                      .dwcfa  0x1d, -2
    2378 000002ce 0006          LRETR
    2379                      ; return occurs
    2380              
    2381              DW$279  .dwtag  DW_TAG_loop
    2382                      .dwattr DW$279, DW_AT_name("C:\DOCUME~1\ADMINI~1\LOCALS~1\Temp\TI4002:L45:1:1354176179")
    2383                      .dwattr DW$279, DW_AT_begin_file("src\app_XBmod_interface.c")
    2384                      .dwattr DW$279, DW_AT_begin_line(0x1d)
    2385                      .dwattr DW$279, DW_AT_end_line(0x34)
    2386              DW$280  .dwtag  DW_TAG_loop_range
    2387                      .dwattr DW$280, DW_AT_low_pc(DW$L$_app_XBmod_data_string_display$2$B)
    2388                      .dwattr DW$280, DW_AT_high_pc(DW$L$_app_XBmod_data_string_display$2$E)
    2389              DW$281  .dwtag  DW_TAG_loop_range
    2390                      .dwattr DW$281, DW_AT_low_pc(DW$L$_app_XBmod_data_string_display$3$B)
    2391                      .dwattr DW$281, DW_AT_high_pc(DW$L$_app_XBmod_data_string_display$3$E)
    2392              DW$282  .dwtag  DW_TAG_loop_range
    2393                      .dwattr DW$282, DW_AT_low_pc(DW$L$_app_XBmod_data_string_display$4$B)
    2394                      .dwattr DW$282, DW_AT_high_pc(DW$L$_app_XBmod_data_string_display$4$E)
    2395                      .dwendtag DW$279
    2396              
    2397                      .dwattr DW$269, DW_AT_end_file("src\app_XBmod_interface.c")
    2398                      .dwattr DW$269, DW_AT_end_line(0x37)
    2399                      .dwattr DW$269, DW_AT_end_column(0x01)
    2400                      .dwendentry
    2401                      .dwendtag DW$269
    2402              
    2403 000002cf               .sect   ".text"
    2404                      .global _app_XBmod_window_creat
    2405              
    2406              DW$283  .dwtag  DW_TAG_subprogram, DW_AT_name("app_XBmod_window_creat"), DW_AT_symbol_name("_app_XBmod_window
    2407                      .dwattr DW$283, DW_AT_low_pc(_app_XBmod_window_creat)
    2408                      .dwattr DW$283, DW_AT_high_pc(0x00)
    2409                      .dwattr DW$283, DW_AT_begin_file("src\app_XBmod_interface.c")
    2410                      .dwattr DW$283, DW_AT_begin_line(0x3e)
    2411                      .dwattr DW$283, DW_AT_begin_column(0x06)
    2412                      .dwpsn  "src\app_XBmod_interface.c",63,1
    2413              
    2414                      .dwfde DW$CIE
    2415              
    2416              ;***************************************************************
    2417              ;* FNAME: _app_XBmod_window_creat       FR SIZE:   4           *
TMS320C2000 COFF Assembler PC v4.1.3 Thu Nov 29 16:02:59 2012

Tools Copyright (c) 1996-2006 Texas Instruments Incorporated
C:\DOCUME~1\ADMINI~1\LOCALS~1\Temp\TI4002                            PAGE   48

    2418              ;*                                                             *
    2419              ;* FUNCTION ENVIRONMENT                                        *
    2420              ;*                                                             *
    2421              ;* FUNCTION PROPERTIES                                         *
    2422              ;*                            3 Parameter,  0 Auto,  0 SOE     *
    2423              ;***************************************************************
    2424              
    2425              _app_XBmod_window_creat:
    2426                      .dwcfa  0x1d, -2
    2427                      .dwcfa  0x1c, 26, 0
    2428                      .dwcfa  0x09, 40, 26
    2429 000002cf FE04          ADDB      SP,#4
    2430                      .dwcfa  0x1d, -6
    2431                      .dwpsn  "src\app_XBmod_interface.c",66,2
    2432 000002d0 9A03          MOVB      AL,#3                 ; |66| 
    2433 000002d1 7640!         LCR       #_GUI_set_Bgcolor     ; |66| 
         000002d2 0000 
    2434                      ; call occurs [#_GUI_set_Bgcolor] ; |66| 
    2435                      .dwpsn  "src\app_XBmod_interface.c",67,2
    2436 000002d3 7640!         LCR       #_GUI_clean_screen    ; |67| 
         000002d4 0000 
    2437                      ; call occurs [#_GUI_clean_screen] ; |67| 
    2438                      .dwpsn  "src\app_XBmod_interface.c",68,2
    2439 000002d5 9A0A          MOVB      AL,#10                ; |68| 
    2440 000002d6 7640!         LCR       #_GUI_set_Bgcolor     ; |68| 
         000002d7 0000 
    2441                      ; call occurs [#_GUI_set_Bgcolor] ; |68| 
    2442                      .dwpsn  "src\app_XBmod_interface.c",69,5
    2443 000002d8 7640!         LCR       #_GUI_hwin_obtain     ; |69| 
         000002d9 0000 
    2444                      ; call occurs [#_GUI_hwin_obtain] ; |69| 
    2445 000002da 2841          MOV       *-SP[1],#312          ; |69| 
         000002db 0138 
    2446 000002dc 2842          MOV       *-SP[2],#210          ; |69| 
         000002dd 00D2 
    2447 000002de 83A4          MOVL      XAR5,XAR4             ; |69| 
    2448 000002df 2843          MOV       *-SP[3],#1536         ; |69| 
         000002e0 0600 
    2449 000002e1 0200          MOVB      ACC,#0
    2450 000002e2 8F00+         MOVL      XAR4,#FSL12           ; |69| 
         000002e3 0074 
    2451 000002e4 7640!         LCR       #_Gui_3D_window_creat ; |69| 
         000002e5 0000 
    2452                      ; call occurs [#_Gui_3D_window_creat] ; |69| 
    2453 000002e6 761F-         MOVW      DP,#_m_XBmod_win_Obj
         000002e7 0000 
    2454 000002e8 A802-         MOVL      @_m_XBmod_win_Obj,XAR4 ; |69| 
    2455                      .dwpsn  "src\app_XBmod_interface.c",71,2
    2456 000002e9 2841          MOV       *-SP[1],#2            ; |71| 
         000002ea 0002 
    2457 000002eb 2842          MOV       *-SP[2],#1            ; |71| 
         000002ec 0001 
    2458 000002ed 8302-         MOVL      XAR5,@_m_XBmod_win_Obj ; |71| 
    2459 000002ee 02C8          MOVB      ACC,#200
    2460 000002ef 8F00-         MOVL      XAR4,#_m_xbmod_mod_select ; |71| 
TMS320C2000 COFF Assembler PC v4.1.3 Thu Nov 29 16:02:59 2012

Tools Copyright (c) 1996-2006 Texas Instruments Incorporated
C:\DOCUME~1\ADMINI~1\LOCALS~1\Temp\TI4002                            PAGE   49

         000002f0 0008 
    2461 000002f1 7640!         LCR       #_Gui_drop_list_creat ; |71| 
         000002f2 0000 
    2462                      ; call occurs [#_Gui_drop_list_creat] ; |71| 
    2463 000002f3 761F-         MOVW      DP,#_m_XBmod_win_drop_list
         000002f4 0000 
    2464 000002f5 A804-         MOVL      @_m_XBmod_win_drop_list,XAR4 ; |71| 
    2465                      .dwpsn  "src\app_XBmod_interface.c",73,5
    2466 000002f6 8A02-         MOVL      XAR4,@_m_XBmod_win_Obj ; |73| 
    2467 000002f7 7640!         LCR       #_GUI_window_hwin_req ; |73| 
         000002f8 0000 
    2468                      ; call occurs [#_GUI_window_hwin_req] ; |73| 
    2469                      .dwpsn  "src\app_XBmod_interface.c",74,5
    2470 000002f9 761F-         MOVW      DP,#_m_XBmod_win_Obj
         000002fa 0000 
    2471 000002fb 8A02-         MOVL      XAR4,@_m_XBmod_win_Obj ; |74| 
    2472 000002fc 9A00          MOVB      AL,#0
    2473 000002fd 5CDC          MOVZ      AR4,*+XAR4[3]         ; |74| 
    2474 000002fe D517          MOVB      XAR5,#23              ; |74| 
    2475 000002ff 9B17          MOVB      AH,#23                ; |74| 
    2476 00000300 7640!         LCR       #_GUI_window_line_display ; |74| 
         00000301 0000 
    2477                      ; call occurs [#_GUI_window_line_display] ; |74| 
    2478                      .dwpsn  "src\app_XBmod_interface.c",75,2
    2479 00000302 9AFC          MOVB      AL,#252               ; |75| 
    2480 00000303 7640!         LCR       #_GUI_set_Fgcolor     ; |75| 
         00000304 0000 
    2481                      ; call occurs [#_GUI_set_Fgcolor] ; |75| 
    2482                      .dwpsn  "src\app_XBmod_interface.c",76,2
    2483 00000305 9A83          MOVB      AL,#131               ; |76| 
    2484 00000306 8F00+         MOVL      XAR4,#FSL13           ; |76| 
         00000307 009A 
    2485 00000308 9B02          MOVB      AH,#2                 ; |76| 
    2486 00000309 7640!         LCR       #_GUI_string_display_At ; |76| 
         0000030a 0000 
    2487                      ; call occurs [#_GUI_string_display_At] ; |76| 
    2488                      .dwpsn  "src\app_XBmod_interface.c",77,2
    2489 0000030b 9AFF          MOVB      AL,#255               ; |77| 
    2490 0000030c 7640!         LCR       #_GUI_set_Fgcolor     ; |77| 
         0000030d 0000 
    2491                      ; call occurs [#_GUI_set_Fgcolor] ; |77| 
    2492                      .dwpsn  "src\app_XBmod_interface.c",78,2
    2493 0000030e 9A02          MOVB      AL,#2                 ; |78| 
    2494 0000030f 8F00+         MOVL      XAR4,#FSL14           ; |78| 
         00000310 00A4 
    2495 00000311 9B02          MOVB      AH,#2                 ; |78| 
    2496 00000312 7640!         LCR       #_GUI_string_display_At ; |78| 
         00000313 0000 
    2497                      ; call occurs [#_GUI_string_display_At] ; |78| 
    2498                      .dwpsn  "src\app_XBmod_interface.c",79,5
    2499 00000314 761F-         MOVW      DP,#_m_XBmod_win_Obj
         00000315 0000 
    2500 00000316 8A02-         MOVL      XAR4,@_m_XBmod_win_Obj ; |79| 
    2501 00000317 7640!         LCR       #_GUI_window_hwin_release ; |79| 
         00000318 0000 
TMS320C2000 COFF Assembler PC v4.1.3 Thu Nov 29 16:02:59 2012

Tools Copyright (c) 1996-2006 Texas Instruments Incorporated
C:\DOCUME~1\ADMINI~1\LOCALS~1\Temp\TI4002                            PAGE   50

    2502                      ; call occurs [#_GUI_window_hwin_release] ; |79| 
    2503                      .dwpsn  "src\app_XBmod_interface.c",80,2
    2504 00000319 7640!         LCR       #_GUI_hwin_obtain     ; |80| 
         0000031a 0000 
    2505                      ; call occurs [#_GUI_hwin_obtain] ; |80| 
    2506 0000031b 2841          MOV       *-SP[1],#22           ; |80| 
         0000031c 0016 
    2507 0000031d 9A00          MOVB      AL,#0
    2508 0000031e 8F40          MOVL      XAR5,#312             ; |80| 
         0000031f 0138 
    2509 00000320 2842          MOV       *-SP[2],#1536         ; |80| 
         00000321 0600 
    2510 00000322 9BD2          MOVB      AH,#210               ; |80| 
    2511 00000323 7640!         LCR       #_GUI_radio_create    ; |80| 
         00000324 0000 
    2512                      ; call occurs [#_GUI_radio_create] ; |80| 
    2513 00000325 761F-         MOVW      DP,#_m_XBmod_win_radio
         00000326 0000 
    2514 00000327 A806-         MOVL      @_m_XBmod_win_radio,XAR4 ; |80| 
    2515                      .dwpsn  "src\app_XBmod_interface.c",81,5
    2516 00000328 8A06-         MOVL      XAR4,@_m_XBmod_win_radio ; |81| 
    2517 00000329 7640!         LCR       #_GUI_window_hwin_req ; |81| 
         0000032a 0000 
    2518                      ; call occurs [#_GUI_window_hwin_req] ; |81| 
    2519                      .dwpsn  "src\app_XBmod_interface.c",82,2
    2520 0000032b 9AFC          MOVB      AL,#252               ; |82| 
    2521 0000032c 7640!         LCR       #_GUI_set_Fgcolor     ; |82| 
         0000032d 0000 
    2522                      ; call occurs [#_GUI_set_Fgcolor] ; |82| 
    2523                      .dwpsn  "src\app_XBmod_interface.c",83,2
    2524 0000032e 9A0A          MOVB      AL,#10                ; |83| 
    2525 0000032f D500          MOVB      XAR5,#0
    2526 00000330 8F00+         MOVL      XAR4,#FSL3            ; |83| 
         00000331 0042 
    2527 00000332 9B02          MOVB      AH,#2                 ; |83| 
    2528 00000333 7640!         LCR       #_GUI_radio_memeber_add ; |83| 
         00000334 0000 
    2529                      ; call occurs [#_GUI_radio_memeber_add] ; |83| 
    2530                      .dwpsn  "src\app_XBmod_interface.c",84,2
    2531 00000335 9AFC          MOVB      AL,#252               ; |84| 
    2532 00000336 7640!         LCR       #_GUI_set_Fgcolor     ; |84| 
         00000337 0000 
    2533                      ; call occurs [#_GUI_set_Fgcolor] ; |84| 
    2534                      .dwpsn  "src\app_XBmod_interface.c",85,2
    2535 00000338 9A3C          MOVB      AL,#60                ; |85| 
    2536 00000339 D501          MOVB      XAR5,#1               ; |85| 
    2537 0000033a 8F00+         MOVL      XAR4,#FSL4            ; |85| 
         0000033b 0046 
    2538 0000033c 9B02          MOVB      AH,#2                 ; |85| 
    2539 0000033d 7640!         LCR       #_GUI_radio_memeber_add ; |85| 
         0000033e 0000 
    2540                      ; call occurs [#_GUI_radio_memeber_add] ; |85| 
    2541                      .dwpsn  "src\app_XBmod_interface.c",86,2
    2542 0000033f 9A1C          MOVB      AL,#28                ; |86| 
    2543 00000340 7640!         LCR       #_GUI_set_Fgcolor     ; |86| 
TMS320C2000 COFF Assembler PC v4.1.3 Thu Nov 29 16:02:59 2012

Tools Copyright (c) 1996-2006 Texas Instruments Incorporated
C:\DOCUME~1\ADMINI~1\LOCALS~1\Temp\TI4002                            PAGE   51

         00000341 0000 
    2544                      ; call occurs [#_GUI_set_Fgcolor] ; |86| 
    2545                      .dwpsn  "src\app_XBmod_interface.c",87,2
    2546 00000342 9A6E          MOVB      AL,#110               ; |87| 
    2547 00000343 D502          MOVB      XAR5,#2               ; |87| 
    2548 00000344 8F00+         MOVL      XAR4,#FSL5            ; |87| 
         00000345 004A 
    2549 00000346 9B02          MOVB      AH,#2                 ; |87| 
    2550 00000347 7640!         LCR       #_GUI_radio_memeber_add ; |87| 
         00000348 0000 
    2551                      ; call occurs [#_GUI_radio_memeber_add] ; |87| 
    2552                      .dwpsn  "src\app_XBmod_interface.c",88,2
    2553 00000349 9A1C          MOVB      AL,#28                ; |88| 
    2554 0000034a 7640!         LCR       #_GUI_set_Fgcolor     ; |88| 
         0000034b 0000 
    2555                      ; call occurs [#_GUI_set_Fgcolor] ; |88| 
    2556                      .dwpsn  "src\app_XBmod_interface.c",89,2
    2557 0000034c 9AA0          MOVB      AL,#160               ; |89| 
    2558 0000034d D503          MOVB      XAR5,#3               ; |89| 
    2559 0000034e 8F00+         MOVL      XAR4,#FSL6            ; |89| 
         0000034f 004E 
    2560 00000350 9B02          MOVB      AH,#2                 ; |89| 
    2561 00000351 7640!         LCR       #_GUI_radio_memeber_add ; |89| 
         00000352 0000 
    2562                      ; call occurs [#_GUI_radio_memeber_add] ; |89| 
    2563                      .dwpsn  "src\app_XBmod_interface.c",90,2
    2564 00000353 9AE0          MOVB      AL,#224               ; |90| 
    2565 00000354 7640!         LCR       #_GUI_set_Fgcolor     ; |90| 
         00000355 0000 
    2566                      ; call occurs [#_GUI_set_Fgcolor] ; |90| 
    2567                      .dwpsn  "src\app_XBmod_interface.c",91,2
    2568 00000356 9AD2          MOVB      AL,#210               ; |91| 
    2569 00000357 D504          MOVB      XAR5,#4               ; |91| 
    2570 00000358 8F00+         MOVL      XAR4,#FSL7            ; |91| 
         00000359 0052 
    2571 0000035a 9B02          MOVB      AH,#2                 ; |91| 
    2572 0000035b 7640!         LCR       #_GUI_radio_memeber_add ; |91| 
         0000035c 0000 
    2573                      ; call occurs [#_GUI_radio_memeber_add] ; |91| 
    2574                      .dwpsn  "src\app_XBmod_interface.c",92,2
    2575 0000035d 9AE0          MOVB      AL,#224               ; |92| 
    2576 0000035e 7640!         LCR       #_GUI_set_Fgcolor     ; |92| 
         0000035f 0000 
    2577                      ; call occurs [#_GUI_set_Fgcolor] ; |92| 
    2578                      .dwpsn  "src\app_XBmod_interface.c",93,2
    2579 00000360 28A9          MOV       AL,#260               ; |93| 
         00000361 0104 
    2580 00000362 D505          MOVB      XAR5,#5               ; |93| 
    2581 00000363 8F00+         MOVL      XAR4,#FSL8            ; |93| 
         00000364 0056 
    2582 00000365 9B02          MOVB      AH,#2                 ; |93| 
    2583 00000366 7640!         LCR       #_GUI_radio_memeber_add ; |93| 
         00000367 0000 
    2584                      ; call occurs [#_GUI_radio_memeber_add] ; |93| 
    2585                      .dwpsn  "src\app_XBmod_interface.c",94,5
TMS320C2000 COFF Assembler PC v4.1.3 Thu Nov 29 16:02:59 2012

Tools Copyright (c) 1996-2006 Texas Instruments Incorporated
C:\DOCUME~1\ADMINI~1\LOCALS~1\Temp\TI4002                            PAGE   52

    2586 00000368 761F-         MOVW      DP,#_m_XBmod_win_radio
         00000369 0000 
    2587 0000036a 8A06-         MOVL      XAR4,@_m_XBmod_win_radio ; |94| 
    2588 0000036b 7640!         LCR       #_GUI_window_hwin_release ; |94| 
         0000036c 0000 
    2589                      ; call occurs [#_GUI_window_hwin_release] ; |94| 
    2590                      .dwpsn  "src\app_XBmod_interface.c",95,2
    2591                      .dwpsn  "src\app_XBmod_interface.c",96,1
    2592 0000036d FE84          SUBB      SP,#4
    2593                      .dwcfa  0x1d, -2
    2594 0000036e 0006          LRETR
    2595                      ; return occurs
    2596                      .dwattr DW$283, DW_AT_end_file("src\app_XBmod_interface.c")
    2597                      .dwattr DW$283, DW_AT_end_line(0x60)
    2598                      .dwattr DW$283, DW_AT_end_column(0x01)
    2599                      .dwendentry
    2600                      .dwendtag DW$283
    2601              
    2602 0000036f               .sect   ".text"
    2603                      .global _app_XBmod_window_destory
    2604              
    2605              DW$284  .dwtag  DW_TAG_subprogram, DW_AT_name("app_XBmod_window_destory"), DW_AT_symbol_name("_app_XBmod_wind
    2606                      .dwattr DW$284, DW_AT_low_pc(_app_XBmod_window_destory)
    2607                      .dwattr DW$284, DW_AT_high_pc(0x00)
    2608                      .dwattr DW$284, DW_AT_begin_file("src\app_XBmod_interface.c")
    2609                      .dwattr DW$284, DW_AT_begin_line(0x67)
    2610                      .dwattr DW$284, DW_AT_begin_column(0x06)
    2611                      .dwpsn  "src\app_XBmod_interface.c",104,1
    2612              
    2613                      .dwfde DW$CIE
    2614              
    2615              ;***************************************************************
    2616              ;* FNAME: _app_XBmod_window_destory     FR SIZE:   0           *
    2617              ;*                                                             *
    2618              ;* FUNCTION ENVIRONMENT                                        *
    2619              ;*                                                             *
    2620              ;* FUNCTION PROPERTIES                                         *
    2621              ;*                            0 Parameter,  0 Auto,  0 SOE     *
    2622              ;***************************************************************
    2623              
    2624              _app_XBmod_window_destory:
    2625                      .dwcfa  0x1d, -2
    2626                      .dwcfa  0x1c, 26, 0
    2627                      .dwcfa  0x09, 40, 26
    2628                      .dwpsn  "src\app_XBmod_interface.c",105,4
    2629 0000036f 761F-         MOVW      DP,#_m_XBmod_win_Obj
         00000370 0000 
    2630 00000371 8A02-         MOVL      XAR4,@_m_XBmod_win_Obj ; |105| 
    2631 00000372 7640!         LCR       #_GUI_window_destory  ; |105| 
         00000373 0000 
    2632                      ; call occurs [#_GUI_window_destory] ; |105| 
    2633                      .dwpsn  "src\app_XBmod_interface.c",106,4
    2634 00000374 761F-         MOVW      DP,#_m_XBmod_win_radio
         00000375 0000 
    2635 00000376 8A06-         MOVL      XAR4,@_m_XBmod_win_radio ; |106| 
TMS320C2000 COFF Assembler PC v4.1.3 Thu Nov 29 16:02:59 2012

Tools Copyright (c) 1996-2006 Texas Instruments Incorporated
C:\DOCUME~1\ADMINI~1\LOCALS~1\Temp\TI4002                            PAGE   53

    2636 00000377 7640!         LCR       #_GUI_window_destory  ; |106| 
         00000378 0000 
    2637                      ; call occurs [#_GUI_window_destory] ; |106| 
    2638                      .dwpsn  "src\app_XBmod_interface.c",107,4
    2639                      .dwpsn  "src\app_XBmod_interface.c",108,1
    2640 00000379 0006          LRETR
    2641                      ; return occurs
    2642                      .dwattr DW$284, DW_AT_end_file("src\app_XBmod_interface.c")
    2643                      .dwattr DW$284, DW_AT_end_line(0x6c)
    2644                      .dwattr DW$284, DW_AT_end_column(0x01)
    2645                      .dwendentry
    2646                      .dwendtag DW$284
    2647              
    2648 0000037a               .sect   ".text"
    2649                      .global _app_XBmod_graph_display
    2650              
    2651              DW$285  .dwtag  DW_TAG_subprogram, DW_AT_name("app_XBmod_graph_display"), DW_AT_symbol_name("_app_XBmod_graph
    2652                      .dwattr DW$285, DW_AT_low_pc(_app_XBmod_graph_display)
    2653                      .dwattr DW$285, DW_AT_high_pc(0x00)
    2654                      .dwattr DW$285, DW_AT_begin_file("src\app_XBmod_interface.c")
    2655                      .dwattr DW$285, DW_AT_begin_line(0x73)
    2656                      .dwattr DW$285, DW_AT_begin_column(0x06)
    2657                      .dwpsn  "src\app_XBmod_interface.c",116,1
    2658              
    2659                      .dwfde DW$CIE
    2660              
    2661              ;***************************************************************
    2662              ;* FNAME: _app_XBmod_graph_display      FR SIZE:  20           *
    2663              ;*                                                             *
    2664              ;* FUNCTION ENVIRONMENT                                        *
    2665              ;*                                                             *
    2666              ;* FUNCTION PROPERTIES                                         *
    2667              ;*                            2 Parameter, 17 Auto,  0 SOE     *
    2668              ;***************************************************************
    2669              
    2670              _app_XBmod_graph_display:
    2671                      .dwcfa  0x1d, -2
    2672                      .dwcfa  0x1c, 26, 0
    2673                      .dwcfa  0x09, 40, 26
    2674 0000037a FE14          ADDB      SP,#20
    2675                      .dwcfa  0x1d, -22
    2676              ;* AR4   assigned to _len
    2677              DW$286  .dwtag  DW_TAG_formal_parameter, DW_AT_name("len"), DW_AT_symbol_name("_len")
    2678                      .dwattr DW$286, DW_AT_type(*DW$T$10)
    2679                      .dwattr DW$286, DW_AT_location[DW_OP_reg12]
    2680              ;* AR5   assigned to _n
    2681              DW$287  .dwtag  DW_TAG_formal_parameter, DW_AT_name("n"), DW_AT_symbol_name("_n")
    2682                      .dwattr DW$287, DW_AT_type(*DW$T$10)
    2683                      .dwattr DW$287, DW_AT_location[DW_OP_reg14]
    2684              ;* AL    assigned to _fuge
    2685              DW$288  .dwtag  DW_TAG_formal_parameter, DW_AT_name("fuge"), DW_AT_symbol_name("_fuge")
    2686                      .dwattr DW$288, DW_AT_type(*DW$T$16)
    2687                      .dwattr DW$288, DW_AT_location[DW_OP_reg0]
    2688              DW$289  .dwtag  DW_TAG_variable, DW_AT_name("len"), DW_AT_symbol_name("_len")
    2689                      .dwattr DW$289, DW_AT_type(*DW$T$10)
TMS320C2000 COFF Assembler PC v4.1.3 Thu Nov 29 16:02:59 2012

Tools Copyright (c) 1996-2006 Texas Instruments Incorporated
C:\DOCUME~1\ADMINI~1\LOCALS~1\Temp\TI4002                            PAGE   54

    2690                      .dwattr DW$289, DW_AT_location[DW_OP_breg20 -3]
    2691              DW$290  .dwtag  DW_TAG_variable, DW_AT_name("n"), DW_AT_symbol_name("_n")
    2692                      .dwattr DW$290, DW_AT_type(*DW$T$10)
    2693                      .dwattr DW$290, DW_AT_location[DW_OP_breg20 -4]
    2694              DW$291  .dwtag  DW_TAG_variable, DW_AT_name("fuge"), DW_AT_symbol_name("_fuge")
    2695                      .dwattr DW$291, DW_AT_type(*DW$T$16)
    2696                      .dwattr DW$291, DW_AT_location[DW_OP_breg20 -6]
    2697              DW$292  .dwtag  DW_TAG_variable, DW_AT_name("x"), DW_AT_symbol_name("_x")
    2698                      .dwattr DW$292, DW_AT_type(*DW$T$10)
    2699                      .dwattr DW$292, DW_AT_location[DW_OP_breg20 -7]
    2700              DW$293  .dwtag  DW_TAG_variable, DW_AT_name("y"), DW_AT_symbol_name("_y")
    2701                      .dwattr DW$293, DW_AT_type(*DW$T$10)
    2702                      .dwattr DW$293, DW_AT_location[DW_OP_breg20 -8]
    2703              DW$294  .dwtag  DW_TAG_variable, DW_AT_name("mid"), DW_AT_symbol_name("_mid")
    2704                      .dwattr DW$294, DW_AT_type(*DW$T$10)
    2705                      .dwattr DW$294, DW_AT_location[DW_OP_breg20 -9]
    2706              DW$295  .dwtag  DW_TAG_variable, DW_AT_name("temp"), DW_AT_symbol_name("_temp")
    2707                      .dwattr DW$295, DW_AT_type(*DW$T$141)
    2708                      .dwattr DW$295, DW_AT_location[DW_OP_breg20 -19]
    2709 0000037b 1E46          MOVL      *-SP[6],ACC           ; |116| 
    2710 0000037c 7D44          MOV       *-SP[4],AR5           ; |116| 
    2711 0000037d 7C43          MOV       *-SP[3],AR4           ; |116| 
    2712                      .dwpsn  "src\app_XBmod_interface.c",123,6
    2713 0000037e 5CAD          MOVZ      AR4,SP                ; |123| 
    2714 0000037f 76C0+         MOVL      XAR7,#_$T1$2          ; |123| 
         00000380 0000 
    2715 00000381 DC93          SUBB      XAR4,#19              ; |123| 
    2716 00000382 F609          RPT       #9
    2717 00000383 2484  ||     PREAD     *XAR4++,*XAR7         ; |123| 
    2718                      .dwpsn  "src\app_XBmod_interface.c",124,5
    2719 00000384 9244          MOV       AL,*-SP[4]            ; |124| 
    2720 00000385 520C          CMPB      AL,#12                ; |124| 
    2721 00000386 6308          B         L48,GEQ               ; |124| 
    2722                      ; branchcc occurs ; |124| 
    2723                      .dwpsn  "src\app_XBmod_interface.c",126,6
    2724 00000387 2D44          MOV       T,*-SP[4]             ; |126| 
    2725 00000388 351D          MPYB      ACC,T,#29             ; |126| 
    2726 00000389 9CD0          ADDB      AL,#-48
    2727 0000038a 9647          MOV       *-SP[7],AL            ; |126| 
    2728                      .dwpsn  "src\app_XBmod_interface.c",127,3
    2729 0000038b 2848          MOV       *-SP[8],#90           ; |127| 
         0000038c 005A 
    2730                      .dwpsn  "src\app_XBmod_interface.c",128,5
    2731 0000038d 6F28          B         L52,UNC               ; |128| 
    2732                      ; branch occurs ; |128| 
    2733              L48:    
    2734                      .dwpsn  "src\app_XBmod_interface.c",129,10
    2735 0000038e 5216          CMPB      AL,#22                ; |129| 
    2736 0000038f 6309          B         L49,GEQ               ; |129| 
    2737                      ; branchcc occurs ; |129| 
    2738                      .dwpsn  "src\app_XBmod_interface.c",131,6
    2739 00000390 2D44          MOV       T,*-SP[4]             ; |131| 
    2740 00000391 351D          MPYB      ACC,T,#29             ; |131| 
    2741 00000392 08A9          SUB       AL,#338               ; |131| 
         00000393 FEAE 
TMS320C2000 COFF Assembler PC v4.1.3 Thu Nov 29 16:02:59 2012

Tools Copyright (c) 1996-2006 Texas Instruments Incorporated
C:\DOCUME~1\ADMINI~1\LOCALS~1\Temp\TI4002                            PAGE   55

    2742 00000394 9647          MOV       *-SP[7],AL            ; |131| 
    2743                      .dwpsn  "src\app_XBmod_interface.c",132,3
    2744 00000395 2848          MOV       *-SP[8],#193          ; |132| 
         00000396 00C1 
    2745                      .dwpsn  "src\app_XBmod_interface.c",133,5
    2746 00000397 6F1E          B         L52,UNC               ; |133| 
    2747                      ; branch occurs ; |133| 
    2748              L49:    
    2749                      .dwpsn  "src\app_XBmod_interface.c",134,10
    2750 00000398 5220          CMPB      AL,#32                ; |134| 
    2751 00000399 6309          B         L50,GEQ               ; |134| 
    2752                      ; branchcc occurs ; |134| 
    2753                      .dwpsn  "src\app_XBmod_interface.c",136,6
    2754 0000039a 2D44          MOV       T,*-SP[4]             ; |136| 
    2755 0000039b 351D          MPYB      ACC,T,#29             ; |136| 
    2756 0000039c 08A9          SUB       AL,#628               ; |136| 
         0000039d FD8C 
    2757 0000039e 9647          MOV       *-SP[7],AL            ; |136| 
    2758                      .dwpsn  "src\app_XBmod_interface.c",137,3
    2759 0000039f 2848          MOV       *-SP[8],#90           ; |137| 
         000003a0 005A 
    2760                      .dwpsn  "src\app_XBmod_interface.c",138,5
    2761 000003a1 6F14          B         L52,UNC               ; |138| 
    2762                      ; branch occurs ; |138| 
    2763              L50:    
    2764                      .dwpsn  "src\app_XBmod_interface.c",139,10
    2765 000003a2 522A          CMPB      AL,#42                ; |139| 
    2766 000003a3 6309          B         L51,GEQ               ; |139| 
    2767                      ; branchcc occurs ; |139| 
    2768                      .dwpsn  "src\app_XBmod_interface.c",141,6
    2769 000003a4 2D44          MOV       T,*-SP[4]             ; |141| 
    2770 000003a5 351D          MPYB      ACC,T,#29             ; |141| 
    2771 000003a6 08A9          SUB       AL,#918               ; |141| 
         000003a7 FC6A 
    2772 000003a8 9647          MOV       *-SP[7],AL            ; |141| 
    2773                      .dwpsn  "src\app_XBmod_interface.c",142,3
    2774 000003a9 2848          MOV       *-SP[8],#193          ; |142| 
         000003aa 00C1 
    2775                      .dwpsn  "src\app_XBmod_interface.c",143,5
    2776 000003ab 6F0A          B         L52,UNC               ; |143| 
    2777                      ; branch occurs ; |143| 
    2778              L51:    
    2779                      .dwpsn  "src\app_XBmod_interface.c",144,10
    2780 000003ac 5234          CMPB      AL,#52                ; |144| 
    2781 000003ad 6308          B         L52,GEQ               ; |144| 
    2782                      ; branchcc occurs ; |144| 
    2783                      .dwpsn  "src\app_XBmod_interface.c",146,6
    2784 000003ae 2D44          MOV       T,*-SP[4]             ; |146| 
    2785 000003af 351D          MPYB      ACC,T,#29             ; |146| 
    2786 000003b0 08A9          SUB       AL,#1208              ; |146| 
         000003b1 FB48 
    2787 000003b2 9647          MOV       *-SP[7],AL            ; |146| 
    2788                      .dwpsn  "src\app_XBmod_interface.c",147,3
    2789 000003b3 2848          MOV       *-SP[8],#90           ; |147| 
         000003b4 005A 
TMS320C2000 COFF Assembler PC v4.1.3 Thu Nov 29 16:02:59 2012

Tools Copyright (c) 1996-2006 Texas Instruments Incorporated
C:\DOCUME~1\ADMINI~1\LOCALS~1\Temp\TI4002                            PAGE   56

    2790              L52:    
    2791                      .dwpsn  "src\app_XBmod_interface.c",149,2
    2792 000003b5 761F-         MOVW      DP,#_m_XBmod_win_Obj
         000003b6 0000 
    2793 000003b7 8A02-         MOVL      XAR4,@_m_XBmod_win_Obj ; |149| 
    2794 000003b8 7640!         LCR       #_GUI_window_hwin_req ; |149| 
         000003b9 0000 
    2795                      ; call occurs [#_GUI_window_hwin_req] ; |149| 
    2796                      .dwpsn  "src\app_XBmod_interface.c",150,2
    2797 000003ba 9A0A          MOVB      AL,#10                ; |150| 
    2798 000003bb 7640!         LCR       #_GUI_set_Bgcolor     ; |150| 
         000003bc 0000 
    2799                      ; call occurs [#_GUI_set_Bgcolor] ; |150| 
    2800                      .dwpsn  "src\app_XBmod_interface.c",151,5
    2801 000003bd 9348          MOV       AH,*-SP[8]            ; |151| 
    2802 000003be 9247          MOV       AL,*-SP[7]            ; |151| 
    2803 000003bf 9DCE          ADDB      AH,#-50
    2804 000003c0 9C19          ADDB      AL,#25                ; |151| 
    2805 000003c1 5CA9          MOVZ      AR4,AL                ; |151| 
    2806 000003c2 5D48          MOVZ      AR5,*-SP[8]           ; |151| 
    2807 000003c3 9247          MOV       AL,*-SP[7]            ; |151| 
    2808 000003c4 7640!         LCR       #_GUI_fill_window_area ; |151| 
         000003c5 0000 
    2809                      ; call occurs [#_GUI_fill_window_area] ; |151| 
    2810                      .dwpsn  "src\app_XBmod_interface.c",152,2
    2811 000003c6 9AE0          MOVB      AL,#224               ; |152| 
    2812 000003c7 7640!         LCR       #_GUI_set_Bgcolor     ; |152| 
         000003c8 0000 
    2813                      ; call occurs [#_GUI_set_Bgcolor] ; |152| 
    2814                      .dwpsn  "src\app_XBmod_interface.c",153,5
    2815 000003c9 9348          MOV       AH,*-SP[8]            ; |153| 
    2816 000003ca 9247          MOV       AL,*-SP[7]            ; |153| 
    2817 000003cb 9F43          SUB       AH,*-SP[3]            ; |153| 
    2818 000003cc 9C19          ADDB      AL,#25                ; |153| 
    2819 000003cd 5CA9          MOVZ      AR4,AL                ; |153| 
    2820 000003ce 5D48          MOVZ      AR5,*-SP[8]           ; |153| 
    2821 000003cf 9247          MOV       AL,*-SP[7]            ; |153| 
    2822 000003d0 7640!         LCR       #_GUI_fill_window_area ; |153| 
         000003d1 0000 
    2823                      ; call occurs [#_GUI_fill_window_area] ; |153| 
    2824                      .dwpsn  "src\app_XBmod_interface.c",154,2
    2825 000003d2 9AFF          MOVB      AL,#255               ; |154| 
    2826 000003d3 7640!         LCR       #_GUI_set_Fgcolor     ; |154| 
         000003d4 0000 
    2827                      ; call occurs [#_GUI_set_Fgcolor] ; |154| 
    2828                      .dwpsn  "src\app_XBmod_interface.c",155,2
    2829 000003d5 9A0A          MOVB      AL,#10                ; |155| 
    2830 000003d6 7640!         LCR       #_GUI_set_Bgcolor     ; |155| 
         000003d7 0000 
    2831                      ; call occurs [#_GUI_set_Bgcolor] ; |155| 
    2832                      .dwpsn  "src\app_XBmod_interface.c",156,2
    2833 000003d8 5CAD          MOVZ      AR4,SP                ; |156| 
    2834 000003d9 9244          MOV       AL,*-SP[4]            ; |156| 
    2835 000003da DC93          SUBB      XAR4,#19              ; |156| 
    2836 000003db 7640!         LCR       #_global_itoa         ; |156| 
TMS320C2000 COFF Assembler PC v4.1.3 Thu Nov 29 16:02:59 2012

Tools Copyright (c) 1996-2006 Texas Instruments Incorporated
C:\DOCUME~1\ADMINI~1\LOCALS~1\Temp\TI4002                            PAGE   57

         000003dc 0000 
    2837                      ; call occurs [#_global_itoa] ; |156| 
    2838                      .dwpsn  "src\app_XBmod_interface.c",157,2
    2839 000003dd 8F00!         MOVL      XAR4,#_GUI_F8X11_ASCII ; |157| 
         000003de 0000 
    2840 000003df 7640!         LCR       #_GUI_SetFront        ; |157| 
         000003e0 0000 
    2841                      ; call occurs [#_GUI_SetFront] ; |157| 
    2842                      .dwpsn  "src\app_XBmod_interface.c",158,2
    2843 000003e1 5CAD          MOVZ      AR4,SP                ; |158| 
    2844 000003e2 DC93          SUBB      XAR4,#19              ; |158| 
    2845 000003e3 7640!         LCR       #_global_strlen       ; |158| 
         000003e4 0000 
    2846                      ; call occurs [#_global_strlen] ; |158| 
    2847 000003e5 2DA9          MOV       T,AL                  ; |158| 
    2848 000003e6 9A19          MOVB      AL,#25                ; |158| 
    2849 000003e7 3106          MPYB      P,T,#6                ; |158| 
    2850 000003e8 9EAB          SUB       AL,PL                 ; |158| 
    2851 000003e9 FFC0          LSR       AL,1                  ; |158| 
    2852 000003ea 9649          MOV       *-SP[9],AL            ; |158| 
    2853                      .dwpsn  "src\app_XBmod_interface.c",159,2
    2854 000003eb 5CAD          MOVZ      AR4,SP                ; |159| 
    2855 000003ec 9447          ADD       AL,*-SP[7]            ; |159| 
    2856 000003ed 9348          MOV       AH,*-SP[8]            ; |159| 
    2857 000003ee DC93          SUBB      XAR4,#19              ; |159| 
    2858 000003ef 9D02          ADDB      AH,#2                 ; |159| 
    2859 000003f0 7640!         LCR       #_GUI_string_display_At ; |159| 
         000003f1 0000 
    2860                      ; call occurs [#_GUI_string_display_At] ; |159| 
    2861                      .dwpsn  "src\app_XBmod_interface.c",160,2
    2862 000003f2 9AFC          MOVB      AL,#252               ; |160| 
    2863 000003f3 7640!         LCR       #_GUI_set_Fgcolor     ; |160| 
         000003f4 0000 
    2864                      ; call occurs [#_GUI_set_Fgcolor] ; |160| 
    2865                      .dwpsn  "src\app_XBmod_interface.c",161,2
    2866 000003f5 9A00          MOV       AL,#0
    2867 000003f6 9B00          MOV       AH,#0
    2868 000003f7 1E42          MOVL      *-SP[2],ACC           ; |161| 
    2869 000003f8 0646          MOVL      ACC,*-SP[6]           ; |161| 
    2870 000003f9 7640!         LCR       #FS$$CMP              ; |161| 
         000003fa 0000 
    2871                      ; call occurs [#FS$$CMP] ; |161| 
    2872 000003fb 5200          CMPB      AL,#0                 ; |161| 
    2873 000003fc ED08          BF        L53,NEQ               ; |161| 
    2874                      ; branchcc occurs ; |161| 
    2875                      .dwpsn  "src\app_XBmod_interface.c",161,15
    2876 000003fd 5CAD          MOVZ      AR4,SP                ; |161| 
    2877 000003fe 8F40+         MOVL      XAR5,#FSL15           ; |161| 
         000003ff 00AE 
    2878 00000400 DC93          SUBB      XAR4,#19              ; |161| 
    2879 00000401 7640!         LCR       #_global_strcpy       ; |161| 
         00000402 0000 
    2880                      ; call occurs [#_global_strcpy] ; |161| 
    2881 00000403 6F29          B         L56,UNC               ; |161| 
    2882                      ; branch occurs ; |161| 
TMS320C2000 COFF Assembler PC v4.1.3 Thu Nov 29 16:02:59 2012

Tools Copyright (c) 1996-2006 Texas Instruments Incorporated
C:\DOCUME~1\ADMINI~1\LOCALS~1\Temp\TI4002                            PAGE   58

    2883              L53:    
    2884                      .dwpsn  "src\app_XBmod_interface.c",162,7
    2885 00000404 28A9          MOV       AL,#55050
         00000405 D70A 
    2886 00000406 28A8          MOV       AH,#15395
         00000407 3C23 
    2887 00000408 1E42          MOVL      *-SP[2],ACC           ; |162| 
    2888 00000409 0646          MOVL      ACC,*-SP[6]           ; |162| 
    2889 0000040a 7640!         LCR       #FS$$CMP              ; |162| 
         0000040b 0000 
    2890                      ; call occurs [#FS$$CMP] ; |162| 
    2891 0000040c 5200          CMPB      AL,#0                 ; |162| 
    2892 0000040d 6308          B         L54,GEQ               ; |162| 
    2893                      ; branchcc occurs ; |162| 
    2894                      .dwpsn  "src\app_XBmod_interface.c",162,20
    2895 0000040e 5CAD          MOVZ      AR4,SP                ; |162| 
    2896 0000040f 8F40+         MOVL      XAR5,#FSL16           ; |162| 
         00000410 00B0 
    2897 00000411 DC93          SUBB      XAR4,#19              ; |162| 
    2898 00000412 7640!         LCR       #_global_strcpy       ; |162| 
         00000413 0000 
    2899                      ; call occurs [#_global_strcpy] ; |162| 
    2900 00000414 6F18          B         L56,UNC               ; |162| 
    2901                      ; branch occurs ; |162| 
    2902              L54:    
    2903                      .dwpsn  "src\app_XBmod_interface.c",163,7
    2904 00000415 9A00          MOV       AL,#0
    2905 00000416 28A8          MOV       AH,#16672
         00000417 4120 
    2906 00000418 1E42          MOVL      *-SP[2],ACC           ; |163| 
    2907 00000419 0646          MOVL      ACC,*-SP[6]           ; |163| 
    2908 0000041a 7640!         LCR       #FS$$CMP              ; |163| 
         0000041b 0000 
    2909                      ; call occurs [#FS$$CMP] ; |163| 
    2910 0000041c 5200          CMPB      AL,#0                 ; |163| 
    2911 0000041d 6509          B         L55,LEQ               ; |163| 
    2912                      ; branchcc occurs ; |163| 
    2913                      .dwpsn  "src\app_XBmod_interface.c",163,19
    2914 0000041e 0646          MOVL      ACC,*-SP[6]           ; |163| 
    2915 0000041f 7640!         LCR       #FS$$TOL              ; |163| 
         00000420 0000 
    2916                      ; call occurs [#FS$$TOL] ; |163| 
    2917 00000421 5CAD          MOVZ      AR4,SP                ; |163| 
    2918 00000422 DC93          SUBB      XAR4,#19              ; |163| 
    2919 00000423 7640!         LCR       #_global_ltoa         ; |163| 
         00000424 0000 
    2920                      ; call occurs [#_global_ltoa] ; |163| 
    2921 00000425 6F07          B         L56,UNC               ; |163| 
    2922                      ; branch occurs ; |163| 
    2923              L55:    
    2924                      .dwpsn  "src\app_XBmod_interface.c",164,15
    2925 00000426 5CAD          MOVZ      AR4,SP                ; |164| 
    2926 00000427 0646          MOVL      ACC,*-SP[6]           ; |164| 
    2927 00000428 D502          MOVB      XAR5,#2               ; |164| 
    2928 00000429 DC93          SUBB      XAR4,#19              ; |164| 
TMS320C2000 COFF Assembler PC v4.1.3 Thu Nov 29 16:02:59 2012

Tools Copyright (c) 1996-2006 Texas Instruments Incorporated
C:\DOCUME~1\ADMINI~1\LOCALS~1\Temp\TI4002                            PAGE   59

    2929 0000042a 7640!         LCR       #_global_ftoa         ; |164| 
         0000042b 0000 
    2930                      ; call occurs [#_global_ftoa] ; |164| 
    2931              L56:    
    2932                      .dwpsn  "src\app_XBmod_interface.c",165,2
    2933 0000042c 5CAD          MOVZ      AR4,SP                ; |165| 
    2934 0000042d DC93          SUBB      XAR4,#19              ; |165| 
    2935 0000042e 7640!         LCR       #_global_strlen       ; |165| 
         0000042f 0000 
    2936                      ; call occurs [#_global_strlen] ; |165| 
    2937 00000430 2DA9          MOV       T,AL                  ; |165| 
    2938 00000431 9A19          MOVB      AL,#25                ; |165| 
    2939 00000432 3106          MPYB      P,T,#6                ; |165| 
    2940 00000433 9EAB          SUB       AL,PL                 ; |165| 
    2941 00000434 FFC0          LSR       AL,1                  ; |165| 
    2942 00000435 9649          MOV       *-SP[9],AL            ; |165| 
    2943                      .dwpsn  "src\app_XBmod_interface.c",166,2
    2944 00000436 5CAD          MOVZ      AR4,SP                ; |166| 
    2945 00000437 9348          MOV       AH,*-SP[8]            ; |166| 
    2946 00000438 9447          ADD       AL,*-SP[7]            ; |166| 
    2947 00000439 9F43          SUB       AH,*-SP[3]            ; |166| 
    2948 0000043a DC93          SUBB      XAR4,#19              ; |166| 
    2949 0000043b 9DF3          ADDB      AH,#-13
    2950 0000043c 7640!         LCR       #_GUI_string_display_At ; |166| 
         0000043d 0000 
    2951                      ; call occurs [#_GUI_string_display_At] ; |166| 
    2952                      .dwpsn  "src\app_XBmod_interface.c",167,2
    2953 0000043e 8F00!         MOVL      XAR4,#_GUI_F8X16_EXTASCII ; |167| 
         0000043f 0000 
    2954 00000440 7640!         LCR       #_GUI_SetFront        ; |167| 
         00000441 0000 
    2955                      ; call occurs [#_GUI_SetFront] ; |167| 
    2956                      .dwpsn  "src\app_XBmod_interface.c",168,2
    2957 00000442 761F-         MOVW      DP,#_m_XBmod_win_Obj
         00000443 0000 
    2958 00000444 8A02-         MOVL      XAR4,@_m_XBmod_win_Obj ; |168| 
    2959 00000445 7640!         LCR       #_GUI_window_hwin_release ; |168| 
         00000446 0000 
    2960                      ; call occurs [#_GUI_window_hwin_release] ; |168| 
    2961                      .dwpsn  "src\app_XBmod_interface.c",169,2
    2962                      .dwpsn  "src\app_XBmod_interface.c",170,1
    2963 00000447 FE94          SUBB      SP,#20
    2964                      .dwcfa  0x1d, -2
    2965 00000448 0006          LRETR
    2966                      ; return occurs
    2967                      .dwattr DW$285, DW_AT_end_file("src\app_XBmod_interface.c")
    2968                      .dwattr DW$285, DW_AT_end_line(0xaa)
    2969                      .dwattr DW$285, DW_AT_end_column(0x01)
    2970                      .dwendentry
    2971                      .dwendtag DW$285
    2972              
    2973 00000449               .sect   ".text"
    2974                      .global _app_XBmod_ruler_clean
    2975              
    2976              DW$296  .dwtag  DW_TAG_subprogram, DW_AT_name("app_XBmod_ruler_clean"), DW_AT_symbol_name("_app_XBmod_ruler_c
TMS320C2000 COFF Assembler PC v4.1.3 Thu Nov 29 16:02:59 2012

Tools Copyright (c) 1996-2006 Texas Instruments Incorporated
C:\DOCUME~1\ADMINI~1\LOCALS~1\Temp\TI4002                            PAGE   60

    2977                      .dwattr DW$296, DW_AT_low_pc(_app_XBmod_ruler_clean)
    2978                      .dwattr DW$296, DW_AT_high_pc(0x00)
    2979                      .dwattr DW$296, DW_AT_begin_file("src\app_XBmod_interface.c")
    2980                      .dwattr DW$296, DW_AT_begin_line(0xac)
    2981                      .dwattr DW$296, DW_AT_begin_column(0x06)
    2982                      .dwpsn  "src\app_XBmod_interface.c",173,1
    2983              
    2984                      .dwfde DW$CIE
    2985              
    2986              ;***************************************************************
    2987              ;* FNAME: _app_XBmod_ruler_clean        FR SIZE:   0           *
    2988              ;*                                                             *
    2989              ;* FUNCTION ENVIRONMENT                                        *
    2990              ;*                                                             *
    2991              ;* FUNCTION PROPERTIES                                         *
    2992              ;*                            0 Parameter,  0 Auto,  0 SOE     *
    2993              ;***************************************************************
    2994              
    2995              _app_XBmod_ruler_clean:
    2996                      .dwcfa  0x1d, -2
    2997                      .dwcfa  0x1c, 26, 0
    2998                      .dwcfa  0x09, 40, 26
    2999                      .dwpsn  "src\app_XBmod_interface.c",174,2
    3000 00000449 761F-         MOVW      DP,#_m_XBmod_win_Obj
         0000044a 0000 
    3001 0000044b 8A02-         MOVL      XAR4,@_m_XBmod_win_Obj ; |174| 
    3002 0000044c 7640!         LCR       #_GUI_window_hwin_req ; |174| 
         0000044d 0000 
    3003                      ; call occurs [#_GUI_window_hwin_req] ; |174| 
    3004                      .dwpsn  "src\app_XBmod_interface.c",175,2
    3005 0000044e 9A0A          MOVB      AL,#10                ; |175| 
    3006 0000044f 7640!         LCR       #_GUI_set_Bgcolor     ; |175| 
         00000450 0000 
    3007                      ; call occurs [#_GUI_set_Bgcolor] ; |175| 
    3008                      .dwpsn  "src\app_XBmod_interface.c",176,5
    3009 00000451 9A0A          MOVB      AL,#10                ; |176| 
    3010 00000452 8F00          MOVL      XAR4,#300             ; |176| 
         00000453 012C 
    3011 00000454 D569          MOVB      XAR5,#105             ; |176| 
    3012 00000455 9B5B          MOVB      AH,#91                ; |176| 
    3013 00000456 7640!         LCR       #_GUI_fill_window_area ; |176| 
         00000457 0000 
    3014                      ; call occurs [#_GUI_fill_window_area] ; |176| 
    3015                      .dwpsn  "src\app_XBmod_interface.c",177,5
    3016 00000458 9A0A          MOVB      AL,#10                ; |177| 
    3017 00000459 8F00          MOVL      XAR4,#300             ; |177| 
         0000045a 012C 
    3018 0000045b D5D0          MOVB      XAR5,#208             ; |177| 
    3019 0000045c 9BC2          MOVB      AH,#194               ; |177| 
    3020 0000045d 7640!         LCR       #_GUI_fill_window_area ; |177| 
         0000045e 0000 
    3021                      ; call occurs [#_GUI_fill_window_area] ; |177| 
    3022                      .dwpsn  "src\app_XBmod_interface.c",179,5
    3023 0000045f 9A0A          MOVB      AL,#10                ; |179| 
    3024 00000460 8F00          MOVL      XAR4,#300             ; |179| 
TMS320C2000 COFF Assembler PC v4.1.3 Thu Nov 29 16:02:59 2012

Tools Copyright (c) 1996-2006 Texas Instruments Incorporated
C:\DOCUME~1\ADMINI~1\LOCALS~1\Temp\TI4002                            PAGE   61

         00000461 012C 
    3025 00000462 D55A          MOVB      XAR5,#90              ; |179| 
    3026 00000463 9B23          MOVB      AH,#35                ; |179| 
    3027 00000464 7640!         LCR       #_GUI_fill_window_area ; |179| 
         00000465 0000 
    3028                      ; call occurs [#_GUI_fill_window_area] ; |179| 
    3029                      .dwpsn  "src\app_XBmod_interface.c",180,5
    3030 00000466 9A0A          MOVB      AL,#10                ; |180| 
    3031 00000467 8F00          MOVL      XAR4,#300             ; |180| 
         00000468 012C 
    3032 00000469 D5C0          MOVB      XAR5,#192             ; |180| 
    3033 0000046a 9B89          MOVB      AH,#137               ; |180| 
    3034 0000046b 7640!         LCR       #_GUI_fill_window_area ; |180| 
         0000046c 0000 
    3035                      ; call occurs [#_GUI_fill_window_area] ; |180| 
    3036                      .dwpsn  "src\app_XBmod_interface.c",182,2
    3037 0000046d 761F-         MOVW      DP,#_m_XBmod_win_Obj
         0000046e 0000 
    3038 0000046f 8A02-         MOVL      XAR4,@_m_XBmod_win_Obj ; |182| 
    3039 00000470 7640!         LCR       #_GUI_window_hwin_release ; |182| 
         00000471 0000 
    3040                      ; call occurs [#_GUI_window_hwin_release] ; |182| 
    3041                      .dwpsn  "src\app_XBmod_interface.c",183,2
    3042                      .dwpsn  "src\app_XBmod_interface.c",184,1
    3043 00000472 0006          LRETR
    3044                      ; return occurs
    3045                      .dwattr DW$296, DW_AT_end_file("src\app_XBmod_interface.c")
    3046                      .dwattr DW$296, DW_AT_end_line(0xb8)
    3047                      .dwattr DW$296, DW_AT_end_column(0x01)
    3048                      .dwendentry
    3049                      .dwendtag DW$296
    3050              
    3051 00000473               .sect   ".text"
    3052                      .global _app_XBmod_graph_display_pahse
    3053              
    3054              DW$297  .dwtag  DW_TAG_subprogram, DW_AT_name("app_XBmod_graph_display_pahse"), DW_AT_symbol_name("_app_XBmod
    3055                      .dwattr DW$297, DW_AT_low_pc(_app_XBmod_graph_display_pahse)
    3056                      .dwattr DW$297, DW_AT_high_pc(0x00)
    3057                      .dwattr DW$297, DW_AT_begin_file("src\app_XBmod_interface.c")
    3058                      .dwattr DW$297, DW_AT_begin_line(0xbf)
    3059                      .dwattr DW$297, DW_AT_begin_column(0x06)
    3060                      .dwpsn  "src\app_XBmod_interface.c",192,1
    3061              
    3062                      .dwfde DW$CIE
    3063              
    3064              ;***************************************************************
    3065              ;* FNAME: _app_XBmod_graph_display_pahse FR SIZE:  14           *
    3066              ;*                                                             *
    3067              ;* FUNCTION ENVIRONMENT                                        *
    3068              ;*                                                             *
    3069              ;* FUNCTION PROPERTIES                                         *
    3070              ;*                            0 Parameter, 14 Auto,  0 SOE     *
    3071              ;***************************************************************
    3072              
    3073              _app_XBmod_graph_display_pahse:
TMS320C2000 COFF Assembler PC v4.1.3 Thu Nov 29 16:02:59 2012

Tools Copyright (c) 1996-2006 Texas Instruments Incorporated
C:\DOCUME~1\ADMINI~1\LOCALS~1\Temp\TI4002                            PAGE   62

    3074                      .dwcfa  0x1d, -2
    3075                      .dwcfa  0x1c, 26, 0
    3076                      .dwcfa  0x09, 40, 26
    3077 00000473 FE0E          ADDB      SP,#14
    3078                      .dwcfa  0x1d, -16
    3079              ;* AL    assigned to _phase
    3080              DW$298  .dwtag  DW_TAG_formal_parameter, DW_AT_name("phase"), DW_AT_symbol_name("_phase")
    3081                      .dwattr DW$298, DW_AT_type(*DW$T$19)
    3082                      .dwattr DW$298, DW_AT_location[DW_OP_reg0]
    3083              DW$299  .dwtag  DW_TAG_variable, DW_AT_name("phase"), DW_AT_symbol_name("_phase")
    3084                      .dwattr DW$299, DW_AT_type(*DW$T$19)
    3085                      .dwattr DW$299, DW_AT_location[DW_OP_breg20 -1]
    3086              DW$300  .dwtag  DW_TAG_variable, DW_AT_name("color"), DW_AT_symbol_name("_color")
    3087                      .dwattr DW$300, DW_AT_type(*DW$T$11)
    3088                      .dwattr DW$300, DW_AT_location[DW_OP_breg20 -2]
    3089              DW$301  .dwtag  DW_TAG_variable, DW_AT_name("cphase"), DW_AT_symbol_name("_cphase")
    3090                      .dwattr DW$301, DW_AT_type(*DW$T$133)
    3091                      .dwattr DW$301, DW_AT_location[DW_OP_breg20 -14]
    3092 00000474 9641          MOV       *-SP[1],AL            ; |192| 
    3093                      .dwpsn  "src\app_XBmod_interface.c",194,14
    3094 00000475 5CAD          MOVZ      AR4,SP                ; |194| 
    3095 00000476 76C0+         MOVL      XAR7,#_$T2$3          ; |194| 
         00000477 000A 
    3096 00000478 DC8E          SUBB      XAR4,#14              ; |194| 
    3097 00000479 F60B          RPT       #11
    3098 0000047a 2484  ||     PREAD     *XAR4++,*XAR7         ; |194| 
    3099                      .dwpsn  "src\app_XBmod_interface.c",195,2
    3100 0000047b 761F-         MOVW      DP,#_m_XBmod_win_Obj
         0000047c 0000 
    3101 0000047d 8A02-         MOVL      XAR4,@_m_XBmod_win_Obj ; |195| 
    3102 0000047e 7640!         LCR       #_GUI_window_hwin_req ; |195| 
         0000047f 0000 
    3103                      ; call occurs [#_GUI_window_hwin_req] ; |195| 
    3104                      .dwpsn  "src\app_XBmod_interface.c",196,2
    3105 00000480 9241          MOV       AL,*-SP[1]            ; |196| 
    3106 00000481 EC03          BF        L57,EQ                ; |196| 
    3107                      ; branchcc occurs ; |196| 
    3108 00000482 5201          CMPB      AL,#1                 ; |196| 
    3109 00000483 ED04          BF        L58,NEQ               ; |196| 
    3110                      ; branchcc occurs ; |196| 
    3111              L57:    
    3112                      .dwpsn  "src\app_XBmod_interface.c",196,24
    3113 00000484 2842          MOV       *-SP[2],#252          ; |196| 
         00000485 00FC 
    3114 00000486 6F0E          B         L62,UNC               ; |196| 
    3115                      ; branch occurs ; |196| 
    3116              L58:    
    3117                      .dwpsn  "src\app_XBmod_interface.c",197,7
    3118 00000487 5202          CMPB      AL,#2                 ; |197| 
    3119 00000488 EC03          BF        L59,EQ                ; |197| 
    3120                      ; branchcc occurs ; |197| 
    3121 00000489 5203          CMPB      AL,#3                 ; |197| 
    3122 0000048a ED04          BF        L60,NEQ               ; |197| 
    3123                      ; branchcc occurs ; |197| 
    3124              L59:    
TMS320C2000 COFF Assembler PC v4.1.3 Thu Nov 29 16:02:59 2012

Tools Copyright (c) 1996-2006 Texas Instruments Incorporated
C:\DOCUME~1\ADMINI~1\LOCALS~1\Temp\TI4002                            PAGE   63

    3125                      .dwpsn  "src\app_XBmod_interface.c",197,29
    3126 0000048b 2842          MOV       *-SP[2],#28           ; |197| 
         0000048c 001C 
    3127 0000048d 6F07          B         L62,UNC               ; |197| 
    3128                      ; branch occurs ; |197| 
    3129              L60:    
    3130                      .dwpsn  "src\app_XBmod_interface.c",198,7
    3131 0000048e 5204          CMPB      AL,#4                 ; |198| 
    3132 0000048f EC03          BF        L61,EQ                ; |198| 
    3133                      ; branchcc occurs ; |198| 
    3134 00000490 5205          CMPB      AL,#5                 ; |198| 
    3135 00000491 ED03          BF        L62,NEQ               ; |198| 
    3136                      ; branchcc occurs ; |198| 
    3137              L61:    
    3138                      .dwpsn  "src\app_XBmod_interface.c",198,29
    3139 00000492 2842          MOV       *-SP[2],#224          ; |198| 
         00000493 00E0 
    3140              L62:    
    3141                      .dwpsn  "src\app_XBmod_interface.c",199,2
    3142 00000494 9242          MOV       AL,*-SP[2]            ; |199| 
    3143 00000495 7640!         LCR       #_GUI_set_Fgcolor     ; |199| 
         00000496 0000 
    3144                      ; call occurs [#_GUI_set_Fgcolor] ; |199| 
    3145                      .dwpsn  "src\app_XBmod_interface.c",200,2
    3146 00000497 5CAD          MOVZ      AR4,SP                ; |200| 
    3147 00000498 0E41          MOVU      ACC,*-SP[1]
    3148 00000499 DC8E          SUBB      XAR4,#14              ; |200| 
    3149 0000049a FF30          LSL       ACC,1                 ; |200| 
    3150 0000049b 5601          ADDL      XAR4,ACC
         0000049c 00A4 
    3151 0000049d 8AC4          MOVL      XAR4,*+XAR4[0]        ; |200| 
    3152 0000049e 28A9          MOV       AL,#270               ; |200| 
         0000049f 010E 
    3153 000004a0 9B02          MOVB      AH,#2                 ; |200| 
    3154 000004a1 7640!         LCR       #_GUI_string_display_At ; |200| 
         000004a2 0000 
    3155                      ; call occurs [#_GUI_string_display_At] ; |200| 
    3156                      .dwpsn  "src\app_XBmod_interface.c",201,2
    3157 000004a3 761F-         MOVW      DP,#_m_XBmod_win_Obj
         000004a4 0000 
    3158 000004a5 8A02-         MOVL      XAR4,@_m_XBmod_win_Obj ; |201| 
    3159 000004a6 7640!         LCR       #_GUI_window_hwin_release ; |201| 
         000004a7 0000 
    3160                      ; call occurs [#_GUI_window_hwin_release] ; |201| 
    3161                      .dwpsn  "src\app_XBmod_interface.c",202,2
    3162                      .dwpsn  "src\app_XBmod_interface.c",203,1
    3163 000004a8 FE8E          SUBB      SP,#14
    3164                      .dwcfa  0x1d, -2
    3165 000004a9 0006          LRETR
    3166                      ; return occurs
    3167                      .dwattr DW$297, DW_AT_end_file("src\app_XBmod_interface.c")
    3168                      .dwattr DW$297, DW_AT_end_line(0xcb)
    3169                      .dwattr DW$297, DW_AT_end_column(0x01)
    3170                      .dwendentry
    3171                      .dwendtag DW$297
TMS320C2000 COFF Assembler PC v4.1.3 Thu Nov 29 16:02:59 2012

Tools Copyright (c) 1996-2006 Texas Instruments Incorporated
C:\DOCUME~1\ADMINI~1\LOCALS~1\Temp\TI4002                            PAGE   64

    3172              
    3173 000004aa               .sect   ".text"
    3174                      .global _app_XBmod_graph_JBdisplay
    3175              
    3176              DW$302  .dwtag  DW_TAG_subprogram, DW_AT_name("app_XBmod_graph_JBdisplay"), DW_AT_symbol_name("_app_XBmod_gra
    3177                      .dwattr DW$302, DW_AT_low_pc(_app_XBmod_graph_JBdisplay)
    3178                      .dwattr DW$302, DW_AT_high_pc(0x00)
    3179                      .dwattr DW$302, DW_AT_begin_file("src\app_XBmod_interface.c")
    3180                      .dwattr DW$302, DW_AT_begin_line(0xce)
    3181                      .dwattr DW$302, DW_AT_begin_column(0x06)
    3182                      .dwpsn  "src\app_XBmod_interface.c",207,1
    3183              
    3184                      .dwfde DW$CIE
    3185              
    3186              ;***************************************************************
    3187              ;* FNAME: _app_XBmod_graph_JBdisplay    FR SIZE:   2           *
    3188              ;*                                                             *
    3189              ;* FUNCTION ENVIRONMENT                                        *
    3190              ;*                                                             *
    3191              ;* FUNCTION PROPERTIES                                         *
    3192              ;*                            0 Parameter,  2 Auto,  0 SOE     *
    3193              ;***************************************************************
    3194              
    3195              _app_XBmod_graph_JBdisplay:
    3196                      .dwcfa  0x1d, -2
    3197                      .dwcfa  0x1c, 26, 0
    3198                      .dwcfa  0x09, 40, 26
    3199 000004aa FE02          ADDB      SP,#2
    3200                      .dwcfa  0x1d, -4
    3201              ;* AL    assigned to _fuage
    3202              DW$303  .dwtag  DW_TAG_formal_parameter, DW_AT_name("fuage"), DW_AT_symbol_name("_fuage")
    3203                      .dwattr DW$303, DW_AT_type(*DW$T$16)
    3204                      .dwattr DW$303, DW_AT_location[DW_OP_reg0]
    3205              DW$304  .dwtag  DW_TAG_variable, DW_AT_name("fuage"), DW_AT_symbol_name("_fuage")
    3206                      .dwattr DW$304, DW_AT_type(*DW$T$16)
    3207                      .dwattr DW$304, DW_AT_location[DW_OP_breg20 -2]
    3208 000004ab 1E42          MOVL      *-SP[2],ACC           ; |207| 
    3209                      .dwpsn  "src\app_XBmod_interface.c",209,1
    3210 000004ac FE82          SUBB      SP,#2
    3211                      .dwcfa  0x1d, -2
    3212 000004ad 0006          LRETR
    3213                      ; return occurs
    3214                      .dwattr DW$302, DW_AT_end_file("src\app_XBmod_interface.c")
    3215                      .dwattr DW$302, DW_AT_end_line(0xd1)
    3216                      .dwattr DW$302, DW_AT_end_column(0x01)
    3217                      .dwendentry
    3218                      .dwendtag DW$302
    3219              
    3220 000004ae               .sect   ".text"
    3221                      .global _app_XBmod_graph_window_create
    3222              
    3223              DW$305  .dwtag  DW_TAG_subprogram, DW_AT_name("app_XBmod_graph_window_create"), DW_AT_symbol_name("_app_XBmod
    3224                      .dwattr DW$305, DW_AT_low_pc(_app_XBmod_graph_window_create)
    3225                      .dwattr DW$305, DW_AT_high_pc(0x00)
    3226                      .dwattr DW$305, DW_AT_begin_file("src\app_XBmod_interface.c")
TMS320C2000 COFF Assembler PC v4.1.3 Thu Nov 29 16:02:59 2012

Tools Copyright (c) 1996-2006 Texas Instruments Incorporated
C:\DOCUME~1\ADMINI~1\LOCALS~1\Temp\TI4002                            PAGE   65

    3227                      .dwattr DW$305, DW_AT_begin_line(0xd8)
    3228                      .dwattr DW$305, DW_AT_begin_column(0x06)
    3229                      .dwpsn  "src\app_XBmod_interface.c",217,1
    3230              
    3231                      .dwfde DW$CIE
    3232              
    3233              ;***************************************************************
    3234              ;* FNAME: _app_XBmod_graph_window_create FR SIZE:   4           *
    3235              ;*                                                             *
    3236              ;* FUNCTION ENVIRONMENT                                        *
    3237              ;*                                                             *
    3238              ;* FUNCTION PROPERTIES                                         *
    3239              ;*                            3 Parameter,  0 Auto,  0 SOE     *
    3240              ;***************************************************************
    3241              
    3242              _app_XBmod_graph_window_create:
    3243                      .dwcfa  0x1d, -2
    3244                      .dwcfa  0x1c, 26, 0
    3245                      .dwcfa  0x09, 40, 26
    3246 000004ae FE04          ADDB      SP,#4
    3247                      .dwcfa  0x1d, -6
    3248                      .dwpsn  "src\app_XBmod_interface.c",218,2
    3249 000004af 9A03          MOVB      AL,#3                 ; |218| 
    3250 000004b0 7640!         LCR       #_GUI_set_Bgcolor     ; |218| 
         000004b1 0000 
    3251                      ; call occurs [#_GUI_set_Bgcolor] ; |218| 
    3252                      .dwpsn  "src\app_XBmod_interface.c",219,2
    3253 000004b2 7640!         LCR       #_GUI_clean_screen    ; |219| 
         000004b3 0000 
    3254                      ; call occurs [#_GUI_clean_screen] ; |219| 
    3255                      .dwpsn  "src\app_XBmod_interface.c",220,2
    3256 000004b4 9A0A          MOVB      AL,#10                ; |220| 
    3257 000004b5 7640!         LCR       #_GUI_set_Bgcolor     ; |220| 
         000004b6 0000 
    3258                      ; call occurs [#_GUI_set_Bgcolor] ; |220| 
    3259                      .dwpsn  "src\app_XBmod_interface.c",221,5
    3260 000004b7 7640!         LCR       #_GUI_hwin_obtain     ; |221| 
         000004b8 0000 
    3261                      ; call occurs [#_GUI_hwin_obtain] ; |221| 
    3262 000004b9 2841          MOV       *-SP[1],#312          ; |221| 
         000004ba 0138 
    3263 000004bb 2842          MOV       *-SP[2],#233          ; |221| 
         000004bc 00E9 
    3264 000004bd 83A4          MOVL      XAR5,XAR4             ; |221| 
    3265 000004be 2843          MOV       *-SP[3],#1536         ; |221| 
         000004bf 0600 
    3266 000004c0 0200          MOVB      ACC,#0
    3267 000004c1 8F00+         MOVL      XAR4,#FSL17           ; |221| 
         000004c2 00B6 
    3268 000004c3 7640!         LCR       #_Gui_3D_window_creat ; |221| 
         000004c4 0000 
    3269                      ; call occurs [#_Gui_3D_window_creat] ; |221| 
    3270 000004c5 761F-         MOVW      DP,#_m_XBmod_win_Obj
         000004c6 0000 
    3271 000004c7 A802-         MOVL      @_m_XBmod_win_Obj,XAR4 ; |221| 
TMS320C2000 COFF Assembler PC v4.1.3 Thu Nov 29 16:02:59 2012

Tools Copyright (c) 1996-2006 Texas Instruments Incorporated
C:\DOCUME~1\ADMINI~1\LOCALS~1\Temp\TI4002                            PAGE   66

    3272                      .dwpsn  "src\app_XBmod_interface.c",223,2
    3273 000004c8 8A02-         MOVL      XAR4,@_m_XBmod_win_Obj ; |223| 
    3274 000004c9 7640!         LCR       #_GUI_window_hwin_req ; |223| 
         000004ca 0000 
    3275                      ; call occurs [#_GUI_window_hwin_req] ; |223| 
    3276                      .dwpsn  "src\app_XBmod_interface.c",224,2
    3277 000004cb 9A5A          MOVB      AL,#90                ; |224| 
    3278 000004cc 9641          MOV       *-SP[1],AL            ; |224| 
    3279 000004cd 9642          MOV       *-SP[2],AL            ; |224| 
    3280 000004ce 9A00          MOV       AL,#0
    3281 000004cf 2843          MOV       *-SP[3],#1            ; |224| 
         000004d0 0001 
    3282 000004d1 D505          MOVB      XAR5,#5               ; |224| 
    3283 000004d2 8F00+         MOVL      XAR4,#FSL18           ; |224| 
         000004d3 00DC 
    3284 000004d4 28A8          MOV       AH,#17076
         000004d5 42B4 
    3285 000004d6 7640!         LCR       #_GUI_window_angle_line_display ; |224| 
         000004d7 0000 
    3286                      ; call occurs [#_GUI_window_angle_line_display] ; |224| 
    3287                      .dwpsn  "src\app_XBmod_interface.c",225,2
    3288 000004d8 2841          MOV       *-SP[1],#90           ; |225| 
         000004d9 005A 
    3289 000004da 2842          MOV       *-SP[2],#300          ; |225| 
         000004db 012C 
    3290 000004dc 9A00          MOV       AL,#0
    3291 000004dd 2843          MOV       *-SP[3],#1            ; |225| 
         000004de 0001 
    3292 000004df D505          MOVB      XAR5,#5               ; |225| 
    3293 000004e0 8F00+         MOVL      XAR4,#FSL19           ; |225| 
         000004e1 00E0 
    3294 000004e2 9B00          MOV       AH,#0
    3295 000004e3 7640!         LCR       #_GUI_window_angle_line_display ; |225| 
         000004e4 0000 
    3296                      ; call occurs [#_GUI_window_angle_line_display] ; |225| 
    3297                      .dwpsn  "src\app_XBmod_interface.c",226,2
    3298 000004e5 2841          MOV       *-SP[1],#193          ; |226| 
         000004e6 00C1 
    3299 000004e7 2842          MOV       *-SP[2],#90           ; |226| 
         000004e8 005A 
    3300 000004e9 9A00          MOV       AL,#0
    3301 000004ea 2843          MOV       *-SP[3],#1            ; |226| 
         000004eb 0001 
    3302 000004ec D505          MOVB      XAR5,#5               ; |226| 
    3303 000004ed 8F00+         MOVL      XAR4,#FSL18           ; |226| 
         000004ee 00DC 
    3304 000004ef 28A8          MOV       AH,#17076
         000004f0 42B4 
    3305 000004f1 7640!         LCR       #_GUI_window_angle_line_display ; |226| 
         000004f2 0000 
    3306                      ; call occurs [#_GUI_window_angle_line_display] ; |226| 
    3307                      .dwpsn  "src\app_XBmod_interface.c",227,2
    3308 000004f3 2841          MOV       *-SP[1],#193          ; |227| 
         000004f4 00C1 
    3309 000004f5 2842          MOV       *-SP[2],#300          ; |227| 
TMS320C2000 COFF Assembler PC v4.1.3 Thu Nov 29 16:02:59 2012

Tools Copyright (c) 1996-2006 Texas Instruments Incorporated
C:\DOCUME~1\ADMINI~1\LOCALS~1\Temp\TI4002                            PAGE   67

         000004f6 012C 
    3310 000004f7 9A00          MOV       AL,#0
    3311 000004f8 2843          MOV       *-SP[3],#1            ; |227| 
         000004f9 0001 
    3312 000004fa D505          MOVB      XAR5,#5               ; |227| 
    3313 000004fb 8F00+         MOVL      XAR4,#FSL19           ; |227| 
         000004fc 00E0 
    3314 000004fd 9B00          MOV       AH,#0
    3315 000004fe 7640!         LCR       #_GUI_window_angle_line_display ; |227| 
         000004ff 0000 
    3316                      ; call occurs [#_GUI_window_angle_line_display] ; |227| 
    3317                      .dwpsn  "src\app_XBmod_interface.c",228,2
    3318 00000500 8F00!         MOVL      XAR4,#_GUI_F8X11_ASCII ; |228| 
         00000501 0000 
    3319 00000502 7640!         LCR       #_GUI_SetFront        ; |228| 
         00000503 0000 
    3320                      ; call occurs [#_GUI_SetFront] ; |228| 
    3321                      .dwpsn  "src\app_XBmod_interface.c",229,2
    3322 00000504 9AFF          MOVB      AL,#255               ; |229| 
    3323 00000505 7640!         LCR       #_GUI_set_Fgcolor     ; |229| 
         00000506 0000 
    3324                      ; call occurs [#_GUI_set_Fgcolor] ; |229| 
    3325                      .dwpsn  "src\app_XBmod_interface.c",230,5
    3326 00000507 28A9          MOV       AL,#300               ; |230| 
         00000508 012C 
    3327 00000509 8F00+         MOVL      XAR4,#FSL20           ; |230| 
         0000050a 00E2 
    3328 0000050b 9B5D          MOVB      AH,#93                ; |230| 
    3329 0000050c 7640!         LCR       #_GUI_string_display_At ; |230| 
         0000050d 0000 
    3330                      ; call occurs [#_GUI_string_display_At] ; |230| 
    3331                      .dwpsn  "src\app_XBmod_interface.c",231,5
    3332 0000050e 28A9          MOV       AL,#300               ; |231| 
         0000050f 012C 
    3333 00000510 8F00+         MOVL      XAR4,#FSL20           ; |231| 
         00000511 00E2 
    3334 00000512 9BC4          MOVB      AH,#196               ; |231| 
    3335 00000513 7640!         LCR       #_GUI_string_display_At ; |231| 
         00000514 0000 
    3336                      ; call occurs [#_GUI_string_display_At] ; |231| 
    3337                      .dwpsn  "src\app_XBmod_interface.c",232,2
    3338 00000515 8F00!         MOVL      XAR4,#_GUI_F8X16_EXTASCII ; |232| 
         00000516 0000 
    3339 00000517 7640!         LCR       #_GUI_SetFront        ; |232| 
         00000518 0000 
    3340                      ; call occurs [#_GUI_SetFront] ; |232| 
    3341                      .dwpsn  "src\app_XBmod_interface.c",233,2
    3342 00000519 761F-         MOVW      DP,#_m_XBmod_win_Obj
         0000051a 0000 
    3343 0000051b 8A02-         MOVL      XAR4,@_m_XBmod_win_Obj ; |233| 
    3344 0000051c 7640!         LCR       #_GUI_window_hwin_release ; |233| 
         0000051d 0000 
    3345                      ; call occurs [#_GUI_window_hwin_release] ; |233| 
    3346                      .dwpsn  "src\app_XBmod_interface.c",234,5
    3347                      .dwpsn  "src\app_XBmod_interface.c",235,1
TMS320C2000 COFF Assembler PC v4.1.3 Thu Nov 29 16:02:59 2012

Tools Copyright (c) 1996-2006 Texas Instruments Incorporated
C:\DOCUME~1\ADMINI~1\LOCALS~1\Temp\TI4002                            PAGE   68

    3348 0000051e FE84          SUBB      SP,#4
    3349                      .dwcfa  0x1d, -2
    3350 0000051f 0006          LRETR
    3351                      ; return occurs
    3352                      .dwattr DW$305, DW_AT_end_file("src\app_XBmod_interface.c")
    3353                      .dwattr DW$305, DW_AT_end_line(0xeb)
    3354                      .dwattr DW$305, DW_AT_end_column(0x01)
    3355                      .dwendentry
    3356                      .dwendtag DW$305
    3357              
    3358              ;***************************************************************
    3359              ;* FAR STRINGS                                                 *
    3360              ;***************************************************************
    3361 0000002a               .sect   ".econst"
    3362                      .align  2
    3363 0000002a 00B0  FSL1:   .string 176,180,180,206,202,253,197,197,193,208,0
         0000002b 00B4 
         0000002c 00B4 
         0000002d 00CE 
         0000002e 00CA 
         0000002f 00FD 
         00000030 00C5 
         00000031 00C5 
         00000032 00C1 
         00000033 00D0 
         00000034 0000 
    3364                      .align  2
    3365 00000036 00B0  FSL2:   .string 176,180,177,200,214,216,197,197,193,208,0
         00000037 00B4 
         00000038 00B1 
         00000039 00C8 
         0000003a 00D6 
         0000003b 00D8 
         0000003c 00C5 
         0000003d 00C5 
         0000003e 00C1 
         0000003f 00D0 
         00000040 0000 
    3366                      .align  2
    3367 00000042 0055  FSL3:   .string "Ua",0
         00000043 0061 
         00000044 0000 
    3368                      .align  2
    3369 00000046 0049  FSL4:   .string "Ia",0
         00000047 0061 
         00000048 0000 
    3370                      .align  2
    3371 0000004a 0055  FSL5:   .string "Ub",0
         0000004b 0062 
         0000004c 0000 
    3372                      .align  2
    3373 0000004e 0049  FSL6:   .string "Ib",0
         0000004f 0062 
         00000050 0000 
    3374                      .align  2
TMS320C2000 COFF Assembler PC v4.1.3 Thu Nov 29 16:02:59 2012

Tools Copyright (c) 1996-2006 Texas Instruments Incorporated
C:\DOCUME~1\ADMINI~1\LOCALS~1\Temp\TI4002                            PAGE   69

    3375 00000052 0055  FSL7:   .string "Uc",0
         00000053 0063 
         00000054 0000 
    3376                      .align  2
    3377 00000056 0049  FSL8:   .string "Ic",0
         00000057 0063 
         00000058 0000 
    3378                      .align  2
    3379 0000005a 0058  FSL9:   .string "XBmod--Main task",0
         0000005b 0042 
         0000005c 006D 
         0000005d 006F 
         0000005e 0064 
         0000005f 002D 
         00000060 002D 
         00000061 004D 
         00000062 0061 
         00000063 0069 
         00000064 006E 
         00000065 0020 
         00000066 0074 
         00000067 0061 
         00000068 0073 
         00000069 006B 
         0000006a 0000 
    3380                      .align  2
    3381 0000006c 0020  FSL10:  .string "    ",0
         0000006d 0020 
         0000006e 0020 
         0000006f 0020 
         00000070 0000 
    3382                      .align  2
    3383 00000072 003A  FSL11:  .string ":",0
         00000073 0000 
    3384                      .align  2
    3385 00000074 00D0  FSL12:  .string 208,179,178,168,207,212,202,190,"(%),",176,180,"<",199,208,187
         00000075 00B3 
         00000076 00B2 
         00000077 00A8 
         00000078 00CF 
         00000079 00D4 
         0000007a 00CA 
         0000007b 00BE 
         0000007c 0028 
         0000007d 0025 
         0000007e 0029 
         0000007f 002C 
         00000080 00B0 
         00000081 00B4 
         00000082 003C 
         00000083 00C7 
         00000084 00D0 
         00000085 00BB 
    3386 00000086 00BB          .string 187,">",188,252,199,208,187,187,181,189,205,188,208,206,196,163
         00000087 003E 
TMS320C2000 COFF Assembler PC v4.1.3 Thu Nov 29 16:02:59 2012

Tools Copyright (c) 1996-2006 Texas Instruments Incorporated
C:\DOCUME~1\ADMINI~1\LOCALS~1\Temp\TI4002                            PAGE   70

         00000088 00BC 
         00000089 00FC 
         0000008a 00C7 
         0000008b 00D0 
         0000008c 00BB 
         0000008d 00BB 
         0000008e 00B5 
         0000008f 00BD 
         00000090 00CD 
         00000091 00BC 
         00000092 00D0 
         00000093 00CE 
         00000094 00C4 
         00000095 00A3 
    3387 00000096 00CA          .string 202,189,0
         00000097 00BD 
         00000098 0000 
    3388                      .align  2
    3389 0000009a 00B0  FSL13:  .string 176,180,"F2",209,161,212,241,0
         0000009b 00B4 
         0000009c 0046 
         0000009d 0032 
         0000009e 00D1 
         0000009f 00A1 
         000000a0 00D4 
         000000a1 00F1 
         000000a2 0000 
    3390                      .align  2
    3391 000000a4 00D7  FSL14:  .string 215,220,187,251,177,228,194,202,":",0
         000000a5 00DC 
         000000a6 00BB 
         000000a7 00FB 
         000000a8 00B1 
         000000a9 00E4 
         000000aa 00C2 
         000000ab 00CA 
         000000ac 003A 
         000000ad 0000 
    3392                      .align  2
    3393 000000ae 0030  FSL15:  .string "0",0
         000000af 0000 
    3394                      .align  2
    3395 000000b0 0030  FSL16:  .string "0.01",0
         000000b1 002E 
         000000b2 0030 
         000000b3 0031 
         000000b4 0000 
    3396                      .align  2
    3397 000000b6 00D0  FSL17:  .string 208,179,178,168,207,212,202,190,"(%),",176,180,"<",199,208,187
         000000b7 00B3 
         000000b8 00B2 
         000000b9 00A8 
         000000ba 00CF 
         000000bb 00D4 
         000000bc 00CA 
TMS320C2000 COFF Assembler PC v4.1.3 Thu Nov 29 16:02:59 2012

Tools Copyright (c) 1996-2006 Texas Instruments Incorporated
C:\DOCUME~1\ADMINI~1\LOCALS~1\Temp\TI4002                            PAGE   71

         000000bd 00BE 
         000000be 0028 
         000000bf 0025 
         000000c0 0029 
         000000c1 002C 
         000000c2 00B0 
         000000c3 00B4 
         000000c4 003C 
         000000c5 00C7 
         000000c6 00D0 
         000000c7 00BB 
    3398 000000c8 00BB          .string 187,">",188,252,199,208,187,187,181,189,202,253,215,214,196,163
         000000c9 003E 
         000000ca 00BC 
         000000cb 00FC 
         000000cc 00C7 
         000000cd 00D0 
         000000ce 00BB 
         000000cf 00BB 
         000000d0 00B5 
         000000d1 00BD 
         000000d2 00CA 
         000000d3 00FD 
         000000d4 00D7 
         000000d5 00D6 
         000000d6 00C4 
         000000d7 00A3 
    3399 000000d8 00CA          .string 202,189,0
         000000d9 00BD 
         000000da 0000 
    3400                      .align  2
    3401 000000dc 0028  FSL18:  .string "(%)",0
         000000dd 0025 
         000000de 0029 
         000000df 0000 
    3402                      .align  2
    3403 000000e0 0000  FSL19:  .string 0
    3404                      .align  2
    3405 000000e2 004E  FSL20:  .string "N",0
         000000e3 0000 
    3406              ;***************************************************************
    3407              ;* UNDEFINED EXTERNAL REFERENCES                               *
    3408              ;***************************************************************
    3409                      .global _GUI_radio_memeber_add
    3410                      .global _GUI_clean_screen
    3411                      .global _GUI_radio_select
    3412                      .global _GUI_x_shift
    3413                      .global _GUI_float_display_At
    3414                      .global _GUI_window_line_display
    3415                      .global _GUI_string_display_At
    3416                      .global _GUI_fill_window_area
    3417                      .global _GUI_window_angle_line_display
    3418                      .global _GUI_string_display
    3419                      .global _app_global_DL_measure_entery
    3420                      .global _app_global_DLflag_obtain
TMS320C2000 COFF Assembler PC v4.1.3 Thu Nov 29 16:02:59 2012

Tools Copyright (c) 1996-2006 Texas Instruments Incorporated
C:\DOCUME~1\ADMINI~1\LOCALS~1\Temp\TI4002                            PAGE   72

    3421                      .global _global_memset
    3422                      .global _global_memcpy
    3423                      .global _app_global_resouce_req
    3424                      .global _app_module_assign_mod
    3425                      .global _os_driver_ioctl
    3426                      .global _app_global_resouce_release
    3427                      .global _GUI_set_Bgcolor
    3428                      .global _GUI_set_Fgcolor
    3429                      .global _GUI_window_hwin_req
    3430                      .global _GUI_window_destory
    3431                      .global _app_global_DL_measure_exit
    3432                      .global _OSTimeDly
    3433                      .global _GUI_SetFront
    3434                      .global _GUI_window_hwin_release
    3435                      .global _global_strlen
    3436                      .global _global_strcat
    3437                      .global _os_task_assign_stk_build
    3438                      .global _g_DL_dev
    3439                      .global _os_task_delete
    3440                      .global _os_task_name_set
    3441                      .global _app_module_add
    3442                      .global _app_global_key_obtain
    3443                      .global _GUI_drop_list_unfold
    3444                      .global _global_itoa
    3445                      .global _global_ftoa
    3446                      .global _global_ltoa
    3447                      .global _GUI_hwin_obtain
    3448                      .global _global_strcpy
    3449                      .global _Gui_3D_window_creat
    3450                      .global _Gui_drop_list_creat
    3451                      .global _GUI_radio_create
    3452                      .global _GUI_F8X11_ASCII
    3453                      .global _GUI_F8X16_EXTASCII
    3454                      .global FS$$CMP
    3455                      .global I$$TOFS
    3456                      .global FS$$MPY
    3457                      .global FS$$DIV
    3458                      .global FS$$TOI
    3459                      .global FS$$TOL
    3460              
    3461              ;***************************************************************
    3462              ;* TYPE INFORMATION                                            *
    3463              ;***************************************************************
    3464              DW$T$3  .dwtag  DW_TAG_pointer_type
    3465                      .dwattr DW$T$3, DW_AT_address_class(0x16)
    3466              
    3467              DW$T$20 .dwtag  DW_TAG_subroutine_type
    3468                      .dwattr DW$T$20, DW_AT_language(DW_LANG_C)
    3469              
    3470              DW$T$47 .dwtag  DW_TAG_subroutine_type
    3471                      .dwattr DW$T$47, DW_AT_language(DW_LANG_C)
    3472              DW$306  .dwtag  DW_TAG_formal_parameter, DW_AT_type(*DW$T$46)
    3473                      .dwendtag DW$T$47
    3474              
    3475              
TMS320C2000 COFF Assembler PC v4.1.3 Thu Nov 29 16:02:59 2012

Tools Copyright (c) 1996-2006 Texas Instruments Incorporated
C:\DOCUME~1\ADMINI~1\LOCALS~1\Temp\TI4002                            PAGE   73

    3476              DW$T$49 .dwtag  DW_TAG_subroutine_type
    3477                      .dwattr DW$T$49, DW_AT_language(DW_LANG_C)
    3478              DW$307  .dwtag  DW_TAG_formal_parameter, DW_AT_type(*DW$T$3)
    3479                      .dwendtag DW$T$49
    3480              
    3481              DW$T$50 .dwtag  DW_TAG_pointer_type, DW_AT_type(*DW$T$49)
    3482                      .dwattr DW$T$50, DW_AT_address_class(0x16)
    3483              
    3484              DW$T$52 .dwtag  DW_TAG_subroutine_type
    3485                      .dwattr DW$T$52, DW_AT_language(DW_LANG_C)
    3486              DW$308  .dwtag  DW_TAG_formal_parameter, DW_AT_type(*DW$T$51)
    3487              DW$309  .dwtag  DW_TAG_formal_parameter, DW_AT_type(*DW$T$6)
    3488              DW$310  .dwtag  DW_TAG_formal_parameter, DW_AT_type(*DW$T$3)
    3489                      .dwendtag DW$T$52
    3490              
    3491              
    3492              DW$T$54 .dwtag  DW_TAG_subroutine_type
    3493                      .dwattr DW$T$54, DW_AT_language(DW_LANG_C)
    3494              DW$311  .dwtag  DW_TAG_formal_parameter, DW_AT_type(*DW$T$19)
    3495                      .dwendtag DW$T$54
    3496              
    3497              
    3498              DW$T$56 .dwtag  DW_TAG_subroutine_type
    3499                      .dwattr DW$T$56, DW_AT_language(DW_LANG_C)
    3500              DW$312  .dwtag  DW_TAG_formal_parameter, DW_AT_type(*DW$T$3)
    3501              DW$313  .dwtag  DW_TAG_formal_parameter, DW_AT_type(*DW$T$3)
    3502              DW$314  .dwtag  DW_TAG_formal_parameter, DW_AT_type(*DW$T$19)
    3503                      .dwendtag DW$T$56
    3504              
    3505              
    3506              DW$T$58 .dwtag  DW_TAG_subroutine_type
    3507                      .dwattr DW$T$58, DW_AT_language(DW_LANG_C)
    3508              DW$315  .dwtag  DW_TAG_formal_parameter, DW_AT_type(*DW$T$3)
    3509              DW$316  .dwtag  DW_TAG_formal_parameter, DW_AT_type(*DW$T$6)
    3510              DW$317  .dwtag  DW_TAG_formal_parameter, DW_AT_type(*DW$T$19)
    3511                      .dwendtag DW$T$58
    3512              
    3513              
    3514              DW$T$60 .dwtag  DW_TAG_subroutine_type
    3515                      .dwattr DW$T$60, DW_AT_language(DW_LANG_C)
    3516              DW$318  .dwtag  DW_TAG_formal_parameter, DW_AT_type(*DW$T$35)
    3517                      .dwendtag DW$T$60
    3518              
    3519              
    3520              DW$T$62 .dwtag  DW_TAG_subroutine_type
    3521                      .dwattr DW$T$62, DW_AT_language(DW_LANG_C)
    3522              DW$319  .dwtag  DW_TAG_formal_parameter, DW_AT_type(*DW$T$11)
    3523                      .dwendtag DW$T$62
    3524              
    3525              
    3526              DW$T$66 .dwtag  DW_TAG_subroutine_type
    3527                      .dwattr DW$T$66, DW_AT_language(DW_LANG_C)
    3528              DW$320  .dwtag  DW_TAG_formal_parameter, DW_AT_type(*DW$T$65)
    3529                      .dwendtag DW$T$66
    3530              
TMS320C2000 COFF Assembler PC v4.1.3 Thu Nov 29 16:02:59 2012

Tools Copyright (c) 1996-2006 Texas Instruments Incorporated
C:\DOCUME~1\ADMINI~1\LOCALS~1\Temp\TI4002                            PAGE   74

    3531              
    3532              DW$T$68 .dwtag  DW_TAG_subroutine_type
    3533                      .dwattr DW$T$68, DW_AT_language(DW_LANG_C)
    3534              DW$321  .dwtag  DW_TAG_formal_parameter, DW_AT_type(*DW$T$11)
    3535              DW$322  .dwtag  DW_TAG_formal_parameter, DW_AT_type(*DW$T$11)
    3536              DW$323  .dwtag  DW_TAG_formal_parameter, DW_AT_type(*DW$T$11)
    3537              DW$324  .dwtag  DW_TAG_formal_parameter, DW_AT_type(*DW$T$11)
    3538                      .dwendtag DW$T$68
    3539              
    3540              
    3541              DW$T$71 .dwtag  DW_TAG_subroutine_type
    3542                      .dwattr DW$T$71, DW_AT_language(DW_LANG_C)
    3543              DW$325  .dwtag  DW_TAG_formal_parameter, DW_AT_type(*DW$T$11)
    3544              DW$326  .dwtag  DW_TAG_formal_parameter, DW_AT_type(*DW$T$11)
    3545              DW$327  .dwtag  DW_TAG_formal_parameter, DW_AT_type(*DW$T$16)
    3546              DW$328  .dwtag  DW_TAG_formal_parameter, DW_AT_type(*DW$T$11)
    3547              DW$329  .dwtag  DW_TAG_formal_parameter, DW_AT_type(*DW$T$6)
    3548              DW$330  .dwtag  DW_TAG_formal_parameter, DW_AT_type(*DW$T$70)
    3549                      .dwendtag DW$T$71
    3550              
    3551              
    3552              DW$T$73 .dwtag  DW_TAG_subroutine_type
    3553                      .dwattr DW$T$73, DW_AT_language(DW_LANG_C)
    3554              DW$331  .dwtag  DW_TAG_formal_parameter, DW_AT_type(*DW$T$10)
    3555                      .dwendtag DW$T$73
    3556              
    3557              
    3558              DW$T$75 .dwtag  DW_TAG_subroutine_type
    3559                      .dwattr DW$T$75, DW_AT_language(DW_LANG_C)
    3560              DW$332  .dwtag  DW_TAG_formal_parameter, DW_AT_type(*DW$T$11)
    3561              DW$333  .dwtag  DW_TAG_formal_parameter, DW_AT_type(*DW$T$11)
    3562              DW$334  .dwtag  DW_TAG_formal_parameter, DW_AT_type(*DW$T$16)
    3563              DW$335  .dwtag  DW_TAG_formal_parameter, DW_AT_type(*DW$T$19)
    3564                      .dwendtag DW$T$75
    3565              
    3566              
    3567              DW$T$77 .dwtag  DW_TAG_subroutine_type
    3568                      .dwattr DW$T$77, DW_AT_language(DW_LANG_C)
    3569              DW$336  .dwtag  DW_TAG_formal_parameter, DW_AT_type(*DW$T$70)
    3570                      .dwendtag DW$T$77
    3571              
    3572              
    3573              DW$T$79 .dwtag  DW_TAG_subroutine_type
    3574                      .dwattr DW$T$79, DW_AT_language(DW_LANG_C)
    3575              DW$337  .dwtag  DW_TAG_formal_parameter, DW_AT_type(*DW$T$11)
    3576              DW$338  .dwtag  DW_TAG_formal_parameter, DW_AT_type(*DW$T$11)
    3577              DW$339  .dwtag  DW_TAG_formal_parameter, DW_AT_type(*DW$T$70)
    3578                      .dwendtag DW$T$79
    3579              
    3580              
    3581              DW$T$81 .dwtag  DW_TAG_subroutine_type
    3582                      .dwattr DW$T$81, DW_AT_language(DW_LANG_C)
    3583              DW$340  .dwtag  DW_TAG_formal_parameter, DW_AT_type(*DW$T$65)
    3584              DW$341  .dwtag  DW_TAG_formal_parameter, DW_AT_type(*DW$T$19)
    3585                      .dwendtag DW$T$81
TMS320C2000 COFF Assembler PC v4.1.3 Thu Nov 29 16:02:59 2012

Tools Copyright (c) 1996-2006 Texas Instruments Incorporated
C:\DOCUME~1\ADMINI~1\LOCALS~1\Temp\TI4002                            PAGE   75

    3586              
    3587              
    3588              DW$T$83 .dwtag  DW_TAG_subroutine_type
    3589                      .dwattr DW$T$83, DW_AT_language(DW_LANG_C)
    3590              DW$342  .dwtag  DW_TAG_formal_parameter, DW_AT_type(*DW$T$11)
    3591              DW$343  .dwtag  DW_TAG_formal_parameter, DW_AT_type(*DW$T$11)
    3592              DW$344  .dwtag  DW_TAG_formal_parameter, DW_AT_type(*DW$T$70)
    3593              DW$345  .dwtag  DW_TAG_formal_parameter, DW_AT_type(*DW$T$19)
    3594                      .dwendtag DW$T$83
    3595              
    3596              
    3597              DW$T$88 .dwtag  DW_TAG_subroutine_type
    3598                      .dwattr DW$T$88, DW_AT_language(DW_LANG_C)
    3599              DW$346  .dwtag  DW_TAG_formal_parameter, DW_AT_type(*DW$T$19)
    3600              DW$347  .dwtag  DW_TAG_formal_parameter, DW_AT_type(*DW$T$86)
    3601              DW$348  .dwtag  DW_TAG_formal_parameter, DW_AT_type(*DW$T$87)
    3602                      .dwendtag DW$T$88
    3603              
    3604              
    3605              DW$T$90 .dwtag  DW_TAG_subroutine_type
    3606                      .dwattr DW$T$90, DW_AT_language(DW_LANG_C)
    3607              DW$349  .dwtag  DW_TAG_formal_parameter, DW_AT_type(*DW$T$87)
    3608              DW$350  .dwtag  DW_TAG_formal_parameter, DW_AT_type(*DW$T$87)
    3609                      .dwendtag DW$T$90
    3610              
    3611              
    3612              DW$T$92 .dwtag  DW_TAG_subroutine_type
    3613                      .dwattr DW$T$92, DW_AT_language(DW_LANG_C)
    3614              DW$351  .dwtag  DW_TAG_formal_parameter, DW_AT_type(*DW$T$86)
    3615                      .dwendtag DW$T$92
    3616              
    3617              
    3618              DW$T$94 .dwtag  DW_TAG_subroutine_type
    3619                      .dwattr DW$T$94, DW_AT_language(DW_LANG_C)
    3620              DW$352  .dwtag  DW_TAG_formal_parameter, DW_AT_type(*DW$T$10)
    3621              DW$353  .dwtag  DW_TAG_formal_parameter, DW_AT_type(*DW$T$10)
    3622              DW$354  .dwtag  DW_TAG_formal_parameter, DW_AT_type(*DW$T$16)
    3623                      .dwendtag DW$T$94
    3624              
    3625              
    3626              DW$T$96 .dwtag  DW_TAG_subroutine_type
    3627                      .dwattr DW$T$96, DW_AT_language(DW_LANG_C)
    3628              DW$355  .dwtag  DW_TAG_formal_parameter, DW_AT_type(*DW$T$16)
    3629                      .dwendtag DW$T$96
    3630              
    3631              DW$T$6  .dwtag  DW_TAG_base_type, DW_AT_name("unsigned char")
    3632                      .dwattr DW$T$6, DW_AT_encoding(DW_ATE_unsigned_char)
    3633                      .dwattr DW$T$6, DW_AT_byte_size(0x01)
    3634              DW$T$51 .dwtag  DW_TAG_typedef, DW_AT_name("dev_id_t"), DW_AT_type(*DW$T$6)
    3635                      .dwattr DW$T$51, DW_AT_language(DW_LANG_C)
    3636              
    3637              DW$T$98 .dwtag  DW_TAG_subroutine_type, DW_AT_type(*DW$T$6)
    3638                      .dwattr DW$T$98, DW_AT_language(DW_LANG_C)
    3639              DW$356  .dwtag  DW_TAG_formal_parameter, DW_AT_type(*DW$T$50)
    3640              DW$357  .dwtag  DW_TAG_formal_parameter, DW_AT_type(*DW$T$19)
TMS320C2000 COFF Assembler PC v4.1.3 Thu Nov 29 16:02:59 2012

Tools Copyright (c) 1996-2006 Texas Instruments Incorporated
C:\DOCUME~1\ADMINI~1\LOCALS~1\Temp\TI4002                            PAGE   76

    3641                      .dwendtag DW$T$98
    3642              
    3643              
    3644              DW$T$100        .dwtag  DW_TAG_subroutine_type, DW_AT_type(*DW$T$6)
    3645                      .dwattr DW$T$100, DW_AT_language(DW_LANG_C)
    3646              DW$358  .dwtag  DW_TAG_formal_parameter, DW_AT_type(*DW$T$6)
    3647              DW$359  .dwtag  DW_TAG_formal_parameter, DW_AT_type(*DW$T$70)
    3648                      .dwendtag DW$T$100
    3649              
    3650              
    3651              DW$T$102        .dwtag  DW_TAG_subroutine_type, DW_AT_type(*DW$T$6)
    3652                      .dwattr DW$T$102, DW_AT_language(DW_LANG_C)
    3653              DW$360  .dwtag  DW_TAG_formal_parameter, DW_AT_type(*DW$T$6)
    3654                      .dwendtag DW$T$102
    3655              
    3656              DW$T$104        .dwtag  DW_TAG_pointer_type, DW_AT_type(*DW$T$6)
    3657                      .dwattr DW$T$104, DW_AT_address_class(0x16)
    3658              
    3659              DW$T$105        .dwtag  DW_TAG_subroutine_type, DW_AT_type(*DW$T$6)
    3660                      .dwattr DW$T$105, DW_AT_language(DW_LANG_C)
    3661              DW$361  .dwtag  DW_TAG_formal_parameter, DW_AT_type(*DW$T$104)
    3662              DW$362  .dwtag  DW_TAG_formal_parameter, DW_AT_type(*DW$T$19)
    3663                      .dwendtag DW$T$105
    3664              
    3665              DW$T$10 .dwtag  DW_TAG_base_type, DW_AT_name("int")
    3666                      .dwattr DW$T$10, DW_AT_encoding(DW_ATE_signed)
    3667                      .dwattr DW$T$10, DW_AT_byte_size(0x01)
    3668              
    3669              DW$T$107        .dwtag  DW_TAG_subroutine_type, DW_AT_type(*DW$T$10)
    3670                      .dwattr DW$T$107, DW_AT_language(DW_LANG_C)
    3671              DW$363  .dwtag  DW_TAG_formal_parameter, DW_AT_type(*DW$T$16)
    3672              DW$364  .dwtag  DW_TAG_formal_parameter, DW_AT_type(*DW$T$10)
    3673              DW$365  .dwtag  DW_TAG_formal_parameter, DW_AT_type(*DW$T$16)
    3674                      .dwendtag DW$T$107
    3675              
    3676              
    3677              DW$T$109        .dwtag  DW_TAG_subroutine_type, DW_AT_type(*DW$T$10)
    3678                      .dwattr DW$T$109, DW_AT_language(DW_LANG_C)
    3679              DW$T$11 .dwtag  DW_TAG_base_type, DW_AT_name("unsigned int")
    3680                      .dwattr DW$T$11, DW_AT_encoding(DW_ATE_unsigned)
    3681                      .dwattr DW$T$11, DW_AT_byte_size(0x01)
    3682              DW$T$19 .dwtag  DW_TAG_typedef, DW_AT_name("Bsize_t"), DW_AT_type(*DW$T$11)
    3683                      .dwattr DW$T$19, DW_AT_language(DW_LANG_C)
    3684              
    3685              DW$T$113        .dwtag  DW_TAG_subroutine_type, DW_AT_type(*DW$T$19)
    3686                      .dwattr DW$T$113, DW_AT_language(DW_LANG_C)
    3687              DW$366  .dwtag  DW_TAG_formal_parameter, DW_AT_type(*DW$T$112)
    3688                      .dwendtag DW$T$113
    3689              
    3690              
    3691              DW$T$115        .dwtag  DW_TAG_subroutine_type, DW_AT_type(*DW$T$19)
    3692                      .dwattr DW$T$115, DW_AT_language(DW_LANG_C)
    3693              DW$367  .dwtag  DW_TAG_formal_parameter, DW_AT_type(*DW$T$70)
    3694                      .dwendtag DW$T$115
    3695              
TMS320C2000 COFF Assembler PC v4.1.3 Thu Nov 29 16:02:59 2012

Tools Copyright (c) 1996-2006 Texas Instruments Incorporated
C:\DOCUME~1\ADMINI~1\LOCALS~1\Temp\TI4002                            PAGE   77

    3696              
    3697              DW$T$117        .dwtag  DW_TAG_subroutine_type, DW_AT_type(*DW$T$19)
    3698                      .dwattr DW$T$117, DW_AT_language(DW_LANG_C)
    3699              DW$368  .dwtag  DW_TAG_formal_parameter, DW_AT_type(*DW$T$10)
    3700              DW$369  .dwtag  DW_TAG_formal_parameter, DW_AT_type(*DW$T$70)
    3701                      .dwendtag DW$T$117
    3702              
    3703              
    3704              DW$T$119        .dwtag  DW_TAG_subroutine_type, DW_AT_type(*DW$T$19)
    3705                      .dwattr DW$T$119, DW_AT_language(DW_LANG_C)
    3706              DW$370  .dwtag  DW_TAG_formal_parameter, DW_AT_type(*DW$T$12)
    3707              DW$371  .dwtag  DW_TAG_formal_parameter, DW_AT_type(*DW$T$70)
    3708                      .dwendtag DW$T$119
    3709              
    3710              
    3711              DW$T$121        .dwtag  DW_TAG_subroutine_type, DW_AT_type(*DW$T$19)
    3712                      .dwattr DW$T$121, DW_AT_language(DW_LANG_C)
    3713              DW$372  .dwtag  DW_TAG_formal_parameter, DW_AT_type(*DW$T$16)
    3714              DW$373  .dwtag  DW_TAG_formal_parameter, DW_AT_type(*DW$T$70)
    3715              DW$374  .dwtag  DW_TAG_formal_parameter, DW_AT_type(*DW$T$19)
    3716                      .dwendtag DW$T$121
    3717              
    3718              
    3719              DW$T$123        .dwtag  DW_TAG_subroutine_type, DW_AT_type(*DW$T$19)
    3720                      .dwattr DW$T$123, DW_AT_language(DW_LANG_C)
    3721              DW$375  .dwtag  DW_TAG_formal_parameter, DW_AT_type(*DW$T$65)
    3722                      .dwendtag DW$T$123
    3723              
    3724              
    3725              DW$T$125        .dwtag  DW_TAG_subroutine_type, DW_AT_type(*DW$T$19)
    3726                      .dwattr DW$T$125, DW_AT_language(DW_LANG_C)
    3727              DW$T$46 .dwtag  DW_TAG_typedef, DW_AT_name("INT16U"), DW_AT_type(*DW$T$11)
    3728                      .dwattr DW$T$46, DW_AT_language(DW_LANG_C)
    3729              DW$T$12 .dwtag  DW_TAG_base_type, DW_AT_name("long")
    3730                      .dwattr DW$T$12, DW_AT_encoding(DW_ATE_signed)
    3731                      .dwattr DW$T$12, DW_AT_byte_size(0x02)
    3732              DW$T$16 .dwtag  DW_TAG_base_type, DW_AT_name("float")
    3733                      .dwattr DW$T$16, DW_AT_encoding(DW_ATE_float)
    3734                      .dwattr DW$T$16, DW_AT_byte_size(0x02)
    3735              DW$T$87 .dwtag  DW_TAG_pointer_type, DW_AT_type(*DW$T$16)
    3736                      .dwattr DW$T$87, DW_AT_address_class(0x16)
    3737              
    3738              DW$T$127        .dwtag  DW_TAG_array_type, DW_AT_type(*DW$T$16)
    3739                      .dwattr DW$T$127, DW_AT_language(DW_LANG_C)
    3740                      .dwattr DW$T$127, DW_AT_byte_size(0x270)
    3741              DW$376  .dwtag  DW_TAG_subrange_type
    3742                      .dwattr DW$376, DW_AT_upper_bound(0x05)
    3743              DW$377  .dwtag  DW_TAG_subrange_type
    3744                      .dwattr DW$377, DW_AT_upper_bound(0x33)
    3745                      .dwendtag DW$T$127
    3746              
    3747              DW$T$111        .dwtag  DW_TAG_typedef, DW_AT_name("app_mod_inlet_t"), DW_AT_type(*DW$T$24)
    3748                      .dwattr DW$T$111, DW_AT_language(DW_LANG_C)
    3749              DW$T$112        .dwtag  DW_TAG_pointer_type, DW_AT_type(*DW$T$111)
    3750                      .dwattr DW$T$112, DW_AT_address_class(0x16)
TMS320C2000 COFF Assembler PC v4.1.3 Thu Nov 29 16:02:59 2012

Tools Copyright (c) 1996-2006 Texas Instruments Incorporated
C:\DOCUME~1\ADMINI~1\LOCALS~1\Temp\TI4002                            PAGE   78

    3751              DW$T$41 .dwtag  DW_TAG_pointer_type, DW_AT_type(*DW$T$27)
    3752                      .dwattr DW$T$41, DW_AT_address_class(0x16)
    3753              
    3754              DW$T$132        .dwtag  DW_TAG_array_type, DW_AT_type(*DW$T$27)
    3755                      .dwattr DW$T$132, DW_AT_language(DW_LANG_C)
    3756                      .dwattr DW$T$132, DW_AT_byte_size(0x04)
    3757              DW$378  .dwtag  DW_TAG_subrange_type
    3758                      .dwattr DW$378, DW_AT_upper_bound(0x01)
    3759                      .dwendtag DW$T$132
    3760              
    3761              
    3762              DW$T$133        .dwtag  DW_TAG_array_type, DW_AT_type(*DW$T$27)
    3763                      .dwattr DW$T$133, DW_AT_language(DW_LANG_C)
    3764                      .dwattr DW$T$133, DW_AT_byte_size(0x0c)
    3765              DW$379  .dwtag  DW_TAG_subrange_type
    3766                      .dwattr DW$379, DW_AT_upper_bound(0x05)
    3767                      .dwendtag DW$T$133
    3768              
    3769              
    3770              DW$T$136        .dwtag  DW_TAG_array_type, DW_AT_type(*DW$T$135)
    3771                      .dwattr DW$T$136, DW_AT_language(DW_LANG_C)
    3772                      .dwattr DW$T$136, DW_AT_byte_size(0x0c)
    3773              DW$380  .dwtag  DW_TAG_subrange_type
    3774                      .dwattr DW$380, DW_AT_upper_bound(0x05)
    3775                      .dwendtag DW$T$136
    3776              
    3777              
    3778              DW$T$137        .dwtag  DW_TAG_array_type, DW_AT_type(*DW$T$26)
    3779                      .dwattr DW$T$137, DW_AT_language(DW_LANG_C)
    3780                      .dwattr DW$T$137, DW_AT_byte_size(0x14)
    3781              DW$381  .dwtag  DW_TAG_subrange_type
    3782                      .dwattr DW$381, DW_AT_upper_bound(0x13)
    3783                      .dwendtag DW$T$137
    3784              
    3785              
    3786              DW$T$138        .dwtag  DW_TAG_array_type, DW_AT_type(*DW$T$26)
    3787                      .dwattr DW$T$138, DW_AT_language(DW_LANG_C)
    3788                      .dwattr DW$T$138, DW_AT_byte_size(0x0a)
    3789              DW$382  .dwtag  DW_TAG_subrange_type
    3790                      .dwattr DW$382, DW_AT_upper_bound(0x09)
    3791                      .dwendtag DW$T$138
    3792              
    3793              DW$T$70 .dwtag  DW_TAG_pointer_type, DW_AT_type(*DW$T$25)
    3794                      .dwattr DW$T$70, DW_AT_address_class(0x16)
    3795              
    3796              DW$T$130        .dwtag  DW_TAG_subroutine_type, DW_AT_type(*DW$T$70)
    3797                      .dwattr DW$T$130, DW_AT_language(DW_LANG_C)
    3798              DW$383  .dwtag  DW_TAG_formal_parameter, DW_AT_type(*DW$T$70)
    3799              DW$384  .dwtag  DW_TAG_formal_parameter, DW_AT_type(*DW$T$70)
    3800                      .dwendtag DW$T$130
    3801              
    3802              
    3803              DW$T$139        .dwtag  DW_TAG_array_type, DW_AT_type(*DW$T$25)
    3804                      .dwattr DW$T$139, DW_AT_language(DW_LANG_C)
    3805                      .dwattr DW$T$139, DW_AT_byte_size(0x14)
TMS320C2000 COFF Assembler PC v4.1.3 Thu Nov 29 16:02:59 2012

Tools Copyright (c) 1996-2006 Texas Instruments Incorporated
C:\DOCUME~1\ADMINI~1\LOCALS~1\Temp\TI4002                            PAGE   79

    3806              DW$385  .dwtag  DW_TAG_subrange_type
    3807                      .dwattr DW$385, DW_AT_upper_bound(0x13)
    3808                      .dwendtag DW$T$139
    3809              
    3810              
    3811              DW$T$141        .dwtag  DW_TAG_array_type, DW_AT_type(*DW$T$25)
    3812                      .dwattr DW$T$141, DW_AT_language(DW_LANG_C)
    3813                      .dwattr DW$T$141, DW_AT_byte_size(0x0a)
    3814              DW$386  .dwtag  DW_TAG_subrange_type
    3815                      .dwattr DW$386, DW_AT_upper_bound(0x09)
    3816                      .dwendtag DW$T$141
    3817              
    3818              DW$387  .dwtag  DW_TAG_far_type
    3819                      .dwattr DW$387, DW_AT_type(*DW$T$33)
    3820              DW$T$34 .dwtag  DW_TAG_const_type
    3821                      .dwattr DW$T$34, DW_AT_type(*DW$387)
    3822              DW$T$35 .dwtag  DW_TAG_pointer_type, DW_AT_type(*DW$T$34)
    3823                      .dwattr DW$T$35, DW_AT_address_class(0x16)
    3824              DW$T$65 .dwtag  DW_TAG_pointer_type, DW_AT_type(*DW$T$64)
    3825                      .dwattr DW$T$65, DW_AT_address_class(0x16)
    3826              
    3827              DW$T$147        .dwtag  DW_TAG_subroutine_type, DW_AT_type(*DW$T$65)
    3828                      .dwattr DW$T$147, DW_AT_language(DW_LANG_C)
    3829              
    3830              DW$T$149        .dwtag  DW_TAG_subroutine_type, DW_AT_type(*DW$T$65)
    3831                      .dwattr DW$T$149, DW_AT_language(DW_LANG_C)
    3832              DW$388  .dwtag  DW_TAG_formal_parameter, DW_AT_type(*DW$T$11)
    3833              DW$389  .dwtag  DW_TAG_formal_parameter, DW_AT_type(*DW$T$11)
    3834              DW$390  .dwtag  DW_TAG_formal_parameter, DW_AT_type(*DW$T$19)
    3835              DW$391  .dwtag  DW_TAG_formal_parameter, DW_AT_type(*DW$T$19)
    3836              DW$392  .dwtag  DW_TAG_formal_parameter, DW_AT_type(*DW$T$70)
    3837              DW$393  .dwtag  DW_TAG_formal_parameter, DW_AT_type(*DW$T$19)
    3838              DW$394  .dwtag  DW_TAG_formal_parameter, DW_AT_type(*DW$T$65)
    3839                      .dwendtag DW$T$149
    3840              
    3841              
    3842              DW$T$151        .dwtag  DW_TAG_subroutine_type, DW_AT_type(*DW$T$65)
    3843                      .dwattr DW$T$151, DW_AT_language(DW_LANG_C)
    3844              DW$395  .dwtag  DW_TAG_formal_parameter, DW_AT_type(*DW$T$11)
    3845              DW$396  .dwtag  DW_TAG_formal_parameter, DW_AT_type(*DW$T$11)
    3846              DW$397  .dwtag  DW_TAG_formal_parameter, DW_AT_type(*DW$T$41)
    3847              DW$398  .dwtag  DW_TAG_formal_parameter, DW_AT_type(*DW$T$6)
    3848              DW$399  .dwtag  DW_TAG_formal_parameter, DW_AT_type(*DW$T$19)
    3849              DW$400  .dwtag  DW_TAG_formal_parameter, DW_AT_type(*DW$T$65)
    3850                      .dwendtag DW$T$151
    3851              
    3852              
    3853              DW$T$153        .dwtag  DW_TAG_subroutine_type, DW_AT_type(*DW$T$65)
    3854                      .dwattr DW$T$153, DW_AT_language(DW_LANG_C)
    3855              DW$401  .dwtag  DW_TAG_formal_parameter, DW_AT_type(*DW$T$11)
    3856              DW$402  .dwtag  DW_TAG_formal_parameter, DW_AT_type(*DW$T$11)
    3857              DW$403  .dwtag  DW_TAG_formal_parameter, DW_AT_type(*DW$T$19)
    3858              DW$404  .dwtag  DW_TAG_formal_parameter, DW_AT_type(*DW$T$19)
    3859              DW$405  .dwtag  DW_TAG_formal_parameter, DW_AT_type(*DW$T$19)
    3860              DW$406  .dwtag  DW_TAG_formal_parameter, DW_AT_type(*DW$T$65)
TMS320C2000 COFF Assembler PC v4.1.3 Thu Nov 29 16:02:59 2012

Tools Copyright (c) 1996-2006 Texas Instruments Incorporated
C:\DOCUME~1\ADMINI~1\LOCALS~1\Temp\TI4002                            PAGE   80

    3861                      .dwendtag DW$T$153
    3862              
    3863              DW$T$85 .dwtag  DW_TAG_typedef, DW_AT_name("xb_data_t"), DW_AT_type(*DW$T$44)
    3864                      .dwattr DW$T$85, DW_AT_language(DW_LANG_C)
    3865              DW$T$86 .dwtag  DW_TAG_pointer_type, DW_AT_type(*DW$T$85)
    3866                      .dwattr DW$T$86, DW_AT_address_class(0x16)
    3867              
    3868              DW$T$155        .dwtag  DW_TAG_array_type, DW_AT_type(*DW$T$85)
    3869                      .dwattr DW$T$155, DW_AT_language(DW_LANG_C)
    3870                      .dwattr DW$T$155, DW_AT_byte_size(0xd0)
    3871              DW$407  .dwtag  DW_TAG_subrange_type
    3872                      .dwattr DW$407, DW_AT_upper_bound(0x33)
    3873                      .dwendtag DW$T$155
    3874              
    3875              DW$T$156        .dwtag  DW_TAG_typedef, DW_AT_name("DL_flag_t"), DW_AT_type(*DW$T$45)
    3876                      .dwattr DW$T$156, DW_AT_language(DW_LANG_C)
    3877              
    3878              DW$T$24 .dwtag  DW_TAG_structure_type
    3879                      .dwattr DW$T$24, DW_AT_byte_size(0x06)
    3880              DW$408  .dwtag  DW_TAG_member, DW_AT_type(*DW$T$19)
    3881                      .dwattr DW$408, DW_AT_name("mod_id"), DW_AT_symbol_name("_mod_id")
    3882                      .dwattr DW$408, DW_AT_data_member_location[DW_OP_plus_uconst 0x0]
    3883                      .dwattr DW$408, DW_AT_accessibility(DW_ACCESS_public)
    3884              DW$409  .dwtag  DW_TAG_member, DW_AT_type(*DW$T$22)
    3885                      .dwattr DW$409, DW_AT_name("insmod_fun"), DW_AT_symbol_name("_insmod_fun")
    3886                      .dwattr DW$409, DW_AT_data_member_location[DW_OP_plus_uconst 0x2]
    3887                      .dwattr DW$409, DW_AT_accessibility(DW_ACCESS_public)
    3888              DW$410  .dwtag  DW_TAG_member, DW_AT_type(*DW$T$23)
    3889                      .dwattr DW$410, DW_AT_name("exitmod_fun"), DW_AT_symbol_name("_exitmod_fun")
    3890                      .dwattr DW$410, DW_AT_data_member_location[DW_OP_plus_uconst 0x4]
    3891                      .dwattr DW$410, DW_AT_accessibility(DW_ACCESS_public)
    3892                      .dwendtag DW$T$24
    3893              
    3894              DW$T$25 .dwtag  DW_TAG_base_type, DW_AT_name("signed char")
    3895                      .dwattr DW$T$25, DW_AT_encoding(DW_ATE_signed_char)
    3896                      .dwattr DW$T$25, DW_AT_byte_size(0x01)
    3897              DW$411  .dwtag  DW_TAG_far_type
    3898                      .dwattr DW$411, DW_AT_type(*DW$T$25)
    3899              DW$T$26 .dwtag  DW_TAG_const_type
    3900                      .dwattr DW$T$26, DW_AT_type(*DW$411)
    3901              DW$T$27 .dwtag  DW_TAG_pointer_type, DW_AT_type(*DW$T$26)
    3902                      .dwattr DW$T$27, DW_AT_address_class(0x16)
    3903              DW$412  .dwtag  DW_TAG_far_type
    3904                      .dwattr DW$412, DW_AT_type(*DW$T$27)
    3905              DW$T$135        .dwtag  DW_TAG_const_type
    3906                      .dwattr DW$T$135, DW_AT_type(*DW$412)
    3907              DW$T$33 .dwtag  DW_TAG_typedef, DW_AT_name("GUI_FONT"), DW_AT_type(*DW$T$32)
    3908                      .dwattr DW$T$33, DW_AT_language(DW_LANG_C)
    3909              DW$T$64 .dwtag  DW_TAG_typedef, DW_AT_name("hwin_t"), DW_AT_type(*DW$T$43)
    3910                      .dwattr DW$T$64, DW_AT_language(DW_LANG_C)
    3911              
    3912              DW$T$44 .dwtag  DW_TAG_structure_type
    3913                      .dwattr DW$T$44, DW_AT_byte_size(0x04)
    3914              DW$413  .dwtag  DW_TAG_member, DW_AT_type(*DW$T$19)
    3915                      .dwattr DW$413, DW_AT_name("offset"), DW_AT_symbol_name("_offset")
TMS320C2000 COFF Assembler PC v4.1.3 Thu Nov 29 16:02:59 2012

Tools Copyright (c) 1996-2006 Texas Instruments Incorporated
C:\DOCUME~1\ADMINI~1\LOCALS~1\Temp\TI4002                            PAGE   81

    3916                      .dwattr DW$413, DW_AT_data_member_location[DW_OP_plus_uconst 0x0]
    3917                      .dwattr DW$413, DW_AT_accessibility(DW_ACCESS_public)
    3918              DW$414  .dwtag  DW_TAG_member, DW_AT_type(*DW$T$16)
    3919                      .dwattr DW$414, DW_AT_name("Usage"), DW_AT_symbol_name("_Usage")
    3920                      .dwattr DW$414, DW_AT_data_member_location[DW_OP_plus_uconst 0x2]
    3921                      .dwattr DW$414, DW_AT_accessibility(DW_ACCESS_public)
    3922                      .dwendtag DW$T$44
    3923              
    3924              
    3925              DW$T$45 .dwtag  DW_TAG_structure_type
    3926                      .dwattr DW$T$45, DW_AT_byte_size(0x0d)
    3927              DW$415  .dwtag  DW_TAG_member, DW_AT_type(*DW$T$42)
    3928                      .dwattr DW$415, DW_AT_name("DL_data_is_new"), DW_AT_symbol_name("_DL_data_is_new")
    3929                      .dwattr DW$415, DW_AT_data_member_location[DW_OP_plus_uconst 0x0]
    3930                      .dwattr DW$415, DW_AT_accessibility(DW_ACCESS_public)
    3931              DW$416  .dwtag  DW_TAG_member, DW_AT_type(*DW$T$42)
    3932                      .dwattr DW$416, DW_AT_name("DL_path1_ERR_is_new"), DW_AT_symbol_name("_DL_path1_ERR_is_new")
    3933                      .dwattr DW$416, DW_AT_data_member_location[DW_OP_plus_uconst 0x1]
    3934                      .dwattr DW$416, DW_AT_accessibility(DW_ACCESS_public)
    3935              DW$417  .dwtag  DW_TAG_member, DW_AT_type(*DW$T$42)
    3936                      .dwattr DW$417, DW_AT_name("DL_path2_ERR_is_new"), DW_AT_symbol_name("_DL_path2_ERR_is_new")
    3937                      .dwattr DW$417, DW_AT_data_member_location[DW_OP_plus_uconst 0x2]
    3938                      .dwattr DW$417, DW_AT_accessibility(DW_ACCESS_public)
    3939              DW$418  .dwtag  DW_TAG_member, DW_AT_type(*DW$T$42)
    3940                      .dwattr DW$418, DW_AT_name("DL_XB_is_new"), DW_AT_symbol_name("_DL_XB_is_new")
    3941                      .dwattr DW$418, DW_AT_data_member_location[DW_OP_plus_uconst 0x3]
    3942                      .dwattr DW$418, DW_AT_accessibility(DW_ACCESS_public)
    3943              DW$419  .dwtag  DW_TAG_member, DW_AT_type(*DW$T$42)
    3944                      .dwattr DW$419, DW_AT_name("DL_WIR_is_new"), DW_AT_symbol_name("_DL_WIR_is_new")
    3945                      .dwattr DW$419, DW_AT_data_member_location[DW_OP_plus_uconst 0x4]
    3946                      .dwattr DW$419, DW_AT_accessibility(DW_ACCESS_public)
    3947              DW$420  .dwtag  DW_TAG_member, DW_AT_type(*DW$T$42)
    3948                      .dwattr DW$420, DW_AT_name("Ua_is_lost"), DW_AT_symbol_name("_Ua_is_lost")
    3949                      .dwattr DW$420, DW_AT_data_member_location[DW_OP_plus_uconst 0x5]
    3950                      .dwattr DW$420, DW_AT_accessibility(DW_ACCESS_public)
    3951              DW$421  .dwtag  DW_TAG_member, DW_AT_type(*DW$T$42)
    3952                      .dwattr DW$421, DW_AT_name("Ub_is_lost"), DW_AT_symbol_name("_Ub_is_lost")
    3953                      .dwattr DW$421, DW_AT_data_member_location[DW_OP_plus_uconst 0x6]
    3954                      .dwattr DW$421, DW_AT_accessibility(DW_ACCESS_public)
    3955              DW$422  .dwtag  DW_TAG_member, DW_AT_type(*DW$T$42)
    3956                      .dwattr DW$422, DW_AT_name("Uc_is_lost"), DW_AT_symbol_name("_Uc_is_lost")
    3957                      .dwattr DW$422, DW_AT_data_member_location[DW_OP_plus_uconst 0x7]
    3958                      .dwattr DW$422, DW_AT_accessibility(DW_ACCESS_public)
    3959              DW$423  .dwtag  DW_TAG_member, DW_AT_type(*DW$T$42)
    3960                      .dwattr DW$423, DW_AT_name("Ia_is_lost"), DW_AT_symbol_name("_Ia_is_lost")
    3961                      .dwattr DW$423, DW_AT_data_member_location[DW_OP_plus_uconst 0x8]
    3962                      .dwattr DW$423, DW_AT_accessibility(DW_ACCESS_public)
    3963              DW$424  .dwtag  DW_TAG_member, DW_AT_type(*DW$T$42)
    3964                      .dwattr DW$424, DW_AT_name("Ib_is_lost"), DW_AT_symbol_name("_Ib_is_lost")
    3965                      .dwattr DW$424, DW_AT_data_member_location[DW_OP_plus_uconst 0x9]
    3966                      .dwattr DW$424, DW_AT_accessibility(DW_ACCESS_public)
    3967              DW$425  .dwtag  DW_TAG_member, DW_AT_type(*DW$T$42)
    3968                      .dwattr DW$425, DW_AT_name("Ic_is_lost"), DW_AT_symbol_name("_Ic_is_lost")
    3969                      .dwattr DW$425, DW_AT_data_member_location[DW_OP_plus_uconst 0xa]
    3970                      .dwattr DW$425, DW_AT_accessibility(DW_ACCESS_public)
TMS320C2000 COFF Assembler PC v4.1.3 Thu Nov 29 16:02:59 2012

Tools Copyright (c) 1996-2006 Texas Instruments Incorporated
C:\DOCUME~1\ADMINI~1\LOCALS~1\Temp\TI4002                            PAGE   82

    3971              DW$426  .dwtag  DW_TAG_member, DW_AT_type(*DW$T$6)
    3972                      .dwattr DW$426, DW_AT_name("phase3or4"), DW_AT_symbol_name("_phase3or4")
    3973                      .dwattr DW$426, DW_AT_data_member_location[DW_OP_plus_uconst 0xb]
    3974                      .dwattr DW$426, DW_AT_accessibility(DW_ACCESS_public)
    3975              DW$427  .dwtag  DW_TAG_member, DW_AT_type(*DW$T$6)
    3976                      .dwattr DW$427, DW_AT_name("measure_mode"), DW_AT_symbol_name("_measure_mode")
    3977                      .dwattr DW$427, DW_AT_data_member_location[DW_OP_plus_uconst 0xc]
    3978                      .dwattr DW$427, DW_AT_accessibility(DW_ACCESS_public)
    3979                      .dwendtag DW$T$45
    3980              
    3981              DW$T$22 .dwtag  DW_TAG_typedef, DW_AT_name("app_insmod_t"), DW_AT_type(*DW$T$21)
    3982                      .dwattr DW$T$22, DW_AT_language(DW_LANG_C)
    3983              DW$T$23 .dwtag  DW_TAG_typedef, DW_AT_name("app_exitmod_t"), DW_AT_type(*DW$T$21)
    3984                      .dwattr DW$T$23, DW_AT_language(DW_LANG_C)
    3985              DW$T$42 .dwtag  DW_TAG_typedef, DW_AT_name("BOOL"), DW_AT_type(*DW$T$6)
    3986                      .dwattr DW$T$42, DW_AT_language(DW_LANG_C)
    3987              
    3988              DW$T$32 .dwtag  DW_TAG_structure_type
    3989                      .dwattr DW$T$32, DW_AT_name("GUI_FONT")
    3990                      .dwattr DW$T$32, DW_AT_byte_size(0x0c)
    3991              DW$428  .dwtag  DW_TAG_member, DW_AT_type(*DW$T$27)
    3992                      .dwattr DW$428, DW_AT_name("start_asc"), DW_AT_symbol_name("_start_asc")
    3993                      .dwattr DW$428, DW_AT_data_member_location[DW_OP_plus_uconst 0x0]
    3994                      .dwattr DW$428, DW_AT_accessibility(DW_ACCESS_public)
    3995              DW$429  .dwtag  DW_TAG_member, DW_AT_type(*DW$T$27)
    3996                      .dwattr DW$429, DW_AT_name("end_asc"), DW_AT_symbol_name("_end_asc")
    3997                      .dwattr DW$429, DW_AT_data_member_location[DW_OP_plus_uconst 0x2]
    3998                      .dwattr DW$429, DW_AT_accessibility(DW_ACCESS_public)
    3999              DW$430  .dwtag  DW_TAG_member, DW_AT_type(*DW$T$6)
    4000                      .dwattr DW$430, DW_AT_name("nbyte"), DW_AT_symbol_name("_nbyte")
    4001                      .dwattr DW$430, DW_AT_data_member_location[DW_OP_plus_uconst 0x4]
    4002                      .dwattr DW$430, DW_AT_accessibility(DW_ACCESS_public)
    4003              DW$431  .dwtag  DW_TAG_member, DW_AT_type(*DW$T$11)
    4004                      .dwattr DW$431, DW_AT_name("wide"), DW_AT_symbol_name("_wide")
    4005                      .dwattr DW$431, DW_AT_data_member_location[DW_OP_plus_uconst 0x5]
    4006                      .dwattr DW$431, DW_AT_accessibility(DW_ACCESS_public)
    4007              DW$432  .dwtag  DW_TAG_member, DW_AT_type(*DW$T$11)
    4008                      .dwattr DW$432, DW_AT_name("high"), DW_AT_symbol_name("_high")
    4009                      .dwattr DW$432, DW_AT_data_member_location[DW_OP_plus_uconst 0x6]
    4010                      .dwattr DW$432, DW_AT_accessibility(DW_ACCESS_public)
    4011              DW$433  .dwtag  DW_TAG_member, DW_AT_type(*DW$T$11)
    4012                      .dwattr DW$433, DW_AT_name("CHwide"), DW_AT_symbol_name("_CHwide")
    4013                      .dwattr DW$433, DW_AT_data_member_location[DW_OP_plus_uconst 0x7]
    4014                      .dwattr DW$433, DW_AT_accessibility(DW_ACCESS_public)
    4015              DW$434  .dwtag  DW_TAG_member, DW_AT_type(*DW$T$29)
    4016                      .dwattr DW$434, DW_AT_name("pcode"), DW_AT_symbol_name("_pcode")
    4017                      .dwattr DW$434, DW_AT_data_member_location[DW_OP_plus_uconst 0x8]
    4018                      .dwattr DW$434, DW_AT_accessibility(DW_ACCESS_public)
    4019              DW$435  .dwtag  DW_TAG_member, DW_AT_type(*DW$T$31)
    4020                      .dwattr DW$435, DW_AT_name("pNext"), DW_AT_symbol_name("_pNext")
    4021                      .dwattr DW$435, DW_AT_data_member_location[DW_OP_plus_uconst 0xa]
    4022                      .dwattr DW$435, DW_AT_accessibility(DW_ACCESS_public)
    4023                      .dwendtag DW$T$32
    4024              
    4025              DW$T$31 .dwtag  DW_TAG_pointer_type, DW_AT_type(*DW$T$30)
TMS320C2000 COFF Assembler PC v4.1.3 Thu Nov 29 16:02:59 2012

Tools Copyright (c) 1996-2006 Texas Instruments Incorporated
C:\DOCUME~1\ADMINI~1\LOCALS~1\Temp\TI4002                            PAGE   83

    4026                      .dwattr DW$T$31, DW_AT_address_class(0x16)
    4027              
    4028              DW$T$43 .dwtag  DW_TAG_structure_type
    4029                      .dwattr DW$T$43, DW_AT_name("hwin")
    4030                      .dwattr DW$T$43, DW_AT_byte_size(0x22)
    4031              DW$436  .dwtag  DW_TAG_member, DW_AT_type(*DW$T$19)
    4032                      .dwattr DW$436, DW_AT_name("occupy_flag"), DW_AT_symbol_name("_occupy_flag")
    4033                      .dwattr DW$436, DW_AT_data_member_location[DW_OP_plus_uconst 0x0]
    4034                      .dwattr DW$436, DW_AT_accessibility(DW_ACCESS_public)
    4035              DW$437  .dwtag  DW_TAG_member, DW_AT_type(*DW$T$11)
    4036                      .dwattr DW$437, DW_AT_name("win_x"), DW_AT_symbol_name("_win_x")
    4037                      .dwattr DW$437, DW_AT_data_member_location[DW_OP_plus_uconst 0x1]
    4038                      .dwattr DW$437, DW_AT_accessibility(DW_ACCESS_public)
    4039              DW$438  .dwtag  DW_TAG_member, DW_AT_type(*DW$T$11)
    4040                      .dwattr DW$438, DW_AT_name("win_y"), DW_AT_symbol_name("_win_y")
    4041                      .dwattr DW$438, DW_AT_data_member_location[DW_OP_plus_uconst 0x2]
    4042                      .dwattr DW$438, DW_AT_accessibility(DW_ACCESS_public)
    4043              DW$439  .dwtag  DW_TAG_member, DW_AT_type(*DW$T$19)
    4044                      .dwattr DW$439, DW_AT_name("win_wide"), DW_AT_symbol_name("_win_wide")
    4045                      .dwattr DW$439, DW_AT_data_member_location[DW_OP_plus_uconst 0x3]
    4046                      .dwattr DW$439, DW_AT_accessibility(DW_ACCESS_public)
    4047              DW$440  .dwtag  DW_TAG_member, DW_AT_type(*DW$T$19)
    4048                      .dwattr DW$440, DW_AT_name("win_high"), DW_AT_symbol_name("_win_high")
    4049                      .dwattr DW$440, DW_AT_data_member_location[DW_OP_plus_uconst 0x4]
    4050                      .dwattr DW$440, DW_AT_accessibility(DW_ACCESS_public)
    4051              DW$441  .dwtag  DW_TAG_member, DW_AT_type(*DW$T$11)
    4052                      .dwattr DW$441, DW_AT_name("csr_x_pos"), DW_AT_symbol_name("_csr_x_pos")
    4053                      .dwattr DW$441, DW_AT_data_member_location[DW_OP_plus_uconst 0x5]
    4054                      .dwattr DW$441, DW_AT_accessibility(DW_ACCESS_public)
    4055              DW$442  .dwtag  DW_TAG_member, DW_AT_type(*DW$T$11)
    4056                      .dwattr DW$442, DW_AT_name("csr_y_pos"), DW_AT_symbol_name("_csr_y_pos")
    4057                      .dwattr DW$442, DW_AT_data_member_location[DW_OP_plus_uconst 0x6]
    4058                      .dwattr DW$442, DW_AT_accessibility(DW_ACCESS_public)
    4059              DW$443  .dwtag  DW_TAG_member, DW_AT_type(*DW$T$11)
    4060                      .dwattr DW$443, DW_AT_name("flag"), DW_AT_symbol_name("_flag")
    4061                      .dwattr DW$443, DW_AT_data_member_location[DW_OP_plus_uconst 0x7]
    4062                      .dwattr DW$443, DW_AT_accessibility(DW_ACCESS_public)
    4063              DW$444  .dwtag  DW_TAG_member, DW_AT_type(*DW$T$19)
    4064                      .dwattr DW$444, DW_AT_name("type"), DW_AT_symbol_name("_type")
    4065                      .dwattr DW$444, DW_AT_data_member_location[DW_OP_plus_uconst 0x8]
    4066                      .dwattr DW$444, DW_AT_accessibility(DW_ACCESS_public)
    4067              DW$445  .dwtag  DW_TAG_member, DW_AT_type(*DW$T$38)
    4068                      .dwattr DW$445, DW_AT_name("father_hwin"), DW_AT_symbol_name("_father_hwin")
    4069                      .dwattr DW$445, DW_AT_data_member_location[DW_OP_plus_uconst 0xa]
    4070                      .dwattr DW$445, DW_AT_accessibility(DW_ACCESS_public)
    4071              DW$446  .dwtag  DW_TAG_member, DW_AT_type(*DW$T$38)
    4072                      .dwattr DW$446, DW_AT_name("next_hwin"), DW_AT_symbol_name("_next_hwin")
    4073                      .dwattr DW$446, DW_AT_data_member_location[DW_OP_plus_uconst 0xc]
    4074                      .dwattr DW$446, DW_AT_accessibility(DW_ACCESS_public)
    4075              DW$447  .dwtag  DW_TAG_member, DW_AT_type(*DW$T$38)
    4076                      .dwattr DW$447, DW_AT_name("last_hwin"), DW_AT_symbol_name("_last_hwin")
    4077                      .dwattr DW$447, DW_AT_data_member_location[DW_OP_plus_uconst 0xe]
    4078                      .dwattr DW$447, DW_AT_accessibility(DW_ACCESS_public)
    4079              DW$448  .dwtag  DW_TAG_member, DW_AT_type(*DW$T$40)
    4080                      .dwattr DW$448, DW_AT_name("cur_edit_pos"), DW_AT_symbol_name("_cur_edit_pos")
TMS320C2000 COFF Assembler PC v4.1.3 Thu Nov 29 16:02:59 2012

Tools Copyright (c) 1996-2006 Texas Instruments Incorporated
C:\DOCUME~1\ADMINI~1\LOCALS~1\Temp\TI4002                            PAGE   84

    4081                      .dwattr DW$448, DW_AT_data_member_location[DW_OP_plus_uconst 0x10]
    4082                      .dwattr DW$448, DW_AT_accessibility(DW_ACCESS_public)
    4083              DW$449  .dwtag  DW_TAG_member, DW_AT_type(*DW$T$40)
    4084                      .dwattr DW$449, DW_AT_name("edit_phead"), DW_AT_symbol_name("_edit_phead")
    4085                      .dwattr DW$449, DW_AT_data_member_location[DW_OP_plus_uconst 0x12]
    4086                      .dwattr DW$449, DW_AT_accessibility(DW_ACCESS_public)
    4087              DW$450  .dwtag  DW_TAG_member, DW_AT_type(*DW$T$40)
    4088                      .dwattr DW$450, DW_AT_name("m_cur_pedit"), DW_AT_symbol_name("_m_cur_pedit")
    4089                      .dwattr DW$450, DW_AT_data_member_location[DW_OP_plus_uconst 0x14]
    4090                      .dwattr DW$450, DW_AT_accessibility(DW_ACCESS_public)
    4091              DW$451  .dwtag  DW_TAG_member, DW_AT_type(*DW$T$6)
    4092                      .dwattr DW$451, DW_AT_name("drop_list_is_start"), DW_AT_symbol_name("_drop_list_is_start")
    4093                      .dwattr DW$451, DW_AT_data_member_location[DW_OP_plus_uconst 0x16]
    4094                      .dwattr DW$451, DW_AT_accessibility(DW_ACCESS_public)
    4095              DW$452  .dwtag  DW_TAG_member, DW_AT_type(*DW$T$41)
    4096                      .dwattr DW$452, DW_AT_name("drop_memeber"), DW_AT_symbol_name("_drop_memeber")
    4097                      .dwattr DW$452, DW_AT_data_member_location[DW_OP_plus_uconst 0x18]
    4098                      .dwattr DW$452, DW_AT_accessibility(DW_ACCESS_public)
    4099              DW$453  .dwtag  DW_TAG_member, DW_AT_type(*DW$T$6)
    4100                      .dwattr DW$453, DW_AT_name("drop_cur_member"), DW_AT_symbol_name("_drop_cur_member")
    4101                      .dwattr DW$453, DW_AT_data_member_location[DW_OP_plus_uconst 0x1a]
    4102                      .dwattr DW$453, DW_AT_accessibility(DW_ACCESS_public)
    4103              DW$454  .dwtag  DW_TAG_member, DW_AT_type(*DW$T$6)
    4104                      .dwattr DW$454, DW_AT_name("drop_member_size"), DW_AT_symbol_name("_drop_member_size")
    4105                      .dwattr DW$454, DW_AT_data_member_location[DW_OP_plus_uconst 0x1b]
    4106                      .dwattr DW$454, DW_AT_accessibility(DW_ACCESS_public)
    4107              DW$455  .dwtag  DW_TAG_member, DW_AT_type(*DW$T$42)
    4108                      .dwattr DW$455, DW_AT_name("checkbox_radio_state"), DW_AT_symbol_name("_checkbox_radio_state")
    4109                      .dwattr DW$455, DW_AT_data_member_location[DW_OP_plus_uconst 0x1c]
    4110                      .dwattr DW$455, DW_AT_accessibility(DW_ACCESS_public)
    4111              DW$456  .dwtag  DW_TAG_member, DW_AT_type(*DW$T$11)
    4112                      .dwattr DW$456, DW_AT_name("title_len"), DW_AT_symbol_name("_title_len")
    4113                      .dwattr DW$456, DW_AT_data_member_location[DW_OP_plus_uconst 0x1d]
    4114                      .dwattr DW$456, DW_AT_accessibility(DW_ACCESS_public)
    4115              DW$457  .dwtag  DW_TAG_member, DW_AT_type(*DW$T$11)
    4116                      .dwattr DW$457, DW_AT_name("win_cnt"), DW_AT_symbol_name("_win_cnt")
    4117                      .dwattr DW$457, DW_AT_data_member_location[DW_OP_plus_uconst 0x1e]
    4118                      .dwattr DW$457, DW_AT_accessibility(DW_ACCESS_public)
    4119              DW$458  .dwtag  DW_TAG_member, DW_AT_type(*DW$T$3)
    4120                      .dwattr DW$458, DW_AT_name("pwidget"), DW_AT_symbol_name("_pwidget")
    4121                      .dwattr DW$458, DW_AT_data_member_location[DW_OP_plus_uconst 0x20]
    4122                      .dwattr DW$458, DW_AT_accessibility(DW_ACCESS_public)
    4123                      .dwendtag DW$T$43
    4124              
    4125              DW$T$38 .dwtag  DW_TAG_pointer_type, DW_AT_type(*DW$T$43)
    4126                      .dwattr DW$T$38, DW_AT_address_class(0x16)
    4127              DW$T$21 .dwtag  DW_TAG_pointer_type, DW_AT_type(*DW$T$20)
    4128                      .dwattr DW$T$21, DW_AT_address_class(0x16)
    4129              DW$T$29 .dwtag  DW_TAG_pointer_type, DW_AT_type(*DW$T$28)
    4130                      .dwattr DW$T$29, DW_AT_address_class(0x16)
    4131              DW$459  .dwtag  DW_TAG_far_type
    4132                      .dwattr DW$459, DW_AT_type(*DW$T$32)
    4133              DW$T$30 .dwtag  DW_TAG_const_type
    4134                      .dwattr DW$T$30, DW_AT_type(*DW$459)
    4135              DW$T$40 .dwtag  DW_TAG_pointer_type, DW_AT_type(*DW$T$39)
TMS320C2000 COFF Assembler PC v4.1.3 Thu Nov 29 16:02:59 2012

Tools Copyright (c) 1996-2006 Texas Instruments Incorporated
C:\DOCUME~1\ADMINI~1\LOCALS~1\Temp\TI4002                            PAGE   85

    4136                      .dwattr DW$T$40, DW_AT_address_class(0x16)
    4137              DW$460  .dwtag  DW_TAG_far_type
    4138                      .dwattr DW$460, DW_AT_type(*DW$T$6)
    4139              DW$T$28 .dwtag  DW_TAG_const_type
    4140                      .dwattr DW$T$28, DW_AT_type(*DW$460)
    4141              DW$T$39 .dwtag  DW_TAG_typedef, DW_AT_name("edit_mem_t"), DW_AT_type(*DW$T$37)
    4142                      .dwattr DW$T$39, DW_AT_language(DW_LANG_C)
    4143              
    4144              DW$T$37 .dwtag  DW_TAG_structure_type
    4145                      .dwattr DW$T$37, DW_AT_name("edit_mem")
    4146                      .dwattr DW$T$37, DW_AT_byte_size(0x0c)
    4147              DW$461  .dwtag  DW_TAG_member, DW_AT_type(*DW$T$11)
    4148                      .dwattr DW$461, DW_AT_name("x"), DW_AT_symbol_name("_x")
    4149                      .dwattr DW$461, DW_AT_data_member_location[DW_OP_plus_uconst 0x0]
    4150                      .dwattr DW$461, DW_AT_accessibility(DW_ACCESS_public)
    4151              DW$462  .dwtag  DW_TAG_member, DW_AT_type(*DW$T$11)
    4152                      .dwattr DW$462, DW_AT_name("y"), DW_AT_symbol_name("_y")
    4153                      .dwattr DW$462, DW_AT_data_member_location[DW_OP_plus_uconst 0x1]
    4154                      .dwattr DW$462, DW_AT_accessibility(DW_ACCESS_public)
    4155              DW$463  .dwtag  DW_TAG_member, DW_AT_type(*DW$T$11)
    4156                      .dwattr DW$463, DW_AT_name("CHwide"), DW_AT_symbol_name("_CHwide")
    4157                      .dwattr DW$463, DW_AT_data_member_location[DW_OP_plus_uconst 0x2]
    4158                      .dwattr DW$463, DW_AT_accessibility(DW_ACCESS_public)
    4159              DW$464  .dwtag  DW_TAG_member, DW_AT_type(*DW$T$11)
    4160                      .dwattr DW$464, DW_AT_name("CHhigh"), DW_AT_symbol_name("_CHhigh")
    4161                      .dwattr DW$464, DW_AT_data_member_location[DW_OP_plus_uconst 0x3]
    4162                      .dwattr DW$464, DW_AT_accessibility(DW_ACCESS_public)
    4163              DW$465  .dwtag  DW_TAG_member, DW_AT_type(*DW$T$19)
    4164                      .dwattr DW$465, DW_AT_name("eidt_lenth"), DW_AT_symbol_name("_eidt_lenth")
    4165                      .dwattr DW$465, DW_AT_data_member_location[DW_OP_plus_uconst 0x4]
    4166                      .dwattr DW$465, DW_AT_accessibility(DW_ACCESS_public)
    4167              DW$466  .dwtag  DW_TAG_member, DW_AT_type(*DW$T$19)
    4168                      .dwattr DW$466, DW_AT_name("surplus_lenth"), DW_AT_symbol_name("_surplus_lenth")
    4169                      .dwattr DW$466, DW_AT_data_member_location[DW_OP_plus_uconst 0x5]
    4170                      .dwattr DW$466, DW_AT_accessibility(DW_ACCESS_public)
    4171              DW$467  .dwtag  DW_TAG_member, DW_AT_type(*DW$T$19)
    4172                      .dwattr DW$467, DW_AT_name("id"), DW_AT_symbol_name("_id")
    4173                      .dwattr DW$467, DW_AT_data_member_location[DW_OP_plus_uconst 0x6]
    4174                      .dwattr DW$467, DW_AT_accessibility(DW_ACCESS_public)
    4175              DW$468  .dwtag  DW_TAG_member, DW_AT_type(*DW$T$6)
    4176                      .dwattr DW$468, DW_AT_name("flag"), DW_AT_symbol_name("_flag")
    4177                      .dwattr DW$468, DW_AT_data_member_location[DW_OP_plus_uconst 0x7]
    4178                      .dwattr DW$468, DW_AT_accessibility(DW_ACCESS_public)
    4179              DW$469  .dwtag  DW_TAG_member, DW_AT_type(*DW$T$35)
    4180                      .dwattr DW$469, DW_AT_name("pfront"), DW_AT_symbol_name("_pfront")
    4181                      .dwattr DW$469, DW_AT_data_member_location[DW_OP_plus_uconst 0x8]
    4182                      .dwattr DW$469, DW_AT_accessibility(DW_ACCESS_public)
    4183              DW$470  .dwtag  DW_TAG_member, DW_AT_type(*DW$T$36)
    4184                      .dwattr DW$470, DW_AT_name("next_edit"), DW_AT_symbol_name("_next_edit")
    4185                      .dwattr DW$470, DW_AT_data_member_location[DW_OP_plus_uconst 0xa]
    4186                      .dwattr DW$470, DW_AT_accessibility(DW_ACCESS_public)
    4187                      .dwendtag DW$T$37
    4188              
    4189              DW$T$36 .dwtag  DW_TAG_pointer_type, DW_AT_type(*DW$T$37)
    4190                      .dwattr DW$T$36, DW_AT_address_class(0x16)
TMS320C2000 COFF Assembler PC v4.1.3 Thu Nov 29 16:02:59 2012

Tools Copyright (c) 1996-2006 Texas Instruments Incorporated
C:\DOCUME~1\ADMINI~1\LOCALS~1\Temp\TI4002                            PAGE   86

    4191              
    4192                      .dwattr DW$181, DW_AT_external(0x01)
    4193                      .dwattr DW$181, DW_AT_type(*DW$T$10)
    4194                      .dwattr DW$169, DW_AT_external(0x01)
    4195                      .dwattr DW$147, DW_AT_external(0x01)
    4196                      .dwattr DW$147, DW_AT_type(*DW$T$19)
    4197                      .dwattr DW$150, DW_AT_external(0x01)
    4198                      .dwattr DW$269, DW_AT_external(0x01)
    4199                      .dwattr DW$146, DW_AT_external(0x01)
    4200                      .dwattr DW$267, DW_AT_external(0x01)
    4201                      .dwattr DW$268, DW_AT_external(0x01)
    4202                      .dwattr DW$302, DW_AT_external(0x01)
    4203                      .dwattr DW$285, DW_AT_external(0x01)
    4204                      .dwattr DW$297, DW_AT_external(0x01)
    4205                      .dwattr DW$188, DW_AT_external(0x01)
    4206                      .dwattr DW$305, DW_AT_external(0x01)
    4207                      .dwattr DW$145, DW_AT_external(0x01)
    4208                      .dwattr DW$238, DW_AT_external(0x01)
    4209                      .dwattr DW$144, DW_AT_external(0x01)
    4210                      .dwattr DW$296, DW_AT_external(0x01)
    4211                      .dwattr DW$283, DW_AT_external(0x01)
    4212                      .dwattr DW$284, DW_AT_external(0x01)
    4213                      .dwattr DW$CU, DW_AT_language(DW_LANG_C)
    4214              
    4215              ;***************************************************************
    4216              ;* DWARF CIE ENTRIES                                           *
    4217              ;***************************************************************
    4218              
    4219              DW$CIE  .dwcie 1, 40
    4220                      .dwcfa  0x0c, 20, 0
    4221                      .dwcfa  0x07, 0
    4222                      .dwcfa  0x07, 1
    4223                      .dwcfa  0x07, 2
    4224                      .dwcfa  0x07, 3
    4225                      .dwcfa  0x07, 4
    4226                      .dwcfa  0x07, 5
    4227                      .dwcfa  0x08, 6
    4228                      .dwcfa  0x08, 7
    4229                      .dwcfa  0x08, 8
    4230                      .dwcfa  0x08, 9
    4231                      .dwcfa  0x08, 10
    4232                      .dwcfa  0x08, 11
    4233                      .dwcfa  0x07, 12
    4234                      .dwcfa  0x07, 13
    4235                      .dwcfa  0x07, 14
    4236                      .dwcfa  0x07, 15
    4237                      .dwcfa  0x07, 16
    4238                      .dwcfa  0x07, 17
    4239                      .dwcfa  0x07, 18
    4240                      .dwcfa  0x07, 19
    4241                      .dwcfa  0x07, 20
    4242                      .dwcfa  0x07, 21
    4243                      .dwcfa  0x07, 22
    4244                      .dwcfa  0x07, 23
    4245                      .dwcfa  0x07, 24
TMS320C2000 COFF Assembler PC v4.1.3 Thu Nov 29 16:02:59 2012

Tools Copyright (c) 1996-2006 Texas Instruments Incorporated
C:\DOCUME~1\ADMINI~1\LOCALS~1\Temp\TI4002                            PAGE   87

    4246                      .dwcfa  0x07, 25
    4247                      .dwcfa  0x07, 26
    4248                      .dwcfa  0x08, 27
    4249                      .dwcfa  0x07, 28
    4250                      .dwcfa  0x07, 29
    4251                      .dwcfa  0x07, 30
    4252                      .dwcfa  0x07, 31
    4253                      .dwcfa  0x07, 32
    4254                      .dwcfa  0x07, 33
    4255                      .dwcfa  0x07, 34
    4256                      .dwcfa  0x07, 35
    4257                      .dwcfa  0x07, 36
    4258                      .dwcfa  0x07, 37
    4259                      .dwcfa  0x07, 38
    4260                      .dwcfa  0x07, 39
    4261                      .dwcfa  0x07, 40
    4262              
    4263              ;***************************************************************
    4264              ;* DWARF REGISTER MAP                                          *
    4265              ;***************************************************************
    4266              
    4267              DW$471  .dwtag  DW_TAG_assign_register, DW_AT_name("AL")
    4268                      .dwattr DW$471, DW_AT_location[DW_OP_reg0]
    4269              DW$472  .dwtag  DW_TAG_assign_register, DW_AT_name("AH")
    4270                      .dwattr DW$472, DW_AT_location[DW_OP_reg1]
    4271              DW$473  .dwtag  DW_TAG_assign_register, DW_AT_name("PL")
    4272                      .dwattr DW$473, DW_AT_location[DW_OP_reg2]
    4273              DW$474  .dwtag  DW_TAG_assign_register, DW_AT_name("PH")
    4274                      .dwattr DW$474, DW_AT_location[DW_OP_reg3]
    4275              DW$475  .dwtag  DW_TAG_assign_register, DW_AT_name("AR0")
    4276                      .dwattr DW$475, DW_AT_location[DW_OP_reg4]
    4277              DW$476  .dwtag  DW_TAG_assign_register, DW_AT_name("XAR0")
    4278                      .dwattr DW$476, DW_AT_location[DW_OP_reg5]
    4279              DW$477  .dwtag  DW_TAG_assign_register, DW_AT_name("AR1")
    4280                      .dwattr DW$477, DW_AT_location[DW_OP_reg6]
    4281              DW$478  .dwtag  DW_TAG_assign_register, DW_AT_name("XAR1")
    4282                      .dwattr DW$478, DW_AT_location[DW_OP_reg7]
    4283              DW$479  .dwtag  DW_TAG_assign_register, DW_AT_name("AR2")
    4284                      .dwattr DW$479, DW_AT_location[DW_OP_reg8]
    4285              DW$480  .dwtag  DW_TAG_assign_register, DW_AT_name("XAR2")
    4286                      .dwattr DW$480, DW_AT_location[DW_OP_reg9]
    4287              DW$481  .dwtag  DW_TAG_assign_register, DW_AT_name("AR3")
    4288                      .dwattr DW$481, DW_AT_location[DW_OP_reg10]
    4289              DW$482  .dwtag  DW_TAG_assign_register, DW_AT_name("XAR3")
    4290                      .dwattr DW$482, DW_AT_location[DW_OP_reg11]
    4291              DW$483  .dwtag  DW_TAG_assign_register, DW_AT_name("AR4")
    4292                      .dwattr DW$483, DW_AT_location[DW_OP_reg12]
    4293              DW$484  .dwtag  DW_TAG_assign_register, DW_AT_name("XAR4")
    4294                      .dwattr DW$484, DW_AT_location[DW_OP_reg13]
    4295              DW$485  .dwtag  DW_TAG_assign_register, DW_AT_name("AR5")
    4296                      .dwattr DW$485, DW_AT_location[DW_OP_reg14]
    4297              DW$486  .dwtag  DW_TAG_assign_register, DW_AT_name("XAR5")
    4298                      .dwattr DW$486, DW_AT_location[DW_OP_reg15]
    4299              DW$487  .dwtag  DW_TAG_assign_register, DW_AT_name("AR6")
    4300                      .dwattr DW$487, DW_AT_location[DW_OP_reg16]
TMS320C2000 COFF Assembler PC v4.1.3 Thu Nov 29 16:02:59 2012

Tools Copyright (c) 1996-2006 Texas Instruments Incorporated
C:\DOCUME~1\ADMINI~1\LOCALS~1\Temp\TI4002                            PAGE   88

    4301              DW$488  .dwtag  DW_TAG_assign_register, DW_AT_name("XAR6")
    4302                      .dwattr DW$488, DW_AT_location[DW_OP_reg17]
    4303              DW$489  .dwtag  DW_TAG_assign_register, DW_AT_name("AR7")
    4304                      .dwattr DW$489, DW_AT_location[DW_OP_reg18]
    4305              DW$490  .dwtag  DW_TAG_assign_register, DW_AT_name("XAR7")
    4306                      .dwattr DW$490, DW_AT_location[DW_OP_reg19]
    4307              DW$491  .dwtag  DW_TAG_assign_register, DW_AT_name("SP")
    4308                      .dwattr DW$491, DW_AT_location[DW_OP_reg20]
    4309              DW$492  .dwtag  DW_TAG_assign_register, DW_AT_name("XT")
    4310                      .dwattr DW$492, DW_AT_location[DW_OP_reg21]
    4311              DW$493  .dwtag  DW_TAG_assign_register, DW_AT_name("T")
    4312                      .dwattr DW$493, DW_AT_location[DW_OP_reg22]
    4313              DW$494  .dwtag  DW_TAG_assign_register, DW_AT_name("ST0")
    4314                      .dwattr DW$494, DW_AT_location[DW_OP_reg23]
    4315              DW$495  .dwtag  DW_TAG_assign_register, DW_AT_name("ST1")
    4316                      .dwattr DW$495, DW_AT_location[DW_OP_reg24]
    4317              DW$496  .dwtag  DW_TAG_assign_register, DW_AT_name("PC")
    4318                      .dwattr DW$496, DW_AT_location[DW_OP_reg25]
    4319              DW$497  .dwtag  DW_TAG_assign_register, DW_AT_name("RPC")
    4320                      .dwattr DW$497, DW_AT_location[DW_OP_reg26]
    4321              DW$498  .dwtag  DW_TAG_assign_register, DW_AT_name("FP")
    4322                      .dwattr DW$498, DW_AT_location[DW_OP_reg27]
    4323              DW$499  .dwtag  DW_TAG_assign_register, DW_AT_name("DP")
    4324                      .dwattr DW$499, DW_AT_location[DW_OP_reg28]
    4325              DW$500  .dwtag  DW_TAG_assign_register, DW_AT_name("SXM")
    4326                      .dwattr DW$500, DW_AT_location[DW_OP_reg29]
    4327              DW$501  .dwtag  DW_TAG_assign_register, DW_AT_name("PM")
    4328                      .dwattr DW$501, DW_AT_location[DW_OP_reg30]
    4329              DW$502  .dwtag  DW_TAG_assign_register, DW_AT_name("OVM")
    4330                      .dwattr DW$502, DW_AT_location[DW_OP_reg31]
    4331              DW$503  .dwtag  DW_TAG_assign_register, DW_AT_name("PAGE0")
    4332                      .dwattr DW$503, DW_AT_location[DW_OP_regx 0x20]
    4333              DW$504  .dwtag  DW_TAG_assign_register, DW_AT_name("AMODE")
    4334                      .dwattr DW$504, DW_AT_location[DW_OP_regx 0x21]
    4335              DW$505  .dwtag  DW_TAG_assign_register, DW_AT_name("IFR")
    4336                      .dwattr DW$505, DW_AT_location[DW_OP_regx 0x22]
    4337              DW$506  .dwtag  DW_TAG_assign_register, DW_AT_name("IER")
    4338                      .dwattr DW$506, DW_AT_location[DW_OP_regx 0x23]
    4339              DW$507  .dwtag  DW_TAG_assign_register, DW_AT_name("IER")
    4340                      .dwattr DW$507, DW_AT_location[DW_OP_regx 0x24]
    4341              DW$508  .dwtag  DW_TAG_assign_register, DW_AT_name("PSEUDO")
    4342                      .dwattr DW$508, DW_AT_location[DW_OP_regx 0x25]
    4343              DW$509  .dwtag  DW_TAG_assign_register, DW_AT_name("PSEUDOH")
    4344                      .dwattr DW$509, DW_AT_location[DW_OP_regx 0x26]
    4345              DW$510  .dwtag  DW_TAG_assign_register, DW_AT_name("VOL")
    4346                      .dwattr DW$510, DW_AT_location[DW_OP_regx 0x27]
    4347              DW$511  .dwtag  DW_TAG_assign_register, DW_AT_name("CIE_RETA")
    4348                      .dwattr DW$511, DW_AT_location[DW_OP_regx 0x28]
    4349                      .dwendtag DW$CU
    4350              

No Assembly Errors, No Assembly Warnings
