TMS320C2000 COFF Assembler PC v4.1.3 Wed Jan 12 08:12:08 2011

Tools Copyright (c) 1996-2006 Texas Instruments Incorporated
C:\DOCUME~1\ADMINI~1\LOCALS~1\Temp\TI3242                            PAGE    1

       1              ;***************************************************************
       2              ;* TMS320C2000 C/C++ Codegen                         PC v4.1.3 *
       3              ;* Date/Time created: Wed Jan 12 08:12:07 2011                 *
       4              ;***************************************************************
       5                      .compiler_opts --mem_model:code=flat --mem_model:data=large --silicon_version=28 
       6        0002  FP      .set    XAR2
       7              
       8              DW$CU   .dwtag  DW_TAG_compile_unit
       9                      .dwattr DW$CU, DW_AT_name("app_ERRmod_interface.c")
      10                      .dwattr DW$CU, DW_AT_producer("TMS320C2000 C/C++ Codegen PC v4.1.3 Copyright (c) 1996-2006 Texas Inst
      11                      .dwattr DW$CU, DW_AT_stmt_list(0x00)
      12                      .dwattr DW$CU, DW_AT_TI_VERSION(0x01)
      13              ;**************************************************************
      14              ;* CINIT RECORDS                                              *
      15              ;**************************************************************
      16 00000000               .sect   ".cinit"
      17                      .align  1
      18 00000000 FFFE          .field          -2,16
      19 00000001 0000-         .field          _m_correct_win+0,32
         00000002 0000 
      20 00000003 0000          .field          0,32                    ; _m_correct_win @ 0
         00000004 0000 
      21              
      22 00000005               .sect   ".cinit"
      23                      .align  1
      24 00000005 FFFE          .field          -2,16
      25 00000006 0002-         .field          _m_err_main_win+0,32
         00000007 0000 
      26 00000008 0000          .field          0,32                    ; _m_err_main_win @ 0
         00000009 0000 
      27              
      28 0000000a               .sect   ".cinit"
      29                      .align  1
      30 0000000a FFFE          .field          -2,16
      31 0000000b 0004-         .field          _m_correct_drop_list+0,32
         0000000c 0000 
      32 0000000d 0000          .field          0,32                    ; _m_correct_drop_list @ 0
         0000000e 0000 
      33              
      34 0000000f               .sect   ".cinit"
      35                      .align  1
      36 0000000f FFFE          .field          -2,16
      37 00000010 0006-         .field          _m_correct_edit+0,32
         00000011 0000 
      38 00000012 0000          .field          0,32                    ; _m_correct_edit @ 0
         00000013 0000 
      39              
      40 00000014               .sect   ".cinit"
      41                      .align  1
      42 00000014 FFFC          .field          -IR_1,16
      43 00000015 0008-         .field          _m_err_title+0,32
         00000016 0000 
      44 00000017 0000+         .field          FSL1,32         ; _m_err_title[0] @ 0
         00000018 0000 
      45 00000019 0012+         .field          FSL2,32         ; _m_err_title[1] @ 32
TMS320C2000 COFF Assembler PC v4.1.3 Wed Jan 12 08:12:08 2011

Tools Copyright (c) 1996-2006 Texas Instruments Incorporated
C:\DOCUME~1\ADMINI~1\LOCALS~1\Temp\TI3242                            PAGE    2

         0000001a 0000 
      46        0004  IR_1:   .set    4
      47              
      48 0000001b               .sect   ".cinit"
      49                      .align  1
      50 0000001b FFF0          .field          -IR_2,16
      51 0000001c 000C-         .field          _m_err_DLI_option+0,32
         0000001d 0000 
      52 0000001e 0018+         .field          FSL3,32         ; _m_err_DLI_option[0][0] @ 0
         0000001f 0000 
      53 00000020 0020+         .field          FSL4,32         ; _m_err_DLI_option[0][1] @ 32
         00000021 0000 
      54 00000022 0028+         .field          FSL5,32         ; _m_err_DLI_option[0][2] @ 64
         00000023 0000 
      55 00000024 0030+         .field          FSL6,32         ; _m_err_DLI_option[0][3] @ 96
         00000025 0000 
      56 00000026 0038+         .field          FSL7,32         ; _m_err_DLI_option[1][0] @ 128
         00000027 0000 
      57 00000028 003A+         .field          FSL8,32         ; _m_err_DLI_option[1][1] @ 160
         00000029 0000 
      58 0000002a 003E+         .field          FSL9,32         ; _m_err_DLI_option[1][2] @ 192
         0000002b 0000 
      59 0000002c 0042+         .field          FSL10,32                ; _m_err_DLI_option[1][3] @ 224
         0000002d 0000 
      60        0010  IR_2:   .set    16
      61              
      62 0000002e               .sect   ".cinit"
      63                      .align  1
      64 0000002e FFEC          .field          -IR_3,16
      65 0000002f 001C-         .field          _m_err_option+0,32
         00000030 0000 
      66 00000031 0046+         .field          FSL11,32                ; _m_err_option[0][0] @ 0
         00000032 0000 
      67 00000033 0050+         .field          FSL12,32                ; _m_err_option[0][1] @ 32
         00000034 0000 
      68 00000035 0052+         .field          FSL13,32                ; _m_err_option[1][0] @ 64
         00000036 0000 
      69 00000037 0050+         .field          FSL12,32                ; _m_err_option[1][1] @ 96
         00000038 0000 
      70 00000039 005C+         .field          FSL14,32                ; _m_err_option[2][0] @ 128
         0000003a 0000 
      71 0000003b 0050+         .field          FSL12,32                ; _m_err_option[2][1] @ 160
         0000003c 0000 
      72 0000003d 0066+         .field          FSL15,32                ; _m_err_option[3][0] @ 192
         0000003e 0000 
      73 0000003f 0050+         .field          FSL12,32                ; _m_err_option[3][1] @ 224
         00000040 0000 
      74 00000041 0070+         .field          FSL16,32                ; _m_err_option[4][0] @ 256
         00000042 0000 
      75 00000043 0050+         .field          FSL12,32                ; _m_err_option[4][1] @ 288
         00000044 0000 
      76        0014  IR_3:   .set    20
      77              
      78              
      79              DW$1    .dwtag  DW_TAG_subprogram, DW_AT_name("GUI_edit_string_display"), DW_AT_symbol_name("_GUI_edit_string
TMS320C2000 COFF Assembler PC v4.1.3 Wed Jan 12 08:12:08 2011

Tools Copyright (c) 1996-2006 Texas Instruments Incorporated
C:\DOCUME~1\ADMINI~1\LOCALS~1\Temp\TI3242                            PAGE    3

      80                      .dwattr DW$1, DW_AT_declaration(0x01)
      81                      .dwattr DW$1, DW_AT_external(0x01)
      82              DW$2    .dwtag  DW_TAG_formal_parameter, DW_AT_type(*DW$T$43)
      83                      .dwendtag DW$1
      84              
      85              
      86              DW$3    .dwtag  DW_TAG_subprogram, DW_AT_name("GUI_edit_clean"), DW_AT_symbol_name("_GUI_edit_clean")
      87                      .dwattr DW$3, DW_AT_declaration(0x01)
      88                      .dwattr DW$3, DW_AT_external(0x01)
      89              
      90              DW$4    .dwtag  DW_TAG_subprogram, DW_AT_name("GUI_edit_memeber_add"), DW_AT_symbol_name("_GUI_edit_memeber_a
      91                      .dwattr DW$4, DW_AT_declaration(0x01)
      92                      .dwattr DW$4, DW_AT_external(0x01)
      93              DW$5    .dwtag  DW_TAG_formal_parameter, DW_AT_type(*DW$T$11)
      94              DW$6    .dwtag  DW_TAG_formal_parameter, DW_AT_type(*DW$T$11)
      95              DW$7    .dwtag  DW_TAG_formal_parameter, DW_AT_type(*DW$T$19)
      96              DW$8    .dwtag  DW_TAG_formal_parameter, DW_AT_type(*DW$T$43)
      97              DW$9    .dwtag  DW_TAG_formal_parameter, DW_AT_type(*DW$T$19)
      98                      .dwendtag DW$4
      99              
     100              
     101              DW$10   .dwtag  DW_TAG_subprogram, DW_AT_name("GUI_string_display_At"), DW_AT_symbol_name("_GUI_string_displa
     102                      .dwattr DW$10, DW_AT_declaration(0x01)
     103                      .dwattr DW$10, DW_AT_external(0x01)
     104              DW$11   .dwtag  DW_TAG_formal_parameter, DW_AT_type(*DW$T$11)
     105              DW$12   .dwtag  DW_TAG_formal_parameter, DW_AT_type(*DW$T$11)
     106              DW$13   .dwtag  DW_TAG_formal_parameter, DW_AT_type(*DW$T$43)
     107                      .dwendtag DW$10
     108              
     109              
     110              DW$14   .dwtag  DW_TAG_subprogram, DW_AT_name("Gui_button_dye"), DW_AT_symbol_name("_Gui_button_dye")
     111                      .dwattr DW$14, DW_AT_declaration(0x01)
     112                      .dwattr DW$14, DW_AT_external(0x01)
     113              DW$15   .dwtag  DW_TAG_formal_parameter, DW_AT_type(*DW$T$38)
     114              DW$16   .dwtag  DW_TAG_formal_parameter, DW_AT_type(*DW$T$11)
     115              DW$17   .dwtag  DW_TAG_formal_parameter, DW_AT_type(*DW$T$11)
     116                      .dwendtag DW$14
     117              
     118              
     119              DW$18   .dwtag  DW_TAG_subprogram, DW_AT_name("GUI_set_Fgcolor"), DW_AT_symbol_name("_GUI_set_Fgcolor")
     120                      .dwattr DW$18, DW_AT_declaration(0x01)
     121                      .dwattr DW$18, DW_AT_external(0x01)
     122              DW$19   .dwtag  DW_TAG_formal_parameter, DW_AT_type(*DW$T$11)
     123                      .dwendtag DW$18
     124              
     125              
     126              DW$20   .dwtag  DW_TAG_subprogram, DW_AT_name("GUI_set_Bgcolor"), DW_AT_symbol_name("_GUI_set_Bgcolor")
     127                      .dwattr DW$20, DW_AT_declaration(0x01)
     128                      .dwattr DW$20, DW_AT_external(0x01)
     129              DW$21   .dwtag  DW_TAG_formal_parameter, DW_AT_type(*DW$T$11)
     130                      .dwendtag DW$20
     131              
     132              
     133              DW$22   .dwtag  DW_TAG_subprogram, DW_AT_name("app_free"), DW_AT_symbol_name("_app_free")
     134                      .dwattr DW$22, DW_AT_declaration(0x01)
TMS320C2000 COFF Assembler PC v4.1.3 Wed Jan 12 08:12:08 2011

Tools Copyright (c) 1996-2006 Texas Instruments Incorporated
C:\DOCUME~1\ADMINI~1\LOCALS~1\Temp\TI3242                            PAGE    4

     135                      .dwattr DW$22, DW_AT_external(0x01)
     136              DW$23   .dwtag  DW_TAG_formal_parameter, DW_AT_type(*DW$T$3)
     137                      .dwendtag DW$22
     138              
     139              
     140              DW$24   .dwtag  DW_TAG_subprogram, DW_AT_name("GUI_window_hwin_release"), DW_AT_symbol_name("_GUI_window_hwin
     141                      .dwattr DW$24, DW_AT_declaration(0x01)
     142                      .dwattr DW$24, DW_AT_external(0x01)
     143              DW$25   .dwtag  DW_TAG_formal_parameter, DW_AT_type(*DW$T$38)
     144                      .dwendtag DW$24
     145              
     146              
     147              DW$26   .dwtag  DW_TAG_subprogram, DW_AT_name("GUI_window_line_display"), DW_AT_symbol_name("_GUI_window_line
     148                      .dwattr DW$26, DW_AT_declaration(0x01)
     149                      .dwattr DW$26, DW_AT_external(0x01)
     150              DW$27   .dwtag  DW_TAG_formal_parameter, DW_AT_type(*DW$T$11)
     151              DW$28   .dwtag  DW_TAG_formal_parameter, DW_AT_type(*DW$T$11)
     152              DW$29   .dwtag  DW_TAG_formal_parameter, DW_AT_type(*DW$T$11)
     153              DW$30   .dwtag  DW_TAG_formal_parameter, DW_AT_type(*DW$T$11)
     154                      .dwendtag DW$26
     155              
     156              
     157              DW$31   .dwtag  DW_TAG_subprogram, DW_AT_name("GUI_window_hwin_req"), DW_AT_symbol_name("_GUI_window_hwin_req
     158                      .dwattr DW$31, DW_AT_declaration(0x01)
     159                      .dwattr DW$31, DW_AT_external(0x01)
     160              DW$32   .dwtag  DW_TAG_formal_parameter, DW_AT_type(*DW$T$38)
     161                      .dwendtag DW$31
     162              
     163              
     164              DW$33   .dwtag  DW_TAG_subprogram, DW_AT_name("GUI_window_destory"), DW_AT_symbol_name("_GUI_window_destory")
     165                      .dwattr DW$33, DW_AT_declaration(0x01)
     166                      .dwattr DW$33, DW_AT_external(0x01)
     167              DW$34   .dwtag  DW_TAG_formal_parameter, DW_AT_type(*DW$T$38)
     168                      .dwendtag DW$33
     169              
     170              
     171              DW$35   .dwtag  DW_TAG_subprogram, DW_AT_name("global_strcat"), DW_AT_symbol_name("_global_strcat")
     172                      .dwattr DW$35, DW_AT_type(*DW$T$10)
     173                      .dwattr DW$35, DW_AT_declaration(0x01)
     174                      .dwattr DW$35, DW_AT_external(0x01)
     175              
     176              DW$36   .dwtag  DW_TAG_subprogram, DW_AT_name("GUI_clean_screen"), DW_AT_symbol_name("_GUI_clean_screen")
     177                      .dwattr DW$36, DW_AT_type(*DW$T$10)
     178                      .dwattr DW$36, DW_AT_declaration(0x01)
     179                      .dwattr DW$36, DW_AT_external(0x01)
     180              
     181              DW$37   .dwtag  DW_TAG_subprogram, DW_AT_name("global_ftoa"), DW_AT_symbol_name("_global_ftoa")
     182                      .dwattr DW$37, DW_AT_type(*DW$T$19)
     183                      .dwattr DW$37, DW_AT_declaration(0x01)
     184                      .dwattr DW$37, DW_AT_external(0x01)
     185              DW$38   .dwtag  DW_TAG_formal_parameter, DW_AT_type(*DW$T$16)
     186              DW$39   .dwtag  DW_TAG_formal_parameter, DW_AT_type(*DW$T$43)
     187              DW$40   .dwtag  DW_TAG_formal_parameter, DW_AT_type(*DW$T$19)
     188                      .dwendtag DW$37
     189              
TMS320C2000 COFF Assembler PC v4.1.3 Wed Jan 12 08:12:08 2011

Tools Copyright (c) 1996-2006 Texas Instruments Incorporated
C:\DOCUME~1\ADMINI~1\LOCALS~1\Temp\TI3242                            PAGE    5

     190              
     191              DW$41   .dwtag  DW_TAG_subprogram, DW_AT_name("app_global_Ntokey"), DW_AT_symbol_name("_app_global_Ntokey")
     192                      .dwattr DW$41, DW_AT_type(*DW$T$6)
     193                      .dwattr DW$41, DW_AT_declaration(0x01)
     194                      .dwattr DW$41, DW_AT_external(0x01)
     195              DW$42   .dwtag  DW_TAG_formal_parameter, DW_AT_type(*DW$T$6)
     196                      .dwendtag DW$41
     197              
     198              
     199              DW$43   .dwtag  DW_TAG_subprogram, DW_AT_name("GUI_edit_select"), DW_AT_symbol_name("_GUI_edit_select")
     200                      .dwattr DW$43, DW_AT_type(*DW$T$59)
     201                      .dwattr DW$43, DW_AT_declaration(0x01)
     202                      .dwattr DW$43, DW_AT_external(0x01)
     203              DW$44   .dwtag  DW_TAG_formal_parameter, DW_AT_type(*DW$T$19)
     204                      .dwendtag DW$43
     205              
     206              
     207              DW$45   .dwtag  DW_TAG_subprogram, DW_AT_name("GUI_button_title_display"), DW_AT_symbol_name("_GUI_button_tit
     208                      .dwattr DW$45, DW_AT_type(*DW$T$59)
     209                      .dwattr DW$45, DW_AT_declaration(0x01)
     210                      .dwattr DW$45, DW_AT_external(0x01)
     211              DW$46   .dwtag  DW_TAG_formal_parameter, DW_AT_type(*DW$T$38)
     212              DW$47   .dwtag  DW_TAG_formal_parameter, DW_AT_type(*DW$T$43)
     213                      .dwendtag DW$45
     214              
     215              
     216              DW$48   .dwtag  DW_TAG_subprogram, DW_AT_name("global_itoa"), DW_AT_symbol_name("_global_itoa")
     217                      .dwattr DW$48, DW_AT_type(*DW$T$19)
     218                      .dwattr DW$48, DW_AT_declaration(0x01)
     219                      .dwattr DW$48, DW_AT_external(0x01)
     220              DW$49   .dwtag  DW_TAG_formal_parameter, DW_AT_type(*DW$T$10)
     221              DW$50   .dwtag  DW_TAG_formal_parameter, DW_AT_type(*DW$T$43)
     222                      .dwendtag DW$48
     223              
     224              DW$51   .dwtag  DW_TAG_variable, DW_AT_name("g_language"), DW_AT_symbol_name("_g_language")
     225                      .dwattr DW$51, DW_AT_type(*DW$T$25)
     226                      .dwattr DW$51, DW_AT_declaration(0x01)
     227                      .dwattr DW$51, DW_AT_external(0x01)
     228                      .global _m_correct_win
     229 00000000       _m_correct_win: .usect  ".ebss",2,1,1
     230              DW$52   .dwtag  DW_TAG_variable, DW_AT_name("m_correct_win"), DW_AT_symbol_name("_m_correct_win")
     231                      .dwattr DW$52, DW_AT_location[DW_OP_addr _m_correct_win]
     232                      .dwattr DW$52, DW_AT_type(*DW$T$38)
     233                      .dwattr DW$52, DW_AT_external(0x01)
     234                      .global _m_err_main_win
     235 00000002       _m_err_main_win:        .usect  ".ebss",2,1,1
     236              DW$53   .dwtag  DW_TAG_variable, DW_AT_name("m_err_main_win"), DW_AT_symbol_name("_m_err_main_win")
     237                      .dwattr DW$53, DW_AT_location[DW_OP_addr _m_err_main_win]
     238                      .dwattr DW$53, DW_AT_type(*DW$T$38)
     239                      .dwattr DW$53, DW_AT_external(0x01)
     240                      .global _m_correct_drop_list
     241 00000004       _m_correct_drop_list:   .usect  ".ebss",2,1,1
     242              DW$54   .dwtag  DW_TAG_variable, DW_AT_name("m_correct_drop_list"), DW_AT_symbol_name("_m_correct_drop_list")
     243                      .dwattr DW$54, DW_AT_location[DW_OP_addr _m_correct_drop_list]
     244                      .dwattr DW$54, DW_AT_type(*DW$T$38)
TMS320C2000 COFF Assembler PC v4.1.3 Wed Jan 12 08:12:08 2011

Tools Copyright (c) 1996-2006 Texas Instruments Incorporated
C:\DOCUME~1\ADMINI~1\LOCALS~1\Temp\TI3242                            PAGE    6

     245                      .dwattr DW$54, DW_AT_external(0x01)
     246                      .global _m_correct_edit
     247 00000006       _m_correct_edit:        .usect  ".ebss",2,1,1
     248              DW$55   .dwtag  DW_TAG_variable, DW_AT_name("m_correct_edit"), DW_AT_symbol_name("_m_correct_edit")
     249                      .dwattr DW$55, DW_AT_location[DW_OP_addr _m_correct_edit]
     250                      .dwattr DW$55, DW_AT_type(*DW$T$38)
     251                      .dwattr DW$55, DW_AT_external(0x01)
     252              
     253              DW$56   .dwtag  DW_TAG_subprogram, DW_AT_name("GUI_hwin_obtain"), DW_AT_symbol_name("_GUI_hwin_obtain")
     254                      .dwattr DW$56, DW_AT_type(*DW$T$38)
     255                      .dwattr DW$56, DW_AT_declaration(0x01)
     256                      .dwattr DW$56, DW_AT_external(0x01)
     257              
     258              DW$57   .dwtag  DW_TAG_subprogram, DW_AT_name("app_malloc"), DW_AT_symbol_name("_app_malloc")
     259                      .dwattr DW$57, DW_AT_type(*DW$T$3)
     260                      .dwattr DW$57, DW_AT_declaration(0x01)
     261                      .dwattr DW$57, DW_AT_external(0x01)
     262              DW$58   .dwtag  DW_TAG_formal_parameter, DW_AT_type(*DW$T$19)
     263                      .dwendtag DW$57
     264              
     265              
     266              DW$59   .dwtag  DW_TAG_subprogram, DW_AT_name("GUI_edit_creat"), DW_AT_symbol_name("_GUI_edit_creat")
     267                      .dwattr DW$59, DW_AT_type(*DW$T$38)
     268                      .dwattr DW$59, DW_AT_declaration(0x01)
     269                      .dwattr DW$59, DW_AT_external(0x01)
     270              DW$60   .dwtag  DW_TAG_formal_parameter, DW_AT_type(*DW$T$11)
     271              DW$61   .dwtag  DW_TAG_formal_parameter, DW_AT_type(*DW$T$11)
     272              DW$62   .dwtag  DW_TAG_formal_parameter, DW_AT_type(*DW$T$19)
     273              DW$63   .dwtag  DW_TAG_formal_parameter, DW_AT_type(*DW$T$19)
     274              DW$64   .dwtag  DW_TAG_formal_parameter, DW_AT_type(*DW$T$19)
     275              DW$65   .dwtag  DW_TAG_formal_parameter, DW_AT_type(*DW$T$38)
     276                      .dwendtag DW$59
     277              
     278              
     279              DW$66   .dwtag  DW_TAG_subprogram, DW_AT_name("Gui_3D_window_creat"), DW_AT_symbol_name("_Gui_3D_window_creat
     280                      .dwattr DW$66, DW_AT_type(*DW$T$38)
     281                      .dwattr DW$66, DW_AT_declaration(0x01)
     282                      .dwattr DW$66, DW_AT_external(0x01)
     283              DW$67   .dwtag  DW_TAG_formal_parameter, DW_AT_type(*DW$T$11)
     284              DW$68   .dwtag  DW_TAG_formal_parameter, DW_AT_type(*DW$T$11)
     285              DW$69   .dwtag  DW_TAG_formal_parameter, DW_AT_type(*DW$T$19)
     286              DW$70   .dwtag  DW_TAG_formal_parameter, DW_AT_type(*DW$T$19)
     287              DW$71   .dwtag  DW_TAG_formal_parameter, DW_AT_type(*DW$T$43)
     288              DW$72   .dwtag  DW_TAG_formal_parameter, DW_AT_type(*DW$T$19)
     289              DW$73   .dwtag  DW_TAG_formal_parameter, DW_AT_type(*DW$T$38)
     290                      .dwendtag DW$66
     291              
     292              
     293              DW$74   .dwtag  DW_TAG_subprogram, DW_AT_name("Gui_drop_list_creat"), DW_AT_symbol_name("_Gui_drop_list_creat
     294                      .dwattr DW$74, DW_AT_type(*DW$T$38)
     295                      .dwattr DW$74, DW_AT_declaration(0x01)
     296                      .dwattr DW$74, DW_AT_external(0x01)
     297              DW$75   .dwtag  DW_TAG_formal_parameter, DW_AT_type(*DW$T$11)
     298              DW$76   .dwtag  DW_TAG_formal_parameter, DW_AT_type(*DW$T$11)
     299              DW$77   .dwtag  DW_TAG_formal_parameter, DW_AT_type(*DW$T$31)
TMS320C2000 COFF Assembler PC v4.1.3 Wed Jan 12 08:12:08 2011

Tools Copyright (c) 1996-2006 Texas Instruments Incorporated
C:\DOCUME~1\ADMINI~1\LOCALS~1\Temp\TI3242                            PAGE    7

     300              DW$78   .dwtag  DW_TAG_formal_parameter, DW_AT_type(*DW$T$6)
     301              DW$79   .dwtag  DW_TAG_formal_parameter, DW_AT_type(*DW$T$38)
     302                      .dwendtag DW$74
     303              
     304              
     305              DW$80   .dwtag  DW_TAG_subprogram, DW_AT_name("Gui_button_creat"), DW_AT_symbol_name("_Gui_button_creat")
     306                      .dwattr DW$80, DW_AT_type(*DW$T$38)
     307                      .dwattr DW$80, DW_AT_declaration(0x01)
     308                      .dwattr DW$80, DW_AT_external(0x01)
     309              DW$81   .dwtag  DW_TAG_formal_parameter, DW_AT_type(*DW$T$11)
     310              DW$82   .dwtag  DW_TAG_formal_parameter, DW_AT_type(*DW$T$11)
     311              DW$83   .dwtag  DW_TAG_formal_parameter, DW_AT_type(*DW$T$19)
     312              DW$84   .dwtag  DW_TAG_formal_parameter, DW_AT_type(*DW$T$19)
     313              DW$85   .dwtag  DW_TAG_formal_parameter, DW_AT_type(*DW$T$19)
     314              DW$86   .dwtag  DW_TAG_formal_parameter, DW_AT_type(*DW$T$38)
     315                      .dwendtag DW$80
     316              
     317                      .global _m_err_title
     318 00000008       _m_err_title:   .usect  ".ebss",4,1,1
     319              DW$87   .dwtag  DW_TAG_variable, DW_AT_name("m_err_title"), DW_AT_symbol_name("_m_err_title")
     320                      .dwattr DW$87, DW_AT_location[DW_OP_addr _m_err_title]
     321                      .dwattr DW$87, DW_AT_type(*DW$T$70)
     322                      .dwattr DW$87, DW_AT_external(0x01)
     323                      .global _m_err_DLI_option
     324 0000000c       _m_err_DLI_option:      .usect  ".ebss",16,1,1
     325              DW$88   .dwtag  DW_TAG_variable, DW_AT_name("m_err_DLI_option"), DW_AT_symbol_name("_m_err_DLI_option")
     326                      .dwattr DW$88, DW_AT_location[DW_OP_addr _m_err_DLI_option]
     327                      .dwattr DW$88, DW_AT_type(*DW$T$74)
     328                      .dwattr DW$88, DW_AT_external(0x01)
     329                      .global _m_err_option
     330 0000001c       _m_err_option:  .usect  ".ebss",20,1,1
     331              DW$89   .dwtag  DW_TAG_variable, DW_AT_name("m_err_option"), DW_AT_symbol_name("_m_err_option")
     332                      .dwattr DW$89, DW_AT_location[DW_OP_addr _m_err_option]
     333                      .dwattr DW$89, DW_AT_type(*DW$T$71)
     334                      .dwattr DW$89, DW_AT_external(0x01)
     335              ;       C:\CCStudio_v3.3\C2000\cgtools\bin\ac2000.exe -@C:\DOCUME~1\ADMINI~1\LOCALS~1\Temp\TI3244 
     336 00000000               .sect   ".text"
     337                      .global _app_ERRmod_edit_fdisplay
     338              
     339              DW$90   .dwtag  DW_TAG_subprogram, DW_AT_name("app_ERRmod_edit_fdisplay"), DW_AT_symbol_name("_app_ERRmod_edi
     340                      .dwattr DW$90, DW_AT_low_pc(_app_ERRmod_edit_fdisplay)
     341                      .dwattr DW$90, DW_AT_high_pc(0x00)
     342                      .dwattr DW$90, DW_AT_begin_file("app_ERRmod_interface.c")
     343                      .dwattr DW$90, DW_AT_begin_line(0x27)
     344                      .dwattr DW$90, DW_AT_begin_column(0x06)
     345                      .dwpsn  "app_ERRmod_interface.c",40,1
     346              
     347                      .dwfde DW$CIE
     348              
     349              ;***************************************************************
     350              ;* FNAME: _app_ERRmod_edit_fdisplay     FR SIZE:  10           *
     351              ;*                                                             *
     352              ;* FUNCTION ENVIRONMENT                                        *
     353              ;*                                                             *
     354              ;* FUNCTION PROPERTIES                                         *
TMS320C2000 COFF Assembler PC v4.1.3 Wed Jan 12 08:12:08 2011

Tools Copyright (c) 1996-2006 Texas Instruments Incorporated
C:\DOCUME~1\ADMINI~1\LOCALS~1\Temp\TI3242                            PAGE    8

     355              ;*                            2 Parameter,  8 Auto,  0 SOE     *
     356              ;***************************************************************
     357              
     358              _app_ERRmod_edit_fdisplay:
     359                      .dwcfa  0x1d, -2
     360                      .dwcfa  0x1c, 26, 0
     361                      .dwcfa  0x09, 40, 26
     362 00000000 FE0A          ADDB      SP,#10
     363                      .dwcfa  0x1d, -12
     364              ;* AR4   assigned to _id
     365              DW$91   .dwtag  DW_TAG_formal_parameter, DW_AT_name("id"), DW_AT_symbol_name("_id")
     366                      .dwattr DW$91, DW_AT_type(*DW$T$19)
     367                      .dwattr DW$91, DW_AT_location[DW_OP_reg12]
     368              ;* AL    assigned to _data
     369              DW$92   .dwtag  DW_TAG_formal_parameter, DW_AT_name("data"), DW_AT_symbol_name("_data")
     370                      .dwattr DW$92, DW_AT_type(*DW$T$16)
     371                      .dwattr DW$92, DW_AT_location[DW_OP_reg0]
     372              ;* AR5   assigned to _bit
     373              DW$93   .dwtag  DW_TAG_formal_parameter, DW_AT_name("bit"), DW_AT_symbol_name("_bit")
     374                      .dwattr DW$93, DW_AT_type(*DW$T$19)
     375                      .dwattr DW$93, DW_AT_location[DW_OP_reg14]
     376              DW$94   .dwtag  DW_TAG_variable, DW_AT_name("id"), DW_AT_symbol_name("_id")
     377                      .dwattr DW$94, DW_AT_type(*DW$T$19)
     378                      .dwattr DW$94, DW_AT_location[DW_OP_breg20 -3]
     379              DW$95   .dwtag  DW_TAG_variable, DW_AT_name("data"), DW_AT_symbol_name("_data")
     380                      .dwattr DW$95, DW_AT_type(*DW$T$16)
     381                      .dwattr DW$95, DW_AT_location[DW_OP_breg20 -6]
     382              DW$96   .dwtag  DW_TAG_variable, DW_AT_name("bit"), DW_AT_symbol_name("_bit")
     383                      .dwattr DW$96, DW_AT_type(*DW$T$19)
     384                      .dwattr DW$96, DW_AT_location[DW_OP_breg20 -7]
     385              DW$97   .dwtag  DW_TAG_variable, DW_AT_name("pst"), DW_AT_symbol_name("_pst")
     386                      .dwattr DW$97, DW_AT_type(*DW$T$43)
     387                      .dwattr DW$97, DW_AT_location[DW_OP_breg20 -10]
     388 00000001 7D47          MOV       *-SP[7],AR5           ; |40| 
     389 00000002 1E46          MOVL      *-SP[6],ACC           ; |40| 
     390 00000003 7C43          MOV       *-SP[3],AR4           ; |40| 
     391                      .dwpsn  "app_ERRmod_interface.c",42,2
     392 00000004 9243          MOV       AL,*-SP[3]            ; |42| 
     393 00000005 7640!         LCR       #_GUI_edit_select     ; |42| 
         00000006 0000 
     394                      ; call occurs [#_GUI_edit_select] ; |42| 
     395                      .dwpsn  "app_ERRmod_interface.c",43,2
     396 00000007 9A00          MOV       AL,#0
     397 00000008 9B00          MOV       AH,#0
     398 00000009 1E42          MOVL      *-SP[2],ACC           ; |43| 
     399 0000000a 0646          MOVL      ACC,*-SP[6]           ; |43| 
     400 0000000b 7640!         LCR       #FS$$CMP              ; |43| 
         0000000c 0000 
     401                      ; call occurs [#FS$$CMP] ; |43| 
     402 0000000d 5200          CMPB      AL,#0                 ; |43| 
     403 0000000e 6503          B         L1,LEQ                ; |43| 
     404                      ; branchcc occurs ; |43| 
     405 0000000f C446          MOVL      XAR6,*-SP[6]          ; |43| 
     406 00000010 6F05          B         L2,UNC                ; |43| 
     407                      ; branch occurs ; |43| 
TMS320C2000 COFF Assembler PC v4.1.3 Wed Jan 12 08:12:08 2011

Tools Copyright (c) 1996-2006 Texas Instruments Incorporated
C:\DOCUME~1\ADMINI~1\LOCALS~1\Temp\TI3242                            PAGE    9

     408 00000011       L1:    
     409 00000011 0646          MOVL      ACC,*-SP[6]           ; |43| 
     410 00000012 7640!         LCR       #FS$$NEG              ; |43| 
         00000013 0000 
     411                      ; call occurs [#FS$$NEG] ; |43| 
     412 00000014 1EA6          MOVL      XAR6,ACC              ; |43| 
     413 00000015       L2:    
     414 00000015 28A9          MOV       AL,#55050
         00000016 D70A 
     415 00000017 28A8          MOV       AH,#15395
         00000018 3C23 
     416 00000019 1E42          MOVL      *-SP[2],ACC           ; |43| 
     417 0000001a 06A6          MOVL      ACC,XAR6              ; |43| 
     418 0000001b 7640!         LCR       #FS$$CMP              ; |43| 
         0000001c 0000 
     419                      ; call occurs [#FS$$CMP] ; |43| 
     420 0000001d 5200          CMPB      AL,#0                 ; |43| 
     421 0000001e 652A          B         L5,LEQ                ; |43| 
     422                      ; branchcc occurs ; |43| 
     423 0000001f 9A00          MOV       AL,#0
     424 00000020 9B00          MOV       AH,#0
     425 00000021 1E42          MOVL      *-SP[2],ACC           ; |43| 
     426 00000022 0646          MOVL      ACC,*-SP[6]           ; |43| 
     427 00000023 7640!         LCR       #FS$$CMP              ; |43| 
         00000024 0000 
     428                      ; call occurs [#FS$$CMP] ; |43| 
     429 00000025 5200          CMPB      AL,#0                 ; |43| 
     430 00000026 6503          B         L3,LEQ                ; |43| 
     431                      ; branchcc occurs ; |43| 
     432 00000027 C446          MOVL      XAR6,*-SP[6]          ; |43| 
     433 00000028 6F05          B         L4,UNC                ; |43| 
     434                      ; branch occurs ; |43| 
     435 00000029       L3:    
     436 00000029 0646          MOVL      ACC,*-SP[6]           ; |43| 
     437 0000002a 7640!         LCR       #FS$$NEG              ; |43| 
         0000002b 0000 
     438                      ; call occurs [#FS$$NEG] ; |43| 
     439 0000002c 1EA6          MOVL      XAR6,ACC              ; |43| 
     440 0000002d       L4:    
     441 0000002d 28A9          MOV       AL,#20480
         0000002e 5000 
     442 0000002f 28A8          MOV       AH,#18371
         00000030 47C3 
     443 00000031 1E42          MOVL      *-SP[2],ACC           ; |43| 
     444 00000032 06A6          MOVL      ACC,XAR6              ; |43| 
     445 00000033 7640!         LCR       #FS$$CMP              ; |43| 
         00000034 0000 
     446                      ; call occurs [#FS$$CMP] ; |43| 
     447 00000035 5200          CMPB      AL,#0                 ; |43| 
     448 00000036 6312          B         L5,GEQ                ; |43| 
     449                      ; branchcc occurs ; |43| 
     450                      .dwpsn  "app_ERRmod_interface.c",46,3
     451 00000037 9A14          MOVB      AL,#20                ; |46| 
     452 00000038 7640!         LCR       #_app_malloc          ; |46| 
         00000039 0000 
TMS320C2000 COFF Assembler PC v4.1.3 Wed Jan 12 08:12:08 2011

Tools Copyright (c) 1996-2006 Texas Instruments Incorporated
C:\DOCUME~1\ADMINI~1\LOCALS~1\Temp\TI3242                            PAGE   10

     453                      ; call occurs [#_app_malloc] ; |46| 
     454 0000003a A84A          MOVL      *-SP[10],XAR4         ; |46| 
     455                      .dwpsn  "app_ERRmod_interface.c",47,3
     456 0000003b 5D47          MOVZ      AR5,*-SP[7]           ; |47| 
     457 0000003c 8A4A          MOVL      XAR4,*-SP[10]         ; |47| 
     458 0000003d 0646          MOVL      ACC,*-SP[6]           ; |47| 
     459 0000003e 7640!         LCR       #_global_ftoa         ; |47| 
         0000003f 0000 
     460                      ; call occurs [#_global_ftoa] ; |47| 
     461                      .dwpsn  "app_ERRmod_interface.c",48,3
     462 00000040 7640!         LCR       #_GUI_edit_clean      ; |48| 
         00000041 0000 
     463                      ; call occurs [#_GUI_edit_clean] ; |48| 
     464                      .dwpsn  "app_ERRmod_interface.c",49,3
     465 00000042 8A4A          MOVL      XAR4,*-SP[10]         ; |49| 
     466 00000043 7640!         LCR       #_GUI_edit_string_display ; |49| 
         00000044 0000 
     467                      ; call occurs [#_GUI_edit_string_display] ; |49| 
     468                      .dwpsn  "app_ERRmod_interface.c",50,3
     469 00000045 8A4A          MOVL      XAR4,*-SP[10]         ; |50| 
     470 00000046 7640!         LCR       #_app_free            ; |50| 
         00000047 0000 
     471                      ; call occurs [#_app_free] ; |50| 
     472                      .dwpsn  "app_ERRmod_interface.c",52,2
     473              L5:    
     474                      .dwpsn  "app_ERRmod_interface.c",53,1
     475 00000048 FE8A          SUBB      SP,#10
     476                      .dwcfa  0x1d, -2
     477 00000049 0006          LRETR
     478                      ; return occurs
     479                      .dwattr DW$90, DW_AT_end_file("app_ERRmod_interface.c")
     480                      .dwattr DW$90, DW_AT_end_line(0x35)
     481                      .dwattr DW$90, DW_AT_end_column(0x01)
     482                      .dwendentry
     483                      .dwendtag DW$90
     484              
     485 0000004a               .sect   ".text"
     486                      .global _app_ERRmod_Ucorrect_window_creat
     487              
     488              DW$98   .dwtag  DW_TAG_subprogram, DW_AT_name("app_ERRmod_Ucorrect_window_creat"), DW_AT_symbol_name("_app_ER
     489                      .dwattr DW$98, DW_AT_low_pc(_app_ERRmod_Ucorrect_window_creat)
     490                      .dwattr DW$98, DW_AT_high_pc(0x00)
     491                      .dwattr DW$98, DW_AT_begin_file("app_ERRmod_interface.c")
     492                      .dwattr DW$98, DW_AT_begin_line(0x3c)
     493                      .dwattr DW$98, DW_AT_begin_column(0x06)
     494                      .dwpsn  "app_ERRmod_interface.c",61,1
     495              
     496                      .dwfde DW$CIE
     497              
     498              ;***************************************************************
     499              ;* FNAME: _app_ERRmod_Ucorrect_window_creat FR SIZE:   6           *
     500              ;*                                                             *
     501              ;* FUNCTION ENVIRONMENT                                        *
     502              ;*                                                             *
     503              ;* FUNCTION PROPERTIES                                         *
TMS320C2000 COFF Assembler PC v4.1.3 Wed Jan 12 08:12:08 2011

Tools Copyright (c) 1996-2006 Texas Instruments Incorporated
C:\DOCUME~1\ADMINI~1\LOCALS~1\Temp\TI3242                            PAGE   11

     504              ;*                            3 Parameter,  3 Auto,  0 SOE     *
     505              ;***************************************************************
     506              
     507              _app_ERRmod_Ucorrect_window_creat:
     508                      .dwcfa  0x1d, -2
     509                      .dwcfa  0x1c, 26, 0
     510                      .dwcfa  0x09, 40, 26
     511 0000004a FE06          ADDB      SP,#6
     512                      .dwcfa  0x1d, -8
     513              ;* AL    assigned to _offset
     514              DW$99   .dwtag  DW_TAG_formal_parameter, DW_AT_name("offset"), DW_AT_symbol_name("_offset")
     515                      .dwattr DW$99, DW_AT_type(*DW$T$6)
     516                      .dwattr DW$99, DW_AT_location[DW_OP_reg0]
     517              DW$100  .dwtag  DW_TAG_variable, DW_AT_name("offset"), DW_AT_symbol_name("_offset")
     518                      .dwattr DW$100, DW_AT_type(*DW$T$6)
     519                      .dwattr DW$100, DW_AT_location[DW_OP_breg20 -4]
     520              DW$101  .dwtag  DW_TAG_variable, DW_AT_name("hp"), DW_AT_symbol_name("_hp")
     521                      .dwattr DW$101, DW_AT_type(*DW$T$38)
     522                      .dwattr DW$101, DW_AT_location[DW_OP_breg20 -6]
     523 0000004b 9644          MOV       *-SP[4],AL            ; |61| 
     524                      .dwpsn  "app_ERRmod_interface.c",63,2
     525 0000004c 9A03          MOVB      AL,#3                 ; |63| 
     526 0000004d 7640!         LCR       #_GUI_set_Bgcolor     ; |63| 
         0000004e 0000 
     527                      ; call occurs [#_GUI_set_Bgcolor] ; |63| 
     528                      .dwpsn  "app_ERRmod_interface.c",64,2
     529 0000004f 7640!         LCR       #_GUI_clean_screen    ; |64| 
         00000050 0000 
     530                      ; call occurs [#_GUI_clean_screen] ; |64| 
     531                      .dwpsn  "app_ERRmod_interface.c",65,2
     532 00000051 9A0A          MOVB      AL,#10                ; |65| 
     533 00000052 7640!         LCR       #_GUI_set_Bgcolor     ; |65| 
         00000053 0000 
     534                      ; call occurs [#_GUI_set_Bgcolor] ; |65| 
     535                      .dwpsn  "app_ERRmod_interface.c",66,2
     536 00000054 9AFF          MOVB      AL,#255               ; |66| 
     537 00000055 7640!         LCR       #_GUI_set_Fgcolor     ; |66| 
         00000056 0000 
     538                      ; call occurs [#_GUI_set_Fgcolor] ; |66| 
     539                      .dwpsn  "app_ERRmod_interface.c",67,2
     540 00000057 7640!         LCR       #_GUI_hwin_obtain     ; |67| 
         00000058 0000 
     541                      ; call occurs [#_GUI_hwin_obtain] ; |67| 
     542 00000059 2841          MOV       *-SP[1],#295          ; |67| 
         0000005a 0127 
     543 0000005b 2842          MOV       *-SP[2],#220          ; |67| 
         0000005c 00DC 
     544 0000005d 2843          MOV       *-SP[3],#1536         ; |67| 
         0000005e 0600 
     545 0000005f 83A4          MOVL      XAR5,XAR4             ; |67| 
     546 00000060 0E44          MOVU      ACC,*-SP[4]
     547 00000061 8F00-         MOVL      XAR4,#_m_err_option   ; |67| 
         00000062 001C 
     548 00000063 FF31          LSL       ACC,2                 ; |67| 
     549 00000064 5601          ADDL      XAR4,ACC
TMS320C2000 COFF Assembler PC v4.1.3 Wed Jan 12 08:12:08 2011

Tools Copyright (c) 1996-2006 Texas Instruments Incorporated
C:\DOCUME~1\ADMINI~1\LOCALS~1\Temp\TI3242                            PAGE   12

         00000065 00A4 
     550 00000066 3B01          SETC      SXM
     551 00000067 761F!         MOVW      DP,#_g_language
         00000068 0000 
     552 00000069 5603!         MOV       ACC,@_g_language << 1 ; |67| 
         0000006a 0100 
     553 0000006b 5601          ADDL      XAR4,ACC
         0000006c 00A4 
     554 0000006d 8AC4          MOVL      XAR4,*+XAR4[0]        ; |67| 
     555 0000006e 9A0A          MOVB      AL,#10                ; |67| 
     556 0000006f 9B05          MOVB      AH,#5                 ; |67| 
     557 00000070 7640!         LCR       #_Gui_3D_window_creat ; |67| 
         00000071 0000 
     558                      ; call occurs [#_Gui_3D_window_creat] ; |67| 
     559 00000072 761F-         MOVW      DP,#_m_correct_win
         00000073 0000 
     560 00000074 A800-         MOVL      @_m_correct_win,XAR4  ; |67| 
     561                      .dwpsn  "app_ERRmod_interface.c",69,2
     562 00000075 8A00-         MOVL      XAR4,@_m_correct_win  ; |69| 
     563 00000076 7640!         LCR       #_GUI_window_hwin_req ; |69| 
         00000077 0000 
     564                      ; call occurs [#_GUI_window_hwin_req] ; |69| 
     565                      .dwpsn  "app_ERRmod_interface.c",70,2
     566 00000078 9A00          MOVB      AL,#0
     567 00000079 8F00          MOVL      XAR4,#292             ; |70| 
         0000007a 0124 
     568 0000007b D528          MOVB      XAR5,#40              ; |70| 
     569 0000007c 9B28          MOVB      AH,#40                ; |70| 
     570 0000007d 7640!         LCR       #_GUI_window_line_display ; |70| 
         0000007e 0000 
     571                      ; call occurs [#_GUI_window_line_display] ; |70| 
     572                      .dwpsn  "app_ERRmod_interface.c",71,2
     573 0000007f 761F-         MOVW      DP,#_m_correct_win
         00000080 0000 
     574 00000081 2841          MOV       *-SP[1],#195          ; |71| 
         00000082 00C3 
     575 00000083 9A0A          MOVB      AL,#10                ; |71| 
     576 00000084 8F40          MOVL      XAR5,#290             ; |71| 
         00000085 0122 
     577 00000086 8A00-         MOVL      XAR4,@_m_correct_win  ; |71| 
     578 00000087 2B42          MOV       *-SP[2],#0            ; |71| 
     579 00000088 9B05          MOVB      AH,#5                 ; |71| 
     580 00000089 7640!         LCR       #_GUI_edit_creat      ; |71| 
         0000008a 0000 
     581                      ; call occurs [#_GUI_edit_creat] ; |71| 
     582 0000008b 761F-         MOVW      DP,#_m_correct_edit
         0000008c 0000 
     583 0000008d A806-         MOVL      @_m_correct_edit,XAR4 ; |71| 
     584                      .dwpsn  "app_ERRmod_interface.c",73,2
     585 0000008e 8A06-         MOVL      XAR4,@_m_correct_edit ; |73| 
     586 0000008f 7640!         LCR       #_GUI_window_hwin_req ; |73| 
         00000090 0000 
     587                      ; call occurs [#_GUI_window_hwin_req] ; |73| 
     588                      .dwpsn  "app_ERRmod_interface.c",74,2
     589 00000091 2841          MOV       *-SP[1],#513          ; |74| 
TMS320C2000 COFF Assembler PC v4.1.3 Wed Jan 12 08:12:08 2011

Tools Copyright (c) 1996-2006 Texas Instruments Incorporated
C:\DOCUME~1\ADMINI~1\LOCALS~1\Temp\TI3242                            PAGE   13

         00000092 0201 
     590 00000093 D508          MOVB      XAR5,#8               ; |74| 
     591 00000094 8F00+         MOVL      XAR4,#FSL17           ; |74| 
         00000095 007C 
     592 00000096 0200          MOVB      ACC,#0
     593 00000097 7640!         LCR       #_GUI_edit_memeber_add ; |74| 
         00000098 0000 
     594                      ; call occurs [#_GUI_edit_memeber_add] ; |74| 
     595                      .dwpsn  "app_ERRmod_interface.c",75,2
     596 00000099 9AA2          MOVB      AL,#162               ; |75| 
     597 0000009a 8F00+         MOVL      XAR4,#FSL18           ; |75| 
         0000009b 0088 
     598 0000009c 9B02          MOVB      AH,#2                 ; |75| 
     599 0000009d 7640!         LCR       #_GUI_string_display_At ; |75| 
         0000009e 0000 
     600                      ; call occurs [#_GUI_string_display_At] ; |75| 
     601                      .dwpsn  "app_ERRmod_interface.c",76,2
     602 0000009f 9AFC          MOVB      AL,#252               ; |76| 
     603 000000a0 7640!         LCR       #_GUI_set_Fgcolor     ; |76| 
         000000a1 0000 
     604                      ; call occurs [#_GUI_set_Fgcolor] ; |76| 
     605                      .dwpsn  "app_ERRmod_interface.c",77,2
     606 000000a2 9A00          MOVB      AL,#0
     607 000000a3 2841          MOV       *-SP[1],#514          ; |77| 
         000000a4 0202 
     608 000000a5 D506          MOVB      XAR5,#6               ; |77| 
     609 000000a6 8F00+         MOVL      XAR4,#FSL19           ; |77| 
         000000a7 008C 
     610 000000a8 9B32          MOVB      AH,#50                ; |77| 
     611 000000a9 7640!         LCR       #_GUI_edit_memeber_add ; |77| 
         000000aa 0000 
     612                      ; call occurs [#_GUI_edit_memeber_add] ; |77| 
     613                      .dwpsn  "app_ERRmod_interface.c",78,2
     614 000000ab 9AB0          MOVB      AL,#176               ; |78| 
     615 000000ac 2841          MOV       *-SP[1],#515          ; |78| 
         000000ad 0203 
     616 000000ae D506          MOVB      XAR5,#6               ; |78| 
     617 000000af 8F00+         MOVL      XAR4,#FSL20           ; |78| 
         000000b0 0098 
     618 000000b1 9B32          MOVB      AH,#50                ; |78| 
     619 000000b2 7640!         LCR       #_GUI_edit_memeber_add ; |78| 
         000000b3 0000 
     620                      ; call occurs [#_GUI_edit_memeber_add] ; |78| 
     621                      .dwpsn  "app_ERRmod_interface.c",79,2
     622 000000b4 9A1C          MOVB      AL,#28                ; |79| 
     623 000000b5 7640!         LCR       #_GUI_set_Fgcolor     ; |79| 
         000000b6 0000 
     624                      ; call occurs [#_GUI_set_Fgcolor] ; |79| 
     625                      .dwpsn  "app_ERRmod_interface.c",80,2
     626 000000b7 9A00          MOVB      AL,#0
     627 000000b8 2841          MOV       *-SP[1],#516          ; |80| 
         000000b9 0204 
     628 000000ba D506          MOVB      XAR5,#6               ; |80| 
     629 000000bb 8F00+         MOVL      XAR4,#FSL21           ; |80| 
         000000bc 009E 
TMS320C2000 COFF Assembler PC v4.1.3 Wed Jan 12 08:12:08 2011

Tools Copyright (c) 1996-2006 Texas Instruments Incorporated
C:\DOCUME~1\ADMINI~1\LOCALS~1\Temp\TI3242                            PAGE   14

     630 000000bd 9B50          MOVB      AH,#80                ; |80| 
     631 000000be 7640!         LCR       #_GUI_edit_memeber_add ; |80| 
         000000bf 0000 
     632                      ; call occurs [#_GUI_edit_memeber_add] ; |80| 
     633                      .dwpsn  "app_ERRmod_interface.c",81,2
     634 000000c0 9AB0          MOVB      AL,#176               ; |81| 
     635 000000c1 2841          MOV       *-SP[1],#517          ; |81| 
         000000c2 0205 
     636 000000c3 D506          MOVB      XAR5,#6               ; |81| 
     637 000000c4 8F00+         MOVL      XAR4,#FSL20           ; |81| 
         000000c5 0098 
     638 000000c6 9B50          MOVB      AH,#80                ; |81| 
     639 000000c7 7640!         LCR       #_GUI_edit_memeber_add ; |81| 
         000000c8 0000 
     640                      ; call occurs [#_GUI_edit_memeber_add] ; |81| 
     641                      .dwpsn  "app_ERRmod_interface.c",82,2
     642 000000c9 9AE0          MOVB      AL,#224               ; |82| 
     643 000000ca 7640!         LCR       #_GUI_set_Fgcolor     ; |82| 
         000000cb 0000 
     644                      ; call occurs [#_GUI_set_Fgcolor] ; |82| 
     645                      .dwpsn  "app_ERRmod_interface.c",83,2
     646 000000cc 9A00          MOVB      AL,#0
     647 000000cd 2841          MOV       *-SP[1],#518          ; |83| 
         000000ce 0206 
     648 000000cf D506          MOVB      XAR5,#6               ; |83| 
     649 000000d0 8F00+         MOVL      XAR4,#FSL22           ; |83| 
         000000d1 00AA 
     650 000000d2 9B6E          MOVB      AH,#110               ; |83| 
     651 000000d3 7640!         LCR       #_GUI_edit_memeber_add ; |83| 
         000000d4 0000 
     652                      ; call occurs [#_GUI_edit_memeber_add] ; |83| 
     653                      .dwpsn  "app_ERRmod_interface.c",84,2
     654 000000d5 9AB0          MOVB      AL,#176               ; |84| 
     655 000000d6 2841          MOV       *-SP[1],#519          ; |84| 
         000000d7 0207 
     656 000000d8 D506          MOVB      XAR5,#6               ; |84| 
     657 000000d9 8F00+         MOVL      XAR4,#FSL20           ; |84| 
         000000da 0098 
     658 000000db 9B6E          MOVB      AH,#110               ; |84| 
     659 000000dc 7640!         LCR       #_GUI_edit_memeber_add ; |84| 
         000000dd 0000 
     660                      ; call occurs [#_GUI_edit_memeber_add] ; |84| 
     661                      .dwpsn  "app_ERRmod_interface.c",85,2
     662 000000de 9AFF          MOVB      AL,#255               ; |85| 
     663 000000df 7640!         LCR       #_GUI_set_Fgcolor     ; |85| 
         000000e0 0000 
     664                      ; call occurs [#_GUI_set_Fgcolor] ; |85| 
     665                      .dwpsn  "app_ERRmod_interface.c",86,2
     666 000000e1 9A92          MOVB      AL,#146               ; |86| 
     667 000000e2 8F00+         MOVL      XAR4,#FSL18           ; |86| 
         000000e3 0088 
     668 000000e4 9B34          MOVB      AH,#52                ; |86| 
     669 000000e5 7640!         LCR       #_GUI_string_display_At ; |86| 
         000000e6 0000 
     670                      ; call occurs [#_GUI_string_display_At] ; |86| 
TMS320C2000 COFF Assembler PC v4.1.3 Wed Jan 12 08:12:08 2011

Tools Copyright (c) 1996-2006 Texas Instruments Incorporated
C:\DOCUME~1\ADMINI~1\LOCALS~1\Temp\TI3242                            PAGE   15

     671                      .dwpsn  "app_ERRmod_interface.c",87,2
     672 000000e7 9A92          MOVB      AL,#146               ; |87| 
     673 000000e8 8F00+         MOVL      XAR4,#FSL18           ; |87| 
         000000e9 0088 
     674 000000ea 9B52          MOVB      AH,#82                ; |87| 
     675 000000eb 7640!         LCR       #_GUI_string_display_At ; |87| 
         000000ec 0000 
     676                      ; call occurs [#_GUI_string_display_At] ; |87| 
     677                      .dwpsn  "app_ERRmod_interface.c",88,2
     678 000000ed 9A92          MOVB      AL,#146               ; |88| 
     679 000000ee 8F00+         MOVL      XAR4,#FSL18           ; |88| 
         000000ef 0088 
     680 000000f0 9B70          MOVB      AH,#112               ; |88| 
     681 000000f1 7640!         LCR       #_GUI_string_display_At ; |88| 
         000000f2 0000 
     682                      ; call occurs [#_GUI_string_display_At] ; |88| 
     683                      .dwpsn  "app_ERRmod_interface.c",89,2
     684 000000f3 761F-         MOVW      DP,#_m_correct_edit
         000000f4 0000 
     685 000000f5 8A06-         MOVL      XAR4,@_m_correct_edit ; |89| 
     686 000000f6 7640!         LCR       #_GUI_window_hwin_release ; |89| 
         000000f7 0000 
     687                      ; call occurs [#_GUI_window_hwin_release] ; |89| 
     688                      .dwpsn  "app_ERRmod_interface.c",90,2
     689 000000f8 2841          MOV       *-SP[1],#25           ; |90| 
         000000f9 0019 
     690 000000fa 761F-         MOVW      DP,#_m_correct_win
         000000fb 0000 
     691 000000fc 9ADC          MOVB      AL,#220               ; |90| 
     692 000000fd 2842          MOV       *-SP[2],#284          ; |90| 
         000000fe 011C 
     693 000000ff 8A00-         MOVL      XAR4,@_m_correct_win  ; |90| 
     694 00000100 D53C          MOVB      XAR5,#60              ; |90| 
     695 00000101 9BA5          MOVB      AH,#165               ; |90| 
     696 00000102 7640!         LCR       #_Gui_button_creat    ; |90| 
         00000103 0000 
     697                      ; call occurs [#_Gui_button_creat] ; |90| 
     698 00000104 A846          MOVL      *-SP[6],XAR4          ; |90| 
     699                      .dwpsn  "app_ERRmod_interface.c",91,2
     700 00000105 8A46          MOVL      XAR4,*-SP[6]          ; |91| 
     701 00000106 020E          MOVB      ACC,#14
     702 00000107 7640!         LCR       #_Gui_button_dye      ; |91| 
         00000108 0000 
     703                      ; call occurs [#_Gui_button_dye] ; |91| 
     704                      .dwpsn  "app_ERRmod_interface.c",92,2
     705 00000109 8A46          MOVL      XAR4,*-SP[6]          ; |92| 
     706 0000010a 8F40+         MOVL      XAR5,#FSL23           ; |92| 
         0000010b 00B6 
     707 0000010c 7640!         LCR       #_GUI_button_title_display ; |92| 
         0000010d 0000 
     708                      ; call occurs [#_GUI_button_title_display] ; |92| 
     709                      .dwpsn  "app_ERRmod_interface.c",93,2
     710 0000010e 761F-         MOVW      DP,#_m_correct_win
         0000010f 0000 
     711 00000110 8A00-         MOVL      XAR4,@_m_correct_win  ; |93| 
TMS320C2000 COFF Assembler PC v4.1.3 Wed Jan 12 08:12:08 2011

Tools Copyright (c) 1996-2006 Texas Instruments Incorporated
C:\DOCUME~1\ADMINI~1\LOCALS~1\Temp\TI3242                            PAGE   16

     712 00000111 7640!         LCR       #_GUI_window_hwin_release ; |93| 
         00000112 0000 
     713                      ; call occurs [#_GUI_window_hwin_release] ; |93| 
     714                      .dwpsn  "app_ERRmod_interface.c",94,2
     715                      .dwpsn  "app_ERRmod_interface.c",95,1
     716 00000113 FE86          SUBB      SP,#6
     717                      .dwcfa  0x1d, -2
     718 00000114 0006          LRETR
     719                      ; return occurs
     720                      .dwattr DW$98, DW_AT_end_file("app_ERRmod_interface.c")
     721                      .dwattr DW$98, DW_AT_end_line(0x5f)
     722                      .dwattr DW$98, DW_AT_end_column(0x01)
     723                      .dwendentry
     724                      .dwendtag DW$98
     725              
     726 00000115               .sect   ".text"
     727                      .global _app_ERRmod_Ucorrect_window_destroy
     728              
     729              DW$102  .dwtag  DW_TAG_subprogram, DW_AT_name("app_ERRmod_Ucorrect_window_destroy"), DW_AT_symbol_name("_app_
     730                      .dwattr DW$102, DW_AT_low_pc(_app_ERRmod_Ucorrect_window_destroy)
     731                      .dwattr DW$102, DW_AT_high_pc(0x00)
     732                      .dwattr DW$102, DW_AT_begin_file("app_ERRmod_interface.c")
     733                      .dwattr DW$102, DW_AT_begin_line(0x60)
     734                      .dwattr DW$102, DW_AT_begin_column(0x06)
     735                      .dwpsn  "app_ERRmod_interface.c",97,1
     736              
     737                      .dwfde DW$CIE
     738              
     739              ;***************************************************************
     740              ;* FNAME: _app_ERRmod_Ucorrect_window_destroy FR SIZE:   0           *
     741              ;*                                                             *
     742              ;* FUNCTION ENVIRONMENT                                        *
     743              ;*                                                             *
     744              ;* FUNCTION PROPERTIES                                         *
     745              ;*                            0 Parameter,  0 Auto,  0 SOE     *
     746              ;***************************************************************
     747              
     748              _app_ERRmod_Ucorrect_window_destroy:
     749                      .dwcfa  0x1d, -2
     750                      .dwcfa  0x1c, 26, 0
     751                      .dwcfa  0x09, 40, 26
     752                      .dwpsn  "app_ERRmod_interface.c",98,2
     753 00000115 761F-         MOVW      DP,#_m_correct_win
         00000116 0000 
     754 00000117 8A00-         MOVL      XAR4,@_m_correct_win  ; |98| 
     755 00000118 7640!         LCR       #_GUI_window_destory  ; |98| 
         00000119 0000 
     756                      ; call occurs [#_GUI_window_destory] ; |98| 
     757                      .dwpsn  "app_ERRmod_interface.c",99,2
     758                      .dwpsn  "app_ERRmod_interface.c",100,1
     759 0000011a 0006          LRETR
     760                      ; return occurs
     761                      .dwattr DW$102, DW_AT_end_file("app_ERRmod_interface.c")
     762                      .dwattr DW$102, DW_AT_end_line(0x64)
     763                      .dwattr DW$102, DW_AT_end_column(0x01)
TMS320C2000 COFF Assembler PC v4.1.3 Wed Jan 12 08:12:08 2011

Tools Copyright (c) 1996-2006 Texas Instruments Incorporated
C:\DOCUME~1\ADMINI~1\LOCALS~1\Temp\TI3242                            PAGE   17

     764                      .dwendentry
     765                      .dwendtag DW$102
     766              
     767 0000011b               .sect   ".text"
     768                      .global _app_ERRmod_Icorrect_window_creat
     769              
     770              DW$103  .dwtag  DW_TAG_subprogram, DW_AT_name("app_ERRmod_Icorrect_window_creat"), DW_AT_symbol_name("_app_ER
     771                      .dwattr DW$103, DW_AT_low_pc(_app_ERRmod_Icorrect_window_creat)
     772                      .dwattr DW$103, DW_AT_high_pc(0x00)
     773                      .dwattr DW$103, DW_AT_begin_file("app_ERRmod_interface.c")
     774                      .dwattr DW$103, DW_AT_begin_line(0x6b)
     775                      .dwattr DW$103, DW_AT_begin_column(0x06)
     776                      .dwpsn  "app_ERRmod_interface.c",108,1
     777              
     778                      .dwfde DW$CIE
     779              
     780              ;***************************************************************
     781              ;* FNAME: _app_ERRmod_Icorrect_window_creat FR SIZE:   6           *
     782              ;*                                                             *
     783              ;* FUNCTION ENVIRONMENT                                        *
     784              ;*                                                             *
     785              ;* FUNCTION PROPERTIES                                         *
     786              ;*                            3 Parameter,  3 Auto,  0 SOE     *
     787              ;***************************************************************
     788              
     789              _app_ERRmod_Icorrect_window_creat:
     790                      .dwcfa  0x1d, -2
     791                      .dwcfa  0x1c, 26, 0
     792                      .dwcfa  0x09, 40, 26
     793 0000011b FE06          ADDB      SP,#6
     794                      .dwcfa  0x1d, -8
     795              ;* AL    assigned to _offset
     796              DW$104  .dwtag  DW_TAG_formal_parameter, DW_AT_name("offset"), DW_AT_symbol_name("_offset")
     797                      .dwattr DW$104, DW_AT_type(*DW$T$6)
     798                      .dwattr DW$104, DW_AT_location[DW_OP_reg0]
     799              DW$105  .dwtag  DW_TAG_variable, DW_AT_name("offset"), DW_AT_symbol_name("_offset")
     800                      .dwattr DW$105, DW_AT_type(*DW$T$6)
     801                      .dwattr DW$105, DW_AT_location[DW_OP_breg20 -4]
     802              DW$106  .dwtag  DW_TAG_variable, DW_AT_name("hp"), DW_AT_symbol_name("_hp")
     803                      .dwattr DW$106, DW_AT_type(*DW$T$38)
     804                      .dwattr DW$106, DW_AT_location[DW_OP_breg20 -6]
     805 0000011c 9644          MOV       *-SP[4],AL            ; |108| 
     806                      .dwpsn  "app_ERRmod_interface.c",110,2
     807 0000011d 9A03          MOVB      AL,#3                 ; |110| 
     808 0000011e 7640!         LCR       #_GUI_set_Bgcolor     ; |110| 
         0000011f 0000 
     809                      ; call occurs [#_GUI_set_Bgcolor] ; |110| 
     810                      .dwpsn  "app_ERRmod_interface.c",111,2
     811 00000120 7640!         LCR       #_GUI_clean_screen    ; |111| 
         00000121 0000 
     812                      ; call occurs [#_GUI_clean_screen] ; |111| 
     813                      .dwpsn  "app_ERRmod_interface.c",112,2
     814 00000122 9A0A          MOVB      AL,#10                ; |112| 
     815 00000123 7640!         LCR       #_GUI_set_Bgcolor     ; |112| 
         00000124 0000 
TMS320C2000 COFF Assembler PC v4.1.3 Wed Jan 12 08:12:08 2011

Tools Copyright (c) 1996-2006 Texas Instruments Incorporated
C:\DOCUME~1\ADMINI~1\LOCALS~1\Temp\TI3242                            PAGE   18

     816                      ; call occurs [#_GUI_set_Bgcolor] ; |112| 
     817                      .dwpsn  "app_ERRmod_interface.c",113,2
     818 00000125 9AFF          MOVB      AL,#255               ; |113| 
     819 00000126 7640!         LCR       #_GUI_set_Fgcolor     ; |113| 
         00000127 0000 
     820                      ; call occurs [#_GUI_set_Fgcolor] ; |113| 
     821                      .dwpsn  "app_ERRmod_interface.c",114,2
     822 00000128 7640!         LCR       #_GUI_hwin_obtain     ; |114| 
         00000129 0000 
     823                      ; call occurs [#_GUI_hwin_obtain] ; |114| 
     824 0000012a 2841          MOV       *-SP[1],#295          ; |114| 
         0000012b 0127 
     825 0000012c 2842          MOV       *-SP[2],#220          ; |114| 
         0000012d 00DC 
     826 0000012e 2843          MOV       *-SP[3],#1536         ; |114| 
         0000012f 0600 
     827 00000130 83A4          MOVL      XAR5,XAR4             ; |114| 
     828 00000131 0E44          MOVU      ACC,*-SP[4]
     829 00000132 8F00-         MOVL      XAR4,#_m_err_option   ; |114| 
         00000133 001C 
     830 00000134 FF31          LSL       ACC,2                 ; |114| 
     831 00000135 5601          ADDL      XAR4,ACC
         00000136 00A4 
     832 00000137 3B01          SETC      SXM
     833 00000138 761F!         MOVW      DP,#_g_language
         00000139 0000 
     834 0000013a 5603!         MOV       ACC,@_g_language << 1 ; |114| 
         0000013b 0100 
     835 0000013c 5601          ADDL      XAR4,ACC
         0000013d 00A4 
     836 0000013e 8AC4          MOVL      XAR4,*+XAR4[0]        ; |114| 
     837 0000013f 9A0A          MOVB      AL,#10                ; |114| 
     838 00000140 9B05          MOVB      AH,#5                 ; |114| 
     839 00000141 7640!         LCR       #_Gui_3D_window_creat ; |114| 
         00000142 0000 
     840                      ; call occurs [#_Gui_3D_window_creat] ; |114| 
     841 00000143 761F-         MOVW      DP,#_m_correct_win
         00000144 0000 
     842 00000145 A800-         MOVL      @_m_correct_win,XAR4  ; |114| 
     843                      .dwpsn  "app_ERRmod_interface.c",116,2
     844 00000146 8A00-         MOVL      XAR4,@_m_correct_win  ; |116| 
     845 00000147 7640!         LCR       #_GUI_window_hwin_req ; |116| 
         00000148 0000 
     846                      ; call occurs [#_GUI_window_hwin_req] ; |116| 
     847                      .dwpsn  "app_ERRmod_interface.c",117,2
     848 00000149 9A00          MOVB      AL,#0
     849 0000014a 8F00          MOVL      XAR4,#293             ; |117| 
         0000014b 0125 
     850 0000014c D53C          MOVB      XAR5,#60              ; |117| 
     851 0000014d 9B3C          MOVB      AH,#60                ; |117| 
     852 0000014e 7640!         LCR       #_GUI_window_line_display ; |117| 
         0000014f 0000 
     853                      ; call occurs [#_GUI_window_line_display] ; |117| 
     854                      .dwpsn  "app_ERRmod_interface.c",118,2
     855 00000150 761F-         MOVW      DP,#_m_correct_win
TMS320C2000 COFF Assembler PC v4.1.3 Wed Jan 12 08:12:08 2011

Tools Copyright (c) 1996-2006 Texas Instruments Incorporated
C:\DOCUME~1\ADMINI~1\LOCALS~1\Temp\TI3242                            PAGE   19

         00000151 0000 
     856 00000152 9A0A          MOVB      AL,#10                ; |118| 
     857 00000153 2841          MOV       *-SP[1],#4            ; |118| 
         00000154 0004 
     858 00000155 8300-         MOVL      XAR5,@_m_correct_win  ; |118| 
     859 00000156 8F00-         MOVL      XAR4,#_m_err_DLI_option ; |118| 
         00000157 000C 
     860 00000158 9B05          MOVB      AH,#5                 ; |118| 
     861 00000159 7640!         LCR       #_Gui_drop_list_creat ; |118| 
         0000015a 0000 
     862                      ; call occurs [#_Gui_drop_list_creat] ; |118| 
     863 0000015b 761F-         MOVW      DP,#_m_correct_drop_list
         0000015c 0000 
     864 0000015d A804-         MOVL      @_m_correct_drop_list,XAR4 ; |118| 
     865                      .dwpsn  "app_ERRmod_interface.c",119,2
     866 0000015e 2841          MOV       *-SP[1],#195          ; |119| 
         0000015f 00C3 
     867 00000160 9A0A          MOVB      AL,#10                ; |119| 
     868 00000161 8F40          MOVL      XAR5,#290             ; |119| 
         00000162 0122 
     869 00000163 8A00-         MOVL      XAR4,@_m_correct_win  ; |119| 
     870 00000164 2B42          MOV       *-SP[2],#0            ; |119| 
     871 00000165 9B05          MOVB      AH,#5                 ; |119| 
     872 00000166 7640!         LCR       #_GUI_edit_creat      ; |119| 
         00000167 0000 
     873                      ; call occurs [#_GUI_edit_creat] ; |119| 
     874 00000168 761F-         MOVW      DP,#_m_correct_edit
         00000169 0000 
     875 0000016a A806-         MOVL      @_m_correct_edit,XAR4 ; |119| 
     876                      .dwpsn  "app_ERRmod_interface.c",120,2
     877 0000016b 8A06-         MOVL      XAR4,@_m_correct_edit ; |120| 
     878 0000016c 7640!         LCR       #_GUI_window_hwin_req ; |120| 
         0000016d 0000 
     879                      ; call occurs [#_GUI_window_hwin_req] ; |120| 
     880                      .dwpsn  "app_ERRmod_interface.c",121,2
     881 0000016e 9A00          MOVB      AL,#0
     882 0000016f 2841          MOV       *-SP[1],#513          ; |121| 
         00000170 0201 
     883 00000171 D508          MOVB      XAR5,#8               ; |121| 
     884 00000172 8F00+         MOVL      XAR4,#FSL24           ; |121| 
         00000173 00BA 
     885 00000174 9B1E          MOVB      AH,#30                ; |121| 
     886 00000175 7640!         LCR       #_GUI_edit_memeber_add ; |121| 
         00000176 0000 
     887                      ; call occurs [#_GUI_edit_memeber_add] ; |121| 
     888                      .dwpsn  "app_ERRmod_interface.c",122,2
     889 00000177 9A8A          MOVB      AL,#138               ; |122| 
     890 00000178 8F00+         MOVL      XAR4,#FSL25           ; |122| 
         00000179 00C4 
     891 0000017a 9B20          MOVB      AH,#32                ; |122| 
     892 0000017b 7640!         LCR       #_GUI_string_display_At ; |122| 
         0000017c 0000 
     893                      ; call occurs [#_GUI_string_display_At] ; |122| 
     894                      .dwpsn  "app_ERRmod_interface.c",123,2
     895 0000017d 9AFC          MOVB      AL,#252               ; |123| 
TMS320C2000 COFF Assembler PC v4.1.3 Wed Jan 12 08:12:08 2011

Tools Copyright (c) 1996-2006 Texas Instruments Incorporated
C:\DOCUME~1\ADMINI~1\LOCALS~1\Temp\TI3242                            PAGE   20

     896 0000017e 7640!         LCR       #_GUI_set_Fgcolor     ; |123| 
         0000017f 0000 
     897                      ; call occurs [#_GUI_set_Fgcolor] ; |123| 
     898                      .dwpsn  "app_ERRmod_interface.c",124,2
     899 00000180 9A00          MOVB      AL,#0
     900 00000181 2841          MOV       *-SP[1],#514          ; |124| 
         00000182 0202 
     901 00000183 D506          MOVB      XAR5,#6               ; |124| 
     902 00000184 8F00+         MOVL      XAR4,#FSL26           ; |124| 
         00000185 00C8 
     903 00000186 9B41          MOVB      AH,#65                ; |124| 
     904 00000187 7640!         LCR       #_GUI_edit_memeber_add ; |124| 
         00000188 0000 
     905                      ; call occurs [#_GUI_edit_memeber_add] ; |124| 
     906                      .dwpsn  "app_ERRmod_interface.c",125,2
     907 00000189 9AB0          MOVB      AL,#176               ; |125| 
     908 0000018a 2841          MOV       *-SP[1],#515          ; |125| 
         0000018b 0203 
     909 0000018c D506          MOVB      XAR5,#6               ; |125| 
     910 0000018d 8F00+         MOVL      XAR4,#FSL20           ; |125| 
         0000018e 0098 
     911 0000018f 9B41          MOVB      AH,#65                ; |125| 
     912 00000190 7640!         LCR       #_GUI_edit_memeber_add ; |125| 
         00000191 0000 
     913                      ; call occurs [#_GUI_edit_memeber_add] ; |125| 
     914                      .dwpsn  "app_ERRmod_interface.c",126,2
     915 00000192 9A1C          MOVB      AL,#28                ; |126| 
     916 00000193 7640!         LCR       #_GUI_set_Fgcolor     ; |126| 
         00000194 0000 
     917                      ; call occurs [#_GUI_set_Fgcolor] ; |126| 
     918                      .dwpsn  "app_ERRmod_interface.c",127,2
     919 00000195 9A00          MOVB      AL,#0
     920 00000196 2841          MOV       *-SP[1],#516          ; |127| 
         00000197 0204 
     921 00000198 D506          MOVB      XAR5,#6               ; |127| 
     922 00000199 8F00+         MOVL      XAR4,#FSL27           ; |127| 
         0000019a 00D4 
     923 0000019b 9B5F          MOVB      AH,#95                ; |127| 
     924 0000019c 7640!         LCR       #_GUI_edit_memeber_add ; |127| 
         0000019d 0000 
     925                      ; call occurs [#_GUI_edit_memeber_add] ; |127| 
     926                      .dwpsn  "app_ERRmod_interface.c",128,2
     927 0000019e 9AB0          MOVB      AL,#176               ; |128| 
     928 0000019f 2841          MOV       *-SP[1],#517          ; |128| 
         000001a0 0205 
     929 000001a1 D506          MOVB      XAR5,#6               ; |128| 
     930 000001a2 8F00+         MOVL      XAR4,#FSL20           ; |128| 
         000001a3 0098 
     931 000001a4 9B5F          MOVB      AH,#95                ; |128| 
     932 000001a5 7640!         LCR       #_GUI_edit_memeber_add ; |128| 
         000001a6 0000 
     933                      ; call occurs [#_GUI_edit_memeber_add] ; |128| 
     934                      .dwpsn  "app_ERRmod_interface.c",129,2
     935 000001a7 9AE0          MOVB      AL,#224               ; |129| 
     936 000001a8 7640!         LCR       #_GUI_set_Fgcolor     ; |129| 
TMS320C2000 COFF Assembler PC v4.1.3 Wed Jan 12 08:12:08 2011

Tools Copyright (c) 1996-2006 Texas Instruments Incorporated
C:\DOCUME~1\ADMINI~1\LOCALS~1\Temp\TI3242                            PAGE   21

         000001a9 0000 
     937                      ; call occurs [#_GUI_set_Fgcolor] ; |129| 
     938                      .dwpsn  "app_ERRmod_interface.c",130,2
     939 000001aa 9A00          MOVB      AL,#0
     940 000001ab 2841          MOV       *-SP[1],#518          ; |130| 
         000001ac 0206 
     941 000001ad D506          MOVB      XAR5,#6               ; |130| 
     942 000001ae 8F00+         MOVL      XAR4,#FSL28           ; |130| 
         000001af 00E0 
     943 000001b0 9B7D          MOVB      AH,#125               ; |130| 
     944 000001b1 7640!         LCR       #_GUI_edit_memeber_add ; |130| 
         000001b2 0000 
     945                      ; call occurs [#_GUI_edit_memeber_add] ; |130| 
     946                      .dwpsn  "app_ERRmod_interface.c",131,2
     947 000001b3 9AB0          MOVB      AL,#176               ; |131| 
     948 000001b4 2841          MOV       *-SP[1],#519          ; |131| 
         000001b5 0207 
     949 000001b6 D506          MOVB      XAR5,#6               ; |131| 
     950 000001b7 8F00+         MOVL      XAR4,#FSL20           ; |131| 
         000001b8 0098 
     951 000001b9 9B7D          MOVB      AH,#125               ; |131| 
     952 000001ba 7640!         LCR       #_GUI_edit_memeber_add ; |131| 
         000001bb 0000 
     953                      ; call occurs [#_GUI_edit_memeber_add] ; |131| 
     954                      .dwpsn  "app_ERRmod_interface.c",132,2
     955 000001bc 9AFF          MOVB      AL,#255               ; |132| 
     956 000001bd 7640!         LCR       #_GUI_set_Fgcolor     ; |132| 
         000001be 0000 
     957                      ; call occurs [#_GUI_set_Fgcolor] ; |132| 
     958                      .dwpsn  "app_ERRmod_interface.c",133,2
     959 000001bf 9A92          MOVB      AL,#146               ; |133| 
     960 000001c0 8F00+         MOVL      XAR4,#FSL25           ; |133| 
         000001c1 00C4 
     961 000001c2 9B43          MOVB      AH,#67                ; |133| 
     962 000001c3 7640!         LCR       #_GUI_string_display_At ; |133| 
         000001c4 0000 
     963                      ; call occurs [#_GUI_string_display_At] ; |133| 
     964                      .dwpsn  "app_ERRmod_interface.c",134,2
     965 000001c5 9A92          MOVB      AL,#146               ; |134| 
     966 000001c6 8F00+         MOVL      XAR4,#FSL25           ; |134| 
         000001c7 00C4 
     967 000001c8 9B61          MOVB      AH,#97                ; |134| 
     968 000001c9 7640!         LCR       #_GUI_string_display_At ; |134| 
         000001ca 0000 
     969                      ; call occurs [#_GUI_string_display_At] ; |134| 
     970                      .dwpsn  "app_ERRmod_interface.c",135,2
     971 000001cb 9A92          MOVB      AL,#146               ; |135| 
     972 000001cc 8F00+         MOVL      XAR4,#FSL25           ; |135| 
         000001cd 00C4 
     973 000001ce 9B7F          MOVB      AH,#127               ; |135| 
     974 000001cf 7640!         LCR       #_GUI_string_display_At ; |135| 
         000001d0 0000 
     975                      ; call occurs [#_GUI_string_display_At] ; |135| 
     976                      .dwpsn  "app_ERRmod_interface.c",137,2
     977 000001d1 761F-         MOVW      DP,#_m_correct_edit
TMS320C2000 COFF Assembler PC v4.1.3 Wed Jan 12 08:12:08 2011

Tools Copyright (c) 1996-2006 Texas Instruments Incorporated
C:\DOCUME~1\ADMINI~1\LOCALS~1\Temp\TI3242                            PAGE   22

         000001d2 0000 
     978 000001d3 8A06-         MOVL      XAR4,@_m_correct_edit ; |137| 
     979 000001d4 7640!         LCR       #_GUI_window_hwin_release ; |137| 
         000001d5 0000 
     980                      ; call occurs [#_GUI_window_hwin_release] ; |137| 
     981                      .dwpsn  "app_ERRmod_interface.c",138,2
     982 000001d6 2841          MOV       *-SP[1],#25           ; |138| 
         000001d7 0019 
     983 000001d8 761F-         MOVW      DP,#_m_correct_win
         000001d9 0000 
     984 000001da 9A14          MOVB      AL,#20                ; |138| 
     985 000001db 2842          MOV       *-SP[2],#266          ; |138| 
         000001dc 010A 
     986 000001dd 8A00-         MOVL      XAR4,@_m_correct_win  ; |138| 
     987 000001de D53C          MOVB      XAR5,#60              ; |138| 
     988 000001df 9BA5          MOVB      AH,#165               ; |138| 
     989 000001e0 7640!         LCR       #_Gui_button_creat    ; |138| 
         000001e1 0000 
     990                      ; call occurs [#_Gui_button_creat] ; |138| 
     991 000001e2 A846          MOVL      *-SP[6],XAR4          ; |138| 
     992                      .dwpsn  "app_ERRmod_interface.c",139,2
     993 000001e3 8A46          MOVL      XAR4,*-SP[6]          ; |139| 
     994 000001e4 020E          MOVB      ACC,#14
     995 000001e5 7640!         LCR       #_Gui_button_dye      ; |139| 
         000001e6 0000 
     996                      ; call occurs [#_Gui_button_dye] ; |139| 
     997                      .dwpsn  "app_ERRmod_interface.c",140,2
     998 000001e7 8A46          MOVL      XAR4,*-SP[6]          ; |140| 
     999 000001e8 8F40+         MOVL      XAR5,#FSL29           ; |140| 
         000001e9 00EC 
    1000 000001ea 7640!         LCR       #_GUI_button_title_display ; |140| 
         000001eb 0000 
    1001                      ; call occurs [#_GUI_button_title_display] ; |140| 
    1002                      .dwpsn  "app_ERRmod_interface.c",141,2
    1003 000001ec 2841          MOV       *-SP[1],#25           ; |141| 
         000001ed 0019 
    1004 000001ee 761F-         MOVW      DP,#_m_correct_win
         000001ef 0000 
    1005 000001f0 9ADC          MOVB      AL,#220               ; |141| 
    1006 000001f1 2842          MOV       *-SP[2],#284          ; |141| 
         000001f2 011C 
    1007 000001f3 8A00-         MOVL      XAR4,@_m_correct_win  ; |141| 
    1008 000001f4 D53C          MOVB      XAR5,#60              ; |141| 
    1009 000001f5 9BA5          MOVB      AH,#165               ; |141| 
    1010 000001f6 7640!         LCR       #_Gui_button_creat    ; |141| 
         000001f7 0000 
    1011                      ; call occurs [#_Gui_button_creat] ; |141| 
    1012 000001f8 A846          MOVL      *-SP[6],XAR4          ; |141| 
    1013                      .dwpsn  "app_ERRmod_interface.c",142,2
    1014 000001f9 8A46          MOVL      XAR4,*-SP[6]          ; |142| 
    1015 000001fa 020E          MOVB      ACC,#14
    1016 000001fb 7640!         LCR       #_Gui_button_dye      ; |142| 
         000001fc 0000 
    1017                      ; call occurs [#_Gui_button_dye] ; |142| 
    1018                      .dwpsn  "app_ERRmod_interface.c",143,2
TMS320C2000 COFF Assembler PC v4.1.3 Wed Jan 12 08:12:08 2011

Tools Copyright (c) 1996-2006 Texas Instruments Incorporated
C:\DOCUME~1\ADMINI~1\LOCALS~1\Temp\TI3242                            PAGE   23

    1019 000001fd 8A46          MOVL      XAR4,*-SP[6]          ; |143| 
    1020 000001fe 8F40+         MOVL      XAR5,#FSL23           ; |143| 
         000001ff 00B6 
    1021 00000200 7640!         LCR       #_GUI_button_title_display ; |143| 
         00000201 0000 
    1022                      ; call occurs [#_GUI_button_title_display] ; |143| 
    1023                      .dwpsn  "app_ERRmod_interface.c",144,2
    1024 00000202 761F-         MOVW      DP,#_m_correct_win
         00000203 0000 
    1025 00000204 8A00-         MOVL      XAR4,@_m_correct_win  ; |144| 
    1026 00000205 7640!         LCR       #_GUI_window_hwin_release ; |144| 
         00000206 0000 
    1027                      ; call occurs [#_GUI_window_hwin_release] ; |144| 
    1028                      .dwpsn  "app_ERRmod_interface.c",145,2
    1029                      .dwpsn  "app_ERRmod_interface.c",146,1
    1030 00000207 FE86          SUBB      SP,#6
    1031                      .dwcfa  0x1d, -2
    1032 00000208 0006          LRETR
    1033                      ; return occurs
    1034                      .dwattr DW$103, DW_AT_end_file("app_ERRmod_interface.c")
    1035                      .dwattr DW$103, DW_AT_end_line(0x92)
    1036                      .dwattr DW$103, DW_AT_end_column(0x01)
    1037                      .dwendentry
    1038                      .dwendtag DW$103
    1039              
    1040 00000209               .sect   ".text"
    1041                      .global _app_ERRmod_Icorrect_window_destroy
    1042              
    1043              DW$107  .dwtag  DW_TAG_subprogram, DW_AT_name("app_ERRmod_Icorrect_window_destroy"), DW_AT_symbol_name("_app_
    1044                      .dwattr DW$107, DW_AT_low_pc(_app_ERRmod_Icorrect_window_destroy)
    1045                      .dwattr DW$107, DW_AT_high_pc(0x00)
    1046                      .dwattr DW$107, DW_AT_begin_file("app_ERRmod_interface.c")
    1047                      .dwattr DW$107, DW_AT_begin_line(0x94)
    1048                      .dwattr DW$107, DW_AT_begin_column(0x06)
    1049                      .dwpsn  "app_ERRmod_interface.c",149,1
    1050              
    1051                      .dwfde DW$CIE
    1052              
    1053              ;***************************************************************
    1054              ;* FNAME: _app_ERRmod_Icorrect_window_destroy FR SIZE:   0           *
    1055              ;*                                                             *
    1056              ;* FUNCTION ENVIRONMENT                                        *
    1057              ;*                                                             *
    1058              ;* FUNCTION PROPERTIES                                         *
    1059              ;*                            0 Parameter,  0 Auto,  0 SOE     *
    1060              ;***************************************************************
    1061              
    1062              _app_ERRmod_Icorrect_window_destroy:
    1063                      .dwcfa  0x1d, -2
    1064                      .dwcfa  0x1c, 26, 0
    1065                      .dwcfa  0x09, 40, 26
    1066                      .dwpsn  "app_ERRmod_interface.c",150,2
    1067 00000209 761F-         MOVW      DP,#_m_correct_win
         0000020a 0000 
    1068 0000020b 8A00-         MOVL      XAR4,@_m_correct_win  ; |150| 
TMS320C2000 COFF Assembler PC v4.1.3 Wed Jan 12 08:12:08 2011

Tools Copyright (c) 1996-2006 Texas Instruments Incorporated
C:\DOCUME~1\ADMINI~1\LOCALS~1\Temp\TI3242                            PAGE   24

    1069 0000020c 7640!         LCR       #_GUI_window_destory  ; |150| 
         0000020d 0000 
    1070                      ; call occurs [#_GUI_window_destory] ; |150| 
    1071                      .dwpsn  "app_ERRmod_interface.c",151,2
    1072                      .dwpsn  "app_ERRmod_interface.c",152,1
    1073 0000020e 0006          LRETR
    1074                      ; return occurs
    1075                      .dwattr DW$107, DW_AT_end_file("app_ERRmod_interface.c")
    1076                      .dwattr DW$107, DW_AT_end_line(0x98)
    1077                      .dwattr DW$107, DW_AT_end_column(0x01)
    1078                      .dwendentry
    1079                      .dwendtag DW$107
    1080              
    1081 0000020f               .sect   ".text"
    1082                      .global _app_ERRmod_P_Jcorrect_window_creat
    1083              
    1084              DW$108  .dwtag  DW_TAG_subprogram, DW_AT_name("app_ERRmod_P_Jcorrect_window_creat"), DW_AT_symbol_name("_app_
    1085                      .dwattr DW$108, DW_AT_low_pc(_app_ERRmod_P_Jcorrect_window_creat)
    1086                      .dwattr DW$108, DW_AT_high_pc(0x00)
    1087                      .dwattr DW$108, DW_AT_begin_file("app_ERRmod_interface.c")
    1088                      .dwattr DW$108, DW_AT_begin_line(0xa0)
    1089                      .dwattr DW$108, DW_AT_begin_column(0x06)
    1090                      .dwpsn  "app_ERRmod_interface.c",161,1
    1091              
    1092                      .dwfde DW$CIE
    1093              
    1094              ;***************************************************************
    1095              ;* FNAME: _app_ERRmod_P_Jcorrect_window_creat FR SIZE:   8           *
    1096              ;*                                                             *
    1097              ;* FUNCTION ENVIRONMENT                                        *
    1098              ;*                                                             *
    1099              ;* FUNCTION PROPERTIES                                         *
    1100              ;*                            3 Parameter,  4 Auto,  0 SOE     *
    1101              ;***************************************************************
    1102              
    1103              _app_ERRmod_P_Jcorrect_window_creat:
    1104                      .dwcfa  0x1d, -2
    1105                      .dwcfa  0x1c, 26, 0
    1106                      .dwcfa  0x09, 40, 26
    1107 0000020f FE08          ADDB      SP,#8
    1108                      .dwcfa  0x1d, -10
    1109              ;* AL    assigned to _offset
    1110              DW$109  .dwtag  DW_TAG_formal_parameter, DW_AT_name("offset"), DW_AT_symbol_name("_offset")
    1111                      .dwattr DW$109, DW_AT_type(*DW$T$6)
    1112                      .dwattr DW$109, DW_AT_location[DW_OP_reg0]
    1113              DW$110  .dwtag  DW_TAG_variable, DW_AT_name("offset"), DW_AT_symbol_name("_offset")
    1114                      .dwattr DW$110, DW_AT_type(*DW$T$6)
    1115                      .dwattr DW$110, DW_AT_location[DW_OP_breg20 -4]
    1116              DW$111  .dwtag  DW_TAG_variable, DW_AT_name("hp"), DW_AT_symbol_name("_hp")
    1117                      .dwattr DW$111, DW_AT_type(*DW$T$38)
    1118                      .dwattr DW$111, DW_AT_location[DW_OP_breg20 -6]
    1119              DW$112  .dwtag  DW_TAG_variable, DW_AT_name("index"), DW_AT_symbol_name("_index")
    1120                      .dwattr DW$112, DW_AT_type(*DW$T$19)
    1121                      .dwattr DW$112, DW_AT_location[DW_OP_breg20 -7]
    1122 00000210 9644          MOV       *-SP[4],AL            ; |161| 
TMS320C2000 COFF Assembler PC v4.1.3 Wed Jan 12 08:12:08 2011

Tools Copyright (c) 1996-2006 Texas Instruments Incorporated
C:\DOCUME~1\ADMINI~1\LOCALS~1\Temp\TI3242                            PAGE   25

    1123                      .dwpsn  "app_ERRmod_interface.c",164,2
    1124 00000211 9A03          MOVB      AL,#3                 ; |164| 
    1125 00000212 7640!         LCR       #_GUI_set_Bgcolor     ; |164| 
         00000213 0000 
    1126                      ; call occurs [#_GUI_set_Bgcolor] ; |164| 
    1127                      .dwpsn  "app_ERRmod_interface.c",165,2
    1128 00000214 7640!         LCR       #_GUI_clean_screen    ; |165| 
         00000215 0000 
    1129                      ; call occurs [#_GUI_clean_screen] ; |165| 
    1130                      .dwpsn  "app_ERRmod_interface.c",166,2
    1131 00000216 9A0A          MOVB      AL,#10                ; |166| 
    1132 00000217 7640!         LCR       #_GUI_set_Bgcolor     ; |166| 
         00000218 0000 
    1133                      ; call occurs [#_GUI_set_Bgcolor] ; |166| 
    1134                      .dwpsn  "app_ERRmod_interface.c",167,2
    1135 00000219 9AFF          MOVB      AL,#255               ; |167| 
    1136 0000021a 7640!         LCR       #_GUI_set_Fgcolor     ; |167| 
         0000021b 0000 
    1137                      ; call occurs [#_GUI_set_Fgcolor] ; |167| 
    1138                      .dwpsn  "app_ERRmod_interface.c",168,2
    1139 0000021c 7640!         LCR       #_GUI_hwin_obtain     ; |168| 
         0000021d 0000 
    1140                      ; call occurs [#_GUI_hwin_obtain] ; |168| 
    1141 0000021e 2841          MOV       *-SP[1],#300          ; |168| 
         0000021f 012C 
    1142 00000220 2842          MOV       *-SP[2],#220          ; |168| 
         00000221 00DC 
    1143 00000222 2843          MOV       *-SP[3],#1536         ; |168| 
         00000223 0600 
    1144 00000224 83A4          MOVL      XAR5,XAR4             ; |168| 
    1145 00000225 0E44          MOVU      ACC,*-SP[4]
    1146 00000226 8F00-         MOVL      XAR4,#_m_err_option   ; |168| 
         00000227 001C 
    1147 00000228 FF31          LSL       ACC,2                 ; |168| 
    1148 00000229 5601          ADDL      XAR4,ACC
         0000022a 00A4 
    1149 0000022b 3B01          SETC      SXM
    1150 0000022c 761F!         MOVW      DP,#_g_language
         0000022d 0000 
    1151 0000022e 5603!         MOV       ACC,@_g_language << 1 ; |168| 
         0000022f 0100 
    1152 00000230 5601          ADDL      XAR4,ACC
         00000231 00A4 
    1153 00000232 8AC4          MOVL      XAR4,*+XAR4[0]        ; |168| 
    1154 00000233 9A08          MOVB      AL,#8                 ; |168| 
    1155 00000234 9B05          MOVB      AH,#5                 ; |168| 
    1156 00000235 7640!         LCR       #_Gui_3D_window_creat ; |168| 
         00000236 0000 
    1157                      ; call occurs [#_Gui_3D_window_creat] ; |168| 
    1158 00000237 761F-         MOVW      DP,#_m_correct_win
         00000238 0000 
    1159 00000239 A800-         MOVL      @_m_correct_win,XAR4  ; |168| 
    1160                      .dwpsn  "app_ERRmod_interface.c",170,2
    1161 0000023a 8A00-         MOVL      XAR4,@_m_correct_win  ; |170| 
    1162 0000023b 7640!         LCR       #_GUI_window_hwin_req ; |170| 
TMS320C2000 COFF Assembler PC v4.1.3 Wed Jan 12 08:12:08 2011

Tools Copyright (c) 1996-2006 Texas Instruments Incorporated
C:\DOCUME~1\ADMINI~1\LOCALS~1\Temp\TI3242                            PAGE   26

         0000023c 0000 
    1163                      ; call occurs [#_GUI_window_hwin_req] ; |170| 
    1164                      .dwpsn  "app_ERRmod_interface.c",171,2
    1165 0000023d 761F-         MOVW      DP,#_m_correct_win
         0000023e 0000 
    1166 0000023f 2841          MOV       *-SP[1],#195          ; |171| 
         00000240 00C3 
    1167 00000241 9A00          MOVB      AL,#0
    1168 00000242 8F40          MOVL      XAR5,#290             ; |171| 
         00000243 0122 
    1169 00000244 8A00-         MOVL      XAR4,@_m_correct_win  ; |171| 
    1170 00000245 2B42          MOV       *-SP[2],#0            ; |171| 
    1171 00000246 9B05          MOVB      AH,#5                 ; |171| 
    1172 00000247 7640!         LCR       #_GUI_edit_creat      ; |171| 
         00000248 0000 
    1173                      ; call occurs [#_GUI_edit_creat] ; |171| 
    1174 00000249 761F-         MOVW      DP,#_m_correct_edit
         0000024a 0000 
    1175 0000024b A806-         MOVL      @_m_correct_edit,XAR4 ; |171| 
    1176                      .dwpsn  "app_ERRmod_interface.c",173,2
    1177 0000024c 8A06-         MOVL      XAR4,@_m_correct_edit ; |173| 
    1178 0000024d 7640!         LCR       #_GUI_window_hwin_req ; |173| 
         0000024e 0000 
    1179                      ; call occurs [#_GUI_window_hwin_req] ; |173| 
    1180                      .dwpsn  "app_ERRmod_interface.c",174,2
    1181 0000024f 9AFF          MOVB      AL,#255               ; |174| 
    1182 00000250 7640!         LCR       #_GUI_set_Fgcolor     ; |174| 
         00000251 0000 
    1183                      ; call occurs [#_GUI_set_Fgcolor] ; |174| 
    1184                      .dwpsn  "app_ERRmod_interface.c",175,2
    1185 00000252 9A00          MOVB      AL,#0
    1186 00000253 8F00+         MOVL      XAR4,#FSL30           ; |175| 
         00000254 00F0 
    1187 00000255 9B14          MOVB      AH,#20                ; |175| 
    1188 00000256 7640!         LCR       #_GUI_string_display_At ; |175| 
         00000257 0000 
    1189                      ; call occurs [#_GUI_string_display_At] ; |175| 
    1190                      .dwpsn  "app_ERRmod_interface.c",176,2
    1191 00000258 9A00          MOVB      AL,#0
    1192 00000259 8F00+         MOVL      XAR4,#FSL31           ; |176| 
         0000025a 00F6 
    1193 0000025b 9B2A          MOVB      AH,#42                ; |176| 
    1194 0000025c 7640!         LCR       #_GUI_string_display_At ; |176| 
         0000025d 0000 
    1195                      ; call occurs [#_GUI_string_display_At] ; |176| 
    1196                      .dwpsn  "app_ERRmod_interface.c",177,2
    1197 0000025e 9A00          MOVB      AL,#0
    1198 0000025f 8F00+         MOVL      XAR4,#FSL32           ; |177| 
         00000260 00FC 
    1199 00000261 9B40          MOVB      AH,#64                ; |177| 
    1200 00000262 7640!         LCR       #_GUI_string_display_At ; |177| 
         00000263 0000 
    1201                      ; call occurs [#_GUI_string_display_At] ; |177| 
    1202                      .dwpsn  "app_ERRmod_interface.c",178,2
    1203 00000264 9A00          MOVB      AL,#0
TMS320C2000 COFF Assembler PC v4.1.3 Wed Jan 12 08:12:08 2011

Tools Copyright (c) 1996-2006 Texas Instruments Incorporated
C:\DOCUME~1\ADMINI~1\LOCALS~1\Temp\TI3242                            PAGE   27

    1204 00000265 8F00+         MOVL      XAR4,#FSL33           ; |178| 
         00000266 0102 
    1205 00000267 9B56          MOVB      AH,#86                ; |178| 
    1206 00000268 7640!         LCR       #_GUI_string_display_At ; |178| 
         00000269 0000 
    1207                      ; call occurs [#_GUI_string_display_At] ; |178| 
    1208                      .dwpsn  "app_ERRmod_interface.c",179,2
    1209 0000026a 9A00          MOVB      AL,#0
    1210 0000026b 8F00+         MOVL      XAR4,#FSL34           ; |179| 
         0000026c 010A 
    1211 0000026d 9B6C          MOVB      AH,#108               ; |179| 
    1212 0000026e 7640!         LCR       #_GUI_string_display_At ; |179| 
         0000026f 0000 
    1213                      ; call occurs [#_GUI_string_display_At] ; |179| 
    1214                      .dwpsn  "app_ERRmod_interface.c",180,2
    1215 00000270 9AFC          MOVB      AL,#252               ; |180| 
    1216 00000271 7640!         LCR       #_GUI_set_Fgcolor     ; |180| 
         00000272 0000 
    1217                      ; call occurs [#_GUI_set_Fgcolor] ; |180| 
    1218                      .dwpsn  "app_ERRmod_interface.c",181,2
    1219 00000273 0249          MOVB      ACC,#73
    1220 00000274 8F00+         MOVL      XAR4,#FSL35           ; |181| 
         00000275 0112 
    1221 00000276 7640!         LCR       #_GUI_string_display_At ; |181| 
         00000277 0000 
    1222                      ; call occurs [#_GUI_string_display_At] ; |181| 
    1223                      .dwpsn  "app_ERRmod_interface.c",182,2
    1224 00000278 9A1C          MOVB      AL,#28                ; |182| 
    1225 00000279 7640!         LCR       #_GUI_set_Fgcolor     ; |182| 
         0000027a 0000 
    1226                      ; call occurs [#_GUI_set_Fgcolor] ; |182| 
    1227                      .dwpsn  "app_ERRmod_interface.c",183,2
    1228 0000027b 028F          MOVB      ACC,#143
    1229 0000027c 8F00+         MOVL      XAR4,#FSL36           ; |183| 
         0000027d 0116 
    1230 0000027e 7640!         LCR       #_GUI_string_display_At ; |183| 
         0000027f 0000 
    1231                      ; call occurs [#_GUI_string_display_At] ; |183| 
    1232                      .dwpsn  "app_ERRmod_interface.c",184,2
    1233 00000280 9AE0          MOVB      AL,#224               ; |184| 
    1234 00000281 7640!         LCR       #_GUI_set_Fgcolor     ; |184| 
         00000282 0000 
    1235                      ; call occurs [#_GUI_set_Fgcolor] ; |184| 
    1236                      .dwpsn  "app_ERRmod_interface.c",185,2
    1237 00000283 02D3          MOVB      ACC,#211
    1238 00000284 8F00+         MOVL      XAR4,#FSL37           ; |185| 
         00000285 011A 
    1239 00000286 7640!         LCR       #_GUI_string_display_At ; |185| 
         00000287 0000 
    1240                      ; call occurs [#_GUI_string_display_At] ; |185| 
    1241                      .dwpsn  "app_ERRmod_interface.c",186,2
    1242 00000288 9AFF          MOVB      AL,#255               ; |186| 
    1243 00000289 7640!         LCR       #_GUI_set_Fgcolor     ; |186| 
         0000028a 0000 
    1244                      ; call occurs [#_GUI_set_Fgcolor] ; |186| 
TMS320C2000 COFF Assembler PC v4.1.3 Wed Jan 12 08:12:08 2011

Tools Copyright (c) 1996-2006 Texas Instruments Incorporated
C:\DOCUME~1\ADMINI~1\LOCALS~1\Temp\TI3242                            PAGE   28

    1245                      .dwpsn  "app_ERRmod_interface.c",187,8
    1246 0000028b 2B47          MOV       *-SP[7],#0            ; |187| 
    1247                      .dwpsn  "app_ERRmod_interface.c",187,18
    1248 0000028c 9247          MOV       AL,*-SP[7]            ; |187| 
    1249 0000028d 5205          CMPB      AL,#5                 ; |187| 
    1250 0000028e 6735          B         L7,HIS                ; |187| 
    1251                      ; branchcc occurs ; |187| 
    1252              L6:    
    1253              DW$L$_app_ERRmod_P_Jcorrect_window_creat$4$B:
    1254                      .dwpsn  "app_ERRmod_interface.c",189,3
    1255 0000028f 2D47          MOV       T,*-SP[7]             ; |189| 
    1256 00000290 3503          MPYB      ACC,T,#3              ; |189| 
    1257 00000291 9C01          ADDB      AL,#1                 ; |189| 
    1258 00000292 D508          MOVB      XAR5,#8               ; |189| 
    1259 00000293 1AA9          OR        AL,#0x0200            ; |189| 
         00000294 0200 
    1260 00000295 8F00+         MOVL      XAR4,#FSL12           ; |189| 
         00000296 0050 
    1261 00000297 9641          MOV       *-SP[1],AL            ; |189| 
    1262 00000298 2D47          MOV       T,*-SP[7]             ; |189| 
    1263 00000299 3516          MPYB      ACC,T,#22             ; |189| 
    1264 0000029a 9C10          ADDB      AL,#16                ; |189| 
    1265 0000029b 93A9          MOV       AH,AL                 ; |189| 
    1266 0000029c 9A2D          MOVB      AL,#45                ; |189| 
    1267 0000029d 7640!         LCR       #_GUI_edit_memeber_add ; |189| 
         0000029e 0000 
    1268                      ; call occurs [#_GUI_edit_memeber_add] ; |189| 
    1269                      .dwpsn  "app_ERRmod_interface.c",190,3
    1270 0000029f 2D47          MOV       T,*-SP[7]             ; |190| 
    1271 000002a0 3503          MPYB      ACC,T,#3              ; |190| 
    1272 000002a1 9C02          ADDB      AL,#2                 ; |190| 
    1273 000002a2 1AA9          OR        AL,#0x0200            ; |190| 
         000002a3 0200 
    1274 000002a4 9641          MOV       *-SP[1],AL            ; |190| 
    1275 000002a5 2D47          MOV       T,*-SP[7]             ; |190| 
    1276 000002a6 3516          MPYB      ACC,T,#22             ; |190| 
    1277 000002a7 9C10          ADDB      AL,#16                ; |190| 
    1278 000002a8 D508          MOVB      XAR5,#8               ; |190| 
    1279 000002a9 93A9          MOV       AH,AL                 ; |190| 
    1280 000002aa 8F00+         MOVL      XAR4,#FSL12           ; |190| 
         000002ab 0050 
    1281 000002ac 9A75          MOVB      AL,#117               ; |190| 
    1282 000002ad 7640!         LCR       #_GUI_edit_memeber_add ; |190| 
         000002ae 0000 
    1283                      ; call occurs [#_GUI_edit_memeber_add] ; |190| 
    1284                      .dwpsn  "app_ERRmod_interface.c",191,3
    1285 000002af 2D47          MOV       T,*-SP[7]             ; |191| 
    1286 000002b0 3503          MPYB      ACC,T,#3              ; |191| 
    1287 000002b1 9C03          ADDB      AL,#3                 ; |191| 
    1288 000002b2 1AA9          OR        AL,#0x0200            ; |191| 
         000002b3 0200 
    1289 000002b4 9641          MOV       *-SP[1],AL            ; |191| 
    1290 000002b5 2D47          MOV       T,*-SP[7]             ; |191| 
    1291 000002b6 3516          MPYB      ACC,T,#22             ; |191| 
    1292 000002b7 9C10          ADDB      AL,#16                ; |191| 
TMS320C2000 COFF Assembler PC v4.1.3 Wed Jan 12 08:12:08 2011

Tools Copyright (c) 1996-2006 Texas Instruments Incorporated
C:\DOCUME~1\ADMINI~1\LOCALS~1\Temp\TI3242                            PAGE   29

    1293 000002b8 93A9          MOV       AH,AL                 ; |191| 
    1294 000002b9 D508          MOVB      XAR5,#8               ; |191| 
    1295 000002ba 8F00+         MOVL      XAR4,#FSL12           ; |191| 
         000002bb 0050 
    1296 000002bc 9ABD          MOVB      AL,#189               ; |191| 
    1297 000002bd 7640!         LCR       #_GUI_edit_memeber_add ; |191| 
         000002be 0000 
    1298                      ; call occurs [#_GUI_edit_memeber_add] ; |191| 
    1299                      .dwpsn  "app_ERRmod_interface.c",187,28
    1300 000002bf 0A47          INC       *-SP[7]               ; |187| 
    1301                      .dwpsn  "app_ERRmod_interface.c",187,18
    1302 000002c0 9247          MOV       AL,*-SP[7]            ; |187| 
    1303 000002c1 5205          CMPB      AL,#5                 ; |187| 
    1304 000002c2 68CD          B         L6,LO                 ; |187| 
    1305                      ; branchcc occurs ; |187| 
    1306              DW$L$_app_ERRmod_P_Jcorrect_window_creat$4$E:
    1307              L7:    
    1308                      .dwpsn  "app_ERRmod_interface.c",193,2
    1309 000002c3 9A15          MOVB      AL,#21                ; |193| 
    1310 000002c4 2841          MOV       *-SP[1],#528          ; |193| 
         000002c5 0210 
    1311 000002c6 D508          MOVB      XAR5,#8               ; |193| 
    1312 000002c7 8F00+         MOVL      XAR4,#FSL38           ; |193| 
         000002c8 011E 
    1313 000002c9 9B82          MOVB      AH,#130               ; |193| 
    1314 000002ca 7640!         LCR       #_GUI_edit_memeber_add ; |193| 
         000002cb 0000 
    1315                      ; call occurs [#_GUI_edit_memeber_add] ; |193| 
    1316                      .dwpsn  "app_ERRmod_interface.c",194,2
    1317 000002cc 9A95          MOVB      AL,#149               ; |194| 
    1318 000002cd 2841          MOV       *-SP[1],#528          ; |194| 
         000002ce 0210 
    1319 000002cf D508          MOVB      XAR5,#8               ; |194| 
    1320 000002d0 8F00+         MOVL      XAR4,#FSL39           ; |194| 
         000002d1 0122 
    1321 000002d2 9B82          MOVB      AH,#130               ; |194| 
    1322 000002d3 7640!         LCR       #_GUI_edit_memeber_add ; |194| 
         000002d4 0000 
    1323                      ; call occurs [#_GUI_edit_memeber_add] ; |194| 
    1324                      .dwpsn  "app_ERRmod_interface.c",195,2
    1325 000002d5 9A1C          MOVB      AL,#28                ; |195| 
    1326 000002d6 7640!         LCR       #_GUI_set_Fgcolor     ; |195| 
         000002d7 0000 
    1327                      ; call occurs [#_GUI_set_Fgcolor] ; |195| 
    1328                      .dwpsn  "app_ERRmod_interface.c",196,2
    1329 000002d8 9A79          MOVB      AL,#121               ; |196| 
    1330 000002d9 8F00+         MOVL      XAR4,#FSL40           ; |196| 
         000002da 0128 
    1331 000002db 9B82          MOVB      AH,#130               ; |196| 
    1332 000002dc 7640!         LCR       #_GUI_string_display_At ; |196| 
         000002dd 0000 
    1333                      ; call occurs [#_GUI_string_display_At] ; |196| 
    1334                      .dwpsn  "app_ERRmod_interface.c",197,2
    1335 000002de 9AE0          MOVB      AL,#224               ; |197| 
    1336 000002df 7640!         LCR       #_GUI_set_Fgcolor     ; |197| 
TMS320C2000 COFF Assembler PC v4.1.3 Wed Jan 12 08:12:08 2011

Tools Copyright (c) 1996-2006 Texas Instruments Incorporated
C:\DOCUME~1\ADMINI~1\LOCALS~1\Temp\TI3242                            PAGE   30

         000002e0 0000 
    1337                      ; call occurs [#_GUI_set_Fgcolor] ; |197| 
    1338                      .dwpsn  "app_ERRmod_interface.c",198,2
    1339 000002e1 28A9          MOV       AL,#264               ; |198| 
         000002e2 0108 
    1340 000002e3 8F00+         MOVL      XAR4,#FSL41           ; |198| 
         000002e4 012A 
    1341 000002e5 9B84          MOVB      AH,#132               ; |198| 
    1342 000002e6 7640!         LCR       #_GUI_string_display_At ; |198| 
         000002e7 0000 
    1343                      ; call occurs [#_GUI_string_display_At] ; |198| 
    1344                      .dwpsn  "app_ERRmod_interface.c",199,2
    1345 000002e8 761F-         MOVW      DP,#_m_correct_edit
         000002e9 0000 
    1346 000002ea 8A06-         MOVL      XAR4,@_m_correct_edit ; |199| 
    1347 000002eb 7640!         LCR       #_GUI_window_hwin_release ; |199| 
         000002ec 0000 
    1348                      ; call occurs [#_GUI_window_hwin_release] ; |199| 
    1349                      .dwpsn  "app_ERRmod_interface.c",200,2
    1350 000002ed 2841          MOV       *-SP[1],#25           ; |200| 
         000002ee 0019 
    1351 000002ef 761F-         MOVW      DP,#_m_correct_win
         000002f0 0000 
    1352 000002f1 9A14          MOVB      AL,#20                ; |200| 
    1353 000002f2 2842          MOV       *-SP[2],#266          ; |200| 
         000002f3 010A 
    1354 000002f4 8A00-         MOVL      XAR4,@_m_correct_win  ; |200| 
    1355 000002f5 D53C          MOVB      XAR5,#60              ; |200| 
    1356 000002f6 9BA5          MOVB      AH,#165               ; |200| 
    1357 000002f7 7640!         LCR       #_Gui_button_creat    ; |200| 
         000002f8 0000 
    1358                      ; call occurs [#_Gui_button_creat] ; |200| 
    1359 000002f9 A846          MOVL      *-SP[6],XAR4          ; |200| 
    1360                      .dwpsn  "app_ERRmod_interface.c",201,2
    1361 000002fa 8A46          MOVL      XAR4,*-SP[6]          ; |201| 
    1362 000002fb 020E          MOVB      ACC,#14
    1363 000002fc 7640!         LCR       #_Gui_button_dye      ; |201| 
         000002fd 0000 
    1364                      ; call occurs [#_Gui_button_dye] ; |201| 
    1365                      .dwpsn  "app_ERRmod_interface.c",202,2
    1366 000002fe 8A46          MOVL      XAR4,*-SP[6]          ; |202| 
    1367 000002ff 8F40+         MOVL      XAR5,#FSL29           ; |202| 
         00000300 00EC 
    1368 00000301 7640!         LCR       #_GUI_button_title_display ; |202| 
         00000302 0000 
    1369                      ; call occurs [#_GUI_button_title_display] ; |202| 
    1370                      .dwpsn  "app_ERRmod_interface.c",203,2
    1371 00000303 9244          MOV       AL,*-SP[4]            ; |203| 
    1372 00000304 5202          CMPB      AL,#2                 ; |203| 
    1373 00000305 ED18          BF        L8,NEQ                ; |203| 
    1374                      ; branchcc occurs ; |203| 
    1375                      .dwpsn  "app_ERRmod_interface.c",205,3
    1376 00000306 761F-         MOVW      DP,#_m_correct_win
         00000307 0000 
    1377 00000308 2841          MOV       *-SP[1],#25           ; |205| 
TMS320C2000 COFF Assembler PC v4.1.3 Wed Jan 12 08:12:08 2011

Tools Copyright (c) 1996-2006 Texas Instruments Incorporated
C:\DOCUME~1\ADMINI~1\LOCALS~1\Temp\TI3242                            PAGE   31

         00000309 0019 
    1378 0000030a 9AC8          MOVB      AL,#200               ; |205| 
    1379 0000030b D53C          MOVB      XAR5,#60              ; |205| 
    1380 0000030c 8A00-         MOVL      XAR4,@_m_correct_win  ; |205| 
    1381 0000030d 2842          MOV       *-SP[2],#284          ; |205| 
         0000030e 011C 
    1382 0000030f 9BA5          MOVB      AH,#165               ; |205| 
    1383 00000310 7640!         LCR       #_Gui_button_creat    ; |205| 
         00000311 0000 
    1384                      ; call occurs [#_Gui_button_creat] ; |205| 
    1385 00000312 A846          MOVL      *-SP[6],XAR4          ; |205| 
    1386                      .dwpsn  "app_ERRmod_interface.c",206,3
    1387 00000313 8A46          MOVL      XAR4,*-SP[6]          ; |206| 
    1388 00000314 020E          MOVB      ACC,#14
    1389 00000315 7640!         LCR       #_Gui_button_dye      ; |206| 
         00000316 0000 
    1390                      ; call occurs [#_Gui_button_dye] ; |206| 
    1391                      .dwpsn  "app_ERRmod_interface.c",207,3
    1392 00000317 8A46          MOVL      XAR4,*-SP[6]          ; |207| 
    1393 00000318 8F40+         MOVL      XAR5,#FSL23           ; |207| 
         00000319 00B6 
    1394 0000031a 7640!         LCR       #_GUI_button_title_display ; |207| 
         0000031b 0000 
    1395                      ; call occurs [#_GUI_button_title_display] ; |207| 
    1396                      .dwpsn  "app_ERRmod_interface.c",208,2
    1397 0000031c 6F17          B         L9,UNC                ; |208| 
    1398                      ; branch occurs ; |208| 
    1399              L8:    
    1400                      .dwpsn  "app_ERRmod_interface.c",211,3
    1401 0000031d 761F-         MOVW      DP,#_m_correct_win
         0000031e 0000 
    1402 0000031f 2841          MOV       *-SP[1],#25           ; |211| 
         00000320 0019 
    1403 00000321 9AC8          MOVB      AL,#200               ; |211| 
    1404 00000322 D53C          MOVB      XAR5,#60              ; |211| 
    1405 00000323 8A00-         MOVL      XAR4,@_m_correct_win  ; |211| 
    1406 00000324 2842          MOV       *-SP[2],#284          ; |211| 
         00000325 011C 
    1407 00000326 9BA5          MOVB      AH,#165               ; |211| 
    1408 00000327 7640!         LCR       #_Gui_button_creat    ; |211| 
         00000328 0000 
    1409                      ; call occurs [#_Gui_button_creat] ; |211| 
    1410 00000329 A846          MOVL      *-SP[6],XAR4          ; |211| 
    1411                      .dwpsn  "app_ERRmod_interface.c",212,3
    1412 0000032a 8A46          MOVL      XAR4,*-SP[6]          ; |212| 
    1413 0000032b 020E          MOVB      ACC,#14
    1414 0000032c 7640!         LCR       #_Gui_button_dye      ; |212| 
         0000032d 0000 
    1415                      ; call occurs [#_Gui_button_dye] ; |212| 
    1416                      .dwpsn  "app_ERRmod_interface.c",213,3
    1417 0000032e 8A46          MOVL      XAR4,*-SP[6]          ; |213| 
    1418 0000032f 8F40+         MOVL      XAR5,#FSL42           ; |213| 
         00000330 012C 
    1419 00000331 7640!         LCR       #_GUI_button_title_display ; |213| 
         00000332 0000 
TMS320C2000 COFF Assembler PC v4.1.3 Wed Jan 12 08:12:08 2011

Tools Copyright (c) 1996-2006 Texas Instruments Incorporated
C:\DOCUME~1\ADMINI~1\LOCALS~1\Temp\TI3242                            PAGE   32

    1420                      ; call occurs [#_GUI_button_title_display] ; |213| 
    1421              L9:    
    1422                      .dwpsn  "app_ERRmod_interface.c",215,2
    1423 00000333 761F-         MOVW      DP,#_m_correct_win
         00000334 0000 
    1424 00000335 8A00-         MOVL      XAR4,@_m_correct_win  ; |215| 
    1425 00000336 7640!         LCR       #_GUI_window_hwin_release ; |215| 
         00000337 0000 
    1426                      ; call occurs [#_GUI_window_hwin_release] ; |215| 
    1427                      .dwpsn  "app_ERRmod_interface.c",216,2
    1428                      .dwpsn  "app_ERRmod_interface.c",217,1
    1429 00000338 FE88          SUBB      SP,#8
    1430                      .dwcfa  0x1d, -2
    1431 00000339 0006          LRETR
    1432                      ; return occurs
    1433              
    1434              DW$113  .dwtag  DW_TAG_loop
    1435                      .dwattr DW$113, DW_AT_name("C:\DOCUME~1\ADMINI~1\LOCALS~1\Temp\TI3242:L6:1:1294791128")
    1436                      .dwattr DW$113, DW_AT_begin_file("app_ERRmod_interface.c")
    1437                      .dwattr DW$113, DW_AT_begin_line(0xbb)
    1438                      .dwattr DW$113, DW_AT_end_line(0xc0)
    1439              DW$114  .dwtag  DW_TAG_loop_range
    1440                      .dwattr DW$114, DW_AT_low_pc(DW$L$_app_ERRmod_P_Jcorrect_window_creat$4$B)
    1441                      .dwattr DW$114, DW_AT_high_pc(DW$L$_app_ERRmod_P_Jcorrect_window_creat$4$E)
    1442                      .dwendtag DW$113
    1443              
    1444                      .dwattr DW$108, DW_AT_end_file("app_ERRmod_interface.c")
    1445                      .dwattr DW$108, DW_AT_end_line(0xd9)
    1446                      .dwattr DW$108, DW_AT_end_column(0x01)
    1447                      .dwendentry
    1448                      .dwendtag DW$108
    1449              
    1450 0000033a               .sect   ".text"
    1451                      .global _app_ERRmod_P_Jcorrect_window_destroy
    1452              
    1453              DW$115  .dwtag  DW_TAG_subprogram, DW_AT_name("app_ERRmod_P_Jcorrect_window_destroy"), DW_AT_symbol_name("_ap
    1454                      .dwattr DW$115, DW_AT_low_pc(_app_ERRmod_P_Jcorrect_window_destroy)
    1455                      .dwattr DW$115, DW_AT_high_pc(0x00)
    1456                      .dwattr DW$115, DW_AT_begin_file("app_ERRmod_interface.c")
    1457                      .dwattr DW$115, DW_AT_begin_line(0xdb)
    1458                      .dwattr DW$115, DW_AT_begin_column(0x06)
    1459                      .dwpsn  "app_ERRmod_interface.c",220,1
    1460              
    1461                      .dwfde DW$CIE
    1462              
    1463              ;***************************************************************
    1464              ;* FNAME: _app_ERRmod_P_Jcorrect_window_destroy FR SIZE:   0           *
    1465              ;*                                                             *
    1466              ;* FUNCTION ENVIRONMENT                                        *
    1467              ;*                                                             *
    1468              ;* FUNCTION PROPERTIES                                         *
    1469              ;*                            0 Parameter,  0 Auto,  0 SOE     *
    1470              ;***************************************************************
    1471              
    1472              _app_ERRmod_P_Jcorrect_window_destroy:
TMS320C2000 COFF Assembler PC v4.1.3 Wed Jan 12 08:12:08 2011

Tools Copyright (c) 1996-2006 Texas Instruments Incorporated
C:\DOCUME~1\ADMINI~1\LOCALS~1\Temp\TI3242                            PAGE   33

    1473                      .dwcfa  0x1d, -2
    1474                      .dwcfa  0x1c, 26, 0
    1475                      .dwcfa  0x09, 40, 26
    1476                      .dwpsn  "app_ERRmod_interface.c",221,2
    1477 0000033a 761F-         MOVW      DP,#_m_correct_win
         0000033b 0000 
    1478 0000033c 8A00-         MOVL      XAR4,@_m_correct_win  ; |221| 
    1479 0000033d 7640!         LCR       #_GUI_window_destory  ; |221| 
         0000033e 0000 
    1480                      ; call occurs [#_GUI_window_destory] ; |221| 
    1481                      .dwpsn  "app_ERRmod_interface.c",222,2
    1482                      .dwpsn  "app_ERRmod_interface.c",223,1
    1483 0000033f 0006          LRETR
    1484                      ; return occurs
    1485                      .dwattr DW$115, DW_AT_end_file("app_ERRmod_interface.c")
    1486                      .dwattr DW$115, DW_AT_end_line(0xdf)
    1487                      .dwattr DW$115, DW_AT_end_column(0x01)
    1488                      .dwendentry
    1489                      .dwendtag DW$115
    1490              
    1491 00000340               .sect   ".text"
    1492                      .global _app_ERRmod_correct_window_entery
    1493              
    1494              DW$116  .dwtag  DW_TAG_subprogram, DW_AT_name("app_ERRmod_correct_window_entery"), DW_AT_symbol_name("_app_ER
    1495                      .dwattr DW$116, DW_AT_low_pc(_app_ERRmod_correct_window_entery)
    1496                      .dwattr DW$116, DW_AT_high_pc(0x00)
    1497                      .dwattr DW$116, DW_AT_begin_file("app_ERRmod_interface.c")
    1498                      .dwattr DW$116, DW_AT_begin_line(0xe6)
    1499                      .dwattr DW$116, DW_AT_begin_column(0x06)
    1500                      .dwpsn  "app_ERRmod_interface.c",231,1
    1501              
    1502                      .dwfde DW$CIE
    1503              
    1504              ;***************************************************************
    1505              ;* FNAME: _app_ERRmod_correct_window_entery FR SIZE:   2           *
    1506              ;*                                                             *
    1507              ;* FUNCTION ENVIRONMENT                                        *
    1508              ;*                                                             *
    1509              ;* FUNCTION PROPERTIES                                         *
    1510              ;*                            0 Parameter,  1 Auto,  0 SOE     *
    1511              ;***************************************************************
    1512              
    1513              _app_ERRmod_correct_window_entery:
    1514                      .dwcfa  0x1d, -2
    1515                      .dwcfa  0x1c, 26, 0
    1516                      .dwcfa  0x09, 40, 26
    1517 00000340 FE02          ADDB      SP,#2
    1518                      .dwcfa  0x1d, -4
    1519              ;* AL    assigned to _offset
    1520              DW$117  .dwtag  DW_TAG_formal_parameter, DW_AT_name("offset"), DW_AT_symbol_name("_offset")
    1521                      .dwattr DW$117, DW_AT_type(*DW$T$6)
    1522                      .dwattr DW$117, DW_AT_location[DW_OP_reg0]
    1523              DW$118  .dwtag  DW_TAG_variable, DW_AT_name("offset"), DW_AT_symbol_name("_offset")
    1524                      .dwattr DW$118, DW_AT_type(*DW$T$6)
    1525                      .dwattr DW$118, DW_AT_location[DW_OP_breg20 -1]
TMS320C2000 COFF Assembler PC v4.1.3 Wed Jan 12 08:12:08 2011

Tools Copyright (c) 1996-2006 Texas Instruments Incorporated
C:\DOCUME~1\ADMINI~1\LOCALS~1\Temp\TI3242                            PAGE   34

    1526 00000341 9641          MOV       *-SP[1],AL            ; |231| 
    1527                      .dwpsn  "app_ERRmod_interface.c",232,2
    1528 00000342 5200          CMPB      AL,#0                 ; |232| 
    1529 00000343 ED04          BF        L10,NEQ               ; |232| 
    1530                      ; branchcc occurs ; |232| 
    1531                      .dwpsn  "app_ERRmod_interface.c",232,23
    1532 00000344 7640'         LCR       #_app_ERRmod_Ucorrect_window_creat ; |232| 
         00000345 004A 
    1533                      ; call occurs [#_app_ERRmod_Ucorrect_window_creat] ; |232| 
    1534 00000346 6F0F          B         L13,UNC               ; |232| 
    1535                      ; branch occurs ; |232| 
    1536              L10:    
    1537                      .dwpsn  "app_ERRmod_interface.c",233,7
    1538 00000347 5201          CMPB      AL,#1                 ; |233| 
    1539 00000348 ED04          BF        L11,NEQ               ; |233| 
    1540                      ; branchcc occurs ; |233| 
    1541                      .dwpsn  "app_ERRmod_interface.c",233,28
    1542 00000349 7640'         LCR       #_app_ERRmod_Icorrect_window_creat ; |233| 
         0000034a 011B 
    1543                      ; call occurs [#_app_ERRmod_Icorrect_window_creat] ; |233| 
    1544 0000034b 6F0A          B         L13,UNC               ; |233| 
    1545                      ; branch occurs ; |233| 
    1546              L11:    
    1547                      .dwpsn  "app_ERRmod_interface.c",234,7
    1548 0000034c 5202          CMPB      AL,#2                 ; |234| 
    1549 0000034d ED04          BF        L12,NEQ               ; |234| 
    1550                      ; branchcc occurs ; |234| 
    1551                      .dwpsn  "app_ERRmod_interface.c",234,28
    1552 0000034e 7640'         LCR       #_app_ERRmod_P_Jcorrect_window_creat ; |234| 
         0000034f 020F 
    1553                      ; call occurs [#_app_ERRmod_P_Jcorrect_window_creat] ; |234| 
    1554 00000350 6F05          B         L13,UNC               ; |234| 
    1555                      ; branch occurs ; |234| 
    1556              L12:    
    1557                      .dwpsn  "app_ERRmod_interface.c",235,7
    1558 00000351 5203          CMPB      AL,#3                 ; |235| 
    1559 00000352 ED03          BF        L13,NEQ               ; |235| 
    1560                      ; branchcc occurs ; |235| 
    1561                      .dwpsn  "app_ERRmod_interface.c",235,28
    1562 00000353 7640'         LCR       #_app_ERRmod_P_Jcorrect_window_creat ; |235| 
         00000354 020F 
    1563                      ; call occurs [#_app_ERRmod_P_Jcorrect_window_creat] ; |235| 
    1564                      .dwpsn  "app_ERRmod_interface.c",236,2
    1565              L13:    
    1566                      .dwpsn  "app_ERRmod_interface.c",237,1
    1567 00000355 FE82          SUBB      SP,#2
    1568                      .dwcfa  0x1d, -2
    1569 00000356 0006          LRETR
    1570                      ; return occurs
    1571                      .dwattr DW$116, DW_AT_end_file("app_ERRmod_interface.c")
    1572                      .dwattr DW$116, DW_AT_end_line(0xed)
    1573                      .dwattr DW$116, DW_AT_end_column(0x01)
    1574                      .dwendentry
    1575                      .dwendtag DW$116
    1576              
TMS320C2000 COFF Assembler PC v4.1.3 Wed Jan 12 08:12:08 2011

Tools Copyright (c) 1996-2006 Texas Instruments Incorporated
C:\DOCUME~1\ADMINI~1\LOCALS~1\Temp\TI3242                            PAGE   35

    1577 00000357               .sect   ".text"
    1578                      .global _app_ERRmod_correct_window_exit
    1579              
    1580              DW$119  .dwtag  DW_TAG_subprogram, DW_AT_name("app_ERRmod_correct_window_exit"), DW_AT_symbol_name("_app_ERRm
    1581                      .dwattr DW$119, DW_AT_low_pc(_app_ERRmod_correct_window_exit)
    1582                      .dwattr DW$119, DW_AT_high_pc(0x00)
    1583                      .dwattr DW$119, DW_AT_begin_file("app_ERRmod_interface.c")
    1584                      .dwattr DW$119, DW_AT_begin_line(0xf4)
    1585                      .dwattr DW$119, DW_AT_begin_column(0x06)
    1586                      .dwpsn  "app_ERRmod_interface.c",245,1
    1587              
    1588                      .dwfde DW$CIE
    1589              
    1590              ;***************************************************************
    1591              ;* FNAME: _app_ERRmod_correct_window_exit FR SIZE:   2           *
    1592              ;*                                                             *
    1593              ;* FUNCTION ENVIRONMENT                                        *
    1594              ;*                                                             *
    1595              ;* FUNCTION PROPERTIES                                         *
    1596              ;*                            0 Parameter,  1 Auto,  0 SOE     *
    1597              ;***************************************************************
    1598              
    1599              _app_ERRmod_correct_window_exit:
    1600                      .dwcfa  0x1d, -2
    1601                      .dwcfa  0x1c, 26, 0
    1602                      .dwcfa  0x09, 40, 26
    1603 00000357 FE02          ADDB      SP,#2
    1604                      .dwcfa  0x1d, -4
    1605              ;* AL    assigned to _offset
    1606              DW$120  .dwtag  DW_TAG_formal_parameter, DW_AT_name("offset"), DW_AT_symbol_name("_offset")
    1607                      .dwattr DW$120, DW_AT_type(*DW$T$6)
    1608                      .dwattr DW$120, DW_AT_location[DW_OP_reg0]
    1609              DW$121  .dwtag  DW_TAG_variable, DW_AT_name("offset"), DW_AT_symbol_name("_offset")
    1610                      .dwattr DW$121, DW_AT_type(*DW$T$6)
    1611                      .dwattr DW$121, DW_AT_location[DW_OP_breg20 -1]
    1612 00000358 9641          MOV       *-SP[1],AL            ; |245| 
    1613                      .dwpsn  "app_ERRmod_interface.c",246,2
    1614 00000359 5200          CMPB      AL,#0                 ; |246| 
    1615 0000035a ED04          BF        L14,NEQ               ; |246| 
    1616                      ; branchcc occurs ; |246| 
    1617                      .dwpsn  "app_ERRmod_interface.c",246,23
    1618 0000035b 7640'         LCR       #_app_ERRmod_Ucorrect_window_destroy ; |246| 
         0000035c 0115 
    1619                      ; call occurs [#_app_ERRmod_Ucorrect_window_destroy] ; |246| 
    1620 0000035d 6F0F          B         L17,UNC               ; |246| 
    1621                      ; branch occurs ; |246| 
    1622              L14:    
    1623                      .dwpsn  "app_ERRmod_interface.c",247,7
    1624 0000035e 5201          CMPB      AL,#1                 ; |247| 
    1625 0000035f ED04          BF        L15,NEQ               ; |247| 
    1626                      ; branchcc occurs ; |247| 
    1627                      .dwpsn  "app_ERRmod_interface.c",247,28
    1628 00000360 7640'         LCR       #_app_ERRmod_Icorrect_window_destroy ; |247| 
         00000361 0209 
    1629                      ; call occurs [#_app_ERRmod_Icorrect_window_destroy] ; |247| 
TMS320C2000 COFF Assembler PC v4.1.3 Wed Jan 12 08:12:08 2011

Tools Copyright (c) 1996-2006 Texas Instruments Incorporated
C:\DOCUME~1\ADMINI~1\LOCALS~1\Temp\TI3242                            PAGE   36

    1630 00000362 6F0A          B         L17,UNC               ; |247| 
    1631                      ; branch occurs ; |247| 
    1632              L15:    
    1633                      .dwpsn  "app_ERRmod_interface.c",248,7
    1634 00000363 5202          CMPB      AL,#2                 ; |248| 
    1635 00000364 ED04          BF        L16,NEQ               ; |248| 
    1636                      ; branchcc occurs ; |248| 
    1637                      .dwpsn  "app_ERRmod_interface.c",248,28
    1638 00000365 7640'         LCR       #_app_ERRmod_P_Jcorrect_window_destroy ; |248| 
         00000366 033A 
    1639                      ; call occurs [#_app_ERRmod_P_Jcorrect_window_destroy] ; |248| 
    1640 00000367 6F05          B         L17,UNC               ; |248| 
    1641                      ; branch occurs ; |248| 
    1642              L16:    
    1643                      .dwpsn  "app_ERRmod_interface.c",249,7
    1644 00000368 5203          CMPB      AL,#3                 ; |249| 
    1645 00000369 ED03          BF        L17,NEQ               ; |249| 
    1646                      ; branchcc occurs ; |249| 
    1647                      .dwpsn  "app_ERRmod_interface.c",249,28
    1648 0000036a 7640'         LCR       #_app_ERRmod_P_Jcorrect_window_destroy ; |249| 
         0000036b 033A 
    1649                      ; call occurs [#_app_ERRmod_P_Jcorrect_window_destroy] ; |249| 
    1650                      .dwpsn  "app_ERRmod_interface.c",250,2
    1651              L17:    
    1652                      .dwpsn  "app_ERRmod_interface.c",251,1
    1653 0000036c FE82          SUBB      SP,#2
    1654                      .dwcfa  0x1d, -2
    1655 0000036d 0006          LRETR
    1656                      ; return occurs
    1657                      .dwattr DW$119, DW_AT_end_file("app_ERRmod_interface.c")
    1658                      .dwattr DW$119, DW_AT_end_line(0xfb)
    1659                      .dwattr DW$119, DW_AT_end_column(0x01)
    1660                      .dwendentry
    1661                      .dwendtag DW$119
    1662              
    1663 0000036e               .sect   ".text"
    1664                      .global _app_ERRmod_window_creat
    1665              
    1666              DW$122  .dwtag  DW_TAG_subprogram, DW_AT_name("app_ERRmod_window_creat"), DW_AT_symbol_name("_app_ERRmod_wind
    1667                      .dwattr DW$122, DW_AT_low_pc(_app_ERRmod_window_creat)
    1668                      .dwattr DW$122, DW_AT_high_pc(0x00)
    1669                      .dwattr DW$122, DW_AT_begin_file("app_ERRmod_interface.c")
    1670                      .dwattr DW$122, DW_AT_begin_line(0x102)
    1671                      .dwattr DW$122, DW_AT_begin_column(0x06)
    1672                      .dwpsn  "app_ERRmod_interface.c",259,1
    1673              
    1674                      .dwfde DW$CIE
    1675              
    1676              ;***************************************************************
    1677              ;* FNAME: _app_ERRmod_window_creat      FR SIZE:   8           *
    1678              ;*                                                             *
    1679              ;* FUNCTION ENVIRONMENT                                        *
    1680              ;*                                                             *
    1681              ;* FUNCTION PROPERTIES                                         *
    1682              ;*                            3 Parameter,  5 Auto,  0 SOE     *
TMS320C2000 COFF Assembler PC v4.1.3 Wed Jan 12 08:12:08 2011

Tools Copyright (c) 1996-2006 Texas Instruments Incorporated
C:\DOCUME~1\ADMINI~1\LOCALS~1\Temp\TI3242                            PAGE   37

    1683              ;***************************************************************
    1684              
    1685              _app_ERRmod_window_creat:
    1686                      .dwcfa  0x1d, -2
    1687                      .dwcfa  0x1c, 26, 0
    1688                      .dwcfa  0x09, 40, 26
    1689 0000036e FE08          ADDB      SP,#8
    1690                      .dwcfa  0x1d, -10
    1691              DW$123  .dwtag  DW_TAG_variable, DW_AT_name("offset"), DW_AT_symbol_name("_offset")
    1692                      .dwattr DW$123, DW_AT_type(*DW$T$19)
    1693                      .dwattr DW$123, DW_AT_location[DW_OP_breg20 -4]
    1694              DW$124  .dwtag  DW_TAG_variable, DW_AT_name("hp"), DW_AT_symbol_name("_hp")
    1695                      .dwattr DW$124, DW_AT_type(*DW$T$38)
    1696                      .dwattr DW$124, DW_AT_location[DW_OP_breg20 -6]
    1697              DW$125  .dwtag  DW_TAG_variable, DW_AT_name("ptitle"), DW_AT_symbol_name("_ptitle")
    1698                      .dwattr DW$125, DW_AT_type(*DW$T$43)
    1699                      .dwattr DW$125, DW_AT_location[DW_OP_breg20 -8]
    1700                      .dwpsn  "app_ERRmod_interface.c",262,7
    1701 0000036f 9A1E          MOVB      AL,#30                ; |262| 
    1702 00000370 7640!         LCR       #_app_malloc          ; |262| 
         00000371 0000 
    1703                      ; call occurs [#_app_malloc] ; |262| 
    1704 00000372 A848          MOVL      *-SP[8],XAR4          ; |262| 
    1705                      .dwpsn  "app_ERRmod_interface.c",263,2
    1706 00000373 9A03          MOVB      AL,#3                 ; |263| 
    1707 00000374 7640!         LCR       #_GUI_set_Bgcolor     ; |263| 
         00000375 0000 
    1708                      ; call occurs [#_GUI_set_Bgcolor] ; |263| 
    1709                      .dwpsn  "app_ERRmod_interface.c",264,2
    1710 00000376 7640!         LCR       #_GUI_clean_screen    ; |264| 
         00000377 0000 
    1711                      ; call occurs [#_GUI_clean_screen] ; |264| 
    1712                      .dwpsn  "app_ERRmod_interface.c",265,2
    1713 00000378 9A0A          MOVB      AL,#10                ; |265| 
    1714 00000379 7640!         LCR       #_GUI_set_Bgcolor     ; |265| 
         0000037a 0000 
    1715                      ; call occurs [#_GUI_set_Bgcolor] ; |265| 
    1716                      .dwpsn  "app_ERRmod_interface.c",266,2
    1717 0000037b 9AFF          MOVB      AL,#255               ; |266| 
    1718 0000037c 7640!         LCR       #_GUI_set_Fgcolor     ; |266| 
         0000037d 0000 
    1719                      ; call occurs [#_GUI_set_Fgcolor] ; |266| 
    1720                      .dwpsn  "app_ERRmod_interface.c",267,2
    1721 0000037e 7640!         LCR       #_GUI_hwin_obtain     ; |267| 
         0000037f 0000 
    1722                      ; call occurs [#_GUI_hwin_obtain] ; |267| 
    1723 00000380 3B01          SETC      SXM
    1724 00000381 761F!         MOVW      DP,#_g_language
         00000382 0000 
    1725 00000383 83A4          MOVL      XAR5,XAR4             ; |267| 
    1726 00000384 5603!         MOV       ACC,@_g_language << 1 ; |267| 
         00000385 0100 
    1727 00000386 8F00-         MOVL      XAR4,#_m_err_title    ; |267| 
         00000387 0008 
    1728 00000388 5601          ADDL      XAR4,ACC
TMS320C2000 COFF Assembler PC v4.1.3 Wed Jan 12 08:12:08 2011

Tools Copyright (c) 1996-2006 Texas Instruments Incorporated
C:\DOCUME~1\ADMINI~1\LOCALS~1\Temp\TI3242                            PAGE   38

         00000389 00A4 
    1729 0000038a 2841          MOV       *-SP[1],#200          ; |267| 
         0000038b 00C8 
    1730 0000038c 2842          MOV       *-SP[2],#220          ; |267| 
         0000038d 00DC 
    1731 0000038e 2843          MOV       *-SP[3],#1536         ; |267| 
         0000038f 0600 
    1732 00000390 8AC4          MOVL      XAR4,*+XAR4[0]        ; |267| 
    1733 00000391 9A3C          MOVB      AL,#60                ; |267| 
    1734 00000392 9B0A          MOVB      AH,#10                ; |267| 
    1735 00000393 7640!         LCR       #_Gui_3D_window_creat ; |267| 
         00000394 0000 
    1736                      ; call occurs [#_Gui_3D_window_creat] ; |267| 
    1737 00000395 761F-         MOVW      DP,#_m_err_main_win
         00000396 0000 
    1738 00000397 A802-         MOVL      @_m_err_main_win,XAR4 ; |267| 
    1739                      .dwpsn  "app_ERRmod_interface.c",268,2
    1740 00000398 8A02-         MOVL      XAR4,@_m_err_main_win ; |268| 
    1741 00000399 7640!         LCR       #_GUI_window_hwin_req ; |268| 
         0000039a 0000 
    1742                      ; call occurs [#_GUI_window_hwin_req] ; |268| 
    1743                      .dwpsn  "app_ERRmod_interface.c",269,8
    1744 0000039b 2B44          MOV       *-SP[4],#0            ; |269| 
    1745                      .dwpsn  "app_ERRmod_interface.c",269,19
    1746 0000039c 9244          MOV       AL,*-SP[4]            ; |269| 
    1747 0000039d 5205          CMPB      AL,#5                 ; |269| 
    1748 0000039e 6737          B         L19,HIS               ; |269| 
    1749                      ; branchcc occurs ; |269| 
    1750              L18:    
    1751              DW$L$_app_ERRmod_window_creat$2$B:
    1752                      .dwpsn  "app_ERRmod_interface.c",271,3
    1753 0000039f 7640!         LCR       #_app_global_Ntokey   ; |271| 
         000003a0 0000 
    1754                      ; call occurs [#_app_global_Ntokey] ; |271| 
    1755 000003a1 28A8          MOV       AH,#256               ; |271| 
         000003a2 0100 
    1756 000003a3 2841          MOV       *-SP[1],#20           ; |271| 
         000003a4 0014 
    1757 000003a5 CBA9          OR        AH,AL                 ; |271| 
    1758 000003a6 9742          MOV       *-SP[2],AH            ; |271| 
    1759 000003a7 2D44          MOV       T,*-SP[4]             ; |271| 
    1760 000003a8 761F-         MOVW      DP,#_m_err_main_win
         000003a9 0000 
    1761 000003aa 3523          MPYB      ACC,T,#35             ; |271| 
    1762 000003ab D591          MOVB      XAR5,#145             ; |271| 
    1763 000003ac 9C14          ADDB      AL,#20                ; |271| 
    1764 000003ad 8A02-         MOVL      XAR4,@_m_err_main_win ; |271| 
    1765 000003ae 93A9          MOV       AH,AL                 ; |271| 
    1766 000003af 9A1B          MOVB      AL,#27                ; |271| 
    1767 000003b0 7640!         LCR       #_Gui_button_creat    ; |271| 
         000003b1 0000 
    1768                      ; call occurs [#_Gui_button_creat] ; |271| 
    1769 000003b2 A846          MOVL      *-SP[6],XAR4          ; |271| 
    1770                      .dwpsn  "app_ERRmod_interface.c",272,3
    1771 000003b3 8A48          MOVL      XAR4,*-SP[8]          ; |272| 
TMS320C2000 COFF Assembler PC v4.1.3 Wed Jan 12 08:12:08 2011

Tools Copyright (c) 1996-2006 Texas Instruments Incorporated
C:\DOCUME~1\ADMINI~1\LOCALS~1\Temp\TI3242                            PAGE   39

    1772 000003b4 9244          MOV       AL,*-SP[4]            ; |272| 
    1773 000003b5 7640!         LCR       #_global_itoa         ; |272| 
         000003b6 0000 
    1774                      ; call occurs [#_global_itoa] ; |272| 
    1775                      .dwpsn  "app_ERRmod_interface.c",273,3
    1776 000003b7 8A48          MOVL      XAR4,*-SP[8]          ; |273| 
    1777 000003b8 8F40+         MOVL      XAR5,#FSL43           ; |273| 
         000003b9 0132 
    1778 000003ba 7640!         LCR       #_global_strcat       ; |273| 
         000003bb 0000 
    1779                      ; call occurs [#_global_strcat] ; |273| 
    1780                      .dwpsn  "app_ERRmod_interface.c",274,3
    1781 000003bc 0E44          MOVU      ACC,*-SP[4]
    1782 000003bd 8F00-         MOVL      XAR4,#_m_err_option   ; |274| 
         000003be 001C 
    1783 000003bf FF31          LSL       ACC,2                 ; |274| 
    1784 000003c0 5601          ADDL      XAR4,ACC
         000003c1 00A4 
    1785 000003c2 3B01          SETC      SXM
    1786 000003c3 761F!         MOVW      DP,#_g_language
         000003c4 0000 
    1787 000003c5 5603!         MOV       ACC,@_g_language << 1 ; |274| 
         000003c6 0100 
    1788 000003c7 5601          ADDL      XAR4,ACC
         000003c8 00A4 
    1789 000003c9 83C4          MOVL      XAR5,*+XAR4[0]        ; |274| 
    1790 000003ca 8A48          MOVL      XAR4,*-SP[8]          ; |274| 
    1791 000003cb 7640!         LCR       #_global_strcat       ; |274| 
         000003cc 0000 
    1792                      ; call occurs [#_global_strcat] ; |274| 
    1793                      .dwpsn  "app_ERRmod_interface.c",275,3
    1794 000003cd 8A46          MOVL      XAR4,*-SP[6]          ; |275| 
    1795 000003ce 8348          MOVL      XAR5,*-SP[8]          ; |275| 
    1796 000003cf 7640!         LCR       #_GUI_button_title_display ; |275| 
         000003d0 0000 
    1797                      ; call occurs [#_GUI_button_title_display] ; |275| 
    1798                      .dwpsn  "app_ERRmod_interface.c",269,58
    1799 000003d1 0A44          INC       *-SP[4]               ; |269| 
    1800                      .dwpsn  "app_ERRmod_interface.c",269,19
    1801 000003d2 9244          MOV       AL,*-SP[4]            ; |269| 
    1802 000003d3 5205          CMPB      AL,#5                 ; |269| 
    1803 000003d4 68CB          B         L18,LO                ; |269| 
    1804                      ; branchcc occurs ; |269| 
    1805              DW$L$_app_ERRmod_window_creat$2$E:
    1806              L19:    
    1807                      .dwpsn  "app_ERRmod_interface.c",277,2
    1808 000003d5 761F-         MOVW      DP,#_m_err_main_win
         000003d6 0000 
    1809 000003d7 8A02-         MOVL      XAR4,@_m_err_main_win ; |277| 
    1810 000003d8 7640!         LCR       #_GUI_window_hwin_release ; |277| 
         000003d9 0000 
    1811                      ; call occurs [#_GUI_window_hwin_release] ; |277| 
    1812                      .dwpsn  "app_ERRmod_interface.c",278,2
    1813 000003da 8A48          MOVL      XAR4,*-SP[8]          ; |278| 
    1814 000003db 7640!         LCR       #_app_free            ; |278| 
TMS320C2000 COFF Assembler PC v4.1.3 Wed Jan 12 08:12:08 2011

Tools Copyright (c) 1996-2006 Texas Instruments Incorporated
C:\DOCUME~1\ADMINI~1\LOCALS~1\Temp\TI3242                            PAGE   40

         000003dc 0000 
    1815                      ; call occurs [#_app_free] ; |278| 
    1816                      .dwpsn  "app_ERRmod_interface.c",279,2
    1817                      .dwpsn  "app_ERRmod_interface.c",280,1
    1818 000003dd FE88          SUBB      SP,#8
    1819                      .dwcfa  0x1d, -2
    1820 000003de 0006          LRETR
    1821                      ; return occurs
    1822              
    1823              DW$126  .dwtag  DW_TAG_loop
    1824                      .dwattr DW$126, DW_AT_name("C:\DOCUME~1\ADMINI~1\LOCALS~1\Temp\TI3242:L18:1:1294791128")
    1825                      .dwattr DW$126, DW_AT_begin_file("app_ERRmod_interface.c")
    1826                      .dwattr DW$126, DW_AT_begin_line(0x10d)
    1827                      .dwattr DW$126, DW_AT_end_line(0x114)
    1828              DW$127  .dwtag  DW_TAG_loop_range
    1829                      .dwattr DW$127, DW_AT_low_pc(DW$L$_app_ERRmod_window_creat$2$B)
    1830                      .dwattr DW$127, DW_AT_high_pc(DW$L$_app_ERRmod_window_creat$2$E)
    1831                      .dwendtag DW$126
    1832              
    1833                      .dwattr DW$122, DW_AT_end_file("app_ERRmod_interface.c")
    1834                      .dwattr DW$122, DW_AT_end_line(0x118)
    1835                      .dwattr DW$122, DW_AT_end_column(0x01)
    1836                      .dwendentry
    1837                      .dwendtag DW$122
    1838              
    1839 000003df               .sect   ".text"
    1840                      .global _app_ERRmod_window_destroy
    1841              
    1842              DW$128  .dwtag  DW_TAG_subprogram, DW_AT_name("app_ERRmod_window_destroy"), DW_AT_symbol_name("_app_ERRmod_wi
    1843                      .dwattr DW$128, DW_AT_low_pc(_app_ERRmod_window_destroy)
    1844                      .dwattr DW$128, DW_AT_high_pc(0x00)
    1845                      .dwattr DW$128, DW_AT_begin_file("app_ERRmod_interface.c")
    1846                      .dwattr DW$128, DW_AT_begin_line(0x119)
    1847                      .dwattr DW$128, DW_AT_begin_column(0x06)
    1848                      .dwpsn  "app_ERRmod_interface.c",282,1
    1849              
    1850                      .dwfde DW$CIE
    1851              
    1852              ;***************************************************************
    1853              ;* FNAME: _app_ERRmod_window_destroy    FR SIZE:   0           *
    1854              ;*                                                             *
    1855              ;* FUNCTION ENVIRONMENT                                        *
    1856              ;*                                                             *
    1857              ;* FUNCTION PROPERTIES                                         *
    1858              ;*                            0 Parameter,  0 Auto,  0 SOE     *
    1859              ;***************************************************************
    1860              
    1861              _app_ERRmod_window_destroy:
    1862                      .dwcfa  0x1d, -2
    1863                      .dwcfa  0x1c, 26, 0
    1864                      .dwcfa  0x09, 40, 26
    1865                      .dwpsn  "app_ERRmod_interface.c",283,2
    1866 000003df 761F-         MOVW      DP,#_m_err_main_win
         000003e0 0000 
    1867 000003e1 8A02-         MOVL      XAR4,@_m_err_main_win ; |283| 
TMS320C2000 COFF Assembler PC v4.1.3 Wed Jan 12 08:12:08 2011

Tools Copyright (c) 1996-2006 Texas Instruments Incorporated
C:\DOCUME~1\ADMINI~1\LOCALS~1\Temp\TI3242                            PAGE   41

    1868 000003e2 7640!         LCR       #_GUI_window_destory  ; |283| 
         000003e3 0000 
    1869                      ; call occurs [#_GUI_window_destory] ; |283| 
    1870                      .dwpsn  "app_ERRmod_interface.c",284,2
    1871                      .dwpsn  "app_ERRmod_interface.c",285,1
    1872 000003e4 0006          LRETR
    1873                      ; return occurs
    1874                      .dwattr DW$128, DW_AT_end_file("app_ERRmod_interface.c")
    1875                      .dwattr DW$128, DW_AT_end_line(0x11d)
    1876                      .dwattr DW$128, DW_AT_end_column(0x01)
    1877                      .dwendentry
    1878                      .dwendtag DW$128
    1879              
    1880              ;***************************************************************
    1881              ;* FAR STRINGS                                                 *
    1882              ;***************************************************************
    1883 00000000               .sect   ".econst"
    1884                      .align  2
    1885 00000000 0020  FSL1:   .string "   ",161,190,206,243,178,238,208,222,213,253,161,191,"  ",0
         00000001 0020 
         00000002 0020 
         00000003 00A1 
         00000004 00BE 
         00000005 00CE 
         00000006 00F3 
         00000007 00B2 
         00000008 00EE 
         00000009 00D0 
         0000000a 00DE 
         0000000b 00D5 
         0000000c 00FD 
         0000000d 00A1 
         0000000e 00BF 
         0000000f 0020 
         00000010 0020 
         00000011 0000 
    1886                      .align  2
    1887 00000012 00A1  FSL2:   .string 161,190,161,191,0
         00000013 00BE 
         00000014 00A1 
         00000015 00BF 
         00000016 0000 
    1888                      .align  2
    1889 00000018 0035  FSL3:   .string "5A",199,175,177,237,0
         00000019 0041 
         0000001a 00C7 
         0000001b 00AF 
         0000001c 00B1 
         0000001d 00ED 
         0000001e 0000 
    1890                      .align  2
    1891 00000020 0032  FSL4:   .string "20A",199,175,177,237,0
         00000021 0030 
         00000022 0041 
         00000023 00C7 
TMS320C2000 COFF Assembler PC v4.1.3 Wed Jan 12 08:12:08 2011

Tools Copyright (c) 1996-2006 Texas Instruments Incorporated
C:\DOCUME~1\ADMINI~1\LOCALS~1\Temp\TI3242                            PAGE   42

         00000024 00AF 
         00000025 00B1 
         00000026 00ED 
         00000027 0000 
    1892                      .align  2
    1893 00000028 0035  FSL5:   .string "500A",199,175,0
         00000029 0030 
         0000002a 0030 
         0000002b 0041 
         0000002c 00C7 
         0000002d 00AF 
         0000002e 0000 
    1894                      .align  2
    1895 00000030 0031  FSL6:   .string "1000A",199,175,0
         00000031 0030 
         00000032 0030 
         00000033 0030 
         00000034 0041 
         00000035 00C7 
         00000036 00AF 
         00000037 0000 
    1896                      .align  2
    1897 00000038 0031  FSL7:   .string "1",0
         00000039 0000 
    1898                      .align  2
    1899 0000003a 0031  FSL8:   .string "10",0
         0000003b 0030 
         0000003c 0000 
    1900                      .align  2
    1901 0000003e 0032  FSL9:   .string "250",0
         0000003f 0035 
         00000040 0030 
         00000041 0000 
    1902                      .align  2
    1903 00000042 0035  FSL10:  .string "500",0
         00000043 0030 
         00000044 0030 
         00000045 0000 
    1904                      .align  2
    1905 00000046 00B5  FSL11:  .string 181,231,209,185,208,222,213,253,0
         00000047 00E7 
         00000048 00D1 
         00000049 00B9 
         0000004a 00D0 
         0000004b 00DE 
         0000004c 00D5 
         0000004d 00FD 
         0000004e 0000 
    1906                      .align  2
    1907 00000050 0000  FSL12:  .string 0
    1908                      .align  2
    1909 00000052 00B5  FSL13:  .string 181,231,193,247,208,222,213,253,0
         00000053 00E7 
         00000054 00C1 
         00000055 00F7 
TMS320C2000 COFF Assembler PC v4.1.3 Wed Jan 12 08:12:08 2011

Tools Copyright (c) 1996-2006 Texas Instruments Incorporated
C:\DOCUME~1\ADMINI~1\LOCALS~1\Temp\TI3242                            PAGE   43

         00000056 00D0 
         00000057 00DE 
         00000058 00D5 
         00000059 00FD 
         0000005a 0000 
    1910                      .align  2
    1911 0000005c 00B9  FSL14:  .string 185,166,194,202,208,222,213,253,0
         0000005d 00A6 
         0000005e 00C2 
         0000005f 00CA 
         00000060 00D0 
         00000061 00DE 
         00000062 00D5 
         00000063 00FD 
         00000064 0000 
    1912                      .align  2
    1913 00000066 00BD  FSL15:  .string 189,199,178,238,208,222,213,253,0
         00000067 00C7 
         00000068 00B2 
         00000069 00EE 
         0000006a 00D0 
         0000006b 00DE 
         0000006c 00D5 
         0000006d 00FD 
         0000006e 0000 
    1914                      .align  2
    1915 00000070 00B7  FSL16:  .string 183,181,187,216,201,207,210,187,188,182,0
         00000071 00B5 
         00000072 00BB 
         00000073 00D8 
         00000074 00C9 
         00000075 00CF 
         00000076 00D2 
         00000077 00BB 
         00000078 00BC 
         00000079 00B6 
         0000007a 0000 
    1916                      .align  2
    1917 0000007c 00BB  FSL17:  .string 187,249,215,188,181,231,209,185,"   ",0
         0000007d 00F9 
         0000007e 00D7 
         0000007f 00BC 
         00000080 00B5 
         00000081 00E7 
         00000082 00D1 
         00000083 00B9 
         00000084 0020 
         00000085 0020 
         00000086 0020 
         00000087 0000 
    1918                      .align  2
    1919 00000088 0028  FSL18:  .string "(V)",0
         00000089 0056 
         0000008a 0029 
         0000008b 0000 
TMS320C2000 COFF Assembler PC v4.1.3 Wed Jan 12 08:12:08 2011

Tools Copyright (c) 1996-2006 Texas Instruments Incorporated
C:\DOCUME~1\ADMINI~1\LOCALS~1\Temp\TI3242                            PAGE   44

    1920                      .align  2
    1921 0000008c 0041  FSL19:  .string "A",207,224,202,181,178,226,181,231,209,185,0
         0000008d 00CF 
         0000008e 00E0 
         0000008f 00CA 
         00000090 00B5 
         00000091 00B2 
         00000092 00E2 
         00000093 00B5 
         00000094 00E7 
         00000095 00D1 
         00000096 00B9 
         00000097 0000 
    1922                      .align  2
    1923 00000098 00CE  FSL20:  .string 206,243,178,238,0
         00000099 00F3 
         0000009a 00B2 
         0000009b 00EE 
         0000009c 0000 
    1924                      .align  2
    1925 0000009e 0042  FSL21:  .string "B",207,224,202,181,178,226,181,231,209,185,0
         0000009f 00CF 
         000000a0 00E0 
         000000a1 00CA 
         000000a2 00B5 
         000000a3 00B2 
         000000a4 00E2 
         000000a5 00B5 
         000000a6 00E7 
         000000a7 00D1 
         000000a8 00B9 
         000000a9 0000 
    1926                      .align  2
    1927 000000aa 0043  FSL22:  .string "C",207,224,202,181,178,226,181,231,209,185,0
         000000ab 00CF 
         000000ac 00E0 
         000000ad 00CA 
         000000ae 00B5 
         000000af 00B2 
         000000b0 00E2 
         000000b1 00B5 
         000000b2 00E7 
         000000b3 00D1 
         000000b4 00B9 
         000000b5 0000 
    1928                      .align  2
    1929 000000b6 003E  FSL23:  .string ">>",0
         000000b7 003E 
         000000b8 0000 
    1930                      .align  2
    1931 000000ba 00BB  FSL24:  .string 187,249,215,188,181,231,193,247,0
         000000bb 00F9 
         000000bc 00D7 
         000000bd 00BC 
         000000be 00B5 
TMS320C2000 COFF Assembler PC v4.1.3 Wed Jan 12 08:12:08 2011

Tools Copyright (c) 1996-2006 Texas Instruments Incorporated
C:\DOCUME~1\ADMINI~1\LOCALS~1\Temp\TI3242                            PAGE   45

         000000bf 00E7 
         000000c0 00C1 
         000000c1 00F7 
         000000c2 0000 
    1932                      .align  2
    1933 000000c4 0028  FSL25:  .string "(A)",0
         000000c5 0041 
         000000c6 0029 
         000000c7 0000 
    1934                      .align  2
    1935 000000c8 0041  FSL26:  .string "A",207,224,202,181,178,226,181,231,193,247,0
         000000c9 00CF 
         000000ca 00E0 
         000000cb 00CA 
         000000cc 00B5 
         000000cd 00B2 
         000000ce 00E2 
         000000cf 00B5 
         000000d0 00E7 
         000000d1 00C1 
         000000d2 00F7 
         000000d3 0000 
    1936                      .align  2
    1937 000000d4 0042  FSL27:  .string "B",207,224,202,181,178,226,181,231,193,247,0
         000000d5 00CF 
         000000d6 00E0 
         000000d7 00CA 
         000000d8 00B5 
         000000d9 00B2 
         000000da 00E2 
         000000db 00B5 
         000000dc 00E7 
         000000dd 00C1 
         000000de 00F7 
         000000df 0000 
    1938                      .align  2
    1939 000000e0 0043  FSL28:  .string "C",207,224,202,181,178,226,181,231,193,247,0
         000000e1 00CF 
         000000e2 00E0 
         000000e3 00CA 
         000000e4 00B5 
         000000e5 00B2 
         000000e6 00E2 
         000000e7 00B5 
         000000e8 00E7 
         000000e9 00C1 
         000000ea 00F7 
         000000eb 0000 
    1940                      .align  2
    1941 000000ec 003C  FSL29:  .string "<<",0
         000000ed 003C 
         000000ee 0000 
    1942                      .align  2
    1943 000000f0 0055  FSL30:  .string "U(V)",0
         000000f1 0028 
TMS320C2000 COFF Assembler PC v4.1.3 Wed Jan 12 08:12:08 2011

Tools Copyright (c) 1996-2006 Texas Instruments Incorporated
C:\DOCUME~1\ADMINI~1\LOCALS~1\Temp\TI3242                            PAGE   46

         000000f2 0056 
         000000f3 0029 
         000000f4 0000 
    1944                      .align  2
    1945 000000f6 0049  FSL31:  .string "I(A)",0
         000000f7 0028 
         000000f8 0041 
         000000f9 0029 
         000000fa 0000 
    1946                      .align  2
    1947 000000fc 0050  FSL32:  .string "P(W)",0
         000000fd 0028 
         000000fe 0057 
         000000ff 0029 
         00000100 0000 
    1948                      .align  2
    1949 00000102 0051  FSL33:  .string "Q(Var)",0
         00000103 0028 
         00000104 0056 
         00000105 0061 
         00000106 0072 
         00000107 0029 
         00000108 0000 
    1950                      .align  2
    1951 0000010a 00A6  FSL34:  .string 166,181,"(",161,227,")",0
         0000010b 00B5 
         0000010c 0028 
         0000010d 00A1 
         0000010e 00E3 
         0000010f 0029 
         00000110 0000 
    1952                      .align  2
    1953 00000112 0041  FSL35:  .string "A",207,224,0
         00000113 00CF 
         00000114 00E0 
         00000115 0000 
    1954                      .align  2
    1955 00000116 0042  FSL36:  .string "B",207,224,0
         00000117 00CF 
         00000118 00E0 
         00000119 0000 
    1956                      .align  2
    1957 0000011a 0043  FSL37:  .string "C",207,224,0
         0000011b 00CF 
         0000011c 00E0 
         0000011d 0000 
    1958                      .align  2
    1959 0000011e 0045  FSL38:  .string "ERR",0
         0000011f 0052 
         00000120 0052 
         00000121 0000 
    1960                      .align  2
    1961 00000122 0043  FSL39:  .string "COS",166,181,0
         00000123 004F 
         00000124 0053 
TMS320C2000 COFF Assembler PC v4.1.3 Wed Jan 12 08:12:08 2011

Tools Copyright (c) 1996-2006 Texas Instruments Incorporated
C:\DOCUME~1\ADMINI~1\LOCALS~1\Temp\TI3242                            PAGE   47

         00000125 00A6 
         00000126 00B5 
         00000127 0000 
    1962                      .align  2
    1963 00000128 0025  FSL40:  .string "%",0
         00000129 0000 
    1964                      .align  2
    1965 0000012a 004C  FSL41:  .string "L",0
         0000012b 0000 
    1966                      .align  2
    1967 0000012c 00CD  FSL42:  .string 205,234,179,201,0
         0000012d 00EA 
         0000012e 00B3 
         0000012f 00C9 
         00000130 0000 
    1968                      .align  2
    1969 00000132 002E  FSL43:  .string ".",0
         00000133 0000 
    1970              ;***************************************************************
    1971              ;* UNDEFINED EXTERNAL REFERENCES                               *
    1972              ;***************************************************************
    1973                      .global _GUI_edit_string_display
    1974                      .global _GUI_edit_clean
    1975                      .global _GUI_edit_memeber_add
    1976                      .global _GUI_string_display_At
    1977                      .global _Gui_button_dye
    1978                      .global _GUI_set_Fgcolor
    1979                      .global _GUI_set_Bgcolor
    1980                      .global _app_free
    1981                      .global _GUI_window_hwin_release
    1982                      .global _GUI_window_line_display
    1983                      .global _GUI_window_hwin_req
    1984                      .global _GUI_window_destory
    1985                      .global _global_strcat
    1986                      .global _GUI_clean_screen
    1987                      .global _global_ftoa
    1988                      .global _app_global_Ntokey
    1989                      .global _GUI_edit_select
    1990                      .global _GUI_button_title_display
    1991                      .global _global_itoa
    1992                      .global _g_language
    1993                      .global _GUI_hwin_obtain
    1994                      .global _app_malloc
    1995                      .global _GUI_edit_creat
    1996                      .global _Gui_3D_window_creat
    1997                      .global _Gui_drop_list_creat
    1998                      .global _Gui_button_creat
    1999                      .global FS$$CMP
    2000                      .global FS$$NEG
    2001              
    2002              ;***************************************************************
    2003              ;* TYPE INFORMATION                                            *
    2004              ;***************************************************************
    2005              DW$T$3  .dwtag  DW_TAG_pointer_type
    2006                      .dwattr DW$T$3, DW_AT_address_class(0x16)
TMS320C2000 COFF Assembler PC v4.1.3 Wed Jan 12 08:12:08 2011

Tools Copyright (c) 1996-2006 Texas Instruments Incorporated
C:\DOCUME~1\ADMINI~1\LOCALS~1\Temp\TI3242                            PAGE   48

    2007              
    2008              DW$T$33 .dwtag  DW_TAG_subroutine_type, DW_AT_type(*DW$T$3)
    2009                      .dwattr DW$T$33, DW_AT_language(DW_LANG_C)
    2010              DW$129  .dwtag  DW_TAG_formal_parameter, DW_AT_type(*DW$T$19)
    2011                      .dwendtag DW$T$33
    2012              
    2013              
    2014              DW$T$27 .dwtag  DW_TAG_subroutine_type
    2015                      .dwattr DW$T$27, DW_AT_language(DW_LANG_C)
    2016              DW$130  .dwtag  DW_TAG_formal_parameter, DW_AT_type(*DW$T$3)
    2017                      .dwendtag DW$T$27
    2018              
    2019              
    2020              DW$T$35 .dwtag  DW_TAG_subroutine_type
    2021                      .dwattr DW$T$35, DW_AT_language(DW_LANG_C)
    2022              DW$131  .dwtag  DW_TAG_formal_parameter, DW_AT_type(*DW$T$11)
    2023                      .dwendtag DW$T$35
    2024              
    2025              
    2026              DW$T$39 .dwtag  DW_TAG_subroutine_type
    2027                      .dwattr DW$T$39, DW_AT_language(DW_LANG_C)
    2028              DW$132  .dwtag  DW_TAG_formal_parameter, DW_AT_type(*DW$T$38)
    2029                      .dwendtag DW$T$39
    2030              
    2031              
    2032              DW$T$41 .dwtag  DW_TAG_subroutine_type
    2033                      .dwattr DW$T$41, DW_AT_language(DW_LANG_C)
    2034              DW$133  .dwtag  DW_TAG_formal_parameter, DW_AT_type(*DW$T$11)
    2035              DW$134  .dwtag  DW_TAG_formal_parameter, DW_AT_type(*DW$T$11)
    2036              DW$135  .dwtag  DW_TAG_formal_parameter, DW_AT_type(*DW$T$11)
    2037              DW$136  .dwtag  DW_TAG_formal_parameter, DW_AT_type(*DW$T$11)
    2038                      .dwendtag DW$T$41
    2039              
    2040              
    2041              DW$T$44 .dwtag  DW_TAG_subroutine_type
    2042                      .dwattr DW$T$44, DW_AT_language(DW_LANG_C)
    2043              DW$137  .dwtag  DW_TAG_formal_parameter, DW_AT_type(*DW$T$11)
    2044              DW$138  .dwtag  DW_TAG_formal_parameter, DW_AT_type(*DW$T$11)
    2045              DW$139  .dwtag  DW_TAG_formal_parameter, DW_AT_type(*DW$T$43)
    2046                      .dwendtag DW$T$44
    2047              
    2048              
    2049              DW$T$46 .dwtag  DW_TAG_subroutine_type
    2050                      .dwattr DW$T$46, DW_AT_language(DW_LANG_C)
    2051              DW$140  .dwtag  DW_TAG_formal_parameter, DW_AT_type(*DW$T$11)
    2052              DW$141  .dwtag  DW_TAG_formal_parameter, DW_AT_type(*DW$T$11)
    2053              DW$142  .dwtag  DW_TAG_formal_parameter, DW_AT_type(*DW$T$19)
    2054              DW$143  .dwtag  DW_TAG_formal_parameter, DW_AT_type(*DW$T$43)
    2055              DW$144  .dwtag  DW_TAG_formal_parameter, DW_AT_type(*DW$T$19)
    2056                      .dwendtag DW$T$46
    2057              
    2058              
    2059              DW$T$48 .dwtag  DW_TAG_subroutine_type
    2060                      .dwattr DW$T$48, DW_AT_language(DW_LANG_C)
    2061              
TMS320C2000 COFF Assembler PC v4.1.3 Wed Jan 12 08:12:08 2011

Tools Copyright (c) 1996-2006 Texas Instruments Incorporated
C:\DOCUME~1\ADMINI~1\LOCALS~1\Temp\TI3242                            PAGE   49

    2062              DW$T$50 .dwtag  DW_TAG_subroutine_type
    2063                      .dwattr DW$T$50, DW_AT_language(DW_LANG_C)
    2064              DW$145  .dwtag  DW_TAG_formal_parameter, DW_AT_type(*DW$T$43)
    2065                      .dwendtag DW$T$50
    2066              
    2067              
    2068              DW$T$52 .dwtag  DW_TAG_subroutine_type
    2069                      .dwattr DW$T$52, DW_AT_language(DW_LANG_C)
    2070              DW$146  .dwtag  DW_TAG_formal_parameter, DW_AT_type(*DW$T$38)
    2071              DW$147  .dwtag  DW_TAG_formal_parameter, DW_AT_type(*DW$T$11)
    2072              DW$148  .dwtag  DW_TAG_formal_parameter, DW_AT_type(*DW$T$11)
    2073                      .dwendtag DW$T$52
    2074              
    2075              
    2076              DW$T$54 .dwtag  DW_TAG_subroutine_type
    2077                      .dwattr DW$T$54, DW_AT_language(DW_LANG_C)
    2078              DW$149  .dwtag  DW_TAG_formal_parameter, DW_AT_type(*DW$T$19)
    2079              DW$150  .dwtag  DW_TAG_formal_parameter, DW_AT_type(*DW$T$16)
    2080              DW$151  .dwtag  DW_TAG_formal_parameter, DW_AT_type(*DW$T$19)
    2081                      .dwendtag DW$T$54
    2082              
    2083              
    2084              DW$T$55 .dwtag  DW_TAG_subroutine_type
    2085                      .dwattr DW$T$55, DW_AT_language(DW_LANG_C)
    2086              DW$152  .dwtag  DW_TAG_formal_parameter, DW_AT_type(*DW$T$6)
    2087                      .dwendtag DW$T$55
    2088              
    2089              DW$T$6  .dwtag  DW_TAG_base_type, DW_AT_name("unsigned char")
    2090                      .dwattr DW$T$6, DW_AT_encoding(DW_ATE_unsigned_char)
    2091                      .dwattr DW$T$6, DW_AT_byte_size(0x01)
    2092              
    2093              DW$T$57 .dwtag  DW_TAG_subroutine_type, DW_AT_type(*DW$T$6)
    2094                      .dwattr DW$T$57, DW_AT_language(DW_LANG_C)
    2095              DW$153  .dwtag  DW_TAG_formal_parameter, DW_AT_type(*DW$T$6)
    2096                      .dwendtag DW$T$57
    2097              
    2098              DW$T$59 .dwtag  DW_TAG_typedef, DW_AT_name("BOOL"), DW_AT_type(*DW$T$6)
    2099                      .dwattr DW$T$59, DW_AT_language(DW_LANG_C)
    2100              
    2101              DW$T$60 .dwtag  DW_TAG_subroutine_type, DW_AT_type(*DW$T$59)
    2102                      .dwattr DW$T$60, DW_AT_language(DW_LANG_C)
    2103              DW$154  .dwtag  DW_TAG_formal_parameter, DW_AT_type(*DW$T$19)
    2104                      .dwendtag DW$T$60
    2105              
    2106              
    2107              DW$T$62 .dwtag  DW_TAG_subroutine_type, DW_AT_type(*DW$T$59)
    2108                      .dwattr DW$T$62, DW_AT_language(DW_LANG_C)
    2109              DW$155  .dwtag  DW_TAG_formal_parameter, DW_AT_type(*DW$T$38)
    2110              DW$156  .dwtag  DW_TAG_formal_parameter, DW_AT_type(*DW$T$43)
    2111                      .dwendtag DW$T$62
    2112              
    2113              DW$T$10 .dwtag  DW_TAG_base_type, DW_AT_name("int")
    2114                      .dwattr DW$T$10, DW_AT_encoding(DW_ATE_signed)
    2115                      .dwattr DW$T$10, DW_AT_byte_size(0x01)
    2116              
TMS320C2000 COFF Assembler PC v4.1.3 Wed Jan 12 08:12:08 2011

Tools Copyright (c) 1996-2006 Texas Instruments Incorporated
C:\DOCUME~1\ADMINI~1\LOCALS~1\Temp\TI3242                            PAGE   50

    2117              DW$T$64 .dwtag  DW_TAG_subroutine_type, DW_AT_type(*DW$T$10)
    2118                      .dwattr DW$T$64, DW_AT_language(DW_LANG_C)
    2119              DW$T$11 .dwtag  DW_TAG_base_type, DW_AT_name("unsigned int")
    2120                      .dwattr DW$T$11, DW_AT_encoding(DW_ATE_unsigned)
    2121                      .dwattr DW$T$11, DW_AT_byte_size(0x01)
    2122              DW$T$19 .dwtag  DW_TAG_typedef, DW_AT_name("Bsize_t"), DW_AT_type(*DW$T$11)
    2123                      .dwattr DW$T$19, DW_AT_language(DW_LANG_C)
    2124              
    2125              DW$T$66 .dwtag  DW_TAG_subroutine_type, DW_AT_type(*DW$T$19)
    2126                      .dwattr DW$T$66, DW_AT_language(DW_LANG_C)
    2127              DW$157  .dwtag  DW_TAG_formal_parameter, DW_AT_type(*DW$T$10)
    2128              DW$158  .dwtag  DW_TAG_formal_parameter, DW_AT_type(*DW$T$43)
    2129                      .dwendtag DW$T$66
    2130              
    2131              
    2132              DW$T$68 .dwtag  DW_TAG_subroutine_type, DW_AT_type(*DW$T$19)
    2133                      .dwattr DW$T$68, DW_AT_language(DW_LANG_C)
    2134              DW$159  .dwtag  DW_TAG_formal_parameter, DW_AT_type(*DW$T$16)
    2135              DW$160  .dwtag  DW_TAG_formal_parameter, DW_AT_type(*DW$T$43)
    2136              DW$161  .dwtag  DW_TAG_formal_parameter, DW_AT_type(*DW$T$19)
    2137                      .dwendtag DW$T$68
    2138              
    2139              DW$T$16 .dwtag  DW_TAG_base_type, DW_AT_name("float")
    2140                      .dwattr DW$T$16, DW_AT_encoding(DW_ATE_float)
    2141                      .dwattr DW$T$16, DW_AT_byte_size(0x02)
    2142              DW$T$25 .dwtag  DW_TAG_base_type, DW_AT_name("signed char")
    2143                      .dwattr DW$T$25, DW_AT_encoding(DW_ATE_signed_char)
    2144                      .dwattr DW$T$25, DW_AT_byte_size(0x01)
    2145              DW$T$31 .dwtag  DW_TAG_pointer_type, DW_AT_type(*DW$T$30)
    2146                      .dwattr DW$T$31, DW_AT_address_class(0x16)
    2147              
    2148              DW$T$70 .dwtag  DW_TAG_array_type, DW_AT_type(*DW$T$30)
    2149                      .dwattr DW$T$70, DW_AT_language(DW_LANG_C)
    2150                      .dwattr DW$T$70, DW_AT_byte_size(0x04)
    2151              DW$162  .dwtag  DW_TAG_subrange_type
    2152                      .dwattr DW$162, DW_AT_upper_bound(0x01)
    2153                      .dwendtag DW$T$70
    2154              
    2155              
    2156              DW$T$71 .dwtag  DW_TAG_array_type, DW_AT_type(*DW$T$30)
    2157                      .dwattr DW$T$71, DW_AT_language(DW_LANG_C)
    2158                      .dwattr DW$T$71, DW_AT_byte_size(0x14)
    2159              DW$163  .dwtag  DW_TAG_subrange_type
    2160                      .dwattr DW$163, DW_AT_upper_bound(0x04)
    2161              DW$164  .dwtag  DW_TAG_subrange_type
    2162                      .dwattr DW$164, DW_AT_upper_bound(0x01)
    2163                      .dwendtag DW$T$71
    2164              
    2165              
    2166              DW$T$74 .dwtag  DW_TAG_array_type, DW_AT_type(*DW$T$30)
    2167                      .dwattr DW$T$74, DW_AT_language(DW_LANG_C)
    2168                      .dwattr DW$T$74, DW_AT_byte_size(0x10)
    2169              DW$165  .dwtag  DW_TAG_subrange_type
    2170                      .dwattr DW$165, DW_AT_upper_bound(0x01)
    2171              DW$166  .dwtag  DW_TAG_subrange_type
TMS320C2000 COFF Assembler PC v4.1.3 Wed Jan 12 08:12:08 2011

Tools Copyright (c) 1996-2006 Texas Instruments Incorporated
C:\DOCUME~1\ADMINI~1\LOCALS~1\Temp\TI3242                            PAGE   51

    2172                      .dwattr DW$166, DW_AT_upper_bound(0x03)
    2173                      .dwendtag DW$T$74
    2174              
    2175              DW$T$43 .dwtag  DW_TAG_pointer_type, DW_AT_type(*DW$T$25)
    2176                      .dwattr DW$T$43, DW_AT_address_class(0x16)
    2177              DW$T$38 .dwtag  DW_TAG_pointer_type, DW_AT_type(*DW$T$37)
    2178                      .dwattr DW$T$38, DW_AT_address_class(0x16)
    2179              
    2180              DW$T$96 .dwtag  DW_TAG_subroutine_type, DW_AT_type(*DW$T$38)
    2181                      .dwattr DW$T$96, DW_AT_language(DW_LANG_C)
    2182              
    2183              DW$T$98 .dwtag  DW_TAG_subroutine_type, DW_AT_type(*DW$T$38)
    2184                      .dwattr DW$T$98, DW_AT_language(DW_LANG_C)
    2185              DW$167  .dwtag  DW_TAG_formal_parameter, DW_AT_type(*DW$T$11)
    2186              DW$168  .dwtag  DW_TAG_formal_parameter, DW_AT_type(*DW$T$11)
    2187              DW$169  .dwtag  DW_TAG_formal_parameter, DW_AT_type(*DW$T$19)
    2188              DW$170  .dwtag  DW_TAG_formal_parameter, DW_AT_type(*DW$T$19)
    2189              DW$171  .dwtag  DW_TAG_formal_parameter, DW_AT_type(*DW$T$19)
    2190              DW$172  .dwtag  DW_TAG_formal_parameter, DW_AT_type(*DW$T$38)
    2191                      .dwendtag DW$T$98
    2192              
    2193              
    2194              DW$T$100        .dwtag  DW_TAG_subroutine_type, DW_AT_type(*DW$T$38)
    2195                      .dwattr DW$T$100, DW_AT_language(DW_LANG_C)
    2196              DW$173  .dwtag  DW_TAG_formal_parameter, DW_AT_type(*DW$T$11)
    2197              DW$174  .dwtag  DW_TAG_formal_parameter, DW_AT_type(*DW$T$11)
    2198              DW$175  .dwtag  DW_TAG_formal_parameter, DW_AT_type(*DW$T$19)
    2199              DW$176  .dwtag  DW_TAG_formal_parameter, DW_AT_type(*DW$T$19)
    2200              DW$177  .dwtag  DW_TAG_formal_parameter, DW_AT_type(*DW$T$43)
    2201              DW$178  .dwtag  DW_TAG_formal_parameter, DW_AT_type(*DW$T$19)
    2202              DW$179  .dwtag  DW_TAG_formal_parameter, DW_AT_type(*DW$T$38)
    2203                      .dwendtag DW$T$100
    2204              
    2205              
    2206              DW$T$102        .dwtag  DW_TAG_subroutine_type, DW_AT_type(*DW$T$38)
    2207                      .dwattr DW$T$102, DW_AT_language(DW_LANG_C)
    2208              DW$180  .dwtag  DW_TAG_formal_parameter, DW_AT_type(*DW$T$11)
    2209              DW$181  .dwtag  DW_TAG_formal_parameter, DW_AT_type(*DW$T$11)
    2210              DW$182  .dwtag  DW_TAG_formal_parameter, DW_AT_type(*DW$T$31)
    2211              DW$183  .dwtag  DW_TAG_formal_parameter, DW_AT_type(*DW$T$6)
    2212              DW$184  .dwtag  DW_TAG_formal_parameter, DW_AT_type(*DW$T$38)
    2213                      .dwendtag DW$T$102
    2214              
    2215              DW$T$30 .dwtag  DW_TAG_pointer_type, DW_AT_type(*DW$T$29)
    2216                      .dwattr DW$T$30, DW_AT_address_class(0x16)
    2217              DW$T$37 .dwtag  DW_TAG_typedef, DW_AT_name("hwin_t"), DW_AT_type(*DW$T$32)
    2218                      .dwattr DW$T$37, DW_AT_language(DW_LANG_C)
    2219              DW$185  .dwtag  DW_TAG_far_type
    2220                      .dwattr DW$185, DW_AT_type(*DW$T$25)
    2221              DW$T$29 .dwtag  DW_TAG_const_type
    2222                      .dwattr DW$T$29, DW_AT_type(*DW$185)
    2223              
    2224              DW$T$32 .dwtag  DW_TAG_structure_type
    2225                      .dwattr DW$T$32, DW_AT_name("hwin")
    2226                      .dwattr DW$T$32, DW_AT_byte_size(0x42)
TMS320C2000 COFF Assembler PC v4.1.3 Wed Jan 12 08:12:08 2011

Tools Copyright (c) 1996-2006 Texas Instruments Incorporated
C:\DOCUME~1\ADMINI~1\LOCALS~1\Temp\TI3242                            PAGE   52

    2227              DW$186  .dwtag  DW_TAG_member, DW_AT_type(*DW$T$19)
    2228                      .dwattr DW$186, DW_AT_name("occupy_flag"), DW_AT_symbol_name("_occupy_flag")
    2229                      .dwattr DW$186, DW_AT_data_member_location[DW_OP_plus_uconst 0x0]
    2230                      .dwattr DW$186, DW_AT_accessibility(DW_ACCESS_public)
    2231              DW$187  .dwtag  DW_TAG_member, DW_AT_type(*DW$T$11)
    2232                      .dwattr DW$187, DW_AT_name("win_x"), DW_AT_symbol_name("_win_x")
    2233                      .dwattr DW$187, DW_AT_data_member_location[DW_OP_plus_uconst 0x1]
    2234                      .dwattr DW$187, DW_AT_accessibility(DW_ACCESS_public)
    2235              DW$188  .dwtag  DW_TAG_member, DW_AT_type(*DW$T$11)
    2236                      .dwattr DW$188, DW_AT_name("win_y"), DW_AT_symbol_name("_win_y")
    2237                      .dwattr DW$188, DW_AT_data_member_location[DW_OP_plus_uconst 0x2]
    2238                      .dwattr DW$188, DW_AT_accessibility(DW_ACCESS_public)
    2239              DW$189  .dwtag  DW_TAG_member, DW_AT_type(*DW$T$19)
    2240                      .dwattr DW$189, DW_AT_name("win_wide"), DW_AT_symbol_name("_win_wide")
    2241                      .dwattr DW$189, DW_AT_data_member_location[DW_OP_plus_uconst 0x3]
    2242                      .dwattr DW$189, DW_AT_accessibility(DW_ACCESS_public)
    2243              DW$190  .dwtag  DW_TAG_member, DW_AT_type(*DW$T$19)
    2244                      .dwattr DW$190, DW_AT_name("win_high"), DW_AT_symbol_name("_win_high")
    2245                      .dwattr DW$190, DW_AT_data_member_location[DW_OP_plus_uconst 0x4]
    2246                      .dwattr DW$190, DW_AT_accessibility(DW_ACCESS_public)
    2247              DW$191  .dwtag  DW_TAG_member, DW_AT_type(*DW$T$11)
    2248                      .dwattr DW$191, DW_AT_name("csr_x_pos"), DW_AT_symbol_name("_csr_x_pos")
    2249                      .dwattr DW$191, DW_AT_data_member_location[DW_OP_plus_uconst 0x5]
    2250                      .dwattr DW$191, DW_AT_accessibility(DW_ACCESS_public)
    2251              DW$192  .dwtag  DW_TAG_member, DW_AT_type(*DW$T$11)
    2252                      .dwattr DW$192, DW_AT_name("csr_y_pos"), DW_AT_symbol_name("_csr_y_pos")
    2253                      .dwattr DW$192, DW_AT_data_member_location[DW_OP_plus_uconst 0x6]
    2254                      .dwattr DW$192, DW_AT_accessibility(DW_ACCESS_public)
    2255              DW$193  .dwtag  DW_TAG_member, DW_AT_type(*DW$T$19)
    2256                      .dwattr DW$193, DW_AT_name("type"), DW_AT_symbol_name("_type")
    2257                      .dwattr DW$193, DW_AT_data_member_location[DW_OP_plus_uconst 0x7]
    2258                      .dwattr DW$193, DW_AT_accessibility(DW_ACCESS_public)
    2259              DW$194  .dwtag  DW_TAG_member, DW_AT_type(*DW$T$22)
    2260                      .dwattr DW$194, DW_AT_name("father_hwin"), DW_AT_symbol_name("_father_hwin")
    2261                      .dwattr DW$194, DW_AT_data_member_location[DW_OP_plus_uconst 0x8]
    2262                      .dwattr DW$194, DW_AT_accessibility(DW_ACCESS_public)
    2263              DW$195  .dwtag  DW_TAG_member, DW_AT_type(*DW$T$22)
    2264                      .dwattr DW$195, DW_AT_name("next_hwin"), DW_AT_symbol_name("_next_hwin")
    2265                      .dwattr DW$195, DW_AT_data_member_location[DW_OP_plus_uconst 0xa]
    2266                      .dwattr DW$195, DW_AT_accessibility(DW_ACCESS_public)
    2267              DW$196  .dwtag  DW_TAG_member, DW_AT_type(*DW$T$22)
    2268                      .dwattr DW$196, DW_AT_name("last_hwin"), DW_AT_symbol_name("_last_hwin")
    2269                      .dwattr DW$196, DW_AT_data_member_location[DW_OP_plus_uconst 0xc]
    2270                      .dwattr DW$196, DW_AT_accessibility(DW_ACCESS_public)
    2271              DW$197  .dwtag  DW_TAG_member, DW_AT_type(*DW$T$19)
    2272                      .dwattr DW$197, DW_AT_name("nline"), DW_AT_symbol_name("_nline")
    2273                      .dwattr DW$197, DW_AT_data_member_location[DW_OP_plus_uconst 0xe]
    2274                      .dwattr DW$197, DW_AT_accessibility(DW_ACCESS_public)
    2275              DW$198  .dwtag  DW_TAG_member, DW_AT_type(*DW$T$19)
    2276                      .dwattr DW$198, DW_AT_name("nrow"), DW_AT_symbol_name("_nrow")
    2277                      .dwattr DW$198, DW_AT_data_member_location[DW_OP_plus_uconst 0xf]
    2278                      .dwattr DW$198, DW_AT_accessibility(DW_ACCESS_public)
    2279              DW$199  .dwtag  DW_TAG_member, DW_AT_type(*DW$T$19)
    2280                      .dwattr DW$199, DW_AT_name("grid_wide"), DW_AT_symbol_name("_grid_wide")
    2281                      .dwattr DW$199, DW_AT_data_member_location[DW_OP_plus_uconst 0x10]
TMS320C2000 COFF Assembler PC v4.1.3 Wed Jan 12 08:12:08 2011

Tools Copyright (c) 1996-2006 Texas Instruments Incorporated
C:\DOCUME~1\ADMINI~1\LOCALS~1\Temp\TI3242                            PAGE   53

    2282                      .dwattr DW$199, DW_AT_accessibility(DW_ACCESS_public)
    2283              DW$200  .dwtag  DW_TAG_member, DW_AT_type(*DW$T$19)
    2284                      .dwattr DW$200, DW_AT_name("grid_high"), DW_AT_symbol_name("_grid_high")
    2285                      .dwattr DW$200, DW_AT_data_member_location[DW_OP_plus_uconst 0x11]
    2286                      .dwattr DW$200, DW_AT_accessibility(DW_ACCESS_public)
    2287              DW$201  .dwtag  DW_TAG_member, DW_AT_type(*DW$T$24)
    2288                      .dwattr DW$201, DW_AT_name("cur_edit_pos"), DW_AT_symbol_name("_cur_edit_pos")
    2289                      .dwattr DW$201, DW_AT_data_member_location[DW_OP_plus_uconst 0x12]
    2290                      .dwattr DW$201, DW_AT_accessibility(DW_ACCESS_public)
    2291              DW$202  .dwtag  DW_TAG_member, DW_AT_type(*DW$T$24)
    2292                      .dwattr DW$202, DW_AT_name("edit_phead"), DW_AT_symbol_name("_edit_phead")
    2293                      .dwattr DW$202, DW_AT_data_member_location[DW_OP_plus_uconst 0x14]
    2294                      .dwattr DW$202, DW_AT_accessibility(DW_ACCESS_public)
    2295              DW$203  .dwtag  DW_TAG_member, DW_AT_type(*DW$T$24)
    2296                      .dwattr DW$203, DW_AT_name("m_cur_pedit"), DW_AT_symbol_name("_m_cur_pedit")
    2297                      .dwattr DW$203, DW_AT_data_member_location[DW_OP_plus_uconst 0x16]
    2298                      .dwattr DW$203, DW_AT_accessibility(DW_ACCESS_public)
    2299              DW$204  .dwtag  DW_TAG_member, DW_AT_type(*DW$T$26)
    2300                      .dwattr DW$204, DW_AT_name("button_title"), DW_AT_symbol_name("_button_title")
    2301                      .dwattr DW$204, DW_AT_data_member_location[DW_OP_plus_uconst 0x18]
    2302                      .dwattr DW$204, DW_AT_accessibility(DW_ACCESS_public)
    2303              DW$205  .dwtag  DW_TAG_member, DW_AT_type(*DW$T$11)
    2304                      .dwattr DW$205, DW_AT_name("button_flags"), DW_AT_symbol_name("_button_flags")
    2305                      .dwattr DW$205, DW_AT_data_member_location[DW_OP_plus_uconst 0x36]
    2306                      .dwattr DW$205, DW_AT_accessibility(DW_ACCESS_public)
    2307              DW$206  .dwtag  DW_TAG_member, DW_AT_type(*DW$T$11)
    2308                      .dwattr DW$206, DW_AT_name("button_bg_color"), DW_AT_symbol_name("_button_bg_color")
    2309                      .dwattr DW$206, DW_AT_data_member_location[DW_OP_plus_uconst 0x37]
    2310                      .dwattr DW$206, DW_AT_accessibility(DW_ACCESS_public)
    2311              DW$207  .dwtag  DW_TAG_member, DW_AT_type(*DW$T$11)
    2312                      .dwattr DW$207, DW_AT_name("button_txt_color"), DW_AT_symbol_name("_button_txt_color")
    2313                      .dwattr DW$207, DW_AT_data_member_location[DW_OP_plus_uconst 0x38]
    2314                      .dwattr DW$207, DW_AT_accessibility(DW_ACCESS_public)
    2315              DW$208  .dwtag  DW_TAG_member, DW_AT_type(*DW$T$28)
    2316                      .dwattr DW$208, DW_AT_name("buttoncallback"), DW_AT_symbol_name("_buttoncallback")
    2317                      .dwattr DW$208, DW_AT_data_member_location[DW_OP_plus_uconst 0x3a]
    2318                      .dwattr DW$208, DW_AT_accessibility(DW_ACCESS_public)
    2319              DW$209  .dwtag  DW_TAG_member, DW_AT_type(*DW$T$31)
    2320                      .dwattr DW$209, DW_AT_name("drop_memeber"), DW_AT_symbol_name("_drop_memeber")
    2321                      .dwattr DW$209, DW_AT_data_member_location[DW_OP_plus_uconst 0x3c]
    2322                      .dwattr DW$209, DW_AT_accessibility(DW_ACCESS_public)
    2323              DW$210  .dwtag  DW_TAG_member, DW_AT_type(*DW$T$6)
    2324                      .dwattr DW$210, DW_AT_name("drop_cur_member"), DW_AT_symbol_name("_drop_cur_member")
    2325                      .dwattr DW$210, DW_AT_data_member_location[DW_OP_plus_uconst 0x3e]
    2326                      .dwattr DW$210, DW_AT_accessibility(DW_ACCESS_public)
    2327              DW$211  .dwtag  DW_TAG_member, DW_AT_type(*DW$T$6)
    2328                      .dwattr DW$211, DW_AT_name("drop_member_size"), DW_AT_symbol_name("_drop_member_size")
    2329                      .dwattr DW$211, DW_AT_data_member_location[DW_OP_plus_uconst 0x3f]
    2330                      .dwattr DW$211, DW_AT_accessibility(DW_ACCESS_public)
    2331              DW$212  .dwtag  DW_TAG_member, DW_AT_type(*DW$T$11)
    2332                      .dwattr DW$212, DW_AT_name("win_cnt"), DW_AT_symbol_name("_win_cnt")
    2333                      .dwattr DW$212, DW_AT_data_member_location[DW_OP_plus_uconst 0x40]
    2334                      .dwattr DW$212, DW_AT_accessibility(DW_ACCESS_public)
    2335                      .dwendtag DW$T$32
    2336              
TMS320C2000 COFF Assembler PC v4.1.3 Wed Jan 12 08:12:08 2011

Tools Copyright (c) 1996-2006 Texas Instruments Incorporated
C:\DOCUME~1\ADMINI~1\LOCALS~1\Temp\TI3242                            PAGE   54

    2337              DW$T$22 .dwtag  DW_TAG_pointer_type, DW_AT_type(*DW$T$32)
    2338                      .dwattr DW$T$22, DW_AT_address_class(0x16)
    2339              DW$T$28 .dwtag  DW_TAG_pointer_type, DW_AT_type(*DW$T$27)
    2340                      .dwattr DW$T$28, DW_AT_address_class(0x16)
    2341              DW$T$24 .dwtag  DW_TAG_pointer_type, DW_AT_type(*DW$T$23)
    2342                      .dwattr DW$T$24, DW_AT_address_class(0x16)
    2343              
    2344              DW$T$26 .dwtag  DW_TAG_array_type, DW_AT_type(*DW$T$25)
    2345                      .dwattr DW$T$26, DW_AT_language(DW_LANG_C)
    2346                      .dwattr DW$T$26, DW_AT_byte_size(0x1e)
    2347              DW$213  .dwtag  DW_TAG_subrange_type
    2348                      .dwattr DW$213, DW_AT_upper_bound(0x1d)
    2349                      .dwendtag DW$T$26
    2350              
    2351              DW$T$23 .dwtag  DW_TAG_typedef, DW_AT_name("edit_mem_t"), DW_AT_type(*DW$T$21)
    2352                      .dwattr DW$T$23, DW_AT_language(DW_LANG_C)
    2353              
    2354              DW$T$21 .dwtag  DW_TAG_structure_type
    2355                      .dwattr DW$T$21, DW_AT_name("edit_mem")
    2356                      .dwattr DW$T$21, DW_AT_byte_size(0x08)
    2357              DW$214  .dwtag  DW_TAG_member, DW_AT_type(*DW$T$10)
    2358                      .dwattr DW$214, DW_AT_name("x"), DW_AT_symbol_name("_x")
    2359                      .dwattr DW$214, DW_AT_data_member_location[DW_OP_plus_uconst 0x0]
    2360                      .dwattr DW$214, DW_AT_accessibility(DW_ACCESS_public)
    2361              DW$215  .dwtag  DW_TAG_member, DW_AT_type(*DW$T$10)
    2362                      .dwattr DW$215, DW_AT_name("y"), DW_AT_symbol_name("_y")
    2363                      .dwattr DW$215, DW_AT_data_member_location[DW_OP_plus_uconst 0x1]
    2364                      .dwattr DW$215, DW_AT_accessibility(DW_ACCESS_public)
    2365              DW$216  .dwtag  DW_TAG_member, DW_AT_type(*DW$T$19)
    2366                      .dwattr DW$216, DW_AT_name("eidt_lenth"), DW_AT_symbol_name("_eidt_lenth")
    2367                      .dwattr DW$216, DW_AT_data_member_location[DW_OP_plus_uconst 0x2]
    2368                      .dwattr DW$216, DW_AT_accessibility(DW_ACCESS_public)
    2369              DW$217  .dwtag  DW_TAG_member, DW_AT_type(*DW$T$19)
    2370                      .dwattr DW$217, DW_AT_name("surplus_lenth"), DW_AT_symbol_name("_surplus_lenth")
    2371                      .dwattr DW$217, DW_AT_data_member_location[DW_OP_plus_uconst 0x3]
    2372                      .dwattr DW$217, DW_AT_accessibility(DW_ACCESS_public)
    2373              DW$218  .dwtag  DW_TAG_member, DW_AT_type(*DW$T$19)
    2374                      .dwattr DW$218, DW_AT_name("id"), DW_AT_symbol_name("_id")
    2375                      .dwattr DW$218, DW_AT_data_member_location[DW_OP_plus_uconst 0x4]
    2376                      .dwattr DW$218, DW_AT_accessibility(DW_ACCESS_public)
    2377              DW$219  .dwtag  DW_TAG_member, DW_AT_type(*DW$T$20)
    2378                      .dwattr DW$219, DW_AT_name("next_edit"), DW_AT_symbol_name("_next_edit")
    2379                      .dwattr DW$219, DW_AT_data_member_location[DW_OP_plus_uconst 0x6]
    2380                      .dwattr DW$219, DW_AT_accessibility(DW_ACCESS_public)
    2381                      .dwendtag DW$T$21
    2382              
    2383              DW$T$20 .dwtag  DW_TAG_pointer_type, DW_AT_type(*DW$T$21)
    2384                      .dwattr DW$T$20, DW_AT_address_class(0x16)
    2385              
    2386                      .dwattr DW$103, DW_AT_external(0x01)
    2387                      .dwattr DW$107, DW_AT_external(0x01)
    2388                      .dwattr DW$108, DW_AT_external(0x01)
    2389                      .dwattr DW$115, DW_AT_external(0x01)
    2390                      .dwattr DW$98, DW_AT_external(0x01)
    2391                      .dwattr DW$102, DW_AT_external(0x01)
TMS320C2000 COFF Assembler PC v4.1.3 Wed Jan 12 08:12:08 2011

Tools Copyright (c) 1996-2006 Texas Instruments Incorporated
C:\DOCUME~1\ADMINI~1\LOCALS~1\Temp\TI3242                            PAGE   55

    2392                      .dwattr DW$116, DW_AT_external(0x01)
    2393                      .dwattr DW$119, DW_AT_external(0x01)
    2394                      .dwattr DW$90, DW_AT_external(0x01)
    2395                      .dwattr DW$122, DW_AT_external(0x01)
    2396                      .dwattr DW$128, DW_AT_external(0x01)
    2397                      .dwattr DW$CU, DW_AT_language(DW_LANG_C)
    2398              
    2399              ;***************************************************************
    2400              ;* DWARF CIE ENTRIES                                           *
    2401              ;***************************************************************
    2402              
    2403              DW$CIE  .dwcie 1, 40
    2404                      .dwcfa  0x0c, 20, 0
    2405                      .dwcfa  0x07, 0
    2406                      .dwcfa  0x07, 1
    2407                      .dwcfa  0x07, 2
    2408                      .dwcfa  0x07, 3
    2409                      .dwcfa  0x07, 4
    2410                      .dwcfa  0x07, 5
    2411                      .dwcfa  0x08, 6
    2412                      .dwcfa  0x08, 7
    2413                      .dwcfa  0x08, 8
    2414                      .dwcfa  0x08, 9
    2415                      .dwcfa  0x08, 10
    2416                      .dwcfa  0x08, 11
    2417                      .dwcfa  0x07, 12
    2418                      .dwcfa  0x07, 13
    2419                      .dwcfa  0x07, 14
    2420                      .dwcfa  0x07, 15
    2421                      .dwcfa  0x07, 16
    2422                      .dwcfa  0x07, 17
    2423                      .dwcfa  0x07, 18
    2424                      .dwcfa  0x07, 19
    2425                      .dwcfa  0x07, 20
    2426                      .dwcfa  0x07, 21
    2427                      .dwcfa  0x07, 22
    2428                      .dwcfa  0x07, 23
    2429                      .dwcfa  0x07, 24
    2430                      .dwcfa  0x07, 25
    2431                      .dwcfa  0x07, 26
    2432                      .dwcfa  0x08, 27
    2433                      .dwcfa  0x07, 28
    2434                      .dwcfa  0x07, 29
    2435                      .dwcfa  0x07, 30
    2436                      .dwcfa  0x07, 31
    2437                      .dwcfa  0x07, 32
    2438                      .dwcfa  0x07, 33
    2439                      .dwcfa  0x07, 34
    2440                      .dwcfa  0x07, 35
    2441                      .dwcfa  0x07, 36
    2442                      .dwcfa  0x07, 37
    2443                      .dwcfa  0x07, 38
    2444                      .dwcfa  0x07, 39
    2445                      .dwcfa  0x07, 40
    2446              
TMS320C2000 COFF Assembler PC v4.1.3 Wed Jan 12 08:12:08 2011

Tools Copyright (c) 1996-2006 Texas Instruments Incorporated
C:\DOCUME~1\ADMINI~1\LOCALS~1\Temp\TI3242                            PAGE   56

    2447              ;***************************************************************
    2448              ;* DWARF REGISTER MAP                                          *
    2449              ;***************************************************************
    2450              
    2451              DW$220  .dwtag  DW_TAG_assign_register, DW_AT_name("AL")
    2452                      .dwattr DW$220, DW_AT_location[DW_OP_reg0]
    2453              DW$221  .dwtag  DW_TAG_assign_register, DW_AT_name("AH")
    2454                      .dwattr DW$221, DW_AT_location[DW_OP_reg1]
    2455              DW$222  .dwtag  DW_TAG_assign_register, DW_AT_name("PL")
    2456                      .dwattr DW$222, DW_AT_location[DW_OP_reg2]
    2457              DW$223  .dwtag  DW_TAG_assign_register, DW_AT_name("PH")
    2458                      .dwattr DW$223, DW_AT_location[DW_OP_reg3]
    2459              DW$224  .dwtag  DW_TAG_assign_register, DW_AT_name("AR0")
    2460                      .dwattr DW$224, DW_AT_location[DW_OP_reg4]
    2461              DW$225  .dwtag  DW_TAG_assign_register, DW_AT_name("XAR0")
    2462                      .dwattr DW$225, DW_AT_location[DW_OP_reg5]
    2463              DW$226  .dwtag  DW_TAG_assign_register, DW_AT_name("AR1")
    2464                      .dwattr DW$226, DW_AT_location[DW_OP_reg6]
    2465              DW$227  .dwtag  DW_TAG_assign_register, DW_AT_name("XAR1")
    2466                      .dwattr DW$227, DW_AT_location[DW_OP_reg7]
    2467              DW$228  .dwtag  DW_TAG_assign_register, DW_AT_name("AR2")
    2468                      .dwattr DW$228, DW_AT_location[DW_OP_reg8]
    2469              DW$229  .dwtag  DW_TAG_assign_register, DW_AT_name("XAR2")
    2470                      .dwattr DW$229, DW_AT_location[DW_OP_reg9]
    2471              DW$230  .dwtag  DW_TAG_assign_register, DW_AT_name("AR3")
    2472                      .dwattr DW$230, DW_AT_location[DW_OP_reg10]
    2473              DW$231  .dwtag  DW_TAG_assign_register, DW_AT_name("XAR3")
    2474                      .dwattr DW$231, DW_AT_location[DW_OP_reg11]
    2475              DW$232  .dwtag  DW_TAG_assign_register, DW_AT_name("AR4")
    2476                      .dwattr DW$232, DW_AT_location[DW_OP_reg12]
    2477              DW$233  .dwtag  DW_TAG_assign_register, DW_AT_name("XAR4")
    2478                      .dwattr DW$233, DW_AT_location[DW_OP_reg13]
    2479              DW$234  .dwtag  DW_TAG_assign_register, DW_AT_name("AR5")
    2480                      .dwattr DW$234, DW_AT_location[DW_OP_reg14]
    2481              DW$235  .dwtag  DW_TAG_assign_register, DW_AT_name("XAR5")
    2482                      .dwattr DW$235, DW_AT_location[DW_OP_reg15]
    2483              DW$236  .dwtag  DW_TAG_assign_register, DW_AT_name("AR6")
    2484                      .dwattr DW$236, DW_AT_location[DW_OP_reg16]
    2485              DW$237  .dwtag  DW_TAG_assign_register, DW_AT_name("XAR6")
    2486                      .dwattr DW$237, DW_AT_location[DW_OP_reg17]
    2487              DW$238  .dwtag  DW_TAG_assign_register, DW_AT_name("AR7")
    2488                      .dwattr DW$238, DW_AT_location[DW_OP_reg18]
    2489              DW$239  .dwtag  DW_TAG_assign_register, DW_AT_name("XAR7")
    2490                      .dwattr DW$239, DW_AT_location[DW_OP_reg19]
    2491              DW$240  .dwtag  DW_TAG_assign_register, DW_AT_name("SP")
    2492                      .dwattr DW$240, DW_AT_location[DW_OP_reg20]
    2493              DW$241  .dwtag  DW_TAG_assign_register, DW_AT_name("XT")
    2494                      .dwattr DW$241, DW_AT_location[DW_OP_reg21]
    2495              DW$242  .dwtag  DW_TAG_assign_register, DW_AT_name("T")
    2496                      .dwattr DW$242, DW_AT_location[DW_OP_reg22]
    2497              DW$243  .dwtag  DW_TAG_assign_register, DW_AT_name("ST0")
    2498                      .dwattr DW$243, DW_AT_location[DW_OP_reg23]
    2499              DW$244  .dwtag  DW_TAG_assign_register, DW_AT_name("ST1")
    2500                      .dwattr DW$244, DW_AT_location[DW_OP_reg24]
    2501              DW$245  .dwtag  DW_TAG_assign_register, DW_AT_name("PC")
TMS320C2000 COFF Assembler PC v4.1.3 Wed Jan 12 08:12:08 2011

Tools Copyright (c) 1996-2006 Texas Instruments Incorporated
C:\DOCUME~1\ADMINI~1\LOCALS~1\Temp\TI3242                            PAGE   57

    2502                      .dwattr DW$245, DW_AT_location[DW_OP_reg25]
    2503              DW$246  .dwtag  DW_TAG_assign_register, DW_AT_name("RPC")
    2504                      .dwattr DW$246, DW_AT_location[DW_OP_reg26]
    2505              DW$247  .dwtag  DW_TAG_assign_register, DW_AT_name("FP")
    2506                      .dwattr DW$247, DW_AT_location[DW_OP_reg27]
    2507              DW$248  .dwtag  DW_TAG_assign_register, DW_AT_name("DP")
    2508                      .dwattr DW$248, DW_AT_location[DW_OP_reg28]
    2509              DW$249  .dwtag  DW_TAG_assign_register, DW_AT_name("SXM")
    2510                      .dwattr DW$249, DW_AT_location[DW_OP_reg29]
    2511              DW$250  .dwtag  DW_TAG_assign_register, DW_AT_name("PM")
    2512                      .dwattr DW$250, DW_AT_location[DW_OP_reg30]
    2513              DW$251  .dwtag  DW_TAG_assign_register, DW_AT_name("OVM")
    2514                      .dwattr DW$251, DW_AT_location[DW_OP_reg31]
    2515              DW$252  .dwtag  DW_TAG_assign_register, DW_AT_name("PAGE0")
    2516                      .dwattr DW$252, DW_AT_location[DW_OP_regx 0x20]
    2517              DW$253  .dwtag  DW_TAG_assign_register, DW_AT_name("AMODE")
    2518                      .dwattr DW$253, DW_AT_location[DW_OP_regx 0x21]
    2519              DW$254  .dwtag  DW_TAG_assign_register, DW_AT_name("IFR")
    2520                      .dwattr DW$254, DW_AT_location[DW_OP_regx 0x22]
    2521              DW$255  .dwtag  DW_TAG_assign_register, DW_AT_name("IER")
    2522                      .dwattr DW$255, DW_AT_location[DW_OP_regx 0x23]
    2523              DW$256  .dwtag  DW_TAG_assign_register, DW_AT_name("IER")
    2524                      .dwattr DW$256, DW_AT_location[DW_OP_regx 0x24]
    2525              DW$257  .dwtag  DW_TAG_assign_register, DW_AT_name("PSEUDO")
    2526                      .dwattr DW$257, DW_AT_location[DW_OP_regx 0x25]
    2527              DW$258  .dwtag  DW_TAG_assign_register, DW_AT_name("PSEUDOH")
    2528                      .dwattr DW$258, DW_AT_location[DW_OP_regx 0x26]
    2529              DW$259  .dwtag  DW_TAG_assign_register, DW_AT_name("VOL")
    2530                      .dwattr DW$259, DW_AT_location[DW_OP_regx 0x27]
    2531              DW$260  .dwtag  DW_TAG_assign_register, DW_AT_name("CIE_RETA")
    2532                      .dwattr DW$260, DW_AT_location[DW_OP_regx 0x28]
    2533                      .dwendtag DW$CU
    2534              

No Assembly Errors, No Assembly Warnings
