TMS320C2000 COFF Assembler PC v4.1.3 Wed Jan 12 08:34:31 2011

Tools Copyright (c) 1996-2006 Texas Instruments Incorporated
C:\DOCUME~1\ADMINI~1\LOCALS~1\Temp\TI1043                            PAGE    1

       1              ;***************************************************************
       2              ;* TMS320C2000 C/C++ Codegen                         PC v4.1.3 *
       3              ;* Date/Time created: Wed Jan 12 08:34:31 2011                 *
       4              ;***************************************************************
       5                      .compiler_opts --mem_model:code=flat --mem_model:data=large --silicon_version=28 
       6        0002  FP      .set    XAR2
       7              
       8              DW$CU   .dwtag  DW_TAG_compile_unit
       9                      .dwattr DW$CU, DW_AT_name("app_ERRmod_fun.c")
      10                      .dwattr DW$CU, DW_AT_producer("TMS320C2000 C/C++ Codegen PC v4.1.3 Copyright (c) 1996-2006 Texas Inst
      11                      .dwattr DW$CU, DW_AT_stmt_list(0x00)
      12                      .dwattr DW$CU, DW_AT_TI_VERSION(0x01)
      13              ;**************************************************************
      14              ;* CINIT RECORDS                                              *
      15              ;**************************************************************
      16 00000000               .sect   ".cinit"
      17                      .align  1
      18 00000000 FFFF          .field          -1,16
      19 00000001 0000-         .field          _m_ERRmod_task_pro+0,32
         00000002 0000 
      20 00000003 00BE          .field          190,16                  ; _m_ERRmod_task_pro @ 0
      21              
      22 00000004               .sect   ".cinit"
      23                      .align  1
      24 00000004 FFFF          .field          -1,16
      25 00000005 0001-         .field          _m_ERRmod_Mdev_id+0,32
         00000006 0000 
      26 00000007 0000          .field          0,16                    ; _m_ERRmod_Mdev_id @ 0
      27              
      28 00000008               .sect   ".cinit"
      29                      .align  1
      30 00000008 FFFF          .field          -1,16
      31 00000009 0002-         .field          _m_ERRmod_setp+0,32
         0000000a 0000 
      32 0000000b 0000          .field          0,16                    ; _m_ERRmod_setp @ 0
      33              
      34 0000000c               .sect   ".cinit"
      35                      .align  1
      36 0000000c FFFE          .field          -2,16
      37 0000000d 0004-         .field          _m_ERRmod_base_I+0,32
         0000000e 0000 
      38 0000000f 0000          .xfloat 0.00000000000000000000e+00              ; _m_ERRmod_base_I @ 0
         00000010 0000 
      39              
      40 00000011               .sect   ".cinit"
      41                      .align  1
      42 00000011 FFFE          .field          -2,16
      43 00000012 0006-         .field          _m_ERRmod_base_U+0,32
         00000013 0000 
      44 00000014 0000          .xfloat 0.00000000000000000000e+00              ; _m_ERRmod_base_U @ 0
         00000015 0000 
      45              
      46 00000016               .sect   ".cinit"
      47                      .align  1
      48 00000016 FFFE          .field          -IR_1,16
TMS320C2000 COFF Assembler PC v4.1.3 Wed Jan 12 08:34:31 2011

Tools Copyright (c) 1996-2006 Texas Instruments Incorporated
C:\DOCUME~1\ADMINI~1\LOCALS~1\Temp\TI1043                            PAGE    2

      49 00000017 0008-         .field          _m_ERRmod_DLcorrect+0,32
         00000018 0000 
      50 00000019 0000          .xfloat 0.00000000000000000000e+00              ; _m_ERRmod_DLcorrect._err_Ua @ 0
         0000001a 0000 
      51        0002  IR_1:   .set    2
      52              
      53 0000001b               .sect   ".cinit"
      54                      .align  1
      55 0000001b FFFE          .field          -IR_2,16
      56 0000001c 0040-         .field          _m_ERRmod_DLarg+0,32
         0000001d 0000 
      57 0000001e 0000          .xfloat 0.00000000000000000000e+00              ; _m_ERRmod_DLarg._phase_a._f_U @ 0
         0000001f 0000 
      58        0002  IR_2:   .set    2
      59              
      60              
      61              DW$1    .dwtag  DW_TAG_subprogram, DW_AT_name("GUI_edit_string_display_At"), DW_AT_symbol_name("_GUI_edit_str
      62                      .dwattr DW$1, DW_AT_declaration(0x01)
      63                      .dwattr DW$1, DW_AT_external(0x01)
      64              DW$2    .dwtag  DW_TAG_formal_parameter, DW_AT_type(*DW$T$63)
      65              DW$3    .dwtag  DW_TAG_formal_parameter, DW_AT_type(*DW$T$19)
      66                      .dwendtag DW$1
      67              
      68              
      69              DW$4    .dwtag  DW_TAG_subprogram, DW_AT_name("GUI_edit_clean"), DW_AT_symbol_name("_GUI_edit_clean")
      70                      .dwattr DW$4, DW_AT_declaration(0x01)
      71                      .dwattr DW$4, DW_AT_external(0x01)
      72              
      73              DW$5    .dwtag  DW_TAG_subprogram, DW_AT_name("app_ERRmod_correct_window_entery"), DW_AT_symbol_name("_app_ER
      74                      .dwattr DW$5, DW_AT_declaration(0x01)
      75                      .dwattr DW$5, DW_AT_external(0x01)
      76              DW$6    .dwtag  DW_TAG_formal_parameter, DW_AT_type(*DW$T$6)
      77                      .dwendtag DW$5
      78              
      79              
      80              DW$7    .dwtag  DW_TAG_subprogram, DW_AT_name("GUI_3D_window_title_mod"), DW_AT_symbol_name("_GUI_3D_window_t
      81                      .dwattr DW$7, DW_AT_declaration(0x01)
      82                      .dwattr DW$7, DW_AT_external(0x01)
      83              DW$8    .dwtag  DW_TAG_formal_parameter, DW_AT_type(*DW$T$69)
      84              DW$9    .dwtag  DW_TAG_formal_parameter, DW_AT_type(*DW$T$63)
      85                      .dwendtag DW$7
      86              
      87              
      88              DW$10   .dwtag  DW_TAG_subprogram, DW_AT_name("app_ERRmod_correct_window_exit"), DW_AT_symbol_name("_app_ERRm
      89                      .dwattr DW$10, DW_AT_declaration(0x01)
      90                      .dwattr DW$10, DW_AT_external(0x01)
      91              DW$11   .dwtag  DW_TAG_formal_parameter, DW_AT_type(*DW$T$6)
      92                      .dwendtag DW$10
      93              
      94              
      95              DW$12   .dwtag  DW_TAG_subprogram, DW_AT_name("GUI_set_Fgcolor"), DW_AT_symbol_name("_GUI_set_Fgcolor")
      96                      .dwattr DW$12, DW_AT_declaration(0x01)
      97                      .dwattr DW$12, DW_AT_external(0x01)
      98              DW$13   .dwtag  DW_TAG_formal_parameter, DW_AT_type(*DW$T$11)
      99                      .dwendtag DW$12
TMS320C2000 COFF Assembler PC v4.1.3 Wed Jan 12 08:34:31 2011

Tools Copyright (c) 1996-2006 Texas Instruments Incorporated
C:\DOCUME~1\ADMINI~1\LOCALS~1\Temp\TI1043                            PAGE    3

     100              
     101              
     102              DW$14   .dwtag  DW_TAG_subprogram, DW_AT_name("app_global_e2prom_switch_disk"), DW_AT_symbol_name("_app_globa
     103                      .dwattr DW$14, DW_AT_declaration(0x01)
     104                      .dwattr DW$14, DW_AT_external(0x01)
     105              DW$15   .dwtag  DW_TAG_formal_parameter, DW_AT_type(*DW$T$6)
     106                      .dwendtag DW$14
     107              
     108              
     109              DW$16   .dwtag  DW_TAG_subprogram, DW_AT_name("GUI_window_hwin_req"), DW_AT_symbol_name("_GUI_window_hwin_req
     110                      .dwattr DW$16, DW_AT_declaration(0x01)
     111                      .dwattr DW$16, DW_AT_external(0x01)
     112              DW$17   .dwtag  DW_TAG_formal_parameter, DW_AT_type(*DW$T$69)
     113                      .dwendtag DW$16
     114              
     115              
     116              DW$18   .dwtag  DW_TAG_subprogram, DW_AT_name("GUI_set_Bgcolor"), DW_AT_symbol_name("_GUI_set_Bgcolor")
     117                      .dwattr DW$18, DW_AT_declaration(0x01)
     118                      .dwattr DW$18, DW_AT_external(0x01)
     119              DW$19   .dwtag  DW_TAG_formal_parameter, DW_AT_type(*DW$T$11)
     120                      .dwendtag DW$18
     121              
     122              
     123              DW$20   .dwtag  DW_TAG_subprogram, DW_AT_name("app_ERRmod_window_creat"), DW_AT_symbol_name("_app_ERRmod_wind
     124                      .dwattr DW$20, DW_AT_declaration(0x01)
     125                      .dwattr DW$20, DW_AT_external(0x01)
     126              
     127              DW$21   .dwtag  DW_TAG_subprogram, DW_AT_name("GUI_window_hwin_release"), DW_AT_symbol_name("_GUI_window_hwin
     128                      .dwattr DW$21, DW_AT_declaration(0x01)
     129                      .dwattr DW$21, DW_AT_external(0x01)
     130              DW$22   .dwtag  DW_TAG_formal_parameter, DW_AT_type(*DW$T$69)
     131                      .dwendtag DW$21
     132              
     133              
     134              DW$23   .dwtag  DW_TAG_subprogram, DW_AT_name("app_ERRmod_edit_fdisplay"), DW_AT_symbol_name("_app_ERRmod_edi
     135                      .dwattr DW$23, DW_AT_declaration(0x01)
     136                      .dwattr DW$23, DW_AT_external(0x01)
     137              DW$24   .dwtag  DW_TAG_formal_parameter, DW_AT_type(*DW$T$19)
     138              DW$25   .dwtag  DW_TAG_formal_parameter, DW_AT_type(*DW$T$16)
     139              DW$26   .dwtag  DW_TAG_formal_parameter, DW_AT_type(*DW$T$19)
     140                      .dwendtag DW$23
     141              
     142              
     143              DW$27   .dwtag  DW_TAG_subprogram, DW_AT_name("app_ERRmod_window_destroy"), DW_AT_symbol_name("_app_ERRmod_wi
     144                      .dwattr DW$27, DW_AT_declaration(0x01)
     145                      .dwattr DW$27, DW_AT_external(0x01)
     146              
     147              DW$28   .dwtag  DW_TAG_subprogram, DW_AT_name("app_free"), DW_AT_symbol_name("_app_free")
     148                      .dwattr DW$28, DW_AT_declaration(0x01)
     149                      .dwattr DW$28, DW_AT_external(0x01)
     150              DW$29   .dwtag  DW_TAG_formal_parameter, DW_AT_type(*DW$T$3)
     151                      .dwendtag DW$28
     152              
     153              
     154              DW$30   .dwtag  DW_TAG_subprogram, DW_AT_name("os_driver_init"), DW_AT_symbol_name("_os_driver_init")
TMS320C2000 COFF Assembler PC v4.1.3 Wed Jan 12 08:34:31 2011

Tools Copyright (c) 1996-2006 Texas Instruments Incorporated
C:\DOCUME~1\ADMINI~1\LOCALS~1\Temp\TI1043                            PAGE    4

     155                      .dwattr DW$30, DW_AT_declaration(0x01)
     156                      .dwattr DW$30, DW_AT_external(0x01)
     157              DW$31   .dwtag  DW_TAG_formal_parameter, DW_AT_type(*DW$T$54)
     158                      .dwendtag DW$30
     159              
     160              
     161              DW$32   .dwtag  DW_TAG_subprogram, DW_AT_name("app_global_correct_data_read"), DW_AT_symbol_name("_app_global
     162                      .dwattr DW$32, DW_AT_declaration(0x01)
     163                      .dwattr DW$32, DW_AT_external(0x01)
     164              DW$33   .dwtag  DW_TAG_formal_parameter, DW_AT_type(*DW$T$54)
     165                      .dwendtag DW$32
     166              
     167              
     168              DW$34   .dwtag  DW_TAG_subprogram, DW_AT_name("os_driver_ioctl"), DW_AT_symbol_name("_os_driver_ioctl")
     169                      .dwattr DW$34, DW_AT_declaration(0x01)
     170                      .dwattr DW$34, DW_AT_external(0x01)
     171              DW$35   .dwtag  DW_TAG_formal_parameter, DW_AT_type(*DW$T$54)
     172              DW$36   .dwtag  DW_TAG_formal_parameter, DW_AT_type(*DW$T$6)
     173              DW$37   .dwtag  DW_TAG_formal_parameter, DW_AT_type(*DW$T$3)
     174                      .dwendtag DW$34
     175              
     176              
     177              DW$38   .dwtag  DW_TAG_subprogram, DW_AT_name("app_module_switch_last_mod"), DW_AT_symbol_name("_app_module_s
     178                      .dwattr DW$38, DW_AT_declaration(0x01)
     179                      .dwattr DW$38, DW_AT_external(0x01)
     180              
     181              DW$39   .dwtag  DW_TAG_subprogram, DW_AT_name("OSTimeDly"), DW_AT_symbol_name("_OSTimeDly")
     182                      .dwattr DW$39, DW_AT_declaration(0x01)
     183                      .dwattr DW$39, DW_AT_external(0x01)
     184              DW$40   .dwtag  DW_TAG_formal_parameter, DW_AT_type(*DW$T$51)
     185                      .dwendtag DW$39
     186              
     187              
     188              DW$41   .dwtag  DW_TAG_subprogram, DW_AT_name("app_global_e2prom_write_char"), DW_AT_symbol_name("_app_global
     189                      .dwattr DW$41, DW_AT_declaration(0x01)
     190                      .dwattr DW$41, DW_AT_external(0x01)
     191              DW$42   .dwtag  DW_TAG_formal_parameter, DW_AT_type(*DW$T$11)
     192              DW$43   .dwtag  DW_TAG_formal_parameter, DW_AT_type(*DW$T$63)
     193              DW$44   .dwtag  DW_TAG_formal_parameter, DW_AT_type(*DW$T$11)
     194                      .dwendtag DW$41
     195              
     196              
     197              DW$45   .dwtag  DW_TAG_subprogram, DW_AT_name("app_global_key_dummy_press"), DW_AT_symbol_name("_app_global_k
     198                      .dwattr DW$45, DW_AT_declaration(0x01)
     199                      .dwattr DW$45, DW_AT_external(0x01)
     200              DW$46   .dwtag  DW_TAG_formal_parameter, DW_AT_type(*DW$T$6)
     201                      .dwendtag DW$45
     202              
     203              
     204              DW$47   .dwtag  DW_TAG_subprogram, DW_AT_name("os_driver_uninstall"), DW_AT_symbol_name("_os_driver_uninstall
     205                      .dwattr DW$47, DW_AT_declaration(0x01)
     206                      .dwattr DW$47, DW_AT_external(0x01)
     207              DW$48   .dwtag  DW_TAG_formal_parameter, DW_AT_type(*DW$T$54)
     208                      .dwendtag DW$47
     209              
TMS320C2000 COFF Assembler PC v4.1.3 Wed Jan 12 08:34:31 2011

Tools Copyright (c) 1996-2006 Texas Instruments Incorporated
C:\DOCUME~1\ADMINI~1\LOCALS~1\Temp\TI1043                            PAGE    5

     210                      .global _m_ERRmod_task_pro
     211 00000000       _m_ERRmod_task_pro:     .usect  ".ebss",1,1,0
     212              DW$49   .dwtag  DW_TAG_variable, DW_AT_name("m_ERRmod_task_pro"), DW_AT_symbol_name("_m_ERRmod_task_pro")
     213                      .dwattr DW$49, DW_AT_location[DW_OP_addr _m_ERRmod_task_pro]
     214                      .dwattr DW$49, DW_AT_type(*DW$T$6)
     215                      .dwattr DW$49, DW_AT_external(0x01)
     216              
     217              DW$50   .dwtag  DW_TAG_subprogram, DW_AT_name("measure_driver_register"), DW_AT_symbol_name("_measure_driver_
     218                      .dwattr DW$50, DW_AT_type(*DW$T$10)
     219                      .dwattr DW$50, DW_AT_declaration(0x01)
     220                      .dwattr DW$50, DW_AT_external(0x01)
     221                      .global _m_ERRmod_Mdev_id
     222 00000001       _m_ERRmod_Mdev_id:      .usect  ".ebss",1,1,0
     223              DW$51   .dwtag  DW_TAG_variable, DW_AT_name("m_ERRmod_Mdev_id"), DW_AT_symbol_name("_m_ERRmod_Mdev_id")
     224                      .dwattr DW$51, DW_AT_location[DW_OP_addr _m_ERRmod_Mdev_id]
     225                      .dwattr DW$51, DW_AT_type(*DW$T$54)
     226                      .dwattr DW$51, DW_AT_external(0x01)
     227              
     228              DW$52   .dwtag  DW_TAG_subprogram, DW_AT_name("os_task_name_set"), DW_AT_symbol_name("_os_task_name_set")
     229                      .dwattr DW$52, DW_AT_type(*DW$T$6)
     230                      .dwattr DW$52, DW_AT_declaration(0x01)
     231                      .dwattr DW$52, DW_AT_external(0x01)
     232              DW$53   .dwtag  DW_TAG_formal_parameter, DW_AT_type(*DW$T$6)
     233              DW$54   .dwtag  DW_TAG_formal_parameter, DW_AT_type(*DW$T$63)
     234                      .dwendtag DW$52
     235              
     236              
     237              DW$55   .dwtag  DW_TAG_subprogram, DW_AT_name("os_task_delete"), DW_AT_symbol_name("_os_task_delete")
     238                      .dwattr DW$55, DW_AT_type(*DW$T$6)
     239                      .dwattr DW$55, DW_AT_declaration(0x01)
     240                      .dwattr DW$55, DW_AT_external(0x01)
     241              DW$56   .dwtag  DW_TAG_formal_parameter, DW_AT_type(*DW$T$6)
     242                      .dwendtag DW$55
     243              
     244                      .global _m_ERRmod_setp
     245 00000002       _m_ERRmod_setp: .usect  ".ebss",1,1,0
     246              DW$57   .dwtag  DW_TAG_variable, DW_AT_name("m_ERRmod_setp"), DW_AT_symbol_name("_m_ERRmod_setp")
     247                      .dwattr DW$57, DW_AT_location[DW_OP_addr _m_ERRmod_setp]
     248                      .dwattr DW$57, DW_AT_type(*DW$T$6)
     249                      .dwattr DW$57, DW_AT_external(0x01)
     250              
     251              DW$58   .dwtag  DW_TAG_subprogram, DW_AT_name("app_global_key_obtain"), DW_AT_symbol_name("_app_global_key_ob
     252                      .dwattr DW$58, DW_AT_type(*DW$T$6)
     253                      .dwattr DW$58, DW_AT_declaration(0x01)
     254                      .dwattr DW$58, DW_AT_external(0x01)
     255              DW$59   .dwtag  DW_TAG_formal_parameter, DW_AT_type(*DW$T$86)
     256              DW$60   .dwtag  DW_TAG_formal_parameter, DW_AT_type(*DW$T$19)
     257                      .dwendtag DW$58
     258              
     259              
     260              DW$61   .dwtag  DW_TAG_subprogram, DW_AT_name("global_ftoa"), DW_AT_symbol_name("_global_ftoa")
     261                      .dwattr DW$61, DW_AT_type(*DW$T$19)
     262                      .dwattr DW$61, DW_AT_declaration(0x01)
     263                      .dwattr DW$61, DW_AT_external(0x01)
     264              DW$62   .dwtag  DW_TAG_formal_parameter, DW_AT_type(*DW$T$16)
TMS320C2000 COFF Assembler PC v4.1.3 Wed Jan 12 08:34:31 2011

Tools Copyright (c) 1996-2006 Texas Instruments Incorporated
C:\DOCUME~1\ADMINI~1\LOCALS~1\Temp\TI1043                            PAGE    6

     265              DW$63   .dwtag  DW_TAG_formal_parameter, DW_AT_type(*DW$T$63)
     266              DW$64   .dwtag  DW_TAG_formal_parameter, DW_AT_type(*DW$T$19)
     267                      .dwendtag DW$61
     268              
     269              
     270              DW$65   .dwtag  DW_TAG_subprogram, DW_AT_name("GUI_edit_select"), DW_AT_symbol_name("_GUI_edit_select")
     271                      .dwattr DW$65, DW_AT_type(*DW$T$91)
     272                      .dwattr DW$65, DW_AT_declaration(0x01)
     273                      .dwattr DW$65, DW_AT_external(0x01)
     274              DW$66   .dwtag  DW_TAG_formal_parameter, DW_AT_type(*DW$T$19)
     275                      .dwendtag DW$65
     276              
     277              
     278              DW$67   .dwtag  DW_TAG_subprogram, DW_AT_name("GUI_drop_list_unfold"), DW_AT_symbol_name("_GUI_drop_list_unfo
     279                      .dwattr DW$67, DW_AT_type(*DW$T$19)
     280                      .dwattr DW$67, DW_AT_declaration(0x01)
     281                      .dwattr DW$67, DW_AT_external(0x01)
     282              DW$68   .dwtag  DW_TAG_formal_parameter, DW_AT_type(*DW$T$69)
     283                      .dwendtag DW$67
     284              
     285              
     286              DW$69   .dwtag  DW_TAG_subprogram, DW_AT_name("os_task_assign_stk_build"), DW_AT_symbol_name("_os_task_assign
     287                      .dwattr DW$69, DW_AT_type(*DW$T$6)
     288                      .dwattr DW$69, DW_AT_declaration(0x01)
     289                      .dwattr DW$69, DW_AT_external(0x01)
     290              DW$70   .dwtag  DW_TAG_formal_parameter, DW_AT_type(*DW$T$28)
     291              DW$71   .dwtag  DW_TAG_formal_parameter, DW_AT_type(*DW$T$19)
     292                      .dwendtag DW$69
     293              
     294              
     295              DW$72   .dwtag  DW_TAG_subprogram, DW_AT_name("app_global_decide_Nkey"), DW_AT_symbol_name("_app_global_decid
     296                      .dwattr DW$72, DW_AT_type(*DW$T$25)
     297                      .dwattr DW$72, DW_AT_declaration(0x01)
     298                      .dwattr DW$72, DW_AT_external(0x01)
     299              DW$73   .dwtag  DW_TAG_formal_parameter, DW_AT_type(*DW$T$6)
     300                      .dwendtag DW$72
     301              
     302              
     303              DW$74   .dwtag  DW_TAG_subprogram, DW_AT_name("app_global_key_wait"), DW_AT_symbol_name("_app_global_key_wait
     304                      .dwattr DW$74, DW_AT_type(*DW$T$6)
     305                      .dwattr DW$74, DW_AT_declaration(0x01)
     306                      .dwattr DW$74, DW_AT_external(0x01)
     307              DW$75   .dwtag  DW_TAG_formal_parameter, DW_AT_type(*DW$T$6)
     308              DW$76   .dwtag  DW_TAG_formal_parameter, DW_AT_type(*DW$T$6)
     309                      .dwendtag DW$74
     310              
     311                      .global _m_ERRmod_base_I
     312 00000004       _m_ERRmod_base_I:       .usect  ".ebss",2,1,1
     313              DW$77   .dwtag  DW_TAG_variable, DW_AT_name("m_ERRmod_base_I"), DW_AT_symbol_name("_m_ERRmod_base_I")
     314                      .dwattr DW$77, DW_AT_location[DW_OP_addr _m_ERRmod_base_I]
     315                      .dwattr DW$77, DW_AT_type(*DW$T$16)
     316                      .dwattr DW$77, DW_AT_external(0x01)
     317                      .global _m_ERRmod_base_U
     318 00000006       _m_ERRmod_base_U:       .usect  ".ebss",2,1,1
     319              DW$78   .dwtag  DW_TAG_variable, DW_AT_name("m_ERRmod_base_U"), DW_AT_symbol_name("_m_ERRmod_base_U")
TMS320C2000 COFF Assembler PC v4.1.3 Wed Jan 12 08:34:31 2011

Tools Copyright (c) 1996-2006 Texas Instruments Incorporated
C:\DOCUME~1\ADMINI~1\LOCALS~1\Temp\TI1043                            PAGE    7

     320                      .dwattr DW$78, DW_AT_location[DW_OP_addr _m_ERRmod_base_U]
     321                      .dwattr DW$78, DW_AT_type(*DW$T$16)
     322                      .dwattr DW$78, DW_AT_external(0x01)
     323              
     324              DW$79   .dwtag  DW_TAG_subprogram, DW_AT_name("app_malloc"), DW_AT_symbol_name("_app_malloc")
     325                      .dwattr DW$79, DW_AT_type(*DW$T$3)
     326                      .dwattr DW$79, DW_AT_declaration(0x01)
     327                      .dwattr DW$79, DW_AT_external(0x01)
     328              DW$80   .dwtag  DW_TAG_formal_parameter, DW_AT_type(*DW$T$19)
     329                      .dwendtag DW$79
     330              
     331              
     332              DW$81   .dwtag  DW_TAG_subprogram, DW_AT_name("global_atof"), DW_AT_symbol_name("_global_atof")
     333                      .dwattr DW$81, DW_AT_type(*DW$T$16)
     334                      .dwattr DW$81, DW_AT_declaration(0x01)
     335                      .dwattr DW$81, DW_AT_external(0x01)
     336              DW$82   .dwtag  DW_TAG_formal_parameter, DW_AT_type(*DW$T$63)
     337                      .dwendtag DW$81
     338              
     339              DW$83   .dwtag  DW_TAG_variable, DW_AT_name("m_correct_drop_list"), DW_AT_symbol_name("_m_correct_drop_list")
     340                      .dwattr DW$83, DW_AT_type(*DW$T$69)
     341                      .dwattr DW$83, DW_AT_declaration(0x01)
     342                      .dwattr DW$83, DW_AT_external(0x01)
     343              DW$84   .dwtag  DW_TAG_variable, DW_AT_name("m_correct_edit"), DW_AT_symbol_name("_m_correct_edit")
     344                      .dwattr DW$84, DW_AT_type(*DW$T$69)
     345                      .dwattr DW$84, DW_AT_declaration(0x01)
     346                      .dwattr DW$84, DW_AT_external(0x01)
     347              DW$85   .dwtag  DW_TAG_variable, DW_AT_name("m_correct_win"), DW_AT_symbol_name("_m_correct_win")
     348                      .dwattr DW$85, DW_AT_type(*DW$T$69)
     349                      .dwattr DW$85, DW_AT_declaration(0x01)
     350                      .dwattr DW$85, DW_AT_external(0x01)
     351                      .global _coorect_handle_map
     352 00000000               .sect   ".econst"
     353                      .align  2
     354 00000000       _coorect_handle_map:
     355 00000000 00EA'         .field          _app_ERRmod_Ucorrect,32         ; _coorect_handle_map[0] @ 0
         00000001 0000 
     356 00000002 01E0'         .field          _app_ERRmod_Icorrect,32         ; _coorect_handle_map[1] @ 32
         00000003 0000 
     357 00000004 02EF'         .field          _app_ERRmod_Pcorrect,32         ; _coorect_handle_map[2] @ 64
         00000005 0000 
     358 00000006 02F8'         .field          _app_ERRmod_Jcorrect,32         ; _coorect_handle_map[3] @ 96
         00000007 0000 
     359              
     360              DW$86   .dwtag  DW_TAG_variable, DW_AT_name("coorect_handle_map"), DW_AT_symbol_name("_coorect_handle_map")
     361                      .dwattr DW$86, DW_AT_location[DW_OP_addr _coorect_handle_map]
     362                      .dwattr DW$86, DW_AT_type(*DW$T$100)
     363                      .dwattr DW$86, DW_AT_external(0x01)
     364              DW$87   .dwtag  DW_TAG_variable, DW_AT_name("m_err_DLI_option"), DW_AT_symbol_name("_m_err_DLI_option")
     365                      .dwattr DW$87, DW_AT_type(*DW$T$113)
     366                      .dwattr DW$87, DW_AT_declaration(0x01)
     367                      .dwattr DW$87, DW_AT_external(0x01)
     368                      .global _m_ERRmod_DLcorrect
     369 00000008       _m_ERRmod_DLcorrect:    .usect  ".ebss",32,1,1
     370              DW$88   .dwtag  DW_TAG_variable, DW_AT_name("m_ERRmod_DLcorrect"), DW_AT_symbol_name("_m_ERRmod_DLcorrect")
TMS320C2000 COFF Assembler PC v4.1.3 Wed Jan 12 08:34:31 2011

Tools Copyright (c) 1996-2006 Texas Instruments Incorporated
C:\DOCUME~1\ADMINI~1\LOCALS~1\Temp\TI1043                            PAGE    8

     371                      .dwattr DW$88, DW_AT_location[DW_OP_addr _m_ERRmod_DLcorrect]
     372                      .dwattr DW$88, DW_AT_type(*DW$T$118)
     373                      .dwattr DW$88, DW_AT_external(0x01)
     374                      .global _m_ERRmod_DLarg
     375 00000040       _m_ERRmod_DLarg:        .usect  ".ebss",64,1,1
     376              DW$89   .dwtag  DW_TAG_variable, DW_AT_name("m_ERRmod_DLarg"), DW_AT_symbol_name("_m_ERRmod_DLarg")
     377                      .dwattr DW$89, DW_AT_location[DW_OP_addr _m_ERRmod_DLarg]
     378                      .dwattr DW$89, DW_AT_type(*DW$T$116)
     379                      .dwattr DW$89, DW_AT_external(0x01)
     380              ;       C:\CCStudio_v3.3\C2000\cgtools\bin\ac2000.exe -@C:\DOCUME~1\ADMINI~1\LOCALS~1\Temp\TI1045 
     381 00000000               .sect   ".text"
     382                      .global _app_ERRmod_correct_data_save
     383              
     384              DW$90   .dwtag  DW_TAG_subprogram, DW_AT_name("app_ERRmod_correct_data_save"), DW_AT_symbol_name("_app_ERRmod
     385                      .dwattr DW$90, DW_AT_low_pc(_app_ERRmod_correct_data_save)
     386                      .dwattr DW$90, DW_AT_high_pc(0x00)
     387                      .dwattr DW$90, DW_AT_begin_file("app_ERRmod_fun.c")
     388                      .dwattr DW$90, DW_AT_begin_line(0x1b)
     389                      .dwattr DW$90, DW_AT_begin_column(0x06)
     390                      .dwpsn  "app_ERRmod_fun.c",28,1
     391              
     392                      .dwfde DW$CIE
     393              
     394              ;***************************************************************
     395              ;* FNAME: _app_ERRmod_correct_data_save FR SIZE:   6           *
     396              ;*                                                             *
     397              ;* FUNCTION ENVIRONMENT                                        *
     398              ;*                                                             *
     399              ;* FUNCTION PROPERTIES                                         *
     400              ;*                            0 Parameter,  6 Auto,  0 SOE     *
     401              ;***************************************************************
     402              
     403              _app_ERRmod_correct_data_save:
     404                      .dwcfa  0x1d, -2
     405                      .dwcfa  0x1c, 26, 0
     406                      .dwcfa  0x09, 40, 26
     407 00000000 FE06          ADDB      SP,#6
     408                      .dwcfa  0x1d, -8
     409              ;* AL    assigned to _offset
     410              DW$91   .dwtag  DW_TAG_formal_parameter, DW_AT_name("offset"), DW_AT_symbol_name("_offset")
     411                      .dwattr DW$91, DW_AT_type(*DW$T$6)
     412                      .dwattr DW$91, DW_AT_location[DW_OP_reg0]
     413              DW$92   .dwtag  DW_TAG_variable, DW_AT_name("offset"), DW_AT_symbol_name("_offset")
     414                      .dwattr DW$92, DW_AT_type(*DW$T$6)
     415                      .dwattr DW$92, DW_AT_location[DW_OP_breg20 -1]
     416              DW$93   .dwtag  DW_TAG_variable, DW_AT_name("reset"), DW_AT_symbol_name("_reset")
     417                      .dwattr DW$93, DW_AT_type(*DW$T$25)
     418                      .dwattr DW$93, DW_AT_location[DW_OP_breg20 -2]
     419              DW$94   .dwtag  DW_TAG_variable, DW_AT_name("pUcorrect"), DW_AT_symbol_name("_pUcorrect")
     420                      .dwattr DW$94, DW_AT_type(*DW$T$121)
     421                      .dwattr DW$94, DW_AT_location[DW_OP_breg20 -4]
     422              DW$95   .dwtag  DW_TAG_variable, DW_AT_name("pIcorrect"), DW_AT_symbol_name("_pIcorrect")
     423                      .dwattr DW$95, DW_AT_type(*DW$T$123)
     424                      .dwattr DW$95, DW_AT_location[DW_OP_breg20 -6]
     425 00000001 9641          MOV       *-SP[1],AL            ; |28| 
TMS320C2000 COFF Assembler PC v4.1.3 Wed Jan 12 08:34:31 2011

Tools Copyright (c) 1996-2006 Texas Instruments Incorporated
C:\DOCUME~1\ADMINI~1\LOCALS~1\Temp\TI1043                            PAGE    9

     426                      .dwpsn  "app_ERRmod_fun.c",32,2
     427 00000002 9A02          MOVB      AL,#2                 ; |32| 
     428 00000003 7640!         LCR       #_app_global_e2prom_switch_disk ; |32| 
         00000004 0000 
     429                      ; call occurs [#_app_global_e2prom_switch_disk] ; |32| 
     430                      .dwpsn  "app_ERRmod_fun.c",33,2
     431 00000005 761F-         MOVW      DP,#_m_ERRmod_setp
         00000006 0000 
     432 00000007 9202-         MOV       AL,@_m_ERRmod_setp    ; |33| 
     433 00000008 ED52          BF        L1,NEQ                ; |33| 
     434                      ; branchcc occurs ; |33| 
     435                      .dwpsn  "app_ERRmod_fun.c",35,3
     436 00000009 9A38          MOVB      AL,#56                ; |35| 
     437 0000000a 7640!         LCR       #_app_malloc          ; |35| 
         0000000b 0000 
     438                      ; call occurs [#_app_malloc] ; |35| 
     439 0000000c A844          MOVL      *-SP[4],XAR4          ; |35| 
     440                      .dwpsn  "app_ERRmod_fun.c",36,3
     441 0000000d 0644          MOVL      ACC,*-SP[4]           ; |36| 
     442 0000000e 56C1          BF        L2,EQ                 ; |36| 
         0000000f 00A4 
     443                      ; branchcc occurs ; |36| 
     444                      .dwpsn  "app_ERRmod_fun.c",36,21
     445                      .dwpsn  "app_ERRmod_fun.c",37,3
     446 00000010 761F-         MOVW      DP,#_m_ERRmod_base_U
         00000011 0000 
     447 00000012 8A44          MOVL      XAR4,*-SP[4]          ; |37| 
     448 00000013 D502          MOVB      XAR5,#2               ; |37| 
     449 00000014 0606-         MOVL      ACC,@_m_ERRmod_base_U ; |37| 
     450 00000015 7640!         LCR       #_global_ftoa         ; |37| 
         00000016 0000 
     451                      ; call occurs [#_global_ftoa] ; |37| 
     452                      .dwpsn  "app_ERRmod_fun.c",38,3
     453 00000017 8A44          MOVL      XAR4,*-SP[4]          ; |38| 
     454 00000018 761F-         MOVW      DP,#_m_ERRmod_DLcorrect
         00000019 0000 
     455 0000001a D502          MOVB      XAR5,#2               ; |38| 
     456 0000001b 0608-         MOVL      ACC,@_m_ERRmod_DLcorrect ; |38| 
     457 0000001c DC20          ADDB      XAR4,#32              ; |38| 
     458 0000001d 7640!         LCR       #_global_ftoa         ; |38| 
         0000001e 0000 
     459                      ; call occurs [#_global_ftoa] ; |38| 
     460                      .dwpsn  "app_ERRmod_fun.c",39,3
     461 0000001f 8A44          MOVL      XAR4,*-SP[4]          ; |39| 
     462 00000020 761F-         MOVW      DP,#_m_ERRmod_DLcorrect+2
         00000021 0000 
     463 00000022 D502          MOVB      XAR5,#2               ; |39| 
     464 00000023 060A-         MOVL      ACC,@_m_ERRmod_DLcorrect+2 ; |39| 
     465 00000024 DC28          ADDB      XAR4,#40              ; |39| 
     466 00000025 7640!         LCR       #_global_ftoa         ; |39| 
         00000026 0000 
     467                      ; call occurs [#_global_ftoa] ; |39| 
     468                      .dwpsn  "app_ERRmod_fun.c",40,3
     469 00000027 8A44          MOVL      XAR4,*-SP[4]          ; |40| 
     470 00000028 761F-         MOVW      DP,#_m_ERRmod_DLcorrect+4
TMS320C2000 COFF Assembler PC v4.1.3 Wed Jan 12 08:34:31 2011

Tools Copyright (c) 1996-2006 Texas Instruments Incorporated
C:\DOCUME~1\ADMINI~1\LOCALS~1\Temp\TI1043                            PAGE   10

         00000029 0000 
     471 0000002a D502          MOVB      XAR5,#2               ; |40| 
     472 0000002b 060C-         MOVL      ACC,@_m_ERRmod_DLcorrect+4 ; |40| 
     473 0000002c DC30          ADDB      XAR4,#48              ; |40| 
     474 0000002d 7640!         LCR       #_global_ftoa         ; |40| 
         0000002e 0000 
     475                      ; call occurs [#_global_ftoa] ; |40| 
     476                      .dwpsn  "app_ERRmod_fun.c",41,3
     477 0000002f 8A44          MOVL      XAR4,*-SP[4]          ; |41| 
     478 00000030 761F-         MOVW      DP,#_m_ERRmod_DLarg
         00000031 0001 
     479 00000032 D502          MOVB      XAR5,#2               ; |41| 
     480 00000033 0600-         MOVL      ACC,@_m_ERRmod_DLarg  ; |41| 
     481 00000034 DC08          ADDB      XAR4,#8               ; |41| 
     482 00000035 7640!         LCR       #_global_ftoa         ; |41| 
         00000036 0000 
     483                      ; call occurs [#_global_ftoa] ; |41| 
     484                      .dwpsn  "app_ERRmod_fun.c",42,3
     485 00000037 8A44          MOVL      XAR4,*-SP[4]          ; |42| 
     486 00000038 761F-         MOVW      DP,#_m_ERRmod_DLarg+10
         00000039 0001 
     487 0000003a D502          MOVB      XAR5,#2               ; |42| 
     488 0000003b 060A-         MOVL      ACC,@_m_ERRmod_DLarg+10 ; |42| 
     489 0000003c DC10          ADDB      XAR4,#16              ; |42| 
     490 0000003d 7640!         LCR       #_global_ftoa         ; |42| 
         0000003e 0000 
     491                      ; call occurs [#_global_ftoa] ; |42| 
     492                      .dwpsn  "app_ERRmod_fun.c",43,3
     493 0000003f 8A44          MOVL      XAR4,*-SP[4]          ; |43| 
     494 00000040 761F-         MOVW      DP,#_m_ERRmod_DLarg+20
         00000041 0001 
     495 00000042 D502          MOVB      XAR5,#2               ; |43| 
     496 00000043 0614-         MOVL      ACC,@_m_ERRmod_DLarg+20 ; |43| 
     497 00000044 DC18          ADDB      XAR4,#24              ; |43| 
     498 00000045 7640!         LCR       #_global_ftoa         ; |43| 
         00000046 0000 
     499                      ; call occurs [#_global_ftoa] ; |43| 
     500                      .dwpsn  "app_ERRmod_fun.c",44,3
     501 00000047 2842          MOV       *-SP[2],#165          ; |44| 
         00000048 00A5 
     502                      .dwpsn  "app_ERRmod_fun.c",45,3
     503 00000049 5CAD          MOVZ      AR4,SP                ; |45| 
     504 0000004a 28A9          MOV       AL,#5220              ; |45| 
         0000004b 1464 
     505 0000004c DC82          SUBB      XAR4,#2               ; |45| 
     506 0000004d 9B01          MOVB      AH,#1                 ; |45| 
     507 0000004e 7640!         LCR       #_app_global_e2prom_write_char ; |45| 
         0000004f 0000 
     508                      ; call occurs [#_app_global_e2prom_write_char] ; |45| 
     509                      .dwpsn  "app_ERRmod_fun.c",46,3
     510 00000050 8A44          MOVL      XAR4,*-SP[4]          ; |46| 
     511 00000051 28A9          MOV       AL,#5225              ; |46| 
         00000052 1469 
     512 00000053 9B38          MOVB      AH,#56                ; |46| 
     513 00000054 7640!         LCR       #_app_global_e2prom_write_char ; |46| 
TMS320C2000 COFF Assembler PC v4.1.3 Wed Jan 12 08:34:31 2011

Tools Copyright (c) 1996-2006 Texas Instruments Incorporated
C:\DOCUME~1\ADMINI~1\LOCALS~1\Temp\TI1043                            PAGE   11

         00000055 0000 
     514                      ; call occurs [#_app_global_e2prom_write_char] ; |46| 
     515                      .dwpsn  "app_ERRmod_fun.c",50,3
     516 00000056 8A44          MOVL      XAR4,*-SP[4]          ; |50| 
     517 00000057 7640!         LCR       #_app_free            ; |50| 
         00000058 0000 
     518                      ; call occurs [#_app_free] ; |50| 
     519                      .dwpsn  "app_ERRmod_fun.c",51,2
     520 00000059 6F59          B         L2,UNC                ; |51| 
     521                      ; branch occurs ; |51| 
     522              L1:    
     523                      .dwpsn  "app_ERRmod_fun.c",52,7
     524 0000005a 5201          CMPB      AL,#1                 ; |52| 
     525 0000005b ED57          BF        L2,NEQ                ; |52| 
     526                      ; branchcc occurs ; |52| 
     527                      .dwpsn  "app_ERRmod_fun.c",54,3
     528 0000005c 9A39          MOVB      AL,#57                ; |54| 
     529 0000005d 7640!         LCR       #_app_malloc          ; |54| 
         0000005e 0000 
     530                      ; call occurs [#_app_malloc] ; |54| 
     531 0000005f A846          MOVL      *-SP[6],XAR4          ; |54| 
     532                      .dwpsn  "app_ERRmod_fun.c",55,3
     533 00000060 0646          MOVL      ACC,*-SP[6]           ; |55| 
     534 00000061 EC51          BF        L2,EQ                 ; |55| 
     535                      ; branchcc occurs ; |55| 
     536                      .dwpsn  "app_ERRmod_fun.c",55,21
     537                      .dwpsn  "app_ERRmod_fun.c",56,3
     538 00000062 8A46          MOVL      XAR4,*-SP[6]          ; |56| 
     539 00000063 9241          MOV       AL,*-SP[1]            ; |56| 
     540 00000064 96C4          MOV       *+XAR4[0],AL          ; |56| 
     541                      .dwpsn  "app_ERRmod_fun.c",57,3
     542 00000065 8A46          MOVL      XAR4,*-SP[6]          ; |57| 
     543 00000066 761F-         MOVW      DP,#_m_ERRmod_base_I
         00000067 0000 
     544 00000068 D502          MOVB      XAR5,#2               ; |57| 
     545 00000069 0604-         MOVL      ACC,@_m_ERRmod_base_I ; |57| 
     546 0000006a DC01          ADDB      XAR4,#1               ; |57| 
     547 0000006b 7640!         LCR       #_global_ftoa         ; |57| 
         0000006c 0000 
     548                      ; call occurs [#_global_ftoa] ; |57| 
     549                      .dwpsn  "app_ERRmod_fun.c",58,3
     550 0000006d 8A46          MOVL      XAR4,*-SP[6]          ; |58| 
     551 0000006e 761F-         MOVW      DP,#_m_ERRmod_DLcorrect+8
         0000006f 0000 
     552 00000070 D502          MOVB      XAR5,#2               ; |58| 
     553 00000071 0610-         MOVL      ACC,@_m_ERRmod_DLcorrect+8 ; |58| 
     554 00000072 DC21          ADDB      XAR4,#33              ; |58| 
     555 00000073 7640!         LCR       #_global_ftoa         ; |58| 
         00000074 0000 
     556                      ; call occurs [#_global_ftoa] ; |58| 
     557                      .dwpsn  "app_ERRmod_fun.c",59,3
     558 00000075 8A46          MOVL      XAR4,*-SP[6]          ; |59| 
     559 00000076 761F-         MOVW      DP,#_m_ERRmod_DLcorrect+10
         00000077 0000 
     560 00000078 D502          MOVB      XAR5,#2               ; |59| 
TMS320C2000 COFF Assembler PC v4.1.3 Wed Jan 12 08:34:31 2011

Tools Copyright (c) 1996-2006 Texas Instruments Incorporated
C:\DOCUME~1\ADMINI~1\LOCALS~1\Temp\TI1043                            PAGE   12

     561 00000079 0612-         MOVL      ACC,@_m_ERRmod_DLcorrect+10 ; |59| 
     562 0000007a DC29          ADDB      XAR4,#41              ; |59| 
     563 0000007b 7640!         LCR       #_global_ftoa         ; |59| 
         0000007c 0000 
     564                      ; call occurs [#_global_ftoa] ; |59| 
     565                      .dwpsn  "app_ERRmod_fun.c",60,3
     566 0000007d 8A46          MOVL      XAR4,*-SP[6]          ; |60| 
     567 0000007e 761F-         MOVW      DP,#_m_ERRmod_DLcorrect+12
         0000007f 0000 
     568 00000080 D502          MOVB      XAR5,#2               ; |60| 
     569 00000081 0614-         MOVL      ACC,@_m_ERRmod_DLcorrect+12 ; |60| 
     570 00000082 DC31          ADDB      XAR4,#49              ; |60| 
     571 00000083 7640!         LCR       #_global_ftoa         ; |60| 
         00000084 0000 
     572                      ; call occurs [#_global_ftoa] ; |60| 
     573                      .dwpsn  "app_ERRmod_fun.c",61,3
     574 00000085 8A46          MOVL      XAR4,*-SP[6]          ; |61| 
     575 00000086 761F-         MOVW      DP,#_m_ERRmod_DLarg+2
         00000087 0001 
     576 00000088 D502          MOVB      XAR5,#2               ; |61| 
     577 00000089 0602-         MOVL      ACC,@_m_ERRmod_DLarg+2 ; |61| 
     578 0000008a DC09          ADDB      XAR4,#9               ; |61| 
     579 0000008b 7640!         LCR       #_global_ftoa         ; |61| 
         0000008c 0000 
     580                      ; call occurs [#_global_ftoa] ; |61| 
     581                      .dwpsn  "app_ERRmod_fun.c",62,3
     582 0000008d 8A46          MOVL      XAR4,*-SP[6]          ; |62| 
     583 0000008e 761F-         MOVW      DP,#_m_ERRmod_DLarg+12
         0000008f 0001 
     584 00000090 D502          MOVB      XAR5,#2               ; |62| 
     585 00000091 060C-         MOVL      ACC,@_m_ERRmod_DLarg+12 ; |62| 
     586 00000092 DC11          ADDB      XAR4,#17              ; |62| 
     587 00000093 7640!         LCR       #_global_ftoa         ; |62| 
         00000094 0000 
     588                      ; call occurs [#_global_ftoa] ; |62| 
     589                      .dwpsn  "app_ERRmod_fun.c",63,3
     590 00000095 8A46          MOVL      XAR4,*-SP[6]          ; |63| 
     591 00000096 761F-         MOVW      DP,#_m_ERRmod_DLarg+22
         00000097 0001 
     592 00000098 D502          MOVB      XAR5,#2               ; |63| 
     593 00000099 0616-         MOVL      ACC,@_m_ERRmod_DLarg+22 ; |63| 
     594 0000009a DC19          ADDB      XAR4,#25              ; |63| 
     595 0000009b 7640!         LCR       #_global_ftoa         ; |63| 
         0000009c 0000 
     596                      ; call occurs [#_global_ftoa] ; |63| 
     597                      .dwpsn  "app_ERRmod_fun.c",64,3
     598 0000009d 2842          MOV       *-SP[2],#165          ; |64| 
         0000009e 00A5 
     599                      .dwpsn  "app_ERRmod_fun.c",65,3
     600 0000009f 5CAD          MOVZ      AR4,SP                ; |65| 
     601 000000a0 28A9          MOV       AL,#5221              ; |65| 
         000000a1 1465 
     602 000000a2 DC82          SUBB      XAR4,#2               ; |65| 
     603 000000a3 9B01          MOVB      AH,#1                 ; |65| 
     604 000000a4 7640!         LCR       #_app_global_e2prom_write_char ; |65| 
TMS320C2000 COFF Assembler PC v4.1.3 Wed Jan 12 08:34:31 2011

Tools Copyright (c) 1996-2006 Texas Instruments Incorporated
C:\DOCUME~1\ADMINI~1\LOCALS~1\Temp\TI1043                            PAGE   13

         000000a5 0000 
     605                      ; call occurs [#_app_global_e2prom_write_char] ; |65| 
     606                      .dwpsn  "app_ERRmod_fun.c",66,3
     607 000000a6 28AC          MOV       T,#57                 ; |66| 
         000000a7 0039 
     608 000000a8 3041          MPYXU     ACC,T,*-SP[1]         ; |66| 
     609 000000a9 8A46          MOVL      XAR4,*-SP[6]          ; |66| 
     610 000000aa FF12          ADD       ACC,#1319 << 2        ; |66| 
         000000ab 0527 
     611 000000ac 9B39          MOVB      AH,#57                ; |66| 
     612 000000ad 7640!         LCR       #_app_global_e2prom_write_char ; |66| 
         000000ae 0000 
     613                      ; call occurs [#_app_global_e2prom_write_char] ; |66| 
     614                      .dwpsn  "app_ERRmod_fun.c",70,3
     615 000000af 8A46          MOVL      XAR4,*-SP[6]          ; |70| 
     616 000000b0 7640!         LCR       #_app_free            ; |70| 
         000000b1 0000 
     617                      ; call occurs [#_app_free] ; |70| 
     618                      .dwpsn  "app_ERRmod_fun.c",72,2
     619              L2:    
     620                      .dwpsn  "app_ERRmod_fun.c",73,1
     621 000000b2 FE86          SUBB      SP,#6
     622                      .dwcfa  0x1d, -2
     623 000000b3 0006          LRETR
     624                      ; return occurs
     625                      .dwattr DW$90, DW_AT_end_file("app_ERRmod_fun.c")
     626                      .dwattr DW$90, DW_AT_end_line(0x49)
     627                      .dwattr DW$90, DW_AT_end_column(0x01)
     628                      .dwendentry
     629                      .dwendtag DW$90
     630              
     631 000000b4               .sect   ".text"
     632                      .global _app_ERRmod_correct_step_send
     633              
     634              DW$96   .dwtag  DW_TAG_subprogram, DW_AT_name("app_ERRmod_correct_step_send"), DW_AT_symbol_name("_app_ERRmod
     635                      .dwattr DW$96, DW_AT_low_pc(_app_ERRmod_correct_step_send)
     636                      .dwattr DW$96, DW_AT_high_pc(0x00)
     637                      .dwattr DW$96, DW_AT_begin_file("app_ERRmod_fun.c")
     638                      .dwattr DW$96, DW_AT_begin_line(0x52)
     639                      .dwattr DW$96, DW_AT_begin_column(0x07)
     640                      .dwpsn  "app_ERRmod_fun.c",83,1
     641              
     642                      .dwfde DW$CIE
     643              
     644              ;***************************************************************
     645              ;* FNAME: _app_ERRmod_correct_step_send FR SIZE:  10           *
     646              ;*                                                             *
     647              ;* FUNCTION ENVIRONMENT                                        *
     648              ;*                                                             *
     649              ;* FUNCTION PROPERTIES                                         *
     650              ;*                            0 Parameter, 10 Auto,  0 SOE     *
     651              ;***************************************************************
     652              
     653              _app_ERRmod_correct_step_send:
     654                      .dwcfa  0x1d, -2
TMS320C2000 COFF Assembler PC v4.1.3 Wed Jan 12 08:34:31 2011

Tools Copyright (c) 1996-2006 Texas Instruments Incorporated
C:\DOCUME~1\ADMINI~1\LOCALS~1\Temp\TI1043                            PAGE   14

     655                      .dwcfa  0x1c, 26, 0
     656                      .dwcfa  0x09, 40, 26
     657 000000b4 FE0A          ADDB      SP,#10
     658                      .dwcfa  0x1d, -12
     659              ;* AL    assigned to _sub_step
     660              DW$97   .dwtag  DW_TAG_formal_parameter, DW_AT_name("sub_step"), DW_AT_symbol_name("_sub_step")
     661                      .dwattr DW$97, DW_AT_type(*DW$T$6)
     662                      .dwattr DW$97, DW_AT_location[DW_OP_reg0]
     663              ;* AH    assigned to _Ext
     664              DW$98   .dwtag  DW_TAG_formal_parameter, DW_AT_name("Ext"), DW_AT_symbol_name("_Ext")
     665                      .dwattr DW$98, DW_AT_type(*DW$T$6)
     666                      .dwattr DW$98, DW_AT_location[DW_OP_reg1]
     667              DW$99   .dwtag  DW_TAG_variable, DW_AT_name("sub_step"), DW_AT_symbol_name("_sub_step")
     668                      .dwattr DW$99, DW_AT_type(*DW$T$6)
     669                      .dwattr DW$99, DW_AT_location[DW_OP_breg20 -1]
     670              DW$100  .dwtag  DW_TAG_variable, DW_AT_name("Ext"), DW_AT_symbol_name("_Ext")
     671                      .dwattr DW$100, DW_AT_type(*DW$T$6)
     672                      .dwattr DW$100, DW_AT_location[DW_OP_breg20 -2]
     673              DW$101  .dwtag  DW_TAG_variable, DW_AT_name("correct_setp"), DW_AT_symbol_name("_correct_setp")
     674                      .dwattr DW$101, DW_AT_type(*DW$T$124)
     675                      .dwattr DW$101, DW_AT_location[DW_OP_breg20 -10]
     676 000000b5 9742          MOV       *-SP[2],AH            ; |83| 
     677 000000b6 9641          MOV       *-SP[1],AL            ; |83| 
     678                      .dwpsn  "app_ERRmod_fun.c",85,2
     679 000000b7 761F-         MOVW      DP,#_m_ERRmod_setp
         000000b8 0000 
     680 000000b9 9202-         MOV       AL,@_m_ERRmod_setp    ; |85| 
     681 000000ba 9C01          ADDB      AL,#1                 ; |85| 
     682 000000bb 964A          MOV       *-SP[10],AL           ; |85| 
     683                      .dwpsn  "app_ERRmod_fun.c",86,2
     684 000000bc 9241          MOV       AL,*-SP[1]            ; |86| 
     685 000000bd 9649          MOV       *-SP[9],AL            ; |86| 
     686                      .dwpsn  "app_ERRmod_fun.c",87,2
     687 000000be 9242          MOV       AL,*-SP[2]            ; |87| 
     688 000000bf 9648          MOV       *-SP[8],AL            ; |87| 
     689                      .dwpsn  "app_ERRmod_fun.c",88,2
     690 000000c0 0604-         MOVL      ACC,@_m_ERRmod_base_I ; |88| 
     691 000000c1 1E44          MOVL      *-SP[4],ACC           ; |88| 
     692                      .dwpsn  "app_ERRmod_fun.c",89,2
     693 000000c2 0606-         MOVL      ACC,@_m_ERRmod_base_U ; |89| 
     694 000000c3 1E46          MOVL      *-SP[6],ACC           ; |89| 
     695                      .dwpsn  "app_ERRmod_fun.c",90,2
     696 000000c4 5CAD          MOVZ      AR4,SP                ; |90| 
     697 000000c5 9201-         MOV       AL,@_m_ERRmod_Mdev_id ; |90| 
     698 000000c6 DC8A          SUBB      XAR4,#10              ; |90| 
     699 000000c7 9B08          MOVB      AH,#8                 ; |90| 
     700 000000c8 7640!         LCR       #_os_driver_ioctl     ; |90| 
         000000c9 0000 
     701                      ; call occurs [#_os_driver_ioctl] ; |90| 
     702                      .dwpsn  "app_ERRmod_fun.c",93,2
     703                      .dwpsn  "app_ERRmod_fun.c",94,1
     704 000000ca FE8A          SUBB      SP,#10
     705                      .dwcfa  0x1d, -2
     706 000000cb 0006          LRETR
     707                      ; return occurs
TMS320C2000 COFF Assembler PC v4.1.3 Wed Jan 12 08:34:31 2011

Tools Copyright (c) 1996-2006 Texas Instruments Incorporated
C:\DOCUME~1\ADMINI~1\LOCALS~1\Temp\TI1043                            PAGE   15

     708                      .dwattr DW$96, DW_AT_end_file("app_ERRmod_fun.c")
     709                      .dwattr DW$96, DW_AT_end_line(0x5e)
     710                      .dwattr DW$96, DW_AT_end_column(0x01)
     711                      .dwendentry
     712                      .dwendtag DW$96
     713              
     714 000000cc               .sect   ".text"
     715                      .global _app_ERRmod_correct_prepare
     716              
     717              DW$102  .dwtag  DW_TAG_subprogram, DW_AT_name("app_ERRmod_correct_prepare"), DW_AT_symbol_name("_app_ERRmod_c
     718                      .dwattr DW$102, DW_AT_low_pc(_app_ERRmod_correct_prepare)
     719                      .dwattr DW$102, DW_AT_high_pc(0x00)
     720                      .dwattr DW$102, DW_AT_begin_file("app_ERRmod_fun.c")
     721                      .dwattr DW$102, DW_AT_begin_line(0x67)
     722                      .dwattr DW$102, DW_AT_begin_column(0x06)
     723                      .dwpsn  "app_ERRmod_fun.c",104,1
     724              
     725                      .dwfde DW$CIE
     726              
     727              ;***************************************************************
     728              ;* FNAME: _app_ERRmod_correct_prepare   FR SIZE:   4           *
     729              ;*                                                             *
     730              ;* FUNCTION ENVIRONMENT                                        *
     731              ;*                                                             *
     732              ;* FUNCTION PROPERTIES                                         *
     733              ;*                            0 Parameter,  3 Auto,  0 SOE     *
     734              ;***************************************************************
     735              
     736              _app_ERRmod_correct_prepare:
     737                      .dwcfa  0x1d, -2
     738                      .dwcfa  0x1c, 26, 0
     739                      .dwcfa  0x09, 40, 26
     740 000000cc FE04          ADDB      SP,#4
     741                      .dwcfa  0x1d, -6
     742              ;* AR4   assigned to _pvalue
     743              DW$103  .dwtag  DW_TAG_formal_parameter, DW_AT_name("pvalue"), DW_AT_symbol_name("_pvalue")
     744                      .dwattr DW$103, DW_AT_type(*DW$T$86)
     745                      .dwattr DW$103, DW_AT_location[DW_OP_reg12]
     746              DW$104  .dwtag  DW_TAG_variable, DW_AT_name("pvalue"), DW_AT_symbol_name("_pvalue")
     747                      .dwattr DW$104, DW_AT_type(*DW$T$86)
     748                      .dwattr DW$104, DW_AT_location[DW_OP_breg20 -2]
     749              DW$105  .dwtag  DW_TAG_variable, DW_AT_name("key_buf"), DW_AT_symbol_name("_key_buf")
     750                      .dwattr DW$105, DW_AT_type(*DW$T$6)
     751                      .dwattr DW$105, DW_AT_location[DW_OP_breg20 -3]
     752 000000cd A842          MOVL      *-SP[2],XAR4          ; |104| 
     753                      .dwpsn  "app_ERRmod_fun.c",106,10
     754              L3:    
     755              DW$L$_app_ERRmod_correct_prepare$2$B:
     756                      .dwpsn  "app_ERRmod_fun.c",108,3
     757 000000ce 9A01          MOVB      AL,#1                 ; |108| 
     758 000000cf 7640!         LCR       #_OSTimeDly           ; |108| 
         000000d0 0000 
     759                      ; call occurs [#_OSTimeDly] ; |108| 
     760                      .dwpsn  "app_ERRmod_fun.c",109,3
     761 000000d1 5CAD          MOVZ      AR4,SP                ; |109| 
TMS320C2000 COFF Assembler PC v4.1.3 Wed Jan 12 08:34:31 2011

Tools Copyright (c) 1996-2006 Texas Instruments Incorporated
C:\DOCUME~1\ADMINI~1\LOCALS~1\Temp\TI1043                            PAGE   16

     762 000000d2 9A01          MOVB      AL,#1                 ; |109| 
     763 000000d3 DC83          SUBB      XAR4,#3               ; |109| 
     764 000000d4 7640!         LCR       #_app_global_key_obtain ; |109| 
         000000d5 0000 
     765                      ; call occurs [#_app_global_key_obtain] ; |109| 
     766 000000d6 5201          CMPB      AL,#1                 ; |109| 
     767 000000d7 EDF7          BF        L3,NEQ                ; |109| 
     768                      ; branchcc occurs ; |109| 
     769              DW$L$_app_ERRmod_correct_prepare$2$E:
     770              DW$L$_app_ERRmod_correct_prepare$3$B:
     771                      .dwpsn  "app_ERRmod_fun.c",111,4
     772                      .dwpsn  "app_ERRmod_fun.c",113,3
     773 000000d8 8A42          MOVL      XAR4,*-SP[2]          ; |113| 
     774 000000d9 9243          MOV       AL,*-SP[3]            ; |113| 
     775 000000da 96C4          MOV       *+XAR4[0],AL          ; |113| 
     776                      .dwpsn  "app_ERRmod_fun.c",114,3
     777 000000db 9243          MOV       AL,*-SP[3]            ; |114| 
     778 000000dc 5211          CMPB      AL,#17                ; |114| 
     779 000000dd ED03          BF        L4,NEQ                ; |114| 
     780                      ; branchcc occurs ; |114| 
     781              DW$L$_app_ERRmod_correct_prepare$3$E:
     782                      .dwpsn  "app_ERRmod_fun.c",116,4
     783 000000de 9A01          MOVB      AL,#1                 ; |116| 
     784 000000df 6F09          B         L6,UNC                ; |116| 
     785                      ; branch occurs ; |116| 
     786              L4:    
     787              DW$L$_app_ERRmod_correct_prepare$5$B:
     788                      .dwpsn  "app_ERRmod_fun.c",118,3
     789 000000e0 521B          CMPB      AL,#27                ; |118| 
     790 000000e1 EC05          BF        L5,EQ                 ; |118| 
     791                      ; branchcc occurs ; |118| 
     792 000000e2       DW$L$_app_ERRmod_correct_prepare$5$E:
     793 000000e2       DW$L$_app_ERRmod_correct_prepare$6$B:
     794 000000e2 521C          CMPB      AL,#28                ; |118| 
     795 000000e3 EC03          BF        L5,EQ                 ; |118| 
     796                      ; branchcc occurs ; |118| 
     797 000000e4       DW$L$_app_ERRmod_correct_prepare$6$E:
     798 000000e4       DW$L$_app_ERRmod_correct_prepare$7$B:
     799 000000e4 520A          CMPB      AL,#10                ; |118| 
     800 000000e5 EDE9          BF        L3,NEQ                ; |118| 
     801                      ; branchcc occurs ; |118| 
     802              DW$L$_app_ERRmod_correct_prepare$7$E:
     803              L5:    
     804                      .dwpsn  "app_ERRmod_fun.c",121,4
     805 000000e6 9A00          MOVB      AL,#0
     806 000000e7 6F01          B         L6,UNC                ; |121| 
     807                      ; branch occurs ; |121| 
     808              L6:    
     809                      .dwpsn  "app_ERRmod_fun.c",123,1
     810 000000e8 FE84          SUBB      SP,#4                 ; |106| 
     811                      .dwcfa  0x1d, -2
     812 000000e9 0006          LRETR
     813                      ; return occurs
     814              
     815              DW$106  .dwtag  DW_TAG_loop
TMS320C2000 COFF Assembler PC v4.1.3 Wed Jan 12 08:34:31 2011

Tools Copyright (c) 1996-2006 Texas Instruments Incorporated
C:\DOCUME~1\ADMINI~1\LOCALS~1\Temp\TI1043                            PAGE   17

     816                      .dwattr DW$106, DW_AT_name("C:\DOCUME~1\ADMINI~1\LOCALS~1\Temp\TI1043:L3:1:1294792471")
     817                      .dwattr DW$106, DW_AT_begin_file("app_ERRmod_fun.c")
     818                      .dwattr DW$106, DW_AT_begin_line(0x6a)
     819                      .dwattr DW$106, DW_AT_end_line(0x7a)
     820              DW$107  .dwtag  DW_TAG_loop_range
     821                      .dwattr DW$107, DW_AT_low_pc(DW$L$_app_ERRmod_correct_prepare$2$B)
     822                      .dwattr DW$107, DW_AT_high_pc(DW$L$_app_ERRmod_correct_prepare$2$E)
     823              DW$108  .dwtag  DW_TAG_loop_range
     824                      .dwattr DW$108, DW_AT_low_pc(DW$L$_app_ERRmod_correct_prepare$3$B)
     825                      .dwattr DW$108, DW_AT_high_pc(DW$L$_app_ERRmod_correct_prepare$3$E)
     826              DW$109  .dwtag  DW_TAG_loop_range
     827                      .dwattr DW$109, DW_AT_low_pc(DW$L$_app_ERRmod_correct_prepare$5$B)
     828                      .dwattr DW$109, DW_AT_high_pc(DW$L$_app_ERRmod_correct_prepare$5$E)
     829              DW$110  .dwtag  DW_TAG_loop_range
     830                      .dwattr DW$110, DW_AT_low_pc(DW$L$_app_ERRmod_correct_prepare$6$B)
     831                      .dwattr DW$110, DW_AT_high_pc(DW$L$_app_ERRmod_correct_prepare$6$E)
     832              DW$111  .dwtag  DW_TAG_loop_range
     833                      .dwattr DW$111, DW_AT_low_pc(DW$L$_app_ERRmod_correct_prepare$7$B)
     834                      .dwattr DW$111, DW_AT_high_pc(DW$L$_app_ERRmod_correct_prepare$7$E)
     835                      .dwendtag DW$106
     836              
     837                      .dwattr DW$102, DW_AT_end_file("app_ERRmod_fun.c")
     838                      .dwattr DW$102, DW_AT_end_line(0x7b)
     839                      .dwattr DW$102, DW_AT_end_column(0x01)
     840                      .dwendentry
     841                      .dwendtag DW$102
     842              
     843 000000ea               .sect   ".text"
     844                      .global _app_ERRmod_Ucorrect
     845              
     846              DW$112  .dwtag  DW_TAG_subprogram, DW_AT_name("app_ERRmod_Ucorrect"), DW_AT_symbol_name("_app_ERRmod_Ucorrect
     847                      .dwattr DW$112, DW_AT_low_pc(_app_ERRmod_Ucorrect)
     848                      .dwattr DW$112, DW_AT_high_pc(0x00)
     849                      .dwattr DW$112, DW_AT_begin_file("app_ERRmod_fun.c")
     850                      .dwattr DW$112, DW_AT_begin_line(0x84)
     851                      .dwattr DW$112, DW_AT_begin_column(0x09)
     852                      .dwpsn  "app_ERRmod_fun.c",133,1
     853              
     854                      .dwfde DW$CIE
     855              
     856              ;***************************************************************
     857              ;* FNAME: _app_ERRmod_Ucorrect          FR SIZE:   8           *
     858              ;*                                                             *
     859              ;* FUNCTION ENVIRONMENT                                        *
     860              ;*                                                             *
     861              ;* FUNCTION PROPERTIES                                         *
     862              ;*                            0 Parameter,  7 Auto,  0 SOE     *
     863              ;***************************************************************
     864              
     865              _app_ERRmod_Ucorrect:
     866                      .dwcfa  0x1d, -2
     867                      .dwcfa  0x1c, 26, 0
     868                      .dwcfa  0x09, 40, 26
     869 000000ea FE08          ADDB      SP,#8
     870                      .dwcfa  0x1d, -10
TMS320C2000 COFF Assembler PC v4.1.3 Wed Jan 12 08:34:31 2011

Tools Copyright (c) 1996-2006 Texas Instruments Incorporated
C:\DOCUME~1\ADMINI~1\LOCALS~1\Temp\TI1043                            PAGE   18

     871              ;* AR4   assigned to _arg
     872              DW$113  .dwtag  DW_TAG_formal_parameter, DW_AT_name("arg"), DW_AT_symbol_name("_arg")
     873                      .dwattr DW$113, DW_AT_type(*DW$T$3)
     874                      .dwattr DW$113, DW_AT_location[DW_OP_reg12]
     875              DW$114  .dwtag  DW_TAG_variable, DW_AT_name("arg"), DW_AT_symbol_name("_arg")
     876                      .dwattr DW$114, DW_AT_type(*DW$T$3)
     877                      .dwattr DW$114, DW_AT_location[DW_OP_breg20 -2]
     878              DW$115  .dwtag  DW_TAG_variable, DW_AT_name("value"), DW_AT_symbol_name("_value")
     879                      .dwattr DW$115, DW_AT_type(*DW$T$6)
     880                      .dwattr DW$115, DW_AT_location[DW_OP_breg20 -3]
     881              DW$116  .dwtag  DW_TAG_variable, DW_AT_name("UIflag"), DW_AT_symbol_name("_UIflag")
     882                      .dwattr DW$116, DW_AT_type(*DW$T$126)
     883                      .dwattr DW$116, DW_AT_location[DW_OP_breg20 -6]
     884              DW$117  .dwtag  DW_TAG_variable, DW_AT_name("flag"), DW_AT_symbol_name("_flag")
     885                      .dwattr DW$117, DW_AT_type(*DW$T$128)
     886                      .dwattr DW$117, DW_AT_location[DW_OP_breg20 -7]
     887 000000eb A842          MOVL      *-SP[2],XAR4          ; |133| 
     888                      .dwpsn  "app_ERRmod_fun.c",137,10
     889              L7:    
     890              DW$L$_app_ERRmod_Ucorrect$2$B:
     891                      .dwpsn  "app_ERRmod_fun.c",139,3
     892 000000ec 761F!         MOVW      DP,#_m_correct_edit
         000000ed 0000 
     893 000000ee 8A00!         MOVL      XAR4,@_m_correct_edit ; |139| 
     894 000000ef 7640!         LCR       #_GUI_window_hwin_req ; |139| 
         000000f0 0000 
     895                      ; call occurs [#_GUI_window_hwin_req] ; |139| 
     896                      .dwpsn  "app_ERRmod_fun.c",140,3
     897 000000f1 9AFF          MOVB      AL,#255               ; |140| 
     898 000000f2 7640!         LCR       #_GUI_set_Fgcolor     ; |140| 
         000000f3 0000 
     899                      ; call occurs [#_GUI_set_Fgcolor] ; |140| 
     900                      .dwpsn  "app_ERRmod_fun.c",141,3
     901 000000f4 9A01          MOVB      AL,#1                 ; |141| 
     902 000000f5 7640!         LCR       #_GUI_set_Bgcolor     ; |141| 
         000000f6 0000 
     903                      ; call occurs [#_GUI_set_Bgcolor] ; |141| 
     904                      .dwpsn  "app_ERRmod_fun.c",142,9
     905 000000f7 9A01          MOVB      AL,#1                 ; |142| 
     906 000000f8 9643          MOV       *-SP[3],AL            ; |142| 
     907                      .dwpsn  "app_ERRmod_fun.c",142,19
     908 000000f9 5207          CMPB      AL,#7                 ; |142| 
     909 000000fa 6609          B         L9,HI                 ; |142| 
     910                      ; branchcc occurs ; |142| 
     911              DW$L$_app_ERRmod_Ucorrect$2$E:
     912              L8:    
     913              DW$L$_app_ERRmod_Ucorrect$3$B:
     914                      .dwpsn  "app_ERRmod_fun.c",144,4
     915 000000fb 7640!         LCR       #_GUI_edit_select     ; |144| 
         000000fc 0000 
     916                      ; call occurs [#_GUI_edit_select] ; |144| 
     917                      .dwpsn  "app_ERRmod_fun.c",145,4
     918 000000fd 7640!         LCR       #_GUI_edit_clean      ; |145| 
         000000fe 0000 
     919                      ; call occurs [#_GUI_edit_clean] ; |145| 
TMS320C2000 COFF Assembler PC v4.1.3 Wed Jan 12 08:34:31 2011

Tools Copyright (c) 1996-2006 Texas Instruments Incorporated
C:\DOCUME~1\ADMINI~1\LOCALS~1\Temp\TI1043                            PAGE   19

     920                      .dwpsn  "app_ERRmod_fun.c",142,30
     921 000000ff 0A43          INC       *-SP[3]               ; |142| 
     922                      .dwpsn  "app_ERRmod_fun.c",142,19
     923 00000100 9243          MOV       AL,*-SP[3]            ; |142| 
     924 00000101 5207          CMPB      AL,#7                 ; |142| 
     925 00000102 69F9          B         L8,LOS                ; |142| 
     926                      ; branchcc occurs ; |142| 
     927              DW$L$_app_ERRmod_Ucorrect$3$E:
     928              L9:    
     929              DW$L$_app_ERRmod_Ucorrect$4$B:
     930                      .dwpsn  "app_ERRmod_fun.c",147,3
     931 00000103 5CAD          MOVZ      AR4,SP                ; |147| 
     932 00000104 761F-         MOVW      DP,#_m_ERRmod_Mdev_id
         00000105 0000 
     933 00000106 9201-         MOV       AL,@_m_ERRmod_Mdev_id ; |147| 
     934 00000107 9B05          MOVB      AH,#5                 ; |147| 
     935 00000108 DC86          SUBB      XAR4,#6               ; |147| 
     936 00000109 7640!         LCR       #_os_driver_ioctl     ; |147| 
         0000010a 0000 
     937                      ; call occurs [#_os_driver_ioctl] ; |147| 
     938                      .dwpsn  "app_ERRmod_fun.c",148,3
     939 0000010b CC46          AND       AL,*-SP[6],#0x2000    ; |148| 
         0000010c 2000 
     940 0000010d FFCC          LSR       AL,13                 ; |148| 
     941 0000010e 5201          CMPB      AL,#1                 ; |148| 
     942 0000010f ED08          BF        L10,NEQ               ; |148| 
     943                      ; branchcc occurs ; |148| 
     944              DW$L$_app_ERRmod_Ucorrect$4$E:
     945              DW$L$_app_ERRmod_Ucorrect$5$B:
     946                      .dwpsn  "app_ERRmod_fun.c",149,4
     947 00000110 28A8          MOV       AH,#17342
         00000111 43BE 
     948 00000112 9A00          MOV       AL,#0
     949 00000113 761F-         MOVW      DP,#_m_ERRmod_base_U
         00000114 0000 
     950 00000115 1E06-         MOVL      @_m_ERRmod_base_U,ACC ; |149| 
     951 00000116 6F0B          B         L11,UNC               ; |149| 
     952                      ; branch occurs ; |149| 
     953              DW$L$_app_ERRmod_Ucorrect$5$E:
     954              L10:    
     955              DW$L$_app_ERRmod_Ucorrect$6$B:
     956                      .dwpsn  "app_ERRmod_fun.c",150,8
     957 00000117 CC46          AND       AL,*-SP[6],#0x2000    ; |150| 
         00000118 2000 
     958 00000119 FFCC          LSR       AL,13                 ; |150| 
     959 0000011a ED07          BF        L11,NEQ               ; |150| 
     960                      ; branchcc occurs ; |150| 
     961              DW$L$_app_ERRmod_Ucorrect$6$E:
     962              DW$L$_app_ERRmod_Ucorrect$7$B:
     963                      .dwpsn  "app_ERRmod_fun.c",151,4
     964 0000011b 28A8          MOV       AH,#17244
         0000011c 435C 
     965 0000011d 9A00          MOV       AL,#0
     966 0000011e 761F-         MOVW      DP,#_m_ERRmod_base_U
         0000011f 0000 
TMS320C2000 COFF Assembler PC v4.1.3 Wed Jan 12 08:34:31 2011

Tools Copyright (c) 1996-2006 Texas Instruments Incorporated
C:\DOCUME~1\ADMINI~1\LOCALS~1\Temp\TI1043                            PAGE   20

     967 00000120 1E06-         MOVL      @_m_ERRmod_base_U,ACC ; |151| 
     968              DW$L$_app_ERRmod_Ucorrect$7$E:
     969              L11:    
     970              DW$L$_app_ERRmod_Ucorrect$8$B:
     971                      .dwpsn  "app_ERRmod_fun.c",152,3
     972 00000121 761F-         MOVW      DP,#_m_ERRmod_base_U
         00000122 0000 
     973 00000123 D502          MOVB      XAR5,#2               ; |152| 
     974 00000124 D401          MOVB      XAR4,#1               ; |152| 
     975 00000125 0606-         MOVL      ACC,@_m_ERRmod_base_U ; |152| 
     976 00000126 7640!         LCR       #_app_ERRmod_edit_fdisplay ; |152| 
         00000127 0000 
     977                      ; call occurs [#_app_ERRmod_edit_fdisplay] ; |152| 
     978                      .dwpsn  "app_ERRmod_fun.c",153,3
     979 00000128 761F!         MOVW      DP,#_m_correct_edit
         00000129 0000 
     980 0000012a 8A00!         MOVL      XAR4,@_m_correct_edit ; |153| 
     981 0000012b 7640!         LCR       #_GUI_window_hwin_release ; |153| 
         0000012c 0000 
     982                      ; call occurs [#_GUI_window_hwin_release] ; |153| 
     983                      .dwpsn  "app_ERRmod_fun.c",154,3
     984 0000012d 761F!         MOVW      DP,#_m_correct_win
         0000012e 0000 
     985 0000012f 8A00!         MOVL      XAR4,@_m_correct_win  ; |154| 
     986 00000130 8F40+         MOVL      XAR5,#FSL1            ; |154| 
         00000131 0008 
     987 00000132 7640!         LCR       #_GUI_3D_window_title_mod ; |154| 
         00000133 0000 
     988                      ; call occurs [#_GUI_3D_window_title_mod] ; |154| 
     989                      .dwpsn  "app_ERRmod_fun.c",155,3
     990 00000134 0201          MOVB      ACC,#1
     991 00000135 7640'         LCR       #_app_ERRmod_correct_step_send ; |155| 
         00000136 00B4 
     992                      ; call occurs [#_app_ERRmod_correct_step_send] ; |155| 
     993                      .dwpsn  "app_ERRmod_fun.c",156,3
     994 00000137 5CAD          MOVZ      AR4,SP                ; |156| 
     995 00000138 DC83          SUBB      XAR4,#3               ; |156| 
     996 00000139 7640'         LCR       #_app_ERRmod_correct_prepare ; |156| 
         0000013a 00CC 
     997                      ; call occurs [#_app_ERRmod_correct_prepare] ; |156| 
     998 0000013b 5200          CMPB      AL,#0                 ; |156| 
     999 0000013c 56C1          BF        L16,EQ                ; |156| 
         0000013d 00A1 
    1000                      ; branchcc occurs ; |156| 
    1001              DW$L$_app_ERRmod_Ucorrect$8$E:
    1002              DW$L$_app_ERRmod_Ucorrect$9$B:
    1003                      .dwpsn  "app_ERRmod_fun.c",158,4
    1004 0000013e 0202          MOVB      ACC,#2
    1005 0000013f 7640'         LCR       #_app_ERRmod_correct_step_send ; |158| 
         00000140 00B4 
    1006                      ; call occurs [#_app_ERRmod_correct_step_send] ; |158| 
    1007                      .dwpsn  "app_ERRmod_fun.c",159,4
    1008 00000141 761F!         MOVW      DP,#_m_correct_win
         00000142 0000 
    1009 00000143 8A00!         MOVL      XAR4,@_m_correct_win  ; |159| 
TMS320C2000 COFF Assembler PC v4.1.3 Wed Jan 12 08:34:31 2011

Tools Copyright (c) 1996-2006 Texas Instruments Incorporated
C:\DOCUME~1\ADMINI~1\LOCALS~1\Temp\TI1043                            PAGE   21

    1010 00000144 8F40+         MOVL      XAR5,#FSL2            ; |159| 
         00000145 001A 
    1011 00000146 7640!         LCR       #_GUI_3D_window_title_mod ; |159| 
         00000147 0000 
    1012                      ; call occurs [#_GUI_3D_window_title_mod] ; |159| 
    1013                      .dwpsn  "app_ERRmod_fun.c",160,4
    1014 00000148 6F17          B         L13,UNC               ; |160| 
    1015                      ; branch occurs ; |160| 
    1016              DW$L$_app_ERRmod_Ucorrect$9$E:
    1017              L12:    
    1018              DW$L$_app_ERRmod_Ucorrect$10$B:
    1019                      .dwpsn  "app_ERRmod_fun.c",162,5
    1020 00000149 9A01          MOVB      AL,#1                 ; |162| 
    1021 0000014a 7640!         LCR       #_OSTimeDly           ; |162| 
         0000014b 0000 
    1022                      ; call occurs [#_OSTimeDly] ; |162| 
    1023                      .dwpsn  "app_ERRmod_fun.c",163,5
    1024 0000014c 5CAD          MOVZ      AR4,SP                ; |163| 
    1025 0000014d 761F-         MOVW      DP,#_m_ERRmod_Mdev_id
         0000014e 0000 
    1026 0000014f 9201-         MOV       AL,@_m_ERRmod_Mdev_id ; |163| 
    1027 00000150 DC87          SUBB      XAR4,#7               ; |163| 
    1028 00000151 9B03          MOVB      AH,#3                 ; |163| 
    1029 00000152 7640!         LCR       #_os_driver_ioctl     ; |163| 
         00000153 0000 
    1030                      ; call occurs [#_os_driver_ioctl] ; |163| 
    1031                      .dwpsn  "app_ERRmod_fun.c",164,5
    1032 00000154 5CAD          MOVZ      AR4,SP                ; |164| 
    1033 00000155 9A01          MOVB      AL,#1                 ; |164| 
    1034 00000156 DC83          SUBB      XAR4,#3               ; |164| 
    1035 00000157 7640!         LCR       #_app_global_key_obtain ; |164| 
         00000158 0000 
    1036                      ; call occurs [#_app_global_key_obtain] ; |164| 
    1037 00000159 5201          CMPB      AL,#1                 ; |164| 
    1038 0000015a ED05          BF        L13,NEQ               ; |164| 
    1039                      ; branchcc occurs ; |164| 
    1040              DW$L$_app_ERRmod_Ucorrect$10$E:
    1041              DW$L$_app_ERRmod_Ucorrect$11$B:
    1042                      .dwpsn  "app_ERRmod_fun.c",164,53
    1043                      .dwpsn  "app_ERRmod_fun.c",165,5
    1044 0000015b 9243          MOV       AL,*-SP[3]            ; |165| 
    1045 0000015c 521B          CMPB      AL,#27                ; |165| 
    1046 0000015d 56C1          BF        L17,EQ                ; |165| 
         0000015e 0081 
    1047                      ; branchcc occurs ; |165| 
    1048              DW$L$_app_ERRmod_Ucorrect$11$E:
    1049              DW$L$_app_ERRmod_Ucorrect$12$B:
    1050                      .dwpsn  "app_ERRmod_fun.c",165,31
    1051              DW$L$_app_ERRmod_Ucorrect$12$E:
    1052              L13:    
    1053              DW$L$_app_ERRmod_Ucorrect$13$B:
    1054                      .dwpsn  "app_ERRmod_fun.c",160,12
    1055 0000015f CC47          AND       AL,*-SP[7],#0x0002    ; |160| 
         00000160 0002 
    1056 00000161 FFC0          LSR       AL,1                  ; |160| 
TMS320C2000 COFF Assembler PC v4.1.3 Wed Jan 12 08:34:31 2011

Tools Copyright (c) 1996-2006 Texas Instruments Incorporated
C:\DOCUME~1\ADMINI~1\LOCALS~1\Temp\TI1043                            PAGE   22

    1057 00000162 ECE7          BF        L12,EQ                ; |160| 
    1058                      ; branchcc occurs ; |160| 
    1059              DW$L$_app_ERRmod_Ucorrect$13$E:
    1060              DW$L$_app_ERRmod_Ucorrect$14$B:
    1061                      .dwpsn  "app_ERRmod_fun.c",167,4
    1062 00000163 761F!         MOVW      DP,#_m_correct_edit
         00000164 0000 
    1063 00000165 8A00!         MOVL      XAR4,@_m_correct_edit ; |167| 
    1064 00000166 7640!         LCR       #_GUI_window_hwin_req ; |167| 
         00000167 0000 
    1065                      ; call occurs [#_GUI_window_hwin_req] ; |167| 
    1066                      .dwpsn  "app_ERRmod_fun.c",168,4
    1067 00000168 9A01          MOVB      AL,#1                 ; |168| 
    1068 00000169 7640!         LCR       #_GUI_set_Bgcolor     ; |168| 
         0000016a 0000 
    1069                      ; call occurs [#_GUI_set_Bgcolor] ; |168| 
    1070                      .dwpsn  "app_ERRmod_fun.c",169,4
    1071 0000016b 761F-         MOVW      DP,#_m_ERRmod_Mdev_id
         0000016c 0000 
    1072 0000016d 9201-         MOV       AL,@_m_ERRmod_Mdev_id ; |169| 
    1073 0000016e 8F00-         MOVL      XAR4,#_m_ERRmod_DLarg ; |169| 
         0000016f 0040 
    1074 00000170 9B02          MOVB      AH,#2                 ; |169| 
    1075 00000171 7640!         LCR       #_os_driver_ioctl     ; |169| 
         00000172 0000 
    1076                      ; call occurs [#_os_driver_ioctl] ; |169| 
    1077                      .dwpsn  "app_ERRmod_fun.c",170,4
    1078 00000173 761F-         MOVW      DP,#_m_ERRmod_Mdev_id
         00000174 0000 
    1079 00000175 9201-         MOV       AL,@_m_ERRmod_Mdev_id ; |170| 
    1080 00000176 8F00-         MOVL      XAR4,#_m_ERRmod_DLcorrect ; |170| 
         00000177 0008 
    1081 00000178 9B09          MOVB      AH,#9                 ; |170| 
    1082 00000179 7640!         LCR       #_os_driver_ioctl     ; |170| 
         0000017a 0000 
    1083                      ; call occurs [#_os_driver_ioctl] ; |170| 
    1084                      .dwpsn  "app_ERRmod_fun.c",171,4
    1085 0000017b 9AFC          MOVB      AL,#252               ; |171| 
    1086 0000017c 7640!         LCR       #_GUI_set_Fgcolor     ; |171| 
         0000017d 0000 
    1087                      ; call occurs [#_GUI_set_Fgcolor] ; |171| 
    1088                      .dwpsn  "app_ERRmod_fun.c",172,4
    1089 0000017e 761F-         MOVW      DP,#_m_ERRmod_DLarg
         0000017f 0001 
    1090 00000180 D402          MOVB      XAR4,#2               ; |172| 
    1091 00000181 D502          MOVB      XAR5,#2               ; |172| 
    1092 00000182 0600-         MOVL      ACC,@_m_ERRmod_DLarg  ; |172| 
    1093 00000183 7640!         LCR       #_app_ERRmod_edit_fdisplay ; |172| 
         00000184 0000 
    1094                      ; call occurs [#_app_ERRmod_edit_fdisplay] ; |172| 
    1095                      .dwpsn  "app_ERRmod_fun.c",173,4
    1096 00000185 761F-         MOVW      DP,#_m_ERRmod_DLcorrect
         00000186 0000 
    1097 00000187 D502          MOVB      XAR5,#2               ; |173| 
    1098 00000188 D403          MOVB      XAR4,#3               ; |173| 
TMS320C2000 COFF Assembler PC v4.1.3 Wed Jan 12 08:34:31 2011

Tools Copyright (c) 1996-2006 Texas Instruments Incorporated
C:\DOCUME~1\ADMINI~1\LOCALS~1\Temp\TI1043                            PAGE   23

    1099 00000189 0608-         MOVL      ACC,@_m_ERRmod_DLcorrect ; |173| 
    1100 0000018a 7640!         LCR       #_app_ERRmod_edit_fdisplay ; |173| 
         0000018b 0000 
    1101                      ; call occurs [#_app_ERRmod_edit_fdisplay] ; |173| 
    1102                      .dwpsn  "app_ERRmod_fun.c",174,4
    1103 0000018c 9A1C          MOVB      AL,#28                ; |174| 
    1104 0000018d 7640!         LCR       #_GUI_set_Fgcolor     ; |174| 
         0000018e 0000 
    1105                      ; call occurs [#_GUI_set_Fgcolor] ; |174| 
    1106                      .dwpsn  "app_ERRmod_fun.c",175,4
    1107 0000018f 761F-         MOVW      DP,#_m_ERRmod_DLarg+10
         00000190 0001 
    1108 00000191 D502          MOVB      XAR5,#2               ; |175| 
    1109 00000192 D404          MOVB      XAR4,#4               ; |175| 
    1110 00000193 060A-         MOVL      ACC,@_m_ERRmod_DLarg+10 ; |175| 
    1111 00000194 7640!         LCR       #_app_ERRmod_edit_fdisplay ; |175| 
         00000195 0000 
    1112                      ; call occurs [#_app_ERRmod_edit_fdisplay] ; |175| 
    1113                      .dwpsn  "app_ERRmod_fun.c",176,4
    1114 00000196 761F-         MOVW      DP,#_m_ERRmod_DLcorrect+2
         00000197 0000 
    1115 00000198 D502          MOVB      XAR5,#2               ; |176| 
    1116 00000199 D405          MOVB      XAR4,#5               ; |176| 
    1117 0000019a 060A-         MOVL      ACC,@_m_ERRmod_DLcorrect+2 ; |176| 
    1118 0000019b 7640!         LCR       #_app_ERRmod_edit_fdisplay ; |176| 
         0000019c 0000 
    1119                      ; call occurs [#_app_ERRmod_edit_fdisplay] ; |176| 
    1120                      .dwpsn  "app_ERRmod_fun.c",177,4
    1121 0000019d 9AE0          MOVB      AL,#224               ; |177| 
    1122 0000019e 7640!         LCR       #_GUI_set_Fgcolor     ; |177| 
         0000019f 0000 
    1123                      ; call occurs [#_GUI_set_Fgcolor] ; |177| 
    1124              DW$L$_app_ERRmod_Ucorrect$14$E:
    1125              DW$L$_app_ERRmod_Ucorrect$15$B:
    1126                      .dwpsn  "app_ERRmod_fun.c",178,4
    1127 000001a0 761F-         MOVW      DP,#_m_ERRmod_DLarg+20
         000001a1 0001 
    1128 000001a2 D502          MOVB      XAR5,#2               ; |178| 
    1129 000001a3 D406          MOVB      XAR4,#6               ; |178| 
    1130 000001a4 0614-         MOVL      ACC,@_m_ERRmod_DLarg+20 ; |178| 
    1131 000001a5 7640!         LCR       #_app_ERRmod_edit_fdisplay ; |178| 
         000001a6 0000 
    1132                      ; call occurs [#_app_ERRmod_edit_fdisplay] ; |178| 
    1133                      .dwpsn  "app_ERRmod_fun.c",179,4
    1134 000001a7 761F-         MOVW      DP,#_m_ERRmod_DLcorrect+4
         000001a8 0000 
    1135 000001a9 D502          MOVB      XAR5,#2               ; |179| 
    1136 000001aa D407          MOVB      XAR4,#7               ; |179| 
    1137 000001ab 060C-         MOVL      ACC,@_m_ERRmod_DLcorrect+4 ; |179| 
    1138 000001ac 7640!         LCR       #_app_ERRmod_edit_fdisplay ; |179| 
         000001ad 0000 
    1139                      ; call occurs [#_app_ERRmod_edit_fdisplay] ; |179| 
    1140                      .dwpsn  "app_ERRmod_fun.c",180,4
    1141 000001ae 761F!         MOVW      DP,#_m_correct_edit
         000001af 0000 
TMS320C2000 COFF Assembler PC v4.1.3 Wed Jan 12 08:34:31 2011

Tools Copyright (c) 1996-2006 Texas Instruments Incorporated
C:\DOCUME~1\ADMINI~1\LOCALS~1\Temp\TI1043                            PAGE   24

    1142 000001b0 8A00!         MOVL      XAR4,@_m_correct_edit ; |180| 
    1143 000001b1 7640!         LCR       #_GUI_window_hwin_release ; |180| 
         000001b2 0000 
    1144                      ; call occurs [#_GUI_window_hwin_release] ; |180| 
    1145                      .dwpsn  "app_ERRmod_fun.c",181,4
    1146 000001b3 761F!         MOVW      DP,#_m_correct_win
         000001b4 0000 
    1147 000001b5 8A00!         MOVL      XAR4,@_m_correct_win  ; |181| 
    1148 000001b6 8F40+         MOVL      XAR5,#FSL3            ; |181| 
         000001b7 0030 
    1149 000001b8 7640!         LCR       #_GUI_3D_window_title_mod ; |181| 
         000001b9 0000 
    1150                      ; call occurs [#_GUI_3D_window_title_mod] ; |181| 
    1151                      .dwpsn  "app_ERRmod_fun.c",182,4
    1152 000001ba 9A11          MOVB      AL,#17                ; |182| 
    1153 000001bb 9B1B          MOVB      AH,#27                ; |182| 
    1154 000001bc 7640!         LCR       #_app_global_key_wait ; |182| 
         000001bd 0000 
    1155                      ; call occurs [#_app_global_key_wait] ; |182| 
    1156 000001be 9643          MOV       *-SP[3],AL            ; |182| 
    1157                      .dwpsn  "app_ERRmod_fun.c",183,4
    1158 000001bf 9A03          MOVB      AL,#3                 ; |183| 
    1159 000001c0 9343          MOV       AH,*-SP[3]            ; |183| 
    1160 000001c1 7640'         LCR       #_app_ERRmod_correct_step_send ; |183| 
         000001c2 00B4 
    1161                      ; call occurs [#_app_ERRmod_correct_step_send] ; |183| 
    1162                      .dwpsn  "app_ERRmod_fun.c",184,4
    1163 000001c3 9243          MOV       AL,*-SP[3]            ; |184| 
    1164 000001c4 5211          CMPB      AL,#17                ; |184| 
    1165 000001c5 ED0C          BF        L14,NEQ               ; |184| 
    1166                      ; branchcc occurs ; |184| 
    1167              DW$L$_app_ERRmod_Ucorrect$15$E:
    1168              DW$L$_app_ERRmod_Ucorrect$16$B:
    1169                      .dwpsn  "app_ERRmod_fun.c",186,5
    1170 000001c6 9A00          MOVB      AL,#0
    1171 000001c7 7640'         LCR       #_app_ERRmod_correct_data_save ; |186| 
         000001c8 0000 
    1172                      ; call occurs [#_app_ERRmod_correct_data_save] ; |186| 
    1173                      .dwpsn  "app_ERRmod_fun.c",187,5
    1174 000001c9 761F!         MOVW      DP,#_m_correct_win
         000001ca 0000 
    1175 000001cb 8A00!         MOVL      XAR4,@_m_correct_win  ; |187| 
    1176 000001cc 8F40+         MOVL      XAR5,#FSL4            ; |187| 
         000001cd 0044 
    1177 000001ce 7640!         LCR       #_GUI_3D_window_title_mod ; |187| 
         000001cf 0000 
    1178                      ; call occurs [#_GUI_3D_window_title_mod] ; |187| 
    1179                      .dwpsn  "app_ERRmod_fun.c",188,4
    1180 000001d0 6F08          B         L15,UNC               ; |188| 
    1181                      ; branch occurs ; |188| 
    1182              DW$L$_app_ERRmod_Ucorrect$16$E:
    1183              L14:    
    1184              DW$L$_app_ERRmod_Ucorrect$17$B:
    1185                      .dwpsn  "app_ERRmod_fun.c",191,5
    1186 000001d1 761F!         MOVW      DP,#_m_correct_win
TMS320C2000 COFF Assembler PC v4.1.3 Wed Jan 12 08:34:31 2011

Tools Copyright (c) 1996-2006 Texas Instruments Incorporated
C:\DOCUME~1\ADMINI~1\LOCALS~1\Temp\TI1043                            PAGE   25

         000001d2 0000 
    1187 000001d3 8A00!         MOVL      XAR4,@_m_correct_win  ; |191| 
    1188 000001d4 8F40+         MOVL      XAR5,#FSL5            ; |191| 
         000001d5 004E 
    1189 000001d6 7640!         LCR       #_GUI_3D_window_title_mod ; |191| 
         000001d7 0000 
    1190                      ; call occurs [#_GUI_3D_window_title_mod] ; |191| 
    1191              DW$L$_app_ERRmod_Ucorrect$17$E:
    1192              L15:    
    1193              DW$L$_app_ERRmod_Ucorrect$18$B:
    1194                      .dwpsn  "app_ERRmod_fun.c",193,4
    1195 000001d8 9A64          MOVB      AL,#100               ; |193| 
    1196 000001d9 7640!         LCR       #_OSTimeDly           ; |193| 
         000001da 0000 
    1197                      ; call occurs [#_OSTimeDly] ; |193| 
    1198                      .dwpsn  "app_ERRmod_fun.c",194,4
    1199 000001db FFEF          B         L7,UNC                ; |194| 
         000001dc FF11 
    1200                      ; branch occurs ; |194| 
    1201              DW$L$_app_ERRmod_Ucorrect$18$E:
    1202              L16:    
    1203                      .dwpsn  "app_ERRmod_fun.c",198,2
    1204 000001dd 9243          MOV       AL,*-SP[3]            ; |198| 
    1205              L17:    
    1206                      .dwpsn  "app_ERRmod_fun.c",199,1
    1207 000001de FE88          SUBB      SP,#8                 ; |198| 
    1208                      .dwcfa  0x1d, -2
    1209 000001df 0006          LRETR
    1210                      ; return occurs
    1211              
    1212              DW$118  .dwtag  DW_TAG_loop
    1213                      .dwattr DW$118, DW_AT_name("C:\DOCUME~1\ADMINI~1\LOCALS~1\Temp\TI1043:L7:1:1294792471")
    1214                      .dwattr DW$118, DW_AT_begin_file("app_ERRmod_fun.c")
    1215                      .dwattr DW$118, DW_AT_begin_line(0x89)
    1216                      .dwattr DW$118, DW_AT_end_line(0xc5)
    1217              DW$119  .dwtag  DW_TAG_loop_range
    1218                      .dwattr DW$119, DW_AT_low_pc(DW$L$_app_ERRmod_Ucorrect$2$B)
    1219                      .dwattr DW$119, DW_AT_high_pc(DW$L$_app_ERRmod_Ucorrect$2$E)
    1220              DW$120  .dwtag  DW_TAG_loop_range
    1221                      .dwattr DW$120, DW_AT_low_pc(DW$L$_app_ERRmod_Ucorrect$4$B)
    1222                      .dwattr DW$120, DW_AT_high_pc(DW$L$_app_ERRmod_Ucorrect$4$E)
    1223              DW$121  .dwtag  DW_TAG_loop_range
    1224                      .dwattr DW$121, DW_AT_low_pc(DW$L$_app_ERRmod_Ucorrect$5$B)
    1225                      .dwattr DW$121, DW_AT_high_pc(DW$L$_app_ERRmod_Ucorrect$5$E)
    1226              DW$122  .dwtag  DW_TAG_loop_range
    1227                      .dwattr DW$122, DW_AT_low_pc(DW$L$_app_ERRmod_Ucorrect$6$B)
    1228                      .dwattr DW$122, DW_AT_high_pc(DW$L$_app_ERRmod_Ucorrect$6$E)
    1229              DW$123  .dwtag  DW_TAG_loop_range
    1230                      .dwattr DW$123, DW_AT_low_pc(DW$L$_app_ERRmod_Ucorrect$7$B)
    1231                      .dwattr DW$123, DW_AT_high_pc(DW$L$_app_ERRmod_Ucorrect$7$E)
    1232              DW$124  .dwtag  DW_TAG_loop_range
    1233                      .dwattr DW$124, DW_AT_low_pc(DW$L$_app_ERRmod_Ucorrect$8$B)
    1234                      .dwattr DW$124, DW_AT_high_pc(DW$L$_app_ERRmod_Ucorrect$8$E)
    1235              DW$125  .dwtag  DW_TAG_loop_range
    1236                      .dwattr DW$125, DW_AT_low_pc(DW$L$_app_ERRmod_Ucorrect$9$B)
TMS320C2000 COFF Assembler PC v4.1.3 Wed Jan 12 08:34:31 2011

Tools Copyright (c) 1996-2006 Texas Instruments Incorporated
C:\DOCUME~1\ADMINI~1\LOCALS~1\Temp\TI1043                            PAGE   26

    1237                      .dwattr DW$125, DW_AT_high_pc(DW$L$_app_ERRmod_Ucorrect$9$E)
    1238              DW$126  .dwtag  DW_TAG_loop_range
    1239                      .dwattr DW$126, DW_AT_low_pc(DW$L$_app_ERRmod_Ucorrect$14$B)
    1240                      .dwattr DW$126, DW_AT_high_pc(DW$L$_app_ERRmod_Ucorrect$14$E)
    1241              DW$127  .dwtag  DW_TAG_loop_range
    1242                      .dwattr DW$127, DW_AT_low_pc(DW$L$_app_ERRmod_Ucorrect$15$B)
    1243                      .dwattr DW$127, DW_AT_high_pc(DW$L$_app_ERRmod_Ucorrect$15$E)
    1244              DW$128  .dwtag  DW_TAG_loop_range
    1245                      .dwattr DW$128, DW_AT_low_pc(DW$L$_app_ERRmod_Ucorrect$16$B)
    1246                      .dwattr DW$128, DW_AT_high_pc(DW$L$_app_ERRmod_Ucorrect$16$E)
    1247              DW$129  .dwtag  DW_TAG_loop_range
    1248                      .dwattr DW$129, DW_AT_low_pc(DW$L$_app_ERRmod_Ucorrect$17$B)
    1249                      .dwattr DW$129, DW_AT_high_pc(DW$L$_app_ERRmod_Ucorrect$17$E)
    1250              DW$130  .dwtag  DW_TAG_loop_range
    1251                      .dwattr DW$130, DW_AT_low_pc(DW$L$_app_ERRmod_Ucorrect$18$B)
    1252                      .dwattr DW$130, DW_AT_high_pc(DW$L$_app_ERRmod_Ucorrect$18$E)
    1253              
    1254              DW$131  .dwtag  DW_TAG_loop
    1255                      .dwattr DW$131, DW_AT_name("C:\DOCUME~1\ADMINI~1\LOCALS~1\Temp\TI1043:L8:2:1294792471")
    1256                      .dwattr DW$131, DW_AT_begin_file("app_ERRmod_fun.c")
    1257                      .dwattr DW$131, DW_AT_begin_line(0x8e)
    1258                      .dwattr DW$131, DW_AT_end_line(0x92)
    1259              DW$132  .dwtag  DW_TAG_loop_range
    1260                      .dwattr DW$132, DW_AT_low_pc(DW$L$_app_ERRmod_Ucorrect$3$B)
    1261                      .dwattr DW$132, DW_AT_high_pc(DW$L$_app_ERRmod_Ucorrect$3$E)
    1262                      .dwendtag DW$131
    1263              
    1264              
    1265              DW$133  .dwtag  DW_TAG_loop
    1266                      .dwattr DW$133, DW_AT_name("C:\DOCUME~1\ADMINI~1\LOCALS~1\Temp\TI1043:L13:2:1294792471")
    1267                      .dwattr DW$133, DW_AT_begin_file("app_ERRmod_fun.c")
    1268                      .dwattr DW$133, DW_AT_begin_line(0xa0)
    1269                      .dwattr DW$133, DW_AT_end_line(0xa5)
    1270              DW$134  .dwtag  DW_TAG_loop_range
    1271                      .dwattr DW$134, DW_AT_low_pc(DW$L$_app_ERRmod_Ucorrect$13$B)
    1272                      .dwattr DW$134, DW_AT_high_pc(DW$L$_app_ERRmod_Ucorrect$13$E)
    1273              DW$135  .dwtag  DW_TAG_loop_range
    1274                      .dwattr DW$135, DW_AT_low_pc(DW$L$_app_ERRmod_Ucorrect$11$B)
    1275                      .dwattr DW$135, DW_AT_high_pc(DW$L$_app_ERRmod_Ucorrect$11$E)
    1276              DW$136  .dwtag  DW_TAG_loop_range
    1277                      .dwattr DW$136, DW_AT_low_pc(DW$L$_app_ERRmod_Ucorrect$12$B)
    1278                      .dwattr DW$136, DW_AT_high_pc(DW$L$_app_ERRmod_Ucorrect$12$E)
    1279              DW$137  .dwtag  DW_TAG_loop_range
    1280                      .dwattr DW$137, DW_AT_low_pc(DW$L$_app_ERRmod_Ucorrect$10$B)
    1281                      .dwattr DW$137, DW_AT_high_pc(DW$L$_app_ERRmod_Ucorrect$10$E)
    1282                      .dwendtag DW$133
    1283              
    1284                      .dwendtag DW$118
    1285              
    1286                      .dwattr DW$112, DW_AT_end_file("app_ERRmod_fun.c")
    1287                      .dwattr DW$112, DW_AT_end_line(0xc7)
    1288                      .dwattr DW$112, DW_AT_end_column(0x01)
    1289                      .dwendentry
    1290                      .dwendtag DW$112
    1291              
TMS320C2000 COFF Assembler PC v4.1.3 Wed Jan 12 08:34:31 2011

Tools Copyright (c) 1996-2006 Texas Instruments Incorporated
C:\DOCUME~1\ADMINI~1\LOCALS~1\Temp\TI1043                            PAGE   27

    1292 000001e0               .sect   ".text"
    1293                      .global _app_ERRmod_Icorrect
    1294              
    1295              DW$138  .dwtag  DW_TAG_subprogram, DW_AT_name("app_ERRmod_Icorrect"), DW_AT_symbol_name("_app_ERRmod_Icorrect
    1296                      .dwattr DW$138, DW_AT_low_pc(_app_ERRmod_Icorrect)
    1297                      .dwattr DW$138, DW_AT_high_pc(0x00)
    1298                      .dwattr DW$138, DW_AT_begin_file("app_ERRmod_fun.c")
    1299                      .dwattr DW$138, DW_AT_begin_line(0xd1)
    1300                      .dwattr DW$138, DW_AT_begin_column(0x09)
    1301                      .dwpsn  "app_ERRmod_fun.c",210,1
    1302              
    1303                      .dwfde DW$CIE
    1304              
    1305              ;***************************************************************
    1306              ;* FNAME: _app_ERRmod_Icorrect          FR SIZE:   6           *
    1307              ;*                                                             *
    1308              ;* FUNCTION ENVIRONMENT                                        *
    1309              ;*                                                             *
    1310              ;* FUNCTION PROPERTIES                                         *
    1311              ;*                            0 Parameter,  6 Auto,  0 SOE     *
    1312              ;***************************************************************
    1313              
    1314              _app_ERRmod_Icorrect:
    1315                      .dwcfa  0x1d, -2
    1316                      .dwcfa  0x1c, 26, 0
    1317                      .dwcfa  0x09, 40, 26
    1318 000001e0 FE06          ADDB      SP,#6
    1319                      .dwcfa  0x1d, -8
    1320              ;* AR4   assigned to _arg
    1321              DW$139  .dwtag  DW_TAG_formal_parameter, DW_AT_name("arg"), DW_AT_symbol_name("_arg")
    1322                      .dwattr DW$139, DW_AT_type(*DW$T$3)
    1323                      .dwattr DW$139, DW_AT_location[DW_OP_reg12]
    1324              DW$140  .dwtag  DW_TAG_variable, DW_AT_name("arg"), DW_AT_symbol_name("_arg")
    1325                      .dwattr DW$140, DW_AT_type(*DW$T$3)
    1326                      .dwattr DW$140, DW_AT_location[DW_OP_breg20 -2]
    1327              DW$141  .dwtag  DW_TAG_variable, DW_AT_name("key_buf"), DW_AT_symbol_name("_key_buf")
    1328                      .dwattr DW$141, DW_AT_type(*DW$T$6)
    1329                      .dwattr DW$141, DW_AT_location[DW_OP_breg20 -3]
    1330              DW$142  .dwtag  DW_TAG_variable, DW_AT_name("value"), DW_AT_symbol_name("_value")
    1331                      .dwattr DW$142, DW_AT_type(*DW$T$6)
    1332                      .dwattr DW$142, DW_AT_location[DW_OP_breg20 -4]
    1333              DW$143  .dwtag  DW_TAG_variable, DW_AT_name("offset"), DW_AT_symbol_name("_offset")
    1334                      .dwattr DW$143, DW_AT_type(*DW$T$19)
    1335                      .dwattr DW$143, DW_AT_location[DW_OP_breg20 -5]
    1336              DW$144  .dwtag  DW_TAG_variable, DW_AT_name("flag"), DW_AT_symbol_name("_flag")
    1337                      .dwattr DW$144, DW_AT_type(*DW$T$128)
    1338                      .dwattr DW$144, DW_AT_location[DW_OP_breg20 -6]
    1339 000001e1 A842          MOVL      *-SP[2],XAR4          ; |210| 
    1340                      .dwpsn  "app_ERRmod_fun.c",215,2
    1341 000001e2 9A1D          MOVB      AL,#29                ; |215| 
    1342 000001e3 7640!         LCR       #_app_global_key_dummy_press ; |215| 
         000001e4 0000 
    1343                      ; call occurs [#_app_global_key_dummy_press] ; |215| 
    1344                      .dwpsn  "app_ERRmod_fun.c",216,10
    1345              L18:    
TMS320C2000 COFF Assembler PC v4.1.3 Wed Jan 12 08:34:31 2011

Tools Copyright (c) 1996-2006 Texas Instruments Incorporated
C:\DOCUME~1\ADMINI~1\LOCALS~1\Temp\TI1043                            PAGE   28

    1346              DW$L$_app_ERRmod_Icorrect$2$B:
    1347                      .dwpsn  "app_ERRmod_fun.c",218,3
    1348 000001e5 9A01          MOVB      AL,#1                 ; |218| 
    1349 000001e6 7640!         LCR       #_OSTimeDly           ; |218| 
         000001e7 0000 
    1350                      ; call occurs [#_OSTimeDly] ; |218| 
    1351                      .dwpsn  "app_ERRmod_fun.c",219,3
    1352 000001e8 5CAD          MOVZ      AR4,SP                ; |219| 
    1353 000001e9 9A01          MOVB      AL,#1                 ; |219| 
    1354 000001ea DC83          SUBB      XAR4,#3               ; |219| 
    1355 000001eb 7640!         LCR       #_app_global_key_obtain ; |219| 
         000001ec 0000 
    1356                      ; call occurs [#_app_global_key_obtain] ; |219| 
    1357 000001ed 5201          CMPB      AL,#1                 ; |219| 
    1358 000001ee EDF7          BF        L18,NEQ               ; |219| 
    1359                      ; branchcc occurs ; |219| 
    1360              DW$L$_app_ERRmod_Icorrect$2$E:
    1361              DW$L$_app_ERRmod_Icorrect$3$B:
    1362                      .dwpsn  "app_ERRmod_fun.c",221,4
    1363                      .dwpsn  "app_ERRmod_fun.c",223,3
    1364 000001ef 9243          MOV       AL,*-SP[3]            ; |223| 
    1365 000001f0 521D          CMPB      AL,#29                ; |223| 
    1366 000001f1 56C0          BF        L25,NEQ               ; |223| 
         000001f2 00F4 
    1367                      ; branchcc occurs ; |223| 
    1368              DW$L$_app_ERRmod_Icorrect$3$E:
    1369              DW$L$_app_ERRmod_Icorrect$4$B:
    1370                      .dwpsn  "app_ERRmod_fun.c",225,4
    1371 000001f3 761F!         MOVW      DP,#_m_correct_win
         000001f4 0000 
    1372 000001f5 8A00!         MOVL      XAR4,@_m_correct_win  ; |225| 
    1373 000001f6 8F40+         MOVL      XAR5,#FSL6            ; |225| 
         000001f7 005C 
    1374 000001f8 7640!         LCR       #_GUI_3D_window_title_mod ; |225| 
         000001f9 0000 
    1375                      ; call occurs [#_GUI_3D_window_title_mod] ; |225| 
    1376                      .dwpsn  "app_ERRmod_fun.c",226,4
    1377 000001fa 0201          MOVB      ACC,#1
    1378 000001fb 7640'         LCR       #_app_ERRmod_correct_step_send ; |226| 
         000001fc 00B4 
    1379                      ; call occurs [#_app_ERRmod_correct_step_send] ; |226| 
    1380                      .dwpsn  "app_ERRmod_fun.c",227,4
    1381 000001fd 761F!         MOVW      DP,#_m_correct_drop_list
         000001fe 0000 
    1382 000001ff 8A00!         MOVL      XAR4,@_m_correct_drop_list ; |227| 
    1383 00000200 7640!         LCR       #_GUI_drop_list_unfold ; |227| 
         00000201 0000 
    1384                      ; call occurs [#_GUI_drop_list_unfold] ; |227| 
    1385 00000202 9645          MOV       *-SP[5],AL            ; |227| 
    1386                      .dwpsn  "app_ERRmod_fun.c",228,4
    1387 00000203 0E45          MOVU      ACC,*-SP[5]
    1388 00000204 8F00!         MOVL      XAR4,#_m_err_DLI_option+8 ; |228| 
         00000205 0008 
    1389 00000206 FF30          LSL       ACC,1                 ; |228| 
    1390 00000207 5601          ADDL      XAR4,ACC
TMS320C2000 COFF Assembler PC v4.1.3 Wed Jan 12 08:34:31 2011

Tools Copyright (c) 1996-2006 Texas Instruments Incorporated
C:\DOCUME~1\ADMINI~1\LOCALS~1\Temp\TI1043                            PAGE   29

         00000208 00A4 
    1391 00000209 8AC4          MOVL      XAR4,*+XAR4[0]        ; |228| 
    1392 0000020a 7640!         LCR       #_global_atof         ; |228| 
         0000020b 0000 
    1393                      ; call occurs [#_global_atof] ; |228| 
    1394 0000020c 761F-         MOVW      DP,#_m_ERRmod_base_I
         0000020d 0000 
    1395 0000020e 1E04-         MOVL      @_m_ERRmod_base_I,ACC ; |228| 
    1396                      .dwpsn  "app_ERRmod_fun.c",229,4
    1397 0000020f 761F!         MOVW      DP,#_m_correct_edit
         00000210 0000 
    1398 00000211 8A00!         MOVL      XAR4,@_m_correct_edit ; |229| 
    1399 00000212 7640!         LCR       #_GUI_window_hwin_req ; |229| 
         00000213 0000 
    1400                      ; call occurs [#_GUI_window_hwin_req] ; |229| 
    1401                      .dwpsn  "app_ERRmod_fun.c",230,4
    1402 00000214 9AFF          MOVB      AL,#255               ; |230| 
    1403 00000215 7640!         LCR       #_GUI_set_Fgcolor     ; |230| 
         00000216 0000 
    1404                      ; call occurs [#_GUI_set_Fgcolor] ; |230| 
    1405                      .dwpsn  "app_ERRmod_fun.c",231,4
    1406 00000217 9A01          MOVB      AL,#1                 ; |231| 
    1407 00000218 7640!         LCR       #_GUI_set_Bgcolor     ; |231| 
         00000219 0000 
    1408                      ; call occurs [#_GUI_set_Bgcolor] ; |231| 
    1409                      .dwpsn  "app_ERRmod_fun.c",232,4
    1410 0000021a 0E45          MOVU      ACC,*-SP[5]
    1411 0000021b 8F00!         MOVL      XAR4,#_m_err_DLI_option+8 ; |232| 
         0000021c 0008 
    1412 0000021d FF30          LSL       ACC,1                 ; |232| 
    1413 0000021e 5601          ADDL      XAR4,ACC
         0000021f 00A4 
    1414 00000220 8AC4          MOVL      XAR4,*+XAR4[0]        ; |232| 
    1415 00000221 9A01          MOVB      AL,#1                 ; |232| 
    1416 00000222 7640!         LCR       #_GUI_edit_string_display_At ; |232| 
         00000223 0000 
    1417                      ; call occurs [#_GUI_edit_string_display_At] ; |232| 
    1418                      .dwpsn  "app_ERRmod_fun.c",233,4
    1419 00000224 761F!         MOVW      DP,#_m_correct_edit
         00000225 0000 
    1420 00000226 8A00!         MOVL      XAR4,@_m_correct_edit ; |233| 
    1421 00000227 7640!         LCR       #_GUI_window_hwin_release ; |233| 
         00000228 0000 
    1422                      ; call occurs [#_GUI_window_hwin_release] ; |233| 
    1423                      .dwpsn  "app_ERRmod_fun.c",234,4
    1424 00000229 0202          MOVB      ACC,#2
    1425 0000022a 7640'         LCR       #_app_ERRmod_correct_step_send ; |234| 
         0000022b 00B4 
    1426                      ; call occurs [#_app_ERRmod_correct_step_send] ; |234| 
    1427                      .dwpsn  "app_ERRmod_fun.c",235,4
    1428 0000022c 761F!         MOVW      DP,#_m_correct_win
         0000022d 0000 
    1429 0000022e 8A00!         MOVL      XAR4,@_m_correct_win  ; |235| 
    1430 0000022f 8F40+         MOVL      XAR5,#FSL2            ; |235| 
         00000230 001A 
TMS320C2000 COFF Assembler PC v4.1.3 Wed Jan 12 08:34:31 2011

Tools Copyright (c) 1996-2006 Texas Instruments Incorporated
C:\DOCUME~1\ADMINI~1\LOCALS~1\Temp\TI1043                            PAGE   30

    1431 00000231 7640!         LCR       #_GUI_3D_window_title_mod ; |235| 
         00000232 0000 
    1432                      ; call occurs [#_GUI_3D_window_title_mod] ; |235| 
    1433              DW$L$_app_ERRmod_Icorrect$4$E:
    1434              DW$L$_app_ERRmod_Icorrect$5$B:
    1435                      .dwpsn  "app_ERRmod_fun.c",236,4
    1436 00000233 6F17          B         L20,UNC               ; |236| 
    1437                      ; branch occurs ; |236| 
    1438              DW$L$_app_ERRmod_Icorrect$5$E:
    1439              L19:    
    1440              DW$L$_app_ERRmod_Icorrect$6$B:
    1441                      .dwpsn  "app_ERRmod_fun.c",238,5
    1442 00000234 9A01          MOVB      AL,#1                 ; |238| 
    1443 00000235 7640!         LCR       #_OSTimeDly           ; |238| 
         00000236 0000 
    1444                      ; call occurs [#_OSTimeDly] ; |238| 
    1445                      .dwpsn  "app_ERRmod_fun.c",239,5
    1446 00000237 5CAD          MOVZ      AR4,SP                ; |239| 
    1447 00000238 761F-         MOVW      DP,#_m_ERRmod_Mdev_id
         00000239 0000 
    1448 0000023a 9201-         MOV       AL,@_m_ERRmod_Mdev_id ; |239| 
    1449 0000023b DC86          SUBB      XAR4,#6               ; |239| 
    1450 0000023c 9B03          MOVB      AH,#3                 ; |239| 
    1451 0000023d 7640!         LCR       #_os_driver_ioctl     ; |239| 
         0000023e 0000 
    1452                      ; call occurs [#_os_driver_ioctl] ; |239| 
    1453                      .dwpsn  "app_ERRmod_fun.c",240,5
    1454 0000023f 5CAD          MOVZ      AR4,SP                ; |240| 
    1455 00000240 9A01          MOVB      AL,#1                 ; |240| 
    1456 00000241 DC84          SUBB      XAR4,#4               ; |240| 
    1457 00000242 7640!         LCR       #_app_global_key_obtain ; |240| 
         00000243 0000 
    1458                      ; call occurs [#_app_global_key_obtain] ; |240| 
    1459 00000244 5201          CMPB      AL,#1                 ; |240| 
    1460 00000245 ED05          BF        L20,NEQ               ; |240| 
    1461                      ; branchcc occurs ; |240| 
    1462              DW$L$_app_ERRmod_Icorrect$6$E:
    1463              DW$L$_app_ERRmod_Icorrect$7$B:
    1464                      .dwpsn  "app_ERRmod_fun.c",240,53
    1465                      .dwpsn  "app_ERRmod_fun.c",241,5
    1466 00000246 9244          MOV       AL,*-SP[4]            ; |241| 
    1467 00000247 521B          CMPB      AL,#27                ; |241| 
    1468 00000248 56C1          BF        L27,EQ                ; |241| 
         00000249 00A5 
    1469                      ; branchcc occurs ; |241| 
    1470              DW$L$_app_ERRmod_Icorrect$7$E:
    1471              DW$L$_app_ERRmod_Icorrect$8$B:
    1472                      .dwpsn  "app_ERRmod_fun.c",241,31
    1473              DW$L$_app_ERRmod_Icorrect$8$E:
    1474              L20:    
    1475              DW$L$_app_ERRmod_Icorrect$9$B:
    1476                      .dwpsn  "app_ERRmod_fun.c",236,12
    1477 0000024a CC46          AND       AL,*-SP[6],#0x0004    ; |236| 
         0000024b 0004 
    1478 0000024c FFC1          LSR       AL,2                  ; |236| 
TMS320C2000 COFF Assembler PC v4.1.3 Wed Jan 12 08:34:31 2011

Tools Copyright (c) 1996-2006 Texas Instruments Incorporated
C:\DOCUME~1\ADMINI~1\LOCALS~1\Temp\TI1043                            PAGE   31

    1479 0000024d ECE7          BF        L19,EQ                ; |236| 
    1480                      ; branchcc occurs ; |236| 
    1481              DW$L$_app_ERRmod_Icorrect$9$E:
    1482              DW$L$_app_ERRmod_Icorrect$10$B:
    1483                      .dwpsn  "app_ERRmod_fun.c",243,4
    1484 0000024e 761F!         MOVW      DP,#_m_correct_edit
         0000024f 0000 
    1485 00000250 8A00!         MOVL      XAR4,@_m_correct_edit ; |243| 
    1486 00000251 7640!         LCR       #_GUI_window_hwin_req ; |243| 
         00000252 0000 
    1487                      ; call occurs [#_GUI_window_hwin_req] ; |243| 
    1488                      .dwpsn  "app_ERRmod_fun.c",244,4
    1489 00000253 9A01          MOVB      AL,#1                 ; |244| 
    1490 00000254 7640!         LCR       #_GUI_set_Bgcolor     ; |244| 
         00000255 0000 
    1491                      ; call occurs [#_GUI_set_Bgcolor] ; |244| 
    1492                      .dwpsn  "app_ERRmod_fun.c",245,4
    1493 00000256 761F-         MOVW      DP,#_m_ERRmod_Mdev_id
         00000257 0000 
    1494 00000258 9201-         MOV       AL,@_m_ERRmod_Mdev_id ; |245| 
    1495 00000259 8F00-         MOVL      XAR4,#_m_ERRmod_DLarg ; |245| 
         0000025a 0040 
    1496 0000025b 9B02          MOVB      AH,#2                 ; |245| 
    1497 0000025c 7640!         LCR       #_os_driver_ioctl     ; |245| 
         0000025d 0000 
    1498                      ; call occurs [#_os_driver_ioctl] ; |245| 
    1499                      .dwpsn  "app_ERRmod_fun.c",246,4
    1500 0000025e 761F-         MOVW      DP,#_m_ERRmod_Mdev_id
         0000025f 0000 
    1501 00000260 9201-         MOV       AL,@_m_ERRmod_Mdev_id ; |246| 
    1502 00000261 8F00-         MOVL      XAR4,#_m_ERRmod_DLcorrect ; |246| 
         00000262 0008 
    1503 00000263 9B09          MOVB      AH,#9                 ; |246| 
    1504 00000264 7640!         LCR       #_os_driver_ioctl     ; |246| 
         00000265 0000 
    1505                      ; call occurs [#_os_driver_ioctl] ; |246| 
    1506                      .dwpsn  "app_ERRmod_fun.c",247,4
    1507 00000266 9AFC          MOVB      AL,#252               ; |247| 
    1508 00000267 7640!         LCR       #_GUI_set_Fgcolor     ; |247| 
         00000268 0000 
    1509                      ; call occurs [#_GUI_set_Fgcolor] ; |247| 
    1510                      .dwpsn  "app_ERRmod_fun.c",248,4
    1511 00000269 761F-         MOVW      DP,#_m_ERRmod_DLarg+2
         0000026a 0001 
    1512 0000026b D402          MOVB      XAR4,#2               ; |248| 
    1513 0000026c D502          MOVB      XAR5,#2               ; |248| 
    1514 0000026d 0602-         MOVL      ACC,@_m_ERRmod_DLarg+2 ; |248| 
    1515 0000026e 7640!         LCR       #_app_ERRmod_edit_fdisplay ; |248| 
         0000026f 0000 
    1516                      ; call occurs [#_app_ERRmod_edit_fdisplay] ; |248| 
    1517                      .dwpsn  "app_ERRmod_fun.c",249,4
    1518 00000270 761F-         MOVW      DP,#_m_ERRmod_DLcorrect+8
         00000271 0000 
    1519 00000272 D502          MOVB      XAR5,#2               ; |249| 
    1520 00000273 D403          MOVB      XAR4,#3               ; |249| 
TMS320C2000 COFF Assembler PC v4.1.3 Wed Jan 12 08:34:31 2011

Tools Copyright (c) 1996-2006 Texas Instruments Incorporated
C:\DOCUME~1\ADMINI~1\LOCALS~1\Temp\TI1043                            PAGE   32

    1521 00000274 0610-         MOVL      ACC,@_m_ERRmod_DLcorrect+8 ; |249| 
    1522 00000275 7640!         LCR       #_app_ERRmod_edit_fdisplay ; |249| 
         00000276 0000 
    1523                      ; call occurs [#_app_ERRmod_edit_fdisplay] ; |249| 
    1524                      .dwpsn  "app_ERRmod_fun.c",250,4
    1525 00000277 9A1C          MOVB      AL,#28                ; |250| 
    1526 00000278 7640!         LCR       #_GUI_set_Fgcolor     ; |250| 
         00000279 0000 
    1527                      ; call occurs [#_GUI_set_Fgcolor] ; |250| 
    1528                      .dwpsn  "app_ERRmod_fun.c",251,4
    1529 0000027a 761F-         MOVW      DP,#_m_ERRmod_DLarg+12
         0000027b 0001 
    1530 0000027c D502          MOVB      XAR5,#2               ; |251| 
    1531 0000027d D404          MOVB      XAR4,#4               ; |251| 
    1532 0000027e 060C-         MOVL      ACC,@_m_ERRmod_DLarg+12 ; |251| 
    1533 0000027f 7640!         LCR       #_app_ERRmod_edit_fdisplay ; |251| 
         00000280 0000 
    1534                      ; call occurs [#_app_ERRmod_edit_fdisplay] ; |251| 
    1535                      .dwpsn  "app_ERRmod_fun.c",252,4
    1536 00000281 761F-         MOVW      DP,#_m_ERRmod_DLcorrect+10
         00000282 0000 
    1537 00000283 D502          MOVB      XAR5,#2               ; |252| 
    1538 00000284 D405          MOVB      XAR4,#5               ; |252| 
    1539 00000285 0612-         MOVL      ACC,@_m_ERRmod_DLcorrect+10 ; |252| 
    1540 00000286 7640!         LCR       #_app_ERRmod_edit_fdisplay ; |252| 
         00000287 0000 
    1541                      ; call occurs [#_app_ERRmod_edit_fdisplay] ; |252| 
    1542                      .dwpsn  "app_ERRmod_fun.c",253,4
    1543 00000288 9AE0          MOVB      AL,#224               ; |253| 
    1544 00000289 7640!         LCR       #_GUI_set_Fgcolor     ; |253| 
         0000028a 0000 
    1545                      ; call occurs [#_GUI_set_Fgcolor] ; |253| 
    1546              DW$L$_app_ERRmod_Icorrect$10$E:
    1547              DW$L$_app_ERRmod_Icorrect$11$B:
    1548                      .dwpsn  "app_ERRmod_fun.c",254,4
    1549 0000028b 761F-         MOVW      DP,#_m_ERRmod_DLarg+22
         0000028c 0001 
    1550 0000028d D502          MOVB      XAR5,#2               ; |254| 
    1551 0000028e D406          MOVB      XAR4,#6               ; |254| 
    1552 0000028f 0616-         MOVL      ACC,@_m_ERRmod_DLarg+22 ; |254| 
    1553 00000290 7640!         LCR       #_app_ERRmod_edit_fdisplay ; |254| 
         00000291 0000 
    1554                      ; call occurs [#_app_ERRmod_edit_fdisplay] ; |254| 
    1555                      .dwpsn  "app_ERRmod_fun.c",255,4
    1556 00000292 761F-         MOVW      DP,#_m_ERRmod_DLcorrect+12
         00000293 0000 
    1557 00000294 D502          MOVB      XAR5,#2               ; |255| 
    1558 00000295 D407          MOVB      XAR4,#7               ; |255| 
    1559 00000296 0614-         MOVL      ACC,@_m_ERRmod_DLcorrect+12 ; |255| 
    1560 00000297 7640!         LCR       #_app_ERRmod_edit_fdisplay ; |255| 
         00000298 0000 
    1561                      ; call occurs [#_app_ERRmod_edit_fdisplay] ; |255| 
    1562                      .dwpsn  "app_ERRmod_fun.c",256,4
    1563 00000299 761F!         MOVW      DP,#_m_correct_edit
         0000029a 0000 
TMS320C2000 COFF Assembler PC v4.1.3 Wed Jan 12 08:34:31 2011

Tools Copyright (c) 1996-2006 Texas Instruments Incorporated
C:\DOCUME~1\ADMINI~1\LOCALS~1\Temp\TI1043                            PAGE   33

    1564 0000029b 8A00!         MOVL      XAR4,@_m_correct_edit ; |256| 
    1565 0000029c 7640!         LCR       #_GUI_window_hwin_release ; |256| 
         0000029d 0000 
    1566                      ; call occurs [#_GUI_window_hwin_release] ; |256| 
    1567                      .dwpsn  "app_ERRmod_fun.c",257,4
    1568 0000029e 761F!         MOVW      DP,#_m_correct_win
         0000029f 0000 
    1569 000002a0 8A00!         MOVL      XAR4,@_m_correct_win  ; |257| 
    1570 000002a1 8F40+         MOVL      XAR5,#FSL3            ; |257| 
         000002a2 0030 
    1571 000002a3 7640!         LCR       #_GUI_3D_window_title_mod ; |257| 
         000002a4 0000 
    1572                      ; call occurs [#_GUI_3D_window_title_mod] ; |257| 
    1573                      .dwpsn  "app_ERRmod_fun.c",258,4
    1574 000002a5 9A11          MOVB      AL,#17                ; |258| 
    1575 000002a6 9B1B          MOVB      AH,#27                ; |258| 
    1576 000002a7 7640!         LCR       #_app_global_key_wait ; |258| 
         000002a8 0000 
    1577                      ; call occurs [#_app_global_key_wait] ; |258| 
    1578 000002a9 9644          MOV       *-SP[4],AL            ; |258| 
    1579                      .dwpsn  "app_ERRmod_fun.c",259,4
    1580 000002aa 9A03          MOVB      AL,#3                 ; |259| 
    1581 000002ab 9344          MOV       AH,*-SP[4]            ; |259| 
    1582 000002ac 7640'         LCR       #_app_ERRmod_correct_step_send ; |259| 
         000002ad 00B4 
    1583                      ; call occurs [#_app_ERRmod_correct_step_send] ; |259| 
    1584                      .dwpsn  "app_ERRmod_fun.c",260,4
    1585 000002ae 9244          MOV       AL,*-SP[4]            ; |260| 
    1586 000002af 5211          CMPB      AL,#17                ; |260| 
    1587 000002b0 ED0C          BF        L21,NEQ               ; |260| 
    1588                      ; branchcc occurs ; |260| 
    1589              DW$L$_app_ERRmod_Icorrect$11$E:
    1590              DW$L$_app_ERRmod_Icorrect$12$B:
    1591                      .dwpsn  "app_ERRmod_fun.c",262,5
    1592 000002b1 9245          MOV       AL,*-SP[5]            ; |262| 
    1593 000002b2 7640'         LCR       #_app_ERRmod_correct_data_save ; |262| 
         000002b3 0000 
    1594                      ; call occurs [#_app_ERRmod_correct_data_save] ; |262| 
    1595                      .dwpsn  "app_ERRmod_fun.c",263,5
    1596 000002b4 761F!         MOVW      DP,#_m_correct_win
         000002b5 0000 
    1597 000002b6 8A00!         MOVL      XAR4,@_m_correct_win  ; |263| 
    1598 000002b7 8F40+         MOVL      XAR5,#FSL4            ; |263| 
         000002b8 0044 
    1599 000002b9 7640!         LCR       #_GUI_3D_window_title_mod ; |263| 
         000002ba 0000 
    1600                      ; call occurs [#_GUI_3D_window_title_mod] ; |263| 
    1601                      .dwpsn  "app_ERRmod_fun.c",264,4
    1602 000002bb 6F08          B         L22,UNC               ; |264| 
    1603                      ; branch occurs ; |264| 
    1604              DW$L$_app_ERRmod_Icorrect$12$E:
    1605              L21:    
    1606              DW$L$_app_ERRmod_Icorrect$13$B:
    1607                      .dwpsn  "app_ERRmod_fun.c",267,5
    1608 000002bc 761F!         MOVW      DP,#_m_correct_win
TMS320C2000 COFF Assembler PC v4.1.3 Wed Jan 12 08:34:31 2011

Tools Copyright (c) 1996-2006 Texas Instruments Incorporated
C:\DOCUME~1\ADMINI~1\LOCALS~1\Temp\TI1043                            PAGE   34

         000002bd 0000 
    1609 000002be 8A00!         MOVL      XAR4,@_m_correct_win  ; |267| 
    1610 000002bf 8F40+         MOVL      XAR5,#FSL5            ; |267| 
         000002c0 004E 
    1611 000002c1 7640!         LCR       #_GUI_3D_window_title_mod ; |267| 
         000002c2 0000 
    1612                      ; call occurs [#_GUI_3D_window_title_mod] ; |267| 
    1613              DW$L$_app_ERRmod_Icorrect$13$E:
    1614              L22:    
    1615              DW$L$_app_ERRmod_Icorrect$14$B:
    1616                      .dwpsn  "app_ERRmod_fun.c",269,4
    1617 000002c3 9A64          MOVB      AL,#100               ; |269| 
    1618 000002c4 7640!         LCR       #_OSTimeDly           ; |269| 
         000002c5 0000 
    1619                      ; call occurs [#_OSTimeDly] ; |269| 
    1620                      .dwpsn  "app_ERRmod_fun.c",270,4
    1621 000002c6 761F!         MOVW      DP,#_m_correct_edit
         000002c7 0000 
    1622 000002c8 8A00!         MOVL      XAR4,@_m_correct_edit ; |270| 
    1623 000002c9 7640!         LCR       #_GUI_window_hwin_req ; |270| 
         000002ca 0000 
    1624                      ; call occurs [#_GUI_window_hwin_req] ; |270| 
    1625                      .dwpsn  "app_ERRmod_fun.c",271,10
    1626 000002cb 9A01          MOVB      AL,#1                 ; |271| 
    1627 000002cc 9644          MOV       *-SP[4],AL            ; |271| 
    1628                      .dwpsn  "app_ERRmod_fun.c",271,20
    1629 000002cd 5207          CMPB      AL,#7                 ; |271| 
    1630 000002ce 6609          B         L24,HI                ; |271| 
    1631                      ; branchcc occurs ; |271| 
    1632              DW$L$_app_ERRmod_Icorrect$14$E:
    1633              L23:    
    1634              DW$L$_app_ERRmod_Icorrect$15$B:
    1635                      .dwpsn  "app_ERRmod_fun.c",273,5
    1636 000002cf 7640!         LCR       #_GUI_edit_select     ; |273| 
         000002d0 0000 
    1637                      ; call occurs [#_GUI_edit_select] ; |273| 
    1638                      .dwpsn  "app_ERRmod_fun.c",274,5
    1639 000002d1 7640!         LCR       #_GUI_edit_clean      ; |274| 
         000002d2 0000 
    1640                      ; call occurs [#_GUI_edit_clean] ; |274| 
    1641                      .dwpsn  "app_ERRmod_fun.c",271,31
    1642 000002d3 0A44          INC       *-SP[4]               ; |271| 
    1643                      .dwpsn  "app_ERRmod_fun.c",271,20
    1644 000002d4 9244          MOV       AL,*-SP[4]            ; |271| 
    1645 000002d5 5207          CMPB      AL,#7                 ; |271| 
    1646 000002d6 69F9          B         L23,LOS               ; |271| 
    1647                      ; branchcc occurs ; |271| 
    1648              DW$L$_app_ERRmod_Icorrect$15$E:
    1649              L24:    
    1650              DW$L$_app_ERRmod_Icorrect$16$B:
    1651                      .dwpsn  "app_ERRmod_fun.c",276,4
    1652 000002d7 761F!         MOVW      DP,#_m_correct_edit
         000002d8 0000 
    1653 000002d9 8A00!         MOVL      XAR4,@_m_correct_edit ; |276| 
    1654 000002da 7640!         LCR       #_GUI_window_hwin_release ; |276| 
TMS320C2000 COFF Assembler PC v4.1.3 Wed Jan 12 08:34:31 2011

Tools Copyright (c) 1996-2006 Texas Instruments Incorporated
C:\DOCUME~1\ADMINI~1\LOCALS~1\Temp\TI1043                            PAGE   35

         000002db 0000 
    1655                      ; call occurs [#_GUI_window_hwin_release] ; |276| 
    1656                      .dwpsn  "app_ERRmod_fun.c",277,4
    1657 000002dc 761F!         MOVW      DP,#_m_correct_win
         000002dd 0000 
    1658 000002de 8A00!         MOVL      XAR4,@_m_correct_win  ; |277| 
    1659 000002df 8F40+         MOVL      XAR5,#FSL7            ; |277| 
         000002e0 0068 
    1660 000002e1 7640!         LCR       #_GUI_3D_window_title_mod ; |277| 
         000002e2 0000 
    1661                      ; call occurs [#_GUI_3D_window_title_mod] ; |277| 
    1662                      .dwpsn  "app_ERRmod_fun.c",278,4
    1663 000002e3 FFEF          B         L18,UNC               ; |278| 
         000002e4 FF02 
    1664                      ; branch occurs ; |278| 
    1665              DW$L$_app_ERRmod_Icorrect$16$E:
    1666              L25:    
    1667              DW$L$_app_ERRmod_Icorrect$18$B:
    1668                      .dwpsn  "app_ERRmod_fun.c",280,8
    1669 000002e5 521B          CMPB      AL,#27                ; |280| 
    1670 000002e6 EC07          BF        L26,EQ                ; |280| 
    1671                      ; branchcc occurs ; |280| 
    1672 000002e7       DW$L$_app_ERRmod_Icorrect$18$E:
    1673 000002e7       DW$L$_app_ERRmod_Icorrect$19$B:
    1674 000002e7 521C          CMPB      AL,#28                ; |280| 
    1675 000002e8 EC05          BF        L26,EQ                ; |280| 
    1676                      ; branchcc occurs ; |280| 
    1677 000002e9       DW$L$_app_ERRmod_Icorrect$19$E:
    1678 000002e9       DW$L$_app_ERRmod_Icorrect$20$B:
    1679 000002e9 520A          CMPB      AL,#10                ; |280| 
    1680 000002ea 56C0          BF        L18,NEQ               ; |280| 
         000002eb FEFB 
    1681                      ; branchcc occurs ; |280| 
    1682 000002ec       DW$L$_app_ERRmod_Icorrect$20$E:
    1683 000002ec 6F01          B         L26,UNC               ; |280| 
    1684                      ; branch occurs ; |280| 
    1685              L26:    
    1686                      .dwpsn  "app_ERRmod_fun.c",287,2
    1687              L27:    
    1688                      .dwpsn  "app_ERRmod_fun.c",288,1
    1689 000002ed FE86          SUBB      SP,#6                 ; |287| 
    1690                      .dwcfa  0x1d, -2
    1691 000002ee 0006          LRETR
    1692                      ; return occurs
    1693              
    1694              DW$145  .dwtag  DW_TAG_loop
    1695                      .dwattr DW$145, DW_AT_name("C:\DOCUME~1\ADMINI~1\LOCALS~1\Temp\TI1043:L18:1:1294792471")
    1696                      .dwattr DW$145, DW_AT_begin_file("app_ERRmod_fun.c")
    1697                      .dwattr DW$145, DW_AT_begin_line(0xd8)
    1698                      .dwattr DW$145, DW_AT_end_line(0x11e)
    1699              DW$146  .dwtag  DW_TAG_loop_range
    1700                      .dwattr DW$146, DW_AT_low_pc(DW$L$_app_ERRmod_Icorrect$2$B)
    1701                      .dwattr DW$146, DW_AT_high_pc(DW$L$_app_ERRmod_Icorrect$2$E)
    1702              DW$147  .dwtag  DW_TAG_loop_range
    1703                      .dwattr DW$147, DW_AT_low_pc(DW$L$_app_ERRmod_Icorrect$18$B)
TMS320C2000 COFF Assembler PC v4.1.3 Wed Jan 12 08:34:31 2011

Tools Copyright (c) 1996-2006 Texas Instruments Incorporated
C:\DOCUME~1\ADMINI~1\LOCALS~1\Temp\TI1043                            PAGE   36

    1704                      .dwattr DW$147, DW_AT_high_pc(DW$L$_app_ERRmod_Icorrect$18$E)
    1705              DW$148  .dwtag  DW_TAG_loop_range
    1706                      .dwattr DW$148, DW_AT_low_pc(DW$L$_app_ERRmod_Icorrect$19$B)
    1707                      .dwattr DW$148, DW_AT_high_pc(DW$L$_app_ERRmod_Icorrect$19$E)
    1708              DW$149  .dwtag  DW_TAG_loop_range
    1709                      .dwattr DW$149, DW_AT_low_pc(DW$L$_app_ERRmod_Icorrect$3$B)
    1710                      .dwattr DW$149, DW_AT_high_pc(DW$L$_app_ERRmod_Icorrect$3$E)
    1711              DW$150  .dwtag  DW_TAG_loop_range
    1712                      .dwattr DW$150, DW_AT_low_pc(DW$L$_app_ERRmod_Icorrect$4$B)
    1713                      .dwattr DW$150, DW_AT_high_pc(DW$L$_app_ERRmod_Icorrect$4$E)
    1714              DW$151  .dwtag  DW_TAG_loop_range
    1715                      .dwattr DW$151, DW_AT_low_pc(DW$L$_app_ERRmod_Icorrect$5$B)
    1716                      .dwattr DW$151, DW_AT_high_pc(DW$L$_app_ERRmod_Icorrect$5$E)
    1717              DW$152  .dwtag  DW_TAG_loop_range
    1718                      .dwattr DW$152, DW_AT_low_pc(DW$L$_app_ERRmod_Icorrect$10$B)
    1719                      .dwattr DW$152, DW_AT_high_pc(DW$L$_app_ERRmod_Icorrect$10$E)
    1720              DW$153  .dwtag  DW_TAG_loop_range
    1721                      .dwattr DW$153, DW_AT_low_pc(DW$L$_app_ERRmod_Icorrect$11$B)
    1722                      .dwattr DW$153, DW_AT_high_pc(DW$L$_app_ERRmod_Icorrect$11$E)
    1723              DW$154  .dwtag  DW_TAG_loop_range
    1724                      .dwattr DW$154, DW_AT_low_pc(DW$L$_app_ERRmod_Icorrect$12$B)
    1725                      .dwattr DW$154, DW_AT_high_pc(DW$L$_app_ERRmod_Icorrect$12$E)
    1726              DW$155  .dwtag  DW_TAG_loop_range
    1727                      .dwattr DW$155, DW_AT_low_pc(DW$L$_app_ERRmod_Icorrect$13$B)
    1728                      .dwattr DW$155, DW_AT_high_pc(DW$L$_app_ERRmod_Icorrect$13$E)
    1729              DW$156  .dwtag  DW_TAG_loop_range
    1730                      .dwattr DW$156, DW_AT_low_pc(DW$L$_app_ERRmod_Icorrect$14$B)
    1731                      .dwattr DW$156, DW_AT_high_pc(DW$L$_app_ERRmod_Icorrect$14$E)
    1732              DW$157  .dwtag  DW_TAG_loop_range
    1733                      .dwattr DW$157, DW_AT_low_pc(DW$L$_app_ERRmod_Icorrect$20$B)
    1734                      .dwattr DW$157, DW_AT_high_pc(DW$L$_app_ERRmod_Icorrect$20$E)
    1735              DW$158  .dwtag  DW_TAG_loop_range
    1736                      .dwattr DW$158, DW_AT_low_pc(DW$L$_app_ERRmod_Icorrect$16$B)
    1737                      .dwattr DW$158, DW_AT_high_pc(DW$L$_app_ERRmod_Icorrect$16$E)
    1738              
    1739              DW$159  .dwtag  DW_TAG_loop
    1740                      .dwattr DW$159, DW_AT_name("C:\DOCUME~1\ADMINI~1\LOCALS~1\Temp\TI1043:L20:2:1294792471")
    1741                      .dwattr DW$159, DW_AT_begin_file("app_ERRmod_fun.c")
    1742                      .dwattr DW$159, DW_AT_begin_line(0xec)
    1743                      .dwattr DW$159, DW_AT_end_line(0xf1)
    1744              DW$160  .dwtag  DW_TAG_loop_range
    1745                      .dwattr DW$160, DW_AT_low_pc(DW$L$_app_ERRmod_Icorrect$9$B)
    1746                      .dwattr DW$160, DW_AT_high_pc(DW$L$_app_ERRmod_Icorrect$9$E)
    1747              DW$161  .dwtag  DW_TAG_loop_range
    1748                      .dwattr DW$161, DW_AT_low_pc(DW$L$_app_ERRmod_Icorrect$7$B)
    1749                      .dwattr DW$161, DW_AT_high_pc(DW$L$_app_ERRmod_Icorrect$7$E)
    1750              DW$162  .dwtag  DW_TAG_loop_range
    1751                      .dwattr DW$162, DW_AT_low_pc(DW$L$_app_ERRmod_Icorrect$8$B)
    1752                      .dwattr DW$162, DW_AT_high_pc(DW$L$_app_ERRmod_Icorrect$8$E)
    1753              DW$163  .dwtag  DW_TAG_loop_range
    1754                      .dwattr DW$163, DW_AT_low_pc(DW$L$_app_ERRmod_Icorrect$6$B)
    1755                      .dwattr DW$163, DW_AT_high_pc(DW$L$_app_ERRmod_Icorrect$6$E)
    1756                      .dwendtag DW$159
    1757              
    1758              
TMS320C2000 COFF Assembler PC v4.1.3 Wed Jan 12 08:34:31 2011

Tools Copyright (c) 1996-2006 Texas Instruments Incorporated
C:\DOCUME~1\ADMINI~1\LOCALS~1\Temp\TI1043                            PAGE   37

    1759              DW$164  .dwtag  DW_TAG_loop
    1760                      .dwattr DW$164, DW_AT_name("C:\DOCUME~1\ADMINI~1\LOCALS~1\Temp\TI1043:L23:2:1294792471")
    1761                      .dwattr DW$164, DW_AT_begin_file("app_ERRmod_fun.c")
    1762                      .dwattr DW$164, DW_AT_begin_line(0x10f)
    1763                      .dwattr DW$164, DW_AT_end_line(0x113)
    1764              DW$165  .dwtag  DW_TAG_loop_range
    1765                      .dwattr DW$165, DW_AT_low_pc(DW$L$_app_ERRmod_Icorrect$15$B)
    1766                      .dwattr DW$165, DW_AT_high_pc(DW$L$_app_ERRmod_Icorrect$15$E)
    1767                      .dwendtag DW$164
    1768              
    1769                      .dwendtag DW$145
    1770              
    1771                      .dwattr DW$138, DW_AT_end_file("app_ERRmod_fun.c")
    1772                      .dwattr DW$138, DW_AT_end_line(0x120)
    1773                      .dwattr DW$138, DW_AT_end_column(0x01)
    1774                      .dwendentry
    1775                      .dwendtag DW$138
    1776              
    1777 000002ef               .sect   ".text"
    1778                      .global _app_ERRmod_Pcorrect
    1779              
    1780              DW$166  .dwtag  DW_TAG_subprogram, DW_AT_name("app_ERRmod_Pcorrect"), DW_AT_symbol_name("_app_ERRmod_Pcorrect
    1781                      .dwattr DW$166, DW_AT_low_pc(_app_ERRmod_Pcorrect)
    1782                      .dwattr DW$166, DW_AT_high_pc(0x00)
    1783                      .dwattr DW$166, DW_AT_begin_file("app_ERRmod_fun.c")
    1784                      .dwattr DW$166, DW_AT_begin_line(0x129)
    1785                      .dwattr DW$166, DW_AT_begin_column(0x09)
    1786                      .dwpsn  "app_ERRmod_fun.c",298,1
    1787              
    1788                      .dwfde DW$CIE
    1789              
    1790              ;***************************************************************
    1791              ;* FNAME: _app_ERRmod_Pcorrect          FR SIZE:   4           *
    1792              ;*                                                             *
    1793              ;* FUNCTION ENVIRONMENT                                        *
    1794              ;*                                                             *
    1795              ;* FUNCTION PROPERTIES                                         *
    1796              ;*                            0 Parameter,  3 Auto,  0 SOE     *
    1797              ;***************************************************************
    1798              
    1799              _app_ERRmod_Pcorrect:
    1800                      .dwcfa  0x1d, -2
    1801                      .dwcfa  0x1c, 26, 0
    1802                      .dwcfa  0x09, 40, 26
    1803 000002ef FE04          ADDB      SP,#4
    1804                      .dwcfa  0x1d, -6
    1805              ;* AR4   assigned to _arg
    1806              DW$167  .dwtag  DW_TAG_formal_parameter, DW_AT_name("arg"), DW_AT_symbol_name("_arg")
    1807                      .dwattr DW$167, DW_AT_type(*DW$T$3)
    1808                      .dwattr DW$167, DW_AT_location[DW_OP_reg12]
    1809              DW$168  .dwtag  DW_TAG_variable, DW_AT_name("arg"), DW_AT_symbol_name("_arg")
    1810                      .dwattr DW$168, DW_AT_type(*DW$T$3)
    1811                      .dwattr DW$168, DW_AT_location[DW_OP_breg20 -2]
    1812              DW$169  .dwtag  DW_TAG_variable, DW_AT_name("value"), DW_AT_symbol_name("_value")
    1813                      .dwattr DW$169, DW_AT_type(*DW$T$6)
TMS320C2000 COFF Assembler PC v4.1.3 Wed Jan 12 08:34:31 2011

Tools Copyright (c) 1996-2006 Texas Instruments Incorporated
C:\DOCUME~1\ADMINI~1\LOCALS~1\Temp\TI1043                            PAGE   38

    1814                      .dwattr DW$169, DW_AT_location[DW_OP_breg20 -3]
    1815 000002f0 A842          MOVL      *-SP[2],XAR4          ; |298| 
    1816                      .dwpsn  "app_ERRmod_fun.c",300,2
    1817 000002f1 5CAD          MOVZ      AR4,SP                ; |300| 
    1818 000002f2 DC83          SUBB      XAR4,#3               ; |300| 
    1819 000002f3 7640'         LCR       #_app_ERRmod_correct_prepare ; |300| 
         000002f4 00CC 
    1820                      ; call occurs [#_app_ERRmod_correct_prepare] ; |300| 
    1821                      .dwpsn  "app_ERRmod_fun.c",305,2
    1822 000002f5 9243          MOV       AL,*-SP[3]            ; |305| 
    1823                      .dwpsn  "app_ERRmod_fun.c",306,1
    1824 000002f6 FE84          SUBB      SP,#4                 ; |305| 
    1825                      .dwcfa  0x1d, -2
    1826 000002f7 0006          LRETR
    1827                      ; return occurs
    1828                      .dwattr DW$166, DW_AT_end_file("app_ERRmod_fun.c")
    1829                      .dwattr DW$166, DW_AT_end_line(0x132)
    1830                      .dwattr DW$166, DW_AT_end_column(0x01)
    1831                      .dwendentry
    1832                      .dwendtag DW$166
    1833              
    1834 000002f8               .sect   ".text"
    1835                      .global _app_ERRmod_Jcorrect
    1836              
    1837              DW$170  .dwtag  DW_TAG_subprogram, DW_AT_name("app_ERRmod_Jcorrect"), DW_AT_symbol_name("_app_ERRmod_Jcorrect
    1838                      .dwattr DW$170, DW_AT_low_pc(_app_ERRmod_Jcorrect)
    1839                      .dwattr DW$170, DW_AT_high_pc(0x00)
    1840                      .dwattr DW$170, DW_AT_begin_file("app_ERRmod_fun.c")
    1841                      .dwattr DW$170, DW_AT_begin_line(0x13b)
    1842                      .dwattr DW$170, DW_AT_begin_column(0x0a)
    1843                      .dwpsn  "app_ERRmod_fun.c",316,1
    1844              
    1845                      .dwfde DW$CIE
    1846              
    1847              ;***************************************************************
    1848              ;* FNAME: _app_ERRmod_Jcorrect          FR SIZE:   4           *
    1849              ;*                                                             *
    1850              ;* FUNCTION ENVIRONMENT                                        *
    1851              ;*                                                             *
    1852              ;* FUNCTION PROPERTIES                                         *
    1853              ;*                            0 Parameter,  3 Auto,  0 SOE     *
    1854              ;***************************************************************
    1855              
    1856              _app_ERRmod_Jcorrect:
    1857                      .dwcfa  0x1d, -2
    1858                      .dwcfa  0x1c, 26, 0
    1859                      .dwcfa  0x09, 40, 26
    1860 000002f8 FE04          ADDB      SP,#4
    1861                      .dwcfa  0x1d, -6
    1862              ;* AR4   assigned to _arg
    1863              DW$171  .dwtag  DW_TAG_formal_parameter, DW_AT_name("arg"), DW_AT_symbol_name("_arg")
    1864                      .dwattr DW$171, DW_AT_type(*DW$T$3)
    1865                      .dwattr DW$171, DW_AT_location[DW_OP_reg12]
    1866              DW$172  .dwtag  DW_TAG_variable, DW_AT_name("arg"), DW_AT_symbol_name("_arg")
    1867                      .dwattr DW$172, DW_AT_type(*DW$T$3)
TMS320C2000 COFF Assembler PC v4.1.3 Wed Jan 12 08:34:31 2011

Tools Copyright (c) 1996-2006 Texas Instruments Incorporated
C:\DOCUME~1\ADMINI~1\LOCALS~1\Temp\TI1043                            PAGE   39

    1868                      .dwattr DW$172, DW_AT_location[DW_OP_breg20 -2]
    1869              DW$173  .dwtag  DW_TAG_variable, DW_AT_name("value"), DW_AT_symbol_name("_value")
    1870                      .dwattr DW$173, DW_AT_type(*DW$T$6)
    1871                      .dwattr DW$173, DW_AT_location[DW_OP_breg20 -3]
    1872 000002f9 A842          MOVL      *-SP[2],XAR4          ; |316| 
    1873                      .dwpsn  "app_ERRmod_fun.c",318,2
    1874 000002fa 5CAD          MOVZ      AR4,SP                ; |318| 
    1875 000002fb DC83          SUBB      XAR4,#3               ; |318| 
    1876 000002fc 7640'         LCR       #_app_ERRmod_correct_prepare ; |318| 
         000002fd 00CC 
    1877                      ; call occurs [#_app_ERRmod_correct_prepare] ; |318| 
    1878                      .dwpsn  "app_ERRmod_fun.c",323,2
    1879 000002fe 9243          MOV       AL,*-SP[3]            ; |323| 
    1880                      .dwpsn  "app_ERRmod_fun.c",324,1
    1881 000002ff FE84          SUBB      SP,#4                 ; |323| 
    1882                      .dwcfa  0x1d, -2
    1883 00000300 0006          LRETR
    1884                      ; return occurs
    1885                      .dwattr DW$170, DW_AT_end_file("app_ERRmod_fun.c")
    1886                      .dwattr DW$170, DW_AT_end_line(0x144)
    1887                      .dwattr DW$170, DW_AT_end_column(0x01)
    1888                      .dwendentry
    1889                      .dwendtag DW$170
    1890              
    1891 00000301               .sect   ".text"
    1892                      .global _app_ERRMOD_select_correct_branch
    1893              
    1894              DW$174  .dwtag  DW_TAG_subprogram, DW_AT_name("app_ERRMOD_select_correct_branch"), DW_AT_symbol_name("_app_ER
    1895                      .dwattr DW$174, DW_AT_low_pc(_app_ERRMOD_select_correct_branch)
    1896                      .dwattr DW$174, DW_AT_high_pc(0x00)
    1897                      .dwattr DW$174, DW_AT_begin_file("app_ERRmod_fun.c")
    1898                      .dwattr DW$174, DW_AT_begin_line(0x155)
    1899                      .dwattr DW$174, DW_AT_begin_column(0x06)
    1900                      .dwpsn  "app_ERRmod_fun.c",342,1
    1901              
    1902                      .dwfde DW$CIE
    1903              
    1904              ;***************************************************************
    1905              ;* FNAME: _app_ERRMOD_select_correct_branch FR SIZE:   2           *
    1906              ;*                                                             *
    1907              ;* FUNCTION ENVIRONMENT                                        *
    1908              ;*                                                             *
    1909              ;* FUNCTION PROPERTIES                                         *
    1910              ;*                            0 Parameter,  1 Auto,  0 SOE     *
    1911              ;***************************************************************
    1912              
    1913              _app_ERRMOD_select_correct_branch:
    1914                      .dwcfa  0x1d, -2
    1915                      .dwcfa  0x1c, 26, 0
    1916                      .dwcfa  0x09, 40, 26
    1917 00000301 FE02          ADDB      SP,#2
    1918                      .dwcfa  0x1d, -4
    1919              DW$175  .dwtag  DW_TAG_variable, DW_AT_name("value"), DW_AT_symbol_name("_value")
    1920                      .dwattr DW$175, DW_AT_type(*DW$T$6)
    1921                      .dwattr DW$175, DW_AT_location[DW_OP_breg20 -1]
TMS320C2000 COFF Assembler PC v4.1.3 Wed Jan 12 08:34:31 2011

Tools Copyright (c) 1996-2006 Texas Instruments Incorporated
C:\DOCUME~1\ADMINI~1\LOCALS~1\Temp\TI1043                            PAGE   40

    1922                      .dwpsn  "app_ERRmod_fun.c",344,10
    1923              L28:    
    1924              DW$L$_app_ERRMOD_select_correct_branch$2$B:
    1925                      .dwpsn  "app_ERRmod_fun.c",346,3
    1926 00000302 761F-         MOVW      DP,#_m_ERRmod_setp
         00000303 0000 
    1927 00000304 9202-         MOV       AL,@_m_ERRmod_setp    ; |346| 
    1928 00000305 7640!         LCR       #_app_ERRmod_correct_window_entery ; |346| 
         00000306 0000 
    1929                      ; call occurs [#_app_ERRmod_correct_window_entery] ; |346| 
    1930                      .dwpsn  "app_ERRmod_fun.c",347,3
    1931 00000307 9A1D          MOVB      AL,#29                ; |347| 
    1932 00000308 7640!         LCR       #_app_global_key_dummy_press ; |347| 
         00000309 0000 
    1933                      ; call occurs [#_app_global_key_dummy_press] ; |347| 
    1934                      .dwpsn  "app_ERRmod_fun.c",348,3
    1935 0000030a 761F-         MOVW      DP,#_m_ERRmod_setp
         0000030b 0000 
    1936 0000030c 0E02-         MOVU      ACC,@_m_ERRmod_setp
    1937 0000030d 8F00+         MOVL      XAR4,#_coorect_handle_map ; |348| 
         0000030e 0000 
    1938 0000030f FF30          LSL       ACC,1                 ; |348| 
    1939 00000310 5601          ADDL      XAR4,ACC
         00000311 00A4 
    1940 00000312 C5C4          MOVL      XAR7,*+XAR4[0]        ; |348| 
    1941 00000313 D400          MOVB      XAR4,#0
    1942 00000314 3E67          LCR       *XAR7                 ; |348| 
    1943                      ; call occurs [XAR7] ; |348| 
    1944 00000315 9641          MOV       *-SP[1],AL            ; |348| 
    1945                      .dwpsn  "app_ERRmod_fun.c",349,3
    1946 00000316 761F-         MOVW      DP,#_m_ERRmod_setp
         00000317 0000 
    1947 00000318 9202-         MOV       AL,@_m_ERRmod_setp    ; |349| 
    1948 00000319 7640!         LCR       #_app_ERRmod_correct_window_exit ; |349| 
         0000031a 0000 
    1949                      ; call occurs [#_app_ERRmod_correct_window_exit] ; |349| 
    1950                      .dwpsn  "app_ERRmod_fun.c",350,3
    1951 0000031b 9241          MOV       AL,*-SP[1]            ; |350| 
    1952 0000031c 521C          CMPB      AL,#28                ; |350| 
    1953 0000031d ED0B          BF        L30,NEQ               ; |350| 
    1954                      ; branchcc occurs ; |350| 
    1955              DW$L$_app_ERRMOD_select_correct_branch$2$E:
    1956              DW$L$_app_ERRMOD_select_correct_branch$3$B:
    1957                      .dwpsn  "app_ERRmod_fun.c",352,4
    1958 0000031e 761F-         MOVW      DP,#_m_ERRmod_setp
         0000031f 0000 
    1959 00000320 9202-         MOV       AL,@_m_ERRmod_setp    ; |352| 
    1960 00000321 5203          CMPB      AL,#3                 ; |352| 
    1961 00000322 6703          B         L29,HIS               ; |352| 
    1962                      ; branchcc occurs ; |352| 
    1963 00000323       DW$L$_app_ERRMOD_select_correct_branch$3$E:
    1964 00000323       DW$L$_app_ERRMOD_select_correct_branch$4$B:
    1965 00000323 0A02-         INC       @_m_ERRmod_setp       ; |352| 
    1966 00000324 6FDE          B         L28,UNC               ; |352| 
    1967                      ; branch occurs ; |352| 
TMS320C2000 COFF Assembler PC v4.1.3 Wed Jan 12 08:34:31 2011

Tools Copyright (c) 1996-2006 Texas Instruments Incorporated
C:\DOCUME~1\ADMINI~1\LOCALS~1\Temp\TI1043                            PAGE   41

    1968 00000325       DW$L$_app_ERRMOD_select_correct_branch$4$E:
    1969 00000325       L29:    
    1970 00000325       DW$L$_app_ERRMOD_select_correct_branch$5$B:
    1971 00000325 2802-         MOV       @_m_ERRmod_setp,#3    ; |352| 
         00000326 0003 
    1972                      .dwpsn  "app_ERRmod_fun.c",355,3
    1973 00000327 6FDB          B         L28,UNC               ; |355| 
    1974                      ; branch occurs ; |355| 
    1975              DW$L$_app_ERRMOD_select_correct_branch$5$E:
    1976              L30:    
    1977              DW$L$_app_ERRMOD_select_correct_branch$6$B:
    1978                      .dwpsn  "app_ERRmod_fun.c",356,8
    1979 00000328 520A          CMPB      AL,#10                ; |356| 
    1980 00000329 ED09          BF        L32,NEQ               ; |356| 
    1981                      ; branchcc occurs ; |356| 
    1982              DW$L$_app_ERRMOD_select_correct_branch$6$E:
    1983              DW$L$_app_ERRMOD_select_correct_branch$7$B:
    1984                      .dwpsn  "app_ERRmod_fun.c",358,4
    1985 0000032a 761F-         MOVW      DP,#_m_ERRmod_setp
         0000032b 0000 
    1986 0000032c 9202-         MOV       AL,@_m_ERRmod_setp    ; |358| 
    1987 0000032d EC03          BF        L31,EQ                ; |358| 
    1988                      ; branchcc occurs ; |358| 
    1989 0000032e       DW$L$_app_ERRMOD_select_correct_branch$7$E:
    1990 0000032e       DW$L$_app_ERRMOD_select_correct_branch$8$B:
    1991 0000032e 0B02-         DEC       @_m_ERRmod_setp       ; |358| 
    1992 0000032f 6FD3          B         L28,UNC               ; |358| 
    1993                      ; branch occurs ; |358| 
    1994 00000330       DW$L$_app_ERRMOD_select_correct_branch$8$E:
    1995 00000330       L31:    
    1996 00000330       DW$L$_app_ERRMOD_select_correct_branch$9$B:
    1997 00000330 2B02-         MOV       @_m_ERRmod_setp,#0    ; |358| 
    1998                      .dwpsn  "app_ERRmod_fun.c",361,3
    1999 00000331 6FD1          B         L28,UNC               ; |361| 
    2000                      ; branch occurs ; |361| 
    2001              DW$L$_app_ERRMOD_select_correct_branch$9$E:
    2002              L32:    
    2003              DW$L$_app_ERRMOD_select_correct_branch$10$B:
    2004                      .dwpsn  "app_ERRmod_fun.c",362,8
    2005 00000332 521B          CMPB      AL,#27                ; |362| 
    2006 00000333 EC02          BF        L33,EQ                ; |362| 
    2007                      ; branchcc occurs ; |362| 
    2008              DW$L$_app_ERRMOD_select_correct_branch$10$E:
    2009              DW$L$_app_ERRMOD_select_correct_branch$11$B:
    2010                      .dwpsn  "app_ERRmod_fun.c",364,4
    2011                      .dwpsn  "app_ERRmod_fun.c",344,10
    2012 00000334 6FCE          B         L28,UNC               ; |344| 
    2013                      ; branch occurs ; |344| 
    2014              DW$L$_app_ERRMOD_select_correct_branch$11$E:
    2015              L33:    
    2016                      .dwpsn  "app_ERRmod_fun.c",368,1
    2017 00000335 FE82          SUBB      SP,#2
    2018                      .dwcfa  0x1d, -2
    2019 00000336 0006          LRETR
    2020                      ; return occurs
TMS320C2000 COFF Assembler PC v4.1.3 Wed Jan 12 08:34:31 2011

Tools Copyright (c) 1996-2006 Texas Instruments Incorporated
C:\DOCUME~1\ADMINI~1\LOCALS~1\Temp\TI1043                            PAGE   42

    2021              
    2022              DW$176  .dwtag  DW_TAG_loop
    2023                      .dwattr DW$176, DW_AT_name("C:\DOCUME~1\ADMINI~1\LOCALS~1\Temp\TI1043:L28:1:1294792471")
    2024                      .dwattr DW$176, DW_AT_begin_file("app_ERRmod_fun.c")
    2025                      .dwattr DW$176, DW_AT_begin_line(0x158)
    2026                      .dwattr DW$176, DW_AT_end_line(0x16e)
    2027              DW$177  .dwtag  DW_TAG_loop_range
    2028                      .dwattr DW$177, DW_AT_low_pc(DW$L$_app_ERRMOD_select_correct_branch$2$B)
    2029                      .dwattr DW$177, DW_AT_high_pc(DW$L$_app_ERRMOD_select_correct_branch$2$E)
    2030              DW$178  .dwtag  DW_TAG_loop_range
    2031                      .dwattr DW$178, DW_AT_low_pc(DW$L$_app_ERRMOD_select_correct_branch$10$B)
    2032                      .dwattr DW$178, DW_AT_high_pc(DW$L$_app_ERRMOD_select_correct_branch$10$E)
    2033              DW$179  .dwtag  DW_TAG_loop_range
    2034                      .dwattr DW$179, DW_AT_low_pc(DW$L$_app_ERRMOD_select_correct_branch$6$B)
    2035                      .dwattr DW$179, DW_AT_high_pc(DW$L$_app_ERRMOD_select_correct_branch$6$E)
    2036              DW$180  .dwtag  DW_TAG_loop_range
    2037                      .dwattr DW$180, DW_AT_low_pc(DW$L$_app_ERRMOD_select_correct_branch$7$B)
    2038                      .dwattr DW$180, DW_AT_high_pc(DW$L$_app_ERRMOD_select_correct_branch$7$E)
    2039              DW$181  .dwtag  DW_TAG_loop_range
    2040                      .dwattr DW$181, DW_AT_low_pc(DW$L$_app_ERRMOD_select_correct_branch$3$B)
    2041                      .dwattr DW$181, DW_AT_high_pc(DW$L$_app_ERRMOD_select_correct_branch$3$E)
    2042              DW$182  .dwtag  DW_TAG_loop_range
    2043                      .dwattr DW$182, DW_AT_low_pc(DW$L$_app_ERRMOD_select_correct_branch$11$B)
    2044                      .dwattr DW$182, DW_AT_high_pc(DW$L$_app_ERRMOD_select_correct_branch$11$E)
    2045              DW$183  .dwtag  DW_TAG_loop_range
    2046                      .dwattr DW$183, DW_AT_low_pc(DW$L$_app_ERRMOD_select_correct_branch$9$B)
    2047                      .dwattr DW$183, DW_AT_high_pc(DW$L$_app_ERRMOD_select_correct_branch$9$E)
    2048              DW$184  .dwtag  DW_TAG_loop_range
    2049                      .dwattr DW$184, DW_AT_low_pc(DW$L$_app_ERRMOD_select_correct_branch$8$B)
    2050                      .dwattr DW$184, DW_AT_high_pc(DW$L$_app_ERRMOD_select_correct_branch$8$E)
    2051              DW$185  .dwtag  DW_TAG_loop_range
    2052                      .dwattr DW$185, DW_AT_low_pc(DW$L$_app_ERRMOD_select_correct_branch$5$B)
    2053                      .dwattr DW$185, DW_AT_high_pc(DW$L$_app_ERRMOD_select_correct_branch$5$E)
    2054              DW$186  .dwtag  DW_TAG_loop_range
    2055                      .dwattr DW$186, DW_AT_low_pc(DW$L$_app_ERRMOD_select_correct_branch$4$B)
    2056                      .dwattr DW$186, DW_AT_high_pc(DW$L$_app_ERRMOD_select_correct_branch$4$E)
    2057                      .dwendtag DW$176
    2058              
    2059                      .dwattr DW$174, DW_AT_end_file("app_ERRmod_fun.c")
    2060                      .dwattr DW$174, DW_AT_end_line(0x170)
    2061                      .dwattr DW$174, DW_AT_end_column(0x01)
    2062                      .dwendentry
    2063                      .dwendtag DW$174
    2064              
    2065 00000337               .sect   ".text"
    2066                      .global _app_ERRmod_main_task
    2067              
    2068              DW$187  .dwtag  DW_TAG_subprogram, DW_AT_name("app_ERRmod_main_task"), DW_AT_symbol_name("_app_ERRmod_main_ta
    2069                      .dwattr DW$187, DW_AT_low_pc(_app_ERRmod_main_task)
    2070                      .dwattr DW$187, DW_AT_high_pc(0x00)
    2071                      .dwattr DW$187, DW_AT_begin_file("app_ERRmod_fun.c")
    2072                      .dwattr DW$187, DW_AT_begin_line(0x179)
    2073                      .dwattr DW$187, DW_AT_begin_column(0x06)
    2074                      .dwpsn  "app_ERRmod_fun.c",378,1
    2075              
TMS320C2000 COFF Assembler PC v4.1.3 Wed Jan 12 08:34:31 2011

Tools Copyright (c) 1996-2006 Texas Instruments Incorporated
C:\DOCUME~1\ADMINI~1\LOCALS~1\Temp\TI1043                            PAGE   43

    2076                      .dwfde DW$CIE
    2077              
    2078              ;***************************************************************
    2079              ;* FNAME: _app_ERRmod_main_task         FR SIZE:   4           *
    2080              ;*                                                             *
    2081              ;* FUNCTION ENVIRONMENT                                        *
    2082              ;*                                                             *
    2083              ;* FUNCTION PROPERTIES                                         *
    2084              ;*                            0 Parameter,  3 Auto,  0 SOE     *
    2085              ;***************************************************************
    2086              
    2087              _app_ERRmod_main_task:
    2088                      .dwcfa  0x1d, -2
    2089                      .dwcfa  0x1c, 26, 0
    2090                      .dwcfa  0x09, 40, 26
    2091 00000337 FE04          ADDB      SP,#4
    2092                      .dwcfa  0x1d, -6
    2093              ;* AR4   assigned to _arg
    2094              DW$188  .dwtag  DW_TAG_formal_parameter, DW_AT_name("arg"), DW_AT_symbol_name("_arg")
    2095                      .dwattr DW$188, DW_AT_type(*DW$T$3)
    2096                      .dwattr DW$188, DW_AT_location[DW_OP_reg12]
    2097              DW$189  .dwtag  DW_TAG_variable, DW_AT_name("arg"), DW_AT_symbol_name("_arg")
    2098                      .dwattr DW$189, DW_AT_type(*DW$T$3)
    2099                      .dwattr DW$189, DW_AT_location[DW_OP_breg20 -2]
    2100              DW$190  .dwtag  DW_TAG_variable, DW_AT_name("key_buf"), DW_AT_symbol_name("_key_buf")
    2101                      .dwattr DW$190, DW_AT_type(*DW$T$6)
    2102                      .dwattr DW$190, DW_AT_location[DW_OP_breg20 -3]
    2103 00000338 A842          MOVL      *-SP[2],XAR4          ; |378| 
    2104                      .dwpsn  "app_ERRmod_fun.c",380,2
    2105 00000339 7640!         LCR       #_app_ERRmod_window_creat ; |380| 
         0000033a 0000 
    2106                      ; call occurs [#_app_ERRmod_window_creat] ; |380| 
    2107                      .dwpsn  "app_ERRmod_fun.c",381,2
    2108 0000033b 9A0A          MOVB      AL,#10                ; |381| 
    2109 0000033c 7640!         LCR       #_OSTimeDly           ; |381| 
         0000033d 0000 
    2110                      ; call occurs [#_OSTimeDly] ; |381| 
    2111                      .dwpsn  "app_ERRmod_fun.c",382,2
    2112 0000033e 761F-         MOVW      DP,#_m_ERRmod_Mdev_id
         0000033f 0000 
    2113 00000340 D400          MOVB      XAR4,#0
    2114 00000341 9201-         MOV       AL,@_m_ERRmod_Mdev_id ; |382| 
    2115 00000342 9B06          MOVB      AH,#6                 ; |382| 
    2116 00000343 7640!         LCR       #_os_driver_ioctl     ; |382| 
         00000344 0000 
    2117                      ; call occurs [#_os_driver_ioctl] ; |382| 
    2118                      .dwpsn  "app_ERRmod_fun.c",383,10
    2119              L34:    
    2120              DW$L$_app_ERRmod_main_task$2$B:
    2121                      .dwpsn  "app_ERRmod_fun.c",385,3
    2122 00000345 9A03          MOVB      AL,#3                 ; |385| 
    2123 00000346 7640!         LCR       #_OSTimeDly           ; |385| 
         00000347 0000 
    2124                      ; call occurs [#_OSTimeDly] ; |385| 
    2125                      .dwpsn  "app_ERRmod_fun.c",386,3
TMS320C2000 COFF Assembler PC v4.1.3 Wed Jan 12 08:34:31 2011

Tools Copyright (c) 1996-2006 Texas Instruments Incorporated
C:\DOCUME~1\ADMINI~1\LOCALS~1\Temp\TI1043                            PAGE   44

    2126 00000348 5CAD          MOVZ      AR4,SP                ; |386| 
    2127 00000349 9A01          MOVB      AL,#1                 ; |386| 
    2128 0000034a DC83          SUBB      XAR4,#3               ; |386| 
    2129 0000034b 7640!         LCR       #_app_global_key_obtain ; |386| 
         0000034c 0000 
    2130                      ; call occurs [#_app_global_key_obtain] ; |386| 
    2131 0000034d 5201          CMPB      AL,#1                 ; |386| 
    2132 0000034e EDF7          BF        L34,NEQ               ; |386| 
    2133                      ; branchcc occurs ; |386| 
    2134              DW$L$_app_ERRmod_main_task$2$E:
    2135              DW$L$_app_ERRmod_main_task$3$B:
    2136                      .dwpsn  "app_ERRmod_fun.c",388,4
    2137                      .dwpsn  "app_ERRmod_fun.c",390,3
    2138 0000034f 9243          MOV       AL,*-SP[3]            ; |390| 
    2139 00000350 5213          CMPB      AL,#19                ; |390| 
    2140 00000351 EC07          BF        L35,EQ                ; |390| 
    2141                      ; branchcc occurs ; |390| 
    2142 00000352       DW$L$_app_ERRmod_main_task$3$E:
    2143 00000352       DW$L$_app_ERRmod_main_task$4$B:
    2144 00000352 5203          CMPB      AL,#3                 ; |390| 
    2145 00000353 EC05          BF        L35,EQ                ; |390| 
    2146                      ; branchcc occurs ; |390| 
    2147 00000354       DW$L$_app_ERRmod_main_task$4$E:
    2148 00000354       DW$L$_app_ERRmod_main_task$5$B:
    2149 00000354 5209          CMPB      AL,#9                 ; |390| 
    2150 00000355 EC03          BF        L35,EQ                ; |390| 
    2151                      ; branchcc occurs ; |390| 
    2152 00000356       DW$L$_app_ERRmod_main_task$5$E:
    2153 00000356       DW$L$_app_ERRmod_main_task$6$B:
    2154 00000356 520F          CMPB      AL,#15                ; |390| 
    2155 00000357 ED1A          BF        L38,NEQ               ; |390| 
    2156                      ; branchcc occurs ; |390| 
    2157              DW$L$_app_ERRmod_main_task$6$E:
    2158              L35:    
    2159              DW$L$_app_ERRmod_main_task$7$B:
    2160                      .dwpsn  "app_ERRmod_fun.c",396,4
    2161 00000358 7640!         LCR       #_app_global_decide_Nkey ; |396| 
         00000359 0000 
    2162                      ; call occurs [#_app_global_decide_Nkey] ; |396| 
    2163 0000035a 5230          CMPB      AL,#48                ; |396| 
    2164 0000035b 640B          B         L36,LT                ; |396| 
    2165                      ; branchcc occurs ; |396| 
    2166 0000035c       DW$L$_app_ERRmod_main_task$7$E:
    2167 0000035c       DW$L$_app_ERRmod_main_task$8$B:
    2168 0000035c 9243          MOV       AL,*-SP[3]            ; |396| 
    2169 0000035d 7640!         LCR       #_app_global_decide_Nkey ; |396| 
         0000035e 0000 
    2170                      ; call occurs [#_app_global_decide_Nkey] ; |396| 
    2171 0000035f 5239          CMPB      AL,#57                ; |396| 
    2172 00000360 6206          B         L36,GT                ; |396| 
    2173                      ; branchcc occurs ; |396| 
    2174 00000361       DW$L$_app_ERRmod_main_task$8$E:
    2175 00000361       DW$L$_app_ERRmod_main_task$9$B:
    2176 00000361 9243          MOV       AL,*-SP[3]            ; |396| 
    2177 00000362 7640!         LCR       #_app_global_decide_Nkey ; |396| 
TMS320C2000 COFF Assembler PC v4.1.3 Wed Jan 12 08:34:31 2011

Tools Copyright (c) 1996-2006 Texas Instruments Incorporated
C:\DOCUME~1\ADMINI~1\LOCALS~1\Temp\TI1043                            PAGE   45

         00000363 0000 
    2178                      ; call occurs [#_app_global_decide_Nkey] ; |396| 
    2179 00000364 9CD0          ADDB      AL,#-48
    2180 00000365 6F02          B         L37,UNC               ; |396| 
    2181                      ; branch occurs ; |396| 
    2182 00000366       DW$L$_app_ERRmod_main_task$9$E:
    2183 00000366       L36:    
    2184 00000366       DW$L$_app_ERRmod_main_task$10$B:
    2185 00000366 9AFF          MOVB      AL,#255               ; |396| 
    2186 00000367       DW$L$_app_ERRmod_main_task$10$E:
    2187 00000367       L37:    
    2188 00000367       DW$L$_app_ERRmod_main_task$11$B:
    2189 00000367 761F-         MOVW      DP,#_m_ERRmod_setp
         00000368 0000 
    2190 00000369 9602-         MOV       @_m_ERRmod_setp,AL    ; |396| 
    2191                      .dwpsn  "app_ERRmod_fun.c",397,4
    2192 0000036a 7640!         LCR       #_app_ERRmod_window_destroy ; |397| 
         0000036b 0000 
    2193                      ; call occurs [#_app_ERRmod_window_destroy] ; |397| 
    2194                      .dwpsn  "app_ERRmod_fun.c",398,4
    2195 0000036c 7640'         LCR       #_app_ERRMOD_select_correct_branch ; |398| 
         0000036d 0301 
    2196                      ; call occurs [#_app_ERRMOD_select_correct_branch] ; |398| 
    2197                      .dwpsn  "app_ERRmod_fun.c",399,4
    2198 0000036e 7640!         LCR       #_app_ERRmod_window_creat ; |399| 
         0000036f 0000 
    2199                      ; call occurs [#_app_ERRmod_window_creat] ; |399| 
    2200                      .dwpsn  "app_ERRmod_fun.c",400,3
    2201 00000370 6FD5          B         L34,UNC               ; |400| 
    2202                      ; branch occurs ; |400| 
    2203              DW$L$_app_ERRmod_main_task$11$E:
    2204              L38:    
    2205              DW$L$_app_ERRmod_main_task$12$B:
    2206                      .dwpsn  "app_ERRmod_fun.c",401,8
    2207 00000371 521B          CMPB      AL,#27                ; |401| 
    2208 00000372 EC03          BF        L39,EQ                ; |401| 
    2209                      ; branchcc occurs ; |401| 
    2210 00000373       DW$L$_app_ERRmod_main_task$12$E:
    2211 00000373       DW$L$_app_ERRmod_main_task$13$B:
    2212 00000373 5202          CMPB      AL,#2                 ; |401| 
    2213 00000374 EDD1          BF        L34,NEQ               ; |401| 
    2214                      ; branchcc occurs ; |401| 
    2215              DW$L$_app_ERRmod_main_task$13$E:
    2216              L39:    
    2217              DW$L$_app_ERRmod_main_task$14$B:
    2218                      .dwpsn  "app_ERRmod_fun.c",403,4
    2219 00000375 761F-         MOVW      DP,#_m_ERRmod_Mdev_id
         00000376 0000 
    2220 00000377 D400          MOVB      XAR4,#0
    2221 00000378 9201-         MOV       AL,@_m_ERRmod_Mdev_id ; |403| 
    2222 00000379 9B07          MOVB      AH,#7                 ; |403| 
    2223 0000037a 7640!         LCR       #_os_driver_ioctl     ; |403| 
         0000037b 0000 
    2224                      ; call occurs [#_os_driver_ioctl] ; |403| 
    2225                      .dwpsn  "app_ERRmod_fun.c",404,4
TMS320C2000 COFF Assembler PC v4.1.3 Wed Jan 12 08:34:31 2011

Tools Copyright (c) 1996-2006 Texas Instruments Incorporated
C:\DOCUME~1\ADMINI~1\LOCALS~1\Temp\TI1043                            PAGE   46

    2226 0000037c 7640!         LCR       #_app_module_switch_last_mod ; |404| 
         0000037d 0000 
    2227                      ; call occurs [#_app_module_switch_last_mod] ; |404| 
    2228                      .dwpsn  "app_ERRmod_fun.c",383,10
    2229 0000037e 6FC7          B         L34,UNC               ; |383| 
    2230                      ; branch occurs ; |383| 
    2231              DW$L$_app_ERRmod_main_task$14$E:
    2232                      .dwcfa  0x1d, -2
    2233              
    2234              DW$191  .dwtag  DW_TAG_loop
    2235                      .dwattr DW$191, DW_AT_name("C:\DOCUME~1\ADMINI~1\LOCALS~1\Temp\TI1043:L34:1:1294792471")
    2236                      .dwattr DW$191, DW_AT_begin_file("app_ERRmod_fun.c")
    2237                      .dwattr DW$191, DW_AT_begin_line(0x17f)
    2238                      .dwattr DW$191, DW_AT_end_line(0x196)
    2239              DW$192  .dwtag  DW_TAG_loop_range
    2240                      .dwattr DW$192, DW_AT_low_pc(DW$L$_app_ERRmod_main_task$2$B)
    2241                      .dwattr DW$192, DW_AT_high_pc(DW$L$_app_ERRmod_main_task$2$E)
    2242              DW$193  .dwtag  DW_TAG_loop_range
    2243                      .dwattr DW$193, DW_AT_low_pc(DW$L$_app_ERRmod_main_task$12$B)
    2244                      .dwattr DW$193, DW_AT_high_pc(DW$L$_app_ERRmod_main_task$12$E)
    2245              DW$194  .dwtag  DW_TAG_loop_range
    2246                      .dwattr DW$194, DW_AT_low_pc(DW$L$_app_ERRmod_main_task$3$B)
    2247                      .dwattr DW$194, DW_AT_high_pc(DW$L$_app_ERRmod_main_task$3$E)
    2248              DW$195  .dwtag  DW_TAG_loop_range
    2249                      .dwattr DW$195, DW_AT_low_pc(DW$L$_app_ERRmod_main_task$4$B)
    2250                      .dwattr DW$195, DW_AT_high_pc(DW$L$_app_ERRmod_main_task$4$E)
    2251              DW$196  .dwtag  DW_TAG_loop_range
    2252                      .dwattr DW$196, DW_AT_low_pc(DW$L$_app_ERRmod_main_task$5$B)
    2253                      .dwattr DW$196, DW_AT_high_pc(DW$L$_app_ERRmod_main_task$5$E)
    2254              DW$197  .dwtag  DW_TAG_loop_range
    2255                      .dwattr DW$197, DW_AT_low_pc(DW$L$_app_ERRmod_main_task$6$B)
    2256                      .dwattr DW$197, DW_AT_high_pc(DW$L$_app_ERRmod_main_task$6$E)
    2257              DW$198  .dwtag  DW_TAG_loop_range
    2258                      .dwattr DW$198, DW_AT_low_pc(DW$L$_app_ERRmod_main_task$7$B)
    2259                      .dwattr DW$198, DW_AT_high_pc(DW$L$_app_ERRmod_main_task$7$E)
    2260              DW$199  .dwtag  DW_TAG_loop_range
    2261                      .dwattr DW$199, DW_AT_low_pc(DW$L$_app_ERRmod_main_task$8$B)
    2262                      .dwattr DW$199, DW_AT_high_pc(DW$L$_app_ERRmod_main_task$8$E)
    2263              DW$200  .dwtag  DW_TAG_loop_range
    2264                      .dwattr DW$200, DW_AT_low_pc(DW$L$_app_ERRmod_main_task$9$B)
    2265                      .dwattr DW$200, DW_AT_high_pc(DW$L$_app_ERRmod_main_task$9$E)
    2266              DW$201  .dwtag  DW_TAG_loop_range
    2267                      .dwattr DW$201, DW_AT_low_pc(DW$L$_app_ERRmod_main_task$10$B)
    2268                      .dwattr DW$201, DW_AT_high_pc(DW$L$_app_ERRmod_main_task$10$E)
    2269              DW$202  .dwtag  DW_TAG_loop_range
    2270                      .dwattr DW$202, DW_AT_low_pc(DW$L$_app_ERRmod_main_task$14$B)
    2271                      .dwattr DW$202, DW_AT_high_pc(DW$L$_app_ERRmod_main_task$14$E)
    2272              DW$203  .dwtag  DW_TAG_loop_range
    2273                      .dwattr DW$203, DW_AT_low_pc(DW$L$_app_ERRmod_main_task$13$B)
    2274                      .dwattr DW$203, DW_AT_high_pc(DW$L$_app_ERRmod_main_task$13$E)
    2275              DW$204  .dwtag  DW_TAG_loop_range
    2276                      .dwattr DW$204, DW_AT_low_pc(DW$L$_app_ERRmod_main_task$11$B)
    2277                      .dwattr DW$204, DW_AT_high_pc(DW$L$_app_ERRmod_main_task$11$E)
    2278                      .dwendtag DW$191
    2279              
TMS320C2000 COFF Assembler PC v4.1.3 Wed Jan 12 08:34:31 2011

Tools Copyright (c) 1996-2006 Texas Instruments Incorporated
C:\DOCUME~1\ADMINI~1\LOCALS~1\Temp\TI1043                            PAGE   47

    2280                      .dwattr DW$187, DW_AT_end_file("app_ERRmod_fun.c")
    2281                      .dwattr DW$187, DW_AT_end_line(0x197)
    2282                      .dwattr DW$187, DW_AT_end_column(0x01)
    2283                      .dwendentry
    2284                      .dwendtag DW$187
    2285              
    2286 0000037f               .sect   ".text"
    2287                      .global _app_ERRmod_fun_entry
    2288              
    2289              DW$205  .dwtag  DW_TAG_subprogram, DW_AT_name("app_ERRmod_fun_entry"), DW_AT_symbol_name("_app_ERRmod_fun_ent
    2290                      .dwattr DW$205, DW_AT_low_pc(_app_ERRmod_fun_entry)
    2291                      .dwattr DW$205, DW_AT_high_pc(0x00)
    2292                      .dwattr DW$205, DW_AT_begin_file("app_ERRmod_fun.c")
    2293                      .dwattr DW$205, DW_AT_begin_line(0x1a0)
    2294                      .dwattr DW$205, DW_AT_begin_column(0x06)
    2295                      .dwpsn  "app_ERRmod_fun.c",417,1
    2296              
    2297                      .dwfde DW$CIE
    2298              
    2299              ;***************************************************************
    2300              ;* FNAME: _app_ERRmod_fun_entry         FR SIZE:   0           *
    2301              ;*                                                             *
    2302              ;* FUNCTION ENVIRONMENT                                        *
    2303              ;*                                                             *
    2304              ;* FUNCTION PROPERTIES                                         *
    2305              ;*                            0 Parameter,  0 Auto,  0 SOE     *
    2306              ;***************************************************************
    2307              
    2308              _app_ERRmod_fun_entry:
    2309                      .dwcfa  0x1d, -2
    2310                      .dwcfa  0x1c, 26, 0
    2311                      .dwcfa  0x09, 40, 26
    2312                      .dwpsn  "app_ERRmod_fun.c",418,2
    2313 0000037f 7640!         LCR       #_measure_driver_register ; |418| 
         00000380 0000 
    2314                      ; call occurs [#_measure_driver_register] ; |418| 
    2315 00000381 761F-         MOVW      DP,#_m_ERRmod_Mdev_id
         00000382 0000 
    2316 00000383 9601-         MOV       @_m_ERRmod_Mdev_id,AL ; |418| 
    2317                      .dwpsn  "app_ERRmod_fun.c",419,2
    2318 00000384 5200          CMPB      AL,#0                 ; |419| 
    2319 00000385 EC08          BF        L40,EQ                ; |419| 
    2320                      ; branchcc occurs ; |419| 
    2321                      .dwpsn  "app_ERRmod_fun.c",421,3
    2322 00000386 7640!         LCR       #_os_driver_init      ; |421| 
         00000387 0000 
    2323                      ; call occurs [#_os_driver_init] ; |421| 
    2324                      .dwpsn  "app_ERRmod_fun.c",422,3
    2325 00000388 761F-         MOVW      DP,#_m_ERRmod_Mdev_id
         00000389 0000 
    2326 0000038a 9201-         MOV       AL,@_m_ERRmod_Mdev_id ; |422| 
    2327 0000038b 7640!         LCR       #_app_global_correct_data_read ; |422| 
         0000038c 0000 
    2328                      ; call occurs [#_app_global_correct_data_read] ; |422| 
    2329              L40:    
TMS320C2000 COFF Assembler PC v4.1.3 Wed Jan 12 08:34:31 2011

Tools Copyright (c) 1996-2006 Texas Instruments Incorporated
C:\DOCUME~1\ADMINI~1\LOCALS~1\Temp\TI1043                            PAGE   48

    2330                      .dwpsn  "app_ERRmod_fun.c",424,2
    2331 0000038d 9A05          MOVB      AL,#5                 ; |424| 
    2332 0000038e 8F00'         MOVL      XAR4,#_app_ERRmod_main_task ; |424| 
         0000038f 0337 
    2333 00000390 7640!         LCR       #_os_task_assign_stk_build ; |424| 
         00000391 0000 
    2334                      ; call occurs [#_os_task_assign_stk_build] ; |424| 
    2335 00000392 761F-         MOVW      DP,#_m_ERRmod_task_pro
         00000393 0000 
    2336 00000394 9600-         MOV       @_m_ERRmod_task_pro,AL ; |424| 
    2337                      .dwpsn  "app_ERRmod_fun.c",426,2
    2338 00000395 8F00+         MOVL      XAR4,#FSL8            ; |426| 
         00000396 0072 
    2339 00000397 7640!         LCR       #_os_task_name_set    ; |426| 
         00000398 0000 
    2340                      ; call occurs [#_os_task_name_set] ; |426| 
    2341                      .dwpsn  "app_ERRmod_fun.c",427,2
    2342                      .dwpsn  "app_ERRmod_fun.c",428,1
    2343 00000399 0006          LRETR
    2344                      ; return occurs
    2345                      .dwattr DW$205, DW_AT_end_file("app_ERRmod_fun.c")
    2346                      .dwattr DW$205, DW_AT_end_line(0x1ac)
    2347                      .dwattr DW$205, DW_AT_end_column(0x01)
    2348                      .dwendentry
    2349                      .dwendtag DW$205
    2350              
    2351 0000039a               .sect   ".text"
    2352                      .global _app_ERRmod_fun_exit
    2353              
    2354              DW$206  .dwtag  DW_TAG_subprogram, DW_AT_name("app_ERRmod_fun_exit"), DW_AT_symbol_name("_app_ERRmod_fun_exit
    2355                      .dwattr DW$206, DW_AT_low_pc(_app_ERRmod_fun_exit)
    2356                      .dwattr DW$206, DW_AT_high_pc(0x00)
    2357                      .dwattr DW$206, DW_AT_begin_file("app_ERRmod_fun.c")
    2358                      .dwattr DW$206, DW_AT_begin_line(0x1b5)
    2359                      .dwattr DW$206, DW_AT_begin_column(0x06)
    2360                      .dwpsn  "app_ERRmod_fun.c",438,1
    2361              
    2362                      .dwfde DW$CIE
    2363              
    2364              ;***************************************************************
    2365              ;* FNAME: _app_ERRmod_fun_exit          FR SIZE:   0           *
    2366              ;*                                                             *
    2367              ;* FUNCTION ENVIRONMENT                                        *
    2368              ;*                                                             *
    2369              ;* FUNCTION PROPERTIES                                         *
    2370              ;*                            0 Parameter,  0 Auto,  0 SOE     *
    2371              ;***************************************************************
    2372              
    2373              _app_ERRmod_fun_exit:
    2374                      .dwcfa  0x1d, -2
    2375                      .dwcfa  0x1c, 26, 0
    2376                      .dwcfa  0x09, 40, 26
    2377                      .dwpsn  "app_ERRmod_fun.c",439,2
    2378 0000039a 761F-         MOVW      DP,#_m_ERRmod_task_pro
         0000039b 0000 
TMS320C2000 COFF Assembler PC v4.1.3 Wed Jan 12 08:34:31 2011

Tools Copyright (c) 1996-2006 Texas Instruments Incorporated
C:\DOCUME~1\ADMINI~1\LOCALS~1\Temp\TI1043                            PAGE   49

    2379 0000039c 9200-         MOV       AL,@_m_ERRmod_task_pro ; |439| 
    2380 0000039d 52BE          CMPB      AL,#190               ; |439| 
    2381 0000039e EC07          BF        L41,EQ                ; |439| 
    2382                      ; branchcc occurs ; |439| 
    2383                      .dwpsn  "app_ERRmod_fun.c",441,3
    2384 0000039f 7640!         LCR       #_os_task_delete      ; |441| 
         000003a0 0000 
    2385                      ; call occurs [#_os_task_delete] ; |441| 
    2386                      .dwpsn  "app_ERRmod_fun.c",442,3
    2387 000003a1 761F-         MOVW      DP,#_m_ERRmod_task_pro
         000003a2 0000 
    2388 000003a3 2800-         MOV       @_m_ERRmod_task_pro,#190 ; |442| 
         000003a4 00BE 
    2389              L41:    
    2390                      .dwpsn  "app_ERRmod_fun.c",444,2
    2391 000003a5 9201-         MOV       AL,@_m_ERRmod_Mdev_id ; |444| 
    2392 000003a6 EC06          BF        L42,EQ                ; |444| 
    2393                      ; branchcc occurs ; |444| 
    2394                      .dwpsn  "app_ERRmod_fun.c",446,3
    2395 000003a7 7640!         LCR       #_os_driver_uninstall ; |446| 
         000003a8 0000 
    2396                      ; call occurs [#_os_driver_uninstall] ; |446| 
    2397                      .dwpsn  "app_ERRmod_fun.c",447,3
    2398 000003a9 761F-         MOVW      DP,#_m_ERRmod_Mdev_id
         000003aa 0000 
    2399 000003ab 2B01-         MOV       @_m_ERRmod_Mdev_id,#0 ; |447| 
    2400                      .dwpsn  "app_ERRmod_fun.c",449,2
    2401              L42:    
    2402                      .dwpsn  "app_ERRmod_fun.c",450,1
    2403 000003ac 0006          LRETR
    2404                      ; return occurs
    2405                      .dwattr DW$206, DW_AT_end_file("app_ERRmod_fun.c")
    2406                      .dwattr DW$206, DW_AT_end_line(0x1c2)
    2407                      .dwattr DW$206, DW_AT_end_column(0x01)
    2408                      .dwendentry
    2409                      .dwendtag DW$206
    2410              
    2411              ;***************************************************************
    2412              ;* FAR STRINGS                                                 *
    2413              ;***************************************************************
    2414 00000008               .sect   ".econst"
    2415                      .align  2
    2416 00000008 00B0  FSL1:   .string 176,180,200,183,200,207,188,252,191,170,202,188,208,222,213,253
         00000009 00B4 
         0000000a 00C8 
         0000000b 00B7 
         0000000c 00C8 
         0000000d 00CF 
         0000000e 00BC 
         0000000f 00FC 
         00000010 00BF 
         00000011 00AA 
         00000012 00CA 
         00000013 00BC 
         00000014 00D0 
TMS320C2000 COFF Assembler PC v4.1.3 Wed Jan 12 08:34:31 2011

Tools Copyright (c) 1996-2006 Texas Instruments Incorporated
C:\DOCUME~1\ADMINI~1\LOCALS~1\Temp\TI1043                            PAGE   50

         00000015 00DE 
         00000016 00D5 
         00000017 00FD 
    2417 00000018 0000          .string 0
    2418                      .align  2
    2419 0000001a 00D5  FSL2:   .string 213,253,212,218,178,201,188,175,202,253,190,221,",",188,198,203
         0000001b 00FD 
         0000001c 00D4 
         0000001d 00DA 
         0000001e 00B2 
         0000001f 00C9 
         00000020 00BC 
         00000021 00AF 
         00000022 00CA 
         00000023 00FD 
         00000024 00BE 
         00000025 00DD 
         00000026 002C 
         00000027 00BC 
         00000028 00C6 
         00000029 00CB 
    2420 0000002a 00E3          .string 227,206,243,178,238,0
         0000002b 00CE 
         0000002c 00F3 
         0000002d 00B2 
         0000002e 00EE 
         0000002f 0000 
    2421                      .align  2
    2422 00000030 00D0  FSL3:   .string 208,222,213,253,205,234,179,201,",",202,199,183,241,177,163,180
         00000031 00DE 
         00000032 00D5 
         00000033 00FD 
         00000034 00CD 
         00000035 00EA 
         00000036 00B3 
         00000037 00C9 
         00000038 002C 
         00000039 00CA 
         0000003a 00C7 
         0000003b 00B7 
         0000003c 00F1 
         0000003d 00B1 
         0000003e 00A3 
         0000003f 00B4 
    2423 00000040 00E6          .string 230,"?",0
         00000041 003F 
         00000042 0000 
    2424                      .align  2
    2425 00000044 00D2  FSL4:   .string 210,209,190,173,177,163,180,230,0
         00000045 00D1 
         00000046 00BE 
         00000047 00AD 
         00000048 00B1 
         00000049 00A3 
         0000004a 00B4 
TMS320C2000 COFF Assembler PC v4.1.3 Wed Jan 12 08:34:31 2011

Tools Copyright (c) 1996-2006 Texas Instruments Incorporated
C:\DOCUME~1\ADMINI~1\LOCALS~1\Temp\TI1043                            PAGE   51

         0000004b 00E6 
         0000004c 0000 
    2426                      .align  2
    2427 0000004e 00D2  FSL5:   .string 210,209,190,173,183,197,198,250,202,253,190,221,0
         0000004f 00D1 
         00000050 00BE 
         00000051 00AD 
         00000052 00B7 
         00000053 00C5 
         00000054 00C6 
         00000055 00FA 
         00000056 00CA 
         00000057 00FD 
         00000058 00BE 
         00000059 00DD 
         0000005a 0000 
    2428                      .align  2
    2429 0000005c 00C7  FSL6:   .string 199,235,209,161,212,241,199,175,177,237,0
         0000005d 00EB 
         0000005e 00D1 
         0000005f 00A1 
         00000060 00D4 
         00000061 00F1 
         00000062 00C7 
         00000063 00AF 
         00000064 00B1 
         00000065 00ED 
         00000066 0000 
    2430                      .align  2
    2431 00000068 00B5  FSL7:   .string 181,231,193,247,208,222,213,253,0
         00000069 00E7 
         0000006a 00C1 
         0000006b 00F7 
         0000006c 00D0 
         0000006d 00DE 
         0000006e 00D5 
         0000006f 00FD 
         00000070 0000 
    2432                      .align  2
    2433 00000072 0045  FSL8:   .string "ERRmod--Main task",0
         00000073 0052 
         00000074 0052 
         00000075 006D 
         00000076 006F 
         00000077 0064 
         00000078 002D 
         00000079 002D 
         0000007a 004D 
         0000007b 0061 
         0000007c 0069 
         0000007d 006E 
         0000007e 0020 
         0000007f 0074 
         00000080 0061 
         00000081 0073 
TMS320C2000 COFF Assembler PC v4.1.3 Wed Jan 12 08:34:31 2011

Tools Copyright (c) 1996-2006 Texas Instruments Incorporated
C:\DOCUME~1\ADMINI~1\LOCALS~1\Temp\TI1043                            PAGE   52

         00000082 006B 
         00000083 0000 
    2434              ;***************************************************************
    2435              ;* UNDEFINED EXTERNAL REFERENCES                               *
    2436              ;***************************************************************
    2437                      .global _GUI_edit_string_display_At
    2438                      .global _GUI_edit_clean
    2439                      .global _app_ERRmod_correct_window_entery
    2440                      .global _GUI_3D_window_title_mod
    2441                      .global _app_ERRmod_correct_window_exit
    2442                      .global _GUI_set_Fgcolor
    2443                      .global _app_global_e2prom_switch_disk
    2444                      .global _GUI_window_hwin_req
    2445                      .global _GUI_set_Bgcolor
    2446                      .global _app_ERRmod_window_creat
    2447                      .global _GUI_window_hwin_release
    2448                      .global _app_ERRmod_edit_fdisplay
    2449                      .global _app_ERRmod_window_destroy
    2450                      .global _app_free
    2451                      .global _os_driver_init
    2452                      .global _app_global_correct_data_read
    2453                      .global _os_driver_ioctl
    2454                      .global _app_module_switch_last_mod
    2455                      .global _OSTimeDly
    2456                      .global _app_global_e2prom_write_char
    2457                      .global _app_global_key_dummy_press
    2458                      .global _os_driver_uninstall
    2459                      .global _measure_driver_register
    2460                      .global _os_task_name_set
    2461                      .global _os_task_delete
    2462                      .global _app_global_key_obtain
    2463                      .global _global_ftoa
    2464                      .global _GUI_edit_select
    2465                      .global _GUI_drop_list_unfold
    2466                      .global _os_task_assign_stk_build
    2467                      .global _app_global_decide_Nkey
    2468                      .global _app_global_key_wait
    2469                      .global _app_malloc
    2470                      .global _global_atof
    2471                      .global _m_correct_drop_list
    2472                      .global _m_correct_edit
    2473                      .global _m_correct_win
    2474                      .global _m_err_DLI_option
    2475              
    2476              ;***************************************************************
    2477              ;* TYPE INFORMATION                                            *
    2478              ;***************************************************************
    2479              DW$T$3  .dwtag  DW_TAG_pointer_type
    2480                      .dwattr DW$T$3, DW_AT_address_class(0x16)
    2481              
    2482              DW$T$49 .dwtag  DW_TAG_subroutine_type, DW_AT_type(*DW$T$3)
    2483                      .dwattr DW$T$49, DW_AT_language(DW_LANG_C)
    2484              DW$207  .dwtag  DW_TAG_formal_parameter, DW_AT_type(*DW$T$19)
    2485                      .dwendtag DW$T$49
    2486              
TMS320C2000 COFF Assembler PC v4.1.3 Wed Jan 12 08:34:31 2011

Tools Copyright (c) 1996-2006 Texas Instruments Incorporated
C:\DOCUME~1\ADMINI~1\LOCALS~1\Temp\TI1043                            PAGE   53

    2487              
    2488              DW$T$27 .dwtag  DW_TAG_subroutine_type
    2489                      .dwattr DW$T$27, DW_AT_language(DW_LANG_C)
    2490              DW$208  .dwtag  DW_TAG_formal_parameter, DW_AT_type(*DW$T$3)
    2491                      .dwendtag DW$T$27
    2492              
    2493              DW$T$28 .dwtag  DW_TAG_pointer_type, DW_AT_type(*DW$T$27)
    2494                      .dwattr DW$T$28, DW_AT_address_class(0x16)
    2495              
    2496              DW$T$52 .dwtag  DW_TAG_subroutine_type
    2497                      .dwattr DW$T$52, DW_AT_language(DW_LANG_C)
    2498              DW$209  .dwtag  DW_TAG_formal_parameter, DW_AT_type(*DW$T$51)
    2499                      .dwendtag DW$T$52
    2500              
    2501              
    2502              DW$T$55 .dwtag  DW_TAG_subroutine_type
    2503                      .dwattr DW$T$55, DW_AT_language(DW_LANG_C)
    2504              DW$210  .dwtag  DW_TAG_formal_parameter, DW_AT_type(*DW$T$54)
    2505                      .dwendtag DW$T$55
    2506              
    2507              
    2508              DW$T$57 .dwtag  DW_TAG_subroutine_type
    2509                      .dwattr DW$T$57, DW_AT_language(DW_LANG_C)
    2510              DW$211  .dwtag  DW_TAG_formal_parameter, DW_AT_type(*DW$T$54)
    2511              DW$212  .dwtag  DW_TAG_formal_parameter, DW_AT_type(*DW$T$6)
    2512              DW$213  .dwtag  DW_TAG_formal_parameter, DW_AT_type(*DW$T$3)
    2513                      .dwendtag DW$T$57
    2514              
    2515              
    2516              DW$T$59 .dwtag  DW_TAG_subroutine_type
    2517                      .dwattr DW$T$59, DW_AT_language(DW_LANG_C)
    2518              
    2519              DW$T$61 .dwtag  DW_TAG_subroutine_type
    2520                      .dwattr DW$T$61, DW_AT_language(DW_LANG_C)
    2521              DW$214  .dwtag  DW_TAG_formal_parameter, DW_AT_type(*DW$T$6)
    2522                      .dwendtag DW$T$61
    2523              
    2524              
    2525              DW$T$64 .dwtag  DW_TAG_subroutine_type
    2526                      .dwattr DW$T$64, DW_AT_language(DW_LANG_C)
    2527              DW$215  .dwtag  DW_TAG_formal_parameter, DW_AT_type(*DW$T$11)
    2528              DW$216  .dwtag  DW_TAG_formal_parameter, DW_AT_type(*DW$T$63)
    2529              DW$217  .dwtag  DW_TAG_formal_parameter, DW_AT_type(*DW$T$11)
    2530                      .dwendtag DW$T$64
    2531              
    2532              
    2533              DW$T$66 .dwtag  DW_TAG_subroutine_type
    2534                      .dwattr DW$T$66, DW_AT_language(DW_LANG_C)
    2535              DW$218  .dwtag  DW_TAG_formal_parameter, DW_AT_type(*DW$T$11)
    2536                      .dwendtag DW$T$66
    2537              
    2538              
    2539              DW$T$70 .dwtag  DW_TAG_subroutine_type
    2540                      .dwattr DW$T$70, DW_AT_language(DW_LANG_C)
    2541              DW$219  .dwtag  DW_TAG_formal_parameter, DW_AT_type(*DW$T$69)
TMS320C2000 COFF Assembler PC v4.1.3 Wed Jan 12 08:34:31 2011

Tools Copyright (c) 1996-2006 Texas Instruments Incorporated
C:\DOCUME~1\ADMINI~1\LOCALS~1\Temp\TI1043                            PAGE   54

    2542                      .dwendtag DW$T$70
    2543              
    2544              
    2545              DW$T$72 .dwtag  DW_TAG_subroutine_type
    2546                      .dwattr DW$T$72, DW_AT_language(DW_LANG_C)
    2547              DW$220  .dwtag  DW_TAG_formal_parameter, DW_AT_type(*DW$T$63)
    2548              DW$221  .dwtag  DW_TAG_formal_parameter, DW_AT_type(*DW$T$19)
    2549                      .dwendtag DW$T$72
    2550              
    2551              
    2552              DW$T$74 .dwtag  DW_TAG_subroutine_type
    2553                      .dwattr DW$T$74, DW_AT_language(DW_LANG_C)
    2554              DW$222  .dwtag  DW_TAG_formal_parameter, DW_AT_type(*DW$T$69)
    2555              DW$223  .dwtag  DW_TAG_formal_parameter, DW_AT_type(*DW$T$63)
    2556                      .dwendtag DW$T$74
    2557              
    2558              
    2559              DW$T$76 .dwtag  DW_TAG_subroutine_type
    2560                      .dwattr DW$T$76, DW_AT_language(DW_LANG_C)
    2561              DW$224  .dwtag  DW_TAG_formal_parameter, DW_AT_type(*DW$T$19)
    2562              DW$225  .dwtag  DW_TAG_formal_parameter, DW_AT_type(*DW$T$16)
    2563              DW$226  .dwtag  DW_TAG_formal_parameter, DW_AT_type(*DW$T$19)
    2564                      .dwendtag DW$T$76
    2565              
    2566              
    2567              DW$T$78 .dwtag  DW_TAG_subroutine_type
    2568                      .dwattr DW$T$78, DW_AT_language(DW_LANG_C)
    2569              DW$227  .dwtag  DW_TAG_formal_parameter, DW_AT_type(*DW$T$6)
    2570              DW$228  .dwtag  DW_TAG_formal_parameter, DW_AT_type(*DW$T$6)
    2571                      .dwendtag DW$T$78
    2572              
    2573              DW$T$6  .dwtag  DW_TAG_base_type, DW_AT_name("unsigned char")
    2574                      .dwattr DW$T$6, DW_AT_encoding(DW_ATE_unsigned_char)
    2575                      .dwattr DW$T$6, DW_AT_byte_size(0x01)
    2576              DW$T$54 .dwtag  DW_TAG_typedef, DW_AT_name("dev_id_t"), DW_AT_type(*DW$T$6)
    2577                      .dwattr DW$T$54, DW_AT_language(DW_LANG_C)
    2578              
    2579              DW$T$80 .dwtag  DW_TAG_subroutine_type, DW_AT_type(*DW$T$6)
    2580                      .dwattr DW$T$80, DW_AT_language(DW_LANG_C)
    2581              DW$229  .dwtag  DW_TAG_formal_parameter, DW_AT_type(*DW$T$28)
    2582              DW$230  .dwtag  DW_TAG_formal_parameter, DW_AT_type(*DW$T$19)
    2583                      .dwendtag DW$T$80
    2584              
    2585              
    2586              DW$T$82 .dwtag  DW_TAG_subroutine_type, DW_AT_type(*DW$T$6)
    2587                      .dwattr DW$T$82, DW_AT_language(DW_LANG_C)
    2588              DW$231  .dwtag  DW_TAG_formal_parameter, DW_AT_type(*DW$T$6)
    2589              DW$232  .dwtag  DW_TAG_formal_parameter, DW_AT_type(*DW$T$63)
    2590                      .dwendtag DW$T$82
    2591              
    2592              
    2593              DW$T$84 .dwtag  DW_TAG_subroutine_type, DW_AT_type(*DW$T$6)
    2594                      .dwattr DW$T$84, DW_AT_language(DW_LANG_C)
    2595              DW$233  .dwtag  DW_TAG_formal_parameter, DW_AT_type(*DW$T$6)
    2596                      .dwendtag DW$T$84
TMS320C2000 COFF Assembler PC v4.1.3 Wed Jan 12 08:34:31 2011

Tools Copyright (c) 1996-2006 Texas Instruments Incorporated
C:\DOCUME~1\ADMINI~1\LOCALS~1\Temp\TI1043                            PAGE   55

    2597              
    2598              DW$T$86 .dwtag  DW_TAG_pointer_type, DW_AT_type(*DW$T$6)
    2599                      .dwattr DW$T$86, DW_AT_address_class(0x16)
    2600              
    2601              DW$T$87 .dwtag  DW_TAG_subroutine_type, DW_AT_type(*DW$T$6)
    2602                      .dwattr DW$T$87, DW_AT_language(DW_LANG_C)
    2603              DW$234  .dwtag  DW_TAG_formal_parameter, DW_AT_type(*DW$T$86)
    2604              DW$235  .dwtag  DW_TAG_formal_parameter, DW_AT_type(*DW$T$19)
    2605                      .dwendtag DW$T$87
    2606              
    2607              
    2608              DW$T$89 .dwtag  DW_TAG_subroutine_type, DW_AT_type(*DW$T$6)
    2609                      .dwattr DW$T$89, DW_AT_language(DW_LANG_C)
    2610              DW$236  .dwtag  DW_TAG_formal_parameter, DW_AT_type(*DW$T$6)
    2611              DW$237  .dwtag  DW_TAG_formal_parameter, DW_AT_type(*DW$T$6)
    2612                      .dwendtag DW$T$89
    2613              
    2614              DW$T$91 .dwtag  DW_TAG_typedef, DW_AT_name("BOOL"), DW_AT_type(*DW$T$6)
    2615                      .dwattr DW$T$91, DW_AT_language(DW_LANG_C)
    2616              
    2617              DW$T$92 .dwtag  DW_TAG_subroutine_type, DW_AT_type(*DW$T$91)
    2618                      .dwattr DW$T$92, DW_AT_language(DW_LANG_C)
    2619              DW$238  .dwtag  DW_TAG_formal_parameter, DW_AT_type(*DW$T$19)
    2620                      .dwendtag DW$T$92
    2621              
    2622              
    2623              DW$T$94 .dwtag  DW_TAG_subroutine_type, DW_AT_type(*DW$T$91)
    2624                      .dwattr DW$T$94, DW_AT_language(DW_LANG_C)
    2625              DW$239  .dwtag  DW_TAG_formal_parameter, DW_AT_type(*DW$T$86)
    2626                      .dwendtag DW$T$94
    2627              
    2628              
    2629              DW$T$96 .dwtag  DW_TAG_subroutine_type, DW_AT_type(*DW$T$6)
    2630                      .dwattr DW$T$96, DW_AT_language(DW_LANG_C)
    2631              DW$240  .dwtag  DW_TAG_formal_parameter, DW_AT_type(*DW$T$3)
    2632                      .dwendtag DW$T$96
    2633              
    2634              
    2635              DW$T$100        .dwtag  DW_TAG_array_type, DW_AT_type(*DW$T$99)
    2636                      .dwattr DW$T$100, DW_AT_language(DW_LANG_C)
    2637                      .dwattr DW$T$100, DW_AT_byte_size(0x08)
    2638              DW$241  .dwtag  DW_TAG_subrange_type
    2639                      .dwattr DW$241, DW_AT_upper_bound(0x03)
    2640                      .dwendtag DW$T$100
    2641              
    2642              DW$T$10 .dwtag  DW_TAG_base_type, DW_AT_name("int")
    2643                      .dwattr DW$T$10, DW_AT_encoding(DW_ATE_signed)
    2644                      .dwattr DW$T$10, DW_AT_byte_size(0x01)
    2645              
    2646              DW$T$102        .dwtag  DW_TAG_subroutine_type, DW_AT_type(*DW$T$10)
    2647                      .dwattr DW$T$102, DW_AT_language(DW_LANG_C)
    2648              DW$T$11 .dwtag  DW_TAG_base_type, DW_AT_name("unsigned int")
    2649                      .dwattr DW$T$11, DW_AT_encoding(DW_ATE_unsigned)
    2650                      .dwattr DW$T$11, DW_AT_byte_size(0x01)
    2651              DW$T$19 .dwtag  DW_TAG_typedef, DW_AT_name("Bsize_t"), DW_AT_type(*DW$T$11)
TMS320C2000 COFF Assembler PC v4.1.3 Wed Jan 12 08:34:31 2011

Tools Copyright (c) 1996-2006 Texas Instruments Incorporated
C:\DOCUME~1\ADMINI~1\LOCALS~1\Temp\TI1043                            PAGE   56

    2652                      .dwattr DW$T$19, DW_AT_language(DW_LANG_C)
    2653              
    2654              DW$T$104        .dwtag  DW_TAG_subroutine_type, DW_AT_type(*DW$T$19)
    2655                      .dwattr DW$T$104, DW_AT_language(DW_LANG_C)
    2656              DW$242  .dwtag  DW_TAG_formal_parameter, DW_AT_type(*DW$T$16)
    2657              DW$243  .dwtag  DW_TAG_formal_parameter, DW_AT_type(*DW$T$63)
    2658              DW$244  .dwtag  DW_TAG_formal_parameter, DW_AT_type(*DW$T$19)
    2659                      .dwendtag DW$T$104
    2660              
    2661              
    2662              DW$T$106        .dwtag  DW_TAG_subroutine_type, DW_AT_type(*DW$T$19)
    2663                      .dwattr DW$T$106, DW_AT_language(DW_LANG_C)
    2664              DW$245  .dwtag  DW_TAG_formal_parameter, DW_AT_type(*DW$T$69)
    2665                      .dwendtag DW$T$106
    2666              
    2667              DW$T$51 .dwtag  DW_TAG_typedef, DW_AT_name("INT16U"), DW_AT_type(*DW$T$11)
    2668                      .dwattr DW$T$51, DW_AT_language(DW_LANG_C)
    2669              DW$T$16 .dwtag  DW_TAG_base_type, DW_AT_name("float")
    2670                      .dwattr DW$T$16, DW_AT_encoding(DW_ATE_float)
    2671                      .dwattr DW$T$16, DW_AT_byte_size(0x02)
    2672              
    2673              DW$T$108        .dwtag  DW_TAG_subroutine_type, DW_AT_type(*DW$T$16)
    2674                      .dwattr DW$T$108, DW_AT_language(DW_LANG_C)
    2675              DW$246  .dwtag  DW_TAG_formal_parameter, DW_AT_type(*DW$T$63)
    2676                      .dwendtag DW$T$108
    2677              
    2678              DW$T$25 .dwtag  DW_TAG_base_type, DW_AT_name("signed char")
    2679                      .dwattr DW$T$25, DW_AT_encoding(DW_ATE_signed_char)
    2680                      .dwattr DW$T$25, DW_AT_byte_size(0x01)
    2681              
    2682              DW$T$113        .dwtag  DW_TAG_array_type, DW_AT_type(*DW$T$30)
    2683                      .dwattr DW$T$113, DW_AT_language(DW_LANG_C)
    2684                      .dwattr DW$T$113, DW_AT_byte_size(0x10)
    2685              DW$247  .dwtag  DW_TAG_subrange_type
    2686                      .dwattr DW$247, DW_AT_upper_bound(0x01)
    2687              DW$248  .dwtag  DW_TAG_subrange_type
    2688                      .dwattr DW$248, DW_AT_upper_bound(0x03)
    2689                      .dwendtag DW$T$113
    2690              
    2691              DW$T$63 .dwtag  DW_TAG_pointer_type, DW_AT_type(*DW$T$25)
    2692                      .dwattr DW$T$63, DW_AT_address_class(0x16)
    2693              
    2694              DW$T$110        .dwtag  DW_TAG_subroutine_type, DW_AT_type(*DW$T$25)
    2695                      .dwattr DW$T$110, DW_AT_language(DW_LANG_C)
    2696              DW$249  .dwtag  DW_TAG_formal_parameter, DW_AT_type(*DW$T$6)
    2697                      .dwendtag DW$T$110
    2698              
    2699              DW$T$69 .dwtag  DW_TAG_pointer_type, DW_AT_type(*DW$T$68)
    2700                      .dwattr DW$T$69, DW_AT_address_class(0x16)
    2701              DW$T$116        .dwtag  DW_TAG_typedef, DW_AT_name("measure_param_t"), DW_AT_type(*DW$T$36)
    2702                      .dwattr DW$T$116, DW_AT_language(DW_LANG_C)
    2703              DW$T$118        .dwtag  DW_TAG_typedef, DW_AT_name("DL_correct_t"), DW_AT_type(*DW$T$37)
    2704                      .dwattr DW$T$118, DW_AT_language(DW_LANG_C)
    2705              DW$T$121        .dwtag  DW_TAG_pointer_type, DW_AT_type(*DW$T$120)
    2706                      .dwattr DW$T$121, DW_AT_address_class(0x16)
TMS320C2000 COFF Assembler PC v4.1.3 Wed Jan 12 08:34:31 2011

Tools Copyright (c) 1996-2006 Texas Instruments Incorporated
C:\DOCUME~1\ADMINI~1\LOCALS~1\Temp\TI1043                            PAGE   57

    2707              DW$T$123        .dwtag  DW_TAG_pointer_type, DW_AT_type(*DW$T$122)
    2708                      .dwattr DW$T$123, DW_AT_address_class(0x16)
    2709              DW$T$124        .dwtag  DW_TAG_typedef, DW_AT_name("DL_correct_step_t"), DW_AT_type(*DW$T$41)
    2710                      .dwattr DW$T$124, DW_AT_language(DW_LANG_C)
    2711              DW$T$126        .dwtag  DW_TAG_typedef, DW_AT_name("UIDang_t"), DW_AT_type(*DW$T$45)
    2712                      .dwattr DW$T$126, DW_AT_language(DW_LANG_C)
    2713              DW$T$128        .dwtag  DW_TAG_typedef, DW_AT_name("DL_reflag_u"), DW_AT_type(*DW$T$48)
    2714                      .dwattr DW$T$128, DW_AT_language(DW_LANG_C)
    2715              DW$250  .dwtag  DW_TAG_far_type
    2716                      .dwattr DW$250, DW_AT_type(*DW$T$98)
    2717              DW$T$99 .dwtag  DW_TAG_const_type
    2718                      .dwattr DW$T$99, DW_AT_type(*DW$250)
    2719              DW$T$30 .dwtag  DW_TAG_pointer_type, DW_AT_type(*DW$T$29)
    2720                      .dwattr DW$T$30, DW_AT_address_class(0x16)
    2721              DW$T$68 .dwtag  DW_TAG_typedef, DW_AT_name("hwin_t"), DW_AT_type(*DW$T$32)
    2722                      .dwattr DW$T$68, DW_AT_language(DW_LANG_C)
    2723              
    2724              DW$T$36 .dwtag  DW_TAG_structure_type
    2725                      .dwattr DW$T$36, DW_AT_name("_measure_param_t")
    2726                      .dwattr DW$T$36, DW_AT_byte_size(0x40)
    2727              DW$251  .dwtag  DW_TAG_member, DW_AT_type(*DW$T$34)
    2728                      .dwattr DW$251, DW_AT_name("phase_a"), DW_AT_symbol_name("_phase_a")
    2729                      .dwattr DW$251, DW_AT_data_member_location[DW_OP_plus_uconst 0x0]
    2730                      .dwattr DW$251, DW_AT_accessibility(DW_ACCESS_public)
    2731              DW$252  .dwtag  DW_TAG_member, DW_AT_type(*DW$T$34)
    2732                      .dwattr DW$252, DW_AT_name("phase_b"), DW_AT_symbol_name("_phase_b")
    2733                      .dwattr DW$252, DW_AT_data_member_location[DW_OP_plus_uconst 0xa]
    2734                      .dwattr DW$252, DW_AT_accessibility(DW_ACCESS_public)
    2735              DW$253  .dwtag  DW_TAG_member, DW_AT_type(*DW$T$34)
    2736                      .dwattr DW$253, DW_AT_name("phase_c"), DW_AT_symbol_name("_phase_c")
    2737                      .dwattr DW$253, DW_AT_data_member_location[DW_OP_plus_uconst 0x14]
    2738                      .dwattr DW$253, DW_AT_accessibility(DW_ACCESS_public)
    2739              DW$254  .dwtag  DW_TAG_member, DW_AT_type(*DW$T$16)
    2740                      .dwattr DW$254, DW_AT_name("f_Uab"), DW_AT_symbol_name("_f_Uab")
    2741                      .dwattr DW$254, DW_AT_data_member_location[DW_OP_plus_uconst 0x1e]
    2742                      .dwattr DW$254, DW_AT_accessibility(DW_ACCESS_public)
    2743              DW$255  .dwtag  DW_TAG_member, DW_AT_type(*DW$T$16)
    2744                      .dwattr DW$255, DW_AT_name("f_Ubc"), DW_AT_symbol_name("_f_Ubc")
    2745                      .dwattr DW$255, DW_AT_data_member_location[DW_OP_plus_uconst 0x20]
    2746                      .dwattr DW$255, DW_AT_accessibility(DW_ACCESS_public)
    2747              DW$256  .dwtag  DW_TAG_member, DW_AT_type(*DW$T$16)
    2748                      .dwattr DW$256, DW_AT_name("f_Uac"), DW_AT_symbol_name("_f_Uac")
    2749                      .dwattr DW$256, DW_AT_data_member_location[DW_OP_plus_uconst 0x22]
    2750                      .dwattr DW$256, DW_AT_accessibility(DW_ACCESS_public)
    2751              DW$257  .dwtag  DW_TAG_member, DW_AT_type(*DW$T$16)
    2752                      .dwattr DW$257, DW_AT_name("f_Iac"), DW_AT_symbol_name("_f_Iac")
    2753                      .dwattr DW$257, DW_AT_data_member_location[DW_OP_plus_uconst 0x24]
    2754                      .dwattr DW$257, DW_AT_accessibility(DW_ACCESS_public)
    2755              DW$258  .dwtag  DW_TAG_member, DW_AT_type(*DW$T$16)
    2756                      .dwattr DW$258, DW_AT_name("f_Ibc"), DW_AT_symbol_name("_f_Ibc")
    2757                      .dwattr DW$258, DW_AT_data_member_location[DW_OP_plus_uconst 0x26]
    2758                      .dwattr DW$258, DW_AT_accessibility(DW_ACCESS_public)
    2759              DW$259  .dwtag  DW_TAG_member, DW_AT_type(*DW$T$16)
    2760                      .dwattr DW$259, DW_AT_name("f_Iab"), DW_AT_symbol_name("_f_Iab")
    2761                      .dwattr DW$259, DW_AT_data_member_location[DW_OP_plus_uconst 0x28]
TMS320C2000 COFF Assembler PC v4.1.3 Wed Jan 12 08:34:31 2011

Tools Copyright (c) 1996-2006 Texas Instruments Incorporated
C:\DOCUME~1\ADMINI~1\LOCALS~1\Temp\TI1043                            PAGE   58

    2762                      .dwattr DW$259, DW_AT_accessibility(DW_ACCESS_public)
    2763              DW$260  .dwtag  DW_TAG_member, DW_AT_type(*DW$T$16)
    2764                      .dwattr DW$260, DW_AT_name("f_JUac"), DW_AT_symbol_name("_f_JUac")
    2765                      .dwattr DW$260, DW_AT_data_member_location[DW_OP_plus_uconst 0x2a]
    2766                      .dwattr DW$260, DW_AT_accessibility(DW_ACCESS_public)
    2767              DW$261  .dwtag  DW_TAG_member, DW_AT_type(*DW$T$16)
    2768                      .dwattr DW$261, DW_AT_name("f_JUbc"), DW_AT_symbol_name("_f_JUbc")
    2769                      .dwattr DW$261, DW_AT_data_member_location[DW_OP_plus_uconst 0x2c]
    2770                      .dwattr DW$261, DW_AT_accessibility(DW_ACCESS_public)
    2771              DW$262  .dwtag  DW_TAG_member, DW_AT_type(*DW$T$16)
    2772                      .dwattr DW$262, DW_AT_name("f_JUab"), DW_AT_symbol_name("_f_JUab")
    2773                      .dwattr DW$262, DW_AT_data_member_location[DW_OP_plus_uconst 0x2e]
    2774                      .dwattr DW$262, DW_AT_accessibility(DW_ACCESS_public)
    2775              DW$263  .dwtag  DW_TAG_member, DW_AT_type(*DW$T$16)
    2776                      .dwattr DW$263, DW_AT_name("f_Cos"), DW_AT_symbol_name("_f_Cos")
    2777                      .dwattr DW$263, DW_AT_data_member_location[DW_OP_plus_uconst 0x30]
    2778                      .dwattr DW$263, DW_AT_accessibility(DW_ACCESS_public)
    2779              DW$264  .dwtag  DW_TAG_member, DW_AT_type(*DW$T$16)
    2780                      .dwattr DW$264, DW_AT_name("f_Pabc"), DW_AT_symbol_name("_f_Pabc")
    2781                      .dwattr DW$264, DW_AT_data_member_location[DW_OP_plus_uconst 0x32]
    2782                      .dwattr DW$264, DW_AT_accessibility(DW_ACCESS_public)
    2783              DW$265  .dwtag  DW_TAG_member, DW_AT_type(*DW$T$16)
    2784                      .dwattr DW$265, DW_AT_name("f_Qabc"), DW_AT_symbol_name("_f_Qabc")
    2785                      .dwattr DW$265, DW_AT_data_member_location[DW_OP_plus_uconst 0x34]
    2786                      .dwattr DW$265, DW_AT_accessibility(DW_ACCESS_public)
    2787              DW$266  .dwtag  DW_TAG_member, DW_AT_type(*DW$T$35)
    2788                      .dwattr DW$266, DW_AT_name("f_err"), DW_AT_symbol_name("_f_err")
    2789                      .dwattr DW$266, DW_AT_data_member_location[DW_OP_plus_uconst 0x36]
    2790                      .dwattr DW$266, DW_AT_accessibility(DW_ACCESS_public)
    2791              DW$267  .dwtag  DW_TAG_member, DW_AT_type(*DW$T$16)
    2792                      .dwattr DW$267, DW_AT_name("f_Feq"), DW_AT_symbol_name("_f_Feq")
    2793                      .dwattr DW$267, DW_AT_data_member_location[DW_OP_plus_uconst 0x3e]
    2794                      .dwattr DW$267, DW_AT_accessibility(DW_ACCESS_public)
    2795                      .dwendtag DW$T$36
    2796              
    2797              
    2798              DW$T$37 .dwtag  DW_TAG_structure_type
    2799                      .dwattr DW$T$37, DW_AT_byte_size(0x20)
    2800              DW$268  .dwtag  DW_TAG_member, DW_AT_type(*DW$T$16)
    2801                      .dwattr DW$268, DW_AT_name("err_Ua"), DW_AT_symbol_name("_err_Ua")
    2802                      .dwattr DW$268, DW_AT_data_member_location[DW_OP_plus_uconst 0x0]
    2803                      .dwattr DW$268, DW_AT_accessibility(DW_ACCESS_public)
    2804              DW$269  .dwtag  DW_TAG_member, DW_AT_type(*DW$T$16)
    2805                      .dwattr DW$269, DW_AT_name("err_Ub"), DW_AT_symbol_name("_err_Ub")
    2806                      .dwattr DW$269, DW_AT_data_member_location[DW_OP_plus_uconst 0x2]
    2807                      .dwattr DW$269, DW_AT_accessibility(DW_ACCESS_public)
    2808              DW$270  .dwtag  DW_TAG_member, DW_AT_type(*DW$T$16)
    2809                      .dwattr DW$270, DW_AT_name("err_Uc"), DW_AT_symbol_name("_err_Uc")
    2810                      .dwattr DW$270, DW_AT_data_member_location[DW_OP_plus_uconst 0x4]
    2811                      .dwattr DW$270, DW_AT_accessibility(DW_ACCESS_public)
    2812              DW$271  .dwtag  DW_TAG_member, DW_AT_type(*DW$T$6)
    2813                      .dwattr DW$271, DW_AT_name("offset"), DW_AT_symbol_name("_offset")
    2814                      .dwattr DW$271, DW_AT_data_member_location[DW_OP_plus_uconst 0x6]
    2815                      .dwattr DW$271, DW_AT_accessibility(DW_ACCESS_public)
    2816              DW$272  .dwtag  DW_TAG_member, DW_AT_type(*DW$T$16)
TMS320C2000 COFF Assembler PC v4.1.3 Wed Jan 12 08:34:31 2011

Tools Copyright (c) 1996-2006 Texas Instruments Incorporated
C:\DOCUME~1\ADMINI~1\LOCALS~1\Temp\TI1043                            PAGE   59

    2817                      .dwattr DW$272, DW_AT_name("err_Ia"), DW_AT_symbol_name("_err_Ia")
    2818                      .dwattr DW$272, DW_AT_data_member_location[DW_OP_plus_uconst 0x8]
    2819                      .dwattr DW$272, DW_AT_accessibility(DW_ACCESS_public)
    2820              DW$273  .dwtag  DW_TAG_member, DW_AT_type(*DW$T$16)
    2821                      .dwattr DW$273, DW_AT_name("err_Ib"), DW_AT_symbol_name("_err_Ib")
    2822                      .dwattr DW$273, DW_AT_data_member_location[DW_OP_plus_uconst 0xa]
    2823                      .dwattr DW$273, DW_AT_accessibility(DW_ACCESS_public)
    2824              DW$274  .dwtag  DW_TAG_member, DW_AT_type(*DW$T$16)
    2825                      .dwattr DW$274, DW_AT_name("err_Ic"), DW_AT_symbol_name("_err_Ic")
    2826                      .dwattr DW$274, DW_AT_data_member_location[DW_OP_plus_uconst 0xc]
    2827                      .dwattr DW$274, DW_AT_accessibility(DW_ACCESS_public)
    2828              DW$275  .dwtag  DW_TAG_member, DW_AT_type(*DW$T$16)
    2829                      .dwattr DW$275, DW_AT_name("err_Pa"), DW_AT_symbol_name("_err_Pa")
    2830                      .dwattr DW$275, DW_AT_data_member_location[DW_OP_plus_uconst 0xe]
    2831                      .dwattr DW$275, DW_AT_accessibility(DW_ACCESS_public)
    2832              DW$276  .dwtag  DW_TAG_member, DW_AT_type(*DW$T$16)
    2833                      .dwattr DW$276, DW_AT_name("err_Pb"), DW_AT_symbol_name("_err_Pb")
    2834                      .dwattr DW$276, DW_AT_data_member_location[DW_OP_plus_uconst 0x10]
    2835                      .dwattr DW$276, DW_AT_accessibility(DW_ACCESS_public)
    2836              DW$277  .dwtag  DW_TAG_member, DW_AT_type(*DW$T$16)
    2837                      .dwattr DW$277, DW_AT_name("err_Pc"), DW_AT_symbol_name("_err_Pc")
    2838                      .dwattr DW$277, DW_AT_data_member_location[DW_OP_plus_uconst 0x12]
    2839                      .dwattr DW$277, DW_AT_accessibility(DW_ACCESS_public)
    2840              DW$278  .dwtag  DW_TAG_member, DW_AT_type(*DW$T$16)
    2841                      .dwattr DW$278, DW_AT_name("err_Qa"), DW_AT_symbol_name("_err_Qa")
    2842                      .dwattr DW$278, DW_AT_data_member_location[DW_OP_plus_uconst 0x14]
    2843                      .dwattr DW$278, DW_AT_accessibility(DW_ACCESS_public)
    2844              DW$279  .dwtag  DW_TAG_member, DW_AT_type(*DW$T$16)
    2845                      .dwattr DW$279, DW_AT_name("err_Qb"), DW_AT_symbol_name("_err_Qb")
    2846                      .dwattr DW$279, DW_AT_data_member_location[DW_OP_plus_uconst 0x16]
    2847                      .dwattr DW$279, DW_AT_accessibility(DW_ACCESS_public)
    2848              DW$280  .dwtag  DW_TAG_member, DW_AT_type(*DW$T$16)
    2849                      .dwattr DW$280, DW_AT_name("err_Qc"), DW_AT_symbol_name("_err_Qc")
    2850                      .dwattr DW$280, DW_AT_data_member_location[DW_OP_plus_uconst 0x18]
    2851                      .dwattr DW$280, DW_AT_accessibility(DW_ACCESS_public)
    2852              DW$281  .dwtag  DW_TAG_member, DW_AT_type(*DW$T$16)
    2853                      .dwattr DW$281, DW_AT_name("err_Ja"), DW_AT_symbol_name("_err_Ja")
    2854                      .dwattr DW$281, DW_AT_data_member_location[DW_OP_plus_uconst 0x1a]
    2855                      .dwattr DW$281, DW_AT_accessibility(DW_ACCESS_public)
    2856              DW$282  .dwtag  DW_TAG_member, DW_AT_type(*DW$T$16)
    2857                      .dwattr DW$282, DW_AT_name("err_Jb"), DW_AT_symbol_name("_err_Jb")
    2858                      .dwattr DW$282, DW_AT_data_member_location[DW_OP_plus_uconst 0x1c]
    2859                      .dwattr DW$282, DW_AT_accessibility(DW_ACCESS_public)
    2860              DW$283  .dwtag  DW_TAG_member, DW_AT_type(*DW$T$16)
    2861                      .dwattr DW$283, DW_AT_name("err_Jc"), DW_AT_symbol_name("_err_Jc")
    2862                      .dwattr DW$283, DW_AT_data_member_location[DW_OP_plus_uconst 0x1e]
    2863                      .dwattr DW$283, DW_AT_accessibility(DW_ACCESS_public)
    2864                      .dwendtag DW$T$37
    2865              
    2866              DW$T$120        .dwtag  DW_TAG_typedef, DW_AT_name("correct_Udata_save_t"), DW_AT_type(*DW$T$39)
    2867                      .dwattr DW$T$120, DW_AT_language(DW_LANG_C)
    2868              DW$T$122        .dwtag  DW_TAG_typedef, DW_AT_name("correct_Idata_save_t"), DW_AT_type(*DW$T$40)
    2869                      .dwattr DW$T$122, DW_AT_language(DW_LANG_C)
    2870              
    2871              DW$T$41 .dwtag  DW_TAG_structure_type
TMS320C2000 COFF Assembler PC v4.1.3 Wed Jan 12 08:34:31 2011

Tools Copyright (c) 1996-2006 Texas Instruments Incorporated
C:\DOCUME~1\ADMINI~1\LOCALS~1\Temp\TI1043                            PAGE   60

    2872                      .dwattr DW$T$41, DW_AT_byte_size(0x08)
    2873              DW$284  .dwtag  DW_TAG_member, DW_AT_type(*DW$T$6)
    2874                      .dwattr DW$284, DW_AT_name("main_step"), DW_AT_symbol_name("_main_step")
    2875                      .dwattr DW$284, DW_AT_data_member_location[DW_OP_plus_uconst 0x0]
    2876                      .dwattr DW$284, DW_AT_accessibility(DW_ACCESS_public)
    2877              DW$285  .dwtag  DW_TAG_member, DW_AT_type(*DW$T$6)
    2878                      .dwattr DW$285, DW_AT_name("sub_step"), DW_AT_symbol_name("_sub_step")
    2879                      .dwattr DW$285, DW_AT_data_member_location[DW_OP_plus_uconst 0x1]
    2880                      .dwattr DW$285, DW_AT_accessibility(DW_ACCESS_public)
    2881              DW$286  .dwtag  DW_TAG_member, DW_AT_type(*DW$T$11)
    2882                      .dwattr DW$286, DW_AT_name("Ext_arg"), DW_AT_symbol_name("_Ext_arg")
    2883                      .dwattr DW$286, DW_AT_data_member_location[DW_OP_plus_uconst 0x2]
    2884                      .dwattr DW$286, DW_AT_accessibility(DW_ACCESS_public)
    2885              DW$287  .dwtag  DW_TAG_member, DW_AT_type(*DW$T$16)
    2886                      .dwattr DW$287, DW_AT_name("base_U"), DW_AT_symbol_name("_base_U")
    2887                      .dwattr DW$287, DW_AT_data_member_location[DW_OP_plus_uconst 0x4]
    2888                      .dwattr DW$287, DW_AT_accessibility(DW_ACCESS_public)
    2889              DW$288  .dwtag  DW_TAG_member, DW_AT_type(*DW$T$16)
    2890                      .dwattr DW$288, DW_AT_name("base_I"), DW_AT_symbol_name("_base_I")
    2891                      .dwattr DW$288, DW_AT_data_member_location[DW_OP_plus_uconst 0x6]
    2892                      .dwattr DW$288, DW_AT_accessibility(DW_ACCESS_public)
    2893                      .dwendtag DW$T$41
    2894              
    2895              
    2896              DW$T$45 .dwtag  DW_TAG_structure_type
    2897                      .dwattr DW$T$45, DW_AT_name("UIDang")
    2898                      .dwattr DW$T$45, DW_AT_byte_size(0x03)
    2899              DW$289  .dwtag  DW_TAG_member, DW_AT_type(*DW$T$44)
    2900                      .dwattr DW$289, DW_AT_name("UIDangN"), DW_AT_symbol_name("_UIDangN")
    2901                      .dwattr DW$289, DW_AT_data_member_location[DW_OP_plus_uconst 0x0]
    2902                      .dwattr DW$289, DW_AT_accessibility(DW_ACCESS_public)
    2903              DW$290  .dwtag  DW_TAG_member, DW_AT_type(*DW$T$11)
    2904                      .dwattr DW$290, DW_AT_name("all"), DW_AT_symbol_name("_all")
    2905                      .dwattr DW$290, DW_AT_data_member_location[DW_OP_plus_uconst 0x2]
    2906                      .dwattr DW$290, DW_AT_accessibility(DW_ACCESS_public)
    2907                      .dwendtag DW$T$45
    2908              
    2909              
    2910              DW$T$48 .dwtag  DW_TAG_union_type
    2911                      .dwattr DW$T$48, DW_AT_byte_size(0x01)
    2912              DW$291  .dwtag  DW_TAG_member, DW_AT_type(*DW$T$11)
    2913                      .dwattr DW$291, DW_AT_name("reflag"), DW_AT_symbol_name("_reflag")
    2914                      .dwattr DW$291, DW_AT_data_member_location[DW_OP_plus_uconst 0x0]
    2915                      .dwattr DW$291, DW_AT_accessibility(DW_ACCESS_public)
    2916              DW$292  .dwtag  DW_TAG_member, DW_AT_type(*DW$T$47)
    2917                      .dwattr DW$292, DW_AT_name("reflag_bits"), DW_AT_symbol_name("_reflag_bits")
    2918                      .dwattr DW$292, DW_AT_data_member_location[DW_OP_plus_uconst 0x0]
    2919                      .dwattr DW$292, DW_AT_accessibility(DW_ACCESS_public)
    2920                      .dwendtag DW$T$48
    2921              
    2922              DW$T$98 .dwtag  DW_TAG_typedef, DW_AT_name("correct_handle_t"), DW_AT_type(*DW$T$97)
    2923                      .dwattr DW$T$98, DW_AT_language(DW_LANG_C)
    2924              
    2925              DW$T$35 .dwtag  DW_TAG_array_type, DW_AT_type(*DW$T$16)
    2926                      .dwattr DW$T$35, DW_AT_language(DW_LANG_C)
TMS320C2000 COFF Assembler PC v4.1.3 Wed Jan 12 08:34:31 2011

Tools Copyright (c) 1996-2006 Texas Instruments Incorporated
C:\DOCUME~1\ADMINI~1\LOCALS~1\Temp\TI1043                            PAGE   61

    2927                      .dwattr DW$T$35, DW_AT_byte_size(0x08)
    2928              DW$293  .dwtag  DW_TAG_subrange_type
    2929                      .dwattr DW$293, DW_AT_upper_bound(0x03)
    2930                      .dwendtag DW$T$35
    2931              
    2932              DW$294  .dwtag  DW_TAG_far_type
    2933                      .dwattr DW$294, DW_AT_type(*DW$T$25)
    2934              DW$T$29 .dwtag  DW_TAG_const_type
    2935                      .dwattr DW$T$29, DW_AT_type(*DW$294)
    2936              
    2937              DW$T$32 .dwtag  DW_TAG_structure_type
    2938                      .dwattr DW$T$32, DW_AT_name("hwin")
    2939                      .dwattr DW$T$32, DW_AT_byte_size(0x42)
    2940              DW$295  .dwtag  DW_TAG_member, DW_AT_type(*DW$T$19)
    2941                      .dwattr DW$295, DW_AT_name("occupy_flag"), DW_AT_symbol_name("_occupy_flag")
    2942                      .dwattr DW$295, DW_AT_data_member_location[DW_OP_plus_uconst 0x0]
    2943                      .dwattr DW$295, DW_AT_accessibility(DW_ACCESS_public)
    2944              DW$296  .dwtag  DW_TAG_member, DW_AT_type(*DW$T$11)
    2945                      .dwattr DW$296, DW_AT_name("win_x"), DW_AT_symbol_name("_win_x")
    2946                      .dwattr DW$296, DW_AT_data_member_location[DW_OP_plus_uconst 0x1]
    2947                      .dwattr DW$296, DW_AT_accessibility(DW_ACCESS_public)
    2948              DW$297  .dwtag  DW_TAG_member, DW_AT_type(*DW$T$11)
    2949                      .dwattr DW$297, DW_AT_name("win_y"), DW_AT_symbol_name("_win_y")
    2950                      .dwattr DW$297, DW_AT_data_member_location[DW_OP_plus_uconst 0x2]
    2951                      .dwattr DW$297, DW_AT_accessibility(DW_ACCESS_public)
    2952              DW$298  .dwtag  DW_TAG_member, DW_AT_type(*DW$T$19)
    2953                      .dwattr DW$298, DW_AT_name("win_wide"), DW_AT_symbol_name("_win_wide")
    2954                      .dwattr DW$298, DW_AT_data_member_location[DW_OP_plus_uconst 0x3]
    2955                      .dwattr DW$298, DW_AT_accessibility(DW_ACCESS_public)
    2956              DW$299  .dwtag  DW_TAG_member, DW_AT_type(*DW$T$19)
    2957                      .dwattr DW$299, DW_AT_name("win_high"), DW_AT_symbol_name("_win_high")
    2958                      .dwattr DW$299, DW_AT_data_member_location[DW_OP_plus_uconst 0x4]
    2959                      .dwattr DW$299, DW_AT_accessibility(DW_ACCESS_public)
    2960              DW$300  .dwtag  DW_TAG_member, DW_AT_type(*DW$T$11)
    2961                      .dwattr DW$300, DW_AT_name("csr_x_pos"), DW_AT_symbol_name("_csr_x_pos")
    2962                      .dwattr DW$300, DW_AT_data_member_location[DW_OP_plus_uconst 0x5]
    2963                      .dwattr DW$300, DW_AT_accessibility(DW_ACCESS_public)
    2964              DW$301  .dwtag  DW_TAG_member, DW_AT_type(*DW$T$11)
    2965                      .dwattr DW$301, DW_AT_name("csr_y_pos"), DW_AT_symbol_name("_csr_y_pos")
    2966                      .dwattr DW$301, DW_AT_data_member_location[DW_OP_plus_uconst 0x6]
    2967                      .dwattr DW$301, DW_AT_accessibility(DW_ACCESS_public)
    2968              DW$302  .dwtag  DW_TAG_member, DW_AT_type(*DW$T$19)
    2969                      .dwattr DW$302, DW_AT_name("type"), DW_AT_symbol_name("_type")
    2970                      .dwattr DW$302, DW_AT_data_member_location[DW_OP_plus_uconst 0x7]
    2971                      .dwattr DW$302, DW_AT_accessibility(DW_ACCESS_public)
    2972              DW$303  .dwtag  DW_TAG_member, DW_AT_type(*DW$T$22)
    2973                      .dwattr DW$303, DW_AT_name("father_hwin"), DW_AT_symbol_name("_father_hwin")
    2974                      .dwattr DW$303, DW_AT_data_member_location[DW_OP_plus_uconst 0x8]
    2975                      .dwattr DW$303, DW_AT_accessibility(DW_ACCESS_public)
    2976              DW$304  .dwtag  DW_TAG_member, DW_AT_type(*DW$T$22)
    2977                      .dwattr DW$304, DW_AT_name("next_hwin"), DW_AT_symbol_name("_next_hwin")
    2978                      .dwattr DW$304, DW_AT_data_member_location[DW_OP_plus_uconst 0xa]
    2979                      .dwattr DW$304, DW_AT_accessibility(DW_ACCESS_public)
    2980              DW$305  .dwtag  DW_TAG_member, DW_AT_type(*DW$T$22)
    2981                      .dwattr DW$305, DW_AT_name("last_hwin"), DW_AT_symbol_name("_last_hwin")
TMS320C2000 COFF Assembler PC v4.1.3 Wed Jan 12 08:34:31 2011

Tools Copyright (c) 1996-2006 Texas Instruments Incorporated
C:\DOCUME~1\ADMINI~1\LOCALS~1\Temp\TI1043                            PAGE   62

    2982                      .dwattr DW$305, DW_AT_data_member_location[DW_OP_plus_uconst 0xc]
    2983                      .dwattr DW$305, DW_AT_accessibility(DW_ACCESS_public)
    2984              DW$306  .dwtag  DW_TAG_member, DW_AT_type(*DW$T$19)
    2985                      .dwattr DW$306, DW_AT_name("nline"), DW_AT_symbol_name("_nline")
    2986                      .dwattr DW$306, DW_AT_data_member_location[DW_OP_plus_uconst 0xe]
    2987                      .dwattr DW$306, DW_AT_accessibility(DW_ACCESS_public)
    2988              DW$307  .dwtag  DW_TAG_member, DW_AT_type(*DW$T$19)
    2989                      .dwattr DW$307, DW_AT_name("nrow"), DW_AT_symbol_name("_nrow")
    2990                      .dwattr DW$307, DW_AT_data_member_location[DW_OP_plus_uconst 0xf]
    2991                      .dwattr DW$307, DW_AT_accessibility(DW_ACCESS_public)
    2992              DW$308  .dwtag  DW_TAG_member, DW_AT_type(*DW$T$19)
    2993                      .dwattr DW$308, DW_AT_name("grid_wide"), DW_AT_symbol_name("_grid_wide")
    2994                      .dwattr DW$308, DW_AT_data_member_location[DW_OP_plus_uconst 0x10]
    2995                      .dwattr DW$308, DW_AT_accessibility(DW_ACCESS_public)
    2996              DW$309  .dwtag  DW_TAG_member, DW_AT_type(*DW$T$19)
    2997                      .dwattr DW$309, DW_AT_name("grid_high"), DW_AT_symbol_name("_grid_high")
    2998                      .dwattr DW$309, DW_AT_data_member_location[DW_OP_plus_uconst 0x11]
    2999                      .dwattr DW$309, DW_AT_accessibility(DW_ACCESS_public)
    3000              DW$310  .dwtag  DW_TAG_member, DW_AT_type(*DW$T$24)
    3001                      .dwattr DW$310, DW_AT_name("cur_edit_pos"), DW_AT_symbol_name("_cur_edit_pos")
    3002                      .dwattr DW$310, DW_AT_data_member_location[DW_OP_plus_uconst 0x12]
    3003                      .dwattr DW$310, DW_AT_accessibility(DW_ACCESS_public)
    3004              DW$311  .dwtag  DW_TAG_member, DW_AT_type(*DW$T$24)
    3005                      .dwattr DW$311, DW_AT_name("edit_phead"), DW_AT_symbol_name("_edit_phead")
    3006                      .dwattr DW$311, DW_AT_data_member_location[DW_OP_plus_uconst 0x14]
    3007                      .dwattr DW$311, DW_AT_accessibility(DW_ACCESS_public)
    3008              DW$312  .dwtag  DW_TAG_member, DW_AT_type(*DW$T$24)
    3009                      .dwattr DW$312, DW_AT_name("m_cur_pedit"), DW_AT_symbol_name("_m_cur_pedit")
    3010                      .dwattr DW$312, DW_AT_data_member_location[DW_OP_plus_uconst 0x16]
    3011                      .dwattr DW$312, DW_AT_accessibility(DW_ACCESS_public)
    3012              DW$313  .dwtag  DW_TAG_member, DW_AT_type(*DW$T$26)
    3013                      .dwattr DW$313, DW_AT_name("button_title"), DW_AT_symbol_name("_button_title")
    3014                      .dwattr DW$313, DW_AT_data_member_location[DW_OP_plus_uconst 0x18]
    3015                      .dwattr DW$313, DW_AT_accessibility(DW_ACCESS_public)
    3016              DW$314  .dwtag  DW_TAG_member, DW_AT_type(*DW$T$11)
    3017                      .dwattr DW$314, DW_AT_name("button_flags"), DW_AT_symbol_name("_button_flags")
    3018                      .dwattr DW$314, DW_AT_data_member_location[DW_OP_plus_uconst 0x36]
    3019                      .dwattr DW$314, DW_AT_accessibility(DW_ACCESS_public)
    3020              DW$315  .dwtag  DW_TAG_member, DW_AT_type(*DW$T$11)
    3021                      .dwattr DW$315, DW_AT_name("button_bg_color"), DW_AT_symbol_name("_button_bg_color")
    3022                      .dwattr DW$315, DW_AT_data_member_location[DW_OP_plus_uconst 0x37]
    3023                      .dwattr DW$315, DW_AT_accessibility(DW_ACCESS_public)
    3024              DW$316  .dwtag  DW_TAG_member, DW_AT_type(*DW$T$11)
    3025                      .dwattr DW$316, DW_AT_name("button_txt_color"), DW_AT_symbol_name("_button_txt_color")
    3026                      .dwattr DW$316, DW_AT_data_member_location[DW_OP_plus_uconst 0x38]
    3027                      .dwattr DW$316, DW_AT_accessibility(DW_ACCESS_public)
    3028              DW$317  .dwtag  DW_TAG_member, DW_AT_type(*DW$T$28)
    3029                      .dwattr DW$317, DW_AT_name("buttoncallback"), DW_AT_symbol_name("_buttoncallback")
    3030                      .dwattr DW$317, DW_AT_data_member_location[DW_OP_plus_uconst 0x3a]
    3031                      .dwattr DW$317, DW_AT_accessibility(DW_ACCESS_public)
    3032              DW$318  .dwtag  DW_TAG_member, DW_AT_type(*DW$T$31)
    3033                      .dwattr DW$318, DW_AT_name("drop_memeber"), DW_AT_symbol_name("_drop_memeber")
    3034                      .dwattr DW$318, DW_AT_data_member_location[DW_OP_plus_uconst 0x3c]
    3035                      .dwattr DW$318, DW_AT_accessibility(DW_ACCESS_public)
    3036              DW$319  .dwtag  DW_TAG_member, DW_AT_type(*DW$T$6)
TMS320C2000 COFF Assembler PC v4.1.3 Wed Jan 12 08:34:31 2011

Tools Copyright (c) 1996-2006 Texas Instruments Incorporated
C:\DOCUME~1\ADMINI~1\LOCALS~1\Temp\TI1043                            PAGE   63

    3037                      .dwattr DW$319, DW_AT_name("drop_cur_member"), DW_AT_symbol_name("_drop_cur_member")
    3038                      .dwattr DW$319, DW_AT_data_member_location[DW_OP_plus_uconst 0x3e]
    3039                      .dwattr DW$319, DW_AT_accessibility(DW_ACCESS_public)
    3040              DW$320  .dwtag  DW_TAG_member, DW_AT_type(*DW$T$6)
    3041                      .dwattr DW$320, DW_AT_name("drop_member_size"), DW_AT_symbol_name("_drop_member_size")
    3042                      .dwattr DW$320, DW_AT_data_member_location[DW_OP_plus_uconst 0x3f]
    3043                      .dwattr DW$320, DW_AT_accessibility(DW_ACCESS_public)
    3044              DW$321  .dwtag  DW_TAG_member, DW_AT_type(*DW$T$11)
    3045                      .dwattr DW$321, DW_AT_name("win_cnt"), DW_AT_symbol_name("_win_cnt")
    3046                      .dwattr DW$321, DW_AT_data_member_location[DW_OP_plus_uconst 0x40]
    3047                      .dwattr DW$321, DW_AT_accessibility(DW_ACCESS_public)
    3048                      .dwendtag DW$T$32
    3049              
    3050              DW$T$22 .dwtag  DW_TAG_pointer_type, DW_AT_type(*DW$T$32)
    3051                      .dwattr DW$T$22, DW_AT_address_class(0x16)
    3052              DW$T$34 .dwtag  DW_TAG_typedef, DW_AT_name("phase_param_t"), DW_AT_type(*DW$T$33)
    3053                      .dwattr DW$T$34, DW_AT_language(DW_LANG_C)
    3054              
    3055              DW$T$39 .dwtag  DW_TAG_structure_type
    3056                      .dwattr DW$T$39, DW_AT_byte_size(0x38)
    3057              DW$322  .dwtag  DW_TAG_member, DW_AT_type(*DW$T$38)
    3058                      .dwattr DW$322, DW_AT_name("c_baseU"), DW_AT_symbol_name("_c_baseU")
    3059                      .dwattr DW$322, DW_AT_data_member_location[DW_OP_plus_uconst 0x0]
    3060                      .dwattr DW$322, DW_AT_accessibility(DW_ACCESS_public)
    3061              DW$323  .dwtag  DW_TAG_member, DW_AT_type(*DW$T$38)
    3062                      .dwattr DW$323, DW_AT_name("c_Ua"), DW_AT_symbol_name("_c_Ua")
    3063                      .dwattr DW$323, DW_AT_data_member_location[DW_OP_plus_uconst 0x8]
    3064                      .dwattr DW$323, DW_AT_accessibility(DW_ACCESS_public)
    3065              DW$324  .dwtag  DW_TAG_member, DW_AT_type(*DW$T$38)
    3066                      .dwattr DW$324, DW_AT_name("c_Ub"), DW_AT_symbol_name("_c_Ub")
    3067                      .dwattr DW$324, DW_AT_data_member_location[DW_OP_plus_uconst 0x10]
    3068                      .dwattr DW$324, DW_AT_accessibility(DW_ACCESS_public)
    3069              DW$325  .dwtag  DW_TAG_member, DW_AT_type(*DW$T$38)
    3070                      .dwattr DW$325, DW_AT_name("c_Uc"), DW_AT_symbol_name("_c_Uc")
    3071                      .dwattr DW$325, DW_AT_data_member_location[DW_OP_plus_uconst 0x18]
    3072                      .dwattr DW$325, DW_AT_accessibility(DW_ACCESS_public)
    3073              DW$326  .dwtag  DW_TAG_member, DW_AT_type(*DW$T$38)
    3074                      .dwattr DW$326, DW_AT_name("c_EUa"), DW_AT_symbol_name("_c_EUa")
    3075                      .dwattr DW$326, DW_AT_data_member_location[DW_OP_plus_uconst 0x20]
    3076                      .dwattr DW$326, DW_AT_accessibility(DW_ACCESS_public)
    3077              DW$327  .dwtag  DW_TAG_member, DW_AT_type(*DW$T$38)
    3078                      .dwattr DW$327, DW_AT_name("c_EUb"), DW_AT_symbol_name("_c_EUb")
    3079                      .dwattr DW$327, DW_AT_data_member_location[DW_OP_plus_uconst 0x28]
    3080                      .dwattr DW$327, DW_AT_accessibility(DW_ACCESS_public)
    3081              DW$328  .dwtag  DW_TAG_member, DW_AT_type(*DW$T$38)
    3082                      .dwattr DW$328, DW_AT_name("c_EUc"), DW_AT_symbol_name("_c_EUc")
    3083                      .dwattr DW$328, DW_AT_data_member_location[DW_OP_plus_uconst 0x30]
    3084                      .dwattr DW$328, DW_AT_accessibility(DW_ACCESS_public)
    3085                      .dwendtag DW$T$39
    3086              
    3087              
    3088              DW$T$40 .dwtag  DW_TAG_structure_type
    3089                      .dwattr DW$T$40, DW_AT_byte_size(0x39)
    3090              DW$329  .dwtag  DW_TAG_member, DW_AT_type(*DW$T$25)
    3091                      .dwattr DW$329, DW_AT_name("offset"), DW_AT_symbol_name("_offset")
TMS320C2000 COFF Assembler PC v4.1.3 Wed Jan 12 08:34:31 2011

Tools Copyright (c) 1996-2006 Texas Instruments Incorporated
C:\DOCUME~1\ADMINI~1\LOCALS~1\Temp\TI1043                            PAGE   64

    3092                      .dwattr DW$329, DW_AT_data_member_location[DW_OP_plus_uconst 0x0]
    3093                      .dwattr DW$329, DW_AT_accessibility(DW_ACCESS_public)
    3094              DW$330  .dwtag  DW_TAG_member, DW_AT_type(*DW$T$38)
    3095                      .dwattr DW$330, DW_AT_name("c_baseI"), DW_AT_symbol_name("_c_baseI")
    3096                      .dwattr DW$330, DW_AT_data_member_location[DW_OP_plus_uconst 0x1]
    3097                      .dwattr DW$330, DW_AT_accessibility(DW_ACCESS_public)
    3098              DW$331  .dwtag  DW_TAG_member, DW_AT_type(*DW$T$38)
    3099                      .dwattr DW$331, DW_AT_name("c_Ia"), DW_AT_symbol_name("_c_Ia")
    3100                      .dwattr DW$331, DW_AT_data_member_location[DW_OP_plus_uconst 0x9]
    3101                      .dwattr DW$331, DW_AT_accessibility(DW_ACCESS_public)
    3102              DW$332  .dwtag  DW_TAG_member, DW_AT_type(*DW$T$38)
    3103                      .dwattr DW$332, DW_AT_name("c_Ib"), DW_AT_symbol_name("_c_Ib")
    3104                      .dwattr DW$332, DW_AT_data_member_location[DW_OP_plus_uconst 0x11]
    3105                      .dwattr DW$332, DW_AT_accessibility(DW_ACCESS_public)
    3106              DW$333  .dwtag  DW_TAG_member, DW_AT_type(*DW$T$38)
    3107                      .dwattr DW$333, DW_AT_name("c_Ic"), DW_AT_symbol_name("_c_Ic")
    3108                      .dwattr DW$333, DW_AT_data_member_location[DW_OP_plus_uconst 0x19]
    3109                      .dwattr DW$333, DW_AT_accessibility(DW_ACCESS_public)
    3110              DW$334  .dwtag  DW_TAG_member, DW_AT_type(*DW$T$38)
    3111                      .dwattr DW$334, DW_AT_name("c_EIa"), DW_AT_symbol_name("_c_EIa")
    3112                      .dwattr DW$334, DW_AT_data_member_location[DW_OP_plus_uconst 0x21]
    3113                      .dwattr DW$334, DW_AT_accessibility(DW_ACCESS_public)
    3114              DW$335  .dwtag  DW_TAG_member, DW_AT_type(*DW$T$38)
    3115                      .dwattr DW$335, DW_AT_name("c_EIb"), DW_AT_symbol_name("_c_EIb")
    3116                      .dwattr DW$335, DW_AT_data_member_location[DW_OP_plus_uconst 0x29]
    3117                      .dwattr DW$335, DW_AT_accessibility(DW_ACCESS_public)
    3118              DW$336  .dwtag  DW_TAG_member, DW_AT_type(*DW$T$38)
    3119                      .dwattr DW$336, DW_AT_name("c_EIc"), DW_AT_symbol_name("_c_EIc")
    3120                      .dwattr DW$336, DW_AT_data_member_location[DW_OP_plus_uconst 0x31]
    3121                      .dwattr DW$336, DW_AT_accessibility(DW_ACCESS_public)
    3122                      .dwendtag DW$T$40
    3123              
    3124              
    3125              DW$T$44 .dwtag  DW_TAG_union_type
    3126                      .dwattr DW$T$44, DW_AT_name("UIDangUnion")
    3127                      .dwattr DW$T$44, DW_AT_byte_size(0x02)
    3128              DW$337  .dwtag  DW_TAG_member, DW_AT_type(*DW$T$11)
    3129                      .dwattr DW$337, DW_AT_name("all"), DW_AT_symbol_name("_all")
    3130                      .dwattr DW$337, DW_AT_data_member_location[DW_OP_plus_uconst 0x0]
    3131                      .dwattr DW$337, DW_AT_accessibility(DW_ACCESS_public)
    3132              DW$338  .dwtag  DW_TAG_member, DW_AT_type(*DW$T$42)
    3133                      .dwattr DW$338, DW_AT_name("bit2"), DW_AT_symbol_name("_bit2")
    3134                      .dwattr DW$338, DW_AT_data_member_location[DW_OP_plus_uconst 0x0]
    3135                      .dwattr DW$338, DW_AT_accessibility(DW_ACCESS_public)
    3136              DW$339  .dwtag  DW_TAG_member, DW_AT_type(*DW$T$43)
    3137                      .dwattr DW$339, DW_AT_name("bit1"), DW_AT_symbol_name("_bit1")
    3138                      .dwattr DW$339, DW_AT_data_member_location[DW_OP_plus_uconst 0x0]
    3139                      .dwattr DW$339, DW_AT_accessibility(DW_ACCESS_public)
    3140                      .dwendtag DW$T$44
    3141              
    3142              DW$T$47 .dwtag  DW_TAG_typedef, DW_AT_name("reflag_bits_t"), DW_AT_type(*DW$T$46)
    3143                      .dwattr DW$T$47, DW_AT_language(DW_LANG_C)
    3144              DW$T$97 .dwtag  DW_TAG_pointer_type, DW_AT_type(*DW$T$96)
    3145                      .dwattr DW$T$97, DW_AT_address_class(0x16)
    3146              DW$T$24 .dwtag  DW_TAG_pointer_type, DW_AT_type(*DW$T$23)
TMS320C2000 COFF Assembler PC v4.1.3 Wed Jan 12 08:34:31 2011

Tools Copyright (c) 1996-2006 Texas Instruments Incorporated
C:\DOCUME~1\ADMINI~1\LOCALS~1\Temp\TI1043                            PAGE   65

    3147                      .dwattr DW$T$24, DW_AT_address_class(0x16)
    3148              
    3149              DW$T$26 .dwtag  DW_TAG_array_type, DW_AT_type(*DW$T$25)
    3150                      .dwattr DW$T$26, DW_AT_language(DW_LANG_C)
    3151                      .dwattr DW$T$26, DW_AT_byte_size(0x1e)
    3152              DW$340  .dwtag  DW_TAG_subrange_type
    3153                      .dwattr DW$340, DW_AT_upper_bound(0x1d)
    3154                      .dwendtag DW$T$26
    3155              
    3156              DW$T$31 .dwtag  DW_TAG_pointer_type, DW_AT_type(*DW$T$30)
    3157                      .dwattr DW$T$31, DW_AT_address_class(0x16)
    3158              
    3159              DW$T$38 .dwtag  DW_TAG_array_type, DW_AT_type(*DW$T$25)
    3160                      .dwattr DW$T$38, DW_AT_language(DW_LANG_C)
    3161                      .dwattr DW$T$38, DW_AT_byte_size(0x08)
    3162              DW$341  .dwtag  DW_TAG_subrange_type
    3163                      .dwattr DW$341, DW_AT_upper_bound(0x07)
    3164                      .dwendtag DW$T$38
    3165              
    3166              
    3167              DW$T$33 .dwtag  DW_TAG_structure_type
    3168                      .dwattr DW$T$33, DW_AT_name("_phase_param_t")
    3169                      .dwattr DW$T$33, DW_AT_byte_size(0x0a)
    3170              DW$342  .dwtag  DW_TAG_member, DW_AT_type(*DW$T$16)
    3171                      .dwattr DW$342, DW_AT_name("f_U"), DW_AT_symbol_name("_f_U")
    3172                      .dwattr DW$342, DW_AT_data_member_location[DW_OP_plus_uconst 0x0]
    3173                      .dwattr DW$342, DW_AT_accessibility(DW_ACCESS_public)
    3174              DW$343  .dwtag  DW_TAG_member, DW_AT_type(*DW$T$16)
    3175                      .dwattr DW$343, DW_AT_name("f_I"), DW_AT_symbol_name("_f_I")
    3176                      .dwattr DW$343, DW_AT_data_member_location[DW_OP_plus_uconst 0x2]
    3177                      .dwattr DW$343, DW_AT_accessibility(DW_ACCESS_public)
    3178              DW$344  .dwtag  DW_TAG_member, DW_AT_type(*DW$T$16)
    3179                      .dwattr DW$344, DW_AT_name("f_J"), DW_AT_symbol_name("_f_J")
    3180                      .dwattr DW$344, DW_AT_data_member_location[DW_OP_plus_uconst 0x4]
    3181                      .dwattr DW$344, DW_AT_accessibility(DW_ACCESS_public)
    3182              DW$345  .dwtag  DW_TAG_member, DW_AT_type(*DW$T$16)
    3183                      .dwattr DW$345, DW_AT_name("f_P"), DW_AT_symbol_name("_f_P")
    3184                      .dwattr DW$345, DW_AT_data_member_location[DW_OP_plus_uconst 0x6]
    3185                      .dwattr DW$345, DW_AT_accessibility(DW_ACCESS_public)
    3186              DW$346  .dwtag  DW_TAG_member, DW_AT_type(*DW$T$16)
    3187                      .dwattr DW$346, DW_AT_name("f_Q"), DW_AT_symbol_name("_f_Q")
    3188                      .dwattr DW$346, DW_AT_data_member_location[DW_OP_plus_uconst 0x8]
    3189                      .dwattr DW$346, DW_AT_accessibility(DW_ACCESS_public)
    3190                      .dwendtag DW$T$33
    3191              
    3192              
    3193              DW$T$42 .dwtag  DW_TAG_structure_type
    3194                      .dwattr DW$T$42, DW_AT_name("UIDangBit2")
    3195                      .dwattr DW$T$42, DW_AT_byte_size(0x02)
    3196              DW$347  .dwtag  DW_TAG_member, DW_AT_type(*DW$T$11)
    3197                      .dwattr DW$347, DW_AT_name("rsvd1"), DW_AT_symbol_name("_rsvd1")
    3198                      .dwattr DW$347, DW_AT_bit_offset(0x09), DW_AT_bit_size(0x07)
    3199                      .dwattr DW$347, DW_AT_data_member_location[DW_OP_plus_uconst 0x0]
    3200                      .dwattr DW$347, DW_AT_accessibility(DW_ACCESS_public)
    3201              DW$348  .dwtag  DW_TAG_member, DW_AT_type(*DW$T$11)
TMS320C2000 COFF Assembler PC v4.1.3 Wed Jan 12 08:34:31 2011

Tools Copyright (c) 1996-2006 Texas Instruments Incorporated
C:\DOCUME~1\ADMINI~1\LOCALS~1\Temp\TI1043                            PAGE   66

    3202                      .dwattr DW$348, DW_AT_name("UIa"), DW_AT_symbol_name("_UIa")
    3203                      .dwattr DW$348, DW_AT_bit_offset(0x07), DW_AT_bit_size(0x02)
    3204                      .dwattr DW$348, DW_AT_data_member_location[DW_OP_plus_uconst 0x0]
    3205                      .dwattr DW$348, DW_AT_accessibility(DW_ACCESS_public)
    3206              DW$349  .dwtag  DW_TAG_member, DW_AT_type(*DW$T$11)
    3207                      .dwattr DW$349, DW_AT_name("UIb"), DW_AT_symbol_name("_UIb")
    3208                      .dwattr DW$349, DW_AT_bit_offset(0x05), DW_AT_bit_size(0x02)
    3209                      .dwattr DW$349, DW_AT_data_member_location[DW_OP_plus_uconst 0x0]
    3210                      .dwattr DW$349, DW_AT_accessibility(DW_ACCESS_public)
    3211              DW$350  .dwtag  DW_TAG_member, DW_AT_type(*DW$T$11)
    3212                      .dwattr DW$350, DW_AT_name("UIc"), DW_AT_symbol_name("_UIc")
    3213                      .dwattr DW$350, DW_AT_bit_offset(0x03), DW_AT_bit_size(0x02)
    3214                      .dwattr DW$350, DW_AT_data_member_location[DW_OP_plus_uconst 0x0]
    3215                      .dwattr DW$350, DW_AT_accessibility(DW_ACCESS_public)
    3216              DW$351  .dwtag  DW_TAG_member, DW_AT_type(*DW$T$11)
    3217                      .dwattr DW$351, DW_AT_name("rsvd2"), DW_AT_symbol_name("_rsvd2")
    3218                      .dwattr DW$351, DW_AT_bit_offset(0x0c), DW_AT_bit_size(0x04)
    3219                      .dwattr DW$351, DW_AT_data_member_location[DW_OP_plus_uconst 0x1]
    3220                      .dwattr DW$351, DW_AT_accessibility(DW_ACCESS_public)
    3221                      .dwendtag DW$T$42
    3222              
    3223              
    3224              DW$T$43 .dwtag  DW_TAG_structure_type
    3225                      .dwattr DW$T$43, DW_AT_name("UIDangBit1")
    3226                      .dwattr DW$T$43, DW_AT_byte_size(0x01)
    3227              DW$352  .dwtag  DW_TAG_member, DW_AT_type(*DW$T$11)
    3228                      .dwattr DW$352, DW_AT_name("UDangFlag"), DW_AT_symbol_name("_UDangFlag")
    3229                      .dwattr DW$352, DW_AT_bit_offset(0x0d), DW_AT_bit_size(0x03)
    3230                      .dwattr DW$352, DW_AT_data_member_location[DW_OP_plus_uconst 0x0]
    3231                      .dwattr DW$352, DW_AT_accessibility(DW_ACCESS_public)
    3232              DW$353  .dwtag  DW_TAG_member, DW_AT_type(*DW$T$11)
    3233                      .dwattr DW$353, DW_AT_name("IDangFlag"), DW_AT_symbol_name("_IDangFlag")
    3234                      .dwattr DW$353, DW_AT_bit_offset(0x09), DW_AT_bit_size(0x04)
    3235                      .dwattr DW$353, DW_AT_data_member_location[DW_OP_plus_uconst 0x0]
    3236                      .dwattr DW$353, DW_AT_accessibility(DW_ACCESS_public)
    3237              DW$354  .dwtag  DW_TAG_member, DW_AT_type(*DW$T$11)
    3238                      .dwattr DW$354, DW_AT_name("Ia"), DW_AT_symbol_name("_Ia")
    3239                      .dwattr DW$354, DW_AT_bit_offset(0x08), DW_AT_bit_size(0x01)
    3240                      .dwattr DW$354, DW_AT_data_member_location[DW_OP_plus_uconst 0x0]
    3241                      .dwattr DW$354, DW_AT_accessibility(DW_ACCESS_public)
    3242              DW$355  .dwtag  DW_TAG_member, DW_AT_type(*DW$T$11)
    3243                      .dwattr DW$355, DW_AT_name("Ua"), DW_AT_symbol_name("_Ua")
    3244                      .dwattr DW$355, DW_AT_bit_offset(0x07), DW_AT_bit_size(0x01)
    3245                      .dwattr DW$355, DW_AT_data_member_location[DW_OP_plus_uconst 0x0]
    3246                      .dwattr DW$355, DW_AT_accessibility(DW_ACCESS_public)
    3247              DW$356  .dwtag  DW_TAG_member, DW_AT_type(*DW$T$11)
    3248                      .dwattr DW$356, DW_AT_name("Ib"), DW_AT_symbol_name("_Ib")
    3249                      .dwattr DW$356, DW_AT_bit_offset(0x06), DW_AT_bit_size(0x01)
    3250                      .dwattr DW$356, DW_AT_data_member_location[DW_OP_plus_uconst 0x0]
    3251                      .dwattr DW$356, DW_AT_accessibility(DW_ACCESS_public)
    3252              DW$357  .dwtag  DW_TAG_member, DW_AT_type(*DW$T$11)
    3253                      .dwattr DW$357, DW_AT_name("Ub"), DW_AT_symbol_name("_Ub")
    3254                      .dwattr DW$357, DW_AT_bit_offset(0x05), DW_AT_bit_size(0x01)
    3255                      .dwattr DW$357, DW_AT_data_member_location[DW_OP_plus_uconst 0x0]
    3256                      .dwattr DW$357, DW_AT_accessibility(DW_ACCESS_public)
TMS320C2000 COFF Assembler PC v4.1.3 Wed Jan 12 08:34:31 2011

Tools Copyright (c) 1996-2006 Texas Instruments Incorporated
C:\DOCUME~1\ADMINI~1\LOCALS~1\Temp\TI1043                            PAGE   67

    3257              DW$358  .dwtag  DW_TAG_member, DW_AT_type(*DW$T$11)
    3258                      .dwattr DW$358, DW_AT_name("Ic"), DW_AT_symbol_name("_Ic")
    3259                      .dwattr DW$358, DW_AT_bit_offset(0x04), DW_AT_bit_size(0x01)
    3260                      .dwattr DW$358, DW_AT_data_member_location[DW_OP_plus_uconst 0x0]
    3261                      .dwattr DW$358, DW_AT_accessibility(DW_ACCESS_public)
    3262              DW$359  .dwtag  DW_TAG_member, DW_AT_type(*DW$T$11)
    3263                      .dwattr DW$359, DW_AT_name("Uc"), DW_AT_symbol_name("_Uc")
    3264                      .dwattr DW$359, DW_AT_bit_offset(0x03), DW_AT_bit_size(0x01)
    3265                      .dwattr DW$359, DW_AT_data_member_location[DW_OP_plus_uconst 0x0]
    3266                      .dwattr DW$359, DW_AT_accessibility(DW_ACCESS_public)
    3267              DW$360  .dwtag  DW_TAG_member, DW_AT_type(*DW$T$11)
    3268                      .dwattr DW$360, DW_AT_name("Flag3or4Phase"), DW_AT_symbol_name("_Flag3or4Phase")
    3269                      .dwattr DW$360, DW_AT_bit_offset(0x02), DW_AT_bit_size(0x01)
    3270                      .dwattr DW$360, DW_AT_data_member_location[DW_OP_plus_uconst 0x0]
    3271                      .dwattr DW$360, DW_AT_accessibility(DW_ACCESS_public)
    3272              DW$361  .dwtag  DW_TAG_member, DW_AT_type(*DW$T$11)
    3273                      .dwattr DW$361, DW_AT_name("SiglePhaseDL"), DW_AT_symbol_name("_SiglePhaseDL")
    3274                      .dwattr DW$361, DW_AT_bit_offset(0x00), DW_AT_bit_size(0x02)
    3275                      .dwattr DW$361, DW_AT_data_member_location[DW_OP_plus_uconst 0x0]
    3276                      .dwattr DW$361, DW_AT_accessibility(DW_ACCESS_public)
    3277                      .dwendtag DW$T$43
    3278              
    3279              
    3280              DW$T$46 .dwtag  DW_TAG_structure_type
    3281                      .dwattr DW$T$46, DW_AT_byte_size(0x01)
    3282              DW$362  .dwtag  DW_TAG_member, DW_AT_type(*DW$T$11)
    3283                      .dwattr DW$362, DW_AT_name("Mdata_reflag"), DW_AT_symbol_name("_Mdata_reflag")
    3284                      .dwattr DW$362, DW_AT_bit_offset(0x0f), DW_AT_bit_size(0x01)
    3285                      .dwattr DW$362, DW_AT_data_member_location[DW_OP_plus_uconst 0x0]
    3286                      .dwattr DW$362, DW_AT_accessibility(DW_ACCESS_public)
    3287              DW$363  .dwtag  DW_TAG_member, DW_AT_type(*DW$T$11)
    3288                      .dwattr DW$363, DW_AT_name("Edata_Ureflag"), DW_AT_symbol_name("_Edata_Ureflag")
    3289                      .dwattr DW$363, DW_AT_bit_offset(0x0e), DW_AT_bit_size(0x01)
    3290                      .dwattr DW$363, DW_AT_data_member_location[DW_OP_plus_uconst 0x0]
    3291                      .dwattr DW$363, DW_AT_accessibility(DW_ACCESS_public)
    3292              DW$364  .dwtag  DW_TAG_member, DW_AT_type(*DW$T$11)
    3293                      .dwattr DW$364, DW_AT_name("Edata_Ireflag"), DW_AT_symbol_name("_Edata_Ireflag")
    3294                      .dwattr DW$364, DW_AT_bit_offset(0x0d), DW_AT_bit_size(0x01)
    3295                      .dwattr DW$364, DW_AT_data_member_location[DW_OP_plus_uconst 0x0]
    3296                      .dwattr DW$364, DW_AT_accessibility(DW_ACCESS_public)
    3297              DW$365  .dwtag  DW_TAG_member, DW_AT_type(*DW$T$11)
    3298                      .dwattr DW$365, DW_AT_name("Edata_Preflag"), DW_AT_symbol_name("_Edata_Preflag")
    3299                      .dwattr DW$365, DW_AT_bit_offset(0x0c), DW_AT_bit_size(0x01)
    3300                      .dwattr DW$365, DW_AT_data_member_location[DW_OP_plus_uconst 0x0]
    3301                      .dwattr DW$365, DW_AT_accessibility(DW_ACCESS_public)
    3302              DW$366  .dwtag  DW_TAG_member, DW_AT_type(*DW$T$11)
    3303                      .dwattr DW$366, DW_AT_name("Edata_Qreflag"), DW_AT_symbol_name("_Edata_Qreflag")
    3304                      .dwattr DW$366, DW_AT_bit_offset(0x0b), DW_AT_bit_size(0x01)
    3305                      .dwattr DW$366, DW_AT_data_member_location[DW_OP_plus_uconst 0x0]
    3306                      .dwattr DW$366, DW_AT_accessibility(DW_ACCESS_public)
    3307              DW$367  .dwtag  DW_TAG_member, DW_AT_type(*DW$T$11)
    3308                      .dwattr DW$367, DW_AT_name("Edata_Jreflag"), DW_AT_symbol_name("_Edata_Jreflag")
    3309                      .dwattr DW$367, DW_AT_bit_offset(0x0a), DW_AT_bit_size(0x01)
    3310                      .dwattr DW$367, DW_AT_data_member_location[DW_OP_plus_uconst 0x0]
    3311                      .dwattr DW$367, DW_AT_accessibility(DW_ACCESS_public)
TMS320C2000 COFF Assembler PC v4.1.3 Wed Jan 12 08:34:31 2011

Tools Copyright (c) 1996-2006 Texas Instruments Incorporated
C:\DOCUME~1\ADMINI~1\LOCALS~1\Temp\TI1043                            PAGE   68

    3312              DW$368  .dwtag  DW_TAG_member, DW_AT_type(*DW$T$11)
    3313                      .dwattr DW$368, DW_AT_name("reserve"), DW_AT_symbol_name("_reserve")
    3314                      .dwattr DW$368, DW_AT_bit_offset(0x08), DW_AT_bit_size(0x02)
    3315                      .dwattr DW$368, DW_AT_data_member_location[DW_OP_plus_uconst 0x0]
    3316                      .dwattr DW$368, DW_AT_accessibility(DW_ACCESS_public)
    3317                      .dwendtag DW$T$46
    3318              
    3319              DW$T$23 .dwtag  DW_TAG_typedef, DW_AT_name("edit_mem_t"), DW_AT_type(*DW$T$21)
    3320                      .dwattr DW$T$23, DW_AT_language(DW_LANG_C)
    3321              
    3322              DW$T$21 .dwtag  DW_TAG_structure_type
    3323                      .dwattr DW$T$21, DW_AT_name("edit_mem")
    3324                      .dwattr DW$T$21, DW_AT_byte_size(0x08)
    3325              DW$369  .dwtag  DW_TAG_member, DW_AT_type(*DW$T$10)
    3326                      .dwattr DW$369, DW_AT_name("x"), DW_AT_symbol_name("_x")
    3327                      .dwattr DW$369, DW_AT_data_member_location[DW_OP_plus_uconst 0x0]
    3328                      .dwattr DW$369, DW_AT_accessibility(DW_ACCESS_public)
    3329              DW$370  .dwtag  DW_TAG_member, DW_AT_type(*DW$T$10)
    3330                      .dwattr DW$370, DW_AT_name("y"), DW_AT_symbol_name("_y")
    3331                      .dwattr DW$370, DW_AT_data_member_location[DW_OP_plus_uconst 0x1]
    3332                      .dwattr DW$370, DW_AT_accessibility(DW_ACCESS_public)
    3333              DW$371  .dwtag  DW_TAG_member, DW_AT_type(*DW$T$19)
    3334                      .dwattr DW$371, DW_AT_name("eidt_lenth"), DW_AT_symbol_name("_eidt_lenth")
    3335                      .dwattr DW$371, DW_AT_data_member_location[DW_OP_plus_uconst 0x2]
    3336                      .dwattr DW$371, DW_AT_accessibility(DW_ACCESS_public)
    3337              DW$372  .dwtag  DW_TAG_member, DW_AT_type(*DW$T$19)
    3338                      .dwattr DW$372, DW_AT_name("surplus_lenth"), DW_AT_symbol_name("_surplus_lenth")
    3339                      .dwattr DW$372, DW_AT_data_member_location[DW_OP_plus_uconst 0x3]
    3340                      .dwattr DW$372, DW_AT_accessibility(DW_ACCESS_public)
    3341              DW$373  .dwtag  DW_TAG_member, DW_AT_type(*DW$T$19)
    3342                      .dwattr DW$373, DW_AT_name("id"), DW_AT_symbol_name("_id")
    3343                      .dwattr DW$373, DW_AT_data_member_location[DW_OP_plus_uconst 0x4]
    3344                      .dwattr DW$373, DW_AT_accessibility(DW_ACCESS_public)
    3345              DW$374  .dwtag  DW_TAG_member, DW_AT_type(*DW$T$20)
    3346                      .dwattr DW$374, DW_AT_name("next_edit"), DW_AT_symbol_name("_next_edit")
    3347                      .dwattr DW$374, DW_AT_data_member_location[DW_OP_plus_uconst 0x6]
    3348                      .dwattr DW$374, DW_AT_accessibility(DW_ACCESS_public)
    3349                      .dwendtag DW$T$21
    3350              
    3351              DW$T$20 .dwtag  DW_TAG_pointer_type, DW_AT_type(*DW$T$21)
    3352                      .dwattr DW$T$20, DW_AT_address_class(0x16)
    3353              
    3354                      .dwattr DW$174, DW_AT_external(0x01)
    3355                      .dwattr DW$138, DW_AT_external(0x01)
    3356                      .dwattr DW$138, DW_AT_type(*DW$T$6)
    3357                      .dwattr DW$170, DW_AT_external(0x01)
    3358                      .dwattr DW$170, DW_AT_type(*DW$T$6)
    3359                      .dwattr DW$166, DW_AT_external(0x01)
    3360                      .dwattr DW$166, DW_AT_type(*DW$T$6)
    3361                      .dwattr DW$112, DW_AT_external(0x01)
    3362                      .dwattr DW$112, DW_AT_type(*DW$T$6)
    3363                      .dwattr DW$90, DW_AT_external(0x01)
    3364                      .dwattr DW$102, DW_AT_external(0x01)
    3365                      .dwattr DW$102, DW_AT_type(*DW$T$91)
    3366                      .dwattr DW$96, DW_AT_external(0x01)
TMS320C2000 COFF Assembler PC v4.1.3 Wed Jan 12 08:34:31 2011

Tools Copyright (c) 1996-2006 Texas Instruments Incorporated
C:\DOCUME~1\ADMINI~1\LOCALS~1\Temp\TI1043                            PAGE   69

    3367                      .dwattr DW$205, DW_AT_external(0x01)
    3368                      .dwattr DW$206, DW_AT_external(0x01)
    3369                      .dwattr DW$187, DW_AT_external(0x01)
    3370                      .dwattr DW$CU, DW_AT_language(DW_LANG_C)
    3371              
    3372              ;***************************************************************
    3373              ;* DWARF CIE ENTRIES                                           *
    3374              ;***************************************************************
    3375              
    3376              DW$CIE  .dwcie 1, 40
    3377                      .dwcfa  0x0c, 20, 0
    3378                      .dwcfa  0x07, 0
    3379                      .dwcfa  0x07, 1
    3380                      .dwcfa  0x07, 2
    3381                      .dwcfa  0x07, 3
    3382                      .dwcfa  0x07, 4
    3383                      .dwcfa  0x07, 5
    3384                      .dwcfa  0x08, 6
    3385                      .dwcfa  0x08, 7
    3386                      .dwcfa  0x08, 8
    3387                      .dwcfa  0x08, 9
    3388                      .dwcfa  0x08, 10
    3389                      .dwcfa  0x08, 11
    3390                      .dwcfa  0x07, 12
    3391                      .dwcfa  0x07, 13
    3392                      .dwcfa  0x07, 14
    3393                      .dwcfa  0x07, 15
    3394                      .dwcfa  0x07, 16
    3395                      .dwcfa  0x07, 17
    3396                      .dwcfa  0x07, 18
    3397                      .dwcfa  0x07, 19
    3398                      .dwcfa  0x07, 20
    3399                      .dwcfa  0x07, 21
    3400                      .dwcfa  0x07, 22
    3401                      .dwcfa  0x07, 23
    3402                      .dwcfa  0x07, 24
    3403                      .dwcfa  0x07, 25
    3404                      .dwcfa  0x07, 26
    3405                      .dwcfa  0x08, 27
    3406                      .dwcfa  0x07, 28
    3407                      .dwcfa  0x07, 29
    3408                      .dwcfa  0x07, 30
    3409                      .dwcfa  0x07, 31
    3410                      .dwcfa  0x07, 32
    3411                      .dwcfa  0x07, 33
    3412                      .dwcfa  0x07, 34
    3413                      .dwcfa  0x07, 35
    3414                      .dwcfa  0x07, 36
    3415                      .dwcfa  0x07, 37
    3416                      .dwcfa  0x07, 38
    3417                      .dwcfa  0x07, 39
    3418                      .dwcfa  0x07, 40
    3419              
    3420              ;***************************************************************
    3421              ;* DWARF REGISTER MAP                                          *
TMS320C2000 COFF Assembler PC v4.1.3 Wed Jan 12 08:34:31 2011

Tools Copyright (c) 1996-2006 Texas Instruments Incorporated
C:\DOCUME~1\ADMINI~1\LOCALS~1\Temp\TI1043                            PAGE   70

    3422              ;***************************************************************
    3423              
    3424              DW$375  .dwtag  DW_TAG_assign_register, DW_AT_name("AL")
    3425                      .dwattr DW$375, DW_AT_location[DW_OP_reg0]
    3426              DW$376  .dwtag  DW_TAG_assign_register, DW_AT_name("AH")
    3427                      .dwattr DW$376, DW_AT_location[DW_OP_reg1]
    3428              DW$377  .dwtag  DW_TAG_assign_register, DW_AT_name("PL")
    3429                      .dwattr DW$377, DW_AT_location[DW_OP_reg2]
    3430              DW$378  .dwtag  DW_TAG_assign_register, DW_AT_name("PH")
    3431                      .dwattr DW$378, DW_AT_location[DW_OP_reg3]
    3432              DW$379  .dwtag  DW_TAG_assign_register, DW_AT_name("AR0")
    3433                      .dwattr DW$379, DW_AT_location[DW_OP_reg4]
    3434              DW$380  .dwtag  DW_TAG_assign_register, DW_AT_name("XAR0")
    3435                      .dwattr DW$380, DW_AT_location[DW_OP_reg5]
    3436              DW$381  .dwtag  DW_TAG_assign_register, DW_AT_name("AR1")
    3437                      .dwattr DW$381, DW_AT_location[DW_OP_reg6]
    3438              DW$382  .dwtag  DW_TAG_assign_register, DW_AT_name("XAR1")
    3439                      .dwattr DW$382, DW_AT_location[DW_OP_reg7]
    3440              DW$383  .dwtag  DW_TAG_assign_register, DW_AT_name("AR2")
    3441                      .dwattr DW$383, DW_AT_location[DW_OP_reg8]
    3442              DW$384  .dwtag  DW_TAG_assign_register, DW_AT_name("XAR2")
    3443                      .dwattr DW$384, DW_AT_location[DW_OP_reg9]
    3444              DW$385  .dwtag  DW_TAG_assign_register, DW_AT_name("AR3")
    3445                      .dwattr DW$385, DW_AT_location[DW_OP_reg10]
    3446              DW$386  .dwtag  DW_TAG_assign_register, DW_AT_name("XAR3")
    3447                      .dwattr DW$386, DW_AT_location[DW_OP_reg11]
    3448              DW$387  .dwtag  DW_TAG_assign_register, DW_AT_name("AR4")
    3449                      .dwattr DW$387, DW_AT_location[DW_OP_reg12]
    3450              DW$388  .dwtag  DW_TAG_assign_register, DW_AT_name("XAR4")
    3451                      .dwattr DW$388, DW_AT_location[DW_OP_reg13]
    3452              DW$389  .dwtag  DW_TAG_assign_register, DW_AT_name("AR5")
    3453                      .dwattr DW$389, DW_AT_location[DW_OP_reg14]
    3454              DW$390  .dwtag  DW_TAG_assign_register, DW_AT_name("XAR5")
    3455                      .dwattr DW$390, DW_AT_location[DW_OP_reg15]
    3456              DW$391  .dwtag  DW_TAG_assign_register, DW_AT_name("AR6")
    3457                      .dwattr DW$391, DW_AT_location[DW_OP_reg16]
    3458              DW$392  .dwtag  DW_TAG_assign_register, DW_AT_name("XAR6")
    3459                      .dwattr DW$392, DW_AT_location[DW_OP_reg17]
    3460              DW$393  .dwtag  DW_TAG_assign_register, DW_AT_name("AR7")
    3461                      .dwattr DW$393, DW_AT_location[DW_OP_reg18]
    3462              DW$394  .dwtag  DW_TAG_assign_register, DW_AT_name("XAR7")
    3463                      .dwattr DW$394, DW_AT_location[DW_OP_reg19]
    3464              DW$395  .dwtag  DW_TAG_assign_register, DW_AT_name("SP")
    3465                      .dwattr DW$395, DW_AT_location[DW_OP_reg20]
    3466              DW$396  .dwtag  DW_TAG_assign_register, DW_AT_name("XT")
    3467                      .dwattr DW$396, DW_AT_location[DW_OP_reg21]
    3468              DW$397  .dwtag  DW_TAG_assign_register, DW_AT_name("T")
    3469                      .dwattr DW$397, DW_AT_location[DW_OP_reg22]
    3470              DW$398  .dwtag  DW_TAG_assign_register, DW_AT_name("ST0")
    3471                      .dwattr DW$398, DW_AT_location[DW_OP_reg23]
    3472              DW$399  .dwtag  DW_TAG_assign_register, DW_AT_name("ST1")
    3473                      .dwattr DW$399, DW_AT_location[DW_OP_reg24]
    3474              DW$400  .dwtag  DW_TAG_assign_register, DW_AT_name("PC")
    3475                      .dwattr DW$400, DW_AT_location[DW_OP_reg25]
    3476              DW$401  .dwtag  DW_TAG_assign_register, DW_AT_name("RPC")
TMS320C2000 COFF Assembler PC v4.1.3 Wed Jan 12 08:34:31 2011

Tools Copyright (c) 1996-2006 Texas Instruments Incorporated
C:\DOCUME~1\ADMINI~1\LOCALS~1\Temp\TI1043                            PAGE   71

    3477                      .dwattr DW$401, DW_AT_location[DW_OP_reg26]
    3478              DW$402  .dwtag  DW_TAG_assign_register, DW_AT_name("FP")
    3479                      .dwattr DW$402, DW_AT_location[DW_OP_reg27]
    3480              DW$403  .dwtag  DW_TAG_assign_register, DW_AT_name("DP")
    3481                      .dwattr DW$403, DW_AT_location[DW_OP_reg28]
    3482              DW$404  .dwtag  DW_TAG_assign_register, DW_AT_name("SXM")
    3483                      .dwattr DW$404, DW_AT_location[DW_OP_reg29]
    3484              DW$405  .dwtag  DW_TAG_assign_register, DW_AT_name("PM")
    3485                      .dwattr DW$405, DW_AT_location[DW_OP_reg30]
    3486              DW$406  .dwtag  DW_TAG_assign_register, DW_AT_name("OVM")
    3487                      .dwattr DW$406, DW_AT_location[DW_OP_reg31]
    3488              DW$407  .dwtag  DW_TAG_assign_register, DW_AT_name("PAGE0")
    3489                      .dwattr DW$407, DW_AT_location[DW_OP_regx 0x20]
    3490              DW$408  .dwtag  DW_TAG_assign_register, DW_AT_name("AMODE")
    3491                      .dwattr DW$408, DW_AT_location[DW_OP_regx 0x21]
    3492              DW$409  .dwtag  DW_TAG_assign_register, DW_AT_name("IFR")
    3493                      .dwattr DW$409, DW_AT_location[DW_OP_regx 0x22]
    3494              DW$410  .dwtag  DW_TAG_assign_register, DW_AT_name("IER")
    3495                      .dwattr DW$410, DW_AT_location[DW_OP_regx 0x23]
    3496              DW$411  .dwtag  DW_TAG_assign_register, DW_AT_name("IER")
    3497                      .dwattr DW$411, DW_AT_location[DW_OP_regx 0x24]
    3498              DW$412  .dwtag  DW_TAG_assign_register, DW_AT_name("PSEUDO")
    3499                      .dwattr DW$412, DW_AT_location[DW_OP_regx 0x25]
    3500              DW$413  .dwtag  DW_TAG_assign_register, DW_AT_name("PSEUDOH")
    3501                      .dwattr DW$413, DW_AT_location[DW_OP_regx 0x26]
    3502              DW$414  .dwtag  DW_TAG_assign_register, DW_AT_name("VOL")
    3503                      .dwattr DW$414, DW_AT_location[DW_OP_regx 0x27]
    3504              DW$415  .dwtag  DW_TAG_assign_register, DW_AT_name("CIE_RETA")
    3505                      .dwattr DW$415, DW_AT_location[DW_OP_regx 0x28]
    3506                      .dwendtag DW$CU
    3507              

No Assembly Errors, No Assembly Warnings
