TMS320C2000 COFF Assembler PC v4.1.3 Sat Sep 24 16:15:23 2011

Tools Copyright (c) 1996-2006 Texas Instruments Incorporated
C:\DOCUME~1\ADMINI~1\LOCALS~1\Temp\TI3202                            PAGE    1

       1              ;***************************************************************
       2              ;* TMS320C2000 C/C++ Codegen                         PC v4.1.3 *
       3              ;* Date/Time created: Sat Sep 24 16:15:23 2011                 *
       4              ;***************************************************************
       5                      .compiler_opts --mem_model:code=flat --mem_model:data=large --silicon_version=28 
       6        0002  FP      .set    XAR2
       7              
       8              DW$CU   .dwtag  DW_TAG_compile_unit
       9                      .dwattr DW$CU, DW_AT_name("os_mod_maneger.c")
      10                      .dwattr DW$CU, DW_AT_producer("TMS320C2000 C/C++ Codegen PC v4.1.3 Copyright (c) 1996-2006 Texas Inst
      11                      .dwattr DW$CU, DW_AT_stmt_list(0x00)
      12                      .dwattr DW$CU, DW_AT_TI_VERSION(0x01)
      13              ;**************************************************************
      14              ;* CINIT RECORDS                                              *
      15              ;**************************************************************
      16 00000000               .sect   ".cinit"
      17                      .align  1
      18 00000000 FFFF          .field          -1,16
      19 00000001 0000-         .field          _m_reboot_flag+0,32
         00000002 0000 
      20 00000003 0000          .field          0,16                    ; _m_reboot_flag @ 0
      21              
      22 00000004               .sect   ".cinit"
      23                      .align  1
      24 00000004 FFFF          .field          -1,16
      25 00000005 0001-         .field          _m_last_mod_id+0,32
         00000006 0000 
      26 00000007 0000          .field          0,16                    ; _m_last_mod_id @ 0
      27              
      28 00000008               .sect   ".cinit"
      29                      .align  1
      30 00000008 FFFF          .field          -1,16
      31 00000009 0002-         .field          _m_cur_mod_id+0,32
         0000000a 0000 
      32 0000000b 0000          .field          0,16                    ; _m_cur_mod_id @ 0
      33              
      34 0000000c               .sect   ".cinit"
      35                      .align  1
      36 0000000c FFFE          .field          -2,16
      37 0000000d 0004-         .field          _m_mod_hmsg_qevent+0,32
         0000000e 0000 
      38 0000000f 0000          .field          0,32                    ; _m_mod_hmsg_qevent @ 0
         00000010 0000 
      39              
      40 00000011               .sect   ".cinit"
      41                      .align  1
      42 00000011 FFFE          .field          -2,16
      43 00000012 0006-         .field          _m_mod_hmsg_sem+0,32
         00000013 0000 
      44 00000014 0000          .field          0,32                    ; _m_mod_hmsg_sem @ 0
         00000015 0000 
      45              
      46 00000016               .sect   ".cinit"
      47                      .align  1
      48 00000016 FFFF          .field          -IR_1,16
TMS320C2000 COFF Assembler PC v4.1.3 Sat Sep 24 16:15:23 2011

Tools Copyright (c) 1996-2006 Texas Instruments Incorporated
C:\DOCUME~1\ADMINI~1\LOCALS~1\Temp\TI3202                            PAGE    2

      49 00000017 001A-         .field          _m_mod_pos_name+0,32
         00000018 0000 
      50 00000019 0000          .field          0,16                    ; _m_mod_pos_name[0] @ 0
      51        0001  IR_1:   .set    1
      52              
      53              
      54              DW$1    .dwtag  DW_TAG_subprogram, DW_AT_name("os_q_creat"), DW_AT_symbol_name("_os_q_creat")
      55                      .dwattr DW$1, DW_AT_declaration(0x01)
      56                      .dwattr DW$1, DW_AT_external(0x01)
      57              DW$2    .dwtag  DW_TAG_formal_parameter, DW_AT_type(*DW$T$48)
      58              DW$3    .dwtag  DW_TAG_formal_parameter, DW_AT_type(*DW$T$39)
      59              DW$4    .dwtag  DW_TAG_formal_parameter, DW_AT_type(*DW$T$11)
      60                      .dwendtag DW$1
      61              
      62              
      63              DW$5    .dwtag  DW_TAG_subprogram, DW_AT_name("OSTimeDly"), DW_AT_symbol_name("_OSTimeDly")
      64                      .dwattr DW$5, DW_AT_declaration(0x01)
      65                      .dwattr DW$5, DW_AT_external(0x01)
      66              DW$6    .dwtag  DW_TAG_formal_parameter, DW_AT_type(*DW$T$20)
      67                      .dwendtag DW$5
      68              
      69              
      70              DW$7    .dwtag  DW_TAG_subprogram, DW_AT_name("app_module_handle_hook"), DW_AT_symbol_name("_app_module_handl
      71                      .dwattr DW$7, DW_AT_declaration(0x01)
      72                      .dwattr DW$7, DW_AT_external(0x01)
      73              
      74              DW$8    .dwtag  DW_TAG_subprogram, DW_AT_name("global_memset"), DW_AT_symbol_name("_global_memset")
      75                      .dwattr DW$8, DW_AT_declaration(0x01)
      76                      .dwattr DW$8, DW_AT_external(0x01)
      77              DW$9    .dwtag  DW_TAG_formal_parameter, DW_AT_type(*DW$T$3)
      78              DW$10   .dwtag  DW_TAG_formal_parameter, DW_AT_type(*DW$T$6)
      79              DW$11   .dwtag  DW_TAG_formal_parameter, DW_AT_type(*DW$T$23)
      80                      .dwendtag DW$8
      81              
      82                      .global _m_reboot_flag
      83 00000000       _m_reboot_flag: .usect  ".ebss",1,1,0
      84              DW$12   .dwtag  DW_TAG_variable, DW_AT_name("m_reboot_flag"), DW_AT_symbol_name("_m_reboot_flag")
      85                      .dwattr DW$12, DW_AT_location[DW_OP_addr _m_reboot_flag]
      86                      .dwattr DW$12, DW_AT_type(*DW$T$23)
      87                      .dwattr DW$12, DW_AT_external(0x01)
      88              
      89              DW$13   .dwtag  DW_TAG_subprogram, DW_AT_name("OSQPost"), DW_AT_symbol_name("_OSQPost")
      90                      .dwattr DW$13, DW_AT_type(*DW$T$19)
      91                      .dwattr DW$13, DW_AT_declaration(0x01)
      92                      .dwattr DW$13, DW_AT_external(0x01)
      93              DW$14   .dwtag  DW_TAG_formal_parameter, DW_AT_type(*DW$T$35)
      94              DW$15   .dwtag  DW_TAG_formal_parameter, DW_AT_type(*DW$T$3)
      95                      .dwendtag DW$13
      96              
      97                      .global _m_last_mod_id
      98 00000001       _m_last_mod_id: .usect  ".ebss",1,1,0
      99              DW$16   .dwtag  DW_TAG_variable, DW_AT_name("m_last_mod_id"), DW_AT_symbol_name("_m_last_mod_id")
     100                      .dwattr DW$16, DW_AT_location[DW_OP_addr _m_last_mod_id]
     101                      .dwattr DW$16, DW_AT_type(*DW$T$23)
     102                      .dwattr DW$16, DW_AT_external(0x01)
TMS320C2000 COFF Assembler PC v4.1.3 Sat Sep 24 16:15:23 2011

Tools Copyright (c) 1996-2006 Texas Instruments Incorporated
C:\DOCUME~1\ADMINI~1\LOCALS~1\Temp\TI3202                            PAGE    3

     103                      .global _m_cur_mod_id
     104 00000002       _m_cur_mod_id:  .usect  ".ebss",1,1,0
     105              DW$17   .dwtag  DW_TAG_variable, DW_AT_name("m_cur_mod_id"), DW_AT_symbol_name("_m_cur_mod_id")
     106                      .dwattr DW$17, DW_AT_location[DW_OP_addr _m_cur_mod_id]
     107                      .dwattr DW$17, DW_AT_type(*DW$T$23)
     108                      .dwattr DW$17, DW_AT_external(0x01)
     109              
     110              DW$18   .dwtag  DW_TAG_subprogram, DW_AT_name("global_strlen"), DW_AT_symbol_name("_global_strlen")
     111                      .dwattr DW$18, DW_AT_type(*DW$T$23)
     112                      .dwattr DW$18, DW_AT_declaration(0x01)
     113                      .dwattr DW$18, DW_AT_external(0x01)
     114              DW$19   .dwtag  DW_TAG_formal_parameter, DW_AT_type(*DW$T$62)
     115                      .dwendtag DW$18
     116              
     117              
     118              DW$20   .dwtag  DW_TAG_subprogram, DW_AT_name("os_sem_pend"), DW_AT_symbol_name("_os_sem_pend")
     119                      .dwattr DW$20, DW_AT_type(*DW$T$6)
     120                      .dwattr DW$20, DW_AT_declaration(0x01)
     121                      .dwattr DW$20, DW_AT_external(0x01)
     122              DW$21   .dwtag  DW_TAG_formal_parameter, DW_AT_type(*DW$T$69)
     123              DW$22   .dwtag  DW_TAG_formal_parameter, DW_AT_type(*DW$T$11)
     124                      .dwendtag DW$20
     125              
     126              
     127              DW$23   .dwtag  DW_TAG_subprogram, DW_AT_name("os_sem_creat"), DW_AT_symbol_name("_os_sem_creat")
     128                      .dwattr DW$23, DW_AT_type(*DW$T$6)
     129                      .dwattr DW$23, DW_AT_declaration(0x01)
     130                      .dwattr DW$23, DW_AT_external(0x01)
     131              DW$24   .dwtag  DW_TAG_formal_parameter, DW_AT_type(*DW$T$70)
     132              DW$25   .dwtag  DW_TAG_formal_parameter, DW_AT_type(*DW$T$11)
     133                      .dwendtag DW$23
     134              
     135              
     136              DW$26   .dwtag  DW_TAG_subprogram, DW_AT_name("OSSemPost"), DW_AT_symbol_name("_OSSemPost")
     137                      .dwattr DW$26, DW_AT_type(*DW$T$19)
     138                      .dwattr DW$26, DW_AT_declaration(0x01)
     139                      .dwattr DW$26, DW_AT_external(0x01)
     140              DW$27   .dwtag  DW_TAG_formal_parameter, DW_AT_type(*DW$T$35)
     141                      .dwendtag DW$26
     142              
     143                      .global _m_mod_hmsg_qevent
     144 00000004       _m_mod_hmsg_qevent:     .usect  ".ebss",2,1,1
     145              DW$28   .dwtag  DW_TAG_variable, DW_AT_name("m_mod_hmsg_qevent"), DW_AT_symbol_name("_m_mod_hmsg_qevent")
     146                      .dwattr DW$28, DW_AT_location[DW_OP_addr _m_mod_hmsg_qevent]
     147                      .dwattr DW$28, DW_AT_type(*DW$T$47)
     148                      .dwattr DW$28, DW_AT_external(0x01)
     149                      .global _m_mod_hmsg_sem
     150 00000006       _m_mod_hmsg_sem:        .usect  ".ebss",2,1,1
     151              DW$29   .dwtag  DW_TAG_variable, DW_AT_name("m_mod_hmsg_sem"), DW_AT_symbol_name("_m_mod_hmsg_sem")
     152                      .dwattr DW$29, DW_AT_location[DW_OP_addr _m_mod_hmsg_sem]
     153                      .dwattr DW$29, DW_AT_type(*DW$T$69)
     154                      .dwattr DW$29, DW_AT_external(0x01)
     155              
     156              DW$30   .dwtag  DW_TAG_subprogram, DW_AT_name("memset"), DW_AT_symbol_name("_memset")
     157                      .dwattr DW$30, DW_AT_type(*DW$T$3)
TMS320C2000 COFF Assembler PC v4.1.3 Sat Sep 24 16:15:23 2011

Tools Copyright (c) 1996-2006 Texas Instruments Incorporated
C:\DOCUME~1\ADMINI~1\LOCALS~1\Temp\TI3202                            PAGE    4

     158                      .dwattr DW$30, DW_AT_declaration(0x01)
     159                      .dwattr DW$30, DW_AT_external(0x01)
     160              DW$31   .dwtag  DW_TAG_formal_parameter, DW_AT_type(*DW$T$3)
     161              DW$32   .dwtag  DW_TAG_formal_parameter, DW_AT_type(*DW$T$10)
     162              DW$33   .dwtag  DW_TAG_formal_parameter, DW_AT_type(*DW$T$40)
     163                      .dwendtag DW$30
     164              
     165              
     166              DW$34   .dwtag  DW_TAG_subprogram, DW_AT_name("global_strcpy"), DW_AT_symbol_name("_global_strcpy")
     167                      .dwattr DW$34, DW_AT_type(*DW$T$62)
     168                      .dwattr DW$34, DW_AT_declaration(0x01)
     169                      .dwattr DW$34, DW_AT_external(0x01)
     170              DW$35   .dwtag  DW_TAG_formal_parameter, DW_AT_type(*DW$T$62)
     171              DW$36   .dwtag  DW_TAG_formal_parameter, DW_AT_type(*DW$T$62)
     172                      .dwendtag DW$34
     173              
     174              
     175              DW$37   .dwtag  DW_TAG_subprogram, DW_AT_name("OSQPend"), DW_AT_symbol_name("_OSQPend")
     176                      .dwattr DW$37, DW_AT_type(*DW$T$3)
     177                      .dwattr DW$37, DW_AT_declaration(0x01)
     178                      .dwattr DW$37, DW_AT_external(0x01)
     179              DW$38   .dwtag  DW_TAG_formal_parameter, DW_AT_type(*DW$T$35)
     180              DW$39   .dwtag  DW_TAG_formal_parameter, DW_AT_type(*DW$T$20)
     181              DW$40   .dwtag  DW_TAG_formal_parameter, DW_AT_type(*DW$T$36)
     182                      .dwendtag DW$37
     183              
     184                      .global _m_mod_hqmsg_buf
     185 00000008       _m_mod_hqmsg_buf:       .usect  ".ebss",6,1,1
     186              DW$41   .dwtag  DW_TAG_variable, DW_AT_name("m_mod_hqmsg_buf"), DW_AT_symbol_name("_m_mod_hqmsg_buf")
     187                      .dwattr DW$41, DW_AT_location[DW_OP_addr _m_mod_hqmsg_buf]
     188                      .dwattr DW$41, DW_AT_type(*DW$T$43)
     189                      .dwattr DW$41, DW_AT_external(0x01)
     190                      .global _m_mod_hmsg_box
     191 0000000e       _m_mod_hmsg_box:        .usect  ".ebss",12,1,0
     192              DW$42   .dwtag  DW_TAG_variable, DW_AT_name("m_mod_hmsg_box"), DW_AT_symbol_name("_m_mod_hmsg_box")
     193                      .dwattr DW$42, DW_AT_location[DW_OP_addr _m_mod_hmsg_box]
     194                      .dwattr DW$42, DW_AT_type(*DW$T$90)
     195                      .dwattr DW$42, DW_AT_external(0x01)
     196              DW$43   .dwtag  DW_TAG_variable, DW_AT_name("g_module_id_array"), DW_AT_symbol_name("_g_module_id_array")
     197                      .dwattr DW$43, DW_AT_type(*DW$T$92)
     198                      .dwattr DW$43, DW_AT_declaration(0x01)
     199                      .dwattr DW$43, DW_AT_external(0x01)
     200                      .global _m_mod_pos_name
     201 0000001a       _m_mod_pos_name:        .usect  ".ebss",20,1,0
     202              DW$44   .dwtag  DW_TAG_variable, DW_AT_name("m_mod_pos_name"), DW_AT_symbol_name("_m_mod_pos_name")
     203                      .dwattr DW$44, DW_AT_location[DW_OP_addr _m_mod_pos_name]
     204                      .dwattr DW$44, DW_AT_type(*DW$T$83)
     205                      .dwattr DW$44, DW_AT_external(0x01)
     206                      .global _m_mod_maneger_array
     207 00000040       _m_mod_maneger_array:   .usect  ".ebss",92,1,1
     208              DW$45   .dwtag  DW_TAG_variable, DW_AT_name("m_mod_maneger_array"), DW_AT_symbol_name("_m_mod_maneger_array")
     209                      .dwattr DW$45, DW_AT_location[DW_OP_addr _m_mod_maneger_array]
     210                      .dwattr DW$45, DW_AT_type(*DW$T$93)
     211                      .dwattr DW$45, DW_AT_external(0x01)
     212              ;       C:\CCStudio_v3.3\C2000\cgtools\bin\ac2000.exe -@C:\DOCUME~1\ADMINI~1\LOCALS~1\Temp\TI3204 
TMS320C2000 COFF Assembler PC v4.1.3 Sat Sep 24 16:15:23 2011

Tools Copyright (c) 1996-2006 Texas Instruments Incorporated
C:\DOCUME~1\ADMINI~1\LOCALS~1\Temp\TI3202                            PAGE    5

     213 00000000               .sect   ".text"
     214                      .global _app_module_start_hook
     215              
     216              DW$46   .dwtag  DW_TAG_subprogram, DW_AT_name("app_module_start_hook"), DW_AT_symbol_name("_app_module_start_
     217                      .dwattr DW$46, DW_AT_low_pc(_app_module_start_hook)
     218                      .dwattr DW$46, DW_AT_high_pc(0x00)
     219                      .dwattr DW$46, DW_AT_begin_file("os_mod_maneger.c")
     220                      .dwattr DW$46, DW_AT_begin_line(0x23)
     221                      .dwattr DW$46, DW_AT_begin_column(0x06)
     222                      .dwpsn  "os_mod_maneger.c",36,1
     223              
     224                      .dwfde DW$CIE
     225              
     226              ;***************************************************************
     227              ;* FNAME: _app_module_start_hook        FR SIZE:   2           *
     228              ;*                                                             *
     229              ;* FUNCTION ENVIRONMENT                                        *
     230              ;*                                                             *
     231              ;* FUNCTION PROPERTIES                                         *
     232              ;*                            0 Parameter,  2 Auto,  0 SOE     *
     233              ;***************************************************************
     234              
     235              _app_module_start_hook:
     236                      .dwcfa  0x1d, -2
     237                      .dwcfa  0x1c, 26, 0
     238                      .dwcfa  0x09, 40, 26
     239 00000000 FE02          ADDB      SP,#2
     240                      .dwcfa  0x1d, -4
     241              ;* AR4   assigned to _arg
     242              DW$47   .dwtag  DW_TAG_formal_parameter, DW_AT_name("arg"), DW_AT_symbol_name("_arg")
     243                      .dwattr DW$47, DW_AT_type(*DW$T$3)
     244                      .dwattr DW$47, DW_AT_location[DW_OP_reg12]
     245              DW$48   .dwtag  DW_TAG_variable, DW_AT_name("arg"), DW_AT_symbol_name("_arg")
     246                      .dwattr DW$48, DW_AT_type(*DW$T$3)
     247                      .dwattr DW$48, DW_AT_location[DW_OP_breg20 -2]
     248 00000001 A842          MOVL      *-SP[2],XAR4          ; |36| 
     249                      .dwpsn  "os_mod_maneger.c",37,2
     250                      .dwpsn  "os_mod_maneger.c",38,1
     251 00000002 FE82          SUBB      SP,#2
     252                      .dwcfa  0x1d, -2
     253 00000003 0006          LRETR
     254                      ; return occurs
     255                      .dwattr DW$46, DW_AT_end_file("os_mod_maneger.c")
     256                      .dwattr DW$46, DW_AT_end_line(0x26)
     257                      .dwattr DW$46, DW_AT_end_column(0x01)
     258                      .dwendentry
     259                      .dwendtag DW$46
     260              
     261 00000004               .sect   ".text"
     262                      .global _app_module_stop_hook
     263              
     264              DW$49   .dwtag  DW_TAG_subprogram, DW_AT_name("app_module_stop_hook"), DW_AT_symbol_name("_app_module_stop_ho
     265                      .dwattr DW$49, DW_AT_low_pc(_app_module_stop_hook)
     266                      .dwattr DW$49, DW_AT_high_pc(0x00)
     267                      .dwattr DW$49, DW_AT_begin_file("os_mod_maneger.c")
TMS320C2000 COFF Assembler PC v4.1.3 Sat Sep 24 16:15:23 2011

Tools Copyright (c) 1996-2006 Texas Instruments Incorporated
C:\DOCUME~1\ADMINI~1\LOCALS~1\Temp\TI3202                            PAGE    6

     268                      .dwattr DW$49, DW_AT_begin_line(0x27)
     269                      .dwattr DW$49, DW_AT_begin_column(0x06)
     270                      .dwpsn  "os_mod_maneger.c",40,1
     271              
     272                      .dwfde DW$CIE
     273              
     274              ;***************************************************************
     275              ;* FNAME: _app_module_stop_hook         FR SIZE:   2           *
     276              ;*                                                             *
     277              ;* FUNCTION ENVIRONMENT                                        *
     278              ;*                                                             *
     279              ;* FUNCTION PROPERTIES                                         *
     280              ;*                            0 Parameter,  2 Auto,  0 SOE     *
     281              ;***************************************************************
     282              
     283              _app_module_stop_hook:
     284                      .dwcfa  0x1d, -2
     285                      .dwcfa  0x1c, 26, 0
     286                      .dwcfa  0x09, 40, 26
     287 00000004 FE02          ADDB      SP,#2
     288                      .dwcfa  0x1d, -4
     289              ;* AR4   assigned to _arg
     290              DW$50   .dwtag  DW_TAG_formal_parameter, DW_AT_name("arg"), DW_AT_symbol_name("_arg")
     291                      .dwattr DW$50, DW_AT_type(*DW$T$3)
     292                      .dwattr DW$50, DW_AT_location[DW_OP_reg12]
     293              DW$51   .dwtag  DW_TAG_variable, DW_AT_name("arg"), DW_AT_symbol_name("_arg")
     294                      .dwattr DW$51, DW_AT_type(*DW$T$3)
     295                      .dwattr DW$51, DW_AT_location[DW_OP_breg20 -2]
     296 00000005 A842          MOVL      *-SP[2],XAR4          ; |40| 
     297                      .dwpsn  "os_mod_maneger.c",41,2
     298                      .dwpsn  "os_mod_maneger.c",42,1
     299 00000006 FE82          SUBB      SP,#2
     300                      .dwcfa  0x1d, -2
     301 00000007 0006          LRETR
     302                      ; return occurs
     303                      .dwattr DW$49, DW_AT_end_file("os_mod_maneger.c")
     304                      .dwattr DW$49, DW_AT_end_line(0x2a)
     305                      .dwattr DW$49, DW_AT_end_column(0x01)
     306                      .dwendentry
     307                      .dwendtag DW$49
     308              
     309 00000008               .sect   ".text"
     310                      .global _app_module_start
     311              
     312              DW$52   .dwtag  DW_TAG_subprogram, DW_AT_name("app_module_start"), DW_AT_symbol_name("_app_module_start")
     313                      .dwattr DW$52, DW_AT_low_pc(_app_module_start)
     314                      .dwattr DW$52, DW_AT_high_pc(0x00)
     315                      .dwattr DW$52, DW_AT_begin_file("os_mod_maneger.c")
     316                      .dwattr DW$52, DW_AT_begin_line(0x33)
     317                      .dwattr DW$52, DW_AT_begin_column(0x06)
     318                      .dwpsn  "os_mod_maneger.c",52,1
     319              
     320                      .dwfde DW$CIE
     321              
     322              ;***************************************************************
TMS320C2000 COFF Assembler PC v4.1.3 Sat Sep 24 16:15:23 2011

Tools Copyright (c) 1996-2006 Texas Instruments Incorporated
C:\DOCUME~1\ADMINI~1\LOCALS~1\Temp\TI3202                            PAGE    7

     323              ;* FNAME: _app_module_start             FR SIZE:   4           *
     324              ;*                                                             *
     325              ;* FUNCTION ENVIRONMENT                                        *
     326              ;*                                                             *
     327              ;* FUNCTION PROPERTIES                                         *
     328              ;*                            0 Parameter,  4 Auto,  0 SOE     *
     329              ;***************************************************************
     330              
     331              _app_module_start:
     332                      .dwcfa  0x1d, -2
     333                      .dwcfa  0x1c, 26, 0
     334                      .dwcfa  0x09, 40, 26
     335 00000008 FE04          ADDB      SP,#4
     336                      .dwcfa  0x1d, -6
     337              ;* AL    assigned to _app_mod_id
     338              DW$53   .dwtag  DW_TAG_formal_parameter, DW_AT_name("app_mod_id"), DW_AT_symbol_name("_app_mod_id")
     339                      .dwattr DW$53, DW_AT_type(*DW$T$23)
     340                      .dwattr DW$53, DW_AT_location[DW_OP_reg0]
     341              DW$54   .dwtag  DW_TAG_variable, DW_AT_name("app_mod_id"), DW_AT_symbol_name("_app_mod_id")
     342                      .dwattr DW$54, DW_AT_type(*DW$T$23)
     343                      .dwattr DW$54, DW_AT_location[DW_OP_breg20 -1]
     344              DW$55   .dwtag  DW_TAG_variable, DW_AT_name("p_temp"), DW_AT_symbol_name("_p_temp")
     345                      .dwattr DW$55, DW_AT_type(*DW$T$78)
     346                      .dwattr DW$55, DW_AT_location[DW_OP_breg20 -4]
     347 00000009 9641          MOV       *-SP[1],AL            ; |52| 
     348                      .dwpsn  "os_mod_maneger.c",53,18
     349 0000000a 28AC          MOV       T,#6                  ; |53| 
         0000000b 0006 
     350 0000000c 9CFF          ADDB      AL,#-1
     351 0000000d 8F00-         MOVL      XAR4,#_m_mod_maneger_array+2 ; |53| 
         0000000e 0042 
     352 0000000f 30A9          MPYXU     ACC,T,AL              ; |53| 
     353 00000010 5601          ADDL      XAR4,ACC
         00000011 00A4 
     354 00000012 A844          MOVL      *-SP[4],XAR4          ; |53| 
     355                      .dwpsn  "os_mod_maneger.c",54,2
     356 00000013 8A44          MOVL      XAR4,*-SP[4]          ; |54| 
     357 00000014 9241          MOV       AL,*-SP[1]            ; |54| 
     358 00000015 54C4          CMP       AL,*+XAR4[0]          ; |54| 
     359 00000016 ED0E          BF        L2,NEQ                ; |54| 
     360                      ; branchcc occurs ; |54| 
     361                      .dwpsn  "os_mod_maneger.c",56,3
     362 00000017 761F-         MOVW      DP,#_m_cur_mod_id
         00000018 0000 
     363 00000019 9602-         MOV       @_m_cur_mod_id,AL     ; |56| 
     364                      .dwpsn  "os_mod_maneger.c",57,3
     365 0000001a 8A44          MOVL      XAR4,*-SP[4]          ; |57| 
     366 0000001b 06D4          MOVL      ACC,*+XAR4[2]         ; |57| 
     367 0000001c EC04          BF        L1,EQ                 ; |57| 
     368                      ; branchcc occurs ; |57| 
     369                      .dwpsn  "os_mod_maneger.c",59,4
     370 0000001d 8A44          MOVL      XAR4,*-SP[4]          ; |59| 
     371 0000001e C5D4          MOVL      XAR7,*+XAR4[2]        ; |59| 
     372 0000001f 3E67          LCR       *XAR7                 ; |59| 
     373                      ; call occurs [XAR7] ; |59| 
TMS320C2000 COFF Assembler PC v4.1.3 Sat Sep 24 16:15:23 2011

Tools Copyright (c) 1996-2006 Texas Instruments Incorporated
C:\DOCUME~1\ADMINI~1\LOCALS~1\Temp\TI3202                            PAGE    8

     374              L1:    
     375                      .dwpsn  "os_mod_maneger.c",61,3
     376 00000020 D400          MOVB      XAR4,#0
     377 00000021 7640'         LCR       #_app_module_start_hook ; |61| 
         00000022 0000 
     378                      ; call occurs [#_app_module_start_hook] ; |61| 
     379                      .dwpsn  "os_mod_maneger.c",62,2
     380 00000023 6F01          B         L2,UNC                ; |62| 
     381                      ; branch occurs ; |62| 
     382              L2:    
     383                      .dwpsn  "os_mod_maneger.c",68,1
     384 00000024 FE84          SUBB      SP,#4
     385                      .dwcfa  0x1d, -2
     386 00000025 0006          LRETR
     387                      ; return occurs
     388                      .dwattr DW$52, DW_AT_end_file("os_mod_maneger.c")
     389                      .dwattr DW$52, DW_AT_end_line(0x44)
     390                      .dwattr DW$52, DW_AT_end_column(0x01)
     391                      .dwendentry
     392                      .dwendtag DW$52
     393              
     394 00000026               .sect   ".text"
     395                      .global _app_module_exit
     396              
     397              DW$56   .dwtag  DW_TAG_subprogram, DW_AT_name("app_module_exit"), DW_AT_symbol_name("_app_module_exit")
     398                      .dwattr DW$56, DW_AT_low_pc(_app_module_exit)
     399                      .dwattr DW$56, DW_AT_high_pc(0x00)
     400                      .dwattr DW$56, DW_AT_begin_file("os_mod_maneger.c")
     401                      .dwattr DW$56, DW_AT_begin_line(0x4d)
     402                      .dwattr DW$56, DW_AT_begin_column(0x06)
     403                      .dwpsn  "os_mod_maneger.c",78,1
     404              
     405                      .dwfde DW$CIE
     406              
     407              ;***************************************************************
     408              ;* FNAME: _app_module_exit              FR SIZE:   4           *
     409              ;*                                                             *
     410              ;* FUNCTION ENVIRONMENT                                        *
     411              ;*                                                             *
     412              ;* FUNCTION PROPERTIES                                         *
     413              ;*                            0 Parameter,  4 Auto,  0 SOE     *
     414              ;***************************************************************
     415              
     416              _app_module_exit:
     417                      .dwcfa  0x1d, -2
     418                      .dwcfa  0x1c, 26, 0
     419                      .dwcfa  0x09, 40, 26
     420 00000026 FE04          ADDB      SP,#4
     421                      .dwcfa  0x1d, -6
     422              ;* AL    assigned to _app_mod_id
     423              DW$57   .dwtag  DW_TAG_formal_parameter, DW_AT_name("app_mod_id"), DW_AT_symbol_name("_app_mod_id")
     424                      .dwattr DW$57, DW_AT_type(*DW$T$23)
     425                      .dwattr DW$57, DW_AT_location[DW_OP_reg0]
     426              DW$58   .dwtag  DW_TAG_variable, DW_AT_name("app_mod_id"), DW_AT_symbol_name("_app_mod_id")
     427                      .dwattr DW$58, DW_AT_type(*DW$T$23)
TMS320C2000 COFF Assembler PC v4.1.3 Sat Sep 24 16:15:23 2011

Tools Copyright (c) 1996-2006 Texas Instruments Incorporated
C:\DOCUME~1\ADMINI~1\LOCALS~1\Temp\TI3202                            PAGE    9

     428                      .dwattr DW$58, DW_AT_location[DW_OP_breg20 -1]
     429              DW$59   .dwtag  DW_TAG_variable, DW_AT_name("p_temp"), DW_AT_symbol_name("_p_temp")
     430                      .dwattr DW$59, DW_AT_type(*DW$T$78)
     431                      .dwattr DW$59, DW_AT_location[DW_OP_breg20 -4]
     432 00000027 9641          MOV       *-SP[1],AL            ; |78| 
     433                      .dwpsn  "os_mod_maneger.c",79,18
     434 00000028 28AC          MOV       T,#6                  ; |79| 
         00000029 0006 
     435 0000002a 9CFF          ADDB      AL,#-1
     436 0000002b 8F00-         MOVL      XAR4,#_m_mod_maneger_array+2 ; |79| 
         0000002c 0042 
     437 0000002d 30A9          MPYXU     ACC,T,AL              ; |79| 
     438 0000002e 5601          ADDL      XAR4,ACC
         0000002f 00A4 
     439 00000030 A844          MOVL      *-SP[4],XAR4          ; |79| 
     440                      .dwpsn  "os_mod_maneger.c",80,2
     441 00000031 8A44          MOVL      XAR4,*-SP[4]          ; |80| 
     442 00000032 9241          MOV       AL,*-SP[1]            ; |80| 
     443 00000033 54C4          CMP       AL,*+XAR4[0]          ; |80| 
     444 00000034 ED0B          BF        L4,NEQ                ; |80| 
     445                      ; branchcc occurs ; |80| 
     446                      .dwpsn  "os_mod_maneger.c",82,3
     447 00000035 8A44          MOVL      XAR4,*-SP[4]          ; |82| 
     448 00000036 06E4          MOVL      ACC,*+XAR4[4]         ; |82| 
     449 00000037 EC04          BF        L3,EQ                 ; |82| 
     450                      ; branchcc occurs ; |82| 
     451                      .dwpsn  "os_mod_maneger.c",84,4
     452 00000038 8A44          MOVL      XAR4,*-SP[4]          ; |84| 
     453 00000039 C5E4          MOVL      XAR7,*+XAR4[4]        ; |84| 
     454 0000003a 3E67          LCR       *XAR7                 ; |84| 
     455                      ; call occurs [XAR7] ; |84| 
     456              L3:    
     457                      .dwpsn  "os_mod_maneger.c",86,3
     458 0000003b D400          MOVB      XAR4,#0
     459 0000003c 7640'         LCR       #_app_module_stop_hook ; |86| 
         0000003d 0004 
     460                      ; call occurs [#_app_module_stop_hook] ; |86| 
     461                      .dwpsn  "os_mod_maneger.c",87,2
     462 0000003e 6F01          B         L4,UNC                ; |87| 
     463                      ; branch occurs ; |87| 
     464              L4:    
     465                      .dwpsn  "os_mod_maneger.c",93,1
     466 0000003f FE84          SUBB      SP,#4
     467                      .dwcfa  0x1d, -2
     468 00000040 0006          LRETR
     469                      ; return occurs
     470                      .dwattr DW$56, DW_AT_end_file("os_mod_maneger.c")
     471                      .dwattr DW$56, DW_AT_end_line(0x5d)
     472                      .dwattr DW$56, DW_AT_end_column(0x01)
     473                      .dwendentry
     474                      .dwendtag DW$56
     475              
     476 00000041               .sect   ".text"
     477                      .global _app_module_switch
     478              
TMS320C2000 COFF Assembler PC v4.1.3 Sat Sep 24 16:15:23 2011

Tools Copyright (c) 1996-2006 Texas Instruments Incorporated
C:\DOCUME~1\ADMINI~1\LOCALS~1\Temp\TI3202                            PAGE   10

     479              DW$60   .dwtag  DW_TAG_subprogram, DW_AT_name("app_module_switch"), DW_AT_symbol_name("_app_module_switch")
     480                      .dwattr DW$60, DW_AT_low_pc(_app_module_switch)
     481                      .dwattr DW$60, DW_AT_high_pc(0x00)
     482                      .dwattr DW$60, DW_AT_begin_file("os_mod_maneger.c")
     483                      .dwattr DW$60, DW_AT_begin_line(0x66)
     484                      .dwattr DW$60, DW_AT_begin_column(0x06)
     485                      .dwpsn  "os_mod_maneger.c",103,1
     486              
     487                      .dwfde DW$CIE
     488              
     489              ;***************************************************************
     490              ;* FNAME: _app_module_switch            FR SIZE:   4           *
     491              ;*                                                             *
     492              ;* FUNCTION ENVIRONMENT                                        *
     493              ;*                                                             *
     494              ;* FUNCTION PROPERTIES                                         *
     495              ;*                            0 Parameter,  4 Auto,  0 SOE     *
     496              ;***************************************************************
     497              
     498              _app_module_switch:
     499                      .dwcfa  0x1d, -2
     500                      .dwcfa  0x1c, 26, 0
     501                      .dwcfa  0x09, 40, 26
     502 00000041 FE04          ADDB      SP,#4
     503                      .dwcfa  0x1d, -6
     504              ;* AL    assigned to _new_mod_id
     505              DW$61   .dwtag  DW_TAG_formal_parameter, DW_AT_name("new_mod_id"), DW_AT_symbol_name("_new_mod_id")
     506                      .dwattr DW$61, DW_AT_type(*DW$T$23)
     507                      .dwattr DW$61, DW_AT_location[DW_OP_reg0]
     508              ;* AH    assigned to _old_mod_id
     509              DW$62   .dwtag  DW_TAG_formal_parameter, DW_AT_name("old_mod_id"), DW_AT_symbol_name("_old_mod_id")
     510                      .dwattr DW$62, DW_AT_type(*DW$T$23)
     511                      .dwattr DW$62, DW_AT_location[DW_OP_reg1]
     512              DW$63   .dwtag  DW_TAG_variable, DW_AT_name("new_mod_id"), DW_AT_symbol_name("_new_mod_id")
     513                      .dwattr DW$63, DW_AT_type(*DW$T$23)
     514                      .dwattr DW$63, DW_AT_location[DW_OP_breg20 -1]
     515              DW$64   .dwtag  DW_TAG_variable, DW_AT_name("old_mod_id"), DW_AT_symbol_name("_old_mod_id")
     516                      .dwattr DW$64, DW_AT_type(*DW$T$23)
     517                      .dwattr DW$64, DW_AT_location[DW_OP_breg20 -2]
     518              DW$65   .dwtag  DW_TAG_variable, DW_AT_name("p_temp"), DW_AT_symbol_name("_p_temp")
     519                      .dwattr DW$65, DW_AT_type(*DW$T$78)
     520                      .dwattr DW$65, DW_AT_location[DW_OP_breg20 -4]
     521 00000042 9742          MOV       *-SP[2],AH            ; |103| 
     522 00000043 9641          MOV       *-SP[1],AL            ; |103| 
     523                      .dwpsn  "os_mod_maneger.c",104,18
     524 00000044 28AC          MOV       T,#6                  ; |104| 
         00000045 0006 
     525 00000046 9CFF          ADDB      AL,#-1
     526 00000047 8F00-         MOVL      XAR4,#_m_mod_maneger_array+2 ; |104| 
         00000048 0042 
     527 00000049 30A9          MPYXU     ACC,T,AL              ; |104| 
     528 0000004a 5601          ADDL      XAR4,ACC
         0000004b 00A4 
     529 0000004c A844          MOVL      *-SP[4],XAR4          ; |104| 
     530                      .dwpsn  "os_mod_maneger.c",105,5
TMS320C2000 COFF Assembler PC v4.1.3 Sat Sep 24 16:15:23 2011

Tools Copyright (c) 1996-2006 Texas Instruments Incorporated
C:\DOCUME~1\ADMINI~1\LOCALS~1\Temp\TI3202                            PAGE   11

     531 0000004d 9241          MOV       AL,*-SP[1]            ; |105| 
     532 0000004e EC21          BF        L6,EQ                 ; |105| 
     533                      ; branchcc occurs ; |105| 
     534 0000004f 9242          MOV       AL,*-SP[2]            ; |105| 
     535 00000050 ED02          BF        L5,NEQ                ; |105| 
     536                      ; branchcc occurs ; |105| 
     537 00000051 6F1E          B         L6,UNC                ; |105| 
     538                      ; branch occurs ; |105| 
     539              L5:    
     540                      .dwpsn  "os_mod_maneger.c",106,2
     541 00000052 9241          MOV       AL,*-SP[1]            ; |106| 
     542 00000053 8A44          MOVL      XAR4,*-SP[4]          ; |106| 
     543 00000054 54C4          CMP       AL,*+XAR4[0]          ; |106| 
     544 00000055 ED1A          BF        L6,NEQ                ; |106| 
     545                      ; branchcc occurs ; |106| 
     546                      .dwpsn  "os_mod_maneger.c",109,3
     547                      .dwpsn  "os_mod_maneger.c",111,2
     548 00000056 9242          MOV       AL,*-SP[2]            ; |111| 
     549 00000057 28AC          MOV       T,#6                  ; |111| 
         00000058 0006 
     550 00000059 8F00-         MOVL      XAR4,#_m_mod_maneger_array+2 ; |111| 
         0000005a 0042 
     551 0000005b 9CFF          ADDB      AL,#-1
     552 0000005c 30A9          MPYXU     ACC,T,AL              ; |111| 
     553 0000005d 5601          ADDL      XAR4,ACC
         0000005e 00A4 
     554 0000005f A844          MOVL      *-SP[4],XAR4          ; |111| 
     555                      .dwpsn  "os_mod_maneger.c",112,2
     556 00000060 8A44          MOVL      XAR4,*-SP[4]          ; |112| 
     557 00000061 9242          MOV       AL,*-SP[2]            ; |112| 
     558 00000062 54C4          CMP       AL,*+XAR4[0]          ; |112| 
     559 00000063 ED0C          BF        L6,NEQ                ; |112| 
     560                      ; branchcc occurs ; |112| 
     561                      .dwpsn  "os_mod_maneger.c",115,3
     562                      .dwpsn  "os_mod_maneger.c",117,2
     563 00000064 7640'         LCR       #_app_module_exit     ; |117| 
         00000065 0026 
     564                      ; call occurs [#_app_module_exit] ; |117| 
     565                      .dwpsn  "os_mod_maneger.c",118,2
     566 00000066 9241          MOV       AL,*-SP[1]            ; |118| 
     567 00000067 7640'         LCR       #_app_module_start    ; |118| 
         00000068 0008 
     568                      ; call occurs [#_app_module_start] ; |118| 
     569                      .dwpsn  "os_mod_maneger.c",119,2
     570 00000069 761F-         MOVW      DP,#_m_last_mod_id
         0000006a 0000 
     571 0000006b 9242          MOV       AL,*-SP[2]            ; |119| 
     572 0000006c 9601-         MOV       @_m_last_mod_id,AL    ; |119| 
     573                      .dwpsn  "os_mod_maneger.c",120,2
     574 0000006d 9241          MOV       AL,*-SP[1]            ; |120| 
     575 0000006e 9602-         MOV       @_m_cur_mod_id,AL     ; |120| 
     576                      .dwpsn  "os_mod_maneger.c",121,2
     577              L6:    
     578                      .dwpsn  "os_mod_maneger.c",122,1
     579 0000006f FE84          SUBB      SP,#4
TMS320C2000 COFF Assembler PC v4.1.3 Sat Sep 24 16:15:23 2011

Tools Copyright (c) 1996-2006 Texas Instruments Incorporated
C:\DOCUME~1\ADMINI~1\LOCALS~1\Temp\TI3202                            PAGE   12

     580                      .dwcfa  0x1d, -2
     581 00000070 0006          LRETR
     582                      ; return occurs
     583                      .dwattr DW$60, DW_AT_end_file("os_mod_maneger.c")
     584                      .dwattr DW$60, DW_AT_end_line(0x7a)
     585                      .dwattr DW$60, DW_AT_end_column(0x01)
     586                      .dwendentry
     587                      .dwendtag DW$60
     588              
     589 00000071               .sect   ".text"
     590                      .global _app_module_add
     591              
     592              DW$66   .dwtag  DW_TAG_subprogram, DW_AT_name("app_module_add"), DW_AT_symbol_name("_app_module_add")
     593                      .dwattr DW$66, DW_AT_low_pc(_app_module_add)
     594                      .dwattr DW$66, DW_AT_high_pc(0x00)
     595                      .dwattr DW$66, DW_AT_begin_file("os_mod_maneger.c")
     596                      .dwattr DW$66, DW_AT_begin_line(0x84)
     597                      .dwattr DW$66, DW_AT_begin_column(0x09)
     598                      .dwpsn  "os_mod_maneger.c",133,1
     599              
     600                      .dwfde DW$CIE
     601              
     602              ;***************************************************************
     603              ;* FNAME: _app_module_add               FR SIZE:   8           *
     604              ;*                                                             *
     605              ;* FUNCTION ENVIRONMENT                                        *
     606              ;*                                                             *
     607              ;* FUNCTION PROPERTIES                                         *
     608              ;*                            0 Parameter,  7 Auto,  0 SOE     *
     609              ;***************************************************************
     610              
     611              _app_module_add:
     612                      .dwcfa  0x1d, -2
     613                      .dwcfa  0x1c, 26, 0
     614                      .dwcfa  0x09, 40, 26
     615 00000071 FE08          ADDB      SP,#8
     616                      .dwcfa  0x1d, -10
     617              ;* AR4   assigned to _tp_ptr
     618              DW$67   .dwtag  DW_TAG_formal_parameter, DW_AT_name("tp_ptr"), DW_AT_symbol_name("_tp_ptr")
     619                      .dwattr DW$67, DW_AT_type(*DW$T$78)
     620                      .dwattr DW$67, DW_AT_location[DW_OP_reg12]
     621              DW$68   .dwtag  DW_TAG_variable, DW_AT_name("tp_ptr"), DW_AT_symbol_name("_tp_ptr")
     622                      .dwattr DW$68, DW_AT_type(*DW$T$78)
     623                      .dwattr DW$68, DW_AT_location[DW_OP_breg20 -2]
     624              DW$69   .dwtag  DW_TAG_variable, DW_AT_name("index"), DW_AT_symbol_name("_index")
     625                      .dwattr DW$69, DW_AT_type(*DW$T$23)
     626                      .dwattr DW$69, DW_AT_location[DW_OP_breg20 -3]
     627              DW$70   .dwtag  DW_TAG_variable, DW_AT_name("temp"), DW_AT_symbol_name("_temp")
     628                      .dwattr DW$70, DW_AT_type(*DW$T$78)
     629                      .dwattr DW$70, DW_AT_location[DW_OP_breg20 -6]
     630              DW$71   .dwtag  DW_TAG_variable, DW_AT_name("max"), DW_AT_symbol_name("_max")
     631                      .dwattr DW$71, DW_AT_type(*DW$T$23)
     632                      .dwattr DW$71, DW_AT_location[DW_OP_breg20 -7]
     633 00000072 A842          MOVL      *-SP[2],XAR4          ; |133| 
     634                      .dwpsn  "os_mod_maneger.c",137,2
TMS320C2000 COFF Assembler PC v4.1.3 Sat Sep 24 16:15:23 2011

Tools Copyright (c) 1996-2006 Texas Instruments Incorporated
C:\DOCUME~1\ADMINI~1\LOCALS~1\Temp\TI3202                            PAGE   13

     635                      .dwpsn  "os_mod_maneger.c",138,8
     636 00000073 2B43          MOV       *-SP[3],#0            ; |138| 
     637                      .dwpsn  "os_mod_maneger.c",138,18
     638 00000074 9243          MOV       AL,*-SP[3]            ; |138| 
     639 00000075 520F          CMPB      AL,#15                ; |138| 
     640 00000076 6728          B         L9,HIS                ; |138| 
     641                      ; branchcc occurs ; |138| 
     642              L7:    
     643              DW$L$_app_module_add$2$B:
     644                      .dwpsn  "os_mod_maneger.c",140,3
     645 00000077 28AC          MOV       T,#6                  ; |140| 
         00000078 0006 
     646 00000079 8F00-         MOVL      XAR4,#_m_mod_maneger_array+2 ; |140| 
         0000007a 0042 
     647 0000007b 3043          MPYXU     ACC,T,*-SP[3]         ; |140| 
     648 0000007c 5601          ADDL      XAR4,ACC
         0000007d 00A4 
     649 0000007e 92C4          MOV       AL,*+XAR4[0]          ; |140| 
     650 0000007f ED1B          BF        L8,NEQ                ; |140| 
     651                      ; branchcc occurs ; |140| 
     652              DW$L$_app_module_add$2$E:
     653                      .dwpsn  "os_mod_maneger.c",142,4
     654 00000080 761F-         MOVW      DP,#_m_mod_maneger_array
         00000081 0001 
     655 00000082 0A00-         INC       @_m_mod_maneger_array ; |142| 
     656                      .dwpsn  "os_mod_maneger.c",143,4
     657 00000083 28AC          MOV       T,#6                  ; |143| 
         00000084 0006 
     658 00000085 8F00-         MOVL      XAR4,#_m_mod_maneger_array+2 ; |143| 
         00000086 0042 
     659 00000087 3043          MPYXU     ACC,T,*-SP[3]         ; |143| 
     660 00000088 5601          ADDL      XAR4,ACC
         00000089 00A4 
     661 0000008a A846          MOVL      *-SP[6],XAR4          ; |143| 
     662                      .dwpsn  "os_mod_maneger.c",144,4
     663 0000008b 8A46          MOVL      XAR4,*-SP[6]          ; |144| 
     664 0000008c 9243          MOV       AL,*-SP[3]            ; |144| 
     665 0000008d 9C01          ADDB      AL,#1                 ; |144| 
     666 0000008e 96C4          MOV       *+XAR4[0],AL          ; |144| 
     667                      .dwpsn  "os_mod_maneger.c",145,4
     668 0000008f 8A42          MOVL      XAR4,*-SP[2]          ; |145| 
     669 00000090 06D4          MOVL      ACC,*+XAR4[2]         ; |145| 
     670 00000091 8A46          MOVL      XAR4,*-SP[6]          ; |145| 
     671 00000092 1ED4          MOVL      *+XAR4[2],ACC         ; |145| 
     672                      .dwpsn  "os_mod_maneger.c",146,4
     673 00000093 8A42          MOVL      XAR4,*-SP[2]          ; |146| 
     674 00000094 06E4          MOVL      ACC,*+XAR4[4]         ; |146| 
     675 00000095 8A46          MOVL      XAR4,*-SP[6]          ; |146| 
     676 00000096 1EE4          MOVL      *+XAR4[4],ACC         ; |146| 
     677                      .dwpsn  "os_mod_maneger.c",147,4
     678 00000097 9243          MOV       AL,*-SP[3]            ; |147| 
     679 00000098 9C01          ADDB      AL,#1                 ; |147| 
     680 00000099 6F08          B         L10,UNC               ; |147| 
     681                      ; branch occurs ; |147| 
     682              L8:    
TMS320C2000 COFF Assembler PC v4.1.3 Sat Sep 24 16:15:23 2011

Tools Copyright (c) 1996-2006 Texas Instruments Incorporated
C:\DOCUME~1\ADMINI~1\LOCALS~1\Temp\TI3202                            PAGE   14

     683              DW$L$_app_module_add$4$B:
     684                      .dwpsn  "os_mod_maneger.c",138,38
     685 0000009a 0A43          INC       *-SP[3]               ; |138| 
     686                      .dwpsn  "os_mod_maneger.c",138,18
     687 0000009b 9243          MOV       AL,*-SP[3]            ; |138| 
     688 0000009c 520F          CMPB      AL,#15                ; |138| 
     689 0000009d 68DA          B         L7,LO                 ; |138| 
     690                      ; branchcc occurs ; |138| 
     691              DW$L$_app_module_add$4$E:
     692              L9:    
     693                      .dwpsn  "os_mod_maneger.c",150,2
     694 0000009e 2847          MOV       *-SP[7],#15           ; |150| 
         0000009f 000F 
     695                      .dwpsn  "os_mod_maneger.c",152,2
     696 000000a0 9A00          MOVB      AL,#0
     697              L10:    
     698                      .dwpsn  "os_mod_maneger.c",153,1
     699 000000a1 FE88          SUBB      SP,#8                 ; |152| 
     700                      .dwcfa  0x1d, -2
     701 000000a2 0006          LRETR
     702                      ; return occurs
     703              
     704              DW$72   .dwtag  DW_TAG_loop
     705                      .dwattr DW$72, DW_AT_name("C:\DOCUME~1\ADMINI~1\LOCALS~1\Temp\TI3202:L7:1:1316852123")
     706                      .dwattr DW$72, DW_AT_begin_file("os_mod_maneger.c")
     707                      .dwattr DW$72, DW_AT_begin_line(0x8a)
     708                      .dwattr DW$72, DW_AT_end_line(0x95)
     709              DW$73   .dwtag  DW_TAG_loop_range
     710                      .dwattr DW$73, DW_AT_low_pc(DW$L$_app_module_add$2$B)
     711                      .dwattr DW$73, DW_AT_high_pc(DW$L$_app_module_add$2$E)
     712              DW$74   .dwtag  DW_TAG_loop_range
     713                      .dwattr DW$74, DW_AT_low_pc(DW$L$_app_module_add$4$B)
     714                      .dwattr DW$74, DW_AT_high_pc(DW$L$_app_module_add$4$E)
     715                      .dwendtag DW$72
     716              
     717                      .dwattr DW$66, DW_AT_end_file("os_mod_maneger.c")
     718                      .dwattr DW$66, DW_AT_end_line(0x99)
     719                      .dwattr DW$66, DW_AT_end_column(0x01)
     720                      .dwendentry
     721                      .dwendtag DW$66
     722              
     723 000000a3               .sect   ".text"
     724                      .global _app_module_delete
     725              
     726              DW$75   .dwtag  DW_TAG_subprogram, DW_AT_name("app_module_delete"), DW_AT_symbol_name("_app_module_delete")
     727                      .dwattr DW$75, DW_AT_low_pc(_app_module_delete)
     728                      .dwattr DW$75, DW_AT_high_pc(0x00)
     729                      .dwattr DW$75, DW_AT_begin_file("os_mod_maneger.c")
     730                      .dwattr DW$75, DW_AT_begin_line(0xa2)
     731                      .dwattr DW$75, DW_AT_begin_column(0x06)
     732                      .dwpsn  "os_mod_maneger.c",163,1
     733              
     734                      .dwfde DW$CIE
     735              
     736              ;***************************************************************
TMS320C2000 COFF Assembler PC v4.1.3 Sat Sep 24 16:15:23 2011

Tools Copyright (c) 1996-2006 Texas Instruments Incorporated
C:\DOCUME~1\ADMINI~1\LOCALS~1\Temp\TI3202                            PAGE   15

     737              ;* FNAME: _app_module_delete            FR SIZE:   4           *
     738              ;*                                                             *
     739              ;* FUNCTION ENVIRONMENT                                        *
     740              ;*                                                             *
     741              ;* FUNCTION PROPERTIES                                         *
     742              ;*                            0 Parameter,  4 Auto,  0 SOE     *
     743              ;***************************************************************
     744              
     745              _app_module_delete:
     746                      .dwcfa  0x1d, -2
     747                      .dwcfa  0x1c, 26, 0
     748                      .dwcfa  0x09, 40, 26
     749 000000a3 FE04          ADDB      SP,#4
     750                      .dwcfa  0x1d, -6
     751              ;* AL    assigned to _mod_id
     752              DW$76   .dwtag  DW_TAG_formal_parameter, DW_AT_name("mod_id"), DW_AT_symbol_name("_mod_id")
     753                      .dwattr DW$76, DW_AT_type(*DW$T$23)
     754                      .dwattr DW$76, DW_AT_location[DW_OP_reg0]
     755              DW$77   .dwtag  DW_TAG_variable, DW_AT_name("mod_id"), DW_AT_symbol_name("_mod_id")
     756                      .dwattr DW$77, DW_AT_type(*DW$T$23)
     757                      .dwattr DW$77, DW_AT_location[DW_OP_breg20 -1]
     758              DW$78   .dwtag  DW_TAG_variable, DW_AT_name("p_temp"), DW_AT_symbol_name("_p_temp")
     759                      .dwattr DW$78, DW_AT_type(*DW$T$78)
     760                      .dwattr DW$78, DW_AT_location[DW_OP_breg20 -4]
     761 000000a4 9641          MOV       *-SP[1],AL            ; |163| 
     762                      .dwpsn  "os_mod_maneger.c",164,18
     763 000000a5 28AC          MOV       T,#6                  ; |164| 
         000000a6 0006 
     764 000000a7 9CFF          ADDB      AL,#-1
     765 000000a8 8F00-         MOVL      XAR4,#_m_mod_maneger_array+2 ; |164| 
         000000a9 0042 
     766 000000aa 30A9          MPYXU     ACC,T,AL              ; |164| 
     767 000000ab 5601          ADDL      XAR4,ACC
         000000ac 00A4 
     768 000000ad A844          MOVL      *-SP[4],XAR4          ; |164| 
     769                      .dwpsn  "os_mod_maneger.c",165,2
     770 000000ae 8A44          MOVL      XAR4,*-SP[4]          ; |165| 
     771 000000af 9241          MOV       AL,*-SP[1]            ; |165| 
     772 000000b0 54C4          CMP       AL,*+XAR4[0]          ; |165| 
     773 000000b1 ED06          BF        L11,NEQ               ; |165| 
     774                      ; branchcc occurs ; |165| 
     775                      .dwpsn  "os_mod_maneger.c",167,3
     776 000000b2 8A44          MOVL      XAR4,*-SP[4]          ; |167| 
     777 000000b3 0206          MOVB      ACC,#6
     778 000000b4 D500          MOVB      XAR5,#0
     779 000000b5 7640!         LCR       #_memset              ; |167| 
         000000b6 0000 
     780                      ; call occurs [#_memset] ; |167| 
     781                      .dwpsn  "os_mod_maneger.c",171,2
     782              L11:    
     783                      .dwpsn  "os_mod_maneger.c",172,1
     784 000000b7 FE84          SUBB      SP,#4
     785                      .dwcfa  0x1d, -2
     786 000000b8 0006          LRETR
     787                      ; return occurs
TMS320C2000 COFF Assembler PC v4.1.3 Sat Sep 24 16:15:23 2011

Tools Copyright (c) 1996-2006 Texas Instruments Incorporated
C:\DOCUME~1\ADMINI~1\LOCALS~1\Temp\TI3202                            PAGE   16

     788                      .dwattr DW$75, DW_AT_end_file("os_mod_maneger.c")
     789                      .dwattr DW$75, DW_AT_end_line(0xac)
     790                      .dwattr DW$75, DW_AT_end_column(0x01)
     791                      .dwendentry
     792                      .dwendtag DW$75
     793              
     794 000000b9               .sect   ".text"
     795                      .global _app_module_get_qmsg_box
     796              
     797              DW$79   .dwtag  DW_TAG_subprogram, DW_AT_name("app_module_get_qmsg_box"), DW_AT_symbol_name("_app_module_get_
     798                      .dwattr DW$79, DW_AT_low_pc(_app_module_get_qmsg_box)
     799                      .dwattr DW$79, DW_AT_high_pc(0x00)
     800                      .dwattr DW$79, DW_AT_begin_file("os_mod_maneger.c")
     801                      .dwattr DW$79, DW_AT_begin_line(0xb6)
     802                      .dwattr DW$79, DW_AT_begin_column(0x01)
     803                      .dwpsn  "os_mod_maneger.c",183,1
     804              
     805                      .dwfde DW$CIE
     806              
     807              ;***************************************************************
     808              ;* FNAME: _app_module_get_qmsg_box      FR SIZE:   2           *
     809              ;*                                                             *
     810              ;* FUNCTION ENVIRONMENT                                        *
     811              ;*                                                             *
     812              ;* FUNCTION PROPERTIES                                         *
     813              ;*                            0 Parameter,  1 Auto,  0 SOE     *
     814              ;***************************************************************
     815              
     816              _app_module_get_qmsg_box:
     817                      .dwcfa  0x1d, -2
     818                      .dwcfa  0x1c, 26, 0
     819                      .dwcfa  0x09, 40, 26
     820 000000b9 FE02          ADDB      SP,#2
     821                      .dwcfa  0x1d, -4
     822              DW$80   .dwtag  DW_TAG_variable, DW_AT_name("index"), DW_AT_symbol_name("_index")
     823                      .dwattr DW$80, DW_AT_type(*DW$T$11)
     824                      .dwattr DW$80, DW_AT_location[DW_OP_breg20 -1]
     825                      .dwpsn  "os_mod_maneger.c",185,8
     826 000000ba 2B41          MOV       *-SP[1],#0            ; |185| 
     827                      .dwpsn  "os_mod_maneger.c",185,18
     828 000000bb 9241          MOV       AL,*-SP[1]            ; |185| 
     829 000000bc 5203          CMPB      AL,#3                 ; |185| 
     830 000000bd 671C          B         L14,HIS               ; |185| 
     831                      ; branchcc occurs ; |185| 
     832              L12:    
     833              DW$L$_app_module_get_qmsg_box$2$B:
     834                      .dwpsn  "os_mod_maneger.c",187,3
     835 000000be 0E41          MOVU      ACC,*-SP[1]
     836 000000bf 8F00-         MOVL      XAR4,#_m_mod_hmsg_box ; |187| 
         000000c0 000E 
     837 000000c1 FF31          LSL       ACC,2                 ; |187| 
     838 000000c2 5601          ADDL      XAR4,ACC
         000000c3 00A4 
     839 000000c4 92C4          MOV       AL,*+XAR4[0]          ; |187| 
     840 000000c5 ED10          BF        L13,NEQ               ; |187| 
TMS320C2000 COFF Assembler PC v4.1.3 Sat Sep 24 16:15:23 2011

Tools Copyright (c) 1996-2006 Texas Instruments Incorporated
C:\DOCUME~1\ADMINI~1\LOCALS~1\Temp\TI3202                            PAGE   17

     841                      ; branchcc occurs ; |187| 
     842              DW$L$_app_module_get_qmsg_box$2$E:
     843                      .dwpsn  "os_mod_maneger.c",189,4
     844 000000c6 0E41          MOVU      ACC,*-SP[1]
     845 000000c7 8F00-         MOVL      XAR4,#_m_mod_hmsg_box ; |189| 
         000000c8 000E 
     846 000000c9 FF31          LSL       ACC,2                 ; |189| 
     847 000000ca 5601          ADDL      XAR4,ACC
         000000cb 00A4 
     848 000000cc 28C4          MOV       *+XAR4[0],#1          ; |189| 
         000000cd 0001 
     849                      .dwpsn  "os_mod_maneger.c",190,4
     850 000000ce 0E41          MOVU      ACC,*-SP[1]
     851 000000cf FF31          LSL       ACC,2                 ; |190| 
     852 000000d0 8F00-         MOVL      XAR4,#_m_mod_hmsg_box ; |190| 
         000000d1 000E 
     853 000000d2 5601          ADDL      XAR4,ACC
         000000d3 00A4 
     854 000000d4 6F06          B         L15,UNC               ; |190| 
     855                      ; branch occurs ; |190| 
     856              L13:    
     857              DW$L$_app_module_get_qmsg_box$4$B:
     858                      .dwpsn  "os_mod_maneger.c",185,40
     859 000000d5 0A41          INC       *-SP[1]               ; |185| 
     860                      .dwpsn  "os_mod_maneger.c",185,18
     861 000000d6 9241          MOV       AL,*-SP[1]            ; |185| 
     862 000000d7 5203          CMPB      AL,#3                 ; |185| 
     863 000000d8 68E6          B         L12,LO                ; |185| 
     864                      ; branchcc occurs ; |185| 
     865              DW$L$_app_module_get_qmsg_box$4$E:
     866              L14:    
     867                      .dwpsn  "os_mod_maneger.c",193,2
     868 000000d9 D400          MOVB      XAR4,#0
     869              L15:    
     870                      .dwpsn  "os_mod_maneger.c",194,1
     871 000000da FE82          SUBB      SP,#2                 ; |193| 
     872                      .dwcfa  0x1d, -2
     873 000000db 0006          LRETR
     874                      ; return occurs
     875              
     876              DW$81   .dwtag  DW_TAG_loop
     877                      .dwattr DW$81, DW_AT_name("C:\DOCUME~1\ADMINI~1\LOCALS~1\Temp\TI3202:L12:1:1316852123")
     878                      .dwattr DW$81, DW_AT_begin_file("os_mod_maneger.c")
     879                      .dwattr DW$81, DW_AT_begin_line(0xb9)
     880                      .dwattr DW$81, DW_AT_end_line(0xc0)
     881              DW$82   .dwtag  DW_TAG_loop_range
     882                      .dwattr DW$82, DW_AT_low_pc(DW$L$_app_module_get_qmsg_box$2$B)
     883                      .dwattr DW$82, DW_AT_high_pc(DW$L$_app_module_get_qmsg_box$2$E)
     884              DW$83   .dwtag  DW_TAG_loop_range
     885                      .dwattr DW$83, DW_AT_low_pc(DW$L$_app_module_get_qmsg_box$4$B)
     886                      .dwattr DW$83, DW_AT_high_pc(DW$L$_app_module_get_qmsg_box$4$E)
     887                      .dwendtag DW$81
     888              
     889                      .dwattr DW$79, DW_AT_end_file("os_mod_maneger.c")
     890                      .dwattr DW$79, DW_AT_end_line(0xc2)
TMS320C2000 COFF Assembler PC v4.1.3 Sat Sep 24 16:15:23 2011

Tools Copyright (c) 1996-2006 Texas Instruments Incorporated
C:\DOCUME~1\ADMINI~1\LOCALS~1\Temp\TI3202                            PAGE   18

     891                      .dwattr DW$79, DW_AT_end_column(0x01)
     892                      .dwendentry
     893                      .dwendtag DW$79
     894              
     895 000000dc               .sect   ".text"
     896                      .global _app_module_send_hmsg
     897              
     898              DW$84   .dwtag  DW_TAG_subprogram, DW_AT_name("app_module_send_hmsg"), DW_AT_symbol_name("_app_module_send_hm
     899                      .dwattr DW$84, DW_AT_low_pc(_app_module_send_hmsg)
     900                      .dwattr DW$84, DW_AT_high_pc(0x00)
     901                      .dwattr DW$84, DW_AT_begin_file("os_mod_maneger.c")
     902                      .dwattr DW$84, DW_AT_begin_line(0xcb)
     903                      .dwattr DW$84, DW_AT_begin_column(0x06)
     904                      .dwpsn  "os_mod_maneger.c",206,1
     905              
     906                      .dwfde DW$CIE
     907              
     908              ;***************************************************************
     909              ;* FNAME: _app_module_send_hmsg         FR SIZE:   6           *
     910              ;*                                                             *
     911              ;* FUNCTION ENVIRONMENT                                        *
     912              ;*                                                             *
     913              ;* FUNCTION PROPERTIES                                         *
     914              ;*                            0 Parameter,  6 Auto,  0 SOE     *
     915              ;***************************************************************
     916              
     917              _app_module_send_hmsg:
     918                      .dwcfa  0x1d, -2
     919                      .dwcfa  0x1c, 26, 0
     920                      .dwcfa  0x09, 40, 26
     921 000000dc FE06          ADDB      SP,#6
     922                      .dwcfa  0x1d, -8
     923              ;* AL    assigned to _msg_type
     924              DW$85   .dwtag  DW_TAG_formal_parameter, DW_AT_name("msg_type"), DW_AT_symbol_name("_msg_type")
     925                      .dwattr DW$85, DW_AT_type(*DW$T$23)
     926                      .dwattr DW$85, DW_AT_location[DW_OP_reg0]
     927              ;* AH    assigned to _start_mod_id
     928              DW$86   .dwtag  DW_TAG_formal_parameter, DW_AT_name("start_mod_id"), DW_AT_symbol_name("_start_mod_id")
     929                      .dwattr DW$86, DW_AT_type(*DW$T$23)
     930                      .dwattr DW$86, DW_AT_location[DW_OP_reg1]
     931              ;* AR4   assigned to _stop_mod_id
     932              DW$87   .dwtag  DW_TAG_formal_parameter, DW_AT_name("stop_mod_id"), DW_AT_symbol_name("_stop_mod_id")
     933                      .dwattr DW$87, DW_AT_type(*DW$T$23)
     934                      .dwattr DW$87, DW_AT_location[DW_OP_reg12]
     935              DW$88   .dwtag  DW_TAG_variable, DW_AT_name("msg_type"), DW_AT_symbol_name("_msg_type")
     936                      .dwattr DW$88, DW_AT_type(*DW$T$23)
     937                      .dwattr DW$88, DW_AT_location[DW_OP_breg20 -1]
     938              DW$89   .dwtag  DW_TAG_variable, DW_AT_name("start_mod_id"), DW_AT_symbol_name("_start_mod_id")
     939                      .dwattr DW$89, DW_AT_type(*DW$T$23)
     940                      .dwattr DW$89, DW_AT_location[DW_OP_breg20 -2]
     941              DW$90   .dwtag  DW_TAG_variable, DW_AT_name("stop_mod_id"), DW_AT_symbol_name("_stop_mod_id")
     942                      .dwattr DW$90, DW_AT_type(*DW$T$23)
     943                      .dwattr DW$90, DW_AT_location[DW_OP_breg20 -3]
     944              DW$91   .dwtag  DW_TAG_variable, DW_AT_name("msgptr"), DW_AT_symbol_name("_msgptr")
     945                      .dwattr DW$91, DW_AT_type(*DW$T$87)
TMS320C2000 COFF Assembler PC v4.1.3 Sat Sep 24 16:15:23 2011

Tools Copyright (c) 1996-2006 Texas Instruments Incorporated
C:\DOCUME~1\ADMINI~1\LOCALS~1\Temp\TI3202                            PAGE   19

     946                      .dwattr DW$91, DW_AT_location[DW_OP_breg20 -6]
     947 000000dd 7C43          MOV       *-SP[3],AR4           ; |206| 
     948 000000de 9742          MOV       *-SP[2],AH            ; |206| 
     949 000000df 9641          MOV       *-SP[1],AL            ; |206| 
     950                      .dwpsn  "os_mod_maneger.c",207,23
     951 000000e0 0200          MOVB      ACC,#0
     952 000000e1 1E46          MOVL      *-SP[6],ACC           ; |207| 
     953                      .dwpsn  "os_mod_maneger.c",208,10
     954              L16:    
     955              DW$L$_app_module_send_hmsg$2$B:
     956                      .dwpsn  "os_mod_maneger.c",210,3
     957 000000e2 761F-         MOVW      DP,#_m_mod_hmsg_sem
         000000e3 0000 
     958 000000e4 8A06-         MOVL      XAR4,@_m_mod_hmsg_sem ; |210| 
     959 000000e5 9A32          MOVB      AL,#50                ; |210| 
     960 000000e6 7640!         LCR       #_os_sem_pend         ; |210| 
         000000e7 0000 
     961                      ; call occurs [#_os_sem_pend] ; |210| 
     962 000000e8 5200          CMPB      AL,#0                 ; |210| 
     963 000000e9 EDF9          BF        L16,NEQ               ; |210| 
     964                      ; branchcc occurs ; |210| 
     965              DW$L$_app_module_send_hmsg$2$E:
     966              DW$L$_app_module_send_hmsg$3$B:
     967                      .dwpsn  "os_mod_maneger.c",213,4
     968 000000ea 7640'         LCR       #_app_module_get_qmsg_box ; |213| 
         000000eb 00B9 
     969                      ; call occurs [#_app_module_get_qmsg_box] ; |213| 
     970 000000ec A846          MOVL      *-SP[6],XAR4          ; |213| 
     971                      .dwpsn  "os_mod_maneger.c",214,4
     972 000000ed 761F-         MOVW      DP,#_m_mod_hmsg_sem
         000000ee 0000 
     973 000000ef 8A06-         MOVL      XAR4,@_m_mod_hmsg_sem ; |214| 
     974 000000f0 7640!         LCR       #_OSSemPost           ; |214| 
         000000f1 0000 
     975                      ; call occurs [#_OSSemPost] ; |214| 
     976                      .dwpsn  "os_mod_maneger.c",215,4
     977 000000f2 0646          MOVL      ACC,*-SP[6]           ; |215| 
     978 000000f3 EC11          BF        L17,EQ                ; |215| 
     979                      ; branchcc occurs ; |215| 
     980              DW$L$_app_module_send_hmsg$3$E:
     981                      .dwpsn  "os_mod_maneger.c",217,5
     982 000000f4 8A46          MOVL      XAR4,*-SP[6]          ; |217| 
     983 000000f5 9241          MOV       AL,*-SP[1]            ; |217| 
     984 000000f6 96CC          MOV       *+XAR4[1],AL          ; |217| 
     985                      .dwpsn  "os_mod_maneger.c",218,5
     986 000000f7 8A46          MOVL      XAR4,*-SP[6]          ; |218| 
     987 000000f8 9242          MOV       AL,*-SP[2]            ; |218| 
     988 000000f9 96D4          MOV       *+XAR4[2],AL          ; |218| 
     989                      .dwpsn  "os_mod_maneger.c",219,5
     990 000000fa 8A46          MOVL      XAR4,*-SP[6]          ; |219| 
     991 000000fb 9243          MOV       AL,*-SP[3]            ; |219| 
     992 000000fc 96DC          MOV       *+XAR4[3],AL          ; |219| 
     993                      .dwpsn  "os_mod_maneger.c",220,5
     994 000000fd 8346          MOVL      XAR5,*-SP[6]          ; |220| 
     995 000000fe 761F-         MOVW      DP,#_m_mod_hmsg_qevent
TMS320C2000 COFF Assembler PC v4.1.3 Sat Sep 24 16:15:23 2011

Tools Copyright (c) 1996-2006 Texas Instruments Incorporated
C:\DOCUME~1\ADMINI~1\LOCALS~1\Temp\TI3202                            PAGE   20

         000000ff 0000 
     996 00000100 8A04-         MOVL      XAR4,@_m_mod_hmsg_qevent ; |220| 
     997 00000101 7640!         LCR       #_OSQPost             ; |220| 
         00000102 0000 
     998                      ; call occurs [#_OSQPost] ; |220| 
     999                      .dwpsn  "os_mod_maneger.c",221,5
    1000 00000103 6F05          B         L18,UNC               ; |221| 
    1001                      ; branch occurs ; |221| 
    1002              L17:    
    1003              DW$L$_app_module_send_hmsg$5$B:
    1004                      .dwpsn  "os_mod_maneger.c",223,4
    1005 00000104 9A01          MOVB      AL,#1                 ; |223| 
    1006 00000105 7640!         LCR       #_OSTimeDly           ; |223| 
         00000106 0000 
    1007                      ; call occurs [#_OSTimeDly] ; |223| 
    1008                      .dwpsn  "os_mod_maneger.c",208,10
    1009 00000107 6FDB          B         L16,UNC               ; |208| 
    1010                      ; branch occurs ; |208| 
    1011              DW$L$_app_module_send_hmsg$5$E:
    1012              L18:    
    1013                      .dwpsn  "os_mod_maneger.c",227,1
    1014 00000108 FE86          SUBB      SP,#6
    1015                      .dwcfa  0x1d, -2
    1016 00000109 0006          LRETR
    1017                      ; return occurs
    1018              
    1019              DW$92   .dwtag  DW_TAG_loop
    1020                      .dwattr DW$92, DW_AT_name("C:\DOCUME~1\ADMINI~1\LOCALS~1\Temp\TI3202:L16:1:1316852123")
    1021                      .dwattr DW$92, DW_AT_begin_file("os_mod_maneger.c")
    1022                      .dwattr DW$92, DW_AT_begin_line(0xd0)
    1023                      .dwattr DW$92, DW_AT_end_line(0xe1)
    1024              DW$93   .dwtag  DW_TAG_loop_range
    1025                      .dwattr DW$93, DW_AT_low_pc(DW$L$_app_module_send_hmsg$2$B)
    1026                      .dwattr DW$93, DW_AT_high_pc(DW$L$_app_module_send_hmsg$2$E)
    1027              DW$94   .dwtag  DW_TAG_loop_range
    1028                      .dwattr DW$94, DW_AT_low_pc(DW$L$_app_module_send_hmsg$3$B)
    1029                      .dwattr DW$94, DW_AT_high_pc(DW$L$_app_module_send_hmsg$3$E)
    1030              DW$95   .dwtag  DW_TAG_loop_range
    1031                      .dwattr DW$95, DW_AT_low_pc(DW$L$_app_module_send_hmsg$5$B)
    1032                      .dwattr DW$95, DW_AT_high_pc(DW$L$_app_module_send_hmsg$5$E)
    1033                      .dwendtag DW$92
    1034              
    1035                      .dwattr DW$84, DW_AT_end_file("os_mod_maneger.c")
    1036                      .dwattr DW$84, DW_AT_end_line(0xe3)
    1037                      .dwattr DW$84, DW_AT_end_column(0x01)
    1038                      .dwendentry
    1039                      .dwendtag DW$84
    1040              
    1041 0000010a               .sect   ".text"
    1042                      .global _app_module_switch_last_mod
    1043              
    1044              DW$96   .dwtag  DW_TAG_subprogram, DW_AT_name("app_module_switch_last_mod"), DW_AT_symbol_name("_app_module_s
    1045                      .dwattr DW$96, DW_AT_low_pc(_app_module_switch_last_mod)
    1046                      .dwattr DW$96, DW_AT_high_pc(0x00)
    1047                      .dwattr DW$96, DW_AT_begin_file("os_mod_maneger.c")
TMS320C2000 COFF Assembler PC v4.1.3 Sat Sep 24 16:15:23 2011

Tools Copyright (c) 1996-2006 Texas Instruments Incorporated
C:\DOCUME~1\ADMINI~1\LOCALS~1\Temp\TI3202                            PAGE   21

    1048                      .dwattr DW$96, DW_AT_begin_line(0xec)
    1049                      .dwattr DW$96, DW_AT_begin_column(0x06)
    1050                      .dwpsn  "os_mod_maneger.c",237,1
    1051              
    1052                      .dwfde DW$CIE
    1053              
    1054              ;***************************************************************
    1055              ;* FNAME: _app_module_switch_last_mod   FR SIZE:   0           *
    1056              ;*                                                             *
    1057              ;* FUNCTION ENVIRONMENT                                        *
    1058              ;*                                                             *
    1059              ;* FUNCTION PROPERTIES                                         *
    1060              ;*                            0 Parameter,  0 Auto,  0 SOE     *
    1061              ;***************************************************************
    1062              
    1063              _app_module_switch_last_mod:
    1064                      .dwcfa  0x1d, -2
    1065                      .dwcfa  0x1c, 26, 0
    1066                      .dwcfa  0x09, 40, 26
    1067                      .dwpsn  "os_mod_maneger.c",238,2
    1068 0000010a 761F-         MOVW      DP,#_m_cur_mod_id
         0000010b 0000 
    1069 0000010c 9202-         MOV       AL,@_m_cur_mod_id     ; |238| 
    1070 0000010d 5401-         CMP       AL,@_m_last_mod_id    ; |238| 
    1071 0000010e ED07          BF        L19,NEQ               ; |238| 
    1072                      ; branchcc occurs ; |238| 
    1073                      .dwpsn  "os_mod_maneger.c",239,3
    1074 0000010f 761F!         MOVW      DP,#_g_module_id_array
         00000110 0000 
    1075 00000111 9200!         MOV       AL,@_g_module_id_array ; |239| 
    1076 00000112 761F-         MOVW      DP,#_m_last_mod_id
         00000113 0000 
    1077 00000114 9601-         MOV       @_m_last_mod_id,AL    ; |239| 
    1078              L19:    
    1079                      .dwpsn  "os_mod_maneger.c",240,2
    1080 00000115 9201-         MOV       AL,@_m_last_mod_id    ; |240| 
    1081 00000116 ED07          BF        L20,NEQ               ; |240| 
    1082                      ; branchcc occurs ; |240| 
    1083                      .dwpsn  "os_mod_maneger.c",241,3
    1084 00000117 761F!         MOVW      DP,#_g_module_id_array
         00000118 0000 
    1085 00000119 9200!         MOV       AL,@_g_module_id_array ; |241| 
    1086 0000011a 761F-         MOVW      DP,#_m_last_mod_id
         0000011b 0000 
    1087 0000011c 9601-         MOV       @_m_last_mod_id,AL    ; |241| 
    1088              L20:    
    1089                      .dwpsn  "os_mod_maneger.c",242,2
    1090 0000011d 5C02-         MOVZ      AR4,@_m_cur_mod_id    ; |242| 
    1091 0000011e 9A02          MOVB      AL,#2                 ; |242| 
    1092 0000011f 9301-         MOV       AH,@_m_last_mod_id    ; |242| 
    1093 00000120 7640'         LCR       #_app_module_send_hmsg ; |242| 
         00000121 00DC 
    1094                      ; call occurs [#_app_module_send_hmsg] ; |242| 
    1095                      .dwpsn  "os_mod_maneger.c",245,2
    1096                      .dwpsn  "os_mod_maneger.c",246,1
TMS320C2000 COFF Assembler PC v4.1.3 Sat Sep 24 16:15:23 2011

Tools Copyright (c) 1996-2006 Texas Instruments Incorporated
C:\DOCUME~1\ADMINI~1\LOCALS~1\Temp\TI3202                            PAGE   22

    1097 00000122 0006          LRETR
    1098                      ; return occurs
    1099                      .dwattr DW$96, DW_AT_end_file("os_mod_maneger.c")
    1100                      .dwattr DW$96, DW_AT_end_line(0xf6)
    1101                      .dwattr DW$96, DW_AT_end_column(0x01)
    1102                      .dwendentry
    1103                      .dwendtag DW$96
    1104              
    1105 00000123               .sect   ".text"
    1106                      .global _app_module_assign_mod
    1107              
    1108              DW$97   .dwtag  DW_TAG_subprogram, DW_AT_name("app_module_assign_mod"), DW_AT_symbol_name("_app_module_assign
    1109                      .dwattr DW$97, DW_AT_low_pc(_app_module_assign_mod)
    1110                      .dwattr DW$97, DW_AT_high_pc(0x00)
    1111                      .dwattr DW$97, DW_AT_begin_file("os_mod_maneger.c")
    1112                      .dwattr DW$97, DW_AT_begin_line(0xff)
    1113                      .dwattr DW$97, DW_AT_begin_column(0x06)
    1114                      .dwpsn  "os_mod_maneger.c",256,1
    1115              
    1116                      .dwfde DW$CIE
    1117              
    1118              ;***************************************************************
    1119              ;* FNAME: _app_module_assign_mod        FR SIZE:   2           *
    1120              ;*                                                             *
    1121              ;* FUNCTION ENVIRONMENT                                        *
    1122              ;*                                                             *
    1123              ;* FUNCTION PROPERTIES                                         *
    1124              ;*                            0 Parameter,  1 Auto,  0 SOE     *
    1125              ;***************************************************************
    1126              
    1127              _app_module_assign_mod:
    1128                      .dwcfa  0x1d, -2
    1129                      .dwcfa  0x1c, 26, 0
    1130                      .dwcfa  0x09, 40, 26
    1131 00000123 FE02          ADDB      SP,#2
    1132                      .dwcfa  0x1d, -4
    1133              ;* AL    assigned to _start_mod_id
    1134              DW$98   .dwtag  DW_TAG_formal_parameter, DW_AT_name("start_mod_id"), DW_AT_symbol_name("_start_mod_id")
    1135                      .dwattr DW$98, DW_AT_type(*DW$T$23)
    1136                      .dwattr DW$98, DW_AT_location[DW_OP_reg0]
    1137              DW$99   .dwtag  DW_TAG_variable, DW_AT_name("start_mod_id"), DW_AT_symbol_name("_start_mod_id")
    1138                      .dwattr DW$99, DW_AT_type(*DW$T$23)
    1139                      .dwattr DW$99, DW_AT_location[DW_OP_breg20 -1]
    1140 00000124 9641          MOV       *-SP[1],AL            ; |256| 
    1141                      .dwpsn  "os_mod_maneger.c",257,2
    1142 00000125 761F-         MOVW      DP,#_m_cur_mod_id
         00000126 0000 
    1143 00000127 5C02-         MOVZ      AR4,@_m_cur_mod_id    ; |257| 
    1144 00000128 9A02          MOVB      AL,#2                 ; |257| 
    1145 00000129 9341          MOV       AH,*-SP[1]            ; |257| 
    1146 0000012a 7640'         LCR       #_app_module_send_hmsg ; |257| 
         0000012b 00DC 
    1147                      ; call occurs [#_app_module_send_hmsg] ; |257| 
    1148                      .dwpsn  "os_mod_maneger.c",260,2
    1149                      .dwpsn  "os_mod_maneger.c",261,1
TMS320C2000 COFF Assembler PC v4.1.3 Sat Sep 24 16:15:23 2011

Tools Copyright (c) 1996-2006 Texas Instruments Incorporated
C:\DOCUME~1\ADMINI~1\LOCALS~1\Temp\TI3202                            PAGE   23

    1150 0000012c FE82          SUBB      SP,#2
    1151                      .dwcfa  0x1d, -2
    1152 0000012d 0006          LRETR
    1153                      ; return occurs
    1154                      .dwattr DW$97, DW_AT_end_file("os_mod_maneger.c")
    1155                      .dwattr DW$97, DW_AT_end_line(0x105)
    1156                      .dwattr DW$97, DW_AT_end_column(0x01)
    1157                      .dwendentry
    1158                      .dwendtag DW$97
    1159              
    1160 0000012e               .sect   ".text"
    1161                      .global _app_module_maneger_exit
    1162              
    1163              DW$100  .dwtag  DW_TAG_subprogram, DW_AT_name("app_module_maneger_exit"), DW_AT_symbol_name("_app_module_mane
    1164                      .dwattr DW$100, DW_AT_low_pc(_app_module_maneger_exit)
    1165                      .dwattr DW$100, DW_AT_high_pc(0x00)
    1166                      .dwattr DW$100, DW_AT_begin_file("os_mod_maneger.c")
    1167                      .dwattr DW$100, DW_AT_begin_line(0x10e)
    1168                      .dwattr DW$100, DW_AT_begin_column(0x06)
    1169                      .dwpsn  "os_mod_maneger.c",271,1
    1170              
    1171                      .dwfde DW$CIE
    1172              
    1173              ;***************************************************************
    1174              ;* FNAME: _app_module_maneger_exit      FR SIZE:   2           *
    1175              ;*                                                             *
    1176              ;* FUNCTION ENVIRONMENT                                        *
    1177              ;*                                                             *
    1178              ;* FUNCTION PROPERTIES                                         *
    1179              ;*                            0 Parameter,  1 Auto,  0 SOE     *
    1180              ;***************************************************************
    1181              
    1182              _app_module_maneger_exit:
    1183                      .dwcfa  0x1d, -2
    1184                      .dwcfa  0x1c, 26, 0
    1185                      .dwcfa  0x09, 40, 26
    1186 0000012e FE02          ADDB      SP,#2
    1187                      .dwcfa  0x1d, -4
    1188              ;* AL    assigned to _flag
    1189              DW$101  .dwtag  DW_TAG_formal_parameter, DW_AT_name("flag"), DW_AT_symbol_name("_flag")
    1190                      .dwattr DW$101, DW_AT_type(*DW$T$23)
    1191                      .dwattr DW$101, DW_AT_location[DW_OP_reg0]
    1192              DW$102  .dwtag  DW_TAG_variable, DW_AT_name("flag"), DW_AT_symbol_name("_flag")
    1193                      .dwattr DW$102, DW_AT_type(*DW$T$23)
    1194                      .dwattr DW$102, DW_AT_location[DW_OP_breg20 -1]
    1195 0000012f 9641          MOV       *-SP[1],AL            ; |271| 
    1196                      .dwpsn  "os_mod_maneger.c",272,2
    1197 00000130 761F-         MOVW      DP,#_m_reboot_flag
         00000131 0000 
    1198 00000132 9600-         MOV       @_m_reboot_flag,AL    ; |272| 
    1199                      .dwpsn  "os_mod_maneger.c",273,2
    1200 00000133 D400          MOVB      XAR4,#0
    1201 00000134 0203          MOVB      ACC,#3
    1202 00000135 7640'         LCR       #_app_module_send_hmsg ; |273| 
         00000136 00DC 
TMS320C2000 COFF Assembler PC v4.1.3 Sat Sep 24 16:15:23 2011

Tools Copyright (c) 1996-2006 Texas Instruments Incorporated
C:\DOCUME~1\ADMINI~1\LOCALS~1\Temp\TI3202                            PAGE   24

    1203                      ; call occurs [#_app_module_send_hmsg] ; |273| 
    1204                      .dwpsn  "os_mod_maneger.c",274,2
    1205                      .dwpsn  "os_mod_maneger.c",275,1
    1206 00000137 FE82          SUBB      SP,#2
    1207                      .dwcfa  0x1d, -2
    1208 00000138 0006          LRETR
    1209                      ; return occurs
    1210                      .dwattr DW$100, DW_AT_end_file("os_mod_maneger.c")
    1211                      .dwattr DW$100, DW_AT_end_line(0x113)
    1212                      .dwattr DW$100, DW_AT_end_column(0x01)
    1213                      .dwendentry
    1214                      .dwendtag DW$100
    1215              
    1216 00000139               .sect   ".text"
    1217                      .global _app_module_state_handle
    1218              
    1219              DW$103  .dwtag  DW_TAG_subprogram, DW_AT_name("app_module_state_handle"), DW_AT_symbol_name("_app_module_stat
    1220                      .dwattr DW$103, DW_AT_low_pc(_app_module_state_handle)
    1221                      .dwattr DW$103, DW_AT_high_pc(0x00)
    1222                      .dwattr DW$103, DW_AT_begin_file("os_mod_maneger.c")
    1223                      .dwattr DW$103, DW_AT_begin_line(0x11c)
    1224                      .dwattr DW$103, DW_AT_begin_column(0x06)
    1225                      .dwpsn  "os_mod_maneger.c",285,1
    1226              
    1227                      .dwfde DW$CIE
    1228              
    1229              ;***************************************************************
    1230              ;* FNAME: _app_module_state_handle      FR SIZE:   6           *
    1231              ;*                                                             *
    1232              ;* FUNCTION ENVIRONMENT                                        *
    1233              ;*                                                             *
    1234              ;* FUNCTION PROPERTIES                                         *
    1235              ;*                            0 Parameter,  5 Auto,  0 SOE     *
    1236              ;***************************************************************
    1237              
    1238              _app_module_state_handle:
    1239                      .dwcfa  0x1d, -2
    1240                      .dwcfa  0x1c, 26, 0
    1241                      .dwcfa  0x09, 40, 26
    1242 00000139 FE06          ADDB      SP,#6
    1243                      .dwcfa  0x1d, -8
    1244              ;* AR4   assigned to _arg
    1245              DW$104  .dwtag  DW_TAG_formal_parameter, DW_AT_name("arg"), DW_AT_symbol_name("_arg")
    1246                      .dwattr DW$104, DW_AT_type(*DW$T$3)
    1247                      .dwattr DW$104, DW_AT_location[DW_OP_reg12]
    1248              DW$105  .dwtag  DW_TAG_variable, DW_AT_name("arg"), DW_AT_symbol_name("_arg")
    1249                      .dwattr DW$105, DW_AT_type(*DW$T$3)
    1250                      .dwattr DW$105, DW_AT_location[DW_OP_breg20 -2]
    1251              DW$106  .dwtag  DW_TAG_variable, DW_AT_name("msg_ptr"), DW_AT_symbol_name("_msg_ptr")
    1252                      .dwattr DW$106, DW_AT_type(*DW$T$87)
    1253                      .dwattr DW$106, DW_AT_location[DW_OP_breg20 -4]
    1254              DW$107  .dwtag  DW_TAG_variable, DW_AT_name("err"), DW_AT_symbol_name("_err")
    1255                      .dwattr DW$107, DW_AT_type(*DW$T$6)
    1256                      .dwattr DW$107, DW_AT_location[DW_OP_breg20 -5]
    1257 0000013a A842          MOVL      *-SP[2],XAR4          ; |285| 
TMS320C2000 COFF Assembler PC v4.1.3 Sat Sep 24 16:15:23 2011

Tools Copyright (c) 1996-2006 Texas Instruments Incorporated
C:\DOCUME~1\ADMINI~1\LOCALS~1\Temp\TI3202                            PAGE   25

    1258                      .dwpsn  "os_mod_maneger.c",288,10
    1259              L21:    
    1260              DW$L$_app_module_state_handle$2$B:
    1261                      .dwpsn  "os_mod_maneger.c",290,3
    1262 0000013b 5DAD          MOVZ      AR5,SP                ; |290| 
    1263 0000013c 761F-         MOVW      DP,#_m_mod_hmsg_qevent
         0000013d 0000 
    1264 0000013e 8A04-         MOVL      XAR4,@_m_mod_hmsg_qevent ; |290| 
    1265 0000013f 9A0A          MOVB      AL,#10                ; |290| 
    1266 00000140 DD85          SUBB      XAR5,#5               ; |290| 
    1267 00000141 7640!         LCR       #_OSQPend             ; |290| 
         00000142 0000 
    1268                      ; call occurs [#_OSQPend] ; |290| 
    1269 00000143 A844          MOVL      *-SP[4],XAR4          ; |290| 
    1270                      .dwpsn  "os_mod_maneger.c",293,3
    1271 00000144 9245          MOV       AL,*-SP[5]            ; |293| 
    1272 00000145 ED23          BF        L26,NEQ               ; |293| 
    1273                      ; branchcc occurs ; |293| 
    1274              DW$L$_app_module_state_handle$2$E:
    1275              DW$L$_app_module_state_handle$3$B:
    1276                      .dwpsn  "os_mod_maneger.c",295,4
    1277 00000146 8A44          MOVL      XAR4,*-SP[4]          ; |295| 
    1278 00000147 92CC          MOV       AL,*+XAR4[1]          ; |295| 
    1279 00000148 ED06          BF        L22,NEQ               ; |295| 
    1280                      ; branchcc occurs ; |295| 
    1281              DW$L$_app_module_state_handle$3$E:
    1282              DW$L$_app_module_state_handle$4$B:
    1283                      .dwpsn  "os_mod_maneger.c",297,5
    1284 00000149 8A44          MOVL      XAR4,*-SP[4]          ; |297| 
    1285 0000014a 92D4          MOV       AL,*+XAR4[2]          ; |297| 
    1286 0000014b 7640'         LCR       #_app_module_start    ; |297| 
         0000014c 0008 
    1287                      ; call occurs [#_app_module_start] ; |297| 
    1288                      .dwpsn  "os_mod_maneger.c",298,4
    1289 0000014d 6F19          B         L25,UNC               ; |298| 
    1290                      ; branch occurs ; |298| 
    1291              DW$L$_app_module_state_handle$4$E:
    1292              L22:    
    1293              DW$L$_app_module_state_handle$5$B:
    1294                      .dwpsn  "os_mod_maneger.c",299,9
    1295 0000014e 8A44          MOVL      XAR4,*-SP[4]          ; |299| 
    1296 0000014f 92CC          MOV       AL,*+XAR4[1]          ; |299| 
    1297 00000150 5201          CMPB      AL,#1                 ; |299| 
    1298 00000151 ED06          BF        L23,NEQ               ; |299| 
    1299                      ; branchcc occurs ; |299| 
    1300              DW$L$_app_module_state_handle$5$E:
    1301              DW$L$_app_module_state_handle$6$B:
    1302                      .dwpsn  "os_mod_maneger.c",301,5
    1303 00000152 8A44          MOVL      XAR4,*-SP[4]          ; |301| 
    1304 00000153 92DC          MOV       AL,*+XAR4[3]          ; |301| 
    1305 00000154 7640'         LCR       #_app_module_exit     ; |301| 
         00000155 0026 
    1306                      ; call occurs [#_app_module_exit] ; |301| 
    1307                      .dwpsn  "os_mod_maneger.c",302,4
    1308 00000156 6F10          B         L25,UNC               ; |302| 
TMS320C2000 COFF Assembler PC v4.1.3 Sat Sep 24 16:15:23 2011

Tools Copyright (c) 1996-2006 Texas Instruments Incorporated
C:\DOCUME~1\ADMINI~1\LOCALS~1\Temp\TI3202                            PAGE   26

    1309                      ; branch occurs ; |302| 
    1310              DW$L$_app_module_state_handle$6$E:
    1311              L23:    
    1312              DW$L$_app_module_state_handle$7$B:
    1313                      .dwpsn  "os_mod_maneger.c",303,9
    1314 00000157 8A44          MOVL      XAR4,*-SP[4]          ; |303| 
    1315 00000158 92CC          MOV       AL,*+XAR4[1]          ; |303| 
    1316 00000159 5202          CMPB      AL,#2                 ; |303| 
    1317 0000015a ED08          BF        L24,NEQ               ; |303| 
    1318                      ; branchcc occurs ; |303| 
    1319              DW$L$_app_module_state_handle$7$E:
    1320              DW$L$_app_module_state_handle$8$B:
    1321                      .dwpsn  "os_mod_maneger.c",305,5
    1322 0000015b 8A44          MOVL      XAR4,*-SP[4]          ; |305| 
    1323 0000015c 92D4          MOV       AL,*+XAR4[2]          ; |305| 
    1324 0000015d 8A44          MOVL      XAR4,*-SP[4]          ; |305| 
    1325 0000015e 93DC          MOV       AH,*+XAR4[3]          ; |305| 
    1326 0000015f 7640'         LCR       #_app_module_switch   ; |305| 
         00000160 0041 
    1327                      ; call occurs [#_app_module_switch] ; |305| 
    1328                      .dwpsn  "os_mod_maneger.c",307,4
    1329 00000161 6F05          B         L25,UNC               ; |307| 
    1330                      ; branch occurs ; |307| 
    1331              DW$L$_app_module_state_handle$8$E:
    1332              L24:    
    1333              DW$L$_app_module_state_handle$9$B:
    1334                      .dwpsn  "os_mod_maneger.c",308,9
    1335 00000162 8A44          MOVL      XAR4,*-SP[4]          ; |308| 
    1336 00000163 92CC          MOV       AL,*+XAR4[1]          ; |308| 
    1337 00000164 5203          CMPB      AL,#3                 ; |308| 
    1338 00000165 EC06          BF        L27,EQ                ; |308| 
    1339                      ; branchcc occurs ; |308| 
    1340              DW$L$_app_module_state_handle$9$E:
    1341              DW$L$_app_module_state_handle$10$B:
    1342                      .dwpsn  "os_mod_maneger.c",312,5
    1343              DW$L$_app_module_state_handle$10$E:
    1344              L25:    
    1345              DW$L$_app_module_state_handle$11$B:
    1346                      .dwpsn  "os_mod_maneger.c",314,4
    1347 00000166 8A44          MOVL      XAR4,*-SP[4]          ; |314| 
    1348 00000167 2BC4          MOV       *+XAR4[0],#0          ; |314| 
    1349              DW$L$_app_module_state_handle$11$E:
    1350              L26:    
    1351              DW$L$_app_module_state_handle$12$B:
    1352                      .dwpsn  "os_mod_maneger.c",316,3
    1353 00000168 7640!         LCR       #_app_module_handle_hook ; |316| 
         00000169 0000 
    1354                      ; call occurs [#_app_module_handle_hook] ; |316| 
    1355                      .dwpsn  "os_mod_maneger.c",288,10
    1356 0000016a 6FD1          B         L21,UNC               ; |288| 
    1357                      ; branch occurs ; |288| 
    1358              DW$L$_app_module_state_handle$12$E:
    1359              L27:    
    1360                      .dwpsn  "os_mod_maneger.c",318,1
    1361 0000016b FE86          SUBB      SP,#6
TMS320C2000 COFF Assembler PC v4.1.3 Sat Sep 24 16:15:23 2011

Tools Copyright (c) 1996-2006 Texas Instruments Incorporated
C:\DOCUME~1\ADMINI~1\LOCALS~1\Temp\TI3202                            PAGE   27

    1362                      .dwcfa  0x1d, -2
    1363 0000016c 0006          LRETR
    1364                      ; return occurs
    1365              
    1366              DW$108  .dwtag  DW_TAG_loop
    1367                      .dwattr DW$108, DW_AT_name("C:\DOCUME~1\ADMINI~1\LOCALS~1\Temp\TI3202:L21:1:1316852123")
    1368                      .dwattr DW$108, DW_AT_begin_file("os_mod_maneger.c")
    1369                      .dwattr DW$108, DW_AT_begin_line(0x120)
    1370                      .dwattr DW$108, DW_AT_end_line(0x13d)
    1371              DW$109  .dwtag  DW_TAG_loop_range
    1372                      .dwattr DW$109, DW_AT_low_pc(DW$L$_app_module_state_handle$2$B)
    1373                      .dwattr DW$109, DW_AT_high_pc(DW$L$_app_module_state_handle$2$E)
    1374              DW$110  .dwtag  DW_TAG_loop_range
    1375                      .dwattr DW$110, DW_AT_low_pc(DW$L$_app_module_state_handle$9$B)
    1376                      .dwattr DW$110, DW_AT_high_pc(DW$L$_app_module_state_handle$9$E)
    1377              DW$111  .dwtag  DW_TAG_loop_range
    1378                      .dwattr DW$111, DW_AT_low_pc(DW$L$_app_module_state_handle$7$B)
    1379                      .dwattr DW$111, DW_AT_high_pc(DW$L$_app_module_state_handle$7$E)
    1380              DW$112  .dwtag  DW_TAG_loop_range
    1381                      .dwattr DW$112, DW_AT_low_pc(DW$L$_app_module_state_handle$5$B)
    1382                      .dwattr DW$112, DW_AT_high_pc(DW$L$_app_module_state_handle$5$E)
    1383              DW$113  .dwtag  DW_TAG_loop_range
    1384                      .dwattr DW$113, DW_AT_low_pc(DW$L$_app_module_state_handle$3$B)
    1385                      .dwattr DW$113, DW_AT_high_pc(DW$L$_app_module_state_handle$3$E)
    1386              DW$114  .dwtag  DW_TAG_loop_range
    1387                      .dwattr DW$114, DW_AT_low_pc(DW$L$_app_module_state_handle$4$B)
    1388                      .dwattr DW$114, DW_AT_high_pc(DW$L$_app_module_state_handle$4$E)
    1389              DW$115  .dwtag  DW_TAG_loop_range
    1390                      .dwattr DW$115, DW_AT_low_pc(DW$L$_app_module_state_handle$6$B)
    1391                      .dwattr DW$115, DW_AT_high_pc(DW$L$_app_module_state_handle$6$E)
    1392              DW$116  .dwtag  DW_TAG_loop_range
    1393                      .dwattr DW$116, DW_AT_low_pc(DW$L$_app_module_state_handle$8$B)
    1394                      .dwattr DW$116, DW_AT_high_pc(DW$L$_app_module_state_handle$8$E)
    1395              DW$117  .dwtag  DW_TAG_loop_range
    1396                      .dwattr DW$117, DW_AT_low_pc(DW$L$_app_module_state_handle$10$B)
    1397                      .dwattr DW$117, DW_AT_high_pc(DW$L$_app_module_state_handle$10$E)
    1398              DW$118  .dwtag  DW_TAG_loop_range
    1399                      .dwattr DW$118, DW_AT_low_pc(DW$L$_app_module_state_handle$11$B)
    1400                      .dwattr DW$118, DW_AT_high_pc(DW$L$_app_module_state_handle$11$E)
    1401              DW$119  .dwtag  DW_TAG_loop_range
    1402                      .dwattr DW$119, DW_AT_low_pc(DW$L$_app_module_state_handle$12$B)
    1403                      .dwattr DW$119, DW_AT_high_pc(DW$L$_app_module_state_handle$12$E)
    1404                      .dwendtag DW$108
    1405              
    1406                      .dwattr DW$103, DW_AT_end_file("os_mod_maneger.c")
    1407                      .dwattr DW$103, DW_AT_end_line(0x13e)
    1408                      .dwattr DW$103, DW_AT_end_column(0x01)
    1409                      .dwendentry
    1410                      .dwendtag DW$103
    1411              
    1412 0000016d               .sect   ".text"
    1413                      .global _app_module_pos_name_set
    1414              
    1415              DW$120  .dwtag  DW_TAG_subprogram, DW_AT_name("app_module_pos_name_set"), DW_AT_symbol_name("_app_module_pos_
    1416                      .dwattr DW$120, DW_AT_low_pc(_app_module_pos_name_set)
TMS320C2000 COFF Assembler PC v4.1.3 Sat Sep 24 16:15:23 2011

Tools Copyright (c) 1996-2006 Texas Instruments Incorporated
C:\DOCUME~1\ADMINI~1\LOCALS~1\Temp\TI3202                            PAGE   28

    1417                      .dwattr DW$120, DW_AT_high_pc(0x00)
    1418                      .dwattr DW$120, DW_AT_begin_file("os_mod_maneger.c")
    1419                      .dwattr DW$120, DW_AT_begin_line(0x147)
    1420                      .dwattr DW$120, DW_AT_begin_column(0x06)
    1421                      .dwpsn  "os_mod_maneger.c",328,1
    1422              
    1423                      .dwfde DW$CIE
    1424              
    1425              ;***************************************************************
    1426              ;* FNAME: _app_module_pos_name_set      FR SIZE:   2           *
    1427              ;*                                                             *
    1428              ;* FUNCTION ENVIRONMENT                                        *
    1429              ;*                                                             *
    1430              ;* FUNCTION PROPERTIES                                         *
    1431              ;*                            0 Parameter,  2 Auto,  0 SOE     *
    1432              ;***************************************************************
    1433              
    1434              _app_module_pos_name_set:
    1435                      .dwcfa  0x1d, -2
    1436                      .dwcfa  0x1c, 26, 0
    1437                      .dwcfa  0x09, 40, 26
    1438 0000016d FE02          ADDB      SP,#2
    1439                      .dwcfa  0x1d, -4
    1440              ;* AR4   assigned to _name
    1441              DW$121  .dwtag  DW_TAG_formal_parameter, DW_AT_name("name"), DW_AT_symbol_name("_name")
    1442                      .dwattr DW$121, DW_AT_type(*DW$T$62)
    1443                      .dwattr DW$121, DW_AT_location[DW_OP_reg12]
    1444              DW$122  .dwtag  DW_TAG_variable, DW_AT_name("name"), DW_AT_symbol_name("_name")
    1445                      .dwattr DW$122, DW_AT_type(*DW$T$62)
    1446                      .dwattr DW$122, DW_AT_location[DW_OP_breg20 -2]
    1447 0000016e A842          MOVL      *-SP[2],XAR4          ; |328| 
    1448                      .dwpsn  "os_mod_maneger.c",329,2
    1449 0000016f 8A42          MOVL      XAR4,*-SP[2]          ; |329| 
    1450 00000170 7640!         LCR       #_global_strlen       ; |329| 
         00000171 0000 
    1451                      ; call occurs [#_global_strlen] ; |329| 
    1452 00000172 5213          CMPB      AL,#19                ; |329| 
    1453 00000173 670C          B         L28,HIS               ; |329| 
    1454                      ; branchcc occurs ; |329| 
    1455                      .dwpsn  "os_mod_maneger.c",331,3
    1456 00000174 9A00          MOVB      AL,#0
    1457 00000175 8F00-         MOVL      XAR4,#_m_mod_pos_name ; |331| 
         00000176 001A 
    1458 00000177 9B14          MOVB      AH,#20                ; |331| 
    1459 00000178 7640!         LCR       #_global_memset       ; |331| 
         00000179 0000 
    1460                      ; call occurs [#_global_memset] ; |331| 
    1461                      .dwpsn  "os_mod_maneger.c",332,3
    1462 0000017a 8342          MOVL      XAR5,*-SP[2]          ; |332| 
    1463 0000017b 8F00-         MOVL      XAR4,#_m_mod_pos_name ; |332| 
         0000017c 001A 
    1464 0000017d 7640!         LCR       #_global_strcpy       ; |332| 
         0000017e 0000 
    1465                      ; call occurs [#_global_strcpy] ; |332| 
    1466                      .dwpsn  "os_mod_maneger.c",334,2
TMS320C2000 COFF Assembler PC v4.1.3 Sat Sep 24 16:15:23 2011

Tools Copyright (c) 1996-2006 Texas Instruments Incorporated
C:\DOCUME~1\ADMINI~1\LOCALS~1\Temp\TI3202                            PAGE   29

    1467              L28:    
    1468                      .dwpsn  "os_mod_maneger.c",335,1
    1469 0000017f FE82          SUBB      SP,#2
    1470                      .dwcfa  0x1d, -2
    1471 00000180 0006          LRETR
    1472                      ; return occurs
    1473                      .dwattr DW$120, DW_AT_end_file("os_mod_maneger.c")
    1474                      .dwattr DW$120, DW_AT_end_line(0x14f)
    1475                      .dwattr DW$120, DW_AT_end_column(0x01)
    1476                      .dwendentry
    1477                      .dwendtag DW$120
    1478              
    1479 00000181               .sect   ".text"
    1480                      .global _app_module_pos_name_obtain
    1481              
    1482              DW$123  .dwtag  DW_TAG_subprogram, DW_AT_name("app_module_pos_name_obtain"), DW_AT_symbol_name("_app_module_p
    1483                      .dwattr DW$123, DW_AT_low_pc(_app_module_pos_name_obtain)
    1484                      .dwattr DW$123, DW_AT_high_pc(0x00)
    1485                      .dwattr DW$123, DW_AT_begin_file("os_mod_maneger.c")
    1486                      .dwattr DW$123, DW_AT_begin_line(0x158)
    1487                      .dwattr DW$123, DW_AT_begin_column(0x09)
    1488                      .dwpsn  "os_mod_maneger.c",345,1
    1489              
    1490                      .dwfde DW$CIE
    1491              
    1492              ;***************************************************************
    1493              ;* FNAME: _app_module_pos_name_obtain   FR SIZE:   2           *
    1494              ;*                                                             *
    1495              ;* FUNCTION ENVIRONMENT                                        *
    1496              ;*                                                             *
    1497              ;* FUNCTION PROPERTIES                                         *
    1498              ;*                            0 Parameter,  2 Auto,  0 SOE     *
    1499              ;***************************************************************
    1500              
    1501              _app_module_pos_name_obtain:
    1502                      .dwcfa  0x1d, -2
    1503                      .dwcfa  0x1c, 26, 0
    1504                      .dwcfa  0x09, 40, 26
    1505 00000181 FE02          ADDB      SP,#2
    1506                      .dwcfa  0x1d, -4
    1507              ;* AR4   assigned to _name
    1508              DW$124  .dwtag  DW_TAG_formal_parameter, DW_AT_name("name"), DW_AT_symbol_name("_name")
    1509                      .dwattr DW$124, DW_AT_type(*DW$T$62)
    1510                      .dwattr DW$124, DW_AT_location[DW_OP_reg12]
    1511              DW$125  .dwtag  DW_TAG_variable, DW_AT_name("name"), DW_AT_symbol_name("_name")
    1512                      .dwattr DW$125, DW_AT_type(*DW$T$62)
    1513                      .dwattr DW$125, DW_AT_location[DW_OP_breg20 -2]
    1514 00000182 A842          MOVL      *-SP[2],XAR4          ; |345| 
    1515                      .dwpsn  "os_mod_maneger.c",346,2
    1516 00000183 8A42          MOVL      XAR4,*-SP[2]          ; |346| 
    1517 00000184 8F40-         MOVL      XAR5,#_m_mod_pos_name ; |346| 
         00000185 001A 
    1518 00000186 7640!         LCR       #_global_strcpy       ; |346| 
         00000187 0000 
    1519                      ; call occurs [#_global_strcpy] ; |346| 
TMS320C2000 COFF Assembler PC v4.1.3 Sat Sep 24 16:15:23 2011

Tools Copyright (c) 1996-2006 Texas Instruments Incorporated
C:\DOCUME~1\ADMINI~1\LOCALS~1\Temp\TI3202                            PAGE   30

    1520                      .dwpsn  "os_mod_maneger.c",347,2
    1521 00000188 8A42          MOVL      XAR4,*-SP[2]          ; |347| 
    1522 00000189 7640!         LCR       #_global_strlen       ; |347| 
         0000018a 0000 
    1523                      ; call occurs [#_global_strlen] ; |347| 
    1524                      .dwpsn  "os_mod_maneger.c",348,1
    1525 0000018b FE82          SUBB      SP,#2                 ; |347| 
    1526                      .dwcfa  0x1d, -2
    1527 0000018c 0006          LRETR
    1528                      ; return occurs
    1529                      .dwattr DW$123, DW_AT_end_file("os_mod_maneger.c")
    1530                      .dwattr DW$123, DW_AT_end_line(0x15c)
    1531                      .dwattr DW$123, DW_AT_end_column(0x01)
    1532                      .dwendentry
    1533                      .dwendtag DW$123
    1534              
    1535 0000018d               .sect   ".text"
    1536                      .global _app_module_maneger_init
    1537              
    1538              DW$126  .dwtag  DW_TAG_subprogram, DW_AT_name("app_module_maneger_init"), DW_AT_symbol_name("_app_module_mane
    1539                      .dwattr DW$126, DW_AT_low_pc(_app_module_maneger_init)
    1540                      .dwattr DW$126, DW_AT_high_pc(0x00)
    1541                      .dwattr DW$126, DW_AT_begin_file("os_mod_maneger.c")
    1542                      .dwattr DW$126, DW_AT_begin_line(0x165)
    1543                      .dwattr DW$126, DW_AT_begin_column(0x06)
    1544                      .dwpsn  "os_mod_maneger.c",358,1
    1545              
    1546                      .dwfde DW$CIE
    1547              
    1548              ;***************************************************************
    1549              ;* FNAME: _app_module_maneger_init      FR SIZE:   0           *
    1550              ;*                                                             *
    1551              ;* FUNCTION ENVIRONMENT                                        *
    1552              ;*                                                             *
    1553              ;* FUNCTION PROPERTIES                                         *
    1554              ;*                            0 Parameter,  0 Auto,  0 SOE     *
    1555              ;***************************************************************
    1556              
    1557              _app_module_maneger_init:
    1558                      .dwcfa  0x1d, -2
    1559                      .dwcfa  0x1c, 26, 0
    1560                      .dwcfa  0x09, 40, 26
    1561                      .dwpsn  "os_mod_maneger.c",359,2
    1562 0000018d 025C          MOVB      ACC,#92
    1563 0000018e D500          MOVB      XAR5,#0
    1564 0000018f 8F00-         MOVL      XAR4,#_m_mod_maneger_array ; |359| 
         00000190 0040 
    1565 00000191 7640!         LCR       #_memset              ; |359| 
         00000192 0000 
    1566                      ; call occurs [#_memset] ; |359| 
    1567                      .dwpsn  "os_mod_maneger.c",363,2
    1568 00000193 D500          MOVB      XAR5,#0
    1569 00000194 8F00-         MOVL      XAR4,#_m_mod_hmsg_box ; |363| 
         00000195 000E 
    1570 00000196 020C          MOVB      ACC,#12
TMS320C2000 COFF Assembler PC v4.1.3 Sat Sep 24 16:15:23 2011

Tools Copyright (c) 1996-2006 Texas Instruments Incorporated
C:\DOCUME~1\ADMINI~1\LOCALS~1\Temp\TI3202                            PAGE   31

    1571 00000197 7640!         LCR       #_memset              ; |363| 
         00000198 0000 
    1572                      ; call occurs [#_memset] ; |363| 
    1573                      .dwpsn  "os_mod_maneger.c",367,2
    1574 00000199 9A03          MOVB      AL,#3                 ; |367| 
    1575 0000019a 8F00-         MOVL      XAR4,#_m_mod_hmsg_qevent ; |367| 
         0000019b 0004 
    1576 0000019c 8F40-         MOVL      XAR5,#_m_mod_hqmsg_buf ; |367| 
         0000019d 0008 
    1577 0000019e 7640!         LCR       #_os_q_creat          ; |367| 
         0000019f 0000 
    1578                      ; call occurs [#_os_q_creat] ; |367| 
    1579                      .dwpsn  "os_mod_maneger.c",371,2
    1580 000001a0 9A01          MOVB      AL,#1                 ; |371| 
    1581 000001a1 8F00-         MOVL      XAR4,#_m_mod_hmsg_sem ; |371| 
         000001a2 0006 
    1582 000001a3 7640!         LCR       #_os_sem_creat        ; |371| 
         000001a4 0000 
    1583                      ; call occurs [#_os_sem_creat] ; |371| 
    1584                      .dwpsn  "os_mod_maneger.c",372,2
    1585                      .dwpsn  "os_mod_maneger.c",373,1
    1586 000001a5 0006          LRETR
    1587                      ; return occurs
    1588                      .dwattr DW$126, DW_AT_end_file("os_mod_maneger.c")
    1589                      .dwattr DW$126, DW_AT_end_line(0x175)
    1590                      .dwattr DW$126, DW_AT_end_column(0x01)
    1591                      .dwendentry
    1592                      .dwendtag DW$126
    1593              
    1594 000001a6               .sect   ".text"
    1595                      .global _app_module_get_cur_id
    1596              
    1597              DW$127  .dwtag  DW_TAG_subprogram, DW_AT_name("app_module_get_cur_id"), DW_AT_symbol_name("_app_module_get_cu
    1598                      .dwattr DW$127, DW_AT_low_pc(_app_module_get_cur_id)
    1599                      .dwattr DW$127, DW_AT_high_pc(0x00)
    1600                      .dwattr DW$127, DW_AT_begin_file("os_mod_maneger.c")
    1601                      .dwattr DW$127, DW_AT_begin_line(0x17e)
    1602                      .dwattr DW$127, DW_AT_begin_column(0x09)
    1603                      .dwpsn  "os_mod_maneger.c",383,1
    1604              
    1605                      .dwfde DW$CIE
    1606              
    1607              ;***************************************************************
    1608              ;* FNAME: _app_module_get_cur_id        FR SIZE:   0           *
    1609              ;*                                                             *
    1610              ;* FUNCTION ENVIRONMENT                                        *
    1611              ;*                                                             *
    1612              ;* FUNCTION PROPERTIES                                         *
    1613              ;*                            0 Parameter,  0 Auto,  0 SOE     *
    1614              ;***************************************************************
    1615              
    1616              _app_module_get_cur_id:
    1617                      .dwcfa  0x1d, -2
    1618                      .dwcfa  0x1c, 26, 0
    1619                      .dwcfa  0x09, 40, 26
TMS320C2000 COFF Assembler PC v4.1.3 Sat Sep 24 16:15:23 2011

Tools Copyright (c) 1996-2006 Texas Instruments Incorporated
C:\DOCUME~1\ADMINI~1\LOCALS~1\Temp\TI3202                            PAGE   32

    1620                      .dwpsn  "os_mod_maneger.c",384,2
    1621 000001a6 761F-         MOVW      DP,#_m_cur_mod_id
         000001a7 0000 
    1622 000001a8 9202-         MOV       AL,@_m_cur_mod_id     ; |384| 
    1623                      .dwpsn  "os_mod_maneger.c",385,1
    1624 000001a9 0006          LRETR
    1625                      ; return occurs
    1626                      .dwattr DW$127, DW_AT_end_file("os_mod_maneger.c")
    1627                      .dwattr DW$127, DW_AT_end_line(0x181)
    1628                      .dwattr DW$127, DW_AT_end_column(0x01)
    1629                      .dwendentry
    1630                      .dwendtag DW$127
    1631              
    1632 000001aa               .sect   ".text"
    1633                      .global _app_module_get_last_id
    1634              
    1635              DW$128  .dwtag  DW_TAG_subprogram, DW_AT_name("app_module_get_last_id"), DW_AT_symbol_name("_app_module_get_l
    1636                      .dwattr DW$128, DW_AT_low_pc(_app_module_get_last_id)
    1637                      .dwattr DW$128, DW_AT_high_pc(0x00)
    1638                      .dwattr DW$128, DW_AT_begin_file("os_mod_maneger.c")
    1639                      .dwattr DW$128, DW_AT_begin_line(0x18a)
    1640                      .dwattr DW$128, DW_AT_begin_column(0x09)
    1641                      .dwpsn  "os_mod_maneger.c",395,1
    1642              
    1643                      .dwfde DW$CIE
    1644              
    1645              ;***************************************************************
    1646              ;* FNAME: _app_module_get_last_id       FR SIZE:   0           *
    1647              ;*                                                             *
    1648              ;* FUNCTION ENVIRONMENT                                        *
    1649              ;*                                                             *
    1650              ;* FUNCTION PROPERTIES                                         *
    1651              ;*                            0 Parameter,  0 Auto,  0 SOE     *
    1652              ;***************************************************************
    1653              
    1654              _app_module_get_last_id:
    1655                      .dwcfa  0x1d, -2
    1656                      .dwcfa  0x1c, 26, 0
    1657                      .dwcfa  0x09, 40, 26
    1658                      .dwpsn  "os_mod_maneger.c",396,2
    1659 000001aa 761F-         MOVW      DP,#_m_last_mod_id
         000001ab 0000 
    1660 000001ac 9201-         MOV       AL,@_m_last_mod_id    ; |396| 
    1661                      .dwpsn  "os_mod_maneger.c",397,1
    1662 000001ad 0006          LRETR
    1663                      ; return occurs
    1664                      .dwattr DW$128, DW_AT_end_file("os_mod_maneger.c")
    1665                      .dwattr DW$128, DW_AT_end_line(0x18d)
    1666                      .dwattr DW$128, DW_AT_end_column(0x01)
    1667                      .dwendentry
    1668                      .dwendtag DW$128
    1669              
    1670 000001ae               .sect   ".text"
    1671                      .global _app_module_get_reboot_flag
    1672              
TMS320C2000 COFF Assembler PC v4.1.3 Sat Sep 24 16:15:23 2011

Tools Copyright (c) 1996-2006 Texas Instruments Incorporated
C:\DOCUME~1\ADMINI~1\LOCALS~1\Temp\TI3202                            PAGE   33

    1673              DW$129  .dwtag  DW_TAG_subprogram, DW_AT_name("app_module_get_reboot_flag"), DW_AT_symbol_name("_app_module_g
    1674                      .dwattr DW$129, DW_AT_low_pc(_app_module_get_reboot_flag)
    1675                      .dwattr DW$129, DW_AT_high_pc(0x00)
    1676                      .dwattr DW$129, DW_AT_begin_file("os_mod_maneger.c")
    1677                      .dwattr DW$129, DW_AT_begin_line(0x196)
    1678                      .dwattr DW$129, DW_AT_begin_column(0x09)
    1679                      .dwpsn  "os_mod_maneger.c",407,1
    1680              
    1681                      .dwfde DW$CIE
    1682              
    1683              ;***************************************************************
    1684              ;* FNAME: _app_module_get_reboot_flag   FR SIZE:   0           *
    1685              ;*                                                             *
    1686              ;* FUNCTION ENVIRONMENT                                        *
    1687              ;*                                                             *
    1688              ;* FUNCTION PROPERTIES                                         *
    1689              ;*                            0 Parameter,  0 Auto,  0 SOE     *
    1690              ;***************************************************************
    1691              
    1692              _app_module_get_reboot_flag:
    1693                      .dwcfa  0x1d, -2
    1694                      .dwcfa  0x1c, 26, 0
    1695                      .dwcfa  0x09, 40, 26
    1696                      .dwpsn  "os_mod_maneger.c",408,2
    1697 000001ae 761F-         MOVW      DP,#_m_reboot_flag
         000001af 0000 
    1698 000001b0 9200-         MOV       AL,@_m_reboot_flag    ; |408| 
    1699                      .dwpsn  "os_mod_maneger.c",409,1
    1700 000001b1 0006          LRETR
    1701                      ; return occurs
    1702                      .dwattr DW$129, DW_AT_end_file("os_mod_maneger.c")
    1703                      .dwattr DW$129, DW_AT_end_line(0x199)
    1704                      .dwattr DW$129, DW_AT_end_column(0x01)
    1705                      .dwendentry
    1706                      .dwendtag DW$129
    1707              
    1708              ;***************************************************************
    1709              ;* UNDEFINED EXTERNAL REFERENCES                               *
    1710              ;***************************************************************
    1711                      .global _os_q_creat
    1712                      .global _OSTimeDly
    1713                      .global _app_module_handle_hook
    1714                      .global _global_memset
    1715                      .global _OSQPost
    1716                      .global _global_strlen
    1717                      .global _os_sem_pend
    1718                      .global _os_sem_creat
    1719                      .global _OSSemPost
    1720                      .global _memset
    1721                      .global _global_strcpy
    1722                      .global _OSQPend
    1723                      .global _g_module_id_array
    1724              
    1725              ;***************************************************************
    1726              ;* TYPE INFORMATION                                            *
TMS320C2000 COFF Assembler PC v4.1.3 Sat Sep 24 16:15:23 2011

Tools Copyright (c) 1996-2006 Texas Instruments Incorporated
C:\DOCUME~1\ADMINI~1\LOCALS~1\Temp\TI3202                            PAGE   34

    1727              ;***************************************************************
    1728              DW$T$3  .dwtag  DW_TAG_pointer_type
    1729                      .dwattr DW$T$3, DW_AT_address_class(0x16)
    1730              
    1731              DW$T$37 .dwtag  DW_TAG_subroutine_type, DW_AT_type(*DW$T$3)
    1732                      .dwattr DW$T$37, DW_AT_language(DW_LANG_C)
    1733              DW$130  .dwtag  DW_TAG_formal_parameter, DW_AT_type(*DW$T$35)
    1734              DW$131  .dwtag  DW_TAG_formal_parameter, DW_AT_type(*DW$T$20)
    1735              DW$132  .dwtag  DW_TAG_formal_parameter, DW_AT_type(*DW$T$36)
    1736                      .dwendtag DW$T$37
    1737              
    1738              DW$T$39 .dwtag  DW_TAG_pointer_type, DW_AT_type(*DW$T$3)
    1739                      .dwattr DW$T$39, DW_AT_address_class(0x16)
    1740              
    1741              DW$T$41 .dwtag  DW_TAG_subroutine_type, DW_AT_type(*DW$T$3)
    1742                      .dwattr DW$T$41, DW_AT_language(DW_LANG_C)
    1743              DW$133  .dwtag  DW_TAG_formal_parameter, DW_AT_type(*DW$T$3)
    1744              DW$134  .dwtag  DW_TAG_formal_parameter, DW_AT_type(*DW$T$10)
    1745              DW$135  .dwtag  DW_TAG_formal_parameter, DW_AT_type(*DW$T$40)
    1746                      .dwendtag DW$T$41
    1747              
    1748              
    1749              DW$T$43 .dwtag  DW_TAG_array_type, DW_AT_type(*DW$T$3)
    1750                      .dwattr DW$T$43, DW_AT_language(DW_LANG_C)
    1751                      .dwattr DW$T$43, DW_AT_byte_size(0x06)
    1752              DW$136  .dwtag  DW_TAG_subrange_type
    1753                      .dwattr DW$136, DW_AT_upper_bound(0x02)
    1754                      .dwendtag DW$T$43
    1755              
    1756              
    1757              DW$T$24 .dwtag  DW_TAG_subroutine_type
    1758                      .dwattr DW$T$24, DW_AT_language(DW_LANG_C)
    1759              
    1760              DW$T$44 .dwtag  DW_TAG_subroutine_type
    1761                      .dwattr DW$T$44, DW_AT_language(DW_LANG_C)
    1762              DW$137  .dwtag  DW_TAG_formal_parameter, DW_AT_type(*DW$T$20)
    1763                      .dwendtag DW$T$44
    1764              
    1765              
    1766              DW$T$49 .dwtag  DW_TAG_subroutine_type
    1767                      .dwattr DW$T$49, DW_AT_language(DW_LANG_C)
    1768              DW$138  .dwtag  DW_TAG_formal_parameter, DW_AT_type(*DW$T$48)
    1769              DW$139  .dwtag  DW_TAG_formal_parameter, DW_AT_type(*DW$T$39)
    1770              DW$140  .dwtag  DW_TAG_formal_parameter, DW_AT_type(*DW$T$11)
    1771                      .dwendtag DW$T$49
    1772              
    1773              
    1774              DW$T$51 .dwtag  DW_TAG_subroutine_type
    1775                      .dwattr DW$T$51, DW_AT_language(DW_LANG_C)
    1776              DW$141  .dwtag  DW_TAG_formal_parameter, DW_AT_type(*DW$T$3)
    1777              DW$142  .dwtag  DW_TAG_formal_parameter, DW_AT_type(*DW$T$6)
    1778              DW$143  .dwtag  DW_TAG_formal_parameter, DW_AT_type(*DW$T$23)
    1779                      .dwendtag DW$T$51
    1780              
    1781              
TMS320C2000 COFF Assembler PC v4.1.3 Sat Sep 24 16:15:23 2011

Tools Copyright (c) 1996-2006 Texas Instruments Incorporated
C:\DOCUME~1\ADMINI~1\LOCALS~1\Temp\TI3202                            PAGE   35

    1782              DW$T$53 .dwtag  DW_TAG_subroutine_type
    1783                      .dwattr DW$T$53, DW_AT_language(DW_LANG_C)
    1784              DW$144  .dwtag  DW_TAG_formal_parameter, DW_AT_type(*DW$T$3)
    1785                      .dwendtag DW$T$53
    1786              
    1787              
    1788              DW$T$55 .dwtag  DW_TAG_subroutine_type
    1789                      .dwattr DW$T$55, DW_AT_language(DW_LANG_C)
    1790              DW$145  .dwtag  DW_TAG_formal_parameter, DW_AT_type(*DW$T$23)
    1791                      .dwendtag DW$T$55
    1792              
    1793              
    1794              DW$T$57 .dwtag  DW_TAG_subroutine_type
    1795                      .dwattr DW$T$57, DW_AT_language(DW_LANG_C)
    1796              DW$146  .dwtag  DW_TAG_formal_parameter, DW_AT_type(*DW$T$23)
    1797              DW$147  .dwtag  DW_TAG_formal_parameter, DW_AT_type(*DW$T$23)
    1798                      .dwendtag DW$T$57
    1799              
    1800              
    1801              DW$T$59 .dwtag  DW_TAG_subroutine_type
    1802                      .dwattr DW$T$59, DW_AT_language(DW_LANG_C)
    1803              DW$148  .dwtag  DW_TAG_formal_parameter, DW_AT_type(*DW$T$23)
    1804              DW$149  .dwtag  DW_TAG_formal_parameter, DW_AT_type(*DW$T$23)
    1805              DW$150  .dwtag  DW_TAG_formal_parameter, DW_AT_type(*DW$T$23)
    1806                      .dwendtag DW$T$59
    1807              
    1808              
    1809              DW$T$63 .dwtag  DW_TAG_subroutine_type
    1810                      .dwattr DW$T$63, DW_AT_language(DW_LANG_C)
    1811              DW$151  .dwtag  DW_TAG_formal_parameter, DW_AT_type(*DW$T$62)
    1812                      .dwendtag DW$T$63
    1813              
    1814              DW$T$6  .dwtag  DW_TAG_base_type, DW_AT_name("unsigned char")
    1815                      .dwattr DW$T$6, DW_AT_encoding(DW_ATE_unsigned_char)
    1816                      .dwattr DW$T$6, DW_AT_byte_size(0x01)
    1817              DW$T$19 .dwtag  DW_TAG_typedef, DW_AT_name("INT8U"), DW_AT_type(*DW$T$6)
    1818                      .dwattr DW$T$19, DW_AT_language(DW_LANG_C)
    1819              DW$T$36 .dwtag  DW_TAG_pointer_type, DW_AT_type(*DW$T$19)
    1820                      .dwattr DW$T$36, DW_AT_address_class(0x16)
    1821              
    1822              DW$T$64 .dwtag  DW_TAG_subroutine_type, DW_AT_type(*DW$T$19)
    1823                      .dwattr DW$T$64, DW_AT_language(DW_LANG_C)
    1824              DW$152  .dwtag  DW_TAG_formal_parameter, DW_AT_type(*DW$T$35)
    1825              DW$153  .dwtag  DW_TAG_formal_parameter, DW_AT_type(*DW$T$3)
    1826                      .dwendtag DW$T$64
    1827              
    1828              
    1829              DW$T$66 .dwtag  DW_TAG_subroutine_type, DW_AT_type(*DW$T$19)
    1830                      .dwattr DW$T$66, DW_AT_language(DW_LANG_C)
    1831              DW$154  .dwtag  DW_TAG_formal_parameter, DW_AT_type(*DW$T$35)
    1832                      .dwendtag DW$T$66
    1833              
    1834              
    1835              DW$T$71 .dwtag  DW_TAG_subroutine_type, DW_AT_type(*DW$T$6)
    1836                      .dwattr DW$T$71, DW_AT_language(DW_LANG_C)
TMS320C2000 COFF Assembler PC v4.1.3 Sat Sep 24 16:15:23 2011

Tools Copyright (c) 1996-2006 Texas Instruments Incorporated
C:\DOCUME~1\ADMINI~1\LOCALS~1\Temp\TI3202                            PAGE   36

    1837              DW$155  .dwtag  DW_TAG_formal_parameter, DW_AT_type(*DW$T$70)
    1838              DW$156  .dwtag  DW_TAG_formal_parameter, DW_AT_type(*DW$T$11)
    1839                      .dwendtag DW$T$71
    1840              
    1841              
    1842              DW$T$73 .dwtag  DW_TAG_subroutine_type, DW_AT_type(*DW$T$6)
    1843                      .dwattr DW$T$73, DW_AT_language(DW_LANG_C)
    1844              DW$157  .dwtag  DW_TAG_formal_parameter, DW_AT_type(*DW$T$69)
    1845              DW$158  .dwtag  DW_TAG_formal_parameter, DW_AT_type(*DW$T$11)
    1846                      .dwendtag DW$T$73
    1847              
    1848              DW$T$10 .dwtag  DW_TAG_base_type, DW_AT_name("int")
    1849                      .dwattr DW$T$10, DW_AT_encoding(DW_ATE_signed)
    1850                      .dwattr DW$T$10, DW_AT_byte_size(0x01)
    1851              DW$T$11 .dwtag  DW_TAG_base_type, DW_AT_name("unsigned int")
    1852                      .dwattr DW$T$11, DW_AT_encoding(DW_ATE_unsigned)
    1853                      .dwattr DW$T$11, DW_AT_byte_size(0x01)
    1854              DW$T$20 .dwtag  DW_TAG_typedef, DW_AT_name("INT16U"), DW_AT_type(*DW$T$11)
    1855                      .dwattr DW$T$20, DW_AT_language(DW_LANG_C)
    1856              DW$T$23 .dwtag  DW_TAG_typedef, DW_AT_name("Bsize_t"), DW_AT_type(*DW$T$11)
    1857                      .dwattr DW$T$23, DW_AT_language(DW_LANG_C)
    1858              
    1859              DW$T$76 .dwtag  DW_TAG_subroutine_type, DW_AT_type(*DW$T$23)
    1860                      .dwattr DW$T$76, DW_AT_language(DW_LANG_C)
    1861              DW$159  .dwtag  DW_TAG_formal_parameter, DW_AT_type(*DW$T$62)
    1862                      .dwendtag DW$T$76
    1863              
    1864              
    1865              DW$T$79 .dwtag  DW_TAG_subroutine_type, DW_AT_type(*DW$T$23)
    1866                      .dwattr DW$T$79, DW_AT_language(DW_LANG_C)
    1867              DW$160  .dwtag  DW_TAG_formal_parameter, DW_AT_type(*DW$T$78)
    1868                      .dwendtag DW$T$79
    1869              
    1870              
    1871              DW$T$80 .dwtag  DW_TAG_subroutine_type, DW_AT_type(*DW$T$23)
    1872                      .dwattr DW$T$80, DW_AT_language(DW_LANG_C)
    1873              DW$T$40 .dwtag  DW_TAG_typedef, DW_AT_name("size_t"), DW_AT_type(*DW$T$13)
    1874                      .dwattr DW$T$40, DW_AT_language(DW_LANG_C)
    1875              DW$T$35 .dwtag  DW_TAG_pointer_type, DW_AT_type(*DW$T$34)
    1876                      .dwattr DW$T$35, DW_AT_address_class(0x16)
    1877              DW$T$47 .dwtag  DW_TAG_pointer_type, DW_AT_type(*DW$T$46)
    1878                      .dwattr DW$T$47, DW_AT_address_class(0x16)
    1879              DW$T$48 .dwtag  DW_TAG_pointer_type, DW_AT_type(*DW$T$47)
    1880                      .dwattr DW$T$48, DW_AT_address_class(0x16)
    1881              DW$T$69 .dwtag  DW_TAG_pointer_type, DW_AT_type(*DW$T$68)
    1882                      .dwattr DW$T$69, DW_AT_address_class(0x16)
    1883              DW$T$70 .dwtag  DW_TAG_pointer_type, DW_AT_type(*DW$T$69)
    1884                      .dwattr DW$T$70, DW_AT_address_class(0x16)
    1885              DW$T$78 .dwtag  DW_TAG_pointer_type, DW_AT_type(*DW$T$31)
    1886                      .dwattr DW$T$78, DW_AT_address_class(0x16)
    1887              DW$T$87 .dwtag  DW_TAG_pointer_type, DW_AT_type(*DW$T$86)
    1888                      .dwattr DW$T$87, DW_AT_address_class(0x16)
    1889              
    1890              DW$T$88 .dwtag  DW_TAG_subroutine_type, DW_AT_type(*DW$T$87)
    1891                      .dwattr DW$T$88, DW_AT_language(DW_LANG_C)
TMS320C2000 COFF Assembler PC v4.1.3 Sat Sep 24 16:15:23 2011

Tools Copyright (c) 1996-2006 Texas Instruments Incorporated
C:\DOCUME~1\ADMINI~1\LOCALS~1\Temp\TI3202                            PAGE   37

    1892              
    1893              DW$T$90 .dwtag  DW_TAG_array_type, DW_AT_type(*DW$T$86)
    1894                      .dwattr DW$T$90, DW_AT_language(DW_LANG_C)
    1895                      .dwattr DW$T$90, DW_AT_byte_size(0x0c)
    1896              DW$161  .dwtag  DW_TAG_subrange_type
    1897                      .dwattr DW$161, DW_AT_upper_bound(0x02)
    1898                      .dwendtag DW$T$90
    1899              
    1900              DW$T$92 .dwtag  DW_TAG_typedef, DW_AT_name("module_id_t"), DW_AT_type(*DW$T$30)
    1901                      .dwattr DW$T$92, DW_AT_language(DW_LANG_C)
    1902              DW$T$93 .dwtag  DW_TAG_typedef, DW_AT_name("app_mod_maneger_t"), DW_AT_type(*DW$T$33)
    1903                      .dwattr DW$T$93, DW_AT_language(DW_LANG_C)
    1904              DW$T$62 .dwtag  DW_TAG_pointer_type, DW_AT_type(*DW$T$61)
    1905                      .dwattr DW$T$62, DW_AT_address_class(0x16)
    1906              
    1907              DW$T$81 .dwtag  DW_TAG_subroutine_type, DW_AT_type(*DW$T$62)
    1908                      .dwattr DW$T$81, DW_AT_language(DW_LANG_C)
    1909              DW$162  .dwtag  DW_TAG_formal_parameter, DW_AT_type(*DW$T$62)
    1910              DW$163  .dwtag  DW_TAG_formal_parameter, DW_AT_type(*DW$T$62)
    1911                      .dwendtag DW$T$81
    1912              
    1913              
    1914              DW$T$83 .dwtag  DW_TAG_array_type, DW_AT_type(*DW$T$61)
    1915                      .dwattr DW$T$83, DW_AT_language(DW_LANG_C)
    1916                      .dwattr DW$T$83, DW_AT_byte_size(0x14)
    1917              DW$164  .dwtag  DW_TAG_subrange_type
    1918                      .dwattr DW$164, DW_AT_upper_bound(0x13)
    1919                      .dwendtag DW$T$83
    1920              
    1921              DW$T$13 .dwtag  DW_TAG_base_type, DW_AT_name("unsigned long")
    1922                      .dwattr DW$T$13, DW_AT_encoding(DW_ATE_unsigned)
    1923                      .dwattr DW$T$13, DW_AT_byte_size(0x02)
    1924              DW$T$34 .dwtag  DW_TAG_typedef, DW_AT_name("OS_EVENT"), DW_AT_type(*DW$T$22)
    1925                      .dwattr DW$T$34, DW_AT_language(DW_LANG_C)
    1926              DW$T$46 .dwtag  DW_TAG_typedef, DW_AT_name("a_q_t"), DW_AT_type(*DW$T$34)
    1927                      .dwattr DW$T$46, DW_AT_language(DW_LANG_C)
    1928              DW$T$68 .dwtag  DW_TAG_typedef, DW_AT_name("a_sem_t"), DW_AT_type(*DW$T$34)
    1929                      .dwattr DW$T$68, DW_AT_language(DW_LANG_C)
    1930              DW$T$31 .dwtag  DW_TAG_typedef, DW_AT_name("app_mod_inlet_t"), DW_AT_type(*DW$T$28)
    1931                      .dwattr DW$T$31, DW_AT_language(DW_LANG_C)
    1932              DW$T$86 .dwtag  DW_TAG_typedef, DW_AT_name("app_mod_handle_msg_t"), DW_AT_type(*DW$T$29)
    1933                      .dwattr DW$T$86, DW_AT_language(DW_LANG_C)
    1934              
    1935              DW$T$30 .dwtag  DW_TAG_structure_type
    1936                      .dwattr DW$T$30, DW_AT_byte_size(0x0e)
    1937              DW$165  .dwtag  DW_TAG_member, DW_AT_type(*DW$T$23)
    1938                      .dwattr DW$165, DW_AT_name("DL_measure_mod_id"), DW_AT_symbol_name("_DL_measure_mod_id")
    1939                      .dwattr DW$165, DW_AT_data_member_location[DW_OP_plus_uconst 0x0]
    1940                      .dwattr DW$165, DW_AT_accessibility(DW_ACCESS_public)
    1941              DW$166  .dwtag  DW_TAG_member, DW_AT_type(*DW$T$23)
    1942                      .dwattr DW$166, DW_AT_name("Sys_setup_mod_id"), DW_AT_symbol_name("_Sys_setup_mod_id")
    1943                      .dwattr DW$166, DW_AT_data_member_location[DW_OP_plus_uconst 0x1]
    1944                      .dwattr DW$166, DW_AT_accessibility(DW_ACCESS_public)
    1945              DW$167  .dwtag  DW_TAG_member, DW_AT_type(*DW$T$23)
    1946                      .dwattr DW$167, DW_AT_name("USB_mod_id"), DW_AT_symbol_name("_USB_mod_id")
TMS320C2000 COFF Assembler PC v4.1.3 Sat Sep 24 16:15:23 2011

Tools Copyright (c) 1996-2006 Texas Instruments Incorporated
C:\DOCUME~1\ADMINI~1\LOCALS~1\Temp\TI3202                            PAGE   38

    1947                      .dwattr DW$167, DW_AT_data_member_location[DW_OP_plus_uconst 0x2]
    1948                      .dwattr DW$167, DW_AT_accessibility(DW_ACCESS_public)
    1949              DW$168  .dwtag  DW_TAG_member, DW_AT_type(*DW$T$23)
    1950                      .dwattr DW$168, DW_AT_name("RM_mod_id"), DW_AT_symbol_name("_RM_mod_id")
    1951                      .dwattr DW$168, DW_AT_data_member_location[DW_OP_plus_uconst 0x3]
    1952                      .dwattr DW$168, DW_AT_accessibility(DW_ACCESS_public)
    1953              DW$169  .dwtag  DW_TAG_member, DW_AT_type(*DW$T$23)
    1954                      .dwattr DW$169, DW_AT_name("PC_mod_id"), DW_AT_symbol_name("_PC_mod_id")
    1955                      .dwattr DW$169, DW_AT_data_member_location[DW_OP_plus_uconst 0x4]
    1956                      .dwattr DW$169, DW_AT_accessibility(DW_ACCESS_public)
    1957              DW$170  .dwtag  DW_TAG_member, DW_AT_type(*DW$T$23)
    1958                      .dwattr DW$170, DW_AT_name("Help_mod_id"), DW_AT_symbol_name("_Help_mod_id")
    1959                      .dwattr DW$170, DW_AT_data_member_location[DW_OP_plus_uconst 0x5]
    1960                      .dwattr DW$170, DW_AT_accessibility(DW_ACCESS_public)
    1961              DW$171  .dwtag  DW_TAG_member, DW_AT_type(*DW$T$23)
    1962                      .dwattr DW$171, DW_AT_name("HZ_input_mod_id"), DW_AT_symbol_name("_HZ_input_mod_id")
    1963                      .dwattr DW$171, DW_AT_data_member_location[DW_OP_plus_uconst 0x6]
    1964                      .dwattr DW$171, DW_AT_accessibility(DW_ACCESS_public)
    1965              DW$172  .dwtag  DW_TAG_member, DW_AT_type(*DW$T$23)
    1966                      .dwattr DW$172, DW_AT_name("Err_correct_mod_id"), DW_AT_symbol_name("_Err_correct_mod_id")
    1967                      .dwattr DW$172, DW_AT_data_member_location[DW_OP_plus_uconst 0x7]
    1968                      .dwattr DW$172, DW_AT_accessibility(DW_ACCESS_public)
    1969              DW$173  .dwtag  DW_TAG_member, DW_AT_type(*DW$T$23)
    1970                      .dwattr DW$173, DW_AT_name("Wave_mod_id"), DW_AT_symbol_name("_Wave_mod_id")
    1971                      .dwattr DW$173, DW_AT_data_member_location[DW_OP_plus_uconst 0x8]
    1972                      .dwattr DW$173, DW_AT_accessibility(DW_ACCESS_public)
    1973              DW$174  .dwtag  DW_TAG_member, DW_AT_type(*DW$T$23)
    1974                      .dwattr DW$174, DW_AT_name("USER_mod_id"), DW_AT_symbol_name("_USER_mod_id")
    1975                      .dwattr DW$174, DW_AT_data_member_location[DW_OP_plus_uconst 0x9]
    1976                      .dwattr DW$174, DW_AT_accessibility(DW_ACCESS_public)
    1977              DW$175  .dwtag  DW_TAG_member, DW_AT_type(*DW$T$23)
    1978                      .dwattr DW$175, DW_AT_name("COMR_mod_id"), DW_AT_symbol_name("_COMR_mod_id")
    1979                      .dwattr DW$175, DW_AT_data_member_location[DW_OP_plus_uconst 0xa]
    1980                      .dwattr DW$175, DW_AT_accessibility(DW_ACCESS_public)
    1981              DW$176  .dwtag  DW_TAG_member, DW_AT_type(*DW$T$23)
    1982                      .dwattr DW$176, DW_AT_name("WIR_mod_id"), DW_AT_symbol_name("_WIR_mod_id")
    1983                      .dwattr DW$176, DW_AT_data_member_location[DW_OP_plus_uconst 0xb]
    1984                      .dwattr DW$176, DW_AT_accessibility(DW_ACCESS_public)
    1985              DW$177  .dwtag  DW_TAG_member, DW_AT_type(*DW$T$23)
    1986                      .dwattr DW$177, DW_AT_name("Save_mod_id"), DW_AT_symbol_name("_Save_mod_id")
    1987                      .dwattr DW$177, DW_AT_data_member_location[DW_OP_plus_uconst 0xc]
    1988                      .dwattr DW$177, DW_AT_accessibility(DW_ACCESS_public)
    1989              DW$178  .dwtag  DW_TAG_member, DW_AT_type(*DW$T$23)
    1990                      .dwattr DW$178, DW_AT_name("Iout_mod_id"), DW_AT_symbol_name("_Iout_mod_id")
    1991                      .dwattr DW$178, DW_AT_data_member_location[DW_OP_plus_uconst 0xd]
    1992                      .dwattr DW$178, DW_AT_accessibility(DW_ACCESS_public)
    1993                      .dwendtag DW$T$30
    1994              
    1995              
    1996              DW$T$33 .dwtag  DW_TAG_structure_type
    1997                      .dwattr DW$T$33, DW_AT_byte_size(0x5c)
    1998              DW$179  .dwtag  DW_TAG_member, DW_AT_type(*DW$T$23)
    1999                      .dwattr DW$179, DW_AT_name("real_mod_num"), DW_AT_symbol_name("_real_mod_num")
    2000                      .dwattr DW$179, DW_AT_data_member_location[DW_OP_plus_uconst 0x0]
    2001                      .dwattr DW$179, DW_AT_accessibility(DW_ACCESS_public)
TMS320C2000 COFF Assembler PC v4.1.3 Sat Sep 24 16:15:23 2011

Tools Copyright (c) 1996-2006 Texas Instruments Incorporated
C:\DOCUME~1\ADMINI~1\LOCALS~1\Temp\TI3202                            PAGE   39

    2002              DW$180  .dwtag  DW_TAG_member, DW_AT_type(*DW$T$32)
    2003                      .dwattr DW$180, DW_AT_name("mod_inlet_list"), DW_AT_symbol_name("_mod_inlet_list")
    2004                      .dwattr DW$180, DW_AT_data_member_location[DW_OP_plus_uconst 0x2]
    2005                      .dwattr DW$180, DW_AT_accessibility(DW_ACCESS_public)
    2006                      .dwendtag DW$T$33
    2007              
    2008              DW$T$61 .dwtag  DW_TAG_base_type, DW_AT_name("signed char")
    2009                      .dwattr DW$T$61, DW_AT_encoding(DW_ATE_signed_char)
    2010                      .dwattr DW$T$61, DW_AT_byte_size(0x01)
    2011              
    2012              DW$T$22 .dwtag  DW_TAG_structure_type
    2013                      .dwattr DW$T$22, DW_AT_name("os_event")
    2014                      .dwattr DW$T$22, DW_AT_byte_size(0x0e)
    2015              DW$181  .dwtag  DW_TAG_member, DW_AT_type(*DW$T$19)
    2016                      .dwattr DW$181, DW_AT_name("OSEventType"), DW_AT_symbol_name("_OSEventType")
    2017                      .dwattr DW$181, DW_AT_data_member_location[DW_OP_plus_uconst 0x0]
    2018                      .dwattr DW$181, DW_AT_accessibility(DW_ACCESS_public)
    2019              DW$182  .dwtag  DW_TAG_member, DW_AT_type(*DW$T$3)
    2020                      .dwattr DW$182, DW_AT_name("OSEventPtr"), DW_AT_symbol_name("_OSEventPtr")
    2021                      .dwattr DW$182, DW_AT_data_member_location[DW_OP_plus_uconst 0x2]
    2022                      .dwattr DW$182, DW_AT_accessibility(DW_ACCESS_public)
    2023              DW$183  .dwtag  DW_TAG_member, DW_AT_type(*DW$T$20)
    2024                      .dwattr DW$183, DW_AT_name("OSEventCnt"), DW_AT_symbol_name("_OSEventCnt")
    2025                      .dwattr DW$183, DW_AT_data_member_location[DW_OP_plus_uconst 0x4]
    2026                      .dwattr DW$183, DW_AT_accessibility(DW_ACCESS_public)
    2027              DW$184  .dwtag  DW_TAG_member, DW_AT_type(*DW$T$19)
    2028                      .dwattr DW$184, DW_AT_name("OSEventGrp"), DW_AT_symbol_name("_OSEventGrp")
    2029                      .dwattr DW$184, DW_AT_data_member_location[DW_OP_plus_uconst 0x5]
    2030                      .dwattr DW$184, DW_AT_accessibility(DW_ACCESS_public)
    2031              DW$185  .dwtag  DW_TAG_member, DW_AT_type(*DW$T$21)
    2032                      .dwattr DW$185, DW_AT_name("OSEventTbl"), DW_AT_symbol_name("_OSEventTbl")
    2033                      .dwattr DW$185, DW_AT_data_member_location[DW_OP_plus_uconst 0x6]
    2034                      .dwattr DW$185, DW_AT_accessibility(DW_ACCESS_public)
    2035                      .dwendtag DW$T$22
    2036              
    2037              
    2038              DW$T$28 .dwtag  DW_TAG_structure_type
    2039                      .dwattr DW$T$28, DW_AT_byte_size(0x06)
    2040              DW$186  .dwtag  DW_TAG_member, DW_AT_type(*DW$T$23)
    2041                      .dwattr DW$186, DW_AT_name("mod_id"), DW_AT_symbol_name("_mod_id")
    2042                      .dwattr DW$186, DW_AT_data_member_location[DW_OP_plus_uconst 0x0]
    2043                      .dwattr DW$186, DW_AT_accessibility(DW_ACCESS_public)
    2044              DW$187  .dwtag  DW_TAG_member, DW_AT_type(*DW$T$26)
    2045                      .dwattr DW$187, DW_AT_name("insmod_fun"), DW_AT_symbol_name("_insmod_fun")
    2046                      .dwattr DW$187, DW_AT_data_member_location[DW_OP_plus_uconst 0x2]
    2047                      .dwattr DW$187, DW_AT_accessibility(DW_ACCESS_public)
    2048              DW$188  .dwtag  DW_TAG_member, DW_AT_type(*DW$T$27)
    2049                      .dwattr DW$188, DW_AT_name("exitmod_fun"), DW_AT_symbol_name("_exitmod_fun")
    2050                      .dwattr DW$188, DW_AT_data_member_location[DW_OP_plus_uconst 0x4]
    2051                      .dwattr DW$188, DW_AT_accessibility(DW_ACCESS_public)
    2052                      .dwendtag DW$T$28
    2053              
    2054              
    2055              DW$T$32 .dwtag  DW_TAG_array_type, DW_AT_type(*DW$T$31)
    2056                      .dwattr DW$T$32, DW_AT_language(DW_LANG_C)
TMS320C2000 COFF Assembler PC v4.1.3 Sat Sep 24 16:15:23 2011

Tools Copyright (c) 1996-2006 Texas Instruments Incorporated
C:\DOCUME~1\ADMINI~1\LOCALS~1\Temp\TI3202                            PAGE   40

    2057                      .dwattr DW$T$32, DW_AT_byte_size(0x5a)
    2058              DW$189  .dwtag  DW_TAG_subrange_type
    2059                      .dwattr DW$189, DW_AT_upper_bound(0x0e)
    2060                      .dwendtag DW$T$32
    2061              
    2062              
    2063              DW$T$29 .dwtag  DW_TAG_structure_type
    2064                      .dwattr DW$T$29, DW_AT_byte_size(0x04)
    2065              DW$190  .dwtag  DW_TAG_member, DW_AT_type(*DW$T$23)
    2066                      .dwattr DW$190, DW_AT_name("occupy_flag"), DW_AT_symbol_name("_occupy_flag")
    2067                      .dwattr DW$190, DW_AT_data_member_location[DW_OP_plus_uconst 0x0]
    2068                      .dwattr DW$190, DW_AT_accessibility(DW_ACCESS_public)
    2069              DW$191  .dwtag  DW_TAG_member, DW_AT_type(*DW$T$23)
    2070                      .dwattr DW$191, DW_AT_name("msg_type"), DW_AT_symbol_name("_msg_type")
    2071                      .dwattr DW$191, DW_AT_data_member_location[DW_OP_plus_uconst 0x1]
    2072                      .dwattr DW$191, DW_AT_accessibility(DW_ACCESS_public)
    2073              DW$192  .dwtag  DW_TAG_member, DW_AT_type(*DW$T$23)
    2074                      .dwattr DW$192, DW_AT_name("start_mod_id"), DW_AT_symbol_name("_start_mod_id")
    2075                      .dwattr DW$192, DW_AT_data_member_location[DW_OP_plus_uconst 0x2]
    2076                      .dwattr DW$192, DW_AT_accessibility(DW_ACCESS_public)
    2077              DW$193  .dwtag  DW_TAG_member, DW_AT_type(*DW$T$23)
    2078                      .dwattr DW$193, DW_AT_name("stop_mod_id"), DW_AT_symbol_name("_stop_mod_id")
    2079                      .dwattr DW$193, DW_AT_data_member_location[DW_OP_plus_uconst 0x3]
    2080                      .dwattr DW$193, DW_AT_accessibility(DW_ACCESS_public)
    2081                      .dwendtag DW$T$29
    2082              
    2083              DW$T$26 .dwtag  DW_TAG_typedef, DW_AT_name("app_insmod_t"), DW_AT_type(*DW$T$25)
    2084                      .dwattr DW$T$26, DW_AT_language(DW_LANG_C)
    2085              DW$T$27 .dwtag  DW_TAG_typedef, DW_AT_name("app_exitmod_t"), DW_AT_type(*DW$T$25)
    2086                      .dwattr DW$T$27, DW_AT_language(DW_LANG_C)
    2087              
    2088              DW$T$21 .dwtag  DW_TAG_array_type, DW_AT_type(*DW$T$19)
    2089                      .dwattr DW$T$21, DW_AT_language(DW_LANG_C)
    2090                      .dwattr DW$T$21, DW_AT_byte_size(0x08)
    2091              DW$194  .dwtag  DW_TAG_subrange_type
    2092                      .dwattr DW$194, DW_AT_upper_bound(0x07)
    2093                      .dwendtag DW$T$21
    2094              
    2095              DW$T$25 .dwtag  DW_TAG_pointer_type, DW_AT_type(*DW$T$24)
    2096                      .dwattr DW$T$25, DW_AT_address_class(0x16)
    2097              
    2098                      .dwattr DW$66, DW_AT_external(0x01)
    2099                      .dwattr DW$66, DW_AT_type(*DW$T$23)
    2100                      .dwattr DW$97, DW_AT_external(0x01)
    2101                      .dwattr DW$75, DW_AT_external(0x01)
    2102                      .dwattr DW$56, DW_AT_external(0x01)
    2103                      .dwattr DW$127, DW_AT_external(0x01)
    2104                      .dwattr DW$127, DW_AT_type(*DW$T$23)
    2105                      .dwattr DW$128, DW_AT_external(0x01)
    2106                      .dwattr DW$128, DW_AT_type(*DW$T$23)
    2107                      .dwattr DW$79, DW_AT_external(0x01)
    2108                      .dwattr DW$79, DW_AT_type(*DW$T$87)
    2109                      .dwattr DW$129, DW_AT_external(0x01)
    2110                      .dwattr DW$129, DW_AT_type(*DW$T$23)
    2111                      .dwattr DW$100, DW_AT_external(0x01)
TMS320C2000 COFF Assembler PC v4.1.3 Sat Sep 24 16:15:23 2011

Tools Copyright (c) 1996-2006 Texas Instruments Incorporated
C:\DOCUME~1\ADMINI~1\LOCALS~1\Temp\TI3202                            PAGE   41

    2112                      .dwattr DW$126, DW_AT_external(0x01)
    2113                      .dwattr DW$123, DW_AT_external(0x01)
    2114                      .dwattr DW$123, DW_AT_type(*DW$T$23)
    2115                      .dwattr DW$120, DW_AT_external(0x01)
    2116                      .dwattr DW$84, DW_AT_external(0x01)
    2117                      .dwattr DW$52, DW_AT_external(0x01)
    2118                      .dwattr DW$46, DW_AT_external(0x01)
    2119                      .dwattr DW$103, DW_AT_external(0x01)
    2120                      .dwattr DW$49, DW_AT_external(0x01)
    2121                      .dwattr DW$60, DW_AT_external(0x01)
    2122                      .dwattr DW$96, DW_AT_external(0x01)
    2123                      .dwattr DW$CU, DW_AT_language(DW_LANG_C)
    2124              
    2125              ;***************************************************************
    2126              ;* DWARF CIE ENTRIES                                           *
    2127              ;***************************************************************
    2128              
    2129              DW$CIE  .dwcie 1, 40
    2130                      .dwcfa  0x0c, 20, 0
    2131                      .dwcfa  0x07, 0
    2132                      .dwcfa  0x07, 1
    2133                      .dwcfa  0x07, 2
    2134                      .dwcfa  0x07, 3
    2135                      .dwcfa  0x07, 4
    2136                      .dwcfa  0x07, 5
    2137                      .dwcfa  0x08, 6
    2138                      .dwcfa  0x08, 7
    2139                      .dwcfa  0x08, 8
    2140                      .dwcfa  0x08, 9
    2141                      .dwcfa  0x08, 10
    2142                      .dwcfa  0x08, 11
    2143                      .dwcfa  0x07, 12
    2144                      .dwcfa  0x07, 13
    2145                      .dwcfa  0x07, 14
    2146                      .dwcfa  0x07, 15
    2147                      .dwcfa  0x07, 16
    2148                      .dwcfa  0x07, 17
    2149                      .dwcfa  0x07, 18
    2150                      .dwcfa  0x07, 19
    2151                      .dwcfa  0x07, 20
    2152                      .dwcfa  0x07, 21
    2153                      .dwcfa  0x07, 22
    2154                      .dwcfa  0x07, 23
    2155                      .dwcfa  0x07, 24
    2156                      .dwcfa  0x07, 25
    2157                      .dwcfa  0x07, 26
    2158                      .dwcfa  0x08, 27
    2159                      .dwcfa  0x07, 28
    2160                      .dwcfa  0x07, 29
    2161                      .dwcfa  0x07, 30
    2162                      .dwcfa  0x07, 31
    2163                      .dwcfa  0x07, 32
    2164                      .dwcfa  0x07, 33
    2165                      .dwcfa  0x07, 34
    2166                      .dwcfa  0x07, 35
TMS320C2000 COFF Assembler PC v4.1.3 Sat Sep 24 16:15:23 2011

Tools Copyright (c) 1996-2006 Texas Instruments Incorporated
C:\DOCUME~1\ADMINI~1\LOCALS~1\Temp\TI3202                            PAGE   42

    2167                      .dwcfa  0x07, 36
    2168                      .dwcfa  0x07, 37
    2169                      .dwcfa  0x07, 38
    2170                      .dwcfa  0x07, 39
    2171                      .dwcfa  0x07, 40
    2172              
    2173              ;***************************************************************
    2174              ;* DWARF REGISTER MAP                                          *
    2175              ;***************************************************************
    2176              
    2177              DW$195  .dwtag  DW_TAG_assign_register, DW_AT_name("AL")
    2178                      .dwattr DW$195, DW_AT_location[DW_OP_reg0]
    2179              DW$196  .dwtag  DW_TAG_assign_register, DW_AT_name("AH")
    2180                      .dwattr DW$196, DW_AT_location[DW_OP_reg1]
    2181              DW$197  .dwtag  DW_TAG_assign_register, DW_AT_name("PL")
    2182                      .dwattr DW$197, DW_AT_location[DW_OP_reg2]
    2183              DW$198  .dwtag  DW_TAG_assign_register, DW_AT_name("PH")
    2184                      .dwattr DW$198, DW_AT_location[DW_OP_reg3]
    2185              DW$199  .dwtag  DW_TAG_assign_register, DW_AT_name("AR0")
    2186                      .dwattr DW$199, DW_AT_location[DW_OP_reg4]
    2187              DW$200  .dwtag  DW_TAG_assign_register, DW_AT_name("XAR0")
    2188                      .dwattr DW$200, DW_AT_location[DW_OP_reg5]
    2189              DW$201  .dwtag  DW_TAG_assign_register, DW_AT_name("AR1")
    2190                      .dwattr DW$201, DW_AT_location[DW_OP_reg6]
    2191              DW$202  .dwtag  DW_TAG_assign_register, DW_AT_name("XAR1")
    2192                      .dwattr DW$202, DW_AT_location[DW_OP_reg7]
    2193              DW$203  .dwtag  DW_TAG_assign_register, DW_AT_name("AR2")
    2194                      .dwattr DW$203, DW_AT_location[DW_OP_reg8]
    2195              DW$204  .dwtag  DW_TAG_assign_register, DW_AT_name("XAR2")
    2196                      .dwattr DW$204, DW_AT_location[DW_OP_reg9]
    2197              DW$205  .dwtag  DW_TAG_assign_register, DW_AT_name("AR3")
    2198                      .dwattr DW$205, DW_AT_location[DW_OP_reg10]
    2199              DW$206  .dwtag  DW_TAG_assign_register, DW_AT_name("XAR3")
    2200                      .dwattr DW$206, DW_AT_location[DW_OP_reg11]
    2201              DW$207  .dwtag  DW_TAG_assign_register, DW_AT_name("AR4")
    2202                      .dwattr DW$207, DW_AT_location[DW_OP_reg12]
    2203              DW$208  .dwtag  DW_TAG_assign_register, DW_AT_name("XAR4")
    2204                      .dwattr DW$208, DW_AT_location[DW_OP_reg13]
    2205              DW$209  .dwtag  DW_TAG_assign_register, DW_AT_name("AR5")
    2206                      .dwattr DW$209, DW_AT_location[DW_OP_reg14]
    2207              DW$210  .dwtag  DW_TAG_assign_register, DW_AT_name("XAR5")
    2208                      .dwattr DW$210, DW_AT_location[DW_OP_reg15]
    2209              DW$211  .dwtag  DW_TAG_assign_register, DW_AT_name("AR6")
    2210                      .dwattr DW$211, DW_AT_location[DW_OP_reg16]
    2211              DW$212  .dwtag  DW_TAG_assign_register, DW_AT_name("XAR6")
    2212                      .dwattr DW$212, DW_AT_location[DW_OP_reg17]
    2213              DW$213  .dwtag  DW_TAG_assign_register, DW_AT_name("AR7")
    2214                      .dwattr DW$213, DW_AT_location[DW_OP_reg18]
    2215              DW$214  .dwtag  DW_TAG_assign_register, DW_AT_name("XAR7")
    2216                      .dwattr DW$214, DW_AT_location[DW_OP_reg19]
    2217              DW$215  .dwtag  DW_TAG_assign_register, DW_AT_name("SP")
    2218                      .dwattr DW$215, DW_AT_location[DW_OP_reg20]
    2219              DW$216  .dwtag  DW_TAG_assign_register, DW_AT_name("XT")
    2220                      .dwattr DW$216, DW_AT_location[DW_OP_reg21]
    2221              DW$217  .dwtag  DW_TAG_assign_register, DW_AT_name("T")
TMS320C2000 COFF Assembler PC v4.1.3 Sat Sep 24 16:15:23 2011

Tools Copyright (c) 1996-2006 Texas Instruments Incorporated
C:\DOCUME~1\ADMINI~1\LOCALS~1\Temp\TI3202                            PAGE   43

    2222                      .dwattr DW$217, DW_AT_location[DW_OP_reg22]
    2223              DW$218  .dwtag  DW_TAG_assign_register, DW_AT_name("ST0")
    2224                      .dwattr DW$218, DW_AT_location[DW_OP_reg23]
    2225              DW$219  .dwtag  DW_TAG_assign_register, DW_AT_name("ST1")
    2226                      .dwattr DW$219, DW_AT_location[DW_OP_reg24]
    2227              DW$220  .dwtag  DW_TAG_assign_register, DW_AT_name("PC")
    2228                      .dwattr DW$220, DW_AT_location[DW_OP_reg25]
    2229              DW$221  .dwtag  DW_TAG_assign_register, DW_AT_name("RPC")
    2230                      .dwattr DW$221, DW_AT_location[DW_OP_reg26]
    2231              DW$222  .dwtag  DW_TAG_assign_register, DW_AT_name("FP")
    2232                      .dwattr DW$222, DW_AT_location[DW_OP_reg27]
    2233              DW$223  .dwtag  DW_TAG_assign_register, DW_AT_name("DP")
    2234                      .dwattr DW$223, DW_AT_location[DW_OP_reg28]
    2235              DW$224  .dwtag  DW_TAG_assign_register, DW_AT_name("SXM")
    2236                      .dwattr DW$224, DW_AT_location[DW_OP_reg29]
    2237              DW$225  .dwtag  DW_TAG_assign_register, DW_AT_name("PM")
    2238                      .dwattr DW$225, DW_AT_location[DW_OP_reg30]
    2239              DW$226  .dwtag  DW_TAG_assign_register, DW_AT_name("OVM")
    2240                      .dwattr DW$226, DW_AT_location[DW_OP_reg31]
    2241              DW$227  .dwtag  DW_TAG_assign_register, DW_AT_name("PAGE0")
    2242                      .dwattr DW$227, DW_AT_location[DW_OP_regx 0x20]
    2243              DW$228  .dwtag  DW_TAG_assign_register, DW_AT_name("AMODE")
    2244                      .dwattr DW$228, DW_AT_location[DW_OP_regx 0x21]
    2245              DW$229  .dwtag  DW_TAG_assign_register, DW_AT_name("IFR")
    2246                      .dwattr DW$229, DW_AT_location[DW_OP_regx 0x22]
    2247              DW$230  .dwtag  DW_TAG_assign_register, DW_AT_name("IER")
    2248                      .dwattr DW$230, DW_AT_location[DW_OP_regx 0x23]
    2249              DW$231  .dwtag  DW_TAG_assign_register, DW_AT_name("IER")
    2250                      .dwattr DW$231, DW_AT_location[DW_OP_regx 0x24]
    2251              DW$232  .dwtag  DW_TAG_assign_register, DW_AT_name("PSEUDO")
    2252                      .dwattr DW$232, DW_AT_location[DW_OP_regx 0x25]
    2253              DW$233  .dwtag  DW_TAG_assign_register, DW_AT_name("PSEUDOH")
    2254                      .dwattr DW$233, DW_AT_location[DW_OP_regx 0x26]
    2255              DW$234  .dwtag  DW_TAG_assign_register, DW_AT_name("VOL")
    2256                      .dwattr DW$234, DW_AT_location[DW_OP_regx 0x27]
    2257              DW$235  .dwtag  DW_TAG_assign_register, DW_AT_name("CIE_RETA")
    2258                      .dwattr DW$235, DW_AT_location[DW_OP_regx 0x28]
    2259                      .dwendtag DW$CU
    2260              

No Assembly Errors, No Assembly Warnings
